GAS LISTING /tmp/ccZnfTtS.s 			page 1


   1              		.file	"chcond.c"
   2              		.text
   3              	.Ltext0:
   4              		.file 0 "/home/alex/ChibiOS/demos/various/LAB2" "../../../os/rt/src/chcond.c"
   5              		.section	.text.chCondObjectInit,"ax",@progbits
   6              		.p2align 4
   7              		.globl	chCondObjectInit
   8              		.type	chCondObjectInit, @function
   9              	chCondObjectInit:
  10              	.LVL0:
  11              	.LFB215:
  12              		.file 1 "../../../os/rt/src/chcond.c"
  13              		.loc 1 77 49 view -0
  14              		.cfi_startproc
  15              		.loc 1 79 3 view .LVU1
  16              		.loc 1 79 3 view .LVU2
  17              		.loc 1 79 3 view .LVU3
  18              		.loc 1 81 3 view .LVU4
  19              		.loc 1 77 49 is_stmt 0 view .LVU5
  20 0000 8B442404 		movl	4(%esp), %eax
  21              	.LVL1:
  22              	.LBB67:
  23              	.LBI67:
  24              		.file 2 "../../../os/rt/include/chlists.h"
  25              		.loc 2 282 20 is_stmt 1 view .LVU6
  26              	.LBB68:
  27              		.loc 2 284 3 view .LVU7
  28              		.loc 2 284 12 is_stmt 0 view .LVU8
  29 0004 8900     		movl	%eax, (%eax)
  30              		.loc 2 285 3 is_stmt 1 view .LVU9
  31              		.loc 2 285 12 is_stmt 0 view .LVU10
  32 0006 894004   		movl	%eax, 4(%eax)
  33              	.LVL2:
  34              		.loc 2 285 12 view .LVU11
  35              	.LBE68:
  36              	.LBE67:
  37              		.loc 1 82 1 view .LVU12
  38 0009 C3       		ret
  39              		.cfi_endproc
  40              	.LFE215:
  41              		.size	chCondObjectInit, .-chCondObjectInit
  42              		.section	.text.chCondObjectDispose,"ax",@progbits
  43              		.p2align 4
  44              		.globl	chCondObjectDispose
  45              		.type	chCondObjectDispose, @function
  46              	chCondObjectDispose:
  47              	.LVL3:
  48              	.LFB216:
  49              		.loc 1 99 52 is_stmt 1 view -0
  50              		.cfi_startproc
  51              		.loc 1 101 3 view .LVU14
  52              		.loc 1 101 3 view .LVU15
  53              		.loc 1 101 3 view .LVU16
  54              		.loc 1 102 3 view .LVU17
  55              		.loc 1 102 3 view .LVU18
  56              		.loc 1 102 3 view .LVU19
  57              		.loc 1 108 1 is_stmt 0 view .LVU20
GAS LISTING /tmp/ccZnfTtS.s 			page 2


  58 0000 C3       		ret
  59              		.cfi_endproc
  60              	.LFE216:
  61              		.size	chCondObjectDispose, .-chCondObjectDispose
  62              		.section	.text.chCondSignal,"ax",@progbits
  63              		.p2align 4
  64              		.globl	chCondSignal
  65              		.type	chCondSignal, @function
  66              	chCondSignal:
  67              	.LVL4:
  68              	.LFB217:
  69              		.loc 1 117 45 is_stmt 1 view -0
  70              		.cfi_startproc
  71              		.loc 1 119 3 view .LVU22
  72              		.loc 1 119 3 view .LVU23
  73              		.loc 1 119 3 view .LVU24
  74              		.loc 1 121 3 view .LVU25
  75              	.LBB69:
  76              	.LBI69:
  77              		.file 3 "../../../os/rt/include/chsys.h"
  78              		.loc 3 407 20 view .LVU26
  79              		.loc 3 409 3 view .LVU27
  80              	.LBB70:
  81              	.LBI70:
  82              		.file 4 "../../../os/common/ports/SIMIA32/chcore.h"
  83              		.loc 4 361 20 view .LVU28
  84              	.LBB71:
  85              		.loc 4 363 3 view .LVU29
  86              	.LBE71:
  87              	.LBE70:
  88              	.LBE69:
  89              		.loc 1 117 45 is_stmt 0 view .LVU30
  90 0000 56       		pushl	%esi
  91              		.cfi_def_cfa_offset 8
  92              		.cfi_offset 6, -8
  93 0001 53       		pushl	%ebx
  94              		.cfi_def_cfa_offset 12
  95              		.cfi_offset 3, -12
  96 0002 E8FCFFFF 		call	__x86.get_pc_thunk.bx
  96      FF
  97 0007 81C30200 		addl	$_GLOBAL_OFFSET_TABLE_, %ebx
  97      0000
  98 000d 83EC04   		subl	$4, %esp
  99              		.cfi_def_cfa_offset 16
 100              		.loc 1 117 45 view .LVU31
 101 0010 8B442410 		movl	16(%esp), %eax
 102              	.LBB74:
 103              	.LBB75:
 104              		.loc 2 311 19 view .LVU32
 105 0014 8B10     		movl	(%eax), %edx
 106              	.LBE75:
 107              	.LBE74:
 108              	.LBB77:
 109              	.LBB73:
 110              	.LBB72:
 111              		.loc 4 363 16 view .LVU33
 112 0016 8BB30000 		movl	port_irq_sts@GOT(%ebx), %esi
GAS LISTING /tmp/ccZnfTtS.s 			page 3


 112      0000
 113 001c C7060100 		movl	$1, (%esi)
 113      0000
 114              	.LBE72:
 115              	.LBE73:
 116              		.loc 3 410 35 is_stmt 1 view .LVU34
 117              		.loc 3 411 21 view .LVU35
 118              	.LBE77:
 119              		.loc 1 122 3 view .LVU36
 120              	.LVL5:
 121              	.LBB78:
 122              	.LBI74:
 123              		.loc 2 309 20 view .LVU37
 124              	.LBB76:
 125              		.loc 2 311 3 view .LVU38
 126              		.loc 2 311 3 is_stmt 0 view .LVU39
 127              	.LBE76:
 128              	.LBE78:
 129              		.loc 1 122 6 view .LVU40
 130 0022 39D0     		cmpl	%edx, %eax
 131 0024 7415     		je	.L5
 132              		.loc 1 123 5 is_stmt 1 view .LVU41
 133              	.LVL6:
 134              	.LBB79:
 135              	.LBI79:
 136              		.loc 2 340 27 view .LVU42
 137              	.LBB80:
 138              		.loc 2 341 3 view .LVU43
 139              		.loc 2 343 3 view .LVU44
 140              		.loc 2 343 21 is_stmt 0 view .LVU45
 141 0026 8B0A     		movl	(%edx), %ecx
 142              	.LBE80:
 143              	.LBE79:
 144              		.loc 1 123 5 view .LVU46
 145 0028 83EC08   		subl	$8, %esp
 146              		.cfi_def_cfa_offset 24
 147              	.LBB82:
 148              	.LBB81:
 149              		.loc 2 343 18 view .LVU47
 150 002b 8908     		movl	%ecx, (%eax)
 151              		.loc 2 344 3 is_stmt 1 view .LVU48
 152              		.loc 2 344 18 is_stmt 0 view .LVU49
 153 002d 894104   		movl	%eax, 4(%ecx)
 154              		.loc 2 346 3 is_stmt 1 view .LVU50
 155              	.LVL7:
 156              		.loc 2 346 3 is_stmt 0 view .LVU51
 157              	.LBE81:
 158              	.LBE82:
 159              		.loc 1 123 5 view .LVU52
 160 0030 6A00     		pushl	$0
 161              		.cfi_def_cfa_offset 28
 162 0032 52       		pushl	%edx
 163              		.cfi_def_cfa_offset 32
 164 0033 E8FCFFFF 		call	chSchWakeupS@PLT
 164      FF
 165              	.LVL8:
 166 0038 83C410   		addl	$16, %esp
GAS LISTING /tmp/ccZnfTtS.s 			page 4


 167              		.cfi_def_cfa_offset 16
 168              	.L5:
 169              		.loc 1 125 3 is_stmt 1 view .LVU53
 170              	.LBB83:
 171              	.LBI83:
 172              		.loc 3 421 20 view .LVU54
 173              	.LBB84:
 174              		.loc 3 423 23 view .LVU55
 175              		.loc 3 424 34 view .LVU56
 176              		.loc 3 430 3 view .LVU57
 177              		.loc 3 430 3 view .LVU58
 178              		.loc 3 430 3 view .LVU59
 179              		.loc 3 434 3 view .LVU60
 180              	.LBB85:
 181              	.LBI85:
 182              		.loc 4 370 20 view .LVU61
 183              	.LBB86:
 184              		.loc 4 372 3 view .LVU62
 185              		.loc 4 372 16 is_stmt 0 view .LVU63
 186 003b C7060000 		movl	$0, (%esi)
 186      0000
 187              	.LBE86:
 188              	.LBE85:
 189              	.LBE84:
 190              	.LBE83:
 191              		.loc 1 126 1 view .LVU64
 192 0041 83C404   		addl	$4, %esp
 193              		.cfi_def_cfa_offset 12
 194 0044 5B       		popl	%ebx
 195              		.cfi_restore 3
 196              		.cfi_def_cfa_offset 8
 197 0045 5E       		popl	%esi
 198              		.cfi_restore 6
 199              		.cfi_def_cfa_offset 4
 200 0046 C3       		ret
 201              		.cfi_endproc
 202              	.LFE217:
 203              		.size	chCondSignal, .-chCondSignal
 204              		.section	.text.chCondSignalI,"ax",@progbits
 205              		.p2align 4
 206              		.globl	chCondSignalI
 207              		.type	chCondSignalI, @function
 208              	chCondSignalI:
 209              	.LVL9:
 210              	.LFB218:
 211              		.loc 1 139 46 is_stmt 1 view -0
 212              		.cfi_startproc
 213              		.loc 1 141 21 view .LVU66
 214              		.loc 1 142 3 view .LVU67
 215              		.loc 1 142 3 view .LVU68
 216              		.loc 1 142 3 view .LVU69
 217              		.loc 1 144 3 view .LVU70
 218              		.loc 1 139 46 is_stmt 0 view .LVU71
 219 0000 53       		pushl	%ebx
 220              		.cfi_def_cfa_offset 8
 221              		.cfi_offset 3, -8
 222 0001 E8FCFFFF 		call	__x86.get_pc_thunk.bx
GAS LISTING /tmp/ccZnfTtS.s 			page 5


 222      FF
 223 0006 81C30200 		addl	$_GLOBAL_OFFSET_TABLE_, %ebx
 223      0000
 224 000c 83EC08   		subl	$8, %esp
 225              		.cfi_def_cfa_offset 16
 226              		.loc 1 139 46 view .LVU72
 227 000f 8B442410 		movl	16(%esp), %eax
 228              	.LVL10:
 229              	.LBB87:
 230              	.LBI87:
 231              		.loc 2 309 20 is_stmt 1 view .LVU73
 232              	.LBB88:
 233              		.loc 2 311 3 view .LVU74
 234              		.loc 2 311 19 is_stmt 0 view .LVU75
 235 0013 8B10     		movl	(%eax), %edx
 236              	.LVL11:
 237              		.loc 2 311 19 view .LVU76
 238              	.LBE88:
 239              	.LBE87:
 240              		.loc 1 144 6 view .LVU77
 241 0015 39D0     		cmpl	%edx, %eax
 242 0017 741A     		je	.L7
 243              	.LBB89:
 244              		.loc 1 145 5 is_stmt 1 view .LVU78
 245              	.LVL12:
 246              	.LBB90:
 247              	.LBI90:
 248              		.loc 2 340 27 view .LVU79
 249              	.LBB91:
 250              		.loc 2 341 3 view .LVU80
 251              		.loc 2 343 3 view .LVU81
 252              		.loc 2 343 21 is_stmt 0 view .LVU82
 253 0019 8B0A     		movl	(%edx), %ecx
 254              	.LBE91:
 255              	.LBE90:
 256              		.loc 1 147 12 view .LVU83
 257 001b 83EC0C   		subl	$12, %esp
 258              		.cfi_def_cfa_offset 28
 259              	.LBB93:
 260              	.LBB92:
 261              		.loc 2 343 18 view .LVU84
 262 001e 8908     		movl	%ecx, (%eax)
 263              		.loc 2 344 3 is_stmt 1 view .LVU85
 264              		.loc 2 344 18 is_stmt 0 view .LVU86
 265 0020 894104   		movl	%eax, 4(%ecx)
 266              		.loc 2 346 3 is_stmt 1 view .LVU87
 267              	.LVL13:
 268              		.loc 2 346 3 is_stmt 0 view .LVU88
 269              	.LBE92:
 270              	.LBE93:
 271              		.loc 1 146 5 is_stmt 1 view .LVU89
 272              		.loc 1 146 18 is_stmt 0 view .LVU90
 273 0023 C7423400 		movl	$0, 52(%edx)
 273      000000
 274              		.loc 1 147 5 is_stmt 1 view .LVU91
 275              		.loc 1 147 12 is_stmt 0 view .LVU92
 276 002a 52       		pushl	%edx
GAS LISTING /tmp/ccZnfTtS.s 			page 6


 277              		.cfi_def_cfa_offset 32
 278 002b E8FCFFFF 		call	chSchReadyI@PLT
 278      FF
 279              	.LVL14:
 280              		.loc 1 147 12 view .LVU93
 281 0030 83C410   		addl	$16, %esp
 282              		.cfi_def_cfa_offset 16
 283              	.L7:
 284              		.loc 1 147 12 view .LVU94
 285              	.LBE89:
 286              		.loc 1 149 1 view .LVU95
 287 0033 83C408   		addl	$8, %esp
 288              		.cfi_def_cfa_offset 8
 289 0036 5B       		popl	%ebx
 290              		.cfi_restore 3
 291              		.cfi_def_cfa_offset 4
 292 0037 C3       		ret
 293              		.cfi_endproc
 294              	.LFE218:
 295              		.size	chCondSignalI, .-chCondSignalI
 296              		.section	.text.chCondBroadcast,"ax",@progbits
 297              		.p2align 4
 298              		.globl	chCondBroadcast
 299              		.type	chCondBroadcast, @function
 300              	chCondBroadcast:
 301              	.LVL15:
 302              	.LFB219:
 303              		.loc 1 158 48 is_stmt 1 view -0
 304              		.cfi_startproc
 305              		.loc 1 160 3 view .LVU97
 306              	.LBB107:
 307              	.LBI107:
 308              		.loc 3 407 20 view .LVU98
 309              		.loc 3 409 3 view .LVU99
 310              	.LBB108:
 311              	.LBI108:
 312              		.loc 4 361 20 view .LVU100
 313              	.LBB109:
 314              		.loc 4 363 3 view .LVU101
 315              	.LBE109:
 316              	.LBE108:
 317              	.LBE107:
 318              		.loc 1 158 48 is_stmt 0 view .LVU102
 319 0000 57       		pushl	%edi
 320              		.cfi_def_cfa_offset 8
 321              		.cfi_offset 7, -8
 322 0001 56       		pushl	%esi
 323              		.cfi_def_cfa_offset 12
 324              		.cfi_offset 6, -12
 325 0002 53       		pushl	%ebx
 326              		.cfi_def_cfa_offset 16
 327              		.cfi_offset 3, -16
 328              		.loc 1 158 48 view .LVU103
 329 0003 8B742410 		movl	16(%esp), %esi
 330 0007 E8FCFFFF 		call	__x86.get_pc_thunk.bx
 330      FF
 331 000c 81C30200 		addl	$_GLOBAL_OFFSET_TABLE_, %ebx
GAS LISTING /tmp/ccZnfTtS.s 			page 7


 331      0000
 332              	.LBB112:
 333              	.LBB113:
 334              	.LBB114:
 335              	.LBB115:
 336              		.loc 2 311 19 view .LVU104
 337 0012 8B06     		movl	(%esi), %eax
 338              	.LBE115:
 339              	.LBE114:
 340              	.LBE113:
 341              	.LBE112:
 342              	.LBB125:
 343              	.LBB111:
 344              	.LBB110:
 345              		.loc 4 363 16 view .LVU105
 346 0014 8BBB0000 		movl	port_irq_sts@GOT(%ebx), %edi
 346      0000
 347 001a C7070100 		movl	$1, (%edi)
 347      0000
 348              	.LBE110:
 349              	.LBE111:
 350              		.loc 3 410 35 is_stmt 1 view .LVU106
 351              		.loc 3 411 21 view .LVU107
 352              	.LBE125:
 353              		.loc 1 161 3 view .LVU108
 354              	.LVL16:
 355              	.LBB126:
 356              	.LBI112:
 357              		.loc 1 177 6 view .LVU109
 358              	.LBB124:
 359              		.loc 1 179 21 view .LVU110
 360              		.loc 1 180 3 view .LVU111
 361              		.loc 1 180 3 view .LVU112
 362              		.loc 1 180 3 view .LVU113
 363              		.loc 1 185 3 view .LVU114
 364              		.loc 1 185 10 view .LVU115
 365              	.LBB118:
 366              	.LBI114:
 367              		.loc 2 309 20 view .LVU116
 368              	.LBB116:
 369              		.loc 2 311 3 view .LVU117
 370              		.loc 2 311 3 is_stmt 0 view .LVU118
 371              	.LBE116:
 372              	.LBE118:
 373              		.loc 1 185 10 view .LVU119
 374 0020 39C6     		cmpl	%eax, %esi
 375 0022 7424     		je	.L11
 376              		.p2align 4,,10
 377 0024 8D742600 		.p2align 3
 378              	.L12:
 379              		.loc 1 186 5 is_stmt 1 view .LVU120
 380              	.LVL17:
 381              	.LBB119:
 382              	.LBI119:
 383              		.loc 2 340 27 view .LVU121
 384              	.LBB120:
 385              		.loc 2 341 3 view .LVU122
GAS LISTING /tmp/ccZnfTtS.s 			page 8


 386              		.loc 2 343 3 view .LVU123
 387              		.loc 2 343 21 is_stmt 0 view .LVU124
 388 0028 8B10     		movl	(%eax), %edx
 389              	.LBE120:
 390              	.LBE119:
 391              		.loc 1 186 5 view .LVU125
 392 002a 83EC0C   		subl	$12, %esp
 393              		.cfi_def_cfa_offset 28
 394              	.LBB122:
 395              	.LBB121:
 396              		.loc 2 343 18 view .LVU126
 397 002d 8916     		movl	%edx, (%esi)
 398              		.loc 2 344 3 is_stmt 1 view .LVU127
 399              		.loc 2 344 18 is_stmt 0 view .LVU128
 400 002f 897204   		movl	%esi, 4(%edx)
 401              		.loc 2 346 3 is_stmt 1 view .LVU129
 402              	.LVL18:
 403              		.loc 2 346 3 is_stmt 0 view .LVU130
 404              	.LBE121:
 405              	.LBE122:
 406              		.loc 1 186 5 view .LVU131
 407 0032 50       		pushl	%eax
 408              		.cfi_def_cfa_offset 32
 409 0033 E8FCFFFF 		call	chSchReadyI@PLT
 409      FF
 410              	.LVL19:
 411              		.loc 1 185 10 view .LVU132
 412 0038 83C410   		addl	$16, %esp
 413              		.cfi_def_cfa_offset 16
 414              		.loc 1 186 72 view .LVU133
 415 003b C74034FE 		movl	$-2, 52(%eax)
 415      FFFFFF
 416              		.loc 1 185 10 is_stmt 1 view .LVU134
 417              	.LVL20:
 418              	.LBB123:
 419              		.loc 2 309 20 view .LVU135
 420              	.LBB117:
 421              		.loc 2 311 3 view .LVU136
 422              		.loc 2 311 19 is_stmt 0 view .LVU137
 423 0042 8B06     		movl	(%esi), %eax
 424              	.LVL21:
 425              		.loc 2 311 19 view .LVU138
 426              	.LBE117:
 427              	.LBE123:
 428              		.loc 1 185 10 view .LVU139
 429 0044 39F0     		cmpl	%esi, %eax
 430 0046 75E0     		jne	.L12
 431              	.LVL22:
 432              	.L11:
 433              		.loc 1 185 10 view .LVU140
 434              	.LBE124:
 435              	.LBE126:
 436              		.loc 1 162 3 is_stmt 1 view .LVU141
 437 0048 E8FCFFFF 		call	chSchRescheduleS@PLT
 437      FF
 438              	.LVL23:
 439              		.loc 1 163 3 view .LVU142
GAS LISTING /tmp/ccZnfTtS.s 			page 9


 440              	.LBB127:
 441              	.LBI127:
 442              		.loc 3 421 20 view .LVU143
 443              	.LBB128:
 444              		.loc 3 423 23 view .LVU144
 445              		.loc 3 424 34 view .LVU145
 446              		.loc 3 430 3 view .LVU146
 447              		.loc 3 430 3 view .LVU147
 448              		.loc 3 430 3 view .LVU148
 449              		.loc 3 434 3 view .LVU149
 450              	.LBB129:
 451              	.LBI129:
 452              		.loc 4 370 20 view .LVU150
 453              	.LBB130:
 454              		.loc 4 372 3 view .LVU151
 455              	.LBE130:
 456              	.LBE129:
 457              	.LBE128:
 458              	.LBE127:
 459              		.loc 1 164 1 is_stmt 0 view .LVU152
 460 004d 5B       		popl	%ebx
 461              		.cfi_restore 3
 462              		.cfi_def_cfa_offset 12
 463 004e 5E       		popl	%esi
 464              		.cfi_restore 6
 465              		.cfi_def_cfa_offset 8
 466              	.LBB134:
 467              	.LBB133:
 468              	.LBB132:
 469              	.LBB131:
 470              		.loc 4 372 16 view .LVU153
 471 004f C7070000 		movl	$0, (%edi)
 471      0000
 472              	.LBE131:
 473              	.LBE132:
 474              	.LBE133:
 475              	.LBE134:
 476              		.loc 1 164 1 view .LVU154
 477 0055 5F       		popl	%edi
 478              		.cfi_restore 7
 479              		.cfi_def_cfa_offset 4
 480 0056 C3       		ret
 481              		.cfi_endproc
 482              	.LFE219:
 483              		.size	chCondBroadcast, .-chCondBroadcast
 484              		.section	.text.chCondBroadcastI,"ax",@progbits
 485              		.p2align 4
 486              		.globl	chCondBroadcastI
 487              		.type	chCondBroadcastI, @function
 488              	chCondBroadcastI:
 489              	.LVL24:
 490              	.LFB220:
 491              		.loc 1 177 49 is_stmt 1 view -0
 492              		.cfi_startproc
 493              		.loc 1 179 21 view .LVU156
 494              		.loc 1 180 3 view .LVU157
 495              		.loc 1 180 3 view .LVU158
GAS LISTING /tmp/ccZnfTtS.s 			page 10


 496              		.loc 1 180 3 view .LVU159
 497              		.loc 1 185 3 view .LVU160
 498              		.loc 1 185 10 view .LVU161
 499              		.loc 1 177 49 is_stmt 0 view .LVU162
 500 0000 56       		pushl	%esi
 501              		.cfi_def_cfa_offset 8
 502              		.cfi_offset 6, -8
 503 0001 53       		pushl	%ebx
 504              		.cfi_def_cfa_offset 12
 505              		.cfi_offset 3, -12
 506 0002 E8FCFFFF 		call	__x86.get_pc_thunk.bx
 506      FF
 507 0007 81C30200 		addl	$_GLOBAL_OFFSET_TABLE_, %ebx
 507      0000
 508 000d 83EC04   		subl	$4, %esp
 509              		.cfi_def_cfa_offset 16
 510              		.loc 1 177 49 view .LVU163
 511 0010 8B742410 		movl	16(%esp), %esi
 512              	.LVL25:
 513              	.LBB135:
 514              	.LBI135:
 515              		.loc 2 309 20 is_stmt 1 view .LVU164
 516              	.LBB136:
 517              		.loc 2 311 3 view .LVU165
 518              		.loc 2 311 19 is_stmt 0 view .LVU166
 519 0014 8B06     		movl	(%esi), %eax
 520              	.LVL26:
 521              		.loc 2 311 19 view .LVU167
 522              	.LBE136:
 523              	.LBE135:
 524              		.loc 1 185 10 view .LVU168
 525 0016 39F0     		cmpl	%esi, %eax
 526 0018 7426     		je	.L15
 527 001a 8DB60000 		.p2align 4,,10
 527      0000
 528              		.p2align 3
 529              	.L17:
 530              		.loc 1 186 5 is_stmt 1 view .LVU169
 531              	.LVL27:
 532              	.LBB138:
 533              	.LBI138:
 534              		.loc 2 340 27 view .LVU170
 535              	.LBB139:
 536              		.loc 2 341 3 view .LVU171
 537              		.loc 2 343 3 view .LVU172
 538              		.loc 2 343 21 is_stmt 0 view .LVU173
 539 0020 8B10     		movl	(%eax), %edx
 540              	.LBE139:
 541              	.LBE138:
 542              		.loc 1 186 5 view .LVU174
 543 0022 83EC0C   		subl	$12, %esp
 544              		.cfi_def_cfa_offset 28
 545              	.LBB141:
 546              	.LBB140:
 547              		.loc 2 343 18 view .LVU175
 548 0025 8916     		movl	%edx, (%esi)
 549              		.loc 2 344 3 is_stmt 1 view .LVU176
GAS LISTING /tmp/ccZnfTtS.s 			page 11


 550              		.loc 2 344 18 is_stmt 0 view .LVU177
 551 0027 897204   		movl	%esi, 4(%edx)
 552              		.loc 2 346 3 is_stmt 1 view .LVU178
 553              	.LVL28:
 554              		.loc 2 346 3 is_stmt 0 view .LVU179
 555              	.LBE140:
 556              	.LBE141:
 557              		.loc 1 186 5 view .LVU180
 558 002a 50       		pushl	%eax
 559              		.cfi_def_cfa_offset 32
 560 002b E8FCFFFF 		call	chSchReadyI@PLT
 560      FF
 561              	.LVL29:
 562              		.loc 1 185 10 view .LVU181
 563 0030 83C410   		addl	$16, %esp
 564              		.cfi_def_cfa_offset 16
 565              		.loc 1 186 72 view .LVU182
 566 0033 C74034FE 		movl	$-2, 52(%eax)
 566      FFFFFF
 567              		.loc 1 185 10 is_stmt 1 view .LVU183
 568              	.LVL30:
 569              	.LBB142:
 570              		.loc 2 309 20 view .LVU184
 571              	.LBB137:
 572              		.loc 2 311 3 view .LVU185
 573              		.loc 2 311 19 is_stmt 0 view .LVU186
 574 003a 8B06     		movl	(%esi), %eax
 575              	.LVL31:
 576              		.loc 2 311 19 view .LVU187
 577              	.LBE137:
 578              	.LBE142:
 579              		.loc 1 185 10 view .LVU188
 580 003c 39F0     		cmpl	%esi, %eax
 581 003e 75E0     		jne	.L17
 582              	.L15:
 583              		.loc 1 188 1 view .LVU189
 584 0040 83C404   		addl	$4, %esp
 585              		.cfi_def_cfa_offset 12
 586 0043 5B       		popl	%ebx
 587              		.cfi_restore 3
 588              		.cfi_def_cfa_offset 8
 589 0044 5E       		popl	%esi
 590              		.cfi_restore 6
 591              		.cfi_def_cfa_offset 4
 592 0045 C3       		ret
 593              		.cfi_endproc
 594              	.LFE220:
 595              		.size	chCondBroadcastI, .-chCondBroadcastI
 596              		.section	.text.chCondWaitS,"ax",@progbits
 597              		.p2align 4
 598              		.globl	chCondWaitS
 599              		.type	chCondWaitS, @function
 600              	chCondWaitS:
 601              	.LVL32:
 602              	.LFB222:
 603              		.loc 1 233 45 is_stmt 1 view -0
 604              		.cfi_startproc
GAS LISTING /tmp/ccZnfTtS.s 			page 12


 605              		.loc 1 234 3 view .LVU191
 606              	.LBB149:
 607              	.LBI149:
 608              		.file 5 "../../../os/rt/include/chthreads.h"
 609              		.loc 5 527 25 view .LVU192
 610              	.LBB150:
 611              		.loc 5 529 3 view .LVU193
 612              	.LBE150:
 613              	.LBE149:
 614              		.loc 1 233 45 is_stmt 0 view .LVU194
 615 0000 55       		pushl	%ebp
 616              		.cfi_def_cfa_offset 8
 617              		.cfi_offset 5, -8
 618 0001 57       		pushl	%edi
 619              		.cfi_def_cfa_offset 12
 620              		.cfi_offset 7, -12
 621 0002 56       		pushl	%esi
 622              		.cfi_def_cfa_offset 16
 623              		.cfi_offset 6, -16
 624 0003 53       		pushl	%ebx
 625              		.cfi_def_cfa_offset 20
 626              		.cfi_offset 3, -20
 627 0004 E8FCFFFF 		call	__x86.get_pc_thunk.bx
 627      FF
 628 0009 81C30200 		addl	$_GLOBAL_OFFSET_TABLE_, %ebx
 628      0000
 629 000f 83EC18   		subl	$24, %esp
 630              		.cfi_def_cfa_offset 44
 631              		.loc 1 233 45 view .LVU195
 632 0012 8B6C242C 		movl	44(%esp), %ebp
 633              	.LBB152:
 634              	.LBB151:
 635              		.loc 5 529 10 view .LVU196
 636 0016 8B830000 		movl	ch0@GOT(%ebx), %eax
 636      0000
 637 001c 8B700C   		movl	12(%eax), %esi
 638              	.LVL33:
 639              		.loc 5 529 10 view .LVU197
 640              	.LBE151:
 641              	.LBE152:
 642              		.loc 1 235 3 is_stmt 1 view .LVU198
 643              	.LBB153:
 644              	.LBI153:
 645              		.file 6 "../../../os/rt/include/chmtx.h"
 646              		.loc 6 160 24 view .LVU199
 647              	.LBB154:
 648              		.loc 6 162 3 view .LVU200
 649              		.loc 6 162 25 is_stmt 0 view .LVU201
 650 001f 8B7E48   		movl	72(%esi), %edi
 651              	.LVL34:
 652              		.loc 6 162 25 view .LVU202
 653              	.LBE154:
 654              	.LBE153:
 655              		.loc 1 236 3 is_stmt 1 view .LVU203
 656              		.loc 1 238 21 view .LVU204
 657              		.loc 1 239 3 view .LVU205
 658              		.loc 1 239 3 view .LVU206
GAS LISTING /tmp/ccZnfTtS.s 			page 13


 659              		.loc 1 239 3 view .LVU207
 660              		.loc 1 240 3 view .LVU208
 661              		.loc 1 240 3 view .LVU209
 662              		.loc 1 240 3 view .LVU210
 663              		.loc 1 243 3 view .LVU211
 664 0022 57       		pushl	%edi
 665              		.cfi_def_cfa_offset 48
 666 0023 E8FCFFFF 		call	chMtxUnlockS@PLT
 666      FF
 667              	.LVL35:
 668              		.loc 1 247 3 view .LVU212
 669              		.loc 1 247 20 is_stmt 0 view .LVU213
 670 0028 896E34   		movl	%ebp, 52(%esi)
 671              		.loc 1 248 3 is_stmt 1 view .LVU214
 672              	.LVL36:
 673              	.LBB155:
 674              	.LBI155:
 675              		.file 7 "../../../os/rt/include/chschd.h"
 676              		.loc 7 168 20 view .LVU215
 677              	.LBB156:
 678              		.loc 7 170 3 view .LVU216
 679              		.loc 7 170 3 is_stmt 0 view .LVU217
 680              	.LBE156:
 681              	.LBE155:
 682              		.loc 1 248 3 view .LVU218
 683 002b 83C410   		addl	$16, %esp
 684              		.cfi_def_cfa_offset 32
 685              	.LBB159:
 686              	.LBB157:
 687              		.loc 7 170 15 view .LVU219
 688 002e 89E8     		movl	%ebp, %eax
 689 0030 EB0E     		jmp	.L22
 690              	.LVL37:
 691              		.p2align 4,,10
 692 0032 8DB60000 		.p2align 3
 692      0000
 693              	.L25:
 694              		.loc 7 173 23 view .LVU220
 695 0038 8B4E08   		movl	8(%esi), %ecx
 696 003b 394808   		cmpl	%ecx, 8(%eax)
 697 003e 7206     		jb	.L21
 698              	.L22:
 699              		.loc 7 171 3 is_stmt 1 view .LVU221
 700              		.loc 7 172 5 view .LVU222
 701              		.loc 7 172 8 is_stmt 0 view .LVU223
 702 0040 8B00     		movl	(%eax), %eax
 703              	.LVL38:
 704              		.loc 7 173 23 is_stmt 1 view .LVU224
 705 0042 39C5     		cmpl	%eax, %ebp
 706 0044 75F2     		jne	.L25
 707              	.L21:
 708              		.loc 7 175 3 view .LVU225
 709              		.loc 7 176 22 is_stmt 0 view .LVU226
 710 0046 8B5004   		movl	4(%eax), %edx
 711              	.LBE157:
 712              	.LBE159:
 713              		.loc 1 249 3 view .LVU227
GAS LISTING /tmp/ccZnfTtS.s 			page 14


 714 0049 83EC0C   		subl	$12, %esp
 715              		.cfi_def_cfa_offset 44
 716              	.LBB160:
 717              	.LBB158:
 718              		.loc 7 175 18 view .LVU228
 719 004c 8906     		movl	%eax, (%esi)
 720              		.loc 7 176 3 is_stmt 1 view .LVU229
 721              		.loc 7 176 18 is_stmt 0 view .LVU230
 722 004e 895604   		movl	%edx, 4(%esi)
 723              		.loc 7 177 3 is_stmt 1 view .LVU231
 724              		.loc 7 177 18 is_stmt 0 view .LVU232
 725 0051 8932     		movl	%esi, (%edx)
 726              		.loc 7 178 3 is_stmt 1 view .LVU233
 727              		.loc 7 178 18 is_stmt 0 view .LVU234
 728 0053 897004   		movl	%esi, 4(%eax)
 729              	.LVL39:
 730              		.loc 7 178 18 view .LVU235
 731              	.LBE158:
 732              	.LBE160:
 733              		.loc 1 249 3 is_stmt 1 view .LVU236
 734 0056 6A07     		pushl	$7
 735              		.cfi_def_cfa_offset 48
 736 0058 E8FCFFFF 		call	chSchGoSleepS@PLT
 736      FF
 737              	.LVL40:
 738              		.loc 1 250 3 view .LVU237
 739              		.loc 1 250 7 is_stmt 0 view .LVU238
 740 005d 8B7634   		movl	52(%esi), %esi
 741              	.LVL41:
 742              		.loc 1 251 3 is_stmt 1 view .LVU239
 743 0060 893C24   		movl	%edi, (%esp)
 744 0063 E8FCFFFF 		call	chMtxLockS@PLT
 744      FF
 745              	.LVL42:
 746              		.loc 1 253 3 view .LVU240
 747              		.loc 1 254 1 is_stmt 0 view .LVU241
 748 0068 83C41C   		addl	$28, %esp
 749              		.cfi_def_cfa_offset 20
 750 006b 5B       		popl	%ebx
 751              		.cfi_restore 3
 752              		.cfi_def_cfa_offset 16
 753 006c 89F0     		movl	%esi, %eax
 754 006e 5E       		popl	%esi
 755              		.cfi_restore 6
 756              		.cfi_def_cfa_offset 12
 757              	.LVL43:
 758              		.loc 1 254 1 view .LVU242
 759 006f 5F       		popl	%edi
 760              		.cfi_restore 7
 761              		.cfi_def_cfa_offset 8
 762              	.LVL44:
 763              		.loc 1 254 1 view .LVU243
 764 0070 5D       		popl	%ebp
 765              		.cfi_restore 5
 766              		.cfi_def_cfa_offset 4
 767 0071 C3       		ret
 768              		.cfi_endproc
GAS LISTING /tmp/ccZnfTtS.s 			page 15


 769              	.LFE222:
 770              		.size	chCondWaitS, .-chCondWaitS
 771              		.section	.text.chCondWait,"ax",@progbits
 772              		.p2align 4
 773              		.globl	chCondWait
 774              		.type	chCondWait, @function
 775              	chCondWait:
 776              	.LVL45:
 777              	.LFB221:
 778              		.loc 1 207 44 is_stmt 1 view -0
 779              		.cfi_startproc
 780              		.loc 1 208 3 view .LVU245
 781              		.loc 1 210 3 view .LVU246
 782              	.LBB161:
 783              	.LBI161:
 784              		.loc 3 407 20 view .LVU247
 785              		.loc 3 409 3 view .LVU248
 786              	.LBB162:
 787              	.LBI162:
 788              		.loc 4 361 20 view .LVU249
 789              	.LBB163:
 790              		.loc 4 363 3 view .LVU250
 791 0000 E8FCFFFF 		call	__x86.get_pc_thunk.ax
 791      FF
 792 0005 05010000 		addl	$_GLOBAL_OFFSET_TABLE_, %eax
 792      00
 793              	.LBE163:
 794              	.LBE162:
 795              	.LBE161:
 796              		.loc 1 207 44 is_stmt 0 view .LVU251
 797 000a 53       		pushl	%ebx
 798              		.cfi_def_cfa_offset 8
 799              		.cfi_offset 3, -8
 800 000b 83EC14   		subl	$20, %esp
 801              		.cfi_def_cfa_offset 28
 802              		.loc 1 211 9 view .LVU252
 803 000e FF74241C 		pushl	28(%esp)
 804              		.cfi_def_cfa_offset 32
 805              	.LBB166:
 806              	.LBB165:
 807              	.LBB164:
 808              		.loc 4 363 16 view .LVU253
 809 0012 8B980000 		movl	port_irq_sts@GOT(%eax), %ebx
 809      0000
 810 0018 C7030100 		movl	$1, (%ebx)
 810      0000
 811              	.LBE164:
 812              	.LBE165:
 813              		.loc 3 410 35 is_stmt 1 view .LVU254
 814              		.loc 3 411 21 view .LVU255
 815              	.LBE166:
 816              		.loc 1 211 3 view .LVU256
 817              		.loc 1 211 9 is_stmt 0 view .LVU257
 818 001e E8FCFFFF 		call	chCondWaitS
 818      FF
 819              	.LVL46:
 820              		.loc 1 212 3 is_stmt 1 view .LVU258
GAS LISTING /tmp/ccZnfTtS.s 			page 16


 821              	.LBB167:
 822              	.LBI167:
 823              		.loc 3 421 20 view .LVU259
 824              	.LBB168:
 825              		.loc 3 423 23 view .LVU260
 826              		.loc 3 424 34 view .LVU261
 827              		.loc 3 430 3 view .LVU262
 828              		.loc 3 430 3 view .LVU263
 829              		.loc 3 430 3 view .LVU264
 830              		.loc 3 434 3 view .LVU265
 831              	.LBB169:
 832              	.LBI169:
 833              		.loc 4 370 20 view .LVU266
 834              	.LBB170:
 835              		.loc 4 372 3 view .LVU267
 836              		.loc 4 372 16 is_stmt 0 view .LVU268
 837 0023 C7030000 		movl	$0, (%ebx)
 837      0000
 838              	.LBE170:
 839              	.LBE169:
 840              	.LBE168:
 841              	.LBE167:
 842              		.loc 1 213 3 is_stmt 1 view .LVU269
 843              		.loc 1 214 1 is_stmt 0 view .LVU270
 844 0029 83C418   		addl	$24, %esp
 845              		.cfi_def_cfa_offset 8
 846 002c 5B       		popl	%ebx
 847              		.cfi_restore 3
 848              		.cfi_def_cfa_offset 4
 849 002d C3       		ret
 850              		.cfi_endproc
 851              	.LFE221:
 852              		.size	chCondWait, .-chCondWait
 853              		.section	.text.chCondWaitTimeoutS,"ax",@progbits
 854              		.p2align 4
 855              		.globl	chCondWaitTimeoutS
 856              		.type	chCondWaitTimeoutS, @function
 857              	chCondWaitTimeoutS:
 858              	.LVL47:
 859              	.LFB224:
 860              		.loc 1 321 75 is_stmt 1 view -0
 861              		.cfi_startproc
 862              		.loc 1 322 3 view .LVU272
 863              	.LBB177:
 864              	.LBI177:
 865              		.loc 5 527 25 view .LVU273
 866              	.LBB178:
 867              		.loc 5 529 3 view .LVU274
 868              	.LBE178:
 869              	.LBE177:
 870              		.loc 1 321 75 is_stmt 0 view .LVU275
 871 0000 55       		pushl	%ebp
 872              		.cfi_def_cfa_offset 8
 873              		.cfi_offset 5, -8
 874 0001 57       		pushl	%edi
 875              		.cfi_def_cfa_offset 12
 876              		.cfi_offset 7, -12
GAS LISTING /tmp/ccZnfTtS.s 			page 17


 877 0002 56       		pushl	%esi
 878              		.cfi_def_cfa_offset 16
 879              		.cfi_offset 6, -16
 880 0003 53       		pushl	%ebx
 881              		.cfi_def_cfa_offset 20
 882              		.cfi_offset 3, -20
 883 0004 E8FCFFFF 		call	__x86.get_pc_thunk.bx
 883      FF
 884 0009 81C30200 		addl	$_GLOBAL_OFFSET_TABLE_, %ebx
 884      0000
 885 000f 83EC28   		subl	$40, %esp
 886              		.cfi_def_cfa_offset 60
 887              		.loc 1 321 75 view .LVU276
 888 0012 8B6C243C 		movl	60(%esp), %ebp
 889              	.LBB180:
 890              	.LBB179:
 891              		.loc 5 529 10 view .LVU277
 892 0016 8B830000 		movl	ch0@GOT(%ebx), %eax
 892      0000
 893 001c 8B700C   		movl	12(%eax), %esi
 894              	.LVL48:
 895              		.loc 5 529 10 view .LVU278
 896              	.LBE179:
 897              	.LBE180:
 898              		.loc 1 323 3 is_stmt 1 view .LVU279
 899              	.LBB181:
 900              	.LBI181:
 901              		.loc 6 160 24 view .LVU280
 902              	.LBB182:
 903              		.loc 6 162 3 view .LVU281
 904              		.loc 6 162 25 is_stmt 0 view .LVU282
 905 001f 8B7E48   		movl	72(%esi), %edi
 906              	.LVL49:
 907              		.loc 6 162 25 view .LVU283
 908              	.LBE182:
 909              	.LBE181:
 910              		.loc 1 324 3 is_stmt 1 view .LVU284
 911              		.loc 1 326 21 view .LVU285
 912              		.loc 1 327 3 view .LVU286
 913              		.loc 1 327 3 view .LVU287
 914              		.loc 1 327 3 view .LVU288
 915              		.loc 1 328 3 view .LVU289
 916              		.loc 1 328 3 view .LVU290
 917              		.loc 1 328 3 view .LVU291
 918              		.loc 1 331 3 view .LVU292
 919 0022 57       		pushl	%edi
 920              		.cfi_def_cfa_offset 64
 921 0023 E8FCFFFF 		call	chMtxUnlockS@PLT
 921      FF
 922              	.LVL50:
 923              		.loc 1 335 3 view .LVU293
 924              		.loc 1 335 20 is_stmt 0 view .LVU294
 925 0028 896E34   		movl	%ebp, 52(%esi)
 926              		.loc 1 336 3 is_stmt 1 view .LVU295
 927              	.LVL51:
 928              	.LBB183:
 929              	.LBI183:
GAS LISTING /tmp/ccZnfTtS.s 			page 18


 930              		.loc 7 168 20 view .LVU296
 931              	.LBB184:
 932              		.loc 7 170 3 view .LVU297
 933              		.loc 7 170 3 is_stmt 0 view .LVU298
 934              	.LBE184:
 935              	.LBE183:
 936              		.loc 1 336 3 view .LVU299
 937 002b 83C410   		addl	$16, %esp
 938              		.cfi_def_cfa_offset 48
 939              	.LBB187:
 940              	.LBB185:
 941              		.loc 7 170 15 view .LVU300
 942 002e 89E8     		movl	%ebp, %eax
 943 0030 EB0E     		jmp	.L30
 944              	.LVL52:
 945              		.p2align 4,,10
 946 0032 8DB60000 		.p2align 3
 946      0000
 947              	.L37:
 948              		.loc 7 173 23 view .LVU301
 949 0038 8B4E08   		movl	8(%esi), %ecx
 950 003b 394808   		cmpl	%ecx, 8(%eax)
 951 003e 7206     		jb	.L29
 952              	.L30:
 953              		.loc 7 171 3 is_stmt 1 view .LVU302
 954              		.loc 7 172 5 view .LVU303
 955              		.loc 7 172 8 is_stmt 0 view .LVU304
 956 0040 8B00     		movl	(%eax), %eax
 957              	.LVL53:
 958              		.loc 7 173 23 is_stmt 1 view .LVU305
 959 0042 39C5     		cmpl	%eax, %ebp
 960 0044 75F2     		jne	.L37
 961              	.L29:
 962              		.loc 7 175 3 view .LVU306
 963              		.loc 7 176 22 is_stmt 0 view .LVU307
 964 0046 8B5004   		movl	4(%eax), %edx
 965              	.LBE185:
 966              	.LBE187:
 967              		.loc 1 337 9 view .LVU308
 968 0049 83EC08   		subl	$8, %esp
 969              		.cfi_def_cfa_offset 56
 970              	.LBB188:
 971              	.LBB186:
 972              		.loc 7 175 18 view .LVU309
 973 004c 8906     		movl	%eax, (%esi)
 974              		.loc 7 176 3 is_stmt 1 view .LVU310
 975              		.loc 7 176 18 is_stmt 0 view .LVU311
 976 004e 895604   		movl	%edx, 4(%esi)
 977              		.loc 7 177 3 is_stmt 1 view .LVU312
 978              		.loc 7 177 18 is_stmt 0 view .LVU313
 979 0051 8932     		movl	%esi, (%edx)
 980              		.loc 7 178 3 is_stmt 1 view .LVU314
 981              		.loc 7 178 18 is_stmt 0 view .LVU315
 982 0053 897004   		movl	%esi, 4(%eax)
 983              	.LVL54:
 984              		.loc 7 178 18 view .LVU316
 985              	.LBE186:
GAS LISTING /tmp/ccZnfTtS.s 			page 19


 986              	.LBE188:
 987              		.loc 1 337 3 is_stmt 1 view .LVU317
 988              		.loc 1 337 9 is_stmt 0 view .LVU318
 989 0056 FF74243C 		pushl	60(%esp)
 990              		.cfi_def_cfa_offset 60
 991 005a 6A07     		pushl	$7
 992              		.cfi_def_cfa_offset 64
 993 005c E8FCFFFF 		call	chSchGoSleepTimeoutS@PLT
 993      FF
 994              	.LVL55:
 995              		.loc 1 338 3 is_stmt 1 view .LVU319
 996              		.loc 1 338 6 is_stmt 0 view .LVU320
 997 0061 83C410   		addl	$16, %esp
 998              		.cfi_def_cfa_offset 48
 999 0064 83F8FF   		cmpl	$-1, %eax
 1000 0067 7414     		je	.L28
 1001 0069 8944240C 		movl	%eax, 12(%esp)
 1002              		.loc 1 339 5 is_stmt 1 view .LVU321
 1003 006d 83EC0C   		subl	$12, %esp
 1004              		.cfi_def_cfa_offset 60
 1005 0070 57       		pushl	%edi
 1006              		.cfi_def_cfa_offset 64
 1007 0071 E8FCFFFF 		call	chMtxLockS@PLT
 1007      FF
 1008              	.LVL56:
 1009              		.loc 1 339 5 is_stmt 0 view .LVU322
 1010 0076 8B44241C 		movl	28(%esp), %eax
 1011              		.loc 1 342 3 is_stmt 1 view .LVU323
 1012              		.loc 1 339 5 is_stmt 0 view .LVU324
 1013 007a 83C410   		addl	$16, %esp
 1014              		.cfi_def_cfa_offset 48
 1015              	.LVL57:
 1016              	.L28:
 1017              		.loc 1 343 1 view .LVU325
 1018 007d 83C41C   		addl	$28, %esp
 1019              		.cfi_def_cfa_offset 20
 1020 0080 5B       		popl	%ebx
 1021              		.cfi_restore 3
 1022              		.cfi_def_cfa_offset 16
 1023 0081 5E       		popl	%esi
 1024              		.cfi_restore 6
 1025              		.cfi_def_cfa_offset 12
 1026              	.LVL58:
 1027              		.loc 1 343 1 view .LVU326
 1028 0082 5F       		popl	%edi
 1029              		.cfi_restore 7
 1030              		.cfi_def_cfa_offset 8
 1031              	.LVL59:
 1032              		.loc 1 343 1 view .LVU327
 1033 0083 5D       		popl	%ebp
 1034              		.cfi_restore 5
 1035              		.cfi_def_cfa_offset 4
 1036 0084 C3       		ret
 1037              		.cfi_endproc
 1038              	.LFE224:
 1039              		.size	chCondWaitTimeoutS, .-chCondWaitTimeoutS
 1040              		.section	.text.chCondWaitTimeout,"ax",@progbits
GAS LISTING /tmp/ccZnfTtS.s 			page 20


 1041              		.p2align 4
 1042              		.globl	chCondWaitTimeout
 1043              		.type	chCondWaitTimeout, @function
 1044              	chCondWaitTimeout:
 1045              	.LVL60:
 1046              	.LFB223:
 1047              		.loc 1 284 74 is_stmt 1 view -0
 1048              		.cfi_startproc
 1049              		.loc 1 285 3 view .LVU329
 1050              		.loc 1 287 3 view .LVU330
 1051              	.LBB189:
 1052              	.LBI189:
 1053              		.loc 3 407 20 view .LVU331
 1054              		.loc 3 409 3 view .LVU332
 1055              	.LBB190:
 1056              	.LBI190:
 1057              		.loc 4 361 20 view .LVU333
 1058              	.LBB191:
 1059              		.loc 4 363 3 view .LVU334
 1060 0000 E8FCFFFF 		call	__x86.get_pc_thunk.ax
 1060      FF
 1061 0005 05010000 		addl	$_GLOBAL_OFFSET_TABLE_, %eax
 1061      00
 1062              	.LBE191:
 1063              	.LBE190:
 1064              	.LBE189:
 1065              		.loc 1 284 74 is_stmt 0 view .LVU335
 1066 000a 53       		pushl	%ebx
 1067              		.cfi_def_cfa_offset 8
 1068              		.cfi_offset 3, -8
 1069 000b 83EC10   		subl	$16, %esp
 1070              		.cfi_def_cfa_offset 24
 1071              		.loc 1 288 9 view .LVU336
 1072 000e FF74241C 		pushl	28(%esp)
 1073              		.cfi_def_cfa_offset 28
 1074 0012 FF74241C 		pushl	28(%esp)
 1075              		.cfi_def_cfa_offset 32
 1076              	.LBB194:
 1077              	.LBB193:
 1078              	.LBB192:
 1079              		.loc 4 363 16 view .LVU337
 1080 0016 8B980000 		movl	port_irq_sts@GOT(%eax), %ebx
 1080      0000
 1081 001c C7030100 		movl	$1, (%ebx)
 1081      0000
 1082              	.LBE192:
 1083              	.LBE193:
 1084              		.loc 3 410 35 is_stmt 1 view .LVU338
 1085              		.loc 3 411 21 view .LVU339
 1086              	.LBE194:
 1087              		.loc 1 288 3 view .LVU340
 1088              		.loc 1 288 9 is_stmt 0 view .LVU341
 1089 0022 E8FCFFFF 		call	chCondWaitTimeoutS
 1089      FF
 1090              	.LVL61:
 1091              		.loc 1 289 3 is_stmt 1 view .LVU342
 1092              	.LBB195:
GAS LISTING /tmp/ccZnfTtS.s 			page 21


 1093              	.LBI195:
 1094              		.loc 3 421 20 view .LVU343
 1095              	.LBB196:
 1096              		.loc 3 423 23 view .LVU344
 1097              		.loc 3 424 34 view .LVU345
 1098              		.loc 3 430 3 view .LVU346
 1099              		.loc 3 430 3 view .LVU347
 1100              		.loc 3 430 3 view .LVU348
 1101              		.loc 3 434 3 view .LVU349
 1102              	.LBB197:
 1103              	.LBI197:
 1104              		.loc 4 370 20 view .LVU350
 1105              	.LBB198:
 1106              		.loc 4 372 3 view .LVU351
 1107              		.loc 4 372 16 is_stmt 0 view .LVU352
 1108 0027 C7030000 		movl	$0, (%ebx)
 1108      0000
 1109              	.LBE198:
 1110              	.LBE197:
 1111              	.LBE196:
 1112              	.LBE195:
 1113              		.loc 1 291 3 is_stmt 1 view .LVU353
 1114              		.loc 1 292 1 is_stmt 0 view .LVU354
 1115 002d 83C418   		addl	$24, %esp
 1116              		.cfi_def_cfa_offset 8
 1117 0030 5B       		popl	%ebx
 1118              		.cfi_restore 3
 1119              		.cfi_def_cfa_offset 4
 1120 0031 C3       		ret
 1121              		.cfi_endproc
 1122              	.LFE223:
 1123              		.size	chCondWaitTimeout, .-chCondWaitTimeout
 1124              		.section	.text.__x86.get_pc_thunk.ax,"axG",@progbits,__x86.get_pc_thunk.ax,comdat
 1125              		.globl	__x86.get_pc_thunk.ax
 1126              		.hidden	__x86.get_pc_thunk.ax
 1127              		.type	__x86.get_pc_thunk.ax, @function
 1128              	__x86.get_pc_thunk.ax:
 1129              	.LFB225:
 1130              		.cfi_startproc
 1131 0000 8B0424   		movl	(%esp), %eax
 1132 0003 C3       		ret
 1133              		.cfi_endproc
 1134              	.LFE225:
 1135              		.section	.text.__x86.get_pc_thunk.bx,"axG",@progbits,__x86.get_pc_thunk.bx,comdat
 1136              		.globl	__x86.get_pc_thunk.bx
 1137              		.hidden	__x86.get_pc_thunk.bx
 1138              		.type	__x86.get_pc_thunk.bx, @function
 1139              	__x86.get_pc_thunk.bx:
 1140              	.LFB226:
 1141              		.cfi_startproc
 1142 0000 8B1C24   		movl	(%esp), %ebx
 1143 0003 C3       		ret
 1144              		.cfi_endproc
 1145              	.LFE226:
 1146              		.text
 1147              	.Letext0:
 1148              		.file 8 "/usr/include/bits/types.h"
GAS LISTING /tmp/ccZnfTtS.s 			page 22


 1149              		.file 9 "/usr/include/bits/stdint-intn.h"
 1150              		.file 10 "/usr/include/bits/stdint-uintn.h"
 1151              		.file 11 "../../../os/common/ports/SIMIA32/compilers/GCC/chtypes.h"
 1152              		.file 12 "../../../os/rt/include/chearly.h"
 1153              		.file 13 "../../../os/rt/include/chobjects.h"
 1154              		.file 14 "../../../os/rt/include/chrfcu.h"
 1155              		.file 15 "../../../os/rt/include/chdebug.h"
 1156              		.file 16 "../../../os/rt/include/chtime.h"
 1157              		.file 17 "../../../os/rt/include/chsem.h"
 1158              		.file 18 "../../../os/rt/include/chcond.h"
 5136 0042 2F686F6D 		.section	.note.GNU-stack,"",@progbits
 5136      652F616C 
 5136      65782F43 
 5136      68696269 
 5136      4F532F64 
GAS LISTING /tmp/ccZnfTtS.s 			page 98

