GAS LISTING /tmp/ccZnfTtS.s 			page 1


   1              		.file	"chcond.c"
   2              		.text
   3              	.Ltext0:
   4              		.file 0 "/home/alex/ChibiOS/demos/various/LAB2" "../../../os/rt/src/chcond.c"
   5              		.section	.text.chCondObjectInit,"ax",@progbits
   6              		.p2align 4
   7              		.globl	chCondObjectInit
   8              		.type	chCondObjectInit, @function
   9              	chCondObjectInit:
  10              	.LVL0:
  11              	.LFB215:
  12              		.file 1 "../../../os/rt/src/chcond.c"
  13              		.loc 1 77 49 view -0
  14              		.cfi_startproc
  15              		.loc 1 79 3 view .LVU1
  16              		.loc 1 79 3 view .LVU2
  17              		.loc 1 79 3 view .LVU3
  18              		.loc 1 81 3 view .LVU4
  19              		.loc 1 77 49 is_stmt 0 view .LVU5
  20 0000 8B442404 		movl	4(%esp), %eax
  21              	.LVL1:
  22              	.LBB67:
  23              	.LBI67:
  24              		.file 2 "../../../os/rt/include/chlists.h"
  25              		.loc 2 282 20 is_stmt 1 view .LVU6
  26              	.LBB68:
  27              		.loc 2 284 3 view .LVU7
  28              		.loc 2 284 12 is_stmt 0 view .LVU8
  29 0004 8900     		movl	%eax, (%eax)
  30              		.loc 2 285 3 is_stmt 1 view .LVU9
  31              		.loc 2 285 12 is_stmt 0 view .LVU10
  32 0006 894004   		movl	%eax, 4(%eax)
  33              	.LVL2:
  34              		.loc 2 285 12 view .LVU11
  35              	.LBE68:
  36              	.LBE67:
  37              		.loc 1 82 1 view .LVU12
  38 0009 C3       		ret
  39              		.cfi_endproc
  40              	.LFE215:
  41              		.size	chCondObjectInit, .-chCondObjectInit
  42              		.section	.text.chCondObjectDispose,"ax",@progbits
  43              		.p2align 4
  44              		.globl	chCondObjectDispose
  45              		.type	chCondObjectDispose, @function
  46              	chCondObjectDispose:
  47              	.LVL3:
  48              	.LFB216:
  49              		.loc 1 99 52 is_stmt 1 view -0
  50              		.cfi_startproc
  51              		.loc 1 101 3 view .LVU14
  52              		.loc 1 101 3 view .LVU15
  53              		.loc 1 101 3 view .LVU16
  54              		.loc 1 102 3 view .LVU17
  55              		.loc 1 102 3 view .LVU18
  56              		.loc 1 102 3 view .LVU19
  57              		.loc 1 108 1 is_stmt 0 view .LVU20
GAS LISTING /tmp/ccZnfTtS.s 			page 2


  58 0000 C3       		ret
  59              		.cfi_endproc
  60              	.LFE216:
  61              		.size	chCondObjectDispose, .-chCondObjectDispose
  62              		.section	.text.chCondSignal,"ax",@progbits
  63              		.p2align 4
  64              		.globl	chCondSignal
  65              		.type	chCondSignal, @function
  66              	chCondSignal:
  67              	.LVL4:
  68              	.LFB217:
  69              		.loc 1 117 45 is_stmt 1 view -0
  70              		.cfi_startproc
  71              		.loc 1 119 3 view .LVU22
  72              		.loc 1 119 3 view .LVU23
  73              		.loc 1 119 3 view .LVU24
  74              		.loc 1 121 3 view .LVU25
  75              	.LBB69:
  76              	.LBI69:
  77              		.file 3 "../../../os/rt/include/chsys.h"
  78              		.loc 3 407 20 view .LVU26
  79              		.loc 3 409 3 view .LVU27
  80              	.LBB70:
  81              	.LBI70:
  82              		.file 4 "../../../os/common/ports/SIMIA32/chcore.h"
  83              		.loc 4 361 20 view .LVU28
  84              	.LBB71:
  85              		.loc 4 363 3 view .LVU29
  86              	.LBE71:
  87              	.LBE70:
  88              	.LBE69:
  89              		.loc 1 117 45 is_stmt 0 view .LVU30
  90 0000 56       		pushl	%esi
  91              		.cfi_def_cfa_offset 8
  92              		.cfi_offset 6, -8
  93 0001 53       		pushl	%ebx
  94              		.cfi_def_cfa_offset 12
  95              		.cfi_offset 3, -12
  96 0002 E8FCFFFF 		call	__x86.get_pc_thunk.bx
  96      FF
  97 0007 81C30200 		addl	$_GLOBAL_OFFSET_TABLE_, %ebx
  97      0000
  98 000d 83EC04   		subl	$4, %esp
  99              		.cfi_def_cfa_offset 16
 100              		.loc 1 117 45 view .LVU31
 101 0010 8B442410 		movl	16(%esp), %eax
 102              	.LBB74:
 103              	.LBB75:
 104              		.loc 2 311 19 view .LVU32
 105 0014 8B10     		movl	(%eax), %edx
 106              	.LBE75:
 107              	.LBE74:
 108              	.LBB77:
 109              	.LBB73:
 110              	.LBB72:
 111              		.loc 4 363 16 view .LVU33
 112 0016 8BB30000 		movl	port_irq_sts@GOT(%ebx), %esi
GAS LISTING /tmp/ccZnfTtS.s 			page 3


 112      0000
 113 001c C7060100 		movl	$1, (%esi)
 113      0000
 114              	.LBE72:
 115              	.LBE73:
 116              		.loc 3 410 35 is_stmt 1 view .LVU34
 117              		.loc 3 411 21 view .LVU35
 118              	.LBE77:
 119              		.loc 1 122 3 view .LVU36
 120              	.LVL5:
 121              	.LBB78:
 122              	.LBI74:
 123              		.loc 2 309 20 view .LVU37
 124              	.LBB76:
 125              		.loc 2 311 3 view .LVU38
 126              		.loc 2 311 3 is_stmt 0 view .LVU39
 127              	.LBE76:
 128              	.LBE78:
 129              		.loc 1 122 6 view .LVU40
 130 0022 39D0     		cmpl	%edx, %eax
 131 0024 7415     		je	.L5
 132              		.loc 1 123 5 is_stmt 1 view .LVU41
 133              	.LVL6:
 134              	.LBB79:
 135              	.LBI79:
 136              		.loc 2 340 27 view .LVU42
 137              	.LBB80:
 138              		.loc 2 341 3 view .LVU43
 139              		.loc 2 343 3 view .LVU44
 140              		.loc 2 343 21 is_stmt 0 view .LVU45
 141 0026 8B0A     		movl	(%edx), %ecx
 142              	.LBE80:
 143              	.LBE79:
 144              		.loc 1 123 5 view .LVU46
 145 0028 83EC08   		subl	$8, %esp
 146              		.cfi_def_cfa_offset 24
 147              	.LBB82:
 148              	.LBB81:
 149              		.loc 2 343 18 view .LVU47
 150 002b 8908     		movl	%ecx, (%eax)
 151              		.loc 2 344 3 is_stmt 1 view .LVU48
 152              		.loc 2 344 18 is_stmt 0 view .LVU49
 153 002d 894104   		movl	%eax, 4(%ecx)
 154              		.loc 2 346 3 is_stmt 1 view .LVU50
 155              	.LVL7:
 156              		.loc 2 346 3 is_stmt 0 view .LVU51
 157              	.LBE81:
 158              	.LBE82:
 159              		.loc 1 123 5 view .LVU52
 160 0030 6A00     		pushl	$0
 161              		.cfi_def_cfa_offset 28
 162 0032 52       		pushl	%edx
 163              		.cfi_def_cfa_offset 32
 164 0033 E8FCFFFF 		call	chSchWakeupS@PLT
 164      FF
 165              	.LVL8:
 166 0038 83C410   		addl	$16, %esp
GAS LISTING /tmp/ccZnfTtS.s 			page 4


 167              		.cfi_def_cfa_offset 16
 168              	.L5:
 169              		.loc 1 125 3 is_stmt 1 view .LVU53
 170              	.LBB83:
 171              	.LBI83:
 172              		.loc 3 421 20 view .LVU54
 173              	.LBB84:
 174              		.loc 3 423 23 view .LVU55
 175              		.loc 3 424 34 view .LVU56
 176              		.loc 3 430 3 view .LVU57
 177              		.loc 3 430 3 view .LVU58
 178              		.loc 3 430 3 view .LVU59
 179              		.loc 3 434 3 view .LVU60
 180              	.LBB85:
 181              	.LBI85:
 182              		.loc 4 370 20 view .LVU61
 183              	.LBB86:
 184              		.loc 4 372 3 view .LVU62
 185              		.loc 4 372 16 is_stmt 0 view .LVU63
 186 003b C7060000 		movl	$0, (%esi)
 186      0000
 187              	.LBE86:
 188              	.LBE85:
 189              	.LBE84:
 190              	.LBE83:
 191              		.loc 1 126 1 view .LVU64
 192 0041 83C404   		addl	$4, %esp
 193              		.cfi_def_cfa_offset 12
 194 0044 5B       		popl	%ebx
 195              		.cfi_restore 3
 196              		.cfi_def_cfa_offset 8
 197 0045 5E       		popl	%esi
 198              		.cfi_restore 6
 199              		.cfi_def_cfa_offset 4
 200 0046 C3       		ret
 201              		.cfi_endproc
 202              	.LFE217:
 203              		.size	chCondSignal, .-chCondSignal
 204              		.section	.text.chCondSignalI,"ax",@progbits
 205              		.p2align 4
 206              		.globl	chCondSignalI
 207              		.type	chCondSignalI, @function
 208              	chCondSignalI:
 209              	.LVL9:
 210              	.LFB218:
 211              		.loc 1 139 46 is_stmt 1 view -0
 212              		.cfi_startproc
 213              		.loc 1 141 21 view .LVU66
 214              		.loc 1 142 3 view .LVU67
 215              		.loc 1 142 3 view .LVU68
 216              		.loc 1 142 3 view .LVU69
 217              		.loc 1 144 3 view .LVU70
 218              		.loc 1 139 46 is_stmt 0 view .LVU71
 219 0000 53       		pushl	%ebx
 220              		.cfi_def_cfa_offset 8
 221              		.cfi_offset 3, -8
 222 0001 E8FCFFFF 		call	__x86.get_pc_thunk.bx
GAS LISTING /tmp/ccZnfTtS.s 			page 5


 222      FF
 223 0006 81C30200 		addl	$_GLOBAL_OFFSET_TABLE_, %ebx
 223      0000
 224 000c 83EC08   		subl	$8, %esp
 225              		.cfi_def_cfa_offset 16
 226              		.loc 1 139 46 view .LVU72
 227 000f 8B442410 		movl	16(%esp), %eax
 228              	.LVL10:
 229              	.LBB87:
 230              	.LBI87:
 231              		.loc 2 309 20 is_stmt 1 view .LVU73
 232              	.LBB88:
 233              		.loc 2 311 3 view .LVU74
 234              		.loc 2 311 19 is_stmt 0 view .LVU75
 235 0013 8B10     		movl	(%eax), %edx
 236              	.LVL11:
 237              		.loc 2 311 19 view .LVU76
 238              	.LBE88:
 239              	.LBE87:
 240              		.loc 1 144 6 view .LVU77
 241 0015 39D0     		cmpl	%edx, %eax
 242 0017 741A     		je	.L7
 243              	.LBB89:
 244              		.loc 1 145 5 is_stmt 1 view .LVU78
 245              	.LVL12:
 246              	.LBB90:
 247              	.LBI90:
 248              		.loc 2 340 27 view .LVU79
 249              	.LBB91:
 250              		.loc 2 341 3 view .LVU80
 251              		.loc 2 343 3 view .LVU81
 252              		.loc 2 343 21 is_stmt 0 view .LVU82
 253 0019 8B0A     		movl	(%edx), %ecx
 254              	.LBE91:
 255              	.LBE90:
 256              		.loc 1 147 12 view .LVU83
 257 001b 83EC0C   		subl	$12, %esp
 258              		.cfi_def_cfa_offset 28
 259              	.LBB93:
 260              	.LBB92:
 261              		.loc 2 343 18 view .LVU84
 262 001e 8908     		movl	%ecx, (%eax)
 263              		.loc 2 344 3 is_stmt 1 view .LVU85
 264              		.loc 2 344 18 is_stmt 0 view .LVU86
 265 0020 894104   		movl	%eax, 4(%ecx)
 266              		.loc 2 346 3 is_stmt 1 view .LVU87
 267              	.LVL13:
 268              		.loc 2 346 3 is_stmt 0 view .LVU88
 269              	.LBE92:
 270              	.LBE93:
 271              		.loc 1 146 5 is_stmt 1 view .LVU89
 272              		.loc 1 146 18 is_stmt 0 view .LVU90
 273 0023 C7423400 		movl	$0, 52(%edx)
 273      000000
 274              		.loc 1 147 5 is_stmt 1 view .LVU91
 275              		.loc 1 147 12 is_stmt 0 view .LVU92
 276 002a 52       		pushl	%edx
GAS LISTING /tmp/ccZnfTtS.s 			page 6


 277              		.cfi_def_cfa_offset 32
 278 002b E8FCFFFF 		call	chSchReadyI@PLT
 278      FF
 279              	.LVL14:
 280              		.loc 1 147 12 view .LVU93
 281 0030 83C410   		addl	$16, %esp
 282              		.cfi_def_cfa_offset 16
 283              	.L7:
 284              		.loc 1 147 12 view .LVU94
 285              	.LBE89:
 286              		.loc 1 149 1 view .LVU95
 287 0033 83C408   		addl	$8, %esp
 288              		.cfi_def_cfa_offset 8
 289 0036 5B       		popl	%ebx
 290              		.cfi_restore 3
 291              		.cfi_def_cfa_offset 4
 292 0037 C3       		ret
 293              		.cfi_endproc
 294              	.LFE218:
 295              		.size	chCondSignalI, .-chCondSignalI
 296              		.section	.text.chCondBroadcast,"ax",@progbits
 297              		.p2align 4
 298              		.globl	chCondBroadcast
 299              		.type	chCondBroadcast, @function
 300              	chCondBroadcast:
 301              	.LVL15:
 302              	.LFB219:
 303              		.loc 1 158 48 is_stmt 1 view -0
 304              		.cfi_startproc
 305              		.loc 1 160 3 view .LVU97
 306              	.LBB107:
 307              	.LBI107:
 308              		.loc 3 407 20 view .LVU98
 309              		.loc 3 409 3 view .LVU99
 310              	.LBB108:
 311              	.LBI108:
 312              		.loc 4 361 20 view .LVU100
 313              	.LBB109:
 314              		.loc 4 363 3 view .LVU101
 315              	.LBE109:
 316              	.LBE108:
 317              	.LBE107:
 318              		.loc 1 158 48 is_stmt 0 view .LVU102
 319 0000 57       		pushl	%edi
 320              		.cfi_def_cfa_offset 8
 321              		.cfi_offset 7, -8
 322 0001 56       		pushl	%esi
 323              		.cfi_def_cfa_offset 12
 324              		.cfi_offset 6, -12
 325 0002 53       		pushl	%ebx
 326              		.cfi_def_cfa_offset 16
 327              		.cfi_offset 3, -16
 328              		.loc 1 158 48 view .LVU103
 329 0003 8B742410 		movl	16(%esp), %esi
 330 0007 E8FCFFFF 		call	__x86.get_pc_thunk.bx
 330      FF
 331 000c 81C30200 		addl	$_GLOBAL_OFFSET_TABLE_, %ebx
GAS LISTING /tmp/ccZnfTtS.s 			page 7


 331      0000
 332              	.LBB112:
 333              	.LBB113:
 334              	.LBB114:
 335              	.LBB115:
 336              		.loc 2 311 19 view .LVU104
 337 0012 8B06     		movl	(%esi), %eax
 338              	.LBE115:
 339              	.LBE114:
 340              	.LBE113:
 341              	.LBE112:
 342              	.LBB125:
 343              	.LBB111:
 344              	.LBB110:
 345              		.loc 4 363 16 view .LVU105
 346 0014 8BBB0000 		movl	port_irq_sts@GOT(%ebx), %edi
 346      0000
 347 001a C7070100 		movl	$1, (%edi)
 347      0000
 348              	.LBE110:
 349              	.LBE111:
 350              		.loc 3 410 35 is_stmt 1 view .LVU106
 351              		.loc 3 411 21 view .LVU107
 352              	.LBE125:
 353              		.loc 1 161 3 view .LVU108
 354              	.LVL16:
 355              	.LBB126:
 356              	.LBI112:
 357              		.loc 1 177 6 view .LVU109
 358              	.LBB124:
 359              		.loc 1 179 21 view .LVU110
 360              		.loc 1 180 3 view .LVU111
 361              		.loc 1 180 3 view .LVU112
 362              		.loc 1 180 3 view .LVU113
 363              		.loc 1 185 3 view .LVU114
 364              		.loc 1 185 10 view .LVU115
 365              	.LBB118:
 366              	.LBI114:
 367              		.loc 2 309 20 view .LVU116
 368              	.LBB116:
 369              		.loc 2 311 3 view .LVU117
 370              		.loc 2 311 3 is_stmt 0 view .LVU118
 371              	.LBE116:
 372              	.LBE118:
 373              		.loc 1 185 10 view .LVU119
 374 0020 39C6     		cmpl	%eax, %esi
 375 0022 7424     		je	.L11
 376              		.p2align 4,,10
 377 0024 8D742600 		.p2align 3
 378              	.L12:
 379              		.loc 1 186 5 is_stmt 1 view .LVU120
 380              	.LVL17:
 381              	.LBB119:
 382              	.LBI119:
 383              		.loc 2 340 27 view .LVU121
 384              	.LBB120:
 385              		.loc 2 341 3 view .LVU122
GAS LISTING /tmp/ccZnfTtS.s 			page 8


 386              		.loc 2 343 3 view .LVU123
 387              		.loc 2 343 21 is_stmt 0 view .LVU124
 388 0028 8B10     		movl	(%eax), %edx
 389              	.LBE120:
 390              	.LBE119:
 391              		.loc 1 186 5 view .LVU125
 392 002a 83EC0C   		subl	$12, %esp
 393              		.cfi_def_cfa_offset 28
 394              	.LBB122:
 395              	.LBB121:
 396              		.loc 2 343 18 view .LVU126
 397 002d 8916     		movl	%edx, (%esi)
 398              		.loc 2 344 3 is_stmt 1 view .LVU127
 399              		.loc 2 344 18 is_stmt 0 view .LVU128
 400 002f 897204   		movl	%esi, 4(%edx)
 401              		.loc 2 346 3 is_stmt 1 view .LVU129
 402              	.LVL18:
 403              		.loc 2 346 3 is_stmt 0 view .LVU130
 404              	.LBE121:
 405              	.LBE122:
 406              		.loc 1 186 5 view .LVU131
 407 0032 50       		pushl	%eax
 408              		.cfi_def_cfa_offset 32
 409 0033 E8FCFFFF 		call	chSchReadyI@PLT
 409      FF
 410              	.LVL19:
 411              		.loc 1 185 10 view .LVU132
 412 0038 83C410   		addl	$16, %esp
 413              		.cfi_def_cfa_offset 16
 414              		.loc 1 186 72 view .LVU133
 415 003b C74034FE 		movl	$-2, 52(%eax)
 415      FFFFFF
 416              		.loc 1 185 10 is_stmt 1 view .LVU134
 417              	.LVL20:
 418              	.LBB123:
 419              		.loc 2 309 20 view .LVU135
 420              	.LBB117:
 421              		.loc 2 311 3 view .LVU136
 422              		.loc 2 311 19 is_stmt 0 view .LVU137
 423 0042 8B06     		movl	(%esi), %eax
 424              	.LVL21:
 425              		.loc 2 311 19 view .LVU138
 426              	.LBE117:
 427              	.LBE123:
 428              		.loc 1 185 10 view .LVU139
 429 0044 39F0     		cmpl	%esi, %eax
 430 0046 75E0     		jne	.L12
 431              	.LVL22:
 432              	.L11:
 433              		.loc 1 185 10 view .LVU140
 434              	.LBE124:
 435              	.LBE126:
 436              		.loc 1 162 3 is_stmt 1 view .LVU141
 437 0048 E8FCFFFF 		call	chSchRescheduleS@PLT
 437      FF
 438              	.LVL23:
 439              		.loc 1 163 3 view .LVU142
GAS LISTING /tmp/ccZnfTtS.s 			page 9


 440              	.LBB127:
 441              	.LBI127:
 442              		.loc 3 421 20 view .LVU143
 443              	.LBB128:
 444              		.loc 3 423 23 view .LVU144
 445              		.loc 3 424 34 view .LVU145
 446              		.loc 3 430 3 view .LVU146
 447              		.loc 3 430 3 view .LVU147
 448              		.loc 3 430 3 view .LVU148
 449              		.loc 3 434 3 view .LVU149
 450              	.LBB129:
 451              	.LBI129:
 452              		.loc 4 370 20 view .LVU150
 453              	.LBB130:
 454              		.loc 4 372 3 view .LVU151
 455              	.LBE130:
 456              	.LBE129:
 457              	.LBE128:
 458              	.LBE127:
 459              		.loc 1 164 1 is_stmt 0 view .LVU152
 460 004d 5B       		popl	%ebx
 461              		.cfi_restore 3
 462              		.cfi_def_cfa_offset 12
 463 004e 5E       		popl	%esi
 464              		.cfi_restore 6
 465              		.cfi_def_cfa_offset 8
 466              	.LBB134:
 467              	.LBB133:
 468              	.LBB132:
 469              	.LBB131:
 470              		.loc 4 372 16 view .LVU153
 471 004f C7070000 		movl	$0, (%edi)
 471      0000
 472              	.LBE131:
 473              	.LBE132:
 474              	.LBE133:
 475              	.LBE134:
 476              		.loc 1 164 1 view .LVU154
 477 0055 5F       		popl	%edi
 478              		.cfi_restore 7
 479              		.cfi_def_cfa_offset 4
 480 0056 C3       		ret
 481              		.cfi_endproc
 482              	.LFE219:
 483              		.size	chCondBroadcast, .-chCondBroadcast
 484              		.section	.text.chCondBroadcastI,"ax",@progbits
 485              		.p2align 4
 486              		.globl	chCondBroadcastI
 487              		.type	chCondBroadcastI, @function
 488              	chCondBroadcastI:
 489              	.LVL24:
 490              	.LFB220:
 491              		.loc 1 177 49 is_stmt 1 view -0
 492              		.cfi_startproc
 493              		.loc 1 179 21 view .LVU156
 494              		.loc 1 180 3 view .LVU157
 495              		.loc 1 180 3 view .LVU158
GAS LISTING /tmp/ccZnfTtS.s 			page 10


 496              		.loc 1 180 3 view .LVU159
 497              		.loc 1 185 3 view .LVU160
 498              		.loc 1 185 10 view .LVU161
 499              		.loc 1 177 49 is_stmt 0 view .LVU162
 500 0000 56       		pushl	%esi
 501              		.cfi_def_cfa_offset 8
 502              		.cfi_offset 6, -8
 503 0001 53       		pushl	%ebx
 504              		.cfi_def_cfa_offset 12
 505              		.cfi_offset 3, -12
 506 0002 E8FCFFFF 		call	__x86.get_pc_thunk.bx
 506      FF
 507 0007 81C30200 		addl	$_GLOBAL_OFFSET_TABLE_, %ebx
 507      0000
 508 000d 83EC04   		subl	$4, %esp
 509              		.cfi_def_cfa_offset 16
 510              		.loc 1 177 49 view .LVU163
 511 0010 8B742410 		movl	16(%esp), %esi
 512              	.LVL25:
 513              	.LBB135:
 514              	.LBI135:
 515              		.loc 2 309 20 is_stmt 1 view .LVU164
 516              	.LBB136:
 517              		.loc 2 311 3 view .LVU165
 518              		.loc 2 311 19 is_stmt 0 view .LVU166
 519 0014 8B06     		movl	(%esi), %eax
 520              	.LVL26:
 521              		.loc 2 311 19 view .LVU167
 522              	.LBE136:
 523              	.LBE135:
 524              		.loc 1 185 10 view .LVU168
 525 0016 39F0     		cmpl	%esi, %eax
 526 0018 7426     		je	.L15
 527 001a 8DB60000 		.p2align 4,,10
 527      0000
 528              		.p2align 3
 529              	.L17:
 530              		.loc 1 186 5 is_stmt 1 view .LVU169
 531              	.LVL27:
 532              	.LBB138:
 533              	.LBI138:
 534              		.loc 2 340 27 view .LVU170
 535              	.LBB139:
 536              		.loc 2 341 3 view .LVU171
 537              		.loc 2 343 3 view .LVU172
 538              		.loc 2 343 21 is_stmt 0 view .LVU173
 539 0020 8B10     		movl	(%eax), %edx
 540              	.LBE139:
 541              	.LBE138:
 542              		.loc 1 186 5 view .LVU174
 543 0022 83EC0C   		subl	$12, %esp
 544              		.cfi_def_cfa_offset 28
 545              	.LBB141:
 546              	.LBB140:
 547              		.loc 2 343 18 view .LVU175
 548 0025 8916     		movl	%edx, (%esi)
 549              		.loc 2 344 3 is_stmt 1 view .LVU176
GAS LISTING /tmp/ccZnfTtS.s 			page 11


 550              		.loc 2 344 18 is_stmt 0 view .LVU177
 551 0027 897204   		movl	%esi, 4(%edx)
 552              		.loc 2 346 3 is_stmt 1 view .LVU178
 553              	.LVL28:
 554              		.loc 2 346 3 is_stmt 0 view .LVU179
 555              	.LBE140:
 556              	.LBE141:
 557              		.loc 1 186 5 view .LVU180
 558 002a 50       		pushl	%eax
 559              		.cfi_def_cfa_offset 32
 560 002b E8FCFFFF 		call	chSchReadyI@PLT
 560      FF
 561              	.LVL29:
 562              		.loc 1 185 10 view .LVU181
 563 0030 83C410   		addl	$16, %esp
 564              		.cfi_def_cfa_offset 16
 565              		.loc 1 186 72 view .LVU182
 566 0033 C74034FE 		movl	$-2, 52(%eax)
 566      FFFFFF
 567              		.loc 1 185 10 is_stmt 1 view .LVU183
 568              	.LVL30:
 569              	.LBB142:
 570              		.loc 2 309 20 view .LVU184
 571              	.LBB137:
 572              		.loc 2 311 3 view .LVU185
 573              		.loc 2 311 19 is_stmt 0 view .LVU186
 574 003a 8B06     		movl	(%esi), %eax
 575              	.LVL31:
 576              		.loc 2 311 19 view .LVU187
 577              	.LBE137:
 578              	.LBE142:
 579              		.loc 1 185 10 view .LVU188
 580 003c 39F0     		cmpl	%esi, %eax
 581 003e 75E0     		jne	.L17
 582              	.L15:
 583              		.loc 1 188 1 view .LVU189
 584 0040 83C404   		addl	$4, %esp
 585              		.cfi_def_cfa_offset 12
 586 0043 5B       		popl	%ebx
 587              		.cfi_restore 3
 588              		.cfi_def_cfa_offset 8
 589 0044 5E       		popl	%esi
 590              		.cfi_restore 6
 591              		.cfi_def_cfa_offset 4
 592 0045 C3       		ret
 593              		.cfi_endproc
 594              	.LFE220:
 595              		.size	chCondBroadcastI, .-chCondBroadcastI
 596              		.section	.text.chCondWaitS,"ax",@progbits
 597              		.p2align 4
 598              		.globl	chCondWaitS
 599              		.type	chCondWaitS, @function
 600              	chCondWaitS:
 601              	.LVL32:
 602              	.LFB222:
 603              		.loc 1 233 45 is_stmt 1 view -0
 604              		.cfi_startproc
GAS LISTING /tmp/ccZnfTtS.s 			page 12


 605              		.loc 1 234 3 view .LVU191
 606              	.LBB149:
 607              	.LBI149:
 608              		.file 5 "../../../os/rt/include/chthreads.h"
 609              		.loc 5 527 25 view .LVU192
 610              	.LBB150:
 611              		.loc 5 529 3 view .LVU193
 612              	.LBE150:
 613              	.LBE149:
 614              		.loc 1 233 45 is_stmt 0 view .LVU194
 615 0000 55       		pushl	%ebp
 616              		.cfi_def_cfa_offset 8
 617              		.cfi_offset 5, -8
 618 0001 57       		pushl	%edi
 619              		.cfi_def_cfa_offset 12
 620              		.cfi_offset 7, -12
 621 0002 56       		pushl	%esi
 622              		.cfi_def_cfa_offset 16
 623              		.cfi_offset 6, -16
 624 0003 53       		pushl	%ebx
 625              		.cfi_def_cfa_offset 20
 626              		.cfi_offset 3, -20
 627 0004 E8FCFFFF 		call	__x86.get_pc_thunk.bx
 627      FF
 628 0009 81C30200 		addl	$_GLOBAL_OFFSET_TABLE_, %ebx
 628      0000
 629 000f 83EC18   		subl	$24, %esp
 630              		.cfi_def_cfa_offset 44
 631              		.loc 1 233 45 view .LVU195
 632 0012 8B6C242C 		movl	44(%esp), %ebp
 633              	.LBB152:
 634              	.LBB151:
 635              		.loc 5 529 10 view .LVU196
 636 0016 8B830000 		movl	ch0@GOT(%ebx), %eax
 636      0000
 637 001c 8B700C   		movl	12(%eax), %esi
 638              	.LVL33:
 639              		.loc 5 529 10 view .LVU197
 640              	.LBE151:
 641              	.LBE152:
 642              		.loc 1 235 3 is_stmt 1 view .LVU198
 643              	.LBB153:
 644              	.LBI153:
 645              		.file 6 "../../../os/rt/include/chmtx.h"
 646              		.loc 6 160 24 view .LVU199
 647              	.LBB154:
 648              		.loc 6 162 3 view .LVU200
 649              		.loc 6 162 25 is_stmt 0 view .LVU201
 650 001f 8B7E48   		movl	72(%esi), %edi
 651              	.LVL34:
 652              		.loc 6 162 25 view .LVU202
 653              	.LBE154:
 654              	.LBE153:
 655              		.loc 1 236 3 is_stmt 1 view .LVU203
 656              		.loc 1 238 21 view .LVU204
 657              		.loc 1 239 3 view .LVU205
 658              		.loc 1 239 3 view .LVU206
GAS LISTING /tmp/ccZnfTtS.s 			page 13


 659              		.loc 1 239 3 view .LVU207
 660              		.loc 1 240 3 view .LVU208
 661              		.loc 1 240 3 view .LVU209
 662              		.loc 1 240 3 view .LVU210
 663              		.loc 1 243 3 view .LVU211
 664 0022 57       		pushl	%edi
 665              		.cfi_def_cfa_offset 48
 666 0023 E8FCFFFF 		call	chMtxUnlockS@PLT
 666      FF
 667              	.LVL35:
 668              		.loc 1 247 3 view .LVU212
 669              		.loc 1 247 20 is_stmt 0 view .LVU213
 670 0028 896E34   		movl	%ebp, 52(%esi)
 671              		.loc 1 248 3 is_stmt 1 view .LVU214
 672              	.LVL36:
 673              	.LBB155:
 674              	.LBI155:
 675              		.file 7 "../../../os/rt/include/chschd.h"
 676              		.loc 7 168 20 view .LVU215
 677              	.LBB156:
 678              		.loc 7 170 3 view .LVU216
 679              		.loc 7 170 3 is_stmt 0 view .LVU217
 680              	.LBE156:
 681              	.LBE155:
 682              		.loc 1 248 3 view .LVU218
 683 002b 83C410   		addl	$16, %esp
 684              		.cfi_def_cfa_offset 32
 685              	.LBB159:
 686              	.LBB157:
 687              		.loc 7 170 15 view .LVU219
 688 002e 89E8     		movl	%ebp, %eax
 689 0030 EB0E     		jmp	.L22
 690              	.LVL37:
 691              		.p2align 4,,10
 692 0032 8DB60000 		.p2align 3
 692      0000
 693              	.L25:
 694              		.loc 7 173 23 view .LVU220
 695 0038 8B4E08   		movl	8(%esi), %ecx
 696 003b 394808   		cmpl	%ecx, 8(%eax)
 697 003e 7206     		jb	.L21
 698              	.L22:
 699              		.loc 7 171 3 is_stmt 1 view .LVU221
 700              		.loc 7 172 5 view .LVU222
 701              		.loc 7 172 8 is_stmt 0 view .LVU223
 702 0040 8B00     		movl	(%eax), %eax
 703              	.LVL38:
 704              		.loc 7 173 23 is_stmt 1 view .LVU224
 705 0042 39C5     		cmpl	%eax, %ebp
 706 0044 75F2     		jne	.L25
 707              	.L21:
 708              		.loc 7 175 3 view .LVU225
 709              		.loc 7 176 22 is_stmt 0 view .LVU226
 710 0046 8B5004   		movl	4(%eax), %edx
 711              	.LBE157:
 712              	.LBE159:
 713              		.loc 1 249 3 view .LVU227
GAS LISTING /tmp/ccZnfTtS.s 			page 14


 714 0049 83EC0C   		subl	$12, %esp
 715              		.cfi_def_cfa_offset 44
 716              	.LBB160:
 717              	.LBB158:
 718              		.loc 7 175 18 view .LVU228
 719 004c 8906     		movl	%eax, (%esi)
 720              		.loc 7 176 3 is_stmt 1 view .LVU229
 721              		.loc 7 176 18 is_stmt 0 view .LVU230
 722 004e 895604   		movl	%edx, 4(%esi)
 723              		.loc 7 177 3 is_stmt 1 view .LVU231
 724              		.loc 7 177 18 is_stmt 0 view .LVU232
 725 0051 8932     		movl	%esi, (%edx)
 726              		.loc 7 178 3 is_stmt 1 view .LVU233
 727              		.loc 7 178 18 is_stmt 0 view .LVU234
 728 0053 897004   		movl	%esi, 4(%eax)
 729              	.LVL39:
 730              		.loc 7 178 18 view .LVU235
 731              	.LBE158:
 732              	.LBE160:
 733              		.loc 1 249 3 is_stmt 1 view .LVU236
 734 0056 6A07     		pushl	$7
 735              		.cfi_def_cfa_offset 48
 736 0058 E8FCFFFF 		call	chSchGoSleepS@PLT
 736      FF
 737              	.LVL40:
 738              		.loc 1 250 3 view .LVU237
 739              		.loc 1 250 7 is_stmt 0 view .LVU238
 740 005d 8B7634   		movl	52(%esi), %esi
 741              	.LVL41:
 742              		.loc 1 251 3 is_stmt 1 view .LVU239
 743 0060 893C24   		movl	%edi, (%esp)
 744 0063 E8FCFFFF 		call	chMtxLockS@PLT
 744      FF
 745              	.LVL42:
 746              		.loc 1 253 3 view .LVU240
 747              		.loc 1 254 1 is_stmt 0 view .LVU241
 748 0068 83C41C   		addl	$28, %esp
 749              		.cfi_def_cfa_offset 20
 750 006b 5B       		popl	%ebx
 751              		.cfi_restore 3
 752              		.cfi_def_cfa_offset 16
 753 006c 89F0     		movl	%esi, %eax
 754 006e 5E       		popl	%esi
 755              		.cfi_restore 6
 756              		.cfi_def_cfa_offset 12
 757              	.LVL43:
 758              		.loc 1 254 1 view .LVU242
 759 006f 5F       		popl	%edi
 760              		.cfi_restore 7
 761              		.cfi_def_cfa_offset 8
 762              	.LVL44:
 763              		.loc 1 254 1 view .LVU243
 764 0070 5D       		popl	%ebp
 765              		.cfi_restore 5
 766              		.cfi_def_cfa_offset 4
 767 0071 C3       		ret
 768              		.cfi_endproc
GAS LISTING /tmp/ccZnfTtS.s 			page 15


 769              	.LFE222:
 770              		.size	chCondWaitS, .-chCondWaitS
 771              		.section	.text.chCondWait,"ax",@progbits
 772              		.p2align 4
 773              		.globl	chCondWait
 774              		.type	chCondWait, @function
 775              	chCondWait:
 776              	.LVL45:
 777              	.LFB221:
 778              		.loc 1 207 44 is_stmt 1 view -0
 779              		.cfi_startproc
 780              		.loc 1 208 3 view .LVU245
 781              		.loc 1 210 3 view .LVU246
 782              	.LBB161:
 783              	.LBI161:
 784              		.loc 3 407 20 view .LVU247
 785              		.loc 3 409 3 view .LVU248
 786              	.LBB162:
 787              	.LBI162:
 788              		.loc 4 361 20 view .LVU249
 789              	.LBB163:
 790              		.loc 4 363 3 view .LVU250
 791 0000 E8FCFFFF 		call	__x86.get_pc_thunk.ax
 791      FF
 792 0005 05010000 		addl	$_GLOBAL_OFFSET_TABLE_, %eax
 792      00
 793              	.LBE163:
 794              	.LBE162:
 795              	.LBE161:
 796              		.loc 1 207 44 is_stmt 0 view .LVU251
 797 000a 53       		pushl	%ebx
 798              		.cfi_def_cfa_offset 8
 799              		.cfi_offset 3, -8
 800 000b 83EC14   		subl	$20, %esp
 801              		.cfi_def_cfa_offset 28
 802              		.loc 1 211 9 view .LVU252
 803 000e FF74241C 		pushl	28(%esp)
 804              		.cfi_def_cfa_offset 32
 805              	.LBB166:
 806              	.LBB165:
 807              	.LBB164:
 808              		.loc 4 363 16 view .LVU253
 809 0012 8B980000 		movl	port_irq_sts@GOT(%eax), %ebx
 809      0000
 810 0018 C7030100 		movl	$1, (%ebx)
 810      0000
 811              	.LBE164:
 812              	.LBE165:
 813              		.loc 3 410 35 is_stmt 1 view .LVU254
 814              		.loc 3 411 21 view .LVU255
 815              	.LBE166:
 816              		.loc 1 211 3 view .LVU256
 817              		.loc 1 211 9 is_stmt 0 view .LVU257
 818 001e E8FCFFFF 		call	chCondWaitS
 818      FF
 819              	.LVL46:
 820              		.loc 1 212 3 is_stmt 1 view .LVU258
GAS LISTING /tmp/ccZnfTtS.s 			page 16


 821              	.LBB167:
 822              	.LBI167:
 823              		.loc 3 421 20 view .LVU259
 824              	.LBB168:
 825              		.loc 3 423 23 view .LVU260
 826              		.loc 3 424 34 view .LVU261
 827              		.loc 3 430 3 view .LVU262
 828              		.loc 3 430 3 view .LVU263
 829              		.loc 3 430 3 view .LVU264
 830              		.loc 3 434 3 view .LVU265
 831              	.LBB169:
 832              	.LBI169:
 833              		.loc 4 370 20 view .LVU266
 834              	.LBB170:
 835              		.loc 4 372 3 view .LVU267
 836              		.loc 4 372 16 is_stmt 0 view .LVU268
 837 0023 C7030000 		movl	$0, (%ebx)
 837      0000
 838              	.LBE170:
 839              	.LBE169:
 840              	.LBE168:
 841              	.LBE167:
 842              		.loc 1 213 3 is_stmt 1 view .LVU269
 843              		.loc 1 214 1 is_stmt 0 view .LVU270
 844 0029 83C418   		addl	$24, %esp
 845              		.cfi_def_cfa_offset 8
 846 002c 5B       		popl	%ebx
 847              		.cfi_restore 3
 848              		.cfi_def_cfa_offset 4
 849 002d C3       		ret
 850              		.cfi_endproc
 851              	.LFE221:
 852              		.size	chCondWait, .-chCondWait
 853              		.section	.text.chCondWaitTimeoutS,"ax",@progbits
 854              		.p2align 4
 855              		.globl	chCondWaitTimeoutS
 856              		.type	chCondWaitTimeoutS, @function
 857              	chCondWaitTimeoutS:
 858              	.LVL47:
 859              	.LFB224:
 860              		.loc 1 321 75 is_stmt 1 view -0
 861              		.cfi_startproc
 862              		.loc 1 322 3 view .LVU272
 863              	.LBB177:
 864              	.LBI177:
 865              		.loc 5 527 25 view .LVU273
 866              	.LBB178:
 867              		.loc 5 529 3 view .LVU274
 868              	.LBE178:
 869              	.LBE177:
 870              		.loc 1 321 75 is_stmt 0 view .LVU275
 871 0000 55       		pushl	%ebp
 872              		.cfi_def_cfa_offset 8
 873              		.cfi_offset 5, -8
 874 0001 57       		pushl	%edi
 875              		.cfi_def_cfa_offset 12
 876              		.cfi_offset 7, -12
GAS LISTING /tmp/ccZnfTtS.s 			page 17


 877 0002 56       		pushl	%esi
 878              		.cfi_def_cfa_offset 16
 879              		.cfi_offset 6, -16
 880 0003 53       		pushl	%ebx
 881              		.cfi_def_cfa_offset 20
 882              		.cfi_offset 3, -20
 883 0004 E8FCFFFF 		call	__x86.get_pc_thunk.bx
 883      FF
 884 0009 81C30200 		addl	$_GLOBAL_OFFSET_TABLE_, %ebx
 884      0000
 885 000f 83EC28   		subl	$40, %esp
 886              		.cfi_def_cfa_offset 60
 887              		.loc 1 321 75 view .LVU276
 888 0012 8B6C243C 		movl	60(%esp), %ebp
 889              	.LBB180:
 890              	.LBB179:
 891              		.loc 5 529 10 view .LVU277
 892 0016 8B830000 		movl	ch0@GOT(%ebx), %eax
 892      0000
 893 001c 8B700C   		movl	12(%eax), %esi
 894              	.LVL48:
 895              		.loc 5 529 10 view .LVU278
 896              	.LBE179:
 897              	.LBE180:
 898              		.loc 1 323 3 is_stmt 1 view .LVU279
 899              	.LBB181:
 900              	.LBI181:
 901              		.loc 6 160 24 view .LVU280
 902              	.LBB182:
 903              		.loc 6 162 3 view .LVU281
 904              		.loc 6 162 25 is_stmt 0 view .LVU282
 905 001f 8B7E48   		movl	72(%esi), %edi
 906              	.LVL49:
 907              		.loc 6 162 25 view .LVU283
 908              	.LBE182:
 909              	.LBE181:
 910              		.loc 1 324 3 is_stmt 1 view .LVU284
 911              		.loc 1 326 21 view .LVU285
 912              		.loc 1 327 3 view .LVU286
 913              		.loc 1 327 3 view .LVU287
 914              		.loc 1 327 3 view .LVU288
 915              		.loc 1 328 3 view .LVU289
 916              		.loc 1 328 3 view .LVU290
 917              		.loc 1 328 3 view .LVU291
 918              		.loc 1 331 3 view .LVU292
 919 0022 57       		pushl	%edi
 920              		.cfi_def_cfa_offset 64
 921 0023 E8FCFFFF 		call	chMtxUnlockS@PLT
 921      FF
 922              	.LVL50:
 923              		.loc 1 335 3 view .LVU293
 924              		.loc 1 335 20 is_stmt 0 view .LVU294
 925 0028 896E34   		movl	%ebp, 52(%esi)
 926              		.loc 1 336 3 is_stmt 1 view .LVU295
 927              	.LVL51:
 928              	.LBB183:
 929              	.LBI183:
GAS LISTING /tmp/ccZnfTtS.s 			page 18


 930              		.loc 7 168 20 view .LVU296
 931              	.LBB184:
 932              		.loc 7 170 3 view .LVU297
 933              		.loc 7 170 3 is_stmt 0 view .LVU298
 934              	.LBE184:
 935              	.LBE183:
 936              		.loc 1 336 3 view .LVU299
 937 002b 83C410   		addl	$16, %esp
 938              		.cfi_def_cfa_offset 48
 939              	.LBB187:
 940              	.LBB185:
 941              		.loc 7 170 15 view .LVU300
 942 002e 89E8     		movl	%ebp, %eax
 943 0030 EB0E     		jmp	.L30
 944              	.LVL52:
 945              		.p2align 4,,10
 946 0032 8DB60000 		.p2align 3
 946      0000
 947              	.L37:
 948              		.loc 7 173 23 view .LVU301
 949 0038 8B4E08   		movl	8(%esi), %ecx
 950 003b 394808   		cmpl	%ecx, 8(%eax)
 951 003e 7206     		jb	.L29
 952              	.L30:
 953              		.loc 7 171 3 is_stmt 1 view .LVU302
 954              		.loc 7 172 5 view .LVU303
 955              		.loc 7 172 8 is_stmt 0 view .LVU304
 956 0040 8B00     		movl	(%eax), %eax
 957              	.LVL53:
 958              		.loc 7 173 23 is_stmt 1 view .LVU305
 959 0042 39C5     		cmpl	%eax, %ebp
 960 0044 75F2     		jne	.L37
 961              	.L29:
 962              		.loc 7 175 3 view .LVU306
 963              		.loc 7 176 22 is_stmt 0 view .LVU307
 964 0046 8B5004   		movl	4(%eax), %edx
 965              	.LBE185:
 966              	.LBE187:
 967              		.loc 1 337 9 view .LVU308
 968 0049 83EC08   		subl	$8, %esp
 969              		.cfi_def_cfa_offset 56
 970              	.LBB188:
 971              	.LBB186:
 972              		.loc 7 175 18 view .LVU309
 973 004c 8906     		movl	%eax, (%esi)
 974              		.loc 7 176 3 is_stmt 1 view .LVU310
 975              		.loc 7 176 18 is_stmt 0 view .LVU311
 976 004e 895604   		movl	%edx, 4(%esi)
 977              		.loc 7 177 3 is_stmt 1 view .LVU312
 978              		.loc 7 177 18 is_stmt 0 view .LVU313
 979 0051 8932     		movl	%esi, (%edx)
 980              		.loc 7 178 3 is_stmt 1 view .LVU314
 981              		.loc 7 178 18 is_stmt 0 view .LVU315
 982 0053 897004   		movl	%esi, 4(%eax)
 983              	.LVL54:
 984              		.loc 7 178 18 view .LVU316
 985              	.LBE186:
GAS LISTING /tmp/ccZnfTtS.s 			page 19


 986              	.LBE188:
 987              		.loc 1 337 3 is_stmt 1 view .LVU317
 988              		.loc 1 337 9 is_stmt 0 view .LVU318
 989 0056 FF74243C 		pushl	60(%esp)
 990              		.cfi_def_cfa_offset 60
 991 005a 6A07     		pushl	$7
 992              		.cfi_def_cfa_offset 64
 993 005c E8FCFFFF 		call	chSchGoSleepTimeoutS@PLT
 993      FF
 994              	.LVL55:
 995              		.loc 1 338 3 is_stmt 1 view .LVU319
 996              		.loc 1 338 6 is_stmt 0 view .LVU320
 997 0061 83C410   		addl	$16, %esp
 998              		.cfi_def_cfa_offset 48
 999 0064 83F8FF   		cmpl	$-1, %eax
 1000 0067 7414     		je	.L28
 1001 0069 8944240C 		movl	%eax, 12(%esp)
 1002              		.loc 1 339 5 is_stmt 1 view .LVU321
 1003 006d 83EC0C   		subl	$12, %esp
 1004              		.cfi_def_cfa_offset 60
 1005 0070 57       		pushl	%edi
 1006              		.cfi_def_cfa_offset 64
 1007 0071 E8FCFFFF 		call	chMtxLockS@PLT
 1007      FF
 1008              	.LVL56:
 1009              		.loc 1 339 5 is_stmt 0 view .LVU322
 1010 0076 8B44241C 		movl	28(%esp), %eax
 1011              		.loc 1 342 3 is_stmt 1 view .LVU323
 1012              		.loc 1 339 5 is_stmt 0 view .LVU324
 1013 007a 83C410   		addl	$16, %esp
 1014              		.cfi_def_cfa_offset 48
 1015              	.LVL57:
 1016              	.L28:
 1017              		.loc 1 343 1 view .LVU325
 1018 007d 83C41C   		addl	$28, %esp
 1019              		.cfi_def_cfa_offset 20
 1020 0080 5B       		popl	%ebx
 1021              		.cfi_restore 3
 1022              		.cfi_def_cfa_offset 16
 1023 0081 5E       		popl	%esi
 1024              		.cfi_restore 6
 1025              		.cfi_def_cfa_offset 12
 1026              	.LVL58:
 1027              		.loc 1 343 1 view .LVU326
 1028 0082 5F       		popl	%edi
 1029              		.cfi_restore 7
 1030              		.cfi_def_cfa_offset 8
 1031              	.LVL59:
 1032              		.loc 1 343 1 view .LVU327
 1033 0083 5D       		popl	%ebp
 1034              		.cfi_restore 5
 1035              		.cfi_def_cfa_offset 4
 1036 0084 C3       		ret
 1037              		.cfi_endproc
 1038              	.LFE224:
 1039              		.size	chCondWaitTimeoutS, .-chCondWaitTimeoutS
 1040              		.section	.text.chCondWaitTimeout,"ax",@progbits
GAS LISTING /tmp/ccZnfTtS.s 			page 20


 1041              		.p2align 4
 1042              		.globl	chCondWaitTimeout
 1043              		.type	chCondWaitTimeout, @function
 1044              	chCondWaitTimeout:
 1045              	.LVL60:
 1046              	.LFB223:
 1047              		.loc 1 284 74 is_stmt 1 view -0
 1048              		.cfi_startproc
 1049              		.loc 1 285 3 view .LVU329
 1050              		.loc 1 287 3 view .LVU330
 1051              	.LBB189:
 1052              	.LBI189:
 1053              		.loc 3 407 20 view .LVU331
 1054              		.loc 3 409 3 view .LVU332
 1055              	.LBB190:
 1056              	.LBI190:
 1057              		.loc 4 361 20 view .LVU333
 1058              	.LBB191:
 1059              		.loc 4 363 3 view .LVU334
 1060 0000 E8FCFFFF 		call	__x86.get_pc_thunk.ax
 1060      FF
 1061 0005 05010000 		addl	$_GLOBAL_OFFSET_TABLE_, %eax
 1061      00
 1062              	.LBE191:
 1063              	.LBE190:
 1064              	.LBE189:
 1065              		.loc 1 284 74 is_stmt 0 view .LVU335
 1066 000a 53       		pushl	%ebx
 1067              		.cfi_def_cfa_offset 8
 1068              		.cfi_offset 3, -8
 1069 000b 83EC10   		subl	$16, %esp
 1070              		.cfi_def_cfa_offset 24
 1071              		.loc 1 288 9 view .LVU336
 1072 000e FF74241C 		pushl	28(%esp)
 1073              		.cfi_def_cfa_offset 28
 1074 0012 FF74241C 		pushl	28(%esp)
 1075              		.cfi_def_cfa_offset 32
 1076              	.LBB194:
 1077              	.LBB193:
 1078              	.LBB192:
 1079              		.loc 4 363 16 view .LVU337
 1080 0016 8B980000 		movl	port_irq_sts@GOT(%eax), %ebx
 1080      0000
 1081 001c C7030100 		movl	$1, (%ebx)
 1081      0000
 1082              	.LBE192:
 1083              	.LBE193:
 1084              		.loc 3 410 35 is_stmt 1 view .LVU338
 1085              		.loc 3 411 21 view .LVU339
 1086              	.LBE194:
 1087              		.loc 1 288 3 view .LVU340
 1088              		.loc 1 288 9 is_stmt 0 view .LVU341
 1089 0022 E8FCFFFF 		call	chCondWaitTimeoutS
 1089      FF
 1090              	.LVL61:
 1091              		.loc 1 289 3 is_stmt 1 view .LVU342
 1092              	.LBB195:
GAS LISTING /tmp/ccZnfTtS.s 			page 21


 1093              	.LBI195:
 1094              		.loc 3 421 20 view .LVU343
 1095              	.LBB196:
 1096              		.loc 3 423 23 view .LVU344
 1097              		.loc 3 424 34 view .LVU345
 1098              		.loc 3 430 3 view .LVU346
 1099              		.loc 3 430 3 view .LVU347
 1100              		.loc 3 430 3 view .LVU348
 1101              		.loc 3 434 3 view .LVU349
 1102              	.LBB197:
 1103              	.LBI197:
 1104              		.loc 4 370 20 view .LVU350
 1105              	.LBB198:
 1106              		.loc 4 372 3 view .LVU351
 1107              		.loc 4 372 16 is_stmt 0 view .LVU352
 1108 0027 C7030000 		movl	$0, (%ebx)
 1108      0000
 1109              	.LBE198:
 1110              	.LBE197:
 1111              	.LBE196:
 1112              	.LBE195:
 1113              		.loc 1 291 3 is_stmt 1 view .LVU353
 1114              		.loc 1 292 1 is_stmt 0 view .LVU354
 1115 002d 83C418   		addl	$24, %esp
 1116              		.cfi_def_cfa_offset 8
 1117 0030 5B       		popl	%ebx
 1118              		.cfi_restore 3
 1119              		.cfi_def_cfa_offset 4
 1120 0031 C3       		ret
 1121              		.cfi_endproc
 1122              	.LFE223:
 1123              		.size	chCondWaitTimeout, .-chCondWaitTimeout
 1124              		.section	.text.__x86.get_pc_thunk.ax,"axG",@progbits,__x86.get_pc_thunk.ax,comdat
 1125              		.globl	__x86.get_pc_thunk.ax
 1126              		.hidden	__x86.get_pc_thunk.ax
 1127              		.type	__x86.get_pc_thunk.ax, @function
 1128              	__x86.get_pc_thunk.ax:
 1129              	.LFB225:
 1130              		.cfi_startproc
 1131 0000 8B0424   		movl	(%esp), %eax
 1132 0003 C3       		ret
 1133              		.cfi_endproc
 1134              	.LFE225:
 1135              		.section	.text.__x86.get_pc_thunk.bx,"axG",@progbits,__x86.get_pc_thunk.bx,comdat
 1136              		.globl	__x86.get_pc_thunk.bx
 1137              		.hidden	__x86.get_pc_thunk.bx
 1138              		.type	__x86.get_pc_thunk.bx, @function
 1139              	__x86.get_pc_thunk.bx:
 1140              	.LFB226:
 1141              		.cfi_startproc
 1142 0000 8B1C24   		movl	(%esp), %ebx
 1143 0003 C3       		ret
 1144              		.cfi_endproc
 1145              	.LFE226:
 1146              		.text
 1147              	.Letext0:
 1148              		.file 8 "/usr/include/bits/types.h"
GAS LISTING /tmp/ccZnfTtS.s 			page 22


 1149              		.file 9 "/usr/include/bits/stdint-intn.h"
 1150              		.file 10 "/usr/include/bits/stdint-uintn.h"
 1151              		.file 11 "../../../os/common/ports/SIMIA32/compilers/GCC/chtypes.h"
 1152              		.file 12 "../../../os/rt/include/chearly.h"
 1153              		.file 13 "../../../os/rt/include/chobjects.h"
 1154              		.file 14 "../../../os/rt/include/chrfcu.h"
 1155              		.file 15 "../../../os/rt/include/chdebug.h"
 1156              		.file 16 "../../../os/rt/include/chtime.h"
 1157              		.file 17 "../../../os/rt/include/chsem.h"
 1158              		.file 18 "../../../os/rt/include/chcond.h"
 1159              		.section	.debug_info,"",@progbits
 1160              	.Ldebug_info0:
 1161 0000 44100000 		.long	0x1044
 1162 0004 0500     		.value	0x5
 1163 0006 01       		.byte	0x1
 1164 0007 04       		.byte	0x4
 1165 0008 00000000 		.long	.Ldebug_abbrev0
 1166 000c 2C       		.uleb128 0x2c
 1167 000d 49040000 		.long	.LASF147
 1168 0011 1D       		.byte	0x1d
 1169 0012 26000000 		.long	.LASF0
 1170 0016 00000000 		.long	.LASF1
 1171 001a E1000000 		.long	.LLRL46
 1172 001e 00000000 		.long	0
 1173 0022 00000000 		.long	.Ldebug_line0
 1174 0026 07       		.uleb128 0x7
 1175 0027 04       		.byte	0x4
 1176 0028 07       		.byte	0x7
 1177 0029 6C000000 		.long	.LASF2
 1178 002d 07       		.uleb128 0x7
 1179 002e 02       		.byte	0x2
 1180 002f 07       		.byte	0x7
 1181 0030 D2060000 		.long	.LASF3
 1182 0034 2D       		.uleb128 0x2d
 1183 0035 04       		.byte	0x4
 1184 0036 05       		.byte	0x5
 1185 0037 696E7400 		.string	"int"
 1186 003b 04       		.uleb128 0x4
 1187 003c 4C000000 		.long	0x4c
 1188 0040 19       		.uleb128 0x19
 1189 0041 3B000000 		.long	0x3b
 1190 0045 07       		.uleb128 0x7
 1191 0046 01       		.byte	0x1
 1192 0047 06       		.byte	0x6
 1193 0048 D6020000 		.long	.LASF4
 1194 004c 0B       		.uleb128 0xb
 1195 004d 45000000 		.long	0x45
 1196 0051 07       		.uleb128 0x7
 1197 0052 04       		.byte	0x4
 1198 0053 05       		.byte	0x5
 1199 0054 34040000 		.long	.LASF5
 1200 0058 07       		.uleb128 0x7
 1201 0059 08       		.byte	0x8
 1202 005a 05       		.byte	0x5
 1203 005b 5D030000 		.long	.LASF6
 1204 005f 07       		.uleb128 0x7
 1205 0060 0C       		.byte	0xc
GAS LISTING /tmp/ccZnfTtS.s 			page 23


 1206 0061 04       		.byte	0x4
 1207 0062 0D040000 		.long	.LASF7
 1208 0066 07       		.uleb128 0x7
 1209 0067 10       		.byte	0x10
 1210 0068 04       		.byte	0x4
 1211 0069 7E000000 		.long	.LASF8
 1212 006d 07       		.uleb128 0x7
 1213 006e 01       		.byte	0x1
 1214 006f 08       		.byte	0x8
 1215 0070 2D060000 		.long	.LASF9
 1216 0074 07       		.uleb128 0x7
 1217 0075 04       		.byte	0x4
 1218 0076 07       		.byte	0x7
 1219 0077 AC050000 		.long	.LASF10
 1220 007b 07       		.uleb128 0x7
 1221 007c 01       		.byte	0x1
 1222 007d 06       		.byte	0x6
 1223 007e C0060000 		.long	.LASF11
 1224 0082 01       		.uleb128 0x1
 1225 0083 63050000 		.long	.LASF13
 1226 0087 08       		.byte	0x8
 1227 0088 26       		.byte	0x26
 1228 0089 17       		.byte	0x17
 1229 008a 6D000000 		.long	0x6d
 1230 008e 07       		.uleb128 0x7
 1231 008f 02       		.byte	0x2
 1232 0090 05       		.byte	0x5
 1233 0091 2A040000 		.long	.LASF12
 1234 0095 01       		.uleb128 0x1
 1235 0096 99000000 		.long	.LASF14
 1236 009a 08       		.byte	0x8
 1237 009b 29       		.byte	0x29
 1238 009c 14       		.byte	0x14
 1239 009d 34000000 		.long	0x34
 1240 00a1 01       		.uleb128 0x1
 1241 00a2 3B060000 		.long	.LASF15
 1242 00a6 08       		.byte	0x8
 1243 00a7 2A       		.byte	0x2a
 1244 00a8 16       		.byte	0x16
 1245 00a9 26000000 		.long	0x26
 1246 00ad 01       		.uleb128 0x1
 1247 00ae 5F020000 		.long	.LASF16
 1248 00b2 08       		.byte	0x8
 1249 00b3 30       		.byte	0x30
 1250 00b4 2E       		.byte	0x2e
 1251 00b5 B9000000 		.long	0xb9
 1252 00b9 07       		.uleb128 0x7
 1253 00ba 08       		.byte	0x8
 1254 00bb 07       		.byte	0x7
 1255 00bc 94010000 		.long	.LASF17
 1256 00c0 2E       		.uleb128 0x2e
 1257 00c1 04       		.byte	0x4
 1258 00c2 01       		.uleb128 0x1
 1259 00c3 E6050000 		.long	.LASF18
 1260 00c7 09       		.byte	0x9
 1261 00c8 1A       		.byte	0x1a
 1262 00c9 13       		.byte	0x13
GAS LISTING /tmp/ccZnfTtS.s 			page 24


 1263 00ca 95000000 		.long	0x95
 1264 00ce 01       		.uleb128 0x1
 1265 00cf 33030000 		.long	.LASF19
 1266 00d3 0A       		.byte	0xa
 1267 00d4 18       		.byte	0x18
 1268 00d5 13       		.byte	0x13
 1269 00d6 82000000 		.long	0x82
 1270 00da 01       		.uleb128 0x1
 1271 00db 42010000 		.long	.LASF20
 1272 00df 0A       		.byte	0xa
 1273 00e0 1A       		.byte	0x1a
 1274 00e1 14       		.byte	0x14
 1275 00e2 A1000000 		.long	0xa1
 1276 00e6 01       		.uleb128 0x1
 1277 00e7 2E050000 		.long	.LASF21
 1278 00eb 0A       		.byte	0xa
 1279 00ec 1B       		.byte	0x1b
 1280 00ed 14       		.byte	0x14
 1281 00ee AD000000 		.long	0xad
 1282 00f2 19       		.uleb128 0x19
 1283 00f3 E6000000 		.long	0xe6
 1284 00f7 01       		.uleb128 0x1
 1285 00f8 88000000 		.long	.LASF22
 1286 00fc 0B       		.byte	0xb
 1287 00fd 37       		.byte	0x37
 1288 00fe 1D       		.byte	0x1d
 1289 00ff DA000000 		.long	0xda
 1290 0103 01       		.uleb128 0x1
 1291 0104 F2030000 		.long	.LASF23
 1292 0108 0B       		.byte	0xb
 1293 0109 38       		.byte	0x38
 1294 010a 1D       		.byte	0x1d
 1295 010b CE000000 		.long	0xce
 1296 010f 01       		.uleb128 0x1
 1297 0110 23030000 		.long	.LASF24
 1298 0114 0B       		.byte	0xb
 1299 0115 39       		.byte	0x39
 1300 0116 1D       		.byte	0x1d
 1301 0117 CE000000 		.long	0xce
 1302 011b 01       		.uleb128 0x1
 1303 011c A4050000 		.long	.LASF25
 1304 0120 0B       		.byte	0xb
 1305 0121 3A       		.byte	0x3a
 1306 0122 1D       		.byte	0x1d
 1307 0123 CE000000 		.long	0xce
 1308 0127 01       		.uleb128 0x1
 1309 0128 6C010000 		.long	.LASF26
 1310 012c 0B       		.byte	0xb
 1311 012d 3C       		.byte	0x3c
 1312 012e 1D       		.byte	0x1d
 1313 012f DA000000 		.long	0xda
 1314 0133 01       		.uleb128 0x1
 1315 0134 6B030000 		.long	.LASF27
 1316 0138 0B       		.byte	0xb
 1317 0139 3D       		.byte	0x3d
 1318 013a 1D       		.byte	0x1d
 1319 013b C2000000 		.long	0xc2
GAS LISTING /tmp/ccZnfTtS.s 			page 25


 1320 013f 01       		.uleb128 0x1
 1321 0140 53010000 		.long	.LASF28
 1322 0144 0B       		.byte	0xb
 1323 0145 3F       		.byte	0x3f
 1324 0146 1D       		.byte	0x1d
 1325 0147 DA000000 		.long	0xda
 1326 014b 01       		.uleb128 0x1
 1327 014c B2010000 		.long	.LASF29
 1328 0150 0B       		.byte	0xb
 1329 0151 41       		.byte	0x41
 1330 0152 1D       		.byte	0x1d
 1331 0153 C2000000 		.long	0xc2
 1332 0157 01       		.uleb128 0x1
 1333 0158 1E070000 		.long	.LASF30
 1334 015c 0C       		.byte	0xc
 1335 015d 80       		.byte	0x80
 1336 015e 12       		.byte	0x12
 1337 015f 26000000 		.long	0x26
 1338 0163 01       		.uleb128 0x1
 1339 0164 06020000 		.long	.LASF31
 1340 0168 0C       		.byte	0xc
 1341 0169 85       		.byte	0x85
 1342 016a 1A       		.byte	0x1a
 1343 016b 6F010000 		.long	0x16f
 1344 016f 05       		.uleb128 0x5
 1345 0170 44030000 		.long	.LASF48
 1346 0174 50       		.byte	0x50
 1347 0175 0D       		.byte	0xd
 1348 0176 A9       		.byte	0xa9
 1349 0177 08       		.byte	0x8
 1350 0178 64020000 		.long	0x264
 1351 017c 0A       		.uleb128 0xa
 1352 017d 68647200 		.string	"hdr"
 1353 0181 0D       		.byte	0xd
 1354 0182 BA       		.byte	0xba
 1355 0183 05       		.byte	0x5
 1356 0184 B4050000 		.long	0x5b4
 1357 0188 00       		.byte	0
 1358 0189 0A       		.uleb128 0xa
 1359 018a 63747800 		.string	"ctx"
 1360 018e 0D       		.byte	0xd
 1361 018f BE       		.byte	0xbe
 1362 0190 21       		.byte	0x21
 1363 0191 EC040000 		.long	0x4ec
 1364 0195 0C       		.byte	0xc
 1365 0196 02       		.uleb128 0x2
 1366 0197 DC010000 		.long	.LASF32
 1367 019b 0D       		.byte	0xd
 1368 019c C2       		.byte	0xc2
 1369 019d 22       		.byte	0x22
 1370 019e B3060000 		.long	0x6b3
 1371 01a2 10       		.byte	0x10
 1372 01a3 02       		.uleb128 0x2
 1373 01a4 1C030000 		.long	.LASF33
 1374 01a8 0D       		.byte	0xd
 1375 01a9 C8       		.byte	0xc8
 1376 01aa 22       		.byte	0x22
GAS LISTING /tmp/ccZnfTtS.s 			page 26


 1377 01ab B8060000 		.long	0x6b8
 1378 01af 14       		.byte	0x14
 1379 01b0 02       		.uleb128 0x2
 1380 01b1 01050000 		.long	.LASF34
 1381 01b5 0D       		.byte	0xd
 1382 01b6 CD       		.byte	0xcd
 1383 01b7 21       		.byte	0x21
 1384 01b8 B8060000 		.long	0x6b8
 1385 01bc 18       		.byte	0x18
 1386 01bd 02       		.uleb128 0x2
 1387 01be 97060000 		.long	.LASF35
 1388 01c2 0D       		.byte	0xd
 1389 01c3 D1       		.byte	0xd1
 1390 01c4 21       		.byte	0x21
 1391 01c5 0F010000 		.long	0x10f
 1392 01c9 1C       		.byte	0x1c
 1393 01ca 02       		.uleb128 0x2
 1394 01cb 35000000 		.long	.LASF36
 1395 01cf 0D       		.byte	0xd
 1396 01d0 D5       		.byte	0xd5
 1397 01d1 21       		.byte	0x21
 1398 01d2 03010000 		.long	0x103
 1399 01d6 1D       		.byte	0x1d
 1400 01d7 02       		.uleb128 0x2
 1401 01d8 A3000000 		.long	.LASF37
 1402 01dc 0D       		.byte	0xd
 1403 01dd DA       		.byte	0xda
 1404 01de 21       		.byte	0x21
 1405 01df 1B010000 		.long	0x11b
 1406 01e3 1E       		.byte	0x1e
 1407 01e4 02       		.uleb128 0x2
 1408 01e5 6D050000 		.long	.LASF38
 1409 01e9 0D       		.byte	0xd
 1410 01ea DE       		.byte	0xde
 1411 01eb 22       		.byte	0x22
 1412 01ec 3B000000 		.long	0x3b
 1413 01f0 20       		.byte	0x20
 1414 01f1 02       		.uleb128 0x2
 1415 01f2 2C030000 		.long	.LASF39
 1416 01f6 0D       		.byte	0xd
 1417 01f7 E2       		.byte	0xe2
 1418 01f8 21       		.byte	0x21
 1419 01f9 95030000 		.long	0x395
 1420 01fd 24       		.byte	0x24
 1421 01fe 02       		.uleb128 0x2
 1422 01ff 21000000 		.long	.LASF40
 1423 0203 0D       		.byte	0xd
 1424 0204 E8       		.byte	0xe8
 1425 0205 21       		.byte	0x21
 1426 0206 98050000 		.long	0x598
 1427 020a 2C       		.byte	0x2c
 1428 020b 02       		.uleb128 0x2
 1429 020c 3D020000 		.long	.LASF41
 1430 0210 0D       		.byte	0xd
 1431 0211 EE       		.byte	0xee
 1432 0212 22       		.byte	0x22
 1433 0213 C0000000 		.long	0xc0
GAS LISTING /tmp/ccZnfTtS.s 			page 27


 1434 0217 30       		.byte	0x30
 1435 0218 20       		.uleb128 0x20
 1436 0219 7500     		.string	"u"
 1437 021b 3F01     		.value	0x13f
 1438 021d DC050000 		.long	0x5dc
 1439 0221 34       		.byte	0x34
 1440 0222 03       		.uleb128 0x3
 1441 0223 46060000 		.long	.LASF42
 1442 0227 4401     		.value	0x144
 1443 0229 21       		.byte	0x21
 1444 022a 69030000 		.long	0x369
 1445 022e 38       		.byte	0x38
 1446 022f 03       		.uleb128 0x3
 1447 0230 3B030000 		.long	.LASF43
 1448 0234 4A01     		.value	0x14a
 1449 0236 21       		.byte	0x21
 1450 0237 95030000 		.long	0x395
 1451 023b 3C       		.byte	0x3c
 1452 023c 03       		.uleb128 0x3
 1453 023d 63000000 		.long	.LASF44
 1454 0241 5001     		.value	0x150
 1455 0243 21       		.byte	0x21
 1456 0244 3F010000 		.long	0x13f
 1457 0248 44       		.byte	0x44
 1458 0249 03       		.uleb128 0x3
 1459 024a E2010000 		.long	.LASF45
 1460 024e 5701     		.value	0x157
 1461 0250 22       		.byte	0x22
 1462 0251 AE060000 		.long	0x6ae
 1463 0255 48       		.byte	0x48
 1464 0256 03       		.uleb128 0x3
 1465 0257 45000000 		.long	.LASF46
 1466 025b 5B01     		.value	0x15b
 1467 025d 21       		.byte	0x21
 1468 025e 27010000 		.long	0x127
 1469 0262 4C       		.byte	0x4c
 1470 0263 00       		.byte	0
 1471 0264 01       		.uleb128 0x1
 1472 0265 9D060000 		.long	.LASF47
 1473 0269 0C       		.byte	0xc
 1474 026a 8A       		.byte	0x8a
 1475 026b 1F       		.byte	0x1f
 1476 026c 70020000 		.long	0x270
 1477 0270 1A       		.uleb128 0x1a
 1478 0271 82020000 		.long	.LASF49
 1479 0275 E0       		.byte	0xe0
 1480 0276 9701     		.value	0x197
 1481 0278 08       		.byte	0x8
 1482 0279 F2020000 		.long	0x2f2
 1483 027d 03       		.uleb128 0x3
 1484 027e 5D050000 		.long	.LASF50
 1485 0282 9B01     		.value	0x19b
 1486 0284 21       		.byte	0x21
 1487 0285 E5060000 		.long	0x6e5
 1488 0289 00       		.byte	0
 1489 028a 03       		.uleb128 0x3
 1490 028b B9000000 		.long	.LASF51
GAS LISTING /tmp/ccZnfTtS.s 			page 28


 1491 028f 9F01     		.value	0x19f
 1492 0291 21       		.byte	0x21
 1493 0292 54050000 		.long	0x554
 1494 0296 10       		.byte	0x10
 1495 0297 03       		.uleb128 0x3
 1496 0298 B2060000 		.long	.LASF52
 1497 029c A601     		.value	0x1a6
 1498 029e 21       		.byte	0x21
 1499 029f 7B050000 		.long	0x57b
 1500 02a3 28       		.byte	0x28
 1501 02a4 03       		.uleb128 0x3
 1502 02a5 91000000 		.long	.LASF53
 1503 02a9 AB01     		.value	0x1ab
 1504 02ab 21       		.byte	0x21
 1505 02ac 57010000 		.long	0x157
 1506 02b0 30       		.byte	0x30
 1507 02b1 03       		.uleb128 0x3
 1508 02b2 01020000 		.long	.LASF54
 1509 02b6 B101     		.value	0x1b1
 1510 02b8 21       		.byte	0x21
 1511 02b9 19030000 		.long	0x319
 1512 02bd 34       		.byte	0x34
 1513 02be 03       		.uleb128 0x3
 1514 02bf 23040000 		.long	.LASF55
 1515 02c3 B601     		.value	0x1b6
 1516 02c5 22       		.byte	0x22
 1517 02c6 4F070000 		.long	0x74f
 1518 02ca 38       		.byte	0x38
 1519 02cb 03       		.uleb128 0x3
 1520 02cc 02040000 		.long	.LASF56
 1521 02d0 BA01     		.value	0x1ba
 1522 02d2 21       		.byte	0x21
 1523 02d3 63010000 		.long	0x163
 1524 02d7 3C       		.byte	0x3c
 1525 02d8 03       		.uleb128 0x3
 1526 02d9 8C060000 		.long	.LASF57
 1527 02dd BF01     		.value	0x1bf
 1528 02df 21       		.byte	0x21
 1529 02e0 63010000 		.long	0x163
 1530 02e4 8C       		.byte	0x8c
 1531 02e5 20       		.uleb128 0x20
 1532 02e6 64626700 		.string	"dbg"
 1533 02ea C401     		.value	0x1c4
 1534 02ec 40030000 		.long	0x340
 1535 02f0 DC       		.byte	0xdc
 1536 02f1 00       		.byte	0
 1537 02f2 01       		.uleb128 0x1
 1538 02f3 EB020000 		.long	.LASF58
 1539 02f7 0E       		.byte	0xe
 1540 02f8 3F       		.byte	0x3f
 1541 02f9 12       		.byte	0x12
 1542 02fa DA000000 		.long	0xda
 1543 02fe 05       		.uleb128 0x5
 1544 02ff 57020000 		.long	.LASF59
 1545 0303 04       		.byte	0x4
 1546 0304 0E       		.byte	0xe
 1547 0305 44       		.byte	0x44
GAS LISTING /tmp/ccZnfTtS.s 			page 29


 1548 0306 10       		.byte	0x10
 1549 0307 19030000 		.long	0x319
 1550 030b 02       		.uleb128 0x2
 1551 030c 97030000 		.long	.LASF60
 1552 0310 0E       		.byte	0xe
 1553 0311 48       		.byte	0x48
 1554 0312 21       		.byte	0x21
 1555 0313 F2020000 		.long	0x2f2
 1556 0317 00       		.byte	0
 1557 0318 00       		.byte	0
 1558 0319 01       		.uleb128 0x1
 1559 031a EE050000 		.long	.LASF61
 1560 031e 0E       		.byte	0xe
 1561 031f 49       		.byte	0x49
 1562 0320 03       		.byte	0x3
 1563 0321 FE020000 		.long	0x2fe
 1564 0325 05       		.uleb128 0x5
 1565 0326 0E010000 		.long	.LASF62
 1566 032a 04       		.byte	0x4
 1567 032b 0F       		.byte	0xf
 1568 032c 3E       		.byte	0x3e
 1569 032d 10       		.byte	0x10
 1570 032e 40030000 		.long	0x340
 1571 0332 02       		.uleb128 0x2
 1572 0333 D9030000 		.long	.LASF63
 1573 0337 0F       		.byte	0xf
 1574 0338 46       		.byte	0x46
 1575 0339 24       		.byte	0x24
 1576 033a 40000000 		.long	0x40
 1577 033e 00       		.byte	0
 1578 033f 00       		.byte	0
 1579 0340 01       		.uleb128 0x1
 1580 0341 4E030000 		.long	.LASF64
 1581 0345 0F       		.byte	0xf
 1582 0346 51       		.byte	0x51
 1583 0347 03       		.byte	0x3
 1584 0348 25030000 		.long	0x325
 1585 034c 01       		.uleb128 0x1
 1586 034d 3B000000 		.long	.LASF65
 1587 0351 10       		.byte	0x10
 1588 0352 6D       		.byte	0x6d
 1589 0353 12       		.byte	0x12
 1590 0354 DA000000 		.long	0xda
 1591 0358 19       		.uleb128 0x19
 1592 0359 4C030000 		.long	0x34c
 1593 035d 01       		.uleb128 0x1
 1594 035e C0030000 		.long	.LASF66
 1595 0362 10       		.byte	0x10
 1596 0363 79       		.byte	0x79
 1597 0364 12       		.byte	0x12
 1598 0365 DA000000 		.long	0xda
 1599 0369 01       		.uleb128 0x1
 1600 036a 19040000 		.long	.LASF67
 1601 036e 02       		.byte	0x2
 1602 036f 32       		.byte	0x32
 1603 0370 18       		.byte	0x18
 1604 0371 75030000 		.long	0x375
GAS LISTING /tmp/ccZnfTtS.s 			page 30


 1605 0375 05       		.uleb128 0x5
 1606 0376 DB000000 		.long	.LASF68
 1607 037a 04       		.byte	0x4
 1608 037b 02       		.byte	0x2
 1609 037c 38       		.byte	0x38
 1610 037d 08       		.byte	0x8
 1611 037e 90030000 		.long	0x390
 1612 0382 02       		.uleb128 0x2
 1613 0383 79000000 		.long	.LASF69
 1614 0387 02       		.byte	0x2
 1615 0388 39       		.byte	0x39
 1616 0389 1A       		.byte	0x1a
 1617 038a 90030000 		.long	0x390
 1618 038e 00       		.byte	0
 1619 038f 00       		.byte	0
 1620 0390 04       		.uleb128 0x4
 1621 0391 69030000 		.long	0x369
 1622 0395 01       		.uleb128 0x1
 1623 0396 CE030000 		.long	.LASF70
 1624 039a 02       		.byte	0x2
 1625 039b 3F       		.byte	0x3f
 1626 039c 19       		.byte	0x19
 1627 039d A6030000 		.long	0x3a6
 1628 03a1 0B       		.uleb128 0xb
 1629 03a2 95030000 		.long	0x395
 1630 03a6 05       		.uleb128 0x5
 1631 03a7 0E060000 		.long	.LASF71
 1632 03ab 08       		.byte	0x8
 1633 03ac 02       		.byte	0x2
 1634 03ad 45       		.byte	0x45
 1635 03ae 08       		.byte	0x8
 1636 03af CE030000 		.long	0x3ce
 1637 03b3 02       		.uleb128 0x2
 1638 03b4 79000000 		.long	.LASF69
 1639 03b8 02       		.byte	0x2
 1640 03b9 46       		.byte	0x46
 1641 03ba 1A       		.byte	0x1a
 1642 03bb CE030000 		.long	0x3ce
 1643 03bf 00       		.byte	0
 1644 03c0 02       		.uleb128 0x2
 1645 03c1 FD000000 		.long	.LASF72
 1646 03c5 02       		.byte	0x2
 1647 03c6 47       		.byte	0x47
 1648 03c7 1A       		.byte	0x1a
 1649 03c8 CE030000 		.long	0x3ce
 1650 03cc 04       		.byte	0x4
 1651 03cd 00       		.byte	0
 1652 03ce 04       		.uleb128 0x4
 1653 03cf 95030000 		.long	0x395
 1654 03d3 01       		.uleb128 0x1
 1655 03d4 16020000 		.long	.LASF73
 1656 03d8 02       		.byte	0x2
 1657 03d9 4E       		.byte	0x4e
 1658 03da 22       		.byte	0x22
 1659 03db DF030000 		.long	0x3df
 1660 03df 05       		.uleb128 0x5
 1661 03e0 FC050000 		.long	.LASF74
GAS LISTING /tmp/ccZnfTtS.s 			page 31


 1662 03e4 0C       		.byte	0xc
 1663 03e5 02       		.byte	0x2
 1664 03e6 55       		.byte	0x55
 1665 03e7 08       		.byte	0x8
 1666 03e8 14040000 		.long	0x414
 1667 03ec 02       		.uleb128 0x2
 1668 03ed 79000000 		.long	.LASF69
 1669 03f1 02       		.byte	0x2
 1670 03f2 56       		.byte	0x56
 1671 03f3 1A       		.byte	0x1a
 1672 03f4 14040000 		.long	0x414
 1673 03f8 00       		.byte	0
 1674 03f9 02       		.uleb128 0x2
 1675 03fa FD000000 		.long	.LASF72
 1676 03fe 02       		.byte	0x2
 1677 03ff 57       		.byte	0x57
 1678 0400 1A       		.byte	0x1a
 1679 0401 14040000 		.long	0x414
 1680 0405 04       		.byte	0x4
 1681 0406 02       		.uleb128 0x2
 1682 0407 BC020000 		.long	.LASF75
 1683 040b 02       		.byte	0x2
 1684 040c 58       		.byte	0x58
 1685 040d 19       		.byte	0x19
 1686 040e 27010000 		.long	0x127
 1687 0412 08       		.byte	0x8
 1688 0413 00       		.byte	0
 1689 0414 04       		.uleb128 0x4
 1690 0415 D3030000 		.long	0x3d3
 1691 0419 01       		.uleb128 0x1
 1692 041a DB020000 		.long	.LASF76
 1693 041e 02       		.byte	0x2
 1694 041f 5F       		.byte	0x5f
 1695 0420 1E       		.byte	0x1e
 1696 0421 25040000 		.long	0x425
 1697 0425 05       		.uleb128 0x5
 1698 0426 34010000 		.long	.LASF77
 1699 042a 0C       		.byte	0xc
 1700 042b 02       		.byte	0x2
 1701 042c 64       		.byte	0x64
 1702 042d 08       		.byte	0x8
 1703 042e 5A040000 		.long	0x45a
 1704 0432 02       		.uleb128 0x2
 1705 0433 79000000 		.long	.LASF69
 1706 0437 02       		.byte	0x2
 1707 0438 65       		.byte	0x65
 1708 0439 1A       		.byte	0x1a
 1709 043a 5A040000 		.long	0x45a
 1710 043e 00       		.byte	0
 1711 043f 02       		.uleb128 0x2
 1712 0440 FD000000 		.long	.LASF72
 1713 0444 02       		.byte	0x2
 1714 0445 66       		.byte	0x66
 1715 0446 1A       		.byte	0x1a
 1716 0447 5A040000 		.long	0x45a
 1717 044b 04       		.byte	0x4
 1718 044c 02       		.uleb128 0x2
GAS LISTING /tmp/ccZnfTtS.s 			page 32


 1719 044d CC060000 		.long	.LASF78
 1720 0451 02       		.byte	0x2
 1721 0452 67       		.byte	0x67
 1722 0453 19       		.byte	0x19
 1723 0454 5D030000 		.long	0x35d
 1724 0458 08       		.byte	0x8
 1725 0459 00       		.byte	0
 1726 045a 04       		.uleb128 0x4
 1727 045b 19040000 		.long	0x419
 1728 045f 2F       		.uleb128 0x2f
 1729 0460 10       		.byte	0x10
 1730 0461 04       		.byte	0x4
 1731 0462 87       		.byte	0x87
 1732 0463 09       		.byte	0x9
 1733 0464 74040000 		.long	0x474
 1734 0468 0A       		.uleb128 0xa
 1735 0469 6100     		.string	"a"
 1736 046b 04       		.byte	0x4
 1737 046c 88       		.byte	0x88
 1738 046d 0B       		.byte	0xb
 1739 046e 74040000 		.long	0x474
 1740 0472 00       		.byte	0
 1741 0473 00       		.byte	0
 1742 0474 10       		.uleb128 0x10
 1743 0475 CE000000 		.long	0xce
 1744 0479 84040000 		.long	0x484
 1745 047d 11       		.uleb128 0x11
 1746 047e 26000000 		.long	0x26
 1747 0482 0F       		.byte	0xf
 1748 0483 00       		.byte	0
 1749 0484 30       		.uleb128 0x30
 1750 0485 B8010000 		.long	.LASF148
 1751 0489 04       		.byte	0x4
 1752 048a 89       		.byte	0x89
 1753 048b 03       		.byte	0x3
 1754 048c 5F040000 		.long	0x45f
 1755 0490 10       		.byte	0x10
 1756 0491 01       		.uleb128 0x1
 1757 0492 AB060000 		.long	.LASF79
 1758 0496 04       		.byte	0x4
 1759 0497 8E       		.byte	0x8e
 1760 0498 0F       		.byte	0xf
 1761 0499 C0000000 		.long	0xc0
 1762 049d 05       		.uleb128 0x5
 1763 049e 3D040000 		.long	.LASF80
 1764 04a2 14       		.byte	0x14
 1765 04a3 04       		.byte	0x4
 1766 04a4 9D       		.byte	0x9d
 1767 04a5 08       		.byte	0x8
 1768 04a6 EC040000 		.long	0x4ec
 1769 04aa 0A       		.uleb128 0xa
 1770 04ab 65627800 		.string	"ebx"
 1771 04af 04       		.byte	0x4
 1772 04b0 9E       		.byte	0x9e
 1773 04b1 0B       		.byte	0xb
 1774 04b2 91040000 		.long	0x491
 1775 04b6 00       		.byte	0
GAS LISTING /tmp/ccZnfTtS.s 			page 33


 1776 04b7 0A       		.uleb128 0xa
 1777 04b8 65646900 		.string	"edi"
 1778 04bc 04       		.byte	0x4
 1779 04bd 9F       		.byte	0x9f
 1780 04be 0B       		.byte	0xb
 1781 04bf 91040000 		.long	0x491
 1782 04c3 04       		.byte	0x4
 1783 04c4 0A       		.uleb128 0xa
 1784 04c5 65736900 		.string	"esi"
 1785 04c9 04       		.byte	0x4
 1786 04ca A0       		.byte	0xa0
 1787 04cb 0B       		.byte	0xb
 1788 04cc 91040000 		.long	0x491
 1789 04d0 08       		.byte	0x8
 1790 04d1 0A       		.uleb128 0xa
 1791 04d2 65627000 		.string	"ebp"
 1792 04d6 04       		.byte	0x4
 1793 04d7 A1       		.byte	0xa1
 1794 04d8 0B       		.byte	0xb
 1795 04d9 91040000 		.long	0x491
 1796 04dd 0C       		.byte	0xc
 1797 04de 0A       		.uleb128 0xa
 1798 04df 65697000 		.string	"eip"
 1799 04e3 04       		.byte	0x4
 1800 04e4 A2       		.byte	0xa2
 1801 04e5 0B       		.byte	0xb
 1802 04e6 91040000 		.long	0x491
 1803 04ea 10       		.byte	0x10
 1804 04eb 00       		.byte	0
 1805 04ec 05       		.uleb128 0x5
 1806 04ed C0000000 		.long	.LASF81
 1807 04f1 04       		.byte	0x4
 1808 04f2 04       		.byte	0x4
 1809 04f3 AA       		.byte	0xaa
 1810 04f4 08       		.byte	0x8
 1811 04f5 06050000 		.long	0x506
 1812 04f9 0A       		.uleb128 0xa
 1813 04fa 737000   		.string	"sp"
 1814 04fd 04       		.byte	0x4
 1815 04fe AB       		.byte	0xab
 1816 04ff 17       		.byte	0x17
 1817 0500 06050000 		.long	0x506
 1818 0504 00       		.byte	0
 1819 0505 00       		.byte	0
 1820 0506 04       		.uleb128 0x4
 1821 0507 9D040000 		.long	0x49d
 1822 050b 07       		.uleb128 0x7
 1823 050c 01       		.byte	0x1
 1824 050d 02       		.byte	0x2
 1825 050e 2A020000 		.long	.LASF82
 1826 0512 31       		.uleb128 0x31
 1827 0513 30020000 		.long	.LASF114
 1828 0517 04       		.byte	0x4
 1829 0518 1C01     		.value	0x11c
 1830 051a 11       		.byte	0x11
 1831 051b F7000000 		.long	0xf7
 1832 051f 05       		.uleb128 0x5
GAS LISTING /tmp/ccZnfTtS.s 			page 34


 1833 0520 EA010000 		.long	.LASF83
 1834 0524 18       		.byte	0x18
 1835 0525 0D       		.byte	0xd
 1836 0526 64       		.byte	0x64
 1837 0527 10       		.byte	0x10
 1838 0528 54050000 		.long	0x554
 1839 052c 02       		.uleb128 0x2
 1840 052d 28050000 		.long	.LASF84
 1841 0531 0D       		.byte	0xd
 1842 0532 68       		.byte	0x68
 1843 0533 21       		.byte	0x21
 1844 0534 19040000 		.long	0x419
 1845 0538 00       		.byte	0
 1846 0539 02       		.uleb128 0x2
 1847 053a FA030000 		.long	.LASF85
 1848 053e 0D       		.byte	0xd
 1849 053f 6D       		.byte	0x6d
 1850 0540 21       		.byte	0x21
 1851 0541 58030000 		.long	0x358
 1852 0545 0C       		.byte	0xc
 1853 0546 02       		.uleb128 0x2
 1854 0547 EC000000 		.long	.LASF86
 1855 054b 0D       		.byte	0xd
 1856 054c 81       		.byte	0x81
 1857 054d 21       		.byte	0x21
 1858 054e F2000000 		.long	0xf2
 1859 0552 10       		.byte	0x10
 1860 0553 00       		.byte	0
 1861 0554 01       		.uleb128 0x1
 1862 0555 4E060000 		.long	.LASF87
 1863 0559 0D       		.byte	0xd
 1864 055a 83       		.byte	0x83
 1865 055b 03       		.byte	0x3
 1866 055c 1F050000 		.long	0x51f
 1867 0560 05       		.uleb128 0x5
 1868 0561 29000000 		.long	.LASF88
 1869 0565 08       		.byte	0x8
 1870 0566 0D       		.byte	0xd
 1871 0567 88       		.byte	0x88
 1872 0568 10       		.byte	0x10
 1873 0569 7B050000 		.long	0x57b
 1874 056d 02       		.uleb128 0x2
 1875 056e E0050000 		.long	.LASF89
 1876 0572 0D       		.byte	0xd
 1877 0573 8C       		.byte	0x8c
 1878 0574 21       		.byte	0x21
 1879 0575 95030000 		.long	0x395
 1880 0579 00       		.byte	0
 1881 057a 00       		.byte	0
 1882 057b 01       		.uleb128 0x1
 1883 057c 71030000 		.long	.LASF90
 1884 0580 0D       		.byte	0xd
 1885 0581 8D       		.byte	0x8d
 1886 0582 03       		.byte	0x3
 1887 0583 60050000 		.long	0x560
 1888 0587 01       		.uleb128 0x1
 1889 0588 09030000 		.long	.LASF91
GAS LISTING /tmp/ccZnfTtS.s 			page 35


 1890 058c 0D       		.byte	0xd
 1891 058d 92       		.byte	0x92
 1892 058e 14       		.byte	0x14
 1893 058f 93050000 		.long	0x593
 1894 0593 04       		.uleb128 0x4
 1895 0594 63010000 		.long	0x163
 1896 0598 01       		.uleb128 0x1
 1897 0599 9C030000 		.long	.LASF92
 1898 059d 0D       		.byte	0xd
 1899 059e A1       		.byte	0xa1
 1900 059f 10       		.byte	0x10
 1901 05a0 A4050000 		.long	0x5a4
 1902 05a4 04       		.uleb128 0x4
 1903 05a5 A9050000 		.long	0x5a9
 1904 05a9 32       		.uleb128 0x32
 1905 05aa B4050000 		.long	0x5b4
 1906 05ae 0C       		.uleb128 0xc
 1907 05af 93050000 		.long	0x593
 1908 05b3 00       		.byte	0
 1909 05b4 33       		.uleb128 0x33
 1910 05b5 0C       		.byte	0xc
 1911 05b6 0D       		.byte	0xd
 1912 05b7 AD       		.byte	0xad
 1913 05b8 03       		.byte	0x3
 1914 05b9 DC050000 		.long	0x5dc
 1915 05bd 1B       		.uleb128 0x1b
 1916 05be 1E010000 		.long	.LASF93
 1917 05c2 B1       		.byte	0xb1
 1918 05c3 69030000 		.long	0x369
 1919 05c7 1B       		.uleb128 0x1b
 1920 05c8 E0050000 		.long	.LASF89
 1921 05cc B5       		.byte	0xb5
 1922 05cd 95030000 		.long	0x395
 1923 05d1 1B       		.uleb128 0x1b
 1924 05d2 AB010000 		.long	.LASF94
 1925 05d6 B9       		.byte	0xb9
 1926 05d7 D3030000 		.long	0x3d3
 1927 05db 00       		.byte	0
 1928 05dc 34       		.uleb128 0x34
 1929 05dd 04       		.byte	0x4
 1930 05de 0D       		.byte	0xd
 1931 05df 0201     		.value	0x102
 1932 05e1 03       		.byte	0x3
 1933 05e2 47060000 		.long	0x647
 1934 05e6 0D       		.uleb128 0xd
 1935 05e7 0F020000 		.long	.LASF95
 1936 05eb 0901     		.value	0x109
 1937 05ed 21       		.byte	0x21
 1938 05ee 33010000 		.long	0x133
 1939 05f2 0D       		.uleb128 0xd
 1940 05f3 15070000 		.long	.LASF96
 1941 05f7 1001     		.value	0x110
 1942 05f9 21       		.byte	0x21
 1943 05fa 33010000 		.long	0x133
 1944 05fe 0D       		.uleb128 0xd
 1945 05ff A8000000 		.long	.LASF97
 1946 0603 1701     		.value	0x117
GAS LISTING /tmp/ccZnfTtS.s 			page 36


 1947 0605 22       		.byte	0x22
 1948 0606 C0000000 		.long	0xc0
 1949 060a 0D       		.uleb128 0xd
 1950 060b BA060000 		.long	.LASF98
 1951 060f 1E01     		.value	0x11e
 1952 0611 22       		.byte	0x22
 1953 0612 47060000 		.long	0x647
 1954 0616 0D       		.uleb128 0xd
 1955 0617 4B010000 		.long	.LASF99
 1956 061b 2301     		.value	0x123
 1957 061d 21       		.byte	0x21
 1958 061e 33010000 		.long	0x133
 1959 0622 0D       		.uleb128 0xd
 1960 0623 F5050000 		.long	.LASF100
 1961 0627 2C01     		.value	0x12c
 1962 0629 22       		.byte	0x22
 1963 062a 74060000 		.long	0x674
 1964 062e 0D       		.uleb128 0xd
 1965 062f 0C000000 		.long	.LASF101
 1966 0633 3501     		.value	0x135
 1967 0635 22       		.byte	0x22
 1968 0636 AE060000 		.long	0x6ae
 1969 063a 0D       		.uleb128 0xd
 1970 063b F6000000 		.long	.LASF102
 1971 063f 3D01     		.value	0x13d
 1972 0641 21       		.byte	0x21
 1973 0642 3F010000 		.long	0x13f
 1974 0646 00       		.byte	0
 1975 0647 04       		.uleb128 0x4
 1976 0648 87050000 		.long	0x587
 1977 064c 05       		.uleb128 0x5
 1978 064d 5F010000 		.long	.LASF103
 1979 0651 0C       		.byte	0xc
 1980 0652 11       		.byte	0x11
 1981 0653 34       		.byte	0x34
 1982 0654 10       		.byte	0x10
 1983 0655 74060000 		.long	0x674
 1984 0659 02       		.uleb128 0x2
 1985 065a E0050000 		.long	.LASF89
 1986 065e 11       		.byte	0x11
 1987 065f 35       		.byte	0x35
 1988 0660 19       		.byte	0x19
 1989 0661 95030000 		.long	0x395
 1990 0665 00       		.byte	0
 1991 0666 0A       		.uleb128 0xa
 1992 0667 636E7400 		.string	"cnt"
 1993 066b 11       		.byte	0x11
 1994 066c 37       		.byte	0x37
 1995 066d 19       		.byte	0x19
 1996 066e 4B010000 		.long	0x14b
 1997 0672 08       		.byte	0x8
 1998 0673 00       		.byte	0
 1999 0674 04       		.uleb128 0x4
 2000 0675 4C060000 		.long	0x64c
 2001 0679 05       		.uleb128 0x5
 2002 067a E3000000 		.long	.LASF104
 2003 067e 10       		.byte	0x10
GAS LISTING /tmp/ccZnfTtS.s 			page 37


 2004 067f 06       		.byte	0x6
 2005 0680 39       		.byte	0x39
 2006 0681 08       		.byte	0x8
 2007 0682 AE060000 		.long	0x6ae
 2008 0686 02       		.uleb128 0x2
 2009 0687 E0050000 		.long	.LASF89
 2010 068b 06       		.byte	0x6
 2011 068c 3A       		.byte	0x3a
 2012 068d 19       		.byte	0x19
 2013 068e 95030000 		.long	0x395
 2014 0692 00       		.byte	0
 2015 0693 02       		.uleb128 0x2
 2016 0694 DC010000 		.long	.LASF32
 2017 0698 06       		.byte	0x6
 2018 0699 3C       		.byte	0x3c
 2019 069a 1A       		.byte	0x1a
 2020 069b 93050000 		.long	0x593
 2021 069f 08       		.byte	0x8
 2022 06a0 02       		.uleb128 0x2
 2023 06a1 79000000 		.long	.LASF69
 2024 06a5 06       		.byte	0x6
 2025 06a6 3E       		.byte	0x3e
 2026 06a7 1A       		.byte	0x1a
 2027 06a8 6D070000 		.long	0x76d
 2028 06ac 0C       		.byte	0xc
 2029 06ad 00       		.byte	0
 2030 06ae 04       		.uleb128 0x4
 2031 06af 79060000 		.long	0x679
 2032 06b3 04       		.uleb128 0x4
 2033 06b4 64020000 		.long	0x264
 2034 06b8 04       		.uleb128 0x4
 2035 06b9 84040000 		.long	0x484
 2036 06bd 1A       		.uleb128 0x1a
 2037 06be CD000000 		.long	.LASF105
 2038 06c2 10       		.byte	0x10
 2039 06c3 6C01     		.value	0x16c
 2040 06c5 10       		.byte	0x10
 2041 06c6 E5060000 		.long	0x6e5
 2042 06ca 03       		.uleb128 0x3
 2043 06cb AB010000 		.long	.LASF94
 2044 06cf 7101     		.value	0x171
 2045 06d1 21       		.byte	0x21
 2046 06d2 D3030000 		.long	0x3d3
 2047 06d6 00       		.byte	0
 2048 06d7 03       		.uleb128 0x3
 2049 06d8 F8060000 		.long	.LASF106
 2050 06dc 7501     		.value	0x175
 2051 06de 22       		.byte	0x22
 2052 06df 93050000 		.long	0x593
 2053 06e3 0C       		.byte	0xc
 2054 06e4 00       		.byte	0
 2055 06e5 21       		.uleb128 0x21
 2056 06e6 BE050000 		.long	.LASF107
 2057 06ea 7601     		.value	0x176
 2058 06ec BD060000 		.long	0x6bd
 2059 06f0 1A       		.uleb128 0x1a
 2060 06f1 12050000 		.long	.LASF108
GAS LISTING /tmp/ccZnfTtS.s 			page 38


 2061 06f5 14       		.byte	0x14
 2062 06f6 7B01     		.value	0x17b
 2063 06f8 10       		.byte	0x10
 2064 06f9 3F070000 		.long	0x73f
 2065 06fd 03       		.uleb128 0x3
 2066 06fe 6D050000 		.long	.LASF38
 2067 0702 7F01     		.value	0x17f
 2068 0704 22       		.byte	0x22
 2069 0705 3B000000 		.long	0x3b
 2070 0709 00       		.byte	0
 2071 070a 03       		.uleb128 0x3
 2072 070b 00000000 		.long	.LASF109
 2073 070f 8301     		.value	0x183
 2074 0711 22       		.byte	0x22
 2075 0712 B8060000 		.long	0x6b8
 2076 0716 04       		.byte	0x4
 2077 0717 03       		.uleb128 0x3
 2078 0718 07050000 		.long	.LASF110
 2079 071c 8701     		.value	0x187
 2080 071e 22       		.byte	0x22
 2081 071f B8060000 		.long	0x6b8
 2082 0723 08       		.byte	0x8
 2083 0724 03       		.uleb128 0x3
 2084 0725 E3030000 		.long	.LASF111
 2085 0729 8C01     		.value	0x18c
 2086 072b 22       		.byte	0x22
 2087 072c B8060000 		.long	0x6b8
 2088 0730 0C       		.byte	0xc
 2089 0731 03       		.uleb128 0x3
 2090 0732 89030000 		.long	.LASF112
 2091 0736 9001     		.value	0x190
 2092 0738 22       		.byte	0x22
 2093 0739 B8060000 		.long	0x6b8
 2094 073d 10       		.byte	0x10
 2095 073e 00       		.byte	0
 2096 073f 21       		.uleb128 0x21
 2097 0740 74010000 		.long	.LASF113
 2098 0744 9201     		.value	0x192
 2099 0746 F0060000 		.long	0x6f0
 2100 074a 0B       		.uleb128 0xb
 2101 074b 3F070000 		.long	0x73f
 2102 074f 04       		.uleb128 0x4
 2103 0750 4A070000 		.long	0x74a
 2104 0754 35       		.uleb128 0x35
 2105 0755 63683000 		.string	"ch0"
 2106 0759 03       		.byte	0x3
 2107 075a 4101     		.value	0x141
 2108 075c 16       		.byte	0x16
 2109 075d 64020000 		.long	0x264
 2110 0761 01       		.uleb128 0x1
 2111 0762 17060000 		.long	.LASF115
 2112 0766 06       		.byte	0x6
 2113 0767 34       		.byte	0x34
 2114 0768 19       		.byte	0x19
 2115 0769 79060000 		.long	0x679
 2116 076d 04       		.uleb128 0x4
 2117 076e 61070000 		.long	0x761
GAS LISTING /tmp/ccZnfTtS.s 			page 39


 2118 0772 05       		.uleb128 0x5
 2119 0773 44020000 		.long	.LASF116
 2120 0777 08       		.byte	0x8
 2121 0778 12       		.byte	0x12
 2122 0779 3B       		.byte	0x3b
 2123 077a 10       		.byte	0x10
 2124 077b 8D070000 		.long	0x78d
 2125 077f 02       		.uleb128 0x2
 2126 0780 E0050000 		.long	.LASF89
 2127 0784 12       		.byte	0x12
 2128 0785 3C       		.byte	0x3c
 2129 0786 19       		.byte	0x19
 2130 0787 95030000 		.long	0x395
 2131 078b 00       		.byte	0
 2132 078c 00       		.byte	0
 2133 078d 01       		.uleb128 0x1
 2134 078e 4E000000 		.long	.LASF117
 2135 0792 12       		.byte	0x12
 2136 0793 3E       		.byte	0x3e
 2137 0794 03       		.byte	0x3
 2138 0795 72070000 		.long	0x772
 2139 0799 22       		.uleb128 0x22
 2140 079a CB050000 		.long	.LASF121
 2141 079e 92       		.byte	0x92
 2142 079f 09       		.byte	0x9
 2143 07a0 33010000 		.long	0x133
 2144 07a4 B3070000 		.long	0x7b3
 2145 07a8 0C       		.uleb128 0xc
 2146 07a9 0F010000 		.long	0x10f
 2147 07ad 0C       		.uleb128 0xc
 2148 07ae 5D030000 		.long	0x35d
 2149 07b2 00       		.byte	0
 2150 07b3 16       		.uleb128 0x16
 2151 07b4 99050000 		.long	.LASF118
 2152 07b8 06       		.byte	0x6
 2153 07b9 69       		.byte	0x69
 2154 07ba C4070000 		.long	0x7c4
 2155 07be 0C       		.uleb128 0xc
 2156 07bf 6D070000 		.long	0x76d
 2157 07c3 00       		.byte	0
 2158 07c4 16       		.uleb128 0x16
 2159 07c5 72050000 		.long	.LASF119
 2160 07c9 07       		.byte	0x7
 2161 07ca 91       		.byte	0x91
 2162 07cb D5070000 		.long	0x7d5
 2163 07cf 0C       		.uleb128 0xc
 2164 07d0 0F010000 		.long	0x10f
 2165 07d4 00       		.byte	0
 2166 07d5 16       		.uleb128 0x16
 2167 07d6 80050000 		.long	.LASF120
 2168 07da 06       		.byte	0x6
 2169 07db 6D       		.byte	0x6d
 2170 07dc E6070000 		.long	0x7e6
 2171 07e0 0C       		.uleb128 0xc
 2172 07e1 6D070000 		.long	0x76d
 2173 07e5 00       		.byte	0
 2174 07e6 36       		.uleb128 0x36
GAS LISTING /tmp/ccZnfTtS.s 			page 40


 2175 07e7 71020000 		.long	.LASF149
 2176 07eb 07       		.byte	0x7
 2177 07ec 94       		.byte	0x94
 2178 07ed 08       		.byte	0x8
 2179 07ee 22       		.uleb128 0x22
 2180 07ef 02010000 		.long	.LASF122
 2181 07f3 90       		.byte	0x90
 2182 07f4 0D       		.byte	0xd
 2183 07f5 93050000 		.long	0x593
 2184 07f9 03080000 		.long	0x803
 2185 07fd 0C       		.uleb128 0xc
 2186 07fe 93050000 		.long	0x593
 2187 0802 00       		.byte	0
 2188 0803 16       		.uleb128 0x16
 2189 0804 7F060000 		.long	.LASF123
 2190 0808 07       		.byte	0x7
 2191 0809 93       		.byte	0x93
 2192 080a 19080000 		.long	0x819
 2193 080e 0C       		.uleb128 0xc
 2194 080f 93050000 		.long	0x593
 2195 0813 0C       		.uleb128 0xc
 2196 0814 33010000 		.long	0x133
 2197 0818 00       		.byte	0
 2198 0819 23       		.uleb128 0x23
 2199 081a E5060000 		.long	.LASF126
 2200 081e 4101     		.value	0x141
 2201 0820 33010000 		.long	0x133
 2202 0824 00000000 		.long	.LFB224
 2203 0828 85000000 		.long	.LFE224-.LFB224
 2204 082c 01       		.uleb128 0x1
 2205 082d 9C       		.byte	0x9c
 2206 082e 1A090000 		.long	0x91a
 2207 0832 24       		.uleb128 0x24
 2208 0833 637000   		.string	"cp"
 2209 0836 4101     		.value	0x141
 2210 0838 30       		.byte	0x30
 2211 0839 1A090000 		.long	0x91a
 2212 083d 02       		.uleb128 0x2
 2213 083e 91       		.byte	0x91
 2214 083f 00       		.sleb128 0
 2215 0840 25       		.uleb128 0x25
 2216 0841 64060000 		.long	.LASF124
 2217 0845 4101     		.value	0x141
 2218 0847 42       		.byte	0x42
 2219 0848 5D030000 		.long	0x35d
 2220 084c 02       		.uleb128 0x2
 2221 084d 91       		.byte	0x91
 2222 084e 04       		.sleb128 4
 2223 084f 37       		.uleb128 0x37
 2224 0850 6A020000 		.long	.LASF125
 2225 0854 01       		.byte	0x1
 2226 0855 4201     		.value	0x142
 2227 0857 0D       		.byte	0xd
 2228 0858 93050000 		.long	0x593
 2229 085c 0E000000 		.long	.LLST36
 2230 0860 0C000000 		.long	.LVUS36
 2231 0864 1C       		.uleb128 0x1c
GAS LISTING /tmp/ccZnfTtS.s 			page 41


 2232 0865 6D7000   		.string	"mp"
 2233 0868 4301     		.value	0x143
 2234 086a 0C       		.byte	0xc
 2235 086b 6D070000 		.long	0x76d
 2236 086f 19000000 		.long	.LLST37
 2237 0873 17000000 		.long	.LVUS37
 2238 0877 1C       		.uleb128 0x1c
 2239 0878 6D736700 		.string	"msg"
 2240 087c 4401     		.value	0x144
 2241 087e 09       		.byte	0x9
 2242 087f 33010000 		.long	0x133
 2243 0883 26000000 		.long	.LLST38
 2244 0887 22000000 		.long	.LVUS38
 2245 088b 0E       		.uleb128 0xe
 2246 088c 00070000 		.long	.LASF129
 2247 0890 2F090000 		.long	0x92f
 2248 0894 13       		.uleb128 0x13
 2249 0895 040F0000 		.long	0xf04
 2250 0899 00000000 		.long	.LBI177
 2251 089d 02       		.byte	.LVU273
 2252 089e BA000000 		.long	.LLRL39
 2253 08a2 01       		.byte	0x1
 2254 08a3 4201     		.value	0x142
 2255 08a5 16       		.byte	0x16
 2256 08a6 17       		.uleb128 0x17
 2257 08a7 F70E0000 		.long	0xef7
 2258 08ab 1F000000 		.long	.LBI181
 2259 08af 02       		.byte	.LVU280
 2260 08b0 1F000000 		.long	.LBB181
 2261 08b4 03000000 		.long	.LBE181-.LBB181
 2262 08b8 01       		.byte	0x1
 2263 08b9 4301     		.value	0x143
 2264 08bb 11       		.byte	0x11
 2265 08bc 26       		.uleb128 0x26
 2266 08bd 120F0000 		.long	0xf12
 2267 08c1 2B000000 		.long	.LBI183
 2268 08c5 01       		.byte	.LVU296
 2269 08c6 C6000000 		.long	.LLRL40
 2270 08ca 5001     		.value	0x150
 2271 08cc FE080000 		.long	0x8fe
 2272 08d0 06       		.uleb128 0x6
 2273 08d1 2A0F0000 		.long	0xf2a
 2274 08d5 39000000 		.long	.LLST41
 2275 08d9 37000000 		.long	.LVUS41
 2276 08dd 06       		.uleb128 0x6
 2277 08de 1F0F0000 		.long	0xf1f
 2278 08e2 44000000 		.long	.LLST42
 2279 08e6 42000000 		.long	.LVUS42
 2280 08ea 0F       		.uleb128 0xf
 2281 08eb C6000000 		.long	.LLRL40
 2282 08ef 14       		.uleb128 0x14
 2283 08f0 350F0000 		.long	0xf35
 2284 08f4 51000000 		.long	.LLST43
 2285 08f8 4D000000 		.long	.LVUS43
 2286 08fc 00       		.byte	0
 2287 08fd 00       		.byte	0
 2288 08fe 08       		.uleb128 0x8
GAS LISTING /tmp/ccZnfTtS.s 			page 42


 2289 08ff 28000000 		.long	.LVL50
 2290 0903 D5070000 		.long	0x7d5
 2291 0907 08       		.uleb128 0x8
 2292 0908 61000000 		.long	.LVL55
 2293 090c 99070000 		.long	0x799
 2294 0910 08       		.uleb128 0x8
 2295 0911 76000000 		.long	.LVL56
 2296 0915 B3070000 		.long	0x7b3
 2297 0919 00       		.byte	0
 2298 091a 04       		.uleb128 0x4
 2299 091b 8D070000 		.long	0x78d
 2300 091f 10       		.uleb128 0x10
 2301 0920 4C000000 		.long	0x4c
 2302 0924 2F090000 		.long	0x92f
 2303 0928 11       		.uleb128 0x11
 2304 0929 26000000 		.long	0x26
 2305 092d 12       		.byte	0x12
 2306 092e 00       		.byte	0
 2307 092f 0B       		.uleb128 0xb
 2308 0930 1F090000 		.long	0x91f
 2309 0934 23       		.uleb128 0x23
 2310 0935 F7020000 		.long	.LASF127
 2311 0939 1C01     		.value	0x11c
 2312 093b 33010000 		.long	0x133
 2313 093f 00000000 		.long	.LFB223
 2314 0943 32000000 		.long	.LFE223-.LFB223
 2315 0947 01       		.uleb128 0x1
 2316 0948 9C       		.byte	0x9c
 2317 0949 E0090000 		.long	0x9e0
 2318 094d 24       		.uleb128 0x24
 2319 094e 637000   		.string	"cp"
 2320 0951 1C01     		.value	0x11c
 2321 0953 2F       		.byte	0x2f
 2322 0954 1A090000 		.long	0x91a
 2323 0958 02       		.uleb128 0x2
 2324 0959 91       		.byte	0x91
 2325 095a 00       		.sleb128 0
 2326 095b 25       		.uleb128 0x25
 2327 095c 64060000 		.long	.LASF124
 2328 0960 1C01     		.value	0x11c
 2329 0962 41       		.byte	0x41
 2330 0963 5D030000 		.long	0x35d
 2331 0967 02       		.uleb128 0x2
 2332 0968 91       		.byte	0x91
 2333 0969 04       		.sleb128 4
 2334 096a 1C       		.uleb128 0x1c
 2335 096b 6D736700 		.string	"msg"
 2336 096f 1D01     		.value	0x11d
 2337 0971 09       		.byte	0x9
 2338 0972 33010000 		.long	0x133
 2339 0976 63000000 		.long	.LLST44
 2340 097a 61000000 		.long	.LVUS44
 2341 097e 26       		.uleb128 0x26
 2342 097f 570F0000 		.long	0xf57
 2343 0983 00000000 		.long	.LBI189
 2344 0987 03       		.byte	.LVU331
 2345 0988 D5000000 		.long	.LLRL45
GAS LISTING /tmp/ccZnfTtS.s 			page 43


 2346 098c 1F01     		.value	0x11f
 2347 098e A5090000 		.long	0x9a5
 2348 0992 13       		.uleb128 0x13
 2349 0993 670F0000 		.long	0xf67
 2350 0997 00000000 		.long	.LBI190
 2351 099b 05       		.byte	.LVU333
 2352 099c D5000000 		.long	.LLRL45
 2353 09a0 03       		.byte	0x3
 2354 09a1 9901     		.value	0x199
 2355 09a3 03       		.byte	0x3
 2356 09a4 00       		.byte	0
 2357 09a5 38       		.uleb128 0x38
 2358 09a6 410F0000 		.long	0xf41
 2359 09aa 27000000 		.long	.LBI195
 2360 09ae 01       		.byte	.LVU343
 2361 09af 27000000 		.long	.LBB195
 2362 09b3 06000000 		.long	.LBE195-.LBB195
 2363 09b7 01       		.byte	0x1
 2364 09b8 2101     		.value	0x121
 2365 09ba 03       		.byte	0x3
 2366 09bb D6090000 		.long	0x9d6
 2367 09bf 17       		.uleb128 0x17
 2368 09c0 5F0F0000 		.long	0xf5f
 2369 09c4 27000000 		.long	.LBI197
 2370 09c8 08       		.byte	.LVU350
 2371 09c9 27000000 		.long	.LBB197
 2372 09cd 06000000 		.long	.LBE197-.LBB197
 2373 09d1 03       		.byte	0x3
 2374 09d2 B201     		.value	0x1b2
 2375 09d4 03       		.byte	0x3
 2376 09d5 00       		.byte	0
 2377 09d6 08       		.uleb128 0x8
 2378 09d7 27000000 		.long	.LVL61
 2379 09db 19080000 		.long	0x819
 2380 09df 00       		.byte	0
 2381 09e0 27       		.uleb128 0x27
 2382 09e1 8D050000 		.long	.LASF128
 2383 09e5 E9       		.byte	0xe9
 2384 09e6 33010000 		.long	0x133
 2385 09ea 00000000 		.long	.LFB222
 2386 09ee 72000000 		.long	.LFE222-.LFB222
 2387 09f2 01       		.uleb128 0x1
 2388 09f3 9C       		.byte	0x9c
 2389 09f4 CB0A0000 		.long	0xacb
 2390 09f8 12       		.uleb128 0x12
 2391 09f9 637000   		.string	"cp"
 2392 09fc E9       		.byte	0xe9
 2393 09fd 29       		.byte	0x29
 2394 09fe 1A090000 		.long	0x91a
 2395 0a02 02       		.uleb128 0x2
 2396 0a03 91       		.byte	0x91
 2397 0a04 00       		.sleb128 0
 2398 0a05 39       		.uleb128 0x39
 2399 0a06 6A020000 		.long	.LASF125
 2400 0a0a 01       		.byte	0x1
 2401 0a0b EA       		.byte	0xea
 2402 0a0c 0D       		.byte	0xd
GAS LISTING /tmp/ccZnfTtS.s 			page 44


 2403 0a0d 93050000 		.long	0x593
 2404 0a11 6E000000 		.long	.LLST26
 2405 0a15 6C000000 		.long	.LVUS26
 2406 0a19 18       		.uleb128 0x18
 2407 0a1a 6D7000   		.string	"mp"
 2408 0a1d EB       		.byte	0xeb
 2409 0a1e 0C       		.byte	0xc
 2410 0a1f 6D070000 		.long	0x76d
 2411 0a23 79000000 		.long	.LLST27
 2412 0a27 77000000 		.long	.LVUS27
 2413 0a2b 18       		.uleb128 0x18
 2414 0a2c 6D736700 		.string	"msg"
 2415 0a30 EC       		.byte	0xec
 2416 0a31 09       		.byte	0x9
 2417 0a32 33010000 		.long	0x133
 2418 0a36 86000000 		.long	.LLST28
 2419 0a3a 82000000 		.long	.LVUS28
 2420 0a3e 0E       		.uleb128 0xe
 2421 0a3f 00070000 		.long	.LASF129
 2422 0a43 DB0A0000 		.long	0xadb
 2423 0a47 3A       		.uleb128 0x3a
 2424 0a48 040F0000 		.long	0xf04
 2425 0a4c 00000000 		.long	.LBI149
 2426 0a50 02       		.byte	.LVU192
 2427 0a51 93000000 		.long	.LLRL29
 2428 0a55 01       		.byte	0x1
 2429 0a56 EA       		.byte	0xea
 2430 0a57 16       		.byte	0x16
 2431 0a58 3B       		.uleb128 0x3b
 2432 0a59 F70E0000 		.long	0xef7
 2433 0a5d 1F000000 		.long	.LBI153
 2434 0a61 02       		.byte	.LVU199
 2435 0a62 1F000000 		.long	.LBB153
 2436 0a66 03000000 		.long	.LBE153-.LBB153
 2437 0a6a 01       		.byte	0x1
 2438 0a6b EB       		.byte	0xeb
 2439 0a6c 11       		.byte	0x11
 2440 0a6d 09       		.uleb128 0x9
 2441 0a6e 120F0000 		.long	0xf12
 2442 0a72 2B000000 		.long	.LBI155
 2443 0a76 01       		.byte	.LVU215
 2444 0a77 9F000000 		.long	.LLRL30
 2445 0a7b F8       		.byte	0xf8
 2446 0a7c 03       		.byte	0x3
 2447 0a7d AF0A0000 		.long	0xaaf
 2448 0a81 06       		.uleb128 0x6
 2449 0a82 2A0F0000 		.long	0xf2a
 2450 0a86 98000000 		.long	.LLST31
 2451 0a8a 96000000 		.long	.LVUS31
 2452 0a8e 06       		.uleb128 0x6
 2453 0a8f 1F0F0000 		.long	0xf1f
 2454 0a93 A3000000 		.long	.LLST32
 2455 0a97 A1000000 		.long	.LVUS32
 2456 0a9b 0F       		.uleb128 0xf
 2457 0a9c 9F000000 		.long	.LLRL30
 2458 0aa0 14       		.uleb128 0x14
 2459 0aa1 350F0000 		.long	0xf35
GAS LISTING /tmp/ccZnfTtS.s 			page 45


 2460 0aa5 B0000000 		.long	.LLST33
 2461 0aa9 AC000000 		.long	.LVUS33
 2462 0aad 00       		.byte	0
 2463 0aae 00       		.byte	0
 2464 0aaf 08       		.uleb128 0x8
 2465 0ab0 28000000 		.long	.LVL35
 2466 0ab4 D5070000 		.long	0x7d5
 2467 0ab8 08       		.uleb128 0x8
 2468 0ab9 5D000000 		.long	.LVL40
 2469 0abd C4070000 		.long	0x7c4
 2470 0ac1 08       		.uleb128 0x8
 2471 0ac2 68000000 		.long	.LVL42
 2472 0ac6 B3070000 		.long	0x7b3
 2473 0aca 00       		.byte	0
 2474 0acb 10       		.uleb128 0x10
 2475 0acc 4C000000 		.long	0x4c
 2476 0ad0 DB0A0000 		.long	0xadb
 2477 0ad4 11       		.uleb128 0x11
 2478 0ad5 26000000 		.long	0x26
 2479 0ad9 0B       		.byte	0xb
 2480 0ada 00       		.byte	0
 2481 0adb 0B       		.uleb128 0xb
 2482 0adc CB0A0000 		.long	0xacb
 2483 0ae0 27       		.uleb128 0x27
 2484 0ae1 89010000 		.long	.LASF130
 2485 0ae5 CF       		.byte	0xcf
 2486 0ae6 33010000 		.long	0x133
 2487 0aea 00000000 		.long	.LFB221
 2488 0aee 2E000000 		.long	.LFE221-.LFB221
 2489 0af2 01       		.uleb128 0x1
 2490 0af3 9C       		.byte	0x9c
 2491 0af4 770B0000 		.long	0xb77
 2492 0af8 12       		.uleb128 0x12
 2493 0af9 637000   		.string	"cp"
 2494 0afc CF       		.byte	0xcf
 2495 0afd 28       		.byte	0x28
 2496 0afe 1A090000 		.long	0x91a
 2497 0b02 02       		.uleb128 0x2
 2498 0b03 91       		.byte	0x91
 2499 0b04 00       		.sleb128 0
 2500 0b05 18       		.uleb128 0x18
 2501 0b06 6D736700 		.string	"msg"
 2502 0b0a D0       		.byte	0xd0
 2503 0b0b 09       		.byte	0x9
 2504 0b0c 33010000 		.long	0x133
 2505 0b10 C2000000 		.long	.LLST34
 2506 0b14 C0000000 		.long	.LVUS34
 2507 0b18 09       		.uleb128 0x9
 2508 0b19 570F0000 		.long	0xf57
 2509 0b1d 00000000 		.long	.LBI161
 2510 0b21 03       		.byte	.LVU247
 2511 0b22 AE000000 		.long	.LLRL35
 2512 0b26 D2       		.byte	0xd2
 2513 0b27 03       		.byte	0x3
 2514 0b28 3F0B0000 		.long	0xb3f
 2515 0b2c 13       		.uleb128 0x13
 2516 0b2d 670F0000 		.long	0xf67
GAS LISTING /tmp/ccZnfTtS.s 			page 46


 2517 0b31 00000000 		.long	.LBI162
 2518 0b35 05       		.byte	.LVU249
 2519 0b36 AE000000 		.long	.LLRL35
 2520 0b3a 03       		.byte	0x3
 2521 0b3b 9901     		.value	0x199
 2522 0b3d 03       		.byte	0x3
 2523 0b3e 00       		.byte	0
 2524 0b3f 28       		.uleb128 0x28
 2525 0b40 410F0000 		.long	0xf41
 2526 0b44 23000000 		.long	.LBI167
 2527 0b48 01       		.byte	.LVU259
 2528 0b49 23000000 		.long	.LBB167
 2529 0b4d 06000000 		.long	.LBE167-.LBB167
 2530 0b51 D4       		.byte	0xd4
 2531 0b52 6D0B0000 		.long	0xb6d
 2532 0b56 17       		.uleb128 0x17
 2533 0b57 5F0F0000 		.long	0xf5f
 2534 0b5b 23000000 		.long	.LBI169
 2535 0b5f 08       		.byte	.LVU266
 2536 0b60 23000000 		.long	.LBB169
 2537 0b64 06000000 		.long	.LBE169-.LBB169
 2538 0b68 03       		.byte	0x3
 2539 0b69 B201     		.value	0x1b2
 2540 0b6b 03       		.byte	0x3
 2541 0b6c 00       		.byte	0
 2542 0b6d 08       		.uleb128 0x8
 2543 0b6e 23000000 		.long	.LVL46
 2544 0b72 E0090000 		.long	0x9e0
 2545 0b76 00       		.byte	0
 2546 0b77 3C       		.uleb128 0x3c
 2547 0b78 A1020000 		.long	.LASF131
 2548 0b7c 01       		.byte	0x1
 2549 0b7d B1       		.byte	0xb1
 2550 0b7e 06       		.byte	0x6
 2551 0b7f 01       		.byte	0x1
 2552 0b80 990B0000 		.long	0xb99
 2553 0b84 1D       		.uleb128 0x1d
 2554 0b85 637000   		.string	"cp"
 2555 0b88 01       		.byte	0x1
 2556 0b89 B1       		.byte	0xb1
 2557 0b8a 2D       		.byte	0x2d
 2558 0b8b 1A090000 		.long	0x91a
 2559 0b8f 0E       		.uleb128 0xe
 2560 0b90 00070000 		.long	.LASF129
 2561 0b94 A90B0000 		.long	0xba9
 2562 0b98 00       		.byte	0
 2563 0b99 10       		.uleb128 0x10
 2564 0b9a 4C000000 		.long	0x4c
 2565 0b9e A90B0000 		.long	0xba9
 2566 0ba2 11       		.uleb128 0x11
 2567 0ba3 26000000 		.long	0x26
 2568 0ba7 10       		.byte	0x10
 2569 0ba8 00       		.byte	0
 2570 0ba9 0B       		.uleb128 0xb
 2571 0baa 990B0000 		.long	0xb99
 2572 0bae 15       		.uleb128 0x15
 2573 0baf 91020000 		.long	.LASF132
GAS LISTING /tmp/ccZnfTtS.s 			page 47


 2574 0bb3 9E       		.byte	0x9e
 2575 0bb4 00000000 		.long	.LFB219
 2576 0bb8 57000000 		.long	.LFE219-.LFB219
 2577 0bbc 01       		.uleb128 0x1
 2578 0bbd 9C       		.byte	0x9c
 2579 0bbe B50C0000 		.long	0xcb5
 2580 0bc2 12       		.uleb128 0x12
 2581 0bc3 637000   		.string	"cp"
 2582 0bc6 9E       		.byte	0x9e
 2583 0bc7 2C       		.byte	0x2c
 2584 0bc8 1A090000 		.long	0x91a
 2585 0bcc 02       		.uleb128 0x2
 2586 0bcd 91       		.byte	0x91
 2587 0bce 00       		.sleb128 0
 2588 0bcf 09       		.uleb128 0x9
 2589 0bd0 570F0000 		.long	0xf57
 2590 0bd4 00000000 		.long	.LBI107
 2591 0bd8 02       		.byte	.LVU98
 2592 0bd9 3C000000 		.long	.LLRL12
 2593 0bdd A0       		.byte	0xa0
 2594 0bde 03       		.byte	0x3
 2595 0bdf F60B0000 		.long	0xbf6
 2596 0be3 13       		.uleb128 0x13
 2597 0be4 670F0000 		.long	0xf67
 2598 0be8 00000000 		.long	.LBI108
 2599 0bec 04       		.byte	.LVU100
 2600 0bed 3C000000 		.long	.LLRL12
 2601 0bf1 03       		.byte	0x3
 2602 0bf2 9901     		.value	0x199
 2603 0bf4 03       		.byte	0x3
 2604 0bf5 00       		.byte	0
 2605 0bf6 09       		.uleb128 0x9
 2606 0bf7 770B0000 		.long	0xb77
 2607 0bfb 20000000 		.long	.LBI112
 2608 0bff 03       		.byte	.LVU109
 2609 0c00 48000000 		.long	.LLRL13
 2610 0c04 A1       		.byte	0xa1
 2611 0c05 03       		.byte	0x3
 2612 0c06 7E0C0000 		.long	0xc7e
 2613 0c0a 06       		.uleb128 0x6
 2614 0c0b 840B0000 		.long	0xb84
 2615 0c0f CD000000 		.long	.LLST14
 2616 0c13 CB000000 		.long	.LVUS14
 2617 0c17 0F       		.uleb128 0xf
 2618 0c18 48000000 		.long	.LLRL13
 2619 0c1c 09       		.uleb128 0x9
 2620 0c1d 960F0000 		.long	0xf96
 2621 0c21 20000000 		.long	.LBI114
 2622 0c25 0A       		.byte	.LVU116
 2623 0c26 54000000 		.long	.LLRL15
 2624 0c2a B9       		.byte	0xb9
 2625 0c2b 0A       		.byte	0xa
 2626 0c2c 3E0C0000 		.long	0xc3e
 2627 0c30 06       		.uleb128 0x6
 2628 0c31 A60F0000 		.long	0xfa6
 2629 0c35 DB000000 		.long	.LLST16
 2630 0c39 D7000000 		.long	.LVUS16
GAS LISTING /tmp/ccZnfTtS.s 			page 48


 2631 0c3d 00       		.byte	0
 2632 0c3e 09       		.uleb128 0x9
 2633 0c3f 6F0F0000 		.long	0xf6f
 2634 0c43 28000000 		.long	.LBI119
 2635 0c47 01       		.byte	.LVU121
 2636 0c48 63000000 		.long	.LLRL17
 2637 0c4c BA       		.byte	0xba
 2638 0c4d 11       		.byte	0x11
 2639 0c4e 730C0000 		.long	0xc73
 2640 0c52 06       		.uleb128 0x6
 2641 0c53 7F0F0000 		.long	0xf7f
 2642 0c57 EF000000 		.long	.LLST18
 2643 0c5b ED000000 		.long	.LVUS18
 2644 0c5f 0F       		.uleb128 0xf
 2645 0c60 63000000 		.long	.LLRL17
 2646 0c64 14       		.uleb128 0x14
 2647 0c65 8A0F0000 		.long	0xf8a
 2648 0c69 FB000000 		.long	.LLST19
 2649 0c6d F9000000 		.long	.LVUS19
 2650 0c71 00       		.byte	0
 2651 0c72 00       		.byte	0
 2652 0c73 08       		.uleb128 0x8
 2653 0c74 38000000 		.long	.LVL19
 2654 0c78 EE070000 		.long	0x7ee
 2655 0c7c 00       		.byte	0
 2656 0c7d 00       		.byte	0
 2657 0c7e 09       		.uleb128 0x9
 2658 0c7f 410F0000 		.long	0xf41
 2659 0c83 4D000000 		.long	.LBI127
 2660 0c87 01       		.byte	.LVU143
 2661 0c88 6F000000 		.long	.LLRL20
 2662 0c8c A3       		.byte	0xa3
 2663 0c8d 03       		.byte	0x3
 2664 0c8e AB0C0000 		.long	0xcab
 2665 0c92 0F       		.uleb128 0xf
 2666 0c93 6F000000 		.long	.LLRL20
 2667 0c97 13       		.uleb128 0x13
 2668 0c98 5F0F0000 		.long	0xf5f
 2669 0c9c 4D000000 		.long	.LBI129
 2670 0ca0 08       		.byte	.LVU150
 2671 0ca1 6F000000 		.long	.LLRL20
 2672 0ca5 03       		.byte	0x3
 2673 0ca6 B201     		.value	0x1b2
 2674 0ca8 03       		.byte	0x3
 2675 0ca9 00       		.byte	0
 2676 0caa 00       		.byte	0
 2677 0cab 08       		.uleb128 0x8
 2678 0cac 4D000000 		.long	.LVL23
 2679 0cb0 E6070000 		.long	0x7e6
 2680 0cb4 00       		.byte	0
 2681 0cb5 15       		.uleb128 0x15
 2682 0cb6 13000000 		.long	.LASF133
 2683 0cba 8B       		.byte	0x8b
 2684 0cbb 00000000 		.long	.LFB218
 2685 0cbf 38000000 		.long	.LFE218-.LFB218
 2686 0cc3 01       		.uleb128 0x1
 2687 0cc4 9C       		.byte	0x9c
GAS LISTING /tmp/ccZnfTtS.s 			page 49


 2688 0cc5 600D0000 		.long	0xd60
 2689 0cc9 12       		.uleb128 0x12
 2690 0cca 637000   		.string	"cp"
 2691 0ccd 8B       		.byte	0x8b
 2692 0cce 2A       		.byte	0x2a
 2693 0ccf 1A090000 		.long	0x91a
 2694 0cd3 02       		.uleb128 0x2
 2695 0cd4 91       		.byte	0x91
 2696 0cd5 00       		.sleb128 0
 2697 0cd6 0E       		.uleb128 0xe
 2698 0cd7 00070000 		.long	.LASF129
 2699 0cdb 700D0000 		.long	0xd70
 2700 0cdf 3D       		.uleb128 0x3d
 2701 0ce0 19000000 		.long	.LBB89
 2702 0ce4 1A000000 		.long	.LBE89-.LBB89
 2703 0ce8 3D0D0000 		.long	0xd3d
 2704 0cec 18       		.uleb128 0x18
 2705 0ced 747000   		.string	"tp"
 2706 0cf0 91       		.byte	0x91
 2707 0cf1 0F       		.byte	0xf
 2708 0cf2 93050000 		.long	0x593
 2709 0cf6 06010000 		.long	.LLST8
 2710 0cfa 04010000 		.long	.LVUS8
 2711 0cfe 09       		.uleb128 0x9
 2712 0cff 6F0F0000 		.long	0xf6f
 2713 0d03 19000000 		.long	.LBI90
 2714 0d07 01       		.byte	.LVU79
 2715 0d08 30000000 		.long	.LLRL9
 2716 0d0c 91       		.byte	0x91
 2717 0d0d 14       		.byte	0x14
 2718 0d0e 330D0000 		.long	0xd33
 2719 0d12 06       		.uleb128 0x6
 2720 0d13 7F0F0000 		.long	0xf7f
 2721 0d17 11010000 		.long	.LLST10
 2722 0d1b 0F010000 		.long	.LVUS10
 2723 0d1f 0F       		.uleb128 0xf
 2724 0d20 30000000 		.long	.LLRL9
 2725 0d24 14       		.uleb128 0x14
 2726 0d25 8A0F0000 		.long	0xf8a
 2727 0d29 1C010000 		.long	.LLST11
 2728 0d2d 1A010000 		.long	.LVUS11
 2729 0d31 00       		.byte	0
 2730 0d32 00       		.byte	0
 2731 0d33 08       		.uleb128 0x8
 2732 0d34 30000000 		.long	.LVL14
 2733 0d38 EE070000 		.long	0x7ee
 2734 0d3c 00       		.byte	0
 2735 0d3d 29       		.uleb128 0x29
 2736 0d3e 960F0000 		.long	0xf96
 2737 0d42 13000000 		.long	.LBI87
 2738 0d46 00       		.byte	.LVU73
 2739 0d47 13000000 		.long	.LBB87
 2740 0d4b 02000000 		.long	.LBE87-.LBB87
 2741 0d4f 90       		.byte	0x90
 2742 0d50 07       		.byte	0x7
 2743 0d51 06       		.uleb128 0x6
 2744 0d52 A60F0000 		.long	0xfa6
GAS LISTING /tmp/ccZnfTtS.s 			page 50


 2745 0d56 27010000 		.long	.LLST7
 2746 0d5a 25010000 		.long	.LVUS7
 2747 0d5e 00       		.byte	0
 2748 0d5f 00       		.byte	0
 2749 0d60 10       		.uleb128 0x10
 2750 0d61 4C000000 		.long	0x4c
 2751 0d65 700D0000 		.long	0xd70
 2752 0d69 11       		.uleb128 0x11
 2753 0d6a 26000000 		.long	0x26
 2754 0d6e 0D       		.byte	0xd
 2755 0d6f 00       		.byte	0
 2756 0d70 0B       		.uleb128 0xb
 2757 0d71 600D0000 		.long	0xd60
 2758 0d75 15       		.uleb128 0x15
 2759 0d76 7C030000 		.long	.LASF134
 2760 0d7a 75       		.byte	0x75
 2761 0d7b 00000000 		.long	.LFB217
 2762 0d7f 47000000 		.long	.LFE217-.LFB217
 2763 0d83 01       		.uleb128 0x1
 2764 0d84 9C       		.byte	0x9c
 2765 0d85 550E0000 		.long	0xe55
 2766 0d89 12       		.uleb128 0x12
 2767 0d8a 637000   		.string	"cp"
 2768 0d8d 75       		.byte	0x75
 2769 0d8e 29       		.byte	0x29
 2770 0d8f 1A090000 		.long	0x91a
 2771 0d93 02       		.uleb128 0x2
 2772 0d94 91       		.byte	0x91
 2773 0d95 00       		.sleb128 0
 2774 0d96 0E       		.uleb128 0xe
 2775 0d97 00070000 		.long	.LASF129
 2776 0d9b 650E0000 		.long	0xe65
 2777 0d9f 09       		.uleb128 0x9
 2778 0da0 570F0000 		.long	0xf57
 2779 0da4 00000000 		.long	.LBI69
 2780 0da8 05       		.byte	.LVU26
 2781 0da9 0C000000 		.long	.LLRL1
 2782 0dad 79       		.byte	0x79
 2783 0dae 03       		.byte	0x3
 2784 0daf C60D0000 		.long	0xdc6
 2785 0db3 13       		.uleb128 0x13
 2786 0db4 670F0000 		.long	0xf67
 2787 0db8 00000000 		.long	.LBI70
 2788 0dbc 07       		.byte	.LVU28
 2789 0dbd 0C000000 		.long	.LLRL1
 2790 0dc1 03       		.byte	0x3
 2791 0dc2 9901     		.value	0x199
 2792 0dc4 03       		.byte	0x3
 2793 0dc5 00       		.byte	0
 2794 0dc6 09       		.uleb128 0x9
 2795 0dc7 960F0000 		.long	0xf96
 2796 0dcb 22000000 		.long	.LBI74
 2797 0dcf 03       		.byte	.LVU37
 2798 0dd0 18000000 		.long	.LLRL2
 2799 0dd4 7A       		.byte	0x7a
 2800 0dd5 07       		.byte	0x7
 2801 0dd6 E80D0000 		.long	0xde8
GAS LISTING /tmp/ccZnfTtS.s 			page 51


 2802 0dda 06       		.uleb128 0x6
 2803 0ddb A60F0000 		.long	0xfa6
 2804 0ddf 32010000 		.long	.LLST3
 2805 0de3 30010000 		.long	.LVUS3
 2806 0de7 00       		.byte	0
 2807 0de8 09       		.uleb128 0x9
 2808 0de9 6F0F0000 		.long	0xf6f
 2809 0ded 26000000 		.long	.LBI79
 2810 0df1 01       		.byte	.LVU42
 2811 0df2 24000000 		.long	.LLRL4
 2812 0df6 7B       		.byte	0x7b
 2813 0df7 12       		.byte	0x12
 2814 0df8 1D0E0000 		.long	0xe1d
 2815 0dfc 06       		.uleb128 0x6
 2816 0dfd 7F0F0000 		.long	0xf7f
 2817 0e01 3D010000 		.long	.LLST5
 2818 0e05 3B010000 		.long	.LVUS5
 2819 0e09 0F       		.uleb128 0xf
 2820 0e0a 24000000 		.long	.LLRL4
 2821 0e0e 14       		.uleb128 0x14
 2822 0e0f 8A0F0000 		.long	0xf8a
 2823 0e13 48010000 		.long	.LLST6
 2824 0e17 46010000 		.long	.LVUS6
 2825 0e1b 00       		.byte	0
 2826 0e1c 00       		.byte	0
 2827 0e1d 28       		.uleb128 0x28
 2828 0e1e 410F0000 		.long	0xf41
 2829 0e22 3B000000 		.long	.LBI83
 2830 0e26 01       		.byte	.LVU54
 2831 0e27 3B000000 		.long	.LBB83
 2832 0e2b 06000000 		.long	.LBE83-.LBB83
 2833 0e2f 7D       		.byte	0x7d
 2834 0e30 4B0E0000 		.long	0xe4b
 2835 0e34 17       		.uleb128 0x17
 2836 0e35 5F0F0000 		.long	0xf5f
 2837 0e39 3B000000 		.long	.LBI85
 2838 0e3d 08       		.byte	.LVU61
 2839 0e3e 3B000000 		.long	.LBB85
 2840 0e42 06000000 		.long	.LBE85-.LBB85
 2841 0e46 03       		.byte	0x3
 2842 0e47 B201     		.value	0x1b2
 2843 0e49 03       		.byte	0x3
 2844 0e4a 00       		.byte	0
 2845 0e4b 08       		.uleb128 0x8
 2846 0e4c 38000000 		.long	.LVL8
 2847 0e50 03080000 		.long	0x803
 2848 0e54 00       		.byte	0
 2849 0e55 10       		.uleb128 0x10
 2850 0e56 4C000000 		.long	0x4c
 2851 0e5a 650E0000 		.long	0xe65
 2852 0e5e 11       		.uleb128 0x11
 2853 0e5f 26000000 		.long	0x26
 2854 0e63 0C       		.byte	0xc
 2855 0e64 00       		.byte	0
 2856 0e65 0B       		.uleb128 0xb
 2857 0e66 550E0000 		.long	0xe55
 2858 0e6a 15       		.uleb128 0x15
GAS LISTING /tmp/ccZnfTtS.s 			page 52


 2859 0e6b 49050000 		.long	.LASF135
 2860 0e6f 63       		.byte	0x63
 2861 0e70 00000000 		.long	.LFB216
 2862 0e74 01000000 		.long	.LFE216-.LFB216
 2863 0e78 01       		.uleb128 0x1
 2864 0e79 9C       		.byte	0x9c
 2865 0e7a 950E0000 		.long	0xe95
 2866 0e7e 12       		.uleb128 0x12
 2867 0e7f 637000   		.string	"cp"
 2868 0e82 63       		.byte	0x63
 2869 0e83 30       		.byte	0x30
 2870 0e84 1A090000 		.long	0x91a
 2871 0e88 02       		.uleb128 0x2
 2872 0e89 91       		.byte	0x91
 2873 0e8a 00       		.sleb128 0
 2874 0e8b 0E       		.uleb128 0xe
 2875 0e8c 00070000 		.long	.LASF129
 2876 0e90 A50E0000 		.long	0xea5
 2877 0e94 00       		.byte	0
 2878 0e95 10       		.uleb128 0x10
 2879 0e96 4C000000 		.long	0x4c
 2880 0e9a A50E0000 		.long	0xea5
 2881 0e9e 11       		.uleb128 0x11
 2882 0e9f 26000000 		.long	0x26
 2883 0ea3 13       		.byte	0x13
 2884 0ea4 00       		.byte	0
 2885 0ea5 0B       		.uleb128 0xb
 2886 0ea6 950E0000 		.long	0xe95
 2887 0eaa 15       		.uleb128 0x15
 2888 0eab 23010000 		.long	.LASF136
 2889 0eaf 4D       		.byte	0x4d
 2890 0eb0 00000000 		.long	.LFB215
 2891 0eb4 0A000000 		.long	.LFE215-.LFB215
 2892 0eb8 01       		.uleb128 0x1
 2893 0eb9 9C       		.byte	0x9c
 2894 0eba F70E0000 		.long	0xef7
 2895 0ebe 12       		.uleb128 0x12
 2896 0ebf 637000   		.string	"cp"
 2897 0ec2 4D       		.byte	0x4d
 2898 0ec3 2D       		.byte	0x2d
 2899 0ec4 1A090000 		.long	0x91a
 2900 0ec8 02       		.uleb128 0x2
 2901 0ec9 91       		.byte	0x91
 2902 0eca 00       		.sleb128 0
 2903 0ecb 0E       		.uleb128 0xe
 2904 0ecc 00070000 		.long	.LASF129
 2905 0ed0 A90B0000 		.long	0xba9
 2906 0ed4 29       		.uleb128 0x29
 2907 0ed5 B70F0000 		.long	0xfb7
 2908 0ed9 04000000 		.long	.LBI67
 2909 0edd 00       		.byte	.LVU6
 2910 0ede 04000000 		.long	.LBB67
 2911 0ee2 05000000 		.long	.LBE67-.LBB67
 2912 0ee6 51       		.byte	0x51
 2913 0ee7 03       		.byte	0x3
 2914 0ee8 06       		.uleb128 0x6
 2915 0ee9 C30F0000 		.long	0xfc3
GAS LISTING /tmp/ccZnfTtS.s 			page 53


 2916 0eed 53010000 		.long	.LLST0
 2917 0ef1 51010000 		.long	.LVUS0
 2918 0ef5 00       		.byte	0
 2919 0ef6 00       		.byte	0
 2920 0ef7 3E       		.uleb128 0x3e
 2921 0ef8 6C060000 		.long	.LASF137
 2922 0efc 06       		.byte	0x6
 2923 0efd A0       		.byte	0xa0
 2924 0efe 18       		.byte	0x18
 2925 0eff 6D070000 		.long	0x76d
 2926 0f03 03       		.byte	0x3
 2927 0f04 3F       		.uleb128 0x3f
 2928 0f05 CE010000 		.long	.LASF138
 2929 0f09 05       		.byte	0x5
 2930 0f0a 0F02     		.value	0x20f
 2931 0f0c 19       		.byte	0x19
 2932 0f0d 93050000 		.long	0x593
 2933 0f11 03       		.byte	0x3
 2934 0f12 40       		.uleb128 0x40
 2935 0f13 AD030000 		.long	.LASF139
 2936 0f17 07       		.byte	0x7
 2937 0f18 A8       		.byte	0xa8
 2938 0f19 14       		.byte	0x14
 2939 0f1a 03       		.byte	0x3
 2940 0f1b 410F0000 		.long	0xf41
 2941 0f1f 1D       		.uleb128 0x1d
 2942 0f20 717000   		.string	"qp"
 2943 0f23 07       		.byte	0x7
 2944 0f24 A8       		.byte	0xa8
 2945 0f25 33       		.byte	0x33
 2946 0f26 CE030000 		.long	0x3ce
 2947 0f2a 1D       		.uleb128 0x1d
 2948 0f2b 747000   		.string	"tp"
 2949 0f2e 07       		.byte	0x7
 2950 0f2f A8       		.byte	0xa8
 2951 0f30 43       		.byte	0x43
 2952 0f31 CE030000 		.long	0x3ce
 2953 0f35 41       		.uleb128 0x41
 2954 0f36 637000   		.string	"cp"
 2955 0f39 07       		.byte	0x7
 2956 0f3a AA       		.byte	0xaa
 2957 0f3b 0F       		.byte	0xf
 2958 0f3c CE030000 		.long	0x3ce
 2959 0f40 00       		.byte	0
 2960 0f41 2A       		.uleb128 0x2a
 2961 0f42 C2010000 		.long	.LASF140
 2962 0f46 03       		.byte	0x3
 2963 0f47 A501     		.value	0x1a5
 2964 0f49 570F0000 		.long	0xf57
 2965 0f4d 0E       		.uleb128 0xe
 2966 0f4e 00070000 		.long	.LASF129
 2967 0f52 DB0A0000 		.long	0xadb
 2968 0f56 00       		.byte	0
 2969 0f57 1E       		.uleb128 0x1e
 2970 0f58 B2020000 		.long	.LASF141
 2971 0f5c 03       		.byte	0x3
 2972 0f5d 9701     		.value	0x197
GAS LISTING /tmp/ccZnfTtS.s 			page 54


 2973 0f5f 1E       		.uleb128 0x1e
 2974 0f60 09070000 		.long	.LASF142
 2975 0f64 04       		.byte	0x4
 2976 0f65 7201     		.value	0x172
 2977 0f67 1E       		.uleb128 0x1e
 2978 0f68 AF000000 		.long	.LASF143
 2979 0f6c 04       		.byte	0x4
 2980 0f6d 6901     		.value	0x169
 2981 0f6f 2B       		.uleb128 0x2b
 2982 0f70 C1020000 		.long	.LASF144
 2983 0f74 5401     		.value	0x154
 2984 0f76 1B       		.byte	0x1b
 2985 0f77 CE030000 		.long	0x3ce
 2986 0f7b 960F0000 		.long	0xf96
 2987 0f7f 1F       		.uleb128 0x1f
 2988 0f80 717000   		.string	"qp"
 2989 0f83 5401     		.value	0x154
 2990 0f85 3C       		.byte	0x3c
 2991 0f86 CE030000 		.long	0x3ce
 2992 0f8a 42       		.uleb128 0x42
 2993 0f8b 7000     		.string	"p"
 2994 0f8d 02       		.byte	0x2
 2995 0f8e 5501     		.value	0x155
 2996 0f90 0F       		.byte	0xf
 2997 0f91 CE030000 		.long	0x3ce
 2998 0f95 00       		.byte	0
 2999 0f96 2B       		.uleb128 0x2b
 3000 0f97 37050000 		.long	.LASF145
 3001 0f9b 3501     		.value	0x135
 3002 0f9d 14       		.byte	0x14
 3003 0f9e 0B050000 		.long	0x50b
 3004 0fa2 B20F0000 		.long	0xfb2
 3005 0fa6 1F       		.uleb128 0x1f
 3006 0fa7 717000   		.string	"qp"
 3007 0faa 3501     		.value	0x135
 3008 0fac 38       		.byte	0x38
 3009 0fad B20F0000 		.long	0xfb2
 3010 0fb1 00       		.byte	0
 3011 0fb2 04       		.uleb128 0x4
 3012 0fb3 A1030000 		.long	0x3a1
 3013 0fb7 2A       		.uleb128 0x2a
 3014 0fb8 1F060000 		.long	.LASF146
 3015 0fbc 02       		.byte	0x2
 3016 0fbd 1A01     		.value	0x11a
 3017 0fbf CF0F0000 		.long	0xfcf
 3018 0fc3 1F       		.uleb128 0x1f
 3019 0fc4 717000   		.string	"qp"
 3020 0fc7 1A01     		.value	0x11a
 3021 0fc9 2E       		.byte	0x2e
 3022 0fca CE030000 		.long	0x3ce
 3023 0fce 00       		.byte	0
 3024 0fcf 43       		.uleb128 0x43
 3025 0fd0 770B0000 		.long	0xb77
 3026 0fd4 00000000 		.long	.LFB220
 3027 0fd8 46000000 		.long	.LFE220-.LFB220
 3028 0fdc 01       		.uleb128 0x1
 3029 0fdd 9C       		.byte	0x9c
GAS LISTING /tmp/ccZnfTtS.s 			page 55


 3030 0fde 44       		.uleb128 0x44
 3031 0fdf 840B0000 		.long	0xb84
 3032 0fe3 02       		.uleb128 0x2
 3033 0fe4 91       		.byte	0x91
 3034 0fe5 00       		.sleb128 0
 3035 0fe6 09       		.uleb128 0x9
 3036 0fe7 960F0000 		.long	0xf96
 3037 0feb 14000000 		.long	.LBI135
 3038 0fef 00       		.byte	.LVU164
 3039 0ff0 7B000000 		.long	.LLRL21
 3040 0ff4 B9       		.byte	0xb9
 3041 0ff5 0A       		.byte	0xa
 3042 0ff6 08100000 		.long	0x1008
 3043 0ffa 06       		.uleb128 0x6
 3044 0ffb A60F0000 		.long	0xfa6
 3045 0fff 61010000 		.long	.LLST22
 3046 1003 5D010000 		.long	.LVUS22
 3047 1007 00       		.byte	0
 3048 1008 09       		.uleb128 0x9
 3049 1009 6F0F0000 		.long	0xf6f
 3050 100d 20000000 		.long	.LBI138
 3051 1011 01       		.byte	.LVU170
 3052 1012 87000000 		.long	.LLRL23
 3053 1016 BA       		.byte	0xba
 3054 1017 11       		.byte	0x11
 3055 1018 3D100000 		.long	0x103d
 3056 101c 06       		.uleb128 0x6
 3057 101d 7F0F0000 		.long	0xf7f
 3058 1021 73010000 		.long	.LLST24
 3059 1025 71010000 		.long	.LVUS24
 3060 1029 0F       		.uleb128 0xf
 3061 102a 87000000 		.long	.LLRL23
 3062 102e 14       		.uleb128 0x14
 3063 102f 8A0F0000 		.long	0xf8a
 3064 1033 7E010000 		.long	.LLST25
 3065 1037 7C010000 		.long	.LVUS25
 3066 103b 00       		.byte	0
 3067 103c 00       		.byte	0
 3068 103d 08       		.uleb128 0x8
 3069 103e 30000000 		.long	.LVL29
 3070 1042 EE070000 		.long	0x7ee
 3071 1046 00       		.byte	0
 3072 1047 00       		.byte	0
 3073              		.section	.debug_abbrev,"",@progbits
 3074              	.Ldebug_abbrev0:
 3075 0000 01       		.uleb128 0x1
 3076 0001 16       		.uleb128 0x16
 3077 0002 00       		.byte	0
 3078 0003 03       		.uleb128 0x3
 3079 0004 0E       		.uleb128 0xe
 3080 0005 3A       		.uleb128 0x3a
 3081 0006 0B       		.uleb128 0xb
 3082 0007 3B       		.uleb128 0x3b
 3083 0008 0B       		.uleb128 0xb
 3084 0009 39       		.uleb128 0x39
 3085 000a 0B       		.uleb128 0xb
 3086 000b 49       		.uleb128 0x49
GAS LISTING /tmp/ccZnfTtS.s 			page 56


 3087 000c 13       		.uleb128 0x13
 3088 000d 00       		.byte	0
 3089 000e 00       		.byte	0
 3090 000f 02       		.uleb128 0x2
 3091 0010 0D       		.uleb128 0xd
 3092 0011 00       		.byte	0
 3093 0012 03       		.uleb128 0x3
 3094 0013 0E       		.uleb128 0xe
 3095 0014 3A       		.uleb128 0x3a
 3096 0015 0B       		.uleb128 0xb
 3097 0016 3B       		.uleb128 0x3b
 3098 0017 0B       		.uleb128 0xb
 3099 0018 39       		.uleb128 0x39
 3100 0019 0B       		.uleb128 0xb
 3101 001a 49       		.uleb128 0x49
 3102 001b 13       		.uleb128 0x13
 3103 001c 38       		.uleb128 0x38
 3104 001d 0B       		.uleb128 0xb
 3105 001e 00       		.byte	0
 3106 001f 00       		.byte	0
 3107 0020 03       		.uleb128 0x3
 3108 0021 0D       		.uleb128 0xd
 3109 0022 00       		.byte	0
 3110 0023 03       		.uleb128 0x3
 3111 0024 0E       		.uleb128 0xe
 3112 0025 3A       		.uleb128 0x3a
 3113 0026 21       		.uleb128 0x21
 3114 0027 0D       		.sleb128 13
 3115 0028 3B       		.uleb128 0x3b
 3116 0029 05       		.uleb128 0x5
 3117 002a 39       		.uleb128 0x39
 3118 002b 0B       		.uleb128 0xb
 3119 002c 49       		.uleb128 0x49
 3120 002d 13       		.uleb128 0x13
 3121 002e 38       		.uleb128 0x38
 3122 002f 0B       		.uleb128 0xb
 3123 0030 00       		.byte	0
 3124 0031 00       		.byte	0
 3125 0032 04       		.uleb128 0x4
 3126 0033 0F       		.uleb128 0xf
 3127 0034 00       		.byte	0
 3128 0035 0B       		.uleb128 0xb
 3129 0036 21       		.uleb128 0x21
 3130 0037 04       		.sleb128 4
 3131 0038 49       		.uleb128 0x49
 3132 0039 13       		.uleb128 0x13
 3133 003a 00       		.byte	0
 3134 003b 00       		.byte	0
 3135 003c 05       		.uleb128 0x5
 3136 003d 13       		.uleb128 0x13
 3137 003e 01       		.byte	0x1
 3138 003f 03       		.uleb128 0x3
 3139 0040 0E       		.uleb128 0xe
 3140 0041 0B       		.uleb128 0xb
 3141 0042 0B       		.uleb128 0xb
 3142 0043 3A       		.uleb128 0x3a
 3143 0044 0B       		.uleb128 0xb
GAS LISTING /tmp/ccZnfTtS.s 			page 57


 3144 0045 3B       		.uleb128 0x3b
 3145 0046 0B       		.uleb128 0xb
 3146 0047 39       		.uleb128 0x39
 3147 0048 0B       		.uleb128 0xb
 3148 0049 01       		.uleb128 0x1
 3149 004a 13       		.uleb128 0x13
 3150 004b 00       		.byte	0
 3151 004c 00       		.byte	0
 3152 004d 06       		.uleb128 0x6
 3153 004e 05       		.uleb128 0x5
 3154 004f 00       		.byte	0
 3155 0050 31       		.uleb128 0x31
 3156 0051 13       		.uleb128 0x13
 3157 0052 02       		.uleb128 0x2
 3158 0053 17       		.uleb128 0x17
 3159 0054 B742     		.uleb128 0x2137
 3160 0056 17       		.uleb128 0x17
 3161 0057 00       		.byte	0
 3162 0058 00       		.byte	0
 3163 0059 07       		.uleb128 0x7
 3164 005a 24       		.uleb128 0x24
 3165 005b 00       		.byte	0
 3166 005c 0B       		.uleb128 0xb
 3167 005d 0B       		.uleb128 0xb
 3168 005e 3E       		.uleb128 0x3e
 3169 005f 0B       		.uleb128 0xb
 3170 0060 03       		.uleb128 0x3
 3171 0061 0E       		.uleb128 0xe
 3172 0062 00       		.byte	0
 3173 0063 00       		.byte	0
 3174 0064 08       		.uleb128 0x8
 3175 0065 48       		.uleb128 0x48
 3176 0066 00       		.byte	0
 3177 0067 7D       		.uleb128 0x7d
 3178 0068 01       		.uleb128 0x1
 3179 0069 7F       		.uleb128 0x7f
 3180 006a 13       		.uleb128 0x13
 3181 006b 00       		.byte	0
 3182 006c 00       		.byte	0
 3183 006d 09       		.uleb128 0x9
 3184 006e 1D       		.uleb128 0x1d
 3185 006f 01       		.byte	0x1
 3186 0070 31       		.uleb128 0x31
 3187 0071 13       		.uleb128 0x13
 3188 0072 52       		.uleb128 0x52
 3189 0073 01       		.uleb128 0x1
 3190 0074 B842     		.uleb128 0x2138
 3191 0076 0B       		.uleb128 0xb
 3192 0077 55       		.uleb128 0x55
 3193 0078 17       		.uleb128 0x17
 3194 0079 58       		.uleb128 0x58
 3195 007a 21       		.uleb128 0x21
 3196 007b 01       		.sleb128 1
 3197 007c 59       		.uleb128 0x59
 3198 007d 0B       		.uleb128 0xb
 3199 007e 57       		.uleb128 0x57
 3200 007f 0B       		.uleb128 0xb
GAS LISTING /tmp/ccZnfTtS.s 			page 58


 3201 0080 01       		.uleb128 0x1
 3202 0081 13       		.uleb128 0x13
 3203 0082 00       		.byte	0
 3204 0083 00       		.byte	0
 3205 0084 0A       		.uleb128 0xa
 3206 0085 0D       		.uleb128 0xd
 3207 0086 00       		.byte	0
 3208 0087 03       		.uleb128 0x3
 3209 0088 08       		.uleb128 0x8
 3210 0089 3A       		.uleb128 0x3a
 3211 008a 0B       		.uleb128 0xb
 3212 008b 3B       		.uleb128 0x3b
 3213 008c 0B       		.uleb128 0xb
 3214 008d 39       		.uleb128 0x39
 3215 008e 0B       		.uleb128 0xb
 3216 008f 49       		.uleb128 0x49
 3217 0090 13       		.uleb128 0x13
 3218 0091 38       		.uleb128 0x38
 3219 0092 0B       		.uleb128 0xb
 3220 0093 00       		.byte	0
 3221 0094 00       		.byte	0
 3222 0095 0B       		.uleb128 0xb
 3223 0096 26       		.uleb128 0x26
 3224 0097 00       		.byte	0
 3225 0098 49       		.uleb128 0x49
 3226 0099 13       		.uleb128 0x13
 3227 009a 00       		.byte	0
 3228 009b 00       		.byte	0
 3229 009c 0C       		.uleb128 0xc
 3230 009d 05       		.uleb128 0x5
 3231 009e 00       		.byte	0
 3232 009f 49       		.uleb128 0x49
 3233 00a0 13       		.uleb128 0x13
 3234 00a1 00       		.byte	0
 3235 00a2 00       		.byte	0
 3236 00a3 0D       		.uleb128 0xd
 3237 00a4 0D       		.uleb128 0xd
 3238 00a5 00       		.byte	0
 3239 00a6 03       		.uleb128 0x3
 3240 00a7 0E       		.uleb128 0xe
 3241 00a8 3A       		.uleb128 0x3a
 3242 00a9 21       		.uleb128 0x21
 3243 00aa 0D       		.sleb128 13
 3244 00ab 3B       		.uleb128 0x3b
 3245 00ac 05       		.uleb128 0x5
 3246 00ad 39       		.uleb128 0x39
 3247 00ae 0B       		.uleb128 0xb
 3248 00af 49       		.uleb128 0x49
 3249 00b0 13       		.uleb128 0x13
 3250 00b1 00       		.byte	0
 3251 00b2 00       		.byte	0
 3252 00b3 0E       		.uleb128 0xe
 3253 00b4 34       		.uleb128 0x34
 3254 00b5 00       		.byte	0
 3255 00b6 03       		.uleb128 0x3
 3256 00b7 0E       		.uleb128 0xe
 3257 00b8 49       		.uleb128 0x49
GAS LISTING /tmp/ccZnfTtS.s 			page 59


 3258 00b9 13       		.uleb128 0x13
 3259 00ba 34       		.uleb128 0x34
 3260 00bb 19       		.uleb128 0x19
 3261 00bc 00       		.byte	0
 3262 00bd 00       		.byte	0
 3263 00be 0F       		.uleb128 0xf
 3264 00bf 0B       		.uleb128 0xb
 3265 00c0 01       		.byte	0x1
 3266 00c1 55       		.uleb128 0x55
 3267 00c2 17       		.uleb128 0x17
 3268 00c3 00       		.byte	0
 3269 00c4 00       		.byte	0
 3270 00c5 10       		.uleb128 0x10
 3271 00c6 01       		.uleb128 0x1
 3272 00c7 01       		.byte	0x1
 3273 00c8 49       		.uleb128 0x49
 3274 00c9 13       		.uleb128 0x13
 3275 00ca 01       		.uleb128 0x1
 3276 00cb 13       		.uleb128 0x13
 3277 00cc 00       		.byte	0
 3278 00cd 00       		.byte	0
 3279 00ce 11       		.uleb128 0x11
 3280 00cf 21       		.uleb128 0x21
 3281 00d0 00       		.byte	0
 3282 00d1 49       		.uleb128 0x49
 3283 00d2 13       		.uleb128 0x13
 3284 00d3 2F       		.uleb128 0x2f
 3285 00d4 0B       		.uleb128 0xb
 3286 00d5 00       		.byte	0
 3287 00d6 00       		.byte	0
 3288 00d7 12       		.uleb128 0x12
 3289 00d8 05       		.uleb128 0x5
 3290 00d9 00       		.byte	0
 3291 00da 03       		.uleb128 0x3
 3292 00db 08       		.uleb128 0x8
 3293 00dc 3A       		.uleb128 0x3a
 3294 00dd 21       		.uleb128 0x21
 3295 00de 01       		.sleb128 1
 3296 00df 3B       		.uleb128 0x3b
 3297 00e0 0B       		.uleb128 0xb
 3298 00e1 39       		.uleb128 0x39
 3299 00e2 0B       		.uleb128 0xb
 3300 00e3 49       		.uleb128 0x49
 3301 00e4 13       		.uleb128 0x13
 3302 00e5 02       		.uleb128 0x2
 3303 00e6 18       		.uleb128 0x18
 3304 00e7 00       		.byte	0
 3305 00e8 00       		.byte	0
 3306 00e9 13       		.uleb128 0x13
 3307 00ea 1D       		.uleb128 0x1d
 3308 00eb 00       		.byte	0
 3309 00ec 31       		.uleb128 0x31
 3310 00ed 13       		.uleb128 0x13
 3311 00ee 52       		.uleb128 0x52
 3312 00ef 01       		.uleb128 0x1
 3313 00f0 B842     		.uleb128 0x2138
 3314 00f2 0B       		.uleb128 0xb
GAS LISTING /tmp/ccZnfTtS.s 			page 60


 3315 00f3 55       		.uleb128 0x55
 3316 00f4 17       		.uleb128 0x17
 3317 00f5 58       		.uleb128 0x58
 3318 00f6 0B       		.uleb128 0xb
 3319 00f7 59       		.uleb128 0x59
 3320 00f8 05       		.uleb128 0x5
 3321 00f9 57       		.uleb128 0x57
 3322 00fa 0B       		.uleb128 0xb
 3323 00fb 00       		.byte	0
 3324 00fc 00       		.byte	0
 3325 00fd 14       		.uleb128 0x14
 3326 00fe 34       		.uleb128 0x34
 3327 00ff 00       		.byte	0
 3328 0100 31       		.uleb128 0x31
 3329 0101 13       		.uleb128 0x13
 3330 0102 02       		.uleb128 0x2
 3331 0103 17       		.uleb128 0x17
 3332 0104 B742     		.uleb128 0x2137
 3333 0106 17       		.uleb128 0x17
 3334 0107 00       		.byte	0
 3335 0108 00       		.byte	0
 3336 0109 15       		.uleb128 0x15
 3337 010a 2E       		.uleb128 0x2e
 3338 010b 01       		.byte	0x1
 3339 010c 3F       		.uleb128 0x3f
 3340 010d 19       		.uleb128 0x19
 3341 010e 03       		.uleb128 0x3
 3342 010f 0E       		.uleb128 0xe
 3343 0110 3A       		.uleb128 0x3a
 3344 0111 21       		.uleb128 0x21
 3345 0112 01       		.sleb128 1
 3346 0113 3B       		.uleb128 0x3b
 3347 0114 0B       		.uleb128 0xb
 3348 0115 39       		.uleb128 0x39
 3349 0116 21       		.uleb128 0x21
 3350 0117 06       		.sleb128 6
 3351 0118 27       		.uleb128 0x27
 3352 0119 19       		.uleb128 0x19
 3353 011a 11       		.uleb128 0x11
 3354 011b 01       		.uleb128 0x1
 3355 011c 12       		.uleb128 0x12
 3356 011d 06       		.uleb128 0x6
 3357 011e 40       		.uleb128 0x40
 3358 011f 18       		.uleb128 0x18
 3359 0120 7A       		.uleb128 0x7a
 3360 0121 19       		.uleb128 0x19
 3361 0122 01       		.uleb128 0x1
 3362 0123 13       		.uleb128 0x13
 3363 0124 00       		.byte	0
 3364 0125 00       		.byte	0
 3365 0126 16       		.uleb128 0x16
 3366 0127 2E       		.uleb128 0x2e
 3367 0128 01       		.byte	0x1
 3368 0129 3F       		.uleb128 0x3f
 3369 012a 19       		.uleb128 0x19
 3370 012b 03       		.uleb128 0x3
 3371 012c 0E       		.uleb128 0xe
GAS LISTING /tmp/ccZnfTtS.s 			page 61


 3372 012d 3A       		.uleb128 0x3a
 3373 012e 0B       		.uleb128 0xb
 3374 012f 3B       		.uleb128 0x3b
 3375 0130 0B       		.uleb128 0xb
 3376 0131 39       		.uleb128 0x39
 3377 0132 21       		.uleb128 0x21
 3378 0133 08       		.sleb128 8
 3379 0134 27       		.uleb128 0x27
 3380 0135 19       		.uleb128 0x19
 3381 0136 3C       		.uleb128 0x3c
 3382 0137 19       		.uleb128 0x19
 3383 0138 01       		.uleb128 0x1
 3384 0139 13       		.uleb128 0x13
 3385 013a 00       		.byte	0
 3386 013b 00       		.byte	0
 3387 013c 17       		.uleb128 0x17
 3388 013d 1D       		.uleb128 0x1d
 3389 013e 00       		.byte	0
 3390 013f 31       		.uleb128 0x31
 3391 0140 13       		.uleb128 0x13
 3392 0141 52       		.uleb128 0x52
 3393 0142 01       		.uleb128 0x1
 3394 0143 B842     		.uleb128 0x2138
 3395 0145 0B       		.uleb128 0xb
 3396 0146 11       		.uleb128 0x11
 3397 0147 01       		.uleb128 0x1
 3398 0148 12       		.uleb128 0x12
 3399 0149 06       		.uleb128 0x6
 3400 014a 58       		.uleb128 0x58
 3401 014b 0B       		.uleb128 0xb
 3402 014c 59       		.uleb128 0x59
 3403 014d 05       		.uleb128 0x5
 3404 014e 57       		.uleb128 0x57
 3405 014f 0B       		.uleb128 0xb
 3406 0150 00       		.byte	0
 3407 0151 00       		.byte	0
 3408 0152 18       		.uleb128 0x18
 3409 0153 34       		.uleb128 0x34
 3410 0154 00       		.byte	0
 3411 0155 03       		.uleb128 0x3
 3412 0156 08       		.uleb128 0x8
 3413 0157 3A       		.uleb128 0x3a
 3414 0158 21       		.uleb128 0x21
 3415 0159 01       		.sleb128 1
 3416 015a 3B       		.uleb128 0x3b
 3417 015b 0B       		.uleb128 0xb
 3418 015c 39       		.uleb128 0x39
 3419 015d 0B       		.uleb128 0xb
 3420 015e 49       		.uleb128 0x49
 3421 015f 13       		.uleb128 0x13
 3422 0160 02       		.uleb128 0x2
 3423 0161 17       		.uleb128 0x17
 3424 0162 B742     		.uleb128 0x2137
 3425 0164 17       		.uleb128 0x17
 3426 0165 00       		.byte	0
 3427 0166 00       		.byte	0
 3428 0167 19       		.uleb128 0x19
GAS LISTING /tmp/ccZnfTtS.s 			page 62


 3429 0168 35       		.uleb128 0x35
 3430 0169 00       		.byte	0
 3431 016a 49       		.uleb128 0x49
 3432 016b 13       		.uleb128 0x13
 3433 016c 00       		.byte	0
 3434 016d 00       		.byte	0
 3435 016e 1A       		.uleb128 0x1a
 3436 016f 13       		.uleb128 0x13
 3437 0170 01       		.byte	0x1
 3438 0171 03       		.uleb128 0x3
 3439 0172 0E       		.uleb128 0xe
 3440 0173 0B       		.uleb128 0xb
 3441 0174 0B       		.uleb128 0xb
 3442 0175 3A       		.uleb128 0x3a
 3443 0176 21       		.uleb128 0x21
 3444 0177 0D       		.sleb128 13
 3445 0178 3B       		.uleb128 0x3b
 3446 0179 05       		.uleb128 0x5
 3447 017a 39       		.uleb128 0x39
 3448 017b 0B       		.uleb128 0xb
 3449 017c 01       		.uleb128 0x1
 3450 017d 13       		.uleb128 0x13
 3451 017e 00       		.byte	0
 3452 017f 00       		.byte	0
 3453 0180 1B       		.uleb128 0x1b
 3454 0181 0D       		.uleb128 0xd
 3455 0182 00       		.byte	0
 3456 0183 03       		.uleb128 0x3
 3457 0184 0E       		.uleb128 0xe
 3458 0185 3A       		.uleb128 0x3a
 3459 0186 21       		.uleb128 0x21
 3460 0187 0D       		.sleb128 13
 3461 0188 3B       		.uleb128 0x3b
 3462 0189 0B       		.uleb128 0xb
 3463 018a 39       		.uleb128 0x39
 3464 018b 21       		.uleb128 0x21
 3465 018c 21       		.sleb128 33
 3466 018d 49       		.uleb128 0x49
 3467 018e 13       		.uleb128 0x13
 3468 018f 00       		.byte	0
 3469 0190 00       		.byte	0
 3470 0191 1C       		.uleb128 0x1c
 3471 0192 34       		.uleb128 0x34
 3472 0193 00       		.byte	0
 3473 0194 03       		.uleb128 0x3
 3474 0195 08       		.uleb128 0x8
 3475 0196 3A       		.uleb128 0x3a
 3476 0197 21       		.uleb128 0x21
 3477 0198 01       		.sleb128 1
 3478 0199 3B       		.uleb128 0x3b
 3479 019a 05       		.uleb128 0x5
 3480 019b 39       		.uleb128 0x39
 3481 019c 0B       		.uleb128 0xb
 3482 019d 49       		.uleb128 0x49
 3483 019e 13       		.uleb128 0x13
 3484 019f 02       		.uleb128 0x2
 3485 01a0 17       		.uleb128 0x17
GAS LISTING /tmp/ccZnfTtS.s 			page 63


 3486 01a1 B742     		.uleb128 0x2137
 3487 01a3 17       		.uleb128 0x17
 3488 01a4 00       		.byte	0
 3489 01a5 00       		.byte	0
 3490 01a6 1D       		.uleb128 0x1d
 3491 01a7 05       		.uleb128 0x5
 3492 01a8 00       		.byte	0
 3493 01a9 03       		.uleb128 0x3
 3494 01aa 08       		.uleb128 0x8
 3495 01ab 3A       		.uleb128 0x3a
 3496 01ac 0B       		.uleb128 0xb
 3497 01ad 3B       		.uleb128 0x3b
 3498 01ae 0B       		.uleb128 0xb
 3499 01af 39       		.uleb128 0x39
 3500 01b0 0B       		.uleb128 0xb
 3501 01b1 49       		.uleb128 0x49
 3502 01b2 13       		.uleb128 0x13
 3503 01b3 00       		.byte	0
 3504 01b4 00       		.byte	0
 3505 01b5 1E       		.uleb128 0x1e
 3506 01b6 2E       		.uleb128 0x2e
 3507 01b7 00       		.byte	0
 3508 01b8 03       		.uleb128 0x3
 3509 01b9 0E       		.uleb128 0xe
 3510 01ba 3A       		.uleb128 0x3a
 3511 01bb 0B       		.uleb128 0xb
 3512 01bc 3B       		.uleb128 0x3b
 3513 01bd 05       		.uleb128 0x5
 3514 01be 39       		.uleb128 0x39
 3515 01bf 21       		.uleb128 0x21
 3516 01c0 14       		.sleb128 20
 3517 01c1 27       		.uleb128 0x27
 3518 01c2 19       		.uleb128 0x19
 3519 01c3 20       		.uleb128 0x20
 3520 01c4 21       		.uleb128 0x21
 3521 01c5 03       		.sleb128 3
 3522 01c6 00       		.byte	0
 3523 01c7 00       		.byte	0
 3524 01c8 1F       		.uleb128 0x1f
 3525 01c9 05       		.uleb128 0x5
 3526 01ca 00       		.byte	0
 3527 01cb 03       		.uleb128 0x3
 3528 01cc 08       		.uleb128 0x8
 3529 01cd 3A       		.uleb128 0x3a
 3530 01ce 21       		.uleb128 0x21
 3531 01cf 02       		.sleb128 2
 3532 01d0 3B       		.uleb128 0x3b
 3533 01d1 05       		.uleb128 0x5
 3534 01d2 39       		.uleb128 0x39
 3535 01d3 0B       		.uleb128 0xb
 3536 01d4 49       		.uleb128 0x49
 3537 01d5 13       		.uleb128 0x13
 3538 01d6 00       		.byte	0
 3539 01d7 00       		.byte	0
 3540 01d8 20       		.uleb128 0x20
 3541 01d9 0D       		.uleb128 0xd
 3542 01da 00       		.byte	0
GAS LISTING /tmp/ccZnfTtS.s 			page 64


 3543 01db 03       		.uleb128 0x3
 3544 01dc 08       		.uleb128 0x8
 3545 01dd 3A       		.uleb128 0x3a
 3546 01de 21       		.uleb128 0x21
 3547 01df 0D       		.sleb128 13
 3548 01e0 3B       		.uleb128 0x3b
 3549 01e1 05       		.uleb128 0x5
 3550 01e2 39       		.uleb128 0x39
 3551 01e3 21       		.uleb128 0x21
 3552 01e4 21       		.sleb128 33
 3553 01e5 49       		.uleb128 0x49
 3554 01e6 13       		.uleb128 0x13
 3555 01e7 38       		.uleb128 0x38
 3556 01e8 0B       		.uleb128 0xb
 3557 01e9 00       		.byte	0
 3558 01ea 00       		.byte	0
 3559 01eb 21       		.uleb128 0x21
 3560 01ec 16       		.uleb128 0x16
 3561 01ed 00       		.byte	0
 3562 01ee 03       		.uleb128 0x3
 3563 01ef 0E       		.uleb128 0xe
 3564 01f0 3A       		.uleb128 0x3a
 3565 01f1 21       		.uleb128 0x21
 3566 01f2 0D       		.sleb128 13
 3567 01f3 3B       		.uleb128 0x3b
 3568 01f4 05       		.uleb128 0x5
 3569 01f5 39       		.uleb128 0x39
 3570 01f6 21       		.uleb128 0x21
 3571 01f7 03       		.sleb128 3
 3572 01f8 49       		.uleb128 0x49
 3573 01f9 13       		.uleb128 0x13
 3574 01fa 00       		.byte	0
 3575 01fb 00       		.byte	0
 3576 01fc 22       		.uleb128 0x22
 3577 01fd 2E       		.uleb128 0x2e
 3578 01fe 01       		.byte	0x1
 3579 01ff 3F       		.uleb128 0x3f
 3580 0200 19       		.uleb128 0x19
 3581 0201 03       		.uleb128 0x3
 3582 0202 0E       		.uleb128 0xe
 3583 0203 3A       		.uleb128 0x3a
 3584 0204 21       		.uleb128 0x21
 3585 0205 07       		.sleb128 7
 3586 0206 3B       		.uleb128 0x3b
 3587 0207 0B       		.uleb128 0xb
 3588 0208 39       		.uleb128 0x39
 3589 0209 0B       		.uleb128 0xb
 3590 020a 27       		.uleb128 0x27
 3591 020b 19       		.uleb128 0x19
 3592 020c 49       		.uleb128 0x49
 3593 020d 13       		.uleb128 0x13
 3594 020e 3C       		.uleb128 0x3c
 3595 020f 19       		.uleb128 0x19
 3596 0210 01       		.uleb128 0x1
 3597 0211 13       		.uleb128 0x13
 3598 0212 00       		.byte	0
 3599 0213 00       		.byte	0
GAS LISTING /tmp/ccZnfTtS.s 			page 65


 3600 0214 23       		.uleb128 0x23
 3601 0215 2E       		.uleb128 0x2e
 3602 0216 01       		.byte	0x1
 3603 0217 3F       		.uleb128 0x3f
 3604 0218 19       		.uleb128 0x19
 3605 0219 03       		.uleb128 0x3
 3606 021a 0E       		.uleb128 0xe
 3607 021b 3A       		.uleb128 0x3a
 3608 021c 21       		.uleb128 0x21
 3609 021d 01       		.sleb128 1
 3610 021e 3B       		.uleb128 0x3b
 3611 021f 05       		.uleb128 0x5
 3612 0220 39       		.uleb128 0x39
 3613 0221 21       		.uleb128 0x21
 3614 0222 07       		.sleb128 7
 3615 0223 27       		.uleb128 0x27
 3616 0224 19       		.uleb128 0x19
 3617 0225 49       		.uleb128 0x49
 3618 0226 13       		.uleb128 0x13
 3619 0227 11       		.uleb128 0x11
 3620 0228 01       		.uleb128 0x1
 3621 0229 12       		.uleb128 0x12
 3622 022a 06       		.uleb128 0x6
 3623 022b 40       		.uleb128 0x40
 3624 022c 18       		.uleb128 0x18
 3625 022d 7A       		.uleb128 0x7a
 3626 022e 19       		.uleb128 0x19
 3627 022f 01       		.uleb128 0x1
 3628 0230 13       		.uleb128 0x13
 3629 0231 00       		.byte	0
 3630 0232 00       		.byte	0
 3631 0233 24       		.uleb128 0x24
 3632 0234 05       		.uleb128 0x5
 3633 0235 00       		.byte	0
 3634 0236 03       		.uleb128 0x3
 3635 0237 08       		.uleb128 0x8
 3636 0238 3A       		.uleb128 0x3a
 3637 0239 21       		.uleb128 0x21
 3638 023a 01       		.sleb128 1
 3639 023b 3B       		.uleb128 0x3b
 3640 023c 05       		.uleb128 0x5
 3641 023d 39       		.uleb128 0x39
 3642 023e 0B       		.uleb128 0xb
 3643 023f 49       		.uleb128 0x49
 3644 0240 13       		.uleb128 0x13
 3645 0241 02       		.uleb128 0x2
 3646 0242 18       		.uleb128 0x18
 3647 0243 00       		.byte	0
 3648 0244 00       		.byte	0
 3649 0245 25       		.uleb128 0x25
 3650 0246 05       		.uleb128 0x5
 3651 0247 00       		.byte	0
 3652 0248 03       		.uleb128 0x3
 3653 0249 0E       		.uleb128 0xe
 3654 024a 3A       		.uleb128 0x3a
 3655 024b 21       		.uleb128 0x21
 3656 024c 01       		.sleb128 1
GAS LISTING /tmp/ccZnfTtS.s 			page 66


 3657 024d 3B       		.uleb128 0x3b
 3658 024e 05       		.uleb128 0x5
 3659 024f 39       		.uleb128 0x39
 3660 0250 0B       		.uleb128 0xb
 3661 0251 49       		.uleb128 0x49
 3662 0252 13       		.uleb128 0x13
 3663 0253 02       		.uleb128 0x2
 3664 0254 18       		.uleb128 0x18
 3665 0255 00       		.byte	0
 3666 0256 00       		.byte	0
 3667 0257 26       		.uleb128 0x26
 3668 0258 1D       		.uleb128 0x1d
 3669 0259 01       		.byte	0x1
 3670 025a 31       		.uleb128 0x31
 3671 025b 13       		.uleb128 0x13
 3672 025c 52       		.uleb128 0x52
 3673 025d 01       		.uleb128 0x1
 3674 025e B842     		.uleb128 0x2138
 3675 0260 0B       		.uleb128 0xb
 3676 0261 55       		.uleb128 0x55
 3677 0262 17       		.uleb128 0x17
 3678 0263 58       		.uleb128 0x58
 3679 0264 21       		.uleb128 0x21
 3680 0265 01       		.sleb128 1
 3681 0266 59       		.uleb128 0x59
 3682 0267 05       		.uleb128 0x5
 3683 0268 57       		.uleb128 0x57
 3684 0269 21       		.uleb128 0x21
 3685 026a 03       		.sleb128 3
 3686 026b 01       		.uleb128 0x1
 3687 026c 13       		.uleb128 0x13
 3688 026d 00       		.byte	0
 3689 026e 00       		.byte	0
 3690 026f 27       		.uleb128 0x27
 3691 0270 2E       		.uleb128 0x2e
 3692 0271 01       		.byte	0x1
 3693 0272 3F       		.uleb128 0x3f
 3694 0273 19       		.uleb128 0x19
 3695 0274 03       		.uleb128 0x3
 3696 0275 0E       		.uleb128 0xe
 3697 0276 3A       		.uleb128 0x3a
 3698 0277 21       		.uleb128 0x21
 3699 0278 01       		.sleb128 1
 3700 0279 3B       		.uleb128 0x3b
 3701 027a 0B       		.uleb128 0xb
 3702 027b 39       		.uleb128 0x39
 3703 027c 21       		.uleb128 0x21
 3704 027d 07       		.sleb128 7
 3705 027e 27       		.uleb128 0x27
 3706 027f 19       		.uleb128 0x19
 3707 0280 49       		.uleb128 0x49
 3708 0281 13       		.uleb128 0x13
 3709 0282 11       		.uleb128 0x11
 3710 0283 01       		.uleb128 0x1
 3711 0284 12       		.uleb128 0x12
 3712 0285 06       		.uleb128 0x6
 3713 0286 40       		.uleb128 0x40
GAS LISTING /tmp/ccZnfTtS.s 			page 67


 3714 0287 18       		.uleb128 0x18
 3715 0288 7A       		.uleb128 0x7a
 3716 0289 19       		.uleb128 0x19
 3717 028a 01       		.uleb128 0x1
 3718 028b 13       		.uleb128 0x13
 3719 028c 00       		.byte	0
 3720 028d 00       		.byte	0
 3721 028e 28       		.uleb128 0x28
 3722 028f 1D       		.uleb128 0x1d
 3723 0290 01       		.byte	0x1
 3724 0291 31       		.uleb128 0x31
 3725 0292 13       		.uleb128 0x13
 3726 0293 52       		.uleb128 0x52
 3727 0294 01       		.uleb128 0x1
 3728 0295 B842     		.uleb128 0x2138
 3729 0297 0B       		.uleb128 0xb
 3730 0298 11       		.uleb128 0x11
 3731 0299 01       		.uleb128 0x1
 3732 029a 12       		.uleb128 0x12
 3733 029b 06       		.uleb128 0x6
 3734 029c 58       		.uleb128 0x58
 3735 029d 21       		.uleb128 0x21
 3736 029e 01       		.sleb128 1
 3737 029f 59       		.uleb128 0x59
 3738 02a0 0B       		.uleb128 0xb
 3739 02a1 57       		.uleb128 0x57
 3740 02a2 21       		.uleb128 0x21
 3741 02a3 03       		.sleb128 3
 3742 02a4 01       		.uleb128 0x1
 3743 02a5 13       		.uleb128 0x13
 3744 02a6 00       		.byte	0
 3745 02a7 00       		.byte	0
 3746 02a8 29       		.uleb128 0x29
 3747 02a9 1D       		.uleb128 0x1d
 3748 02aa 01       		.byte	0x1
 3749 02ab 31       		.uleb128 0x31
 3750 02ac 13       		.uleb128 0x13
 3751 02ad 52       		.uleb128 0x52
 3752 02ae 01       		.uleb128 0x1
 3753 02af B842     		.uleb128 0x2138
 3754 02b1 0B       		.uleb128 0xb
 3755 02b2 11       		.uleb128 0x11
 3756 02b3 01       		.uleb128 0x1
 3757 02b4 12       		.uleb128 0x12
 3758 02b5 06       		.uleb128 0x6
 3759 02b6 58       		.uleb128 0x58
 3760 02b7 21       		.uleb128 0x21
 3761 02b8 01       		.sleb128 1
 3762 02b9 59       		.uleb128 0x59
 3763 02ba 0B       		.uleb128 0xb
 3764 02bb 57       		.uleb128 0x57
 3765 02bc 0B       		.uleb128 0xb
 3766 02bd 00       		.byte	0
 3767 02be 00       		.byte	0
 3768 02bf 2A       		.uleb128 0x2a
 3769 02c0 2E       		.uleb128 0x2e
 3770 02c1 01       		.byte	0x1
GAS LISTING /tmp/ccZnfTtS.s 			page 68


 3771 02c2 03       		.uleb128 0x3
 3772 02c3 0E       		.uleb128 0xe
 3773 02c4 3A       		.uleb128 0x3a
 3774 02c5 0B       		.uleb128 0xb
 3775 02c6 3B       		.uleb128 0x3b
 3776 02c7 05       		.uleb128 0x5
 3777 02c8 39       		.uleb128 0x39
 3778 02c9 21       		.uleb128 0x21
 3779 02ca 14       		.sleb128 20
 3780 02cb 27       		.uleb128 0x27
 3781 02cc 19       		.uleb128 0x19
 3782 02cd 20       		.uleb128 0x20
 3783 02ce 21       		.uleb128 0x21
 3784 02cf 03       		.sleb128 3
 3785 02d0 01       		.uleb128 0x1
 3786 02d1 13       		.uleb128 0x13
 3787 02d2 00       		.byte	0
 3788 02d3 00       		.byte	0
 3789 02d4 2B       		.uleb128 0x2b
 3790 02d5 2E       		.uleb128 0x2e
 3791 02d6 01       		.byte	0x1
 3792 02d7 03       		.uleb128 0x3
 3793 02d8 0E       		.uleb128 0xe
 3794 02d9 3A       		.uleb128 0x3a
 3795 02da 21       		.uleb128 0x21
 3796 02db 02       		.sleb128 2
 3797 02dc 3B       		.uleb128 0x3b
 3798 02dd 05       		.uleb128 0x5
 3799 02de 39       		.uleb128 0x39
 3800 02df 0B       		.uleb128 0xb
 3801 02e0 27       		.uleb128 0x27
 3802 02e1 19       		.uleb128 0x19
 3803 02e2 49       		.uleb128 0x49
 3804 02e3 13       		.uleb128 0x13
 3805 02e4 20       		.uleb128 0x20
 3806 02e5 21       		.uleb128 0x21
 3807 02e6 03       		.sleb128 3
 3808 02e7 01       		.uleb128 0x1
 3809 02e8 13       		.uleb128 0x13
 3810 02e9 00       		.byte	0
 3811 02ea 00       		.byte	0
 3812 02eb 2C       		.uleb128 0x2c
 3813 02ec 11       		.uleb128 0x11
 3814 02ed 01       		.byte	0x1
 3815 02ee 25       		.uleb128 0x25
 3816 02ef 0E       		.uleb128 0xe
 3817 02f0 13       		.uleb128 0x13
 3818 02f1 0B       		.uleb128 0xb
 3819 02f2 03       		.uleb128 0x3
 3820 02f3 1F       		.uleb128 0x1f
 3821 02f4 1B       		.uleb128 0x1b
 3822 02f5 1F       		.uleb128 0x1f
 3823 02f6 55       		.uleb128 0x55
 3824 02f7 17       		.uleb128 0x17
 3825 02f8 11       		.uleb128 0x11
 3826 02f9 01       		.uleb128 0x1
 3827 02fa 10       		.uleb128 0x10
GAS LISTING /tmp/ccZnfTtS.s 			page 69


 3828 02fb 17       		.uleb128 0x17
 3829 02fc 00       		.byte	0
 3830 02fd 00       		.byte	0
 3831 02fe 2D       		.uleb128 0x2d
 3832 02ff 24       		.uleb128 0x24
 3833 0300 00       		.byte	0
 3834 0301 0B       		.uleb128 0xb
 3835 0302 0B       		.uleb128 0xb
 3836 0303 3E       		.uleb128 0x3e
 3837 0304 0B       		.uleb128 0xb
 3838 0305 03       		.uleb128 0x3
 3839 0306 08       		.uleb128 0x8
 3840 0307 00       		.byte	0
 3841 0308 00       		.byte	0
 3842 0309 2E       		.uleb128 0x2e
 3843 030a 0F       		.uleb128 0xf
 3844 030b 00       		.byte	0
 3845 030c 0B       		.uleb128 0xb
 3846 030d 0B       		.uleb128 0xb
 3847 030e 00       		.byte	0
 3848 030f 00       		.byte	0
 3849 0310 2F       		.uleb128 0x2f
 3850 0311 13       		.uleb128 0x13
 3851 0312 01       		.byte	0x1
 3852 0313 0B       		.uleb128 0xb
 3853 0314 0B       		.uleb128 0xb
 3854 0315 3A       		.uleb128 0x3a
 3855 0316 0B       		.uleb128 0xb
 3856 0317 3B       		.uleb128 0x3b
 3857 0318 0B       		.uleb128 0xb
 3858 0319 39       		.uleb128 0x39
 3859 031a 0B       		.uleb128 0xb
 3860 031b 01       		.uleb128 0x1
 3861 031c 13       		.uleb128 0x13
 3862 031d 00       		.byte	0
 3863 031e 00       		.byte	0
 3864 031f 30       		.uleb128 0x30
 3865 0320 16       		.uleb128 0x16
 3866 0321 00       		.byte	0
 3867 0322 03       		.uleb128 0x3
 3868 0323 0E       		.uleb128 0xe
 3869 0324 3A       		.uleb128 0x3a
 3870 0325 0B       		.uleb128 0xb
 3871 0326 3B       		.uleb128 0x3b
 3872 0327 0B       		.uleb128 0xb
 3873 0328 39       		.uleb128 0x39
 3874 0329 0B       		.uleb128 0xb
 3875 032a 49       		.uleb128 0x49
 3876 032b 13       		.uleb128 0x13
 3877 032c 8801     		.uleb128 0x88
 3878 032e 0B       		.uleb128 0xb
 3879 032f 00       		.byte	0
 3880 0330 00       		.byte	0
 3881 0331 31       		.uleb128 0x31
 3882 0332 34       		.uleb128 0x34
 3883 0333 00       		.byte	0
 3884 0334 03       		.uleb128 0x3
GAS LISTING /tmp/ccZnfTtS.s 			page 70


 3885 0335 0E       		.uleb128 0xe
 3886 0336 3A       		.uleb128 0x3a
 3887 0337 0B       		.uleb128 0xb
 3888 0338 3B       		.uleb128 0x3b
 3889 0339 05       		.uleb128 0x5
 3890 033a 39       		.uleb128 0x39
 3891 033b 0B       		.uleb128 0xb
 3892 033c 49       		.uleb128 0x49
 3893 033d 13       		.uleb128 0x13
 3894 033e 3F       		.uleb128 0x3f
 3895 033f 19       		.uleb128 0x19
 3896 0340 3C       		.uleb128 0x3c
 3897 0341 19       		.uleb128 0x19
 3898 0342 00       		.byte	0
 3899 0343 00       		.byte	0
 3900 0344 32       		.uleb128 0x32
 3901 0345 15       		.uleb128 0x15
 3902 0346 01       		.byte	0x1
 3903 0347 27       		.uleb128 0x27
 3904 0348 19       		.uleb128 0x19
 3905 0349 01       		.uleb128 0x1
 3906 034a 13       		.uleb128 0x13
 3907 034b 00       		.byte	0
 3908 034c 00       		.byte	0
 3909 034d 33       		.uleb128 0x33
 3910 034e 17       		.uleb128 0x17
 3911 034f 01       		.byte	0x1
 3912 0350 0B       		.uleb128 0xb
 3913 0351 0B       		.uleb128 0xb
 3914 0352 3A       		.uleb128 0x3a
 3915 0353 0B       		.uleb128 0xb
 3916 0354 3B       		.uleb128 0x3b
 3917 0355 0B       		.uleb128 0xb
 3918 0356 39       		.uleb128 0x39
 3919 0357 0B       		.uleb128 0xb
 3920 0358 01       		.uleb128 0x1
 3921 0359 13       		.uleb128 0x13
 3922 035a 00       		.byte	0
 3923 035b 00       		.byte	0
 3924 035c 34       		.uleb128 0x34
 3925 035d 17       		.uleb128 0x17
 3926 035e 01       		.byte	0x1
 3927 035f 0B       		.uleb128 0xb
 3928 0360 0B       		.uleb128 0xb
 3929 0361 3A       		.uleb128 0x3a
 3930 0362 0B       		.uleb128 0xb
 3931 0363 3B       		.uleb128 0x3b
 3932 0364 05       		.uleb128 0x5
 3933 0365 39       		.uleb128 0x39
 3934 0366 0B       		.uleb128 0xb
 3935 0367 01       		.uleb128 0x1
 3936 0368 13       		.uleb128 0x13
 3937 0369 00       		.byte	0
 3938 036a 00       		.byte	0
 3939 036b 35       		.uleb128 0x35
 3940 036c 34       		.uleb128 0x34
 3941 036d 00       		.byte	0
GAS LISTING /tmp/ccZnfTtS.s 			page 71


 3942 036e 03       		.uleb128 0x3
 3943 036f 08       		.uleb128 0x8
 3944 0370 3A       		.uleb128 0x3a
 3945 0371 0B       		.uleb128 0xb
 3946 0372 3B       		.uleb128 0x3b
 3947 0373 05       		.uleb128 0x5
 3948 0374 39       		.uleb128 0x39
 3949 0375 0B       		.uleb128 0xb
 3950 0376 49       		.uleb128 0x49
 3951 0377 13       		.uleb128 0x13
 3952 0378 3F       		.uleb128 0x3f
 3953 0379 19       		.uleb128 0x19
 3954 037a 3C       		.uleb128 0x3c
 3955 037b 19       		.uleb128 0x19
 3956 037c 00       		.byte	0
 3957 037d 00       		.byte	0
 3958 037e 36       		.uleb128 0x36
 3959 037f 2E       		.uleb128 0x2e
 3960 0380 00       		.byte	0
 3961 0381 3F       		.uleb128 0x3f
 3962 0382 19       		.uleb128 0x19
 3963 0383 03       		.uleb128 0x3
 3964 0384 0E       		.uleb128 0xe
 3965 0385 3A       		.uleb128 0x3a
 3966 0386 0B       		.uleb128 0xb
 3967 0387 3B       		.uleb128 0x3b
 3968 0388 0B       		.uleb128 0xb
 3969 0389 39       		.uleb128 0x39
 3970 038a 0B       		.uleb128 0xb
 3971 038b 27       		.uleb128 0x27
 3972 038c 19       		.uleb128 0x19
 3973 038d 3C       		.uleb128 0x3c
 3974 038e 19       		.uleb128 0x19
 3975 038f 00       		.byte	0
 3976 0390 00       		.byte	0
 3977 0391 37       		.uleb128 0x37
 3978 0392 34       		.uleb128 0x34
 3979 0393 00       		.byte	0
 3980 0394 03       		.uleb128 0x3
 3981 0395 0E       		.uleb128 0xe
 3982 0396 3A       		.uleb128 0x3a
 3983 0397 0B       		.uleb128 0xb
 3984 0398 3B       		.uleb128 0x3b
 3985 0399 05       		.uleb128 0x5
 3986 039a 39       		.uleb128 0x39
 3987 039b 0B       		.uleb128 0xb
 3988 039c 49       		.uleb128 0x49
 3989 039d 13       		.uleb128 0x13
 3990 039e 02       		.uleb128 0x2
 3991 039f 17       		.uleb128 0x17
 3992 03a0 B742     		.uleb128 0x2137
 3993 03a2 17       		.uleb128 0x17
 3994 03a3 00       		.byte	0
 3995 03a4 00       		.byte	0
 3996 03a5 38       		.uleb128 0x38
 3997 03a6 1D       		.uleb128 0x1d
 3998 03a7 01       		.byte	0x1
GAS LISTING /tmp/ccZnfTtS.s 			page 72


 3999 03a8 31       		.uleb128 0x31
 4000 03a9 13       		.uleb128 0x13
 4001 03aa 52       		.uleb128 0x52
 4002 03ab 01       		.uleb128 0x1
 4003 03ac B842     		.uleb128 0x2138
 4004 03ae 0B       		.uleb128 0xb
 4005 03af 11       		.uleb128 0x11
 4006 03b0 01       		.uleb128 0x1
 4007 03b1 12       		.uleb128 0x12
 4008 03b2 06       		.uleb128 0x6
 4009 03b3 58       		.uleb128 0x58
 4010 03b4 0B       		.uleb128 0xb
 4011 03b5 59       		.uleb128 0x59
 4012 03b6 05       		.uleb128 0x5
 4013 03b7 57       		.uleb128 0x57
 4014 03b8 0B       		.uleb128 0xb
 4015 03b9 01       		.uleb128 0x1
 4016 03ba 13       		.uleb128 0x13
 4017 03bb 00       		.byte	0
 4018 03bc 00       		.byte	0
 4019 03bd 39       		.uleb128 0x39
 4020 03be 34       		.uleb128 0x34
 4021 03bf 00       		.byte	0
 4022 03c0 03       		.uleb128 0x3
 4023 03c1 0E       		.uleb128 0xe
 4024 03c2 3A       		.uleb128 0x3a
 4025 03c3 0B       		.uleb128 0xb
 4026 03c4 3B       		.uleb128 0x3b
 4027 03c5 0B       		.uleb128 0xb
 4028 03c6 39       		.uleb128 0x39
 4029 03c7 0B       		.uleb128 0xb
 4030 03c8 49       		.uleb128 0x49
 4031 03c9 13       		.uleb128 0x13
 4032 03ca 02       		.uleb128 0x2
 4033 03cb 17       		.uleb128 0x17
 4034 03cc B742     		.uleb128 0x2137
 4035 03ce 17       		.uleb128 0x17
 4036 03cf 00       		.byte	0
 4037 03d0 00       		.byte	0
 4038 03d1 3A       		.uleb128 0x3a
 4039 03d2 1D       		.uleb128 0x1d
 4040 03d3 00       		.byte	0
 4041 03d4 31       		.uleb128 0x31
 4042 03d5 13       		.uleb128 0x13
 4043 03d6 52       		.uleb128 0x52
 4044 03d7 01       		.uleb128 0x1
 4045 03d8 B842     		.uleb128 0x2138
 4046 03da 0B       		.uleb128 0xb
 4047 03db 55       		.uleb128 0x55
 4048 03dc 17       		.uleb128 0x17
 4049 03dd 58       		.uleb128 0x58
 4050 03de 0B       		.uleb128 0xb
 4051 03df 59       		.uleb128 0x59
 4052 03e0 0B       		.uleb128 0xb
 4053 03e1 57       		.uleb128 0x57
 4054 03e2 0B       		.uleb128 0xb
 4055 03e3 00       		.byte	0
GAS LISTING /tmp/ccZnfTtS.s 			page 73


 4056 03e4 00       		.byte	0
 4057 03e5 3B       		.uleb128 0x3b
 4058 03e6 1D       		.uleb128 0x1d
 4059 03e7 00       		.byte	0
 4060 03e8 31       		.uleb128 0x31
 4061 03e9 13       		.uleb128 0x13
 4062 03ea 52       		.uleb128 0x52
 4063 03eb 01       		.uleb128 0x1
 4064 03ec B842     		.uleb128 0x2138
 4065 03ee 0B       		.uleb128 0xb
 4066 03ef 11       		.uleb128 0x11
 4067 03f0 01       		.uleb128 0x1
 4068 03f1 12       		.uleb128 0x12
 4069 03f2 06       		.uleb128 0x6
 4070 03f3 58       		.uleb128 0x58
 4071 03f4 0B       		.uleb128 0xb
 4072 03f5 59       		.uleb128 0x59
 4073 03f6 0B       		.uleb128 0xb
 4074 03f7 57       		.uleb128 0x57
 4075 03f8 0B       		.uleb128 0xb
 4076 03f9 00       		.byte	0
 4077 03fa 00       		.byte	0
 4078 03fb 3C       		.uleb128 0x3c
 4079 03fc 2E       		.uleb128 0x2e
 4080 03fd 01       		.byte	0x1
 4081 03fe 3F       		.uleb128 0x3f
 4082 03ff 19       		.uleb128 0x19
 4083 0400 03       		.uleb128 0x3
 4084 0401 0E       		.uleb128 0xe
 4085 0402 3A       		.uleb128 0x3a
 4086 0403 0B       		.uleb128 0xb
 4087 0404 3B       		.uleb128 0x3b
 4088 0405 0B       		.uleb128 0xb
 4089 0406 39       		.uleb128 0x39
 4090 0407 0B       		.uleb128 0xb
 4091 0408 27       		.uleb128 0x27
 4092 0409 19       		.uleb128 0x19
 4093 040a 20       		.uleb128 0x20
 4094 040b 0B       		.uleb128 0xb
 4095 040c 01       		.uleb128 0x1
 4096 040d 13       		.uleb128 0x13
 4097 040e 00       		.byte	0
 4098 040f 00       		.byte	0
 4099 0410 3D       		.uleb128 0x3d
 4100 0411 0B       		.uleb128 0xb
 4101 0412 01       		.byte	0x1
 4102 0413 11       		.uleb128 0x11
 4103 0414 01       		.uleb128 0x1
 4104 0415 12       		.uleb128 0x12
 4105 0416 06       		.uleb128 0x6
 4106 0417 01       		.uleb128 0x1
 4107 0418 13       		.uleb128 0x13
 4108 0419 00       		.byte	0
 4109 041a 00       		.byte	0
 4110 041b 3E       		.uleb128 0x3e
 4111 041c 2E       		.uleb128 0x2e
 4112 041d 00       		.byte	0
GAS LISTING /tmp/ccZnfTtS.s 			page 74


 4113 041e 03       		.uleb128 0x3
 4114 041f 0E       		.uleb128 0xe
 4115 0420 3A       		.uleb128 0x3a
 4116 0421 0B       		.uleb128 0xb
 4117 0422 3B       		.uleb128 0x3b
 4118 0423 0B       		.uleb128 0xb
 4119 0424 39       		.uleb128 0x39
 4120 0425 0B       		.uleb128 0xb
 4121 0426 27       		.uleb128 0x27
 4122 0427 19       		.uleb128 0x19
 4123 0428 49       		.uleb128 0x49
 4124 0429 13       		.uleb128 0x13
 4125 042a 20       		.uleb128 0x20
 4126 042b 0B       		.uleb128 0xb
 4127 042c 00       		.byte	0
 4128 042d 00       		.byte	0
 4129 042e 3F       		.uleb128 0x3f
 4130 042f 2E       		.uleb128 0x2e
 4131 0430 00       		.byte	0
 4132 0431 03       		.uleb128 0x3
 4133 0432 0E       		.uleb128 0xe
 4134 0433 3A       		.uleb128 0x3a
 4135 0434 0B       		.uleb128 0xb
 4136 0435 3B       		.uleb128 0x3b
 4137 0436 05       		.uleb128 0x5
 4138 0437 39       		.uleb128 0x39
 4139 0438 0B       		.uleb128 0xb
 4140 0439 27       		.uleb128 0x27
 4141 043a 19       		.uleb128 0x19
 4142 043b 49       		.uleb128 0x49
 4143 043c 13       		.uleb128 0x13
 4144 043d 20       		.uleb128 0x20
 4145 043e 0B       		.uleb128 0xb
 4146 043f 00       		.byte	0
 4147 0440 00       		.byte	0
 4148 0441 40       		.uleb128 0x40
 4149 0442 2E       		.uleb128 0x2e
 4150 0443 01       		.byte	0x1
 4151 0444 03       		.uleb128 0x3
 4152 0445 0E       		.uleb128 0xe
 4153 0446 3A       		.uleb128 0x3a
 4154 0447 0B       		.uleb128 0xb
 4155 0448 3B       		.uleb128 0x3b
 4156 0449 0B       		.uleb128 0xb
 4157 044a 39       		.uleb128 0x39
 4158 044b 0B       		.uleb128 0xb
 4159 044c 27       		.uleb128 0x27
 4160 044d 19       		.uleb128 0x19
 4161 044e 20       		.uleb128 0x20
 4162 044f 0B       		.uleb128 0xb
 4163 0450 01       		.uleb128 0x1
 4164 0451 13       		.uleb128 0x13
 4165 0452 00       		.byte	0
 4166 0453 00       		.byte	0
 4167 0454 41       		.uleb128 0x41
 4168 0455 34       		.uleb128 0x34
 4169 0456 00       		.byte	0
GAS LISTING /tmp/ccZnfTtS.s 			page 75


 4170 0457 03       		.uleb128 0x3
 4171 0458 08       		.uleb128 0x8
 4172 0459 3A       		.uleb128 0x3a
 4173 045a 0B       		.uleb128 0xb
 4174 045b 3B       		.uleb128 0x3b
 4175 045c 0B       		.uleb128 0xb
 4176 045d 39       		.uleb128 0x39
 4177 045e 0B       		.uleb128 0xb
 4178 045f 49       		.uleb128 0x49
 4179 0460 13       		.uleb128 0x13
 4180 0461 00       		.byte	0
 4181 0462 00       		.byte	0
 4182 0463 42       		.uleb128 0x42
 4183 0464 34       		.uleb128 0x34
 4184 0465 00       		.byte	0
 4185 0466 03       		.uleb128 0x3
 4186 0467 08       		.uleb128 0x8
 4187 0468 3A       		.uleb128 0x3a
 4188 0469 0B       		.uleb128 0xb
 4189 046a 3B       		.uleb128 0x3b
 4190 046b 05       		.uleb128 0x5
 4191 046c 39       		.uleb128 0x39
 4192 046d 0B       		.uleb128 0xb
 4193 046e 49       		.uleb128 0x49
 4194 046f 13       		.uleb128 0x13
 4195 0470 00       		.byte	0
 4196 0471 00       		.byte	0
 4197 0472 43       		.uleb128 0x43
 4198 0473 2E       		.uleb128 0x2e
 4199 0474 01       		.byte	0x1
 4200 0475 31       		.uleb128 0x31
 4201 0476 13       		.uleb128 0x13
 4202 0477 11       		.uleb128 0x11
 4203 0478 01       		.uleb128 0x1
 4204 0479 12       		.uleb128 0x12
 4205 047a 06       		.uleb128 0x6
 4206 047b 40       		.uleb128 0x40
 4207 047c 18       		.uleb128 0x18
 4208 047d 7A       		.uleb128 0x7a
 4209 047e 19       		.uleb128 0x19
 4210 047f 00       		.byte	0
 4211 0480 00       		.byte	0
 4212 0481 44       		.uleb128 0x44
 4213 0482 05       		.uleb128 0x5
 4214 0483 00       		.byte	0
 4215 0484 31       		.uleb128 0x31
 4216 0485 13       		.uleb128 0x13
 4217 0486 02       		.uleb128 0x2
 4218 0487 18       		.uleb128 0x18
 4219 0488 00       		.byte	0
 4220 0489 00       		.byte	0
 4221 048a 00       		.byte	0
 4222              		.section	.debug_loclists,"",@progbits
 4223 0000 83010000 		.long	.Ldebug_loc3-.Ldebug_loc2
 4224              	.Ldebug_loc2:
 4225 0004 0500     		.value	0x5
 4226 0006 04       		.byte	0x4
GAS LISTING /tmp/ccZnfTtS.s 			page 76


 4227 0007 00       		.byte	0
 4228 0008 00000000 		.long	0
 4229              	.Ldebug_loc0:
 4230              	.LVUS36:
 4231 000c 00       		.uleb128 .LVU278
 4232 000d 00       		.uleb128 .LVU326
 4233              	.LLST36:
 4234 000e 08       		.byte	0x8
 4235 000f 1F000000 		.long	.LVL48
 4236 0013 63       		.uleb128 .LVL58-.LVL48
 4237 0014 01       		.uleb128 0x1
 4238 0015 56       		.byte	0x56
 4239 0016 00       		.byte	0
 4240              	.LVUS37:
 4241 0017 00       		.uleb128 .LVU283
 4242 0018 00       		.uleb128 .LVU327
 4243              	.LLST37:
 4244 0019 08       		.byte	0x8
 4245 001a 22000000 		.long	.LVL49
 4246 001e 61       		.uleb128 .LVL59-.LVL49
 4247 001f 01       		.uleb128 0x1
 4248 0020 57       		.byte	0x57
 4249 0021 00       		.byte	0
 4250              	.LVUS38:
 4251 0022 00       		.uleb128 .LVU319
 4252 0023 00       		.uleb128 .LVU322
 4253 0024 00       		.uleb128 .LVU322
 4254 0025 00       		.uleb128 .LVU325
 4255              	.LLST38:
 4256 0026 06       		.byte	0x6
 4257 0027 61000000 		.long	.LVL55
 4258 002b 04       		.byte	0x4
 4259 002c 00       		.uleb128 .LVL55-.LVL55
 4260 002d 14       		.uleb128 .LVL56-1-.LVL55
 4261 002e 01       		.uleb128 0x1
 4262 002f 50       		.byte	0x50
 4263 0030 04       		.byte	0x4
 4264 0031 14       		.uleb128 .LVL56-1-.LVL55
 4265 0032 1C       		.uleb128 .LVL57-.LVL55
 4266 0033 02       		.uleb128 0x2
 4267 0034 91       		.byte	0x91
 4268 0035 5C       		.sleb128 -36
 4269 0036 00       		.byte	0
 4270              	.LVUS41:
 4271 0037 01       		.uleb128 .LVU296
 4272 0038 00       		.uleb128 .LVU316
 4273              	.LLST41:
 4274 0039 08       		.byte	0x8
 4275 003a 2B000000 		.long	.LVL51
 4276 003e 2B       		.uleb128 .LVL54-.LVL51
 4277 003f 01       		.uleb128 0x1
 4278 0040 56       		.byte	0x56
 4279 0041 00       		.byte	0
 4280              	.LVUS42:
 4281 0042 01       		.uleb128 .LVU296
 4282 0043 00       		.uleb128 .LVU316
 4283              	.LLST42:
GAS LISTING /tmp/ccZnfTtS.s 			page 77


 4284 0044 08       		.byte	0x8
 4285 0045 2B000000 		.long	.LVL51
 4286 0049 2B       		.uleb128 .LVL54-.LVL51
 4287 004a 01       		.uleb128 0x1
 4288 004b 55       		.byte	0x55
 4289 004c 00       		.byte	0
 4290              	.LVUS43:
 4291 004d 03       		.uleb128 .LVU298
 4292 004e 00       		.uleb128 .LVU301
 4293 004f 00       		.uleb128 .LVU301
 4294 0050 00       		.uleb128 .LVU316
 4295              	.LLST43:
 4296 0051 06       		.byte	0x6
 4297 0052 2B000000 		.long	.LVL51
 4298 0056 04       		.byte	0x4
 4299 0057 00       		.uleb128 .LVL51-.LVL51
 4300 0058 07       		.uleb128 .LVL52-.LVL51
 4301 0059 01       		.uleb128 0x1
 4302 005a 55       		.byte	0x55
 4303 005b 04       		.byte	0x4
 4304 005c 07       		.uleb128 .LVL52-.LVL51
 4305 005d 2B       		.uleb128 .LVL54-.LVL51
 4306 005e 01       		.uleb128 0x1
 4307 005f 50       		.byte	0x50
 4308 0060 00       		.byte	0
 4309              	.LVUS44:
 4310 0061 00       		.uleb128 .LVU342
 4311 0062 00       		.uleb128 0
 4312              	.LLST44:
 4313 0063 08       		.byte	0x8
 4314 0064 27000000 		.long	.LVL61
 4315 0068 0B       		.uleb128 .LFE223-.LVL61
 4316 0069 01       		.uleb128 0x1
 4317 006a 50       		.byte	0x50
 4318 006b 00       		.byte	0
 4319              	.LVUS26:
 4320 006c 00       		.uleb128 .LVU197
 4321 006d 00       		.uleb128 .LVU239
 4322              	.LLST26:
 4323 006e 08       		.byte	0x8
 4324 006f 1F000000 		.long	.LVL33
 4325 0073 41       		.uleb128 .LVL41-.LVL33
 4326 0074 01       		.uleb128 0x1
 4327 0075 56       		.byte	0x56
 4328 0076 00       		.byte	0
 4329              	.LVUS27:
 4330 0077 00       		.uleb128 .LVU202
 4331 0078 00       		.uleb128 .LVU243
 4332              	.LLST27:
 4333 0079 08       		.byte	0x8
 4334 007a 22000000 		.long	.LVL34
 4335 007e 4E       		.uleb128 .LVL44-.LVL34
 4336 007f 01       		.uleb128 0x1
 4337 0080 57       		.byte	0x57
 4338 0081 00       		.byte	0
 4339              	.LVUS28:
 4340 0082 00       		.uleb128 .LVU239
GAS LISTING /tmp/ccZnfTtS.s 			page 78


 4341 0083 00       		.uleb128 .LVU242
 4342 0084 00       		.uleb128 .LVU242
 4343 0085 00       		.uleb128 0
 4344              	.LLST28:
 4345 0086 06       		.byte	0x6
 4346 0087 60000000 		.long	.LVL41
 4347 008b 04       		.byte	0x4
 4348 008c 00       		.uleb128 .LVL41-.LVL41
 4349 008d 0F       		.uleb128 .LVL43-.LVL41
 4350 008e 01       		.uleb128 0x1
 4351 008f 56       		.byte	0x56
 4352 0090 04       		.byte	0x4
 4353 0091 0F       		.uleb128 .LVL43-.LVL41
 4354 0092 12       		.uleb128 .LFE222-.LVL41
 4355 0093 01       		.uleb128 0x1
 4356 0094 50       		.byte	0x50
 4357 0095 00       		.byte	0
 4358              	.LVUS31:
 4359 0096 01       		.uleb128 .LVU215
 4360 0097 00       		.uleb128 .LVU235
 4361              	.LLST31:
 4362 0098 08       		.byte	0x8
 4363 0099 2B000000 		.long	.LVL36
 4364 009d 2B       		.uleb128 .LVL39-.LVL36
 4365 009e 01       		.uleb128 0x1
 4366 009f 56       		.byte	0x56
 4367 00a0 00       		.byte	0
 4368              	.LVUS32:
 4369 00a1 01       		.uleb128 .LVU215
 4370 00a2 00       		.uleb128 .LVU235
 4371              	.LLST32:
 4372 00a3 08       		.byte	0x8
 4373 00a4 2B000000 		.long	.LVL36
 4374 00a8 2B       		.uleb128 .LVL39-.LVL36
 4375 00a9 01       		.uleb128 0x1
 4376 00aa 55       		.byte	0x55
 4377 00ab 00       		.byte	0
 4378              	.LVUS33:
 4379 00ac 03       		.uleb128 .LVU217
 4380 00ad 00       		.uleb128 .LVU220
 4381 00ae 00       		.uleb128 .LVU220
 4382 00af 00       		.uleb128 .LVU235
 4383              	.LLST33:
 4384 00b0 06       		.byte	0x6
 4385 00b1 2B000000 		.long	.LVL36
 4386 00b5 04       		.byte	0x4
 4387 00b6 00       		.uleb128 .LVL36-.LVL36
 4388 00b7 07       		.uleb128 .LVL37-.LVL36
 4389 00b8 01       		.uleb128 0x1
 4390 00b9 55       		.byte	0x55
 4391 00ba 04       		.byte	0x4
 4392 00bb 07       		.uleb128 .LVL37-.LVL36
 4393 00bc 2B       		.uleb128 .LVL39-.LVL36
 4394 00bd 01       		.uleb128 0x1
 4395 00be 50       		.byte	0x50
 4396 00bf 00       		.byte	0
 4397              	.LVUS34:
GAS LISTING /tmp/ccZnfTtS.s 			page 79


 4398 00c0 00       		.uleb128 .LVU258
 4399 00c1 00       		.uleb128 0
 4400              	.LLST34:
 4401 00c2 08       		.byte	0x8
 4402 00c3 23000000 		.long	.LVL46
 4403 00c7 0B       		.uleb128 .LFE221-.LVL46
 4404 00c8 01       		.uleb128 0x1
 4405 00c9 50       		.byte	0x50
 4406 00ca 00       		.byte	0
 4407              	.LVUS14:
 4408 00cb 03       		.uleb128 .LVU109
 4409 00cc 00       		.uleb128 .LVU140
 4410              	.LLST14:
 4411 00cd 08       		.byte	0x8
 4412 00ce 20000000 		.long	.LVL16
 4413 00d2 28       		.uleb128 .LVL22-.LVL16
 4414 00d3 02       		.uleb128 0x2
 4415 00d4 91       		.byte	0x91
 4416 00d5 00       		.sleb128 0
 4417 00d6 00       		.byte	0
 4418              	.LVUS16:
 4419 00d7 0A       		.uleb128 .LVU116
 4420 00d8 0C       		.uleb128 .LVU118
 4421 00d9 01       		.uleb128 .LVU135
 4422 00da 00       		.uleb128 .LVU138
 4423              	.LLST16:
 4424 00db 06       		.byte	0x6
 4425 00dc 20000000 		.long	.LVL16
 4426 00e0 04       		.byte	0x4
 4427 00e1 00       		.uleb128 .LVL16-.LVL16
 4428 00e2 00       		.uleb128 .LVL16-.LVL16
 4429 00e3 02       		.uleb128 0x2
 4430 00e4 91       		.byte	0x91
 4431 00e5 00       		.sleb128 0
 4432 00e6 04       		.byte	0x4
 4433 00e7 22       		.uleb128 .LVL20-.LVL16
 4434 00e8 24       		.uleb128 .LVL21-.LVL16
 4435 00e9 02       		.uleb128 0x2
 4436 00ea 91       		.byte	0x91
 4437 00eb 00       		.sleb128 0
 4438 00ec 00       		.byte	0
 4439              	.LVUS18:
 4440 00ed 01       		.uleb128 .LVU121
 4441 00ee 01       		.uleb128 .LVU130
 4442              	.LLST18:
 4443 00ef 08       		.byte	0x8
 4444 00f0 28000000 		.long	.LVL17
 4445 00f4 0A       		.uleb128 .LVL18-.LVL17
 4446 00f5 02       		.uleb128 0x2
 4447 00f6 91       		.byte	0x91
 4448 00f7 00       		.sleb128 0
 4449 00f8 00       		.byte	0
 4450              	.LVUS19:
 4451 00f9 03       		.uleb128 .LVU123
 4452 00fa 01       		.uleb128 .LVU130
 4453              	.LLST19:
 4454 00fb 08       		.byte	0x8
GAS LISTING /tmp/ccZnfTtS.s 			page 80


 4455 00fc 28000000 		.long	.LVL17
 4456 0100 0A       		.uleb128 .LVL18-.LVL17
 4457 0101 01       		.uleb128 0x1
 4458 0102 50       		.byte	0x50
 4459 0103 00       		.byte	0
 4460              	.LVUS8:
 4461 0104 01       		.uleb128 .LVU88
 4462 0105 00       		.uleb128 .LVU93
 4463              	.LLST8:
 4464 0106 08       		.byte	0x8
 4465 0107 23000000 		.long	.LVL13
 4466 010b 0C       		.uleb128 .LVL14-1-.LVL13
 4467 010c 01       		.uleb128 0x1
 4468 010d 52       		.byte	0x52
 4469 010e 00       		.byte	0
 4470              	.LVUS10:
 4471 010f 01       		.uleb128 .LVU79
 4472 0110 01       		.uleb128 .LVU88
 4473              	.LLST10:
 4474 0111 08       		.byte	0x8
 4475 0112 19000000 		.long	.LVL12
 4476 0116 0A       		.uleb128 .LVL13-.LVL12
 4477 0117 01       		.uleb128 0x1
 4478 0118 50       		.byte	0x50
 4479 0119 00       		.byte	0
 4480              	.LVUS11:
 4481 011a 03       		.uleb128 .LVU81
 4482 011b 01       		.uleb128 .LVU88
 4483              	.LLST11:
 4484 011c 08       		.byte	0x8
 4485 011d 19000000 		.long	.LVL12
 4486 0121 0A       		.uleb128 .LVL13-.LVL12
 4487 0122 01       		.uleb128 0x1
 4488 0123 52       		.byte	0x52
 4489 0124 00       		.byte	0
 4490              	.LVUS7:
 4491 0125 00       		.uleb128 .LVU73
 4492 0126 00       		.uleb128 .LVU76
 4493              	.LLST7:
 4494 0127 08       		.byte	0x8
 4495 0128 13000000 		.long	.LVL10
 4496 012c 02       		.uleb128 .LVL11-.LVL10
 4497 012d 01       		.uleb128 0x1
 4498 012e 50       		.byte	0x50
 4499 012f 00       		.byte	0
 4500              	.LVUS3:
 4501 0130 03       		.uleb128 .LVU37
 4502 0131 05       		.uleb128 .LVU39
 4503              	.LLST3:
 4504 0132 08       		.byte	0x8
 4505 0133 22000000 		.long	.LVL5
 4506 0137 00       		.uleb128 .LVL5-.LVL5
 4507 0138 01       		.uleb128 0x1
 4508 0139 50       		.byte	0x50
 4509 013a 00       		.byte	0
 4510              	.LVUS5:
 4511 013b 01       		.uleb128 .LVU42
GAS LISTING /tmp/ccZnfTtS.s 			page 81


 4512 013c 01       		.uleb128 .LVU51
 4513              	.LLST5:
 4514 013d 08       		.byte	0x8
 4515 013e 26000000 		.long	.LVL6
 4516 0142 0A       		.uleb128 .LVL7-.LVL6
 4517 0143 01       		.uleb128 0x1
 4518 0144 50       		.byte	0x50
 4519 0145 00       		.byte	0
 4520              	.LVUS6:
 4521 0146 03       		.uleb128 .LVU44
 4522 0147 01       		.uleb128 .LVU51
 4523              	.LLST6:
 4524 0148 08       		.byte	0x8
 4525 0149 26000000 		.long	.LVL6
 4526 014d 0A       		.uleb128 .LVL7-.LVL6
 4527 014e 01       		.uleb128 0x1
 4528 014f 52       		.byte	0x52
 4529 0150 00       		.byte	0
 4530              	.LVUS0:
 4531 0151 00       		.uleb128 .LVU6
 4532 0152 00       		.uleb128 .LVU11
 4533              	.LLST0:
 4534 0153 08       		.byte	0x8
 4535 0154 04000000 		.long	.LVL1
 4536 0158 05       		.uleb128 .LVL2-.LVL1
 4537 0159 02       		.uleb128 0x2
 4538 015a 91       		.byte	0x91
 4539 015b 00       		.sleb128 0
 4540 015c 00       		.byte	0
 4541              	.LVUS22:
 4542 015d 00       		.uleb128 .LVU164
 4543 015e 00       		.uleb128 .LVU167
 4544 015f 01       		.uleb128 .LVU184
 4545 0160 00       		.uleb128 .LVU187
 4546              	.LLST22:
 4547 0161 06       		.byte	0x6
 4548 0162 14000000 		.long	.LVL25
 4549 0166 04       		.byte	0x4
 4550 0167 00       		.uleb128 .LVL25-.LVL25
 4551 0168 02       		.uleb128 .LVL26-.LVL25
 4552 0169 01       		.uleb128 0x1
 4553 016a 56       		.byte	0x56
 4554 016b 04       		.byte	0x4
 4555 016c 26       		.uleb128 .LVL30-.LVL25
 4556 016d 28       		.uleb128 .LVL31-.LVL25
 4557 016e 01       		.uleb128 0x1
 4558 016f 56       		.byte	0x56
 4559 0170 00       		.byte	0
 4560              	.LVUS24:
 4561 0171 01       		.uleb128 .LVU170
 4562 0172 01       		.uleb128 .LVU179
 4563              	.LLST24:
 4564 0173 08       		.byte	0x8
 4565 0174 20000000 		.long	.LVL27
 4566 0178 0A       		.uleb128 .LVL28-.LVL27
 4567 0179 01       		.uleb128 0x1
 4568 017a 56       		.byte	0x56
GAS LISTING /tmp/ccZnfTtS.s 			page 82


 4569 017b 00       		.byte	0
 4570              	.LVUS25:
 4571 017c 03       		.uleb128 .LVU172
 4572 017d 01       		.uleb128 .LVU179
 4573              	.LLST25:
 4574 017e 08       		.byte	0x8
 4575 017f 20000000 		.long	.LVL27
 4576 0183 0A       		.uleb128 .LVL28-.LVL27
 4577 0184 01       		.uleb128 0x1
 4578 0185 50       		.byte	0x50
 4579 0186 00       		.byte	0
 4580              	.Ldebug_loc3:
 4581              		.section	.debug_aranges,"",@progbits
 4582 0000 64000000 		.long	0x64
 4583 0004 0200     		.value	0x2
 4584 0006 00000000 		.long	.Ldebug_info0
 4585 000a 04       		.byte	0x4
 4586 000b 00       		.byte	0
 4587 000c 0000     		.value	0
 4588 000e 0000     		.value	0
 4589 0010 00000000 		.long	.LFB215
 4590 0014 0A000000 		.long	.LFE215-.LFB215
 4591 0018 00000000 		.long	.LFB216
 4592 001c 01000000 		.long	.LFE216-.LFB216
 4593 0020 00000000 		.long	.LFB217
 4594 0024 47000000 		.long	.LFE217-.LFB217
 4595 0028 00000000 		.long	.LFB218
 4596 002c 38000000 		.long	.LFE218-.LFB218
 4597 0030 00000000 		.long	.LFB219
 4598 0034 57000000 		.long	.LFE219-.LFB219
 4599 0038 00000000 		.long	.LFB220
 4600 003c 46000000 		.long	.LFE220-.LFB220
 4601 0040 00000000 		.long	.LFB222
 4602 0044 72000000 		.long	.LFE222-.LFB222
 4603 0048 00000000 		.long	.LFB221
 4604 004c 2E000000 		.long	.LFE221-.LFB221
 4605 0050 00000000 		.long	.LFB224
 4606 0054 85000000 		.long	.LFE224-.LFB224
 4607 0058 00000000 		.long	.LFB223
 4608 005c 32000000 		.long	.LFE223-.LFB223
 4609 0060 00000000 		.long	0
 4610 0064 00000000 		.long	0
 4611              		.section	.debug_rnglists,"",@progbits
 4612              	.Ldebug_ranges0:
 4613 0000 1B010000 		.long	.Ldebug_ranges3-.Ldebug_ranges2
 4614              	.Ldebug_ranges2:
 4615 0004 0500     		.value	0x5
 4616 0006 04       		.byte	0x4
 4617 0007 00       		.byte	0
 4618 0008 00000000 		.long	0
 4619              	.LLRL1:
 4620 000c 05       		.byte	0x5
 4621 000d 00000000 		.long	.LBB69
 4622 0011 04       		.byte	0x4
 4623 0012 00       		.uleb128 .LBB69-.LBB69
 4624 0013 00       		.uleb128 .LBE69-.LBB69
 4625 0014 04       		.byte	0x4
GAS LISTING /tmp/ccZnfTtS.s 			page 83


 4626 0015 16       		.uleb128 .LBB77-.LBB69
 4627 0016 22       		.uleb128 .LBE77-.LBB69
 4628 0017 00       		.byte	0
 4629              	.LLRL2:
 4630 0018 05       		.byte	0x5
 4631 0019 14000000 		.long	.LBB74
 4632 001d 04       		.byte	0x4
 4633 001e 00       		.uleb128 .LBB74-.LBB74
 4634 001f 02       		.uleb128 .LBE74-.LBB74
 4635 0020 04       		.byte	0x4
 4636 0021 0E       		.uleb128 .LBB78-.LBB74
 4637 0022 0E       		.uleb128 .LBE78-.LBB74
 4638 0023 00       		.byte	0
 4639              	.LLRL4:
 4640 0024 05       		.byte	0x5
 4641 0025 26000000 		.long	.LBB79
 4642 0029 04       		.byte	0x4
 4643 002a 00       		.uleb128 .LBB79-.LBB79
 4644 002b 02       		.uleb128 .LBE79-.LBB79
 4645 002c 04       		.byte	0x4
 4646 002d 05       		.uleb128 .LBB82-.LBB79
 4647 002e 0A       		.uleb128 .LBE82-.LBB79
 4648 002f 00       		.byte	0
 4649              	.LLRL9:
 4650 0030 05       		.byte	0x5
 4651 0031 19000000 		.long	.LBB90
 4652 0035 04       		.byte	0x4
 4653 0036 00       		.uleb128 .LBB90-.LBB90
 4654 0037 02       		.uleb128 .LBE90-.LBB90
 4655 0038 04       		.byte	0x4
 4656 0039 05       		.uleb128 .LBB93-.LBB90
 4657 003a 0A       		.uleb128 .LBE93-.LBB90
 4658 003b 00       		.byte	0
 4659              	.LLRL12:
 4660 003c 05       		.byte	0x5
 4661 003d 00000000 		.long	.LBB107
 4662 0041 04       		.byte	0x4
 4663 0042 00       		.uleb128 .LBB107-.LBB107
 4664 0043 00       		.uleb128 .LBE107-.LBB107
 4665 0044 04       		.byte	0x4
 4666 0045 14       		.uleb128 .LBB125-.LBB107
 4667 0046 20       		.uleb128 .LBE125-.LBB107
 4668 0047 00       		.byte	0
 4669              	.LLRL13:
 4670 0048 05       		.byte	0x5
 4671 0049 12000000 		.long	.LBB112
 4672 004d 04       		.byte	0x4
 4673 004e 00       		.uleb128 .LBB112-.LBB112
 4674 004f 02       		.uleb128 .LBE112-.LBB112
 4675 0050 04       		.byte	0x4
 4676 0051 0E       		.uleb128 .LBB126-.LBB112
 4677 0052 36       		.uleb128 .LBE126-.LBB112
 4678 0053 00       		.byte	0
 4679              	.LLRL15:
 4680 0054 05       		.byte	0x5
 4681 0055 12000000 		.long	.LBB114
 4682 0059 04       		.byte	0x4
GAS LISTING /tmp/ccZnfTtS.s 			page 84


 4683 005a 00       		.uleb128 .LBB114-.LBB114
 4684 005b 02       		.uleb128 .LBE114-.LBB114
 4685 005c 04       		.byte	0x4
 4686 005d 0E       		.uleb128 .LBB118-.LBB114
 4687 005e 0E       		.uleb128 .LBE118-.LBB114
 4688 005f 04       		.byte	0x4
 4689 0060 30       		.uleb128 .LBB123-.LBB114
 4690 0061 32       		.uleb128 .LBE123-.LBB114
 4691 0062 00       		.byte	0
 4692              	.LLRL17:
 4693 0063 05       		.byte	0x5
 4694 0064 28000000 		.long	.LBB119
 4695 0068 04       		.byte	0x4
 4696 0069 00       		.uleb128 .LBB119-.LBB119
 4697 006a 02       		.uleb128 .LBE119-.LBB119
 4698 006b 04       		.byte	0x4
 4699 006c 05       		.uleb128 .LBB122-.LBB119
 4700 006d 0A       		.uleb128 .LBE122-.LBB119
 4701 006e 00       		.byte	0
 4702              	.LLRL20:
 4703 006f 05       		.byte	0x5
 4704 0070 4D000000 		.long	.LBB127
 4705 0074 04       		.byte	0x4
 4706 0075 00       		.uleb128 .LBB127-.LBB127
 4707 0076 00       		.uleb128 .LBE127-.LBB127
 4708 0077 04       		.byte	0x4
 4709 0078 02       		.uleb128 .LBB134-.LBB127
 4710 0079 08       		.uleb128 .LBE134-.LBB127
 4711 007a 00       		.byte	0
 4712              	.LLRL21:
 4713 007b 05       		.byte	0x5
 4714 007c 14000000 		.long	.LBB135
 4715 0080 04       		.byte	0x4
 4716 0081 00       		.uleb128 .LBB135-.LBB135
 4717 0082 02       		.uleb128 .LBE135-.LBB135
 4718 0083 04       		.byte	0x4
 4719 0084 26       		.uleb128 .LBB142-.LBB135
 4720 0085 28       		.uleb128 .LBE142-.LBB135
 4721 0086 00       		.byte	0
 4722              	.LLRL23:
 4723 0087 05       		.byte	0x5
 4724 0088 20000000 		.long	.LBB138
 4725 008c 04       		.byte	0x4
 4726 008d 00       		.uleb128 .LBB138-.LBB138
 4727 008e 02       		.uleb128 .LBE138-.LBB138
 4728 008f 04       		.byte	0x4
 4729 0090 05       		.uleb128 .LBB141-.LBB138
 4730 0091 0A       		.uleb128 .LBE141-.LBB138
 4731 0092 00       		.byte	0
 4732              	.LLRL29:
 4733 0093 05       		.byte	0x5
 4734 0094 00000000 		.long	.LBB149
 4735 0098 04       		.byte	0x4
 4736 0099 00       		.uleb128 .LBB149-.LBB149
 4737 009a 00       		.uleb128 .LBE149-.LBB149
 4738 009b 04       		.byte	0x4
 4739 009c 16       		.uleb128 .LBB152-.LBB149
GAS LISTING /tmp/ccZnfTtS.s 			page 85


 4740 009d 1F       		.uleb128 .LBE152-.LBB149
 4741 009e 00       		.byte	0
 4742              	.LLRL30:
 4743 009f 05       		.byte	0x5
 4744 00a0 2B000000 		.long	.LBB155
 4745 00a4 04       		.byte	0x4
 4746 00a5 00       		.uleb128 .LBB155-.LBB155
 4747 00a6 00       		.uleb128 .LBE155-.LBB155
 4748 00a7 04       		.byte	0x4
 4749 00a8 03       		.uleb128 .LBB159-.LBB155
 4750 00a9 1E       		.uleb128 .LBE159-.LBB155
 4751 00aa 04       		.byte	0x4
 4752 00ab 21       		.uleb128 .LBB160-.LBB155
 4753 00ac 2B       		.uleb128 .LBE160-.LBB155
 4754 00ad 00       		.byte	0
 4755              	.LLRL35:
 4756 00ae 05       		.byte	0x5
 4757 00af 00000000 		.long	.LBB161
 4758 00b3 04       		.byte	0x4
 4759 00b4 00       		.uleb128 .LBB161-.LBB161
 4760 00b5 0A       		.uleb128 .LBE161-.LBB161
 4761 00b6 04       		.byte	0x4
 4762 00b7 12       		.uleb128 .LBB166-.LBB161
 4763 00b8 1E       		.uleb128 .LBE166-.LBB161
 4764 00b9 00       		.byte	0
 4765              	.LLRL39:
 4766 00ba 05       		.byte	0x5
 4767 00bb 00000000 		.long	.LBB177
 4768 00bf 04       		.byte	0x4
 4769 00c0 00       		.uleb128 .LBB177-.LBB177
 4770 00c1 00       		.uleb128 .LBE177-.LBB177
 4771 00c2 04       		.byte	0x4
 4772 00c3 16       		.uleb128 .LBB180-.LBB177
 4773 00c4 1F       		.uleb128 .LBE180-.LBB177
 4774 00c5 00       		.byte	0
 4775              	.LLRL40:
 4776 00c6 05       		.byte	0x5
 4777 00c7 2B000000 		.long	.LBB183
 4778 00cb 04       		.byte	0x4
 4779 00cc 00       		.uleb128 .LBB183-.LBB183
 4780 00cd 00       		.uleb128 .LBE183-.LBB183
 4781 00ce 04       		.byte	0x4
 4782 00cf 03       		.uleb128 .LBB187-.LBB183
 4783 00d0 1E       		.uleb128 .LBE187-.LBB183
 4784 00d1 04       		.byte	0x4
 4785 00d2 21       		.uleb128 .LBB188-.LBB183
 4786 00d3 2B       		.uleb128 .LBE188-.LBB183
 4787 00d4 00       		.byte	0
 4788              	.LLRL45:
 4789 00d5 05       		.byte	0x5
 4790 00d6 00000000 		.long	.LBB189
 4791 00da 04       		.byte	0x4
 4792 00db 00       		.uleb128 .LBB189-.LBB189
 4793 00dc 0A       		.uleb128 .LBE189-.LBB189
 4794 00dd 04       		.byte	0x4
 4795 00de 16       		.uleb128 .LBB194-.LBB189
 4796 00df 22       		.uleb128 .LBE194-.LBB189
GAS LISTING /tmp/ccZnfTtS.s 			page 86


 4797 00e0 00       		.byte	0
 4798              	.LLRL46:
 4799 00e1 07       		.byte	0x7
 4800 00e2 00000000 		.long	.LFB215
 4801 00e6 0A       		.uleb128 .LFE215-.LFB215
 4802 00e7 07       		.byte	0x7
 4803 00e8 00000000 		.long	.LFB216
 4804 00ec 01       		.uleb128 .LFE216-.LFB216
 4805 00ed 07       		.byte	0x7
 4806 00ee 00000000 		.long	.LFB217
 4807 00f2 47       		.uleb128 .LFE217-.LFB217
 4808 00f3 07       		.byte	0x7
 4809 00f4 00000000 		.long	.LFB218
 4810 00f8 38       		.uleb128 .LFE218-.LFB218
 4811 00f9 07       		.byte	0x7
 4812 00fa 00000000 		.long	.LFB219
 4813 00fe 57       		.uleb128 .LFE219-.LFB219
 4814 00ff 07       		.byte	0x7
 4815 0100 00000000 		.long	.LFB220
 4816 0104 46       		.uleb128 .LFE220-.LFB220
 4817 0105 07       		.byte	0x7
 4818 0106 00000000 		.long	.LFB222
 4819 010a 72       		.uleb128 .LFE222-.LFB222
 4820 010b 07       		.byte	0x7
 4821 010c 00000000 		.long	.LFB221
 4822 0110 2E       		.uleb128 .LFE221-.LFB221
 4823 0111 07       		.byte	0x7
 4824 0112 00000000 		.long	.LFB224
 4825 0116 8501     		.uleb128 .LFE224-.LFB224
 4826 0118 07       		.byte	0x7
 4827 0119 00000000 		.long	.LFB223
 4828 011d 32       		.uleb128 .LFE223-.LFB223
 4829 011e 00       		.byte	0
 4830              	.Ldebug_ranges3:
 4831              		.section	.debug_line,"",@progbits
 4832              	.Ldebug_line0:
 4833 0000 E8060000 		.section	.debug_str,"MS",@progbits,1
 4833      05000400 
 4833      93000000 
 4833      010101FB 
 4833      0E0D0001 
 4834              	.LASF109:
 4835 0000 63737461 		.string	"cstack_base"
 4835      636B5F62 
 4835      61736500 
 4836              	.LASF101:
 4837 000c 77746D74 		.string	"wtmtxp"
 4837      787000
 4838              	.LASF133:
 4839 0013 6368436F 		.string	"chCondSignalI"
 4839      6E645369 
 4839      676E616C 
 4839      4900
 4840              	.LASF40:
 4841 0021 64697370 		.string	"dispose"
 4841      6F736500 
 4842              	.LASF88:
GAS LISTING /tmp/ccZnfTtS.s 			page 87


 4843 0029 63685F72 		.string	"ch_registry"
 4843      65676973 
 4843      74727900 
 4844              	.LASF36:
 4845 0035 666C6167 		.string	"flags"
 4845      7300
 4846              	.LASF65:
 4847 003b 73797374 		.string	"systime_t"
 4847      696D655F 
 4847      7400
 4848              	.LASF46:
 4849 0045 7265616C 		.string	"realprio"
 4849      7072696F 
 4849      00
 4850              	.LASF117:
 4851 004e 636F6E64 		.string	"condition_variable_t"
 4851      6974696F 
 4851      6E5F7661 
 4851      72696162 
 4851      6C655F74 
 4852              	.LASF44:
 4853 0063 6570656E 		.string	"epending"
 4853      64696E67 
 4853      00
 4854              	.LASF2:
 4855 006c 756E7369 		.string	"unsigned int"
 4855      676E6564 
 4855      20696E74 
 4855      00
 4856              	.LASF69:
 4857 0079 6E657874 		.string	"next"
 4857      00
 4858              	.LASF8:
 4859 007e 5F466C6F 		.string	"_Float128"
 4859      61743132 
 4859      3800
 4860              	.LASF22:
 4861 0088 73797373 		.string	"syssts_t"
 4861      74735F74 
 4861      00
 4862              	.LASF53:
 4863 0091 636F7265 		.string	"core_id"
 4863      5F696400 
 4864              	.LASF14:
 4865 0099 5F5F696E 		.string	"__int32_t"
 4865      7433325F 
 4865      7400
 4866              	.LASF37:
 4867 00a3 72656673 		.string	"refs"
 4867      00
 4868              	.LASF97:
 4869 00a8 77746F62 		.string	"wtobjp"
 4869      6A7000
 4870              	.LASF143:
 4871 00af 706F7274 		.string	"port_lock"
 4871      5F6C6F63 
 4871      6B00
GAS LISTING /tmp/ccZnfTtS.s 			page 88


 4872              	.LASF51:
 4873 00b9 76746C69 		.string	"vtlist"
 4873      737400
 4874              	.LASF81:
 4875 00c0 706F7274 		.string	"port_context"
 4875      5F636F6E 
 4875      74657874 
 4875      00
 4876              	.LASF105:
 4877 00cd 63685F72 		.string	"ch_ready_list"
 4877      65616479 
 4877      5F6C6973 
 4877      7400
 4878              	.LASF68:
 4879 00db 63685F6C 		.string	"ch_list"
 4879      69737400 
 4880              	.LASF104:
 4881 00e3 63685F6D 		.string	"ch_mutex"
 4881      75746578 
 4881      00
 4882              	.LASF86:
 4883 00ec 6C617374 		.string	"laststamp"
 4883      7374616D 
 4883      7000
 4884              	.LASF102:
 4885 00f6 65776D61 		.string	"ewmask"
 4885      736B00
 4886              	.LASF72:
 4887 00fd 70726576 		.string	"prev"
 4887      00
 4888              	.LASF122:
 4889 0102 63685363 		.string	"chSchReadyI"
 4889      68526561 
 4889      64794900 
 4890              	.LASF62:
 4891 010e 63685F73 		.string	"ch_system_debug"
 4891      79737465 
 4891      6D5F6465 
 4891      62756700 
 4892              	.LASF93:
 4893 011e 6C697374 		.string	"list"
 4893      00
 4894              	.LASF136:
 4895 0123 6368436F 		.string	"chCondObjectInit"
 4895      6E644F62 
 4895      6A656374 
 4895      496E6974 
 4895      00
 4896              	.LASF77:
 4897 0134 63685F64 		.string	"ch_delta_list"
 4897      656C7461 
 4897      5F6C6973 
 4897      7400
 4898              	.LASF20:
 4899 0142 75696E74 		.string	"uint32_t"
 4899      33325F74 
 4899      00
GAS LISTING /tmp/ccZnfTtS.s 			page 89


 4900              	.LASF99:
 4901 014b 73656E74 		.string	"sentmsg"
 4901      6D736700 
 4902              	.LASF28:
 4903 0153 6576656E 		.string	"eventmask_t"
 4903      746D6173 
 4903      6B5F7400 
 4904              	.LASF103:
 4905 015f 63685F73 		.string	"ch_semaphore"
 4905      656D6170 
 4905      686F7265 
 4905      00
 4906              	.LASF26:
 4907 016c 74707269 		.string	"tprio_t"
 4907      6F5F7400 
 4908              	.LASF113:
 4909 0174 6F735F69 		.string	"os_instance_config_t"
 4909      6E737461 
 4909      6E63655F 
 4909      636F6E66 
 4909      69675F74 
 4910              	.LASF130:
 4911 0189 6368436F 		.string	"chCondWait"
 4911      6E645761 
 4911      697400
 4912              	.LASF17:
 4913 0194 6C6F6E67 		.string	"long long unsigned int"
 4913      206C6F6E 
 4913      6720756E 
 4913      7369676E 
 4913      65642069 
 4914              	.LASF94:
 4915 01ab 70717565 		.string	"pqueue"
 4915      756500
 4916              	.LASF29:
 4917 01b2 636E745F 		.string	"cnt_t"
 4917      7400
 4918              	.LASF148:
 4919 01b8 73746B6C 		.string	"stkline_t"
 4919      696E655F 
 4919      7400
 4920              	.LASF140:
 4921 01c2 63685379 		.string	"chSysUnlock"
 4921      73556E6C 
 4921      6F636B00 
 4922              	.LASF138:
 4923 01ce 63685468 		.string	"chThdGetSelfX"
 4923      64476574 
 4923      53656C66 
 4923      5800
 4924              	.LASF32:
 4925 01dc 6F776E65 		.string	"owner"
 4925      7200
 4926              	.LASF45:
 4927 01e2 6D74786C 		.string	"mtxlist"
 4927      69737400 
 4928              	.LASF83:
GAS LISTING /tmp/ccZnfTtS.s 			page 90


 4929 01ea 63685F76 		.string	"ch_virtual_timers_list"
 4929      69727475 
 4929      616C5F74 
 4929      696D6572 
 4929      735F6C69 
 4930              	.LASF54:
 4931 0201 72666375 		.string	"rfcu"
 4931      00
 4932              	.LASF31:
 4933 0206 74687265 		.string	"thread_t"
 4933      61645F74 
 4933      00
 4934              	.LASF95:
 4935 020f 7264796D 		.string	"rdymsg"
 4935      736700
 4936              	.LASF73:
 4937 0216 63685F70 		.string	"ch_priority_queue_t"
 4937      72696F72 
 4937      6974795F 
 4937      71756575 
 4937      655F7400 
 4938              	.LASF82:
 4939 022a 5F426F6F 		.string	"_Bool"
 4939      6C00
 4940              	.LASF114:
 4941 0230 706F7274 		.string	"port_irq_sts"
 4941      5F697271 
 4941      5F737473 
 4941      00
 4942              	.LASF41:
 4943 023d 6F626A65 		.string	"object"
 4943      637400
 4944              	.LASF116:
 4945 0244 636F6E64 		.string	"condition_variable"
 4945      6974696F 
 4945      6E5F7661 
 4945      72696162 
 4945      6C6500
 4946              	.LASF59:
 4947 0257 63685F72 		.string	"ch_rfcu"
 4947      66637500 
 4948              	.LASF16:
 4949 025f 5F5F7569 		.string	"__uint64_t"
 4949      6E743634 
 4949      5F7400
 4950              	.LASF125:
 4951 026a 63757272 		.string	"currtp"
 4951      747000
 4952              	.LASF149:
 4953 0271 63685363 		.string	"chSchRescheduleS"
 4953      68526573 
 4953      63686564 
 4953      756C6553 
 4953      00
 4954              	.LASF49:
 4955 0282 63685F6F 		.string	"ch_os_instance"
 4955      735F696E 
GAS LISTING /tmp/ccZnfTtS.s 			page 91


 4955      7374616E 
 4955      636500
 4956              	.LASF132:
 4957 0291 6368436F 		.string	"chCondBroadcast"
 4957      6E644272 
 4957      6F616463 
 4957      61737400 
 4958              	.LASF131:
 4959 02a1 6368436F 		.string	"chCondBroadcastI"
 4959      6E644272 
 4959      6F616463 
 4959      61737449 
 4959      00
 4960              	.LASF141:
 4961 02b2 63685379 		.string	"chSysLock"
 4961      734C6F63 
 4961      6B00
 4962              	.LASF75:
 4963 02bc 7072696F 		.string	"prio"
 4963      00
 4964              	.LASF144:
 4965 02c1 63685F71 		.string	"ch_queue_fifo_remove"
 4965      75657565 
 4965      5F666966 
 4965      6F5F7265 
 4965      6D6F7665 
 4966              	.LASF4:
 4967 02d6 63686172 		.string	"char"
 4967      00
 4968              	.LASF76:
 4969 02db 63685F64 		.string	"ch_delta_list_t"
 4969      656C7461 
 4969      5F6C6973 
 4969      745F7400 
 4970              	.LASF58:
 4971 02eb 72666375 		.string	"rfcu_mask_t"
 4971      5F6D6173 
 4971      6B5F7400 
 4972              	.LASF127:
 4973 02f7 6368436F 		.string	"chCondWaitTimeout"
 4973      6E645761 
 4973      69745469 
 4973      6D656F75 
 4973      7400
 4974              	.LASF91:
 4975 0309 74687265 		.string	"thread_reference_t"
 4975      61645F72 
 4975      65666572 
 4975      656E6365 
 4975      5F7400
 4976              	.LASF33:
 4977 031c 77616261 		.string	"wabase"
 4977      736500
 4978              	.LASF24:
 4979 0323 74737461 		.string	"tstate_t"
 4979      74655F74 
 4979      00
GAS LISTING /tmp/ccZnfTtS.s 			page 92


 4980              	.LASF39:
 4981 032c 72717565 		.string	"rqueue"
 4981      756500
 4982              	.LASF19:
 4983 0333 75696E74 		.string	"uint8_t"
 4983      385F7400 
 4984              	.LASF43:
 4985 033b 6D736771 		.string	"msgqueue"
 4985      75657565 
 4985      00
 4986              	.LASF48:
 4987 0344 63685F74 		.string	"ch_thread"
 4987      68726561 
 4987      6400
 4988              	.LASF64:
 4989 034e 73797374 		.string	"system_debug_t"
 4989      656D5F64 
 4989      65627567 
 4989      5F7400
 4990              	.LASF6:
 4991 035d 6C6F6E67 		.string	"long long int"
 4991      206C6F6E 
 4991      6720696E 
 4991      7400
 4992              	.LASF27:
 4993 036b 6D73675F 		.string	"msg_t"
 4993      7400
 4994              	.LASF90:
 4995 0371 72656769 		.string	"registry_t"
 4995      73747279 
 4995      5F7400
 4996              	.LASF134:
 4997 037c 6368436F 		.string	"chCondSignal"
 4997      6E645369 
 4997      676E616C 
 4997      00
 4998              	.LASF112:
 4999 0389 69646C65 		.string	"idlestack_end"
 4999      73746163 
 4999      6B5F656E 
 4999      6400
 5000              	.LASF60:
 5001 0397 6D61736B 		.string	"mask"
 5001      00
 5002              	.LASF92:
 5003 039c 74687265 		.string	"thread_dispose_t"
 5003      61645F64 
 5003      6973706F 
 5003      73655F74 
 5003      00
 5004              	.LASF139:
 5005 03ad 63685F73 		.string	"ch_sch_prio_insert"
 5005      63685F70 
 5005      72696F5F 
 5005      696E7365 
 5005      727400
 5006              	.LASF66:
GAS LISTING /tmp/ccZnfTtS.s 			page 93


 5007 03c0 73797369 		.string	"sysinterval_t"
 5007      6E746572 
 5007      76616C5F 
 5007      7400
 5008              	.LASF70:
 5009 03ce 63685F71 		.string	"ch_queue_t"
 5009      75657565 
 5009      5F7400
 5010              	.LASF63:
 5011 03d9 70616E69 		.string	"panic_msg"
 5011      635F6D73 
 5011      6700
 5012              	.LASF111:
 5013 03e3 69646C65 		.string	"idlestack_base"
 5013      73746163 
 5013      6B5F6261 
 5013      736500
 5014              	.LASF23:
 5015 03f2 746D6F64 		.string	"tmode_t"
 5015      655F7400 
 5016              	.LASF85:
 5017 03fa 73797374 		.string	"systime"
 5017      696D6500 
 5018              	.LASF56:
 5019 0402 69646C65 		.string	"idlethread"
 5019      74687265 
 5019      616400
 5020              	.LASF7:
 5021 040d 6C6F6E67 		.string	"long double"
 5021      20646F75 
 5021      626C6500 
 5022              	.LASF67:
 5023 0419 63685F6C 		.string	"ch_list_t"
 5023      6973745F 
 5023      7400
 5024              	.LASF55:
 5025 0423 636F6E66 		.string	"config"
 5025      696700
 5026              	.LASF12:
 5027 042a 73686F72 		.string	"short int"
 5027      7420696E 
 5027      7400
 5028              	.LASF5:
 5029 0434 6C6F6E67 		.string	"long int"
 5029      20696E74 
 5029      00
 5030              	.LASF80:
 5031 043d 706F7274 		.string	"port_intctx"
 5031      5F696E74 
 5031      63747800 
 5032              	.LASF147:
 5033 0449 474E5520 		.string	"GNU C17 11.4.0 -m32 -mtune=generic -march=i686 -ggdb -O2 -ffunction-sections -fdata-secti
 5033      43313720 
 5033      31312E34 
 5033      2E30202D 
 5033      6D333220 
 5034              	.LASF34:
GAS LISTING /tmp/ccZnfTtS.s 			page 94


 5035 0501 7761656E 		.string	"waend"
 5035      6400
 5036              	.LASF110:
 5037 0507 63737461 		.string	"cstack_end"
 5037      636B5F65 
 5037      6E6400
 5038              	.LASF108:
 5039 0512 63685F6F 		.string	"ch_os_instance_config"
 5039      735F696E 
 5039      7374616E 
 5039      63655F63 
 5039      6F6E6669 
 5040              	.LASF84:
 5041 0528 646C6973 		.string	"dlist"
 5041      7400
 5042              	.LASF21:
 5043 052e 75696E74 		.string	"uint64_t"
 5043      36345F74 
 5043      00
 5044              	.LASF145:
 5045 0537 63685F71 		.string	"ch_queue_notempty"
 5045      75657565 
 5045      5F6E6F74 
 5045      656D7074 
 5045      7900
 5046              	.LASF135:
 5047 0549 6368436F 		.string	"chCondObjectDispose"
 5047      6E644F62 
 5047      6A656374 
 5047      44697370 
 5047      6F736500 
 5048              	.LASF50:
 5049 055d 726C6973 		.string	"rlist"
 5049      7400
 5050              	.LASF13:
 5051 0563 5F5F7569 		.string	"__uint8_t"
 5051      6E74385F 
 5051      7400
 5052              	.LASF38:
 5053 056d 6E616D65 		.string	"name"
 5053      00
 5054              	.LASF119:
 5055 0572 63685363 		.string	"chSchGoSleepS"
 5055      68476F53 
 5055      6C656570 
 5055      5300
 5056              	.LASF120:
 5057 0580 63684D74 		.string	"chMtxUnlockS"
 5057      78556E6C 
 5057      6F636B53 
 5057      00
 5058              	.LASF128:
 5059 058d 6368436F 		.string	"chCondWaitS"
 5059      6E645761 
 5059      69745300 
 5060              	.LASF118:
 5061 0599 63684D74 		.string	"chMtxLockS"
GAS LISTING /tmp/ccZnfTtS.s 			page 95


 5061      784C6F63 
 5061      6B5300
 5062              	.LASF25:
 5063 05a4 74726566 		.string	"trefs_t"
 5063      735F7400 
 5064              	.LASF10:
 5065 05ac 6C6F6E67 		.string	"long unsigned int"
 5065      20756E73 
 5065      69676E65 
 5065      6420696E 
 5065      7400
 5066              	.LASF107:
 5067 05be 72656164 		.string	"ready_list_t"
 5067      795F6C69 
 5067      73745F74 
 5067      00
 5068              	.LASF121:
 5069 05cb 63685363 		.string	"chSchGoSleepTimeoutS"
 5069      68476F53 
 5069      6C656570 
 5069      54696D65 
 5069      6F757453 
 5070              	.LASF89:
 5071 05e0 71756575 		.string	"queue"
 5071      6500
 5072              	.LASF18:
 5073 05e6 696E7433 		.string	"int32_t"
 5073      325F7400 
 5074              	.LASF61:
 5075 05ee 72666375 		.string	"rfcu_t"
 5075      5F7400
 5076              	.LASF100:
 5077 05f5 77747365 		.string	"wtsemp"
 5077      6D7000
 5078              	.LASF74:
 5079 05fc 63685F70 		.string	"ch_priority_queue"
 5079      72696F72 
 5079      6974795F 
 5079      71756575 
 5079      6500
 5080              	.LASF71:
 5081 060e 63685F71 		.string	"ch_queue"
 5081      75657565 
 5081      00
 5082              	.LASF115:
 5083 0617 6D757465 		.string	"mutex_t"
 5083      785F7400 
 5084              	.LASF146:
 5085 061f 63685F71 		.string	"ch_queue_init"
 5085      75657565 
 5085      5F696E69 
 5085      7400
 5086              	.LASF9:
 5087 062d 756E7369 		.string	"unsigned char"
 5087      676E6564 
 5087      20636861 
 5087      7200
GAS LISTING /tmp/ccZnfTtS.s 			page 96


 5088              	.LASF15:
 5089 063b 5F5F7569 		.string	"__uint32_t"
 5089      6E743332 
 5089      5F7400
 5090              	.LASF42:
 5091 0646 77616974 		.string	"waiting"
 5091      696E6700 
 5092              	.LASF87:
 5093 064e 76697274 		.string	"virtual_timers_list_t"
 5093      75616C5F 
 5093      74696D65 
 5093      72735F6C 
 5093      6973745F 
 5094              	.LASF124:
 5095 0664 74696D65 		.string	"timeout"
 5095      6F757400 
 5096              	.LASF137:
 5097 066c 63684D74 		.string	"chMtxGetNextMutexX"
 5097      78476574 
 5097      4E657874 
 5097      4D757465 
 5097      785800
 5098              	.LASF123:
 5099 067f 63685363 		.string	"chSchWakeupS"
 5099      6857616B 
 5099      65757053 
 5099      00
 5100              	.LASF57:
 5101 068c 6D61696E 		.string	"mainthread"
 5101      74687265 
 5101      616400
 5102              	.LASF35:
 5103 0697 73746174 		.string	"state"
 5103      6500
 5104              	.LASF47:
 5105 069d 6F735F69 		.string	"os_instance_t"
 5105      6E737461 
 5105      6E63655F 
 5105      7400
 5106              	.LASF79:
 5107 06ab 72656778 		.string	"regx86"
 5107      383600
 5108              	.LASF52:
 5109 06b2 7265676C 		.string	"reglist"
 5109      69737400 
 5110              	.LASF98:
 5111 06ba 77747472 		.string	"wttrp"
 5111      7000
 5112              	.LASF11:
 5113 06c0 7369676E 		.string	"signed char"
 5113      65642063 
 5113      68617200 
 5114              	.LASF78:
 5115 06cc 64656C74 		.string	"delta"
 5115      6100
 5116              	.LASF3:
 5117 06d2 73686F72 		.string	"short unsigned int"
GAS LISTING /tmp/ccZnfTtS.s 			page 97


 5117      7420756E 
 5117      7369676E 
 5117      65642069 
 5117      6E7400
 5118              	.LASF126:
 5119 06e5 6368436F 		.string	"chCondWaitTimeoutS"
 5119      6E645761 
 5119      69745469 
 5119      6D656F75 
 5119      745300
 5120              	.LASF106:
 5121 06f8 63757272 		.string	"current"
 5121      656E7400 
 5122              	.LASF129:
 5123 0700 5F5F6675 		.string	"__func__"
 5123      6E635F5F 
 5123      00
 5124              	.LASF142:
 5125 0709 706F7274 		.string	"port_unlock"
 5125      5F756E6C 
 5125      6F636B00 
 5126              	.LASF96:
 5127 0715 65786974 		.string	"exitcode"
 5127      636F6465 
 5127      00
 5128              	.LASF30:
 5129 071e 636F7265 		.string	"core_id_t"
 5129      5F69645F 
 5129      7400
 5130              		.section	.debug_line_str,"MS",@progbits,1
 5131              	.LASF1:
 5132 0000 2F686F6D 		.string	"/home/alex/ChibiOS/demos/various/LAB2"
 5132      652F616C 
 5132      65782F43 
 5132      68696269 
 5132      4F532F64 
 5133              	.LASF0:
 5134 0026 2E2E2F2E 		.string	"../../../os/rt/src/chcond.c"
 5134      2E2F2E2E 
 5134      2F6F732F 
 5134      72742F73 
 5134      72632F63 
 5135              		.ident	"GCC: (Ubuntu 11.4.0-1ubuntu1~22.04) 11.4.0"
 5136 0042 2F686F6D 		.section	.note.GNU-stack,"",@progbits
 5136      652F616C 
 5136      65782F43 
 5136      68696269 
 5136      4F532F64 
GAS LISTING /tmp/ccZnfTtS.s 			page 98


DEFINED SYMBOLS
                            *ABS*:0000000000000000 chcond.c
     /tmp/ccZnfTtS.s:9      .text.chCondObjectInit:0000000000000000 chCondObjectInit
     /tmp/ccZnfTtS.s:46     .text.chCondObjectDispose:0000000000000000 chCondObjectDispose
     /tmp/ccZnfTtS.s:66     .text.chCondSignal:0000000000000000 chCondSignal
     /tmp/ccZnfTtS.s:1139   .text.__x86.get_pc_thunk.bx:0000000000000000 __x86.get_pc_thunk.bx
     /tmp/ccZnfTtS.s:208    .text.chCondSignalI:0000000000000000 chCondSignalI
     /tmp/ccZnfTtS.s:300    .text.chCondBroadcast:0000000000000000 chCondBroadcast
     /tmp/ccZnfTtS.s:488    .text.chCondBroadcastI:0000000000000000 chCondBroadcastI
     /tmp/ccZnfTtS.s:600    .text.chCondWaitS:0000000000000000 chCondWaitS
     /tmp/ccZnfTtS.s:775    .text.chCondWait:0000000000000000 chCondWait
     /tmp/ccZnfTtS.s:1128   .text.__x86.get_pc_thunk.ax:0000000000000000 __x86.get_pc_thunk.ax
     /tmp/ccZnfTtS.s:857    .text.chCondWaitTimeoutS:0000000000000000 chCondWaitTimeoutS
     /tmp/ccZnfTtS.s:1044   .text.chCondWaitTimeout:0000000000000000 chCondWaitTimeout

UNDEFINED SYMBOLS
_GLOBAL_OFFSET_TABLE_
port_irq_sts
chSchWakeupS
chSchReadyI
chSchRescheduleS
ch0
chMtxUnlockS
chSchGoSleepS
chMtxLockS
chSchGoSleepTimeoutS
