GAS LISTING /tmp/cc2l5lB5.s 			page 1


   1              		.file	"chmsg.c"
   2              		.text
   3              	.Ltext0:
   4              		.file 0 "/home/alex/ChibiOS/demos/various/LAB2" "../../../os/rt/src/chmsg.c"
   5              		.section	.text.chMsgSend,"ax",@progbits
   6              		.p2align 4
   7              		.globl	chMsgSend
   8              		.type	chMsgSend, @function
   9              	chMsgSend:
  10              	.LVL0:
  11              	.LFB203:
  12              		.file 1 "../../../os/rt/src/chmsg.c"
  13              		.loc 1 85 42 view -0
  14              		.cfi_startproc
  15              		.loc 1 86 3 view .LVU1
  16              	.LBB46:
  17              	.LBI46:
  18              		.file 2 "../../../os/rt/include/chthreads.h"
  19              		.loc 2 527 25 view .LVU2
  20              	.LBB47:
  21              		.loc 2 529 3 view .LVU3
  22              	.LBE47:
  23              	.LBE46:
  24              		.loc 1 85 42 is_stmt 0 view .LVU4
  25 0000 57       		pushl	%edi
  26              		.cfi_def_cfa_offset 8
  27              		.cfi_offset 7, -8
  28 0001 56       		pushl	%esi
  29              		.cfi_def_cfa_offset 12
  30              		.cfi_offset 6, -12
  31 0002 53       		pushl	%ebx
  32              		.cfi_def_cfa_offset 16
  33              		.cfi_offset 3, -16
  34              		.loc 1 85 42 view .LVU5
  35 0003 8B442410 		movl	16(%esp), %eax
  36 0007 E8FCFFFF 		call	__x86.get_pc_thunk.bx
  36      FF
  37 000c 81C30200 		addl	$_GLOBAL_OFFSET_TABLE_, %ebx
  37      0000
  38              	.LBB50:
  39              	.LBB48:
  40              		.loc 2 529 10 view .LVU6
  41 0012 8B930000 		movl	ch0@GOT(%ebx), %edx
  41      0000
  42              	.LBE48:
  43              	.LBE50:
  44              	.LBB51:
  45              	.LBB52:
  46              	.LBB53:
  47              		.file 3 "../../../os/common/ports/SIMIA32/chcore.h"
  48              		.loc 3 363 16 view .LVU7
  49 0018 8BBB0000 		movl	port_irq_sts@GOT(%ebx), %edi
  49      0000
  50              	.LBE53:
  51              	.LBE52:
  52              	.LBE51:
  53              	.LBB58:
GAS LISTING /tmp/cc2l5lB5.s 			page 2


  54              	.LBB49:
  55              		.loc 2 529 10 view .LVU8
  56 001e 8B720C   		movl	12(%edx), %esi
  57              	.LVL1:
  58              		.loc 2 529 10 view .LVU9
  59              	.LBE49:
  60              	.LBE58:
  61              		.loc 1 88 3 is_stmt 1 view .LVU10
  62              		.loc 1 88 3 view .LVU11
  63              		.loc 1 88 3 view .LVU12
  64              		.loc 1 90 3 view .LVU13
  65              	.LBB59:
  66              	.LBI51:
  67              		.file 4 "../../../os/rt/include/chsys.h"
  68              		.loc 4 407 20 view .LVU14
  69              		.loc 4 409 3 view .LVU15
  70              	.LBB56:
  71              	.LBI52:
  72              		.loc 3 361 20 view .LVU16
  73              	.LBB54:
  74              		.loc 3 363 3 view .LVU17
  75              	.LBE54:
  76              	.LBE56:
  77              	.LBE59:
  78              		.loc 1 91 21 is_stmt 0 view .LVU18
  79 0021 8B542414 		movl	20(%esp), %edx
  80              	.LBB60:
  81              	.LBB57:
  82              	.LBB55:
  83              		.loc 3 363 16 view .LVU19
  84 0025 C7070100 		movl	$1, (%edi)
  84      0000
  85              	.LBE55:
  86              	.LBE57:
  87              		.loc 4 410 35 is_stmt 1 view .LVU20
  88              		.loc 4 411 21 view .LVU21
  89              	.LBE60:
  90              		.loc 1 91 3 view .LVU22
  91              		.loc 1 91 21 is_stmt 0 view .LVU23
  92 002b 895634   		movl	%edx, 52(%esi)
  93              		.loc 1 92 3 is_stmt 1 view .LVU24
  94              	.LVL2:
  95              	.LBB61:
  96              	.LBI61:
  97              		.file 5 "../../../os/rt/include/chlists.h"
  98              		.loc 5 322 20 view .LVU25
  99              	.LBB62:
 100              		.loc 5 324 3 view .LVU26
 101              	.LBE62:
 102              	.LBE61:
 103              		.loc 1 92 3 is_stmt 0 view .LVU27
 104 002e 8D503C   		leal	60(%eax), %edx
 105              	.LVL3:
 106              		.loc 1 92 3 view .LVU28
 107 0031 8916     		movl	%edx, (%esi)
 108              	.LBB65:
 109              	.LBB63:
GAS LISTING /tmp/cc2l5lB5.s 			page 3


 110              		.loc 5 325 3 is_stmt 1 view .LVU29
 111              		.loc 5 325 21 is_stmt 0 view .LVU30
 112 0033 8B5040   		movl	64(%eax), %edx
 113              	.LVL4:
 114              		.loc 5 325 17 view .LVU31
 115 0036 895604   		movl	%edx, 4(%esi)
 116              		.loc 5 326 3 is_stmt 1 view .LVU32
 117              		.loc 5 326 17 is_stmt 0 view .LVU33
 118 0039 8932     		movl	%esi, (%edx)
 119              	.LVL5:
 120              		.loc 5 327 3 is_stmt 1 view .LVU34
 121              	.LBE63:
 122              	.LBE65:
 123              		.loc 1 93 6 is_stmt 0 view .LVU35
 124 003b 80781C0E 		cmpb	$14, 28(%eax)
 125              	.LBB66:
 126              	.LBB64:
 127              		.loc 5 327 17 view .LVU36
 128 003f 897040   		movl	%esi, 64(%eax)
 129              	.LVL6:
 130              		.loc 5 327 17 view .LVU37
 131              	.LBE64:
 132              	.LBE66:
 133              		.loc 1 93 3 is_stmt 1 view .LVU38
 134              		.loc 1 93 6 is_stmt 0 view .LVU39
 135 0042 741C     		je	.L5
 136              	.L2:
 137              		.loc 1 96 3 is_stmt 1 view .LVU40
 138 0044 83EC0C   		subl	$12, %esp
 139              		.cfi_def_cfa_offset 28
 140 0047 6A0C     		pushl	$12
 141              		.cfi_def_cfa_offset 32
 142 0049 E8FCFFFF 		call	chSchGoSleepS@PLT
 142      FF
 143              	.LVL7:
 144              		.loc 1 97 3 view .LVU41
 145              		.loc 1 100 10 is_stmt 0 view .LVU42
 146 004e 83C410   		addl	$16, %esp
 147              		.cfi_def_cfa_offset 16
 148              		.loc 1 97 7 view .LVU43
 149 0051 8B4634   		movl	52(%esi), %eax
 150              	.LVL8:
 151              		.loc 1 98 3 is_stmt 1 view .LVU44
 152              	.LBB67:
 153              	.LBI67:
 154              		.loc 4 421 20 view .LVU45
 155              	.LBB68:
 156              		.loc 4 423 23 view .LVU46
 157              		.loc 4 424 34 view .LVU47
 158              		.loc 4 430 3 view .LVU48
 159              		.loc 4 430 3 view .LVU49
 160              		.loc 4 430 3 view .LVU50
 161              		.loc 4 434 3 view .LVU51
 162              	.LBB69:
 163              	.LBI69:
 164              		.loc 3 370 20 view .LVU52
 165              	.LBB70:
GAS LISTING /tmp/cc2l5lB5.s 			page 4


 166              		.loc 3 372 3 view .LVU53
 167              		.loc 3 372 16 is_stmt 0 view .LVU54
 168 0054 C7070000 		movl	$0, (%edi)
 168      0000
 169              	.LBE70:
 170              	.LBE69:
 171              	.LBE68:
 172              	.LBE67:
 173              		.loc 1 100 3 is_stmt 1 view .LVU55
 174              		.loc 1 101 1 is_stmt 0 view .LVU56
 175 005a 5B       		popl	%ebx
 176              		.cfi_remember_state
 177              		.cfi_restore 3
 178              		.cfi_def_cfa_offset 12
 179 005b 5E       		popl	%esi
 180              		.cfi_restore 6
 181              		.cfi_def_cfa_offset 8
 182              	.LVL9:
 183              		.loc 1 101 1 view .LVU57
 184 005c 5F       		popl	%edi
 185              		.cfi_restore 7
 186              		.cfi_def_cfa_offset 4
 187 005d C3       		ret
 188              	.LVL10:
 189 005e 6690     		.p2align 4,,10
 190              		.p2align 3
 191              	.L5:
 192              		.cfi_restore_state
 193              		.loc 1 94 5 is_stmt 1 view .LVU58
 194              		.loc 1 94 12 is_stmt 0 view .LVU59
 195 0060 83EC0C   		subl	$12, %esp
 196              		.cfi_def_cfa_offset 28
 197 0063 50       		pushl	%eax
 198              		.cfi_def_cfa_offset 32
 199 0064 E8FCFFFF 		call	chSchReadyI@PLT
 199      FF
 200              	.LVL11:
 201              		.loc 1 94 12 view .LVU60
 202 0069 83C410   		addl	$16, %esp
 203              		.cfi_def_cfa_offset 16
 204 006c EBD6     		jmp	.L2
 205              		.cfi_endproc
 206              	.LFE203:
 207              		.size	chMsgSend, .-chMsgSend
 208              		.section	.text.chMsgWaitS,"ax",@progbits
 209              		.p2align 4
 210              		.globl	chMsgWaitS
 211              		.type	chMsgWaitS, @function
 212              	chMsgWaitS:
 213              	.LFB204:
 214              		.loc 1 119 28 is_stmt 1 view -0
 215              		.cfi_startproc
 216              		.loc 1 120 3 view .LVU62
 217              	.LBB71:
 218              	.LBI71:
 219              		.loc 2 527 25 view .LVU63
 220              	.LBB72:
GAS LISTING /tmp/cc2l5lB5.s 			page 5


 221              		.loc 2 529 3 view .LVU64
 222              	.LBE72:
 223              	.LBE71:
 224              		.loc 1 119 28 is_stmt 0 view .LVU65
 225 0000 57       		pushl	%edi
 226              		.cfi_def_cfa_offset 8
 227              		.cfi_offset 7, -8
 228 0001 56       		pushl	%esi
 229              		.cfi_def_cfa_offset 12
 230              		.cfi_offset 6, -12
 231 0002 53       		pushl	%ebx
 232              		.cfi_def_cfa_offset 16
 233              		.cfi_offset 3, -16
 234 0003 E8FCFFFF 		call	__x86.get_pc_thunk.bx
 234      FF
 235 0008 81C30200 		addl	$_GLOBAL_OFFSET_TABLE_, %ebx
 235      0000
 236              	.LBB74:
 237              	.LBB73:
 238              		.loc 2 529 10 view .LVU66
 239 000e 8B830000 		movl	ch0@GOT(%ebx), %eax
 239      0000
 240 0014 8B700C   		movl	12(%eax), %esi
 241              	.LVL12:
 242              		.loc 2 529 10 view .LVU67
 243              	.LBE73:
 244              	.LBE74:
 245              		.loc 1 121 3 is_stmt 1 view .LVU68
 246              		.loc 1 123 21 view .LVU69
 247              		.loc 1 125 3 view .LVU70
 248              	.LBB75:
 249              	.LBI75:
 250              		.file 6 "../../../os/rt/include/chmsg.h"
 251              		.loc 6 172 20 view .LVU71
 252              	.LBB76:
 253              		.loc 6 174 21 view .LVU72
 254              		.loc 6 176 3 view .LVU73
 255              		.loc 6 176 29 is_stmt 0 view .LVU74
 256 0017 8B463C   		movl	60(%esi), %eax
 257              		.loc 6 176 38 view .LVU75
 258 001a 8D7E3C   		leal	60(%esi), %edi
 259              	.LVL13:
 260              		.loc 6 176 38 view .LVU76
 261              	.LBE76:
 262              	.LBE75:
 263              		.loc 1 125 6 view .LVU77
 264 001d 39C7     		cmpl	%eax, %edi
 265 001f 7417     		je	.L9
 266              		.loc 1 128 3 is_stmt 1 view .LVU78
 267              	.LVL14:
 268              	.LBB77:
 269              	.LBI77:
 270              		.loc 5 340 27 view .LVU79
 271              	.LBB78:
 272              		.loc 5 341 3 view .LVU80
 273              		.loc 5 343 3 view .LVU81
 274              		.loc 5 343 21 is_stmt 0 view .LVU82
GAS LISTING /tmp/cc2l5lB5.s 			page 6


 275 0021 8B10     		movl	(%eax), %edx
 276              		.loc 5 343 18 view .LVU83
 277 0023 89563C   		movl	%edx, 60(%esi)
 278              		.loc 5 344 3 is_stmt 1 view .LVU84
 279              		.loc 5 344 18 is_stmt 0 view .LVU85
 280 0026 897A04   		movl	%edi, 4(%edx)
 281              		.loc 5 346 3 is_stmt 1 view .LVU86
 282              	.LVL15:
 283              		.loc 5 346 3 is_stmt 0 view .LVU87
 284              	.LBE78:
 285              	.LBE77:
 286              		.loc 1 129 3 is_stmt 1 view .LVU88
 287              		.loc 1 129 13 is_stmt 0 view .LVU89
 288 0029 C6401C0D 		movb	$13, 28(%eax)
 289              		.loc 1 131 3 is_stmt 1 view .LVU90
 290              		.loc 1 132 1 is_stmt 0 view .LVU91
 291 002d 5B       		popl	%ebx
 292              		.cfi_remember_state
 293              		.cfi_restore 3
 294              		.cfi_def_cfa_offset 12
 295 002e 5E       		popl	%esi
 296              		.cfi_restore 6
 297              		.cfi_def_cfa_offset 8
 298              	.LVL16:
 299              		.loc 1 132 1 view .LVU92
 300 002f 5F       		popl	%edi
 301              		.cfi_restore 7
 302              		.cfi_def_cfa_offset 4
 303 0030 C3       		ret
 304              	.LVL17:
 305              		.p2align 4,,10
 306 0031 8DB42600 		.p2align 3
 306      000000
 307              	.L9:
 308              		.cfi_restore_state
 309              		.loc 1 126 5 is_stmt 1 view .LVU93
 310 0038 83EC0C   		subl	$12, %esp
 311              		.cfi_def_cfa_offset 28
 312 003b 6A0E     		pushl	$14
 313              		.cfi_def_cfa_offset 32
 314 003d E8FCFFFF 		call	chSchGoSleepS@PLT
 314      FF
 315              	.LVL18:
 316              	.LBB81:
 317              	.LBB79:
 318              		.loc 5 341 15 is_stmt 0 view .LVU94
 319 0042 8B463C   		movl	60(%esi), %eax
 320 0045 83C410   		addl	$16, %esp
 321              		.cfi_def_cfa_offset 16
 322              	.LBE79:
 323              	.LBE81:
 324              		.loc 1 128 3 is_stmt 1 view .LVU95
 325              	.LVL19:
 326              	.LBB82:
 327              		.loc 5 340 27 view .LVU96
 328              	.LBB80:
 329              		.loc 5 341 3 view .LVU97
GAS LISTING /tmp/cc2l5lB5.s 			page 7


 330              		.loc 5 343 3 view .LVU98
 331              		.loc 5 343 21 is_stmt 0 view .LVU99
 332 0048 8B10     		movl	(%eax), %edx
 333              		.loc 5 343 18 view .LVU100
 334 004a 89563C   		movl	%edx, 60(%esi)
 335              		.loc 5 344 3 is_stmt 1 view .LVU101
 336              		.loc 5 344 18 is_stmt 0 view .LVU102
 337 004d 897A04   		movl	%edi, 4(%edx)
 338              		.loc 5 346 3 is_stmt 1 view .LVU103
 339              	.LVL20:
 340              		.loc 5 346 3 is_stmt 0 view .LVU104
 341              	.LBE80:
 342              	.LBE82:
 343              		.loc 1 129 3 is_stmt 1 view .LVU105
 344              		.loc 1 129 13 is_stmt 0 view .LVU106
 345 0050 C6401C0D 		movb	$13, 28(%eax)
 346              		.loc 1 131 3 is_stmt 1 view .LVU107
 347              		.loc 1 132 1 is_stmt 0 view .LVU108
 348 0054 5B       		popl	%ebx
 349              		.cfi_restore 3
 350              		.cfi_def_cfa_offset 12
 351 0055 5E       		popl	%esi
 352              		.cfi_restore 6
 353              		.cfi_def_cfa_offset 8
 354              	.LVL21:
 355              		.loc 1 132 1 view .LVU109
 356 0056 5F       		popl	%edi
 357              		.cfi_restore 7
 358              		.cfi_def_cfa_offset 4
 359              	.LVL22:
 360              		.loc 1 132 1 view .LVU110
 361 0057 C3       		ret
 362              		.cfi_endproc
 363              	.LFE204:
 364              		.size	chMsgWaitS, .-chMsgWaitS
 365              		.section	.text.chMsgWaitTimeoutS,"ax",@progbits
 366              		.p2align 4
 367              		.globl	chMsgWaitTimeoutS
 368              		.type	chMsgWaitTimeoutS, @function
 369              	chMsgWaitTimeoutS:
 370              	.LVL23:
 371              	.LFB205:
 372              		.loc 1 155 52 is_stmt 1 view -0
 373              		.cfi_startproc
 374              		.loc 1 156 3 view .LVU112
 375              	.LBB83:
 376              	.LBI83:
 377              		.loc 2 527 25 view .LVU113
 378              	.LBB84:
 379              		.loc 2 529 3 view .LVU114
 380              	.LBE84:
 381              	.LBE83:
 382              		.loc 1 155 52 is_stmt 0 view .LVU115
 383 0000 57       		pushl	%edi
 384              		.cfi_def_cfa_offset 8
 385              		.cfi_offset 7, -8
 386 0001 56       		pushl	%esi
GAS LISTING /tmp/cc2l5lB5.s 			page 8


 387              		.cfi_def_cfa_offset 12
 388              		.cfi_offset 6, -12
 389 0002 53       		pushl	%ebx
 390              		.cfi_def_cfa_offset 16
 391              		.cfi_offset 3, -16
 392 0003 E8FCFFFF 		call	__x86.get_pc_thunk.bx
 392      FF
 393 0008 81C30200 		addl	$_GLOBAL_OFFSET_TABLE_, %ebx
 393      0000
 394              	.LBB86:
 395              	.LBB85:
 396              		.loc 2 529 10 view .LVU116
 397 000e 8B830000 		movl	ch0@GOT(%ebx), %eax
 397      0000
 398 0014 8B700C   		movl	12(%eax), %esi
 399              	.LVL24:
 400              		.loc 2 529 10 view .LVU117
 401              	.LBE85:
 402              	.LBE86:
 403              		.loc 1 157 3 is_stmt 1 view .LVU118
 404              		.loc 1 159 21 view .LVU119
 405              		.loc 1 161 3 view .LVU120
 406              	.LBB87:
 407              	.LBI87:
 408              		.loc 6 172 20 view .LVU121
 409              	.LBB88:
 410              		.loc 6 174 21 view .LVU122
 411              		.loc 6 176 3 view .LVU123
 412              		.loc 6 176 29 is_stmt 0 view .LVU124
 413 0017 8B463C   		movl	60(%esi), %eax
 414              		.loc 6 176 38 view .LVU125
 415 001a 8D7E3C   		leal	60(%esi), %edi
 416              	.LVL25:
 417              		.loc 6 176 38 view .LVU126
 418              	.LBE88:
 419              	.LBE87:
 420              		.loc 1 161 6 view .LVU127
 421 001d 39C7     		cmpl	%eax, %edi
 422 001f 7417     		je	.L15
 423              	.L11:
 424              		.loc 1 166 3 is_stmt 1 view .LVU128
 425              	.LVL26:
 426              	.LBB89:
 427              	.LBI89:
 428              		.loc 5 340 27 view .LVU129
 429              	.LBB90:
 430              		.loc 5 341 3 view .LVU130
 431              		.loc 5 343 3 view .LVU131
 432              		.loc 5 343 21 is_stmt 0 view .LVU132
 433 0021 8B10     		movl	(%eax), %edx
 434              		.loc 5 343 18 view .LVU133
 435 0023 89563C   		movl	%edx, 60(%esi)
 436              	.LVL27:
 437              		.loc 5 344 3 is_stmt 1 view .LVU134
 438              		.loc 5 344 18 is_stmt 0 view .LVU135
 439 0026 897A04   		movl	%edi, 4(%edx)
 440              		.loc 5 346 3 is_stmt 1 view .LVU136
GAS LISTING /tmp/cc2l5lB5.s 			page 9


 441              	.LVL28:
 442              		.loc 5 346 3 is_stmt 0 view .LVU137
 443              	.LBE90:
 444              	.LBE89:
 445              		.loc 1 167 3 is_stmt 1 view .LVU138
 446              		.loc 1 167 13 is_stmt 0 view .LVU139
 447 0029 C6401C0D 		movb	$13, 28(%eax)
 448              		.loc 1 169 3 is_stmt 1 view .LVU140
 449              	.L10:
 450              		.loc 1 170 1 is_stmt 0 view .LVU141
 451 002d 5B       		popl	%ebx
 452              		.cfi_remember_state
 453              		.cfi_restore 3
 454              		.cfi_def_cfa_offset 12
 455 002e 5E       		popl	%esi
 456              		.cfi_restore 6
 457              		.cfi_def_cfa_offset 8
 458              	.LVL29:
 459              		.loc 1 170 1 view .LVU142
 460 002f 5F       		popl	%edi
 461              		.cfi_restore 7
 462              		.cfi_def_cfa_offset 4
 463              	.LVL30:
 464              		.loc 1 170 1 view .LVU143
 465 0030 C3       		ret
 466              	.LVL31:
 467              		.p2align 4,,10
 468 0031 8DB42600 		.p2align 3
 468      000000
 469              	.L15:
 470              		.cfi_restore_state
 471              		.loc 1 162 5 is_stmt 1 view .LVU144
 472              		.loc 1 162 9 is_stmt 0 view .LVU145
 473 0038 83EC08   		subl	$8, %esp
 474              		.cfi_def_cfa_offset 24
 475 003b FF742418 		pushl	24(%esp)
 476              		.cfi_def_cfa_offset 28
 477 003f 6A0E     		pushl	$14
 478              		.cfi_def_cfa_offset 32
 479 0041 E8FCFFFF 		call	chSchGoSleepTimeoutS@PLT
 479      FF
 480              	.LVL32:
 481              		.loc 1 162 8 view .LVU146
 482 0046 83C410   		addl	$16, %esp
 483              		.cfi_def_cfa_offset 16
 484 0049 85C0     		testl	%eax, %eax
 485 004b 750B     		jne	.L13
 486              	.LBB92:
 487              	.LBB91:
 488              		.loc 5 341 15 view .LVU147
 489 004d 8B463C   		movl	60(%esi), %eax
 490 0050 EBCF     		jmp	.L11
 491              		.p2align 4,,10
 492 0052 8DB60000 		.p2align 3
 492      0000
 493              	.L13:
 494              		.loc 5 341 15 view .LVU148
GAS LISTING /tmp/cc2l5lB5.s 			page 10


 495              	.LBE91:
 496              	.LBE92:
 497              		.loc 1 163 14 view .LVU149
 498 0058 31C0     		xorl	%eax, %eax
 499 005a EBD1     		jmp	.L10
 500              		.cfi_endproc
 501              	.LFE205:
 502              		.size	chMsgWaitTimeoutS, .-chMsgWaitTimeoutS
 503              		.section	.text.chMsgPollS,"ax",@progbits
 504              		.p2align 4
 505              		.globl	chMsgPollS
 506              		.type	chMsgPollS, @function
 507              	chMsgPollS:
 508              	.LFB206:
 509              		.loc 1 189 28 is_stmt 1 view -0
 510              		.cfi_startproc
 511              		.loc 1 190 3 view .LVU151
 512              	.LBB93:
 513              	.LBI93:
 514              		.loc 2 527 25 view .LVU152
 515              	.LBB94:
 516              		.loc 2 529 3 view .LVU153
 517 0000 E8FCFFFF 		call	__x86.get_pc_thunk.ax
 517      FF
 518 0005 05010000 		addl	$_GLOBAL_OFFSET_TABLE_, %eax
 518      00
 519              		.loc 2 529 10 is_stmt 0 view .LVU154
 520 000a 8B800000 		movl	ch0@GOT(%eax), %eax
 520      0000
 521 0010 8B500C   		movl	12(%eax), %edx
 522              	.LVL33:
 523              		.loc 2 529 10 view .LVU155
 524              	.LBE94:
 525              	.LBE93:
 526              		.loc 1 191 3 is_stmt 1 view .LVU156
 527              		.loc 1 193 3 view .LVU157
 528              	.LBB95:
 529              	.LBI95:
 530              		.loc 6 172 20 view .LVU158
 531              	.LBB96:
 532              		.loc 6 174 21 view .LVU159
 533              		.loc 6 176 3 view .LVU160
 534              		.loc 6 176 29 is_stmt 0 view .LVU161
 535 0013 8B423C   		movl	60(%edx), %eax
 536              		.loc 6 176 38 view .LVU162
 537 0016 8D4A3C   		leal	60(%edx), %ecx
 538              	.LVL34:
 539              		.loc 6 176 38 view .LVU163
 540              	.LBE96:
 541              	.LBE95:
 542              		.loc 1 193 6 view .LVU164
 543 0019 39C1     		cmpl	%eax, %ecx
 544 001b 7413     		je	.L18
 545              		.loc 1 194 5 is_stmt 1 view .LVU165
 546              	.LVL35:
 547              	.LBB97:
 548              	.LBI97:
GAS LISTING /tmp/cc2l5lB5.s 			page 11


 549              		.loc 5 340 27 view .LVU166
 550              	.LBB98:
 551              		.loc 5 341 3 view .LVU167
 552              		.loc 5 343 3 view .LVU168
 553              	.LBE98:
 554              	.LBE97:
 555              		.loc 1 189 28 is_stmt 0 view .LVU169
 556 001d 53       		pushl	%ebx
 557              		.cfi_def_cfa_offset 8
 558              		.cfi_offset 3, -8
 559              	.LBB100:
 560              	.LBB99:
 561              		.loc 5 343 21 view .LVU170
 562 001e 8B18     		movl	(%eax), %ebx
 563              		.loc 5 343 18 view .LVU171
 564 0020 895A3C   		movl	%ebx, 60(%edx)
 565              		.loc 5 344 3 is_stmt 1 view .LVU172
 566              		.loc 5 344 18 is_stmt 0 view .LVU173
 567 0023 894B04   		movl	%ecx, 4(%ebx)
 568              		.loc 5 346 3 is_stmt 1 view .LVU174
 569              	.LVL36:
 570              		.loc 5 346 3 is_stmt 0 view .LVU175
 571              	.LBE99:
 572              	.LBE100:
 573              		.loc 1 195 5 is_stmt 1 view .LVU176
 574              		.loc 1 195 15 is_stmt 0 view .LVU177
 575 0026 C6401C0D 		movb	$13, 28(%eax)
 576              		.loc 1 199 1 view .LVU178
 577 002a 5B       		popl	%ebx
 578              		.cfi_restore 3
 579              		.cfi_def_cfa_offset 4
 580 002b C3       		ret
 581              	.LVL37:
 582 002c 8D742600 		.p2align 4,,10
 583              		.p2align 3
 584              	.L18:
 585              		.loc 1 191 13 view .LVU179
 586 0030 31C0     		xorl	%eax, %eax
 587              		.loc 1 198 3 is_stmt 1 view .LVU180
 588              		.loc 1 199 1 is_stmt 0 view .LVU181
 589 0032 C3       		ret
 590              		.cfi_endproc
 591              	.LFE206:
 592              		.size	chMsgPollS, .-chMsgPollS
 593              		.section	.text.chMsgRelease,"ax",@progbits
 594              		.p2align 4
 595              		.globl	chMsgRelease
 596              		.type	chMsgRelease, @function
 597              	chMsgRelease:
 598              	.LVL38:
 599              	.LFB207:
 600              		.loc 1 211 44 is_stmt 1 view -0
 601              		.cfi_startproc
 602              		.loc 1 213 3 view .LVU183
 603              	.LBB101:
 604              	.LBI101:
 605              		.loc 4 407 20 view .LVU184
GAS LISTING /tmp/cc2l5lB5.s 			page 12


 606              		.loc 4 409 3 view .LVU185
 607              	.LBB102:
 608              	.LBI102:
 609              		.loc 3 361 20 view .LVU186
 610              	.LBB103:
 611              		.loc 3 363 3 view .LVU187
 612              	.LBE103:
 613              	.LBE102:
 614              	.LBE101:
 615              		.loc 1 211 44 is_stmt 0 view .LVU188
 616 0000 56       		pushl	%esi
 617              		.cfi_def_cfa_offset 8
 618              		.cfi_offset 6, -8
 619 0001 53       		pushl	%ebx
 620              		.cfi_def_cfa_offset 12
 621              		.cfi_offset 3, -12
 622 0002 E8FCFFFF 		call	__x86.get_pc_thunk.bx
 622      FF
 623 0007 81C30200 		addl	$_GLOBAL_OFFSET_TABLE_, %ebx
 623      0000
 624 000d 83EC0C   		subl	$12, %esp
 625              		.cfi_def_cfa_offset 24
 626              	.LBB106:
 627              	.LBB107:
 628              		.loc 6 210 3 view .LVU189
 629 0010 FF74241C 		pushl	28(%esp)
 630              		.cfi_def_cfa_offset 28
 631 0014 FF74241C 		pushl	28(%esp)
 632              		.cfi_def_cfa_offset 32
 633              	.LBE107:
 634              	.LBE106:
 635              	.LBB109:
 636              	.LBB105:
 637              	.LBB104:
 638              		.loc 3 363 16 view .LVU190
 639 0018 8BB30000 		movl	port_irq_sts@GOT(%ebx), %esi
 639      0000
 640 001e C7060100 		movl	$1, (%esi)
 640      0000
 641              	.LBE104:
 642              	.LBE105:
 643              		.loc 4 410 35 is_stmt 1 view .LVU191
 644              		.loc 4 411 21 view .LVU192
 645              	.LBE109:
 646              		.loc 1 214 3 view .LVU193
 647              		.loc 1 214 3 view .LVU194
 648              		.loc 1 214 3 view .LVU195
 649              		.loc 1 215 3 view .LVU196
 650              	.LBB110:
 651              	.LBI106:
 652              		.loc 6 206 20 view .LVU197
 653              	.LBB108:
 654              		.loc 6 208 21 view .LVU198
 655              		.loc 6 210 3 view .LVU199
 656 0024 E8FCFFFF 		call	chSchWakeupS@PLT
 656      FF
 657              	.LVL39:
GAS LISTING /tmp/cc2l5lB5.s 			page 13


 658              	.LBE108:
 659              	.LBE110:
 660              		.loc 1 216 3 view .LVU200
 661              	.LBB111:
 662              	.LBI111:
 663              		.loc 4 421 20 view .LVU201
 664              	.LBB112:
 665              		.loc 4 423 23 view .LVU202
 666              		.loc 4 424 34 view .LVU203
 667              		.loc 4 430 3 view .LVU204
 668              		.loc 4 430 3 view .LVU205
 669              		.loc 4 430 3 view .LVU206
 670              		.loc 4 434 3 view .LVU207
 671              	.LBB113:
 672              	.LBI113:
 673              		.loc 3 370 20 view .LVU208
 674              	.LBB114:
 675              		.loc 3 372 3 view .LVU209
 676              		.loc 3 372 16 is_stmt 0 view .LVU210
 677 0029 C7060000 		movl	$0, (%esi)
 677      0000
 678              	.LBE114:
 679              	.LBE113:
 680              	.LBE112:
 681              	.LBE111:
 682              		.loc 1 217 1 view .LVU211
 683 002f 83C414   		addl	$20, %esp
 684              		.cfi_def_cfa_offset 12
 685 0032 5B       		popl	%ebx
 686              		.cfi_restore 3
 687              		.cfi_def_cfa_offset 8
 688 0033 5E       		popl	%esi
 689              		.cfi_restore 6
 690              		.cfi_def_cfa_offset 4
 691 0034 C3       		ret
 692              		.cfi_endproc
 693              	.LFE207:
 694              		.size	chMsgRelease, .-chMsgRelease
 695              		.section	.text.__x86.get_pc_thunk.ax,"axG",@progbits,__x86.get_pc_thunk.ax,comdat
 696              		.globl	__x86.get_pc_thunk.ax
 697              		.hidden	__x86.get_pc_thunk.ax
 698              		.type	__x86.get_pc_thunk.ax, @function
 699              	__x86.get_pc_thunk.ax:
 700              	.LFB208:
 701              		.cfi_startproc
 702 0000 8B0424   		movl	(%esp), %eax
 703 0003 C3       		ret
 704              		.cfi_endproc
 705              	.LFE208:
 706              		.section	.text.__x86.get_pc_thunk.bx,"axG",@progbits,__x86.get_pc_thunk.bx,comdat
 707              		.globl	__x86.get_pc_thunk.bx
 708              		.hidden	__x86.get_pc_thunk.bx
 709              		.type	__x86.get_pc_thunk.bx, @function
 710              	__x86.get_pc_thunk.bx:
 711              	.LFB209:
 712              		.cfi_startproc
 713 0000 8B1C24   		movl	(%esp), %ebx
GAS LISTING /tmp/cc2l5lB5.s 			page 14


 714 0003 C3       		ret
 715              		.cfi_endproc
 716              	.LFE209:
 717              		.text
 718              	.Letext0:
 719              		.file 7 "/usr/include/bits/types.h"
 720              		.file 8 "/usr/include/bits/stdint-intn.h"
 721              		.file 9 "/usr/include/bits/stdint-uintn.h"
 722              		.file 10 "../../../os/common/ports/SIMIA32/compilers/GCC/chtypes.h"
 723              		.file 11 "../../../os/rt/include/chearly.h"
 724              		.file 12 "../../../os/rt/include/chobjects.h"
 725              		.file 13 "../../../os/rt/include/chrfcu.h"
 726              		.file 14 "../../../os/rt/include/chdebug.h"
 727              		.file 15 "../../../os/rt/include/chtime.h"
 728              		.file 16 "../../../os/rt/include/chsem.h"
 729              		.file 17 "../../../os/rt/include/chmtx.h"
 730              		.file 18 "../../../os/rt/include/chschd.h"
 4036 0041 2F686F6D 		.section	.note.GNU-stack,"",@progbits
 4036      652F616C 
 4036      65782F43 
 4036      68696269 
 4036      4F532F64 
GAS LISTING /tmp/cc2l5lB5.s 			page 78

