GAS LISTING /tmp/cc2l5lB5.s 			page 1


   1              		.file	"chmsg.c"
   2              		.text
   3              	.Ltext0:
   4              		.file 0 "/home/alex/ChibiOS/demos/various/LAB2" "../../../os/rt/src/chmsg.c"
   5              		.section	.text.chMsgSend,"ax",@progbits
   6              		.p2align 4
   7              		.globl	chMsgSend
   8              		.type	chMsgSend, @function
   9              	chMsgSend:
  10              	.LVL0:
  11              	.LFB203:
  12              		.file 1 "../../../os/rt/src/chmsg.c"
  13              		.loc 1 85 42 view -0
  14              		.cfi_startproc
  15              		.loc 1 86 3 view .LVU1
  16              	.LBB46:
  17              	.LBI46:
  18              		.file 2 "../../../os/rt/include/chthreads.h"
  19              		.loc 2 527 25 view .LVU2
  20              	.LBB47:
  21              		.loc 2 529 3 view .LVU3
  22              	.LBE47:
  23              	.LBE46:
  24              		.loc 1 85 42 is_stmt 0 view .LVU4
  25 0000 57       		pushl	%edi
  26              		.cfi_def_cfa_offset 8
  27              		.cfi_offset 7, -8
  28 0001 56       		pushl	%esi
  29              		.cfi_def_cfa_offset 12
  30              		.cfi_offset 6, -12
  31 0002 53       		pushl	%ebx
  32              		.cfi_def_cfa_offset 16
  33              		.cfi_offset 3, -16
  34              		.loc 1 85 42 view .LVU5
  35 0003 8B442410 		movl	16(%esp), %eax
  36 0007 E8FCFFFF 		call	__x86.get_pc_thunk.bx
  36      FF
  37 000c 81C30200 		addl	$_GLOBAL_OFFSET_TABLE_, %ebx
  37      0000
  38              	.LBB50:
  39              	.LBB48:
  40              		.loc 2 529 10 view .LVU6
  41 0012 8B930000 		movl	ch0@GOT(%ebx), %edx
  41      0000
  42              	.LBE48:
  43              	.LBE50:
  44              	.LBB51:
  45              	.LBB52:
  46              	.LBB53:
  47              		.file 3 "../../../os/common/ports/SIMIA32/chcore.h"
  48              		.loc 3 363 16 view .LVU7
  49 0018 8BBB0000 		movl	port_irq_sts@GOT(%ebx), %edi
  49      0000
  50              	.LBE53:
  51              	.LBE52:
  52              	.LBE51:
  53              	.LBB58:
GAS LISTING /tmp/cc2l5lB5.s 			page 2


  54              	.LBB49:
  55              		.loc 2 529 10 view .LVU8
  56 001e 8B720C   		movl	12(%edx), %esi
  57              	.LVL1:
  58              		.loc 2 529 10 view .LVU9
  59              	.LBE49:
  60              	.LBE58:
  61              		.loc 1 88 3 is_stmt 1 view .LVU10
  62              		.loc 1 88 3 view .LVU11
  63              		.loc 1 88 3 view .LVU12
  64              		.loc 1 90 3 view .LVU13
  65              	.LBB59:
  66              	.LBI51:
  67              		.file 4 "../../../os/rt/include/chsys.h"
  68              		.loc 4 407 20 view .LVU14
  69              		.loc 4 409 3 view .LVU15
  70              	.LBB56:
  71              	.LBI52:
  72              		.loc 3 361 20 view .LVU16
  73              	.LBB54:
  74              		.loc 3 363 3 view .LVU17
  75              	.LBE54:
  76              	.LBE56:
  77              	.LBE59:
  78              		.loc 1 91 21 is_stmt 0 view .LVU18
  79 0021 8B542414 		movl	20(%esp), %edx
  80              	.LBB60:
  81              	.LBB57:
  82              	.LBB55:
  83              		.loc 3 363 16 view .LVU19
  84 0025 C7070100 		movl	$1, (%edi)
  84      0000
  85              	.LBE55:
  86              	.LBE57:
  87              		.loc 4 410 35 is_stmt 1 view .LVU20
  88              		.loc 4 411 21 view .LVU21
  89              	.LBE60:
  90              		.loc 1 91 3 view .LVU22
  91              		.loc 1 91 21 is_stmt 0 view .LVU23
  92 002b 895634   		movl	%edx, 52(%esi)
  93              		.loc 1 92 3 is_stmt 1 view .LVU24
  94              	.LVL2:
  95              	.LBB61:
  96              	.LBI61:
  97              		.file 5 "../../../os/rt/include/chlists.h"
  98              		.loc 5 322 20 view .LVU25
  99              	.LBB62:
 100              		.loc 5 324 3 view .LVU26
 101              	.LBE62:
 102              	.LBE61:
 103              		.loc 1 92 3 is_stmt 0 view .LVU27
 104 002e 8D503C   		leal	60(%eax), %edx
 105              	.LVL3:
 106              		.loc 1 92 3 view .LVU28
 107 0031 8916     		movl	%edx, (%esi)
 108              	.LBB65:
 109              	.LBB63:
GAS LISTING /tmp/cc2l5lB5.s 			page 3


 110              		.loc 5 325 3 is_stmt 1 view .LVU29
 111              		.loc 5 325 21 is_stmt 0 view .LVU30
 112 0033 8B5040   		movl	64(%eax), %edx
 113              	.LVL4:
 114              		.loc 5 325 17 view .LVU31
 115 0036 895604   		movl	%edx, 4(%esi)
 116              		.loc 5 326 3 is_stmt 1 view .LVU32
 117              		.loc 5 326 17 is_stmt 0 view .LVU33
 118 0039 8932     		movl	%esi, (%edx)
 119              	.LVL5:
 120              		.loc 5 327 3 is_stmt 1 view .LVU34
 121              	.LBE63:
 122              	.LBE65:
 123              		.loc 1 93 6 is_stmt 0 view .LVU35
 124 003b 80781C0E 		cmpb	$14, 28(%eax)
 125              	.LBB66:
 126              	.LBB64:
 127              		.loc 5 327 17 view .LVU36
 128 003f 897040   		movl	%esi, 64(%eax)
 129              	.LVL6:
 130              		.loc 5 327 17 view .LVU37
 131              	.LBE64:
 132              	.LBE66:
 133              		.loc 1 93 3 is_stmt 1 view .LVU38
 134              		.loc 1 93 6 is_stmt 0 view .LVU39
 135 0042 741C     		je	.L5
 136              	.L2:
 137              		.loc 1 96 3 is_stmt 1 view .LVU40
 138 0044 83EC0C   		subl	$12, %esp
 139              		.cfi_def_cfa_offset 28
 140 0047 6A0C     		pushl	$12
 141              		.cfi_def_cfa_offset 32
 142 0049 E8FCFFFF 		call	chSchGoSleepS@PLT
 142      FF
 143              	.LVL7:
 144              		.loc 1 97 3 view .LVU41
 145              		.loc 1 100 10 is_stmt 0 view .LVU42
 146 004e 83C410   		addl	$16, %esp
 147              		.cfi_def_cfa_offset 16
 148              		.loc 1 97 7 view .LVU43
 149 0051 8B4634   		movl	52(%esi), %eax
 150              	.LVL8:
 151              		.loc 1 98 3 is_stmt 1 view .LVU44
 152              	.LBB67:
 153              	.LBI67:
 154              		.loc 4 421 20 view .LVU45
 155              	.LBB68:
 156              		.loc 4 423 23 view .LVU46
 157              		.loc 4 424 34 view .LVU47
 158              		.loc 4 430 3 view .LVU48
 159              		.loc 4 430 3 view .LVU49
 160              		.loc 4 430 3 view .LVU50
 161              		.loc 4 434 3 view .LVU51
 162              	.LBB69:
 163              	.LBI69:
 164              		.loc 3 370 20 view .LVU52
 165              	.LBB70:
GAS LISTING /tmp/cc2l5lB5.s 			page 4


 166              		.loc 3 372 3 view .LVU53
 167              		.loc 3 372 16 is_stmt 0 view .LVU54
 168 0054 C7070000 		movl	$0, (%edi)
 168      0000
 169              	.LBE70:
 170              	.LBE69:
 171              	.LBE68:
 172              	.LBE67:
 173              		.loc 1 100 3 is_stmt 1 view .LVU55
 174              		.loc 1 101 1 is_stmt 0 view .LVU56
 175 005a 5B       		popl	%ebx
 176              		.cfi_remember_state
 177              		.cfi_restore 3
 178              		.cfi_def_cfa_offset 12
 179 005b 5E       		popl	%esi
 180              		.cfi_restore 6
 181              		.cfi_def_cfa_offset 8
 182              	.LVL9:
 183              		.loc 1 101 1 view .LVU57
 184 005c 5F       		popl	%edi
 185              		.cfi_restore 7
 186              		.cfi_def_cfa_offset 4
 187 005d C3       		ret
 188              	.LVL10:
 189 005e 6690     		.p2align 4,,10
 190              		.p2align 3
 191              	.L5:
 192              		.cfi_restore_state
 193              		.loc 1 94 5 is_stmt 1 view .LVU58
 194              		.loc 1 94 12 is_stmt 0 view .LVU59
 195 0060 83EC0C   		subl	$12, %esp
 196              		.cfi_def_cfa_offset 28
 197 0063 50       		pushl	%eax
 198              		.cfi_def_cfa_offset 32
 199 0064 E8FCFFFF 		call	chSchReadyI@PLT
 199      FF
 200              	.LVL11:
 201              		.loc 1 94 12 view .LVU60
 202 0069 83C410   		addl	$16, %esp
 203              		.cfi_def_cfa_offset 16
 204 006c EBD6     		jmp	.L2
 205              		.cfi_endproc
 206              	.LFE203:
 207              		.size	chMsgSend, .-chMsgSend
 208              		.section	.text.chMsgWaitS,"ax",@progbits
 209              		.p2align 4
 210              		.globl	chMsgWaitS
 211              		.type	chMsgWaitS, @function
 212              	chMsgWaitS:
 213              	.LFB204:
 214              		.loc 1 119 28 is_stmt 1 view -0
 215              		.cfi_startproc
 216              		.loc 1 120 3 view .LVU62
 217              	.LBB71:
 218              	.LBI71:
 219              		.loc 2 527 25 view .LVU63
 220              	.LBB72:
GAS LISTING /tmp/cc2l5lB5.s 			page 5


 221              		.loc 2 529 3 view .LVU64
 222              	.LBE72:
 223              	.LBE71:
 224              		.loc 1 119 28 is_stmt 0 view .LVU65
 225 0000 57       		pushl	%edi
 226              		.cfi_def_cfa_offset 8
 227              		.cfi_offset 7, -8
 228 0001 56       		pushl	%esi
 229              		.cfi_def_cfa_offset 12
 230              		.cfi_offset 6, -12
 231 0002 53       		pushl	%ebx
 232              		.cfi_def_cfa_offset 16
 233              		.cfi_offset 3, -16
 234 0003 E8FCFFFF 		call	__x86.get_pc_thunk.bx
 234      FF
 235 0008 81C30200 		addl	$_GLOBAL_OFFSET_TABLE_, %ebx
 235      0000
 236              	.LBB74:
 237              	.LBB73:
 238              		.loc 2 529 10 view .LVU66
 239 000e 8B830000 		movl	ch0@GOT(%ebx), %eax
 239      0000
 240 0014 8B700C   		movl	12(%eax), %esi
 241              	.LVL12:
 242              		.loc 2 529 10 view .LVU67
 243              	.LBE73:
 244              	.LBE74:
 245              		.loc 1 121 3 is_stmt 1 view .LVU68
 246              		.loc 1 123 21 view .LVU69
 247              		.loc 1 125 3 view .LVU70
 248              	.LBB75:
 249              	.LBI75:
 250              		.file 6 "../../../os/rt/include/chmsg.h"
 251              		.loc 6 172 20 view .LVU71
 252              	.LBB76:
 253              		.loc 6 174 21 view .LVU72
 254              		.loc 6 176 3 view .LVU73
 255              		.loc 6 176 29 is_stmt 0 view .LVU74
 256 0017 8B463C   		movl	60(%esi), %eax
 257              		.loc 6 176 38 view .LVU75
 258 001a 8D7E3C   		leal	60(%esi), %edi
 259              	.LVL13:
 260              		.loc 6 176 38 view .LVU76
 261              	.LBE76:
 262              	.LBE75:
 263              		.loc 1 125 6 view .LVU77
 264 001d 39C7     		cmpl	%eax, %edi
 265 001f 7417     		je	.L9
 266              		.loc 1 128 3 is_stmt 1 view .LVU78
 267              	.LVL14:
 268              	.LBB77:
 269              	.LBI77:
 270              		.loc 5 340 27 view .LVU79
 271              	.LBB78:
 272              		.loc 5 341 3 view .LVU80
 273              		.loc 5 343 3 view .LVU81
 274              		.loc 5 343 21 is_stmt 0 view .LVU82
GAS LISTING /tmp/cc2l5lB5.s 			page 6


 275 0021 8B10     		movl	(%eax), %edx
 276              		.loc 5 343 18 view .LVU83
 277 0023 89563C   		movl	%edx, 60(%esi)
 278              		.loc 5 344 3 is_stmt 1 view .LVU84
 279              		.loc 5 344 18 is_stmt 0 view .LVU85
 280 0026 897A04   		movl	%edi, 4(%edx)
 281              		.loc 5 346 3 is_stmt 1 view .LVU86
 282              	.LVL15:
 283              		.loc 5 346 3 is_stmt 0 view .LVU87
 284              	.LBE78:
 285              	.LBE77:
 286              		.loc 1 129 3 is_stmt 1 view .LVU88
 287              		.loc 1 129 13 is_stmt 0 view .LVU89
 288 0029 C6401C0D 		movb	$13, 28(%eax)
 289              		.loc 1 131 3 is_stmt 1 view .LVU90
 290              		.loc 1 132 1 is_stmt 0 view .LVU91
 291 002d 5B       		popl	%ebx
 292              		.cfi_remember_state
 293              		.cfi_restore 3
 294              		.cfi_def_cfa_offset 12
 295 002e 5E       		popl	%esi
 296              		.cfi_restore 6
 297              		.cfi_def_cfa_offset 8
 298              	.LVL16:
 299              		.loc 1 132 1 view .LVU92
 300 002f 5F       		popl	%edi
 301              		.cfi_restore 7
 302              		.cfi_def_cfa_offset 4
 303 0030 C3       		ret
 304              	.LVL17:
 305              		.p2align 4,,10
 306 0031 8DB42600 		.p2align 3
 306      000000
 307              	.L9:
 308              		.cfi_restore_state
 309              		.loc 1 126 5 is_stmt 1 view .LVU93
 310 0038 83EC0C   		subl	$12, %esp
 311              		.cfi_def_cfa_offset 28
 312 003b 6A0E     		pushl	$14
 313              		.cfi_def_cfa_offset 32
 314 003d E8FCFFFF 		call	chSchGoSleepS@PLT
 314      FF
 315              	.LVL18:
 316              	.LBB81:
 317              	.LBB79:
 318              		.loc 5 341 15 is_stmt 0 view .LVU94
 319 0042 8B463C   		movl	60(%esi), %eax
 320 0045 83C410   		addl	$16, %esp
 321              		.cfi_def_cfa_offset 16
 322              	.LBE79:
 323              	.LBE81:
 324              		.loc 1 128 3 is_stmt 1 view .LVU95
 325              	.LVL19:
 326              	.LBB82:
 327              		.loc 5 340 27 view .LVU96
 328              	.LBB80:
 329              		.loc 5 341 3 view .LVU97
GAS LISTING /tmp/cc2l5lB5.s 			page 7


 330              		.loc 5 343 3 view .LVU98
 331              		.loc 5 343 21 is_stmt 0 view .LVU99
 332 0048 8B10     		movl	(%eax), %edx
 333              		.loc 5 343 18 view .LVU100
 334 004a 89563C   		movl	%edx, 60(%esi)
 335              		.loc 5 344 3 is_stmt 1 view .LVU101
 336              		.loc 5 344 18 is_stmt 0 view .LVU102
 337 004d 897A04   		movl	%edi, 4(%edx)
 338              		.loc 5 346 3 is_stmt 1 view .LVU103
 339              	.LVL20:
 340              		.loc 5 346 3 is_stmt 0 view .LVU104
 341              	.LBE80:
 342              	.LBE82:
 343              		.loc 1 129 3 is_stmt 1 view .LVU105
 344              		.loc 1 129 13 is_stmt 0 view .LVU106
 345 0050 C6401C0D 		movb	$13, 28(%eax)
 346              		.loc 1 131 3 is_stmt 1 view .LVU107
 347              		.loc 1 132 1 is_stmt 0 view .LVU108
 348 0054 5B       		popl	%ebx
 349              		.cfi_restore 3
 350              		.cfi_def_cfa_offset 12
 351 0055 5E       		popl	%esi
 352              		.cfi_restore 6
 353              		.cfi_def_cfa_offset 8
 354              	.LVL21:
 355              		.loc 1 132 1 view .LVU109
 356 0056 5F       		popl	%edi
 357              		.cfi_restore 7
 358              		.cfi_def_cfa_offset 4
 359              	.LVL22:
 360              		.loc 1 132 1 view .LVU110
 361 0057 C3       		ret
 362              		.cfi_endproc
 363              	.LFE204:
 364              		.size	chMsgWaitS, .-chMsgWaitS
 365              		.section	.text.chMsgWaitTimeoutS,"ax",@progbits
 366              		.p2align 4
 367              		.globl	chMsgWaitTimeoutS
 368              		.type	chMsgWaitTimeoutS, @function
 369              	chMsgWaitTimeoutS:
 370              	.LVL23:
 371              	.LFB205:
 372              		.loc 1 155 52 is_stmt 1 view -0
 373              		.cfi_startproc
 374              		.loc 1 156 3 view .LVU112
 375              	.LBB83:
 376              	.LBI83:
 377              		.loc 2 527 25 view .LVU113
 378              	.LBB84:
 379              		.loc 2 529 3 view .LVU114
 380              	.LBE84:
 381              	.LBE83:
 382              		.loc 1 155 52 is_stmt 0 view .LVU115
 383 0000 57       		pushl	%edi
 384              		.cfi_def_cfa_offset 8
 385              		.cfi_offset 7, -8
 386 0001 56       		pushl	%esi
GAS LISTING /tmp/cc2l5lB5.s 			page 8


 387              		.cfi_def_cfa_offset 12
 388              		.cfi_offset 6, -12
 389 0002 53       		pushl	%ebx
 390              		.cfi_def_cfa_offset 16
 391              		.cfi_offset 3, -16
 392 0003 E8FCFFFF 		call	__x86.get_pc_thunk.bx
 392      FF
 393 0008 81C30200 		addl	$_GLOBAL_OFFSET_TABLE_, %ebx
 393      0000
 394              	.LBB86:
 395              	.LBB85:
 396              		.loc 2 529 10 view .LVU116
 397 000e 8B830000 		movl	ch0@GOT(%ebx), %eax
 397      0000
 398 0014 8B700C   		movl	12(%eax), %esi
 399              	.LVL24:
 400              		.loc 2 529 10 view .LVU117
 401              	.LBE85:
 402              	.LBE86:
 403              		.loc 1 157 3 is_stmt 1 view .LVU118
 404              		.loc 1 159 21 view .LVU119
 405              		.loc 1 161 3 view .LVU120
 406              	.LBB87:
 407              	.LBI87:
 408              		.loc 6 172 20 view .LVU121
 409              	.LBB88:
 410              		.loc 6 174 21 view .LVU122
 411              		.loc 6 176 3 view .LVU123
 412              		.loc 6 176 29 is_stmt 0 view .LVU124
 413 0017 8B463C   		movl	60(%esi), %eax
 414              		.loc 6 176 38 view .LVU125
 415 001a 8D7E3C   		leal	60(%esi), %edi
 416              	.LVL25:
 417              		.loc 6 176 38 view .LVU126
 418              	.LBE88:
 419              	.LBE87:
 420              		.loc 1 161 6 view .LVU127
 421 001d 39C7     		cmpl	%eax, %edi
 422 001f 7417     		je	.L15
 423              	.L11:
 424              		.loc 1 166 3 is_stmt 1 view .LVU128
 425              	.LVL26:
 426              	.LBB89:
 427              	.LBI89:
 428              		.loc 5 340 27 view .LVU129
 429              	.LBB90:
 430              		.loc 5 341 3 view .LVU130
 431              		.loc 5 343 3 view .LVU131
 432              		.loc 5 343 21 is_stmt 0 view .LVU132
 433 0021 8B10     		movl	(%eax), %edx
 434              		.loc 5 343 18 view .LVU133
 435 0023 89563C   		movl	%edx, 60(%esi)
 436              	.LVL27:
 437              		.loc 5 344 3 is_stmt 1 view .LVU134
 438              		.loc 5 344 18 is_stmt 0 view .LVU135
 439 0026 897A04   		movl	%edi, 4(%edx)
 440              		.loc 5 346 3 is_stmt 1 view .LVU136
GAS LISTING /tmp/cc2l5lB5.s 			page 9


 441              	.LVL28:
 442              		.loc 5 346 3 is_stmt 0 view .LVU137
 443              	.LBE90:
 444              	.LBE89:
 445              		.loc 1 167 3 is_stmt 1 view .LVU138
 446              		.loc 1 167 13 is_stmt 0 view .LVU139
 447 0029 C6401C0D 		movb	$13, 28(%eax)
 448              		.loc 1 169 3 is_stmt 1 view .LVU140
 449              	.L10:
 450              		.loc 1 170 1 is_stmt 0 view .LVU141
 451 002d 5B       		popl	%ebx
 452              		.cfi_remember_state
 453              		.cfi_restore 3
 454              		.cfi_def_cfa_offset 12
 455 002e 5E       		popl	%esi
 456              		.cfi_restore 6
 457              		.cfi_def_cfa_offset 8
 458              	.LVL29:
 459              		.loc 1 170 1 view .LVU142
 460 002f 5F       		popl	%edi
 461              		.cfi_restore 7
 462              		.cfi_def_cfa_offset 4
 463              	.LVL30:
 464              		.loc 1 170 1 view .LVU143
 465 0030 C3       		ret
 466              	.LVL31:
 467              		.p2align 4,,10
 468 0031 8DB42600 		.p2align 3
 468      000000
 469              	.L15:
 470              		.cfi_restore_state
 471              		.loc 1 162 5 is_stmt 1 view .LVU144
 472              		.loc 1 162 9 is_stmt 0 view .LVU145
 473 0038 83EC08   		subl	$8, %esp
 474              		.cfi_def_cfa_offset 24
 475 003b FF742418 		pushl	24(%esp)
 476              		.cfi_def_cfa_offset 28
 477 003f 6A0E     		pushl	$14
 478              		.cfi_def_cfa_offset 32
 479 0041 E8FCFFFF 		call	chSchGoSleepTimeoutS@PLT
 479      FF
 480              	.LVL32:
 481              		.loc 1 162 8 view .LVU146
 482 0046 83C410   		addl	$16, %esp
 483              		.cfi_def_cfa_offset 16
 484 0049 85C0     		testl	%eax, %eax
 485 004b 750B     		jne	.L13
 486              	.LBB92:
 487              	.LBB91:
 488              		.loc 5 341 15 view .LVU147
 489 004d 8B463C   		movl	60(%esi), %eax
 490 0050 EBCF     		jmp	.L11
 491              		.p2align 4,,10
 492 0052 8DB60000 		.p2align 3
 492      0000
 493              	.L13:
 494              		.loc 5 341 15 view .LVU148
GAS LISTING /tmp/cc2l5lB5.s 			page 10


 495              	.LBE91:
 496              	.LBE92:
 497              		.loc 1 163 14 view .LVU149
 498 0058 31C0     		xorl	%eax, %eax
 499 005a EBD1     		jmp	.L10
 500              		.cfi_endproc
 501              	.LFE205:
 502              		.size	chMsgWaitTimeoutS, .-chMsgWaitTimeoutS
 503              		.section	.text.chMsgPollS,"ax",@progbits
 504              		.p2align 4
 505              		.globl	chMsgPollS
 506              		.type	chMsgPollS, @function
 507              	chMsgPollS:
 508              	.LFB206:
 509              		.loc 1 189 28 is_stmt 1 view -0
 510              		.cfi_startproc
 511              		.loc 1 190 3 view .LVU151
 512              	.LBB93:
 513              	.LBI93:
 514              		.loc 2 527 25 view .LVU152
 515              	.LBB94:
 516              		.loc 2 529 3 view .LVU153
 517 0000 E8FCFFFF 		call	__x86.get_pc_thunk.ax
 517      FF
 518 0005 05010000 		addl	$_GLOBAL_OFFSET_TABLE_, %eax
 518      00
 519              		.loc 2 529 10 is_stmt 0 view .LVU154
 520 000a 8B800000 		movl	ch0@GOT(%eax), %eax
 520      0000
 521 0010 8B500C   		movl	12(%eax), %edx
 522              	.LVL33:
 523              		.loc 2 529 10 view .LVU155
 524              	.LBE94:
 525              	.LBE93:
 526              		.loc 1 191 3 is_stmt 1 view .LVU156
 527              		.loc 1 193 3 view .LVU157
 528              	.LBB95:
 529              	.LBI95:
 530              		.loc 6 172 20 view .LVU158
 531              	.LBB96:
 532              		.loc 6 174 21 view .LVU159
 533              		.loc 6 176 3 view .LVU160
 534              		.loc 6 176 29 is_stmt 0 view .LVU161
 535 0013 8B423C   		movl	60(%edx), %eax
 536              		.loc 6 176 38 view .LVU162
 537 0016 8D4A3C   		leal	60(%edx), %ecx
 538              	.LVL34:
 539              		.loc 6 176 38 view .LVU163
 540              	.LBE96:
 541              	.LBE95:
 542              		.loc 1 193 6 view .LVU164
 543 0019 39C1     		cmpl	%eax, %ecx
 544 001b 7413     		je	.L18
 545              		.loc 1 194 5 is_stmt 1 view .LVU165
 546              	.LVL35:
 547              	.LBB97:
 548              	.LBI97:
GAS LISTING /tmp/cc2l5lB5.s 			page 11


 549              		.loc 5 340 27 view .LVU166
 550              	.LBB98:
 551              		.loc 5 341 3 view .LVU167
 552              		.loc 5 343 3 view .LVU168
 553              	.LBE98:
 554              	.LBE97:
 555              		.loc 1 189 28 is_stmt 0 view .LVU169
 556 001d 53       		pushl	%ebx
 557              		.cfi_def_cfa_offset 8
 558              		.cfi_offset 3, -8
 559              	.LBB100:
 560              	.LBB99:
 561              		.loc 5 343 21 view .LVU170
 562 001e 8B18     		movl	(%eax), %ebx
 563              		.loc 5 343 18 view .LVU171
 564 0020 895A3C   		movl	%ebx, 60(%edx)
 565              		.loc 5 344 3 is_stmt 1 view .LVU172
 566              		.loc 5 344 18 is_stmt 0 view .LVU173
 567 0023 894B04   		movl	%ecx, 4(%ebx)
 568              		.loc 5 346 3 is_stmt 1 view .LVU174
 569              	.LVL36:
 570              		.loc 5 346 3 is_stmt 0 view .LVU175
 571              	.LBE99:
 572              	.LBE100:
 573              		.loc 1 195 5 is_stmt 1 view .LVU176
 574              		.loc 1 195 15 is_stmt 0 view .LVU177
 575 0026 C6401C0D 		movb	$13, 28(%eax)
 576              		.loc 1 199 1 view .LVU178
 577 002a 5B       		popl	%ebx
 578              		.cfi_restore 3
 579              		.cfi_def_cfa_offset 4
 580 002b C3       		ret
 581              	.LVL37:
 582 002c 8D742600 		.p2align 4,,10
 583              		.p2align 3
 584              	.L18:
 585              		.loc 1 191 13 view .LVU179
 586 0030 31C0     		xorl	%eax, %eax
 587              		.loc 1 198 3 is_stmt 1 view .LVU180
 588              		.loc 1 199 1 is_stmt 0 view .LVU181
 589 0032 C3       		ret
 590              		.cfi_endproc
 591              	.LFE206:
 592              		.size	chMsgPollS, .-chMsgPollS
 593              		.section	.text.chMsgRelease,"ax",@progbits
 594              		.p2align 4
 595              		.globl	chMsgRelease
 596              		.type	chMsgRelease, @function
 597              	chMsgRelease:
 598              	.LVL38:
 599              	.LFB207:
 600              		.loc 1 211 44 is_stmt 1 view -0
 601              		.cfi_startproc
 602              		.loc 1 213 3 view .LVU183
 603              	.LBB101:
 604              	.LBI101:
 605              		.loc 4 407 20 view .LVU184
GAS LISTING /tmp/cc2l5lB5.s 			page 12


 606              		.loc 4 409 3 view .LVU185
 607              	.LBB102:
 608              	.LBI102:
 609              		.loc 3 361 20 view .LVU186
 610              	.LBB103:
 611              		.loc 3 363 3 view .LVU187
 612              	.LBE103:
 613              	.LBE102:
 614              	.LBE101:
 615              		.loc 1 211 44 is_stmt 0 view .LVU188
 616 0000 56       		pushl	%esi
 617              		.cfi_def_cfa_offset 8
 618              		.cfi_offset 6, -8
 619 0001 53       		pushl	%ebx
 620              		.cfi_def_cfa_offset 12
 621              		.cfi_offset 3, -12
 622 0002 E8FCFFFF 		call	__x86.get_pc_thunk.bx
 622      FF
 623 0007 81C30200 		addl	$_GLOBAL_OFFSET_TABLE_, %ebx
 623      0000
 624 000d 83EC0C   		subl	$12, %esp
 625              		.cfi_def_cfa_offset 24
 626              	.LBB106:
 627              	.LBB107:
 628              		.loc 6 210 3 view .LVU189
 629 0010 FF74241C 		pushl	28(%esp)
 630              		.cfi_def_cfa_offset 28
 631 0014 FF74241C 		pushl	28(%esp)
 632              		.cfi_def_cfa_offset 32
 633              	.LBE107:
 634              	.LBE106:
 635              	.LBB109:
 636              	.LBB105:
 637              	.LBB104:
 638              		.loc 3 363 16 view .LVU190
 639 0018 8BB30000 		movl	port_irq_sts@GOT(%ebx), %esi
 639      0000
 640 001e C7060100 		movl	$1, (%esi)
 640      0000
 641              	.LBE104:
 642              	.LBE105:
 643              		.loc 4 410 35 is_stmt 1 view .LVU191
 644              		.loc 4 411 21 view .LVU192
 645              	.LBE109:
 646              		.loc 1 214 3 view .LVU193
 647              		.loc 1 214 3 view .LVU194
 648              		.loc 1 214 3 view .LVU195
 649              		.loc 1 215 3 view .LVU196
 650              	.LBB110:
 651              	.LBI106:
 652              		.loc 6 206 20 view .LVU197
 653              	.LBB108:
 654              		.loc 6 208 21 view .LVU198
 655              		.loc 6 210 3 view .LVU199
 656 0024 E8FCFFFF 		call	chSchWakeupS@PLT
 656      FF
 657              	.LVL39:
GAS LISTING /tmp/cc2l5lB5.s 			page 13


 658              	.LBE108:
 659              	.LBE110:
 660              		.loc 1 216 3 view .LVU200
 661              	.LBB111:
 662              	.LBI111:
 663              		.loc 4 421 20 view .LVU201
 664              	.LBB112:
 665              		.loc 4 423 23 view .LVU202
 666              		.loc 4 424 34 view .LVU203
 667              		.loc 4 430 3 view .LVU204
 668              		.loc 4 430 3 view .LVU205
 669              		.loc 4 430 3 view .LVU206
 670              		.loc 4 434 3 view .LVU207
 671              	.LBB113:
 672              	.LBI113:
 673              		.loc 3 370 20 view .LVU208
 674              	.LBB114:
 675              		.loc 3 372 3 view .LVU209
 676              		.loc 3 372 16 is_stmt 0 view .LVU210
 677 0029 C7060000 		movl	$0, (%esi)
 677      0000
 678              	.LBE114:
 679              	.LBE113:
 680              	.LBE112:
 681              	.LBE111:
 682              		.loc 1 217 1 view .LVU211
 683 002f 83C414   		addl	$20, %esp
 684              		.cfi_def_cfa_offset 12
 685 0032 5B       		popl	%ebx
 686              		.cfi_restore 3
 687              		.cfi_def_cfa_offset 8
 688 0033 5E       		popl	%esi
 689              		.cfi_restore 6
 690              		.cfi_def_cfa_offset 4
 691 0034 C3       		ret
 692              		.cfi_endproc
 693              	.LFE207:
 694              		.size	chMsgRelease, .-chMsgRelease
 695              		.section	.text.__x86.get_pc_thunk.ax,"axG",@progbits,__x86.get_pc_thunk.ax,comdat
 696              		.globl	__x86.get_pc_thunk.ax
 697              		.hidden	__x86.get_pc_thunk.ax
 698              		.type	__x86.get_pc_thunk.ax, @function
 699              	__x86.get_pc_thunk.ax:
 700              	.LFB208:
 701              		.cfi_startproc
 702 0000 8B0424   		movl	(%esp), %eax
 703 0003 C3       		ret
 704              		.cfi_endproc
 705              	.LFE208:
 706              		.section	.text.__x86.get_pc_thunk.bx,"axG",@progbits,__x86.get_pc_thunk.bx,comdat
 707              		.globl	__x86.get_pc_thunk.bx
 708              		.hidden	__x86.get_pc_thunk.bx
 709              		.type	__x86.get_pc_thunk.bx, @function
 710              	__x86.get_pc_thunk.bx:
 711              	.LFB209:
 712              		.cfi_startproc
 713 0000 8B1C24   		movl	(%esp), %ebx
GAS LISTING /tmp/cc2l5lB5.s 			page 14


 714 0003 C3       		ret
 715              		.cfi_endproc
 716              	.LFE209:
 717              		.text
 718              	.Letext0:
 719              		.file 7 "/usr/include/bits/types.h"
 720              		.file 8 "/usr/include/bits/stdint-intn.h"
 721              		.file 9 "/usr/include/bits/stdint-uintn.h"
 722              		.file 10 "../../../os/common/ports/SIMIA32/compilers/GCC/chtypes.h"
 723              		.file 11 "../../../os/rt/include/chearly.h"
 724              		.file 12 "../../../os/rt/include/chobjects.h"
 725              		.file 13 "../../../os/rt/include/chrfcu.h"
 726              		.file 14 "../../../os/rt/include/chdebug.h"
 727              		.file 15 "../../../os/rt/include/chtime.h"
 728              		.file 16 "../../../os/rt/include/chsem.h"
 729              		.file 17 "../../../os/rt/include/chmtx.h"
 730              		.file 18 "../../../os/rt/include/chschd.h"
 731              		.section	.debug_info,"",@progbits
 732              	.Ldebug_info0:
 733 0000 7C0C0000 		.long	0xc7c
 734 0004 0500     		.value	0x5
 735 0006 01       		.byte	0x1
 736 0007 04       		.byte	0x4
 737 0008 00000000 		.long	.Ldebug_abbrev0
 738 000c 27       		.uleb128 0x27
 739 000d F2030000 		.long	.LASF134
 740 0011 1D       		.byte	0x1d
 741 0012 26000000 		.long	.LASF0
 742 0016 00000000 		.long	.LASF1
 743 001a 90000000 		.long	.LLRL29
 744 001e 00000000 		.long	0
 745 0022 00000000 		.long	.Ldebug_line0
 746 0026 28       		.uleb128 0x28
 747 0027 04       		.byte	0x4
 748 0028 05       		.byte	0x5
 749 0029 696E7400 		.string	"int"
 750 002d 05       		.uleb128 0x5
 751 002e 04       		.byte	0x4
 752 002f 07       		.byte	0x7
 753 0030 54000000 		.long	.LASF2
 754 0034 05       		.uleb128 0x5
 755 0035 04       		.byte	0x4
 756 0036 05       		.byte	0x5
 757 0037 DD030000 		.long	.LASF3
 758 003b 05       		.uleb128 0x5
 759 003c 08       		.byte	0x8
 760 003d 05       		.byte	0x5
 761 003e 26030000 		.long	.LASF4
 762 0042 05       		.uleb128 0x5
 763 0043 0C       		.byte	0xc
 764 0044 04       		.byte	0x4
 765 0045 B6030000 		.long	.LASF5
 766 0049 05       		.uleb128 0x5
 767 004a 10       		.byte	0x10
 768 004b 04       		.byte	0x4
 769 004c 66000000 		.long	.LASF6
 770 0050 05       		.uleb128 0x5
GAS LISTING /tmp/cc2l5lB5.s 			page 15


 771 0051 01       		.byte	0x1
 772 0052 08       		.byte	0x8
 773 0053 7E050000 		.long	.LASF7
 774 0057 05       		.uleb128 0x5
 775 0058 02       		.byte	0x2
 776 0059 07       		.byte	0x7
 777 005a 1E060000 		.long	.LASF8
 778 005e 05       		.uleb128 0x5
 779 005f 04       		.byte	0x4
 780 0060 07       		.byte	0x7
 781 0061 0B050000 		.long	.LASF9
 782 0065 05       		.uleb128 0x5
 783 0066 01       		.byte	0x1
 784 0067 06       		.byte	0x6
 785 0068 0C060000 		.long	.LASF10
 786 006c 01       		.uleb128 0x1
 787 006d E6040000 		.long	.LASF12
 788 0071 07       		.byte	0x7
 789 0072 26       		.byte	0x26
 790 0073 17       		.byte	0x17
 791 0074 50000000 		.long	0x50
 792 0078 05       		.uleb128 0x5
 793 0079 02       		.byte	0x2
 794 007a 05       		.byte	0x5
 795 007b D3030000 		.long	.LASF11
 796 007f 01       		.uleb128 0x1
 797 0080 81000000 		.long	.LASF13
 798 0084 07       		.byte	0x7
 799 0085 29       		.byte	0x29
 800 0086 14       		.byte	0x14
 801 0087 26000000 		.long	0x26
 802 008b 01       		.uleb128 0x1
 803 008c 8C050000 		.long	.LASF14
 804 0090 07       		.byte	0x7
 805 0091 2A       		.byte	0x2a
 806 0092 16       		.byte	0x16
 807 0093 2D000000 		.long	0x2d
 808 0097 01       		.uleb128 0x1
 809 0098 4A020000 		.long	.LASF15
 810 009c 07       		.byte	0x7
 811 009d 30       		.byte	0x30
 812 009e 2E       		.byte	0x2e
 813 009f A3000000 		.long	0xa3
 814 00a3 05       		.uleb128 0x5
 815 00a4 08       		.byte	0x8
 816 00a5 07       		.byte	0x7
 817 00a6 92010000 		.long	.LASF16
 818 00aa 29       		.uleb128 0x29
 819 00ab 04       		.byte	0x4
 820 00ac 05       		.uleb128 0x5
 821 00ad 01       		.byte	0x1
 822 00ae 06       		.byte	0x6
 823 00af 9F020000 		.long	.LASF17
 824 00b3 0C       		.uleb128 0xc
 825 00b4 AC000000 		.long	0xac
 826 00b8 01       		.uleb128 0x1
 827 00b9 45050000 		.long	.LASF18
GAS LISTING /tmp/cc2l5lB5.s 			page 16


 828 00bd 08       		.byte	0x8
 829 00be 1A       		.byte	0x1a
 830 00bf 13       		.byte	0x13
 831 00c0 7F000000 		.long	0x7f
 832 00c4 01       		.uleb128 0x1
 833 00c5 FC020000 		.long	.LASF19
 834 00c9 09       		.byte	0x9
 835 00ca 18       		.byte	0x18
 836 00cb 13       		.byte	0x13
 837 00cc 6C000000 		.long	0x6c
 838 00d0 01       		.uleb128 0x1
 839 00d1 40010000 		.long	.LASF20
 840 00d5 09       		.byte	0x9
 841 00d6 1A       		.byte	0x1a
 842 00d7 14       		.byte	0x14
 843 00d8 8B000000 		.long	0x8b
 844 00dc 01       		.uleb128 0x1
 845 00dd D7040000 		.long	.LASF21
 846 00e1 09       		.byte	0x9
 847 00e2 1B       		.byte	0x1b
 848 00e3 14       		.byte	0x14
 849 00e4 97000000 		.long	0x97
 850 00e8 13       		.uleb128 0x13
 851 00e9 DC000000 		.long	0xdc
 852 00ed 01       		.uleb128 0x1
 853 00ee 70000000 		.long	.LASF22
 854 00f2 0A       		.byte	0xa
 855 00f3 37       		.byte	0x37
 856 00f4 1D       		.byte	0x1d
 857 00f5 D0000000 		.long	0xd0
 858 00f9 01       		.uleb128 0x1
 859 00fa 9B030000 		.long	.LASF23
 860 00fe 0A       		.byte	0xa
 861 00ff 38       		.byte	0x38
 862 0100 1D       		.byte	0x1d
 863 0101 C4000000 		.long	0xc4
 864 0105 01       		.uleb128 0x1
 865 0106 EC020000 		.long	.LASF24
 866 010a 0A       		.byte	0xa
 867 010b 39       		.byte	0x39
 868 010c 1D       		.byte	0x1d
 869 010d C4000000 		.long	0xc4
 870 0111 01       		.uleb128 0x1
 871 0112 03050000 		.long	.LASF25
 872 0116 0A       		.byte	0xa
 873 0117 3A       		.byte	0x3a
 874 0118 1D       		.byte	0x1d
 875 0119 C4000000 		.long	0xc4
 876 011d 01       		.uleb128 0x1
 877 011e 6A010000 		.long	.LASF26
 878 0122 0A       		.byte	0xa
 879 0123 3C       		.byte	0x3c
 880 0124 1D       		.byte	0x1d
 881 0125 D0000000 		.long	0xd0
 882 0129 01       		.uleb128 0x1
 883 012a 34030000 		.long	.LASF27
 884 012e 0A       		.byte	0xa
GAS LISTING /tmp/cc2l5lB5.s 			page 17


 885 012f 3D       		.byte	0x3d
 886 0130 1D       		.byte	0x1d
 887 0131 B8000000 		.long	0xb8
 888 0135 01       		.uleb128 0x1
 889 0136 51010000 		.long	.LASF28
 890 013a 0A       		.byte	0xa
 891 013b 3F       		.byte	0x3f
 892 013c 1D       		.byte	0x1d
 893 013d D0000000 		.long	0xd0
 894 0141 01       		.uleb128 0x1
 895 0142 B0010000 		.long	.LASF29
 896 0146 0A       		.byte	0xa
 897 0147 41       		.byte	0x41
 898 0148 1D       		.byte	0x1d
 899 0149 B8000000 		.long	0xb8
 900 014d 01       		.uleb128 0x1
 901 014e 57060000 		.long	.LASF30
 902 0152 0B       		.byte	0xb
 903 0153 80       		.byte	0x80
 904 0154 12       		.byte	0x12
 905 0155 2D000000 		.long	0x2d
 906 0159 01       		.uleb128 0x1
 907 015a 04020000 		.long	.LASF31
 908 015e 0B       		.byte	0xb
 909 015f 85       		.byte	0x85
 910 0160 1A       		.byte	0x1a
 911 0161 65010000 		.long	0x165
 912 0165 06       		.uleb128 0x6
 913 0166 0D030000 		.long	.LASF48
 914 016a 50       		.byte	0x50
 915 016b 0C       		.byte	0xc
 916 016c A9       		.byte	0xa9
 917 016d 08       		.byte	0x8
 918 016e 5A020000 		.long	0x25a
 919 0172 07       		.uleb128 0x7
 920 0173 68647200 		.string	"hdr"
 921 0177 0C       		.byte	0xc
 922 0178 BA       		.byte	0xba
 923 0179 05       		.byte	0x5
 924 017a AF050000 		.long	0x5af
 925 017e 00       		.byte	0
 926 017f 07       		.uleb128 0x7
 927 0180 63747800 		.string	"ctx"
 928 0184 0C       		.byte	0xc
 929 0185 BE       		.byte	0xbe
 930 0186 21       		.byte	0x21
 931 0187 E7040000 		.long	0x4e7
 932 018b 0C       		.byte	0xc
 933 018c 02       		.uleb128 0x2
 934 018d DA010000 		.long	.LASF32
 935 0191 0C       		.byte	0xc
 936 0192 C2       		.byte	0xc2
 937 0193 22       		.byte	0x22
 938 0194 AE060000 		.long	0x6ae
 939 0198 10       		.byte	0x10
 940 0199 02       		.uleb128 0x2
 941 019a D3020000 		.long	.LASF33
GAS LISTING /tmp/cc2l5lB5.s 			page 18


 942 019e 0C       		.byte	0xc
 943 019f C8       		.byte	0xc8
 944 01a0 22       		.byte	0x22
 945 01a1 B3060000 		.long	0x6b3
 946 01a5 14       		.byte	0x14
 947 01a6 02       		.uleb128 0x2
 948 01a7 AA040000 		.long	.LASF34
 949 01ab 0C       		.byte	0xc
 950 01ac CD       		.byte	0xcd
 951 01ad 21       		.byte	0x21
 952 01ae B3060000 		.long	0x6b3
 953 01b2 18       		.byte	0x18
 954 01b3 02       		.uleb128 0x2
 955 01b4 E3050000 		.long	.LASF35
 956 01b8 0C       		.byte	0xc
 957 01b9 D1       		.byte	0xd1
 958 01ba 21       		.byte	0x21
 959 01bb 05010000 		.long	0x105
 960 01bf 1C       		.byte	0x1c
 961 01c0 02       		.uleb128 0x2
 962 01c1 32000000 		.long	.LASF36
 963 01c5 0C       		.byte	0xc
 964 01c6 D5       		.byte	0xd5
 965 01c7 21       		.byte	0x21
 966 01c8 F9000000 		.long	0xf9
 967 01cc 1D       		.byte	0x1d
 968 01cd 02       		.uleb128 0x2
 969 01ce 8B000000 		.long	.LASF37
 970 01d2 0C       		.byte	0xc
 971 01d3 DA       		.byte	0xda
 972 01d4 21       		.byte	0x21
 973 01d5 11010000 		.long	0x111
 974 01d9 1E       		.byte	0x1e
 975 01da 02       		.uleb128 0x2
 976 01db F0040000 		.long	.LASF38
 977 01df 0C       		.byte	0xc
 978 01e0 DE       		.byte	0xde
 979 01e1 22       		.byte	0x22
 980 01e2 36030000 		.long	0x336
 981 01e6 20       		.byte	0x20
 982 01e7 02       		.uleb128 0x2
 983 01e8 F5020000 		.long	.LASF39
 984 01ec 0C       		.byte	0xc
 985 01ed E2       		.byte	0xe2
 986 01ee 21       		.byte	0x21
 987 01ef 95030000 		.long	0x395
 988 01f3 24       		.byte	0x24
 989 01f4 02       		.uleb128 0x2
 990 01f5 13000000 		.long	.LASF40
 991 01f9 0C       		.byte	0xc
 992 01fa E8       		.byte	0xe8
 993 01fb 21       		.byte	0x21
 994 01fc 93050000 		.long	0x593
 995 0200 2C       		.byte	0x2c
 996 0201 02       		.uleb128 0x2
 997 0202 3B020000 		.long	.LASF41
 998 0206 0C       		.byte	0xc
GAS LISTING /tmp/cc2l5lB5.s 			page 19


 999 0207 EE       		.byte	0xee
 1000 0208 22       		.byte	0x22
 1001 0209 AA000000 		.long	0xaa
 1002 020d 30       		.byte	0x30
 1003 020e 1D       		.uleb128 0x1d
 1004 020f 7500     		.string	"u"
 1005 0211 3F01     		.value	0x13f
 1006 0213 D7050000 		.long	0x5d7
 1007 0217 34       		.byte	0x34
 1008 0218 03       		.uleb128 0x3
 1009 0219 97050000 		.long	.LASF42
 1010 021d 4401     		.value	0x144
 1011 021f 21       		.byte	0x21
 1012 0220 69030000 		.long	0x369
 1013 0224 38       		.byte	0x38
 1014 0225 03       		.uleb128 0x3
 1015 0226 04030000 		.long	.LASF43
 1016 022a 4A01     		.value	0x14a
 1017 022c 21       		.byte	0x21
 1018 022d 95030000 		.long	0x395
 1019 0231 3C       		.byte	0x3c
 1020 0232 03       		.uleb128 0x3
 1021 0233 4B000000 		.long	.LASF44
 1022 0237 5001     		.value	0x150
 1023 0239 21       		.byte	0x21
 1024 023a 35010000 		.long	0x135
 1025 023e 44       		.byte	0x44
 1026 023f 03       		.uleb128 0x3
 1027 0240 E0010000 		.long	.LASF45
 1028 0244 5701     		.value	0x157
 1029 0246 22       		.byte	0x22
 1030 0247 A9060000 		.long	0x6a9
 1031 024b 48       		.byte	0x48
 1032 024c 03       		.uleb128 0x3
 1033 024d 42000000 		.long	.LASF46
 1034 0251 5B01     		.value	0x15b
 1035 0253 21       		.byte	0x21
 1036 0254 1D010000 		.long	0x11d
 1037 0258 4C       		.byte	0x4c
 1038 0259 00       		.byte	0
 1039 025a 01       		.uleb128 0x1
 1040 025b E9050000 		.long	.LASF47
 1041 025f 0B       		.byte	0xb
 1042 0260 8A       		.byte	0x8a
 1043 0261 1F       		.byte	0x1f
 1044 0262 66020000 		.long	0x266
 1045 0266 14       		.uleb128 0x14
 1046 0267 5C020000 		.long	.LASF49
 1047 026b E0       		.byte	0xe0
 1048 026c 9701     		.value	0x197
 1049 026e 08       		.byte	0x8
 1050 026f E8020000 		.long	0x2e8
 1051 0273 03       		.uleb128 0x3
 1052 0274 E0040000 		.long	.LASF50
 1053 0278 9B01     		.value	0x19b
 1054 027a 21       		.byte	0x21
 1055 027b E0060000 		.long	0x6e0
GAS LISTING /tmp/cc2l5lB5.s 			page 20


 1056 027f 00       		.byte	0
 1057 0280 03       		.uleb128 0x3
 1058 0281 AB000000 		.long	.LASF51
 1059 0285 9F01     		.value	0x19f
 1060 0287 21       		.byte	0x21
 1061 0288 4F050000 		.long	0x54f
 1062 028c 10       		.byte	0x10
 1063 028d 03       		.uleb128 0x3
 1064 028e FE050000 		.long	.LASF52
 1065 0292 A601     		.value	0x1a6
 1066 0294 21       		.byte	0x21
 1067 0295 76050000 		.long	0x576
 1068 0299 28       		.byte	0x28
 1069 029a 03       		.uleb128 0x3
 1070 029b 79000000 		.long	.LASF53
 1071 029f AB01     		.value	0x1ab
 1072 02a1 21       		.byte	0x21
 1073 02a2 4D010000 		.long	0x14d
 1074 02a6 30       		.byte	0x30
 1075 02a7 03       		.uleb128 0x3
 1076 02a8 FF010000 		.long	.LASF54
 1077 02ac B101     		.value	0x1b1
 1078 02ae 21       		.byte	0x21
 1079 02af 0F030000 		.long	0x30f
 1080 02b3 34       		.byte	0x34
 1081 02b4 03       		.uleb128 0x3
 1082 02b5 CC030000 		.long	.LASF55
 1083 02b9 B601     		.value	0x1b6
 1084 02bb 22       		.byte	0x22
 1085 02bc 4A070000 		.long	0x74a
 1086 02c0 38       		.byte	0x38
 1087 02c1 03       		.uleb128 0x3
 1088 02c2 AB030000 		.long	.LASF56
 1089 02c6 BA01     		.value	0x1ba
 1090 02c8 21       		.byte	0x21
 1091 02c9 59010000 		.long	0x159
 1092 02cd 3C       		.byte	0x3c
 1093 02ce 03       		.uleb128 0x3
 1094 02cf D8050000 		.long	.LASF57
 1095 02d3 BF01     		.value	0x1bf
 1096 02d5 21       		.byte	0x21
 1097 02d6 59010000 		.long	0x159
 1098 02da 8C       		.byte	0x8c
 1099 02db 1D       		.uleb128 0x1d
 1100 02dc 64626700 		.string	"dbg"
 1101 02e0 C401     		.value	0x1c4
 1102 02e2 40030000 		.long	0x340
 1103 02e6 DC       		.byte	0xdc
 1104 02e7 00       		.byte	0
 1105 02e8 01       		.uleb128 0x1
 1106 02e9 B4020000 		.long	.LASF58
 1107 02ed 0D       		.byte	0xd
 1108 02ee 3F       		.byte	0x3f
 1109 02ef 12       		.byte	0x12
 1110 02f0 D0000000 		.long	0xd0
 1111 02f4 06       		.uleb128 0x6
 1112 02f5 42020000 		.long	.LASF59
GAS LISTING /tmp/cc2l5lB5.s 			page 21


 1113 02f9 04       		.byte	0x4
 1114 02fa 0D       		.byte	0xd
 1115 02fb 44       		.byte	0x44
 1116 02fc 10       		.byte	0x10
 1117 02fd 0F030000 		.long	0x30f
 1118 0301 02       		.uleb128 0x2
 1119 0302 53030000 		.long	.LASF60
 1120 0306 0D       		.byte	0xd
 1121 0307 48       		.byte	0x48
 1122 0308 21       		.byte	0x21
 1123 0309 E8020000 		.long	0x2e8
 1124 030d 00       		.byte	0
 1125 030e 00       		.byte	0
 1126 030f 01       		.uleb128 0x1
 1127 0310 4D050000 		.long	.LASF61
 1128 0314 0D       		.byte	0xd
 1129 0315 49       		.byte	0x49
 1130 0316 03       		.byte	0x3
 1131 0317 F4020000 		.long	0x2f4
 1132 031b 06       		.uleb128 0x6
 1133 031c 1D010000 		.long	.LASF62
 1134 0320 04       		.byte	0x4
 1135 0321 0E       		.byte	0xe
 1136 0322 3E       		.byte	0x3e
 1137 0323 10       		.byte	0x10
 1138 0324 36030000 		.long	0x336
 1139 0328 02       		.uleb128 0x2
 1140 0329 82030000 		.long	.LASF63
 1141 032d 0E       		.byte	0xe
 1142 032e 46       		.byte	0x46
 1143 032f 24       		.byte	0x24
 1144 0330 3B030000 		.long	0x33b
 1145 0334 00       		.byte	0
 1146 0335 00       		.byte	0
 1147 0336 04       		.uleb128 0x4
 1148 0337 B3000000 		.long	0xb3
 1149 033b 13       		.uleb128 0x13
 1150 033c 36030000 		.long	0x336
 1151 0340 01       		.uleb128 0x1
 1152 0341 17030000 		.long	.LASF64
 1153 0345 0E       		.byte	0xe
 1154 0346 51       		.byte	0x51
 1155 0347 03       		.byte	0x3
 1156 0348 1B030000 		.long	0x31b
 1157 034c 01       		.uleb128 0x1
 1158 034d 38000000 		.long	.LASF65
 1159 0351 0F       		.byte	0xf
 1160 0352 6D       		.byte	0x6d
 1161 0353 12       		.byte	0x12
 1162 0354 D0000000 		.long	0xd0
 1163 0358 13       		.uleb128 0x13
 1164 0359 4C030000 		.long	0x34c
 1165 035d 01       		.uleb128 0x1
 1166 035e 69030000 		.long	.LASF66
 1167 0362 0F       		.byte	0xf
 1168 0363 79       		.byte	0x79
 1169 0364 12       		.byte	0x12
GAS LISTING /tmp/cc2l5lB5.s 			page 22


 1170 0365 D0000000 		.long	0xd0
 1171 0369 01       		.uleb128 0x1
 1172 036a C2030000 		.long	.LASF67
 1173 036e 05       		.byte	0x5
 1174 036f 32       		.byte	0x32
 1175 0370 18       		.byte	0x18
 1176 0371 75030000 		.long	0x375
 1177 0375 06       		.uleb128 0x6
 1178 0376 CD000000 		.long	.LASF68
 1179 037a 04       		.byte	0x4
 1180 037b 05       		.byte	0x5
 1181 037c 38       		.byte	0x38
 1182 037d 08       		.byte	0x8
 1183 037e 90030000 		.long	0x390
 1184 0382 02       		.uleb128 0x2
 1185 0383 61000000 		.long	.LASF69
 1186 0387 05       		.byte	0x5
 1187 0388 39       		.byte	0x39
 1188 0389 1A       		.byte	0x1a
 1189 038a 90030000 		.long	0x390
 1190 038e 00       		.byte	0
 1191 038f 00       		.byte	0
 1192 0390 04       		.uleb128 0x4
 1193 0391 69030000 		.long	0x369
 1194 0395 01       		.uleb128 0x1
 1195 0396 77030000 		.long	.LASF70
 1196 039a 05       		.byte	0x5
 1197 039b 3F       		.byte	0x3f
 1198 039c 19       		.byte	0x19
 1199 039d A1030000 		.long	0x3a1
 1200 03a1 06       		.uleb128 0x6
 1201 03a2 6D050000 		.long	.LASF71
 1202 03a6 08       		.byte	0x8
 1203 03a7 05       		.byte	0x5
 1204 03a8 45       		.byte	0x45
 1205 03a9 08       		.byte	0x8
 1206 03aa C9030000 		.long	0x3c9
 1207 03ae 02       		.uleb128 0x2
 1208 03af 61000000 		.long	.LASF69
 1209 03b3 05       		.byte	0x5
 1210 03b4 46       		.byte	0x46
 1211 03b5 1A       		.byte	0x1a
 1212 03b6 C9030000 		.long	0x3c9
 1213 03ba 00       		.byte	0
 1214 03bb 02       		.uleb128 0x2
 1215 03bc FF000000 		.long	.LASF72
 1216 03c0 05       		.byte	0x5
 1217 03c1 47       		.byte	0x47
 1218 03c2 1A       		.byte	0x1a
 1219 03c3 C9030000 		.long	0x3c9
 1220 03c7 04       		.byte	0x4
 1221 03c8 00       		.byte	0
 1222 03c9 04       		.uleb128 0x4
 1223 03ca 95030000 		.long	0x395
 1224 03ce 01       		.uleb128 0x1
 1225 03cf 14020000 		.long	.LASF73
 1226 03d3 05       		.byte	0x5
GAS LISTING /tmp/cc2l5lB5.s 			page 23


 1227 03d4 4E       		.byte	0x4e
 1228 03d5 22       		.byte	0x22
 1229 03d6 DA030000 		.long	0x3da
 1230 03da 06       		.uleb128 0x6
 1231 03db 5B050000 		.long	.LASF74
 1232 03df 0C       		.byte	0xc
 1233 03e0 05       		.byte	0x5
 1234 03e1 55       		.byte	0x55
 1235 03e2 08       		.byte	0x8
 1236 03e3 0F040000 		.long	0x40f
 1237 03e7 02       		.uleb128 0x2
 1238 03e8 61000000 		.long	.LASF69
 1239 03ec 05       		.byte	0x5
 1240 03ed 56       		.byte	0x56
 1241 03ee 1A       		.byte	0x1a
 1242 03ef 0F040000 		.long	0x40f
 1243 03f3 00       		.byte	0
 1244 03f4 02       		.uleb128 0x2
 1245 03f5 FF000000 		.long	.LASF72
 1246 03f9 05       		.byte	0x5
 1247 03fa 57       		.byte	0x57
 1248 03fb 1A       		.byte	0x1a
 1249 03fc 0F040000 		.long	0x40f
 1250 0400 04       		.byte	0x4
 1251 0401 02       		.uleb128 0x2
 1252 0402 85020000 		.long	.LASF75
 1253 0406 05       		.byte	0x5
 1254 0407 58       		.byte	0x58
 1255 0408 19       		.byte	0x19
 1256 0409 1D010000 		.long	0x11d
 1257 040d 08       		.byte	0x8
 1258 040e 00       		.byte	0
 1259 040f 04       		.uleb128 0x4
 1260 0410 CE030000 		.long	0x3ce
 1261 0414 01       		.uleb128 0x1
 1262 0415 A4020000 		.long	.LASF76
 1263 0419 05       		.byte	0x5
 1264 041a 5F       		.byte	0x5f
 1265 041b 1E       		.byte	0x1e
 1266 041c 20040000 		.long	0x420
 1267 0420 06       		.uleb128 0x6
 1268 0421 32010000 		.long	.LASF77
 1269 0425 0C       		.byte	0xc
 1270 0426 05       		.byte	0x5
 1271 0427 64       		.byte	0x64
 1272 0428 08       		.byte	0x8
 1273 0429 55040000 		.long	0x455
 1274 042d 02       		.uleb128 0x2
 1275 042e 61000000 		.long	.LASF69
 1276 0432 05       		.byte	0x5
 1277 0433 65       		.byte	0x65
 1278 0434 1A       		.byte	0x1a
 1279 0435 55040000 		.long	0x455
 1280 0439 00       		.byte	0
 1281 043a 02       		.uleb128 0x2
 1282 043b FF000000 		.long	.LASF72
 1283 043f 05       		.byte	0x5
GAS LISTING /tmp/cc2l5lB5.s 			page 24


 1284 0440 66       		.byte	0x66
 1285 0441 1A       		.byte	0x1a
 1286 0442 55040000 		.long	0x455
 1287 0446 04       		.byte	0x4
 1288 0447 02       		.uleb128 0x2
 1289 0448 18060000 		.long	.LASF78
 1290 044c 05       		.byte	0x5
 1291 044d 67       		.byte	0x67
 1292 044e 19       		.byte	0x19
 1293 044f 5D030000 		.long	0x35d
 1294 0453 08       		.byte	0x8
 1295 0454 00       		.byte	0
 1296 0455 04       		.uleb128 0x4
 1297 0456 14040000 		.long	0x414
 1298 045a 2A       		.uleb128 0x2a
 1299 045b 10       		.byte	0x10
 1300 045c 03       		.byte	0x3
 1301 045d 87       		.byte	0x87
 1302 045e 09       		.byte	0x9
 1303 045f 6F040000 		.long	0x46f
 1304 0463 07       		.uleb128 0x7
 1305 0464 6100     		.string	"a"
 1306 0466 03       		.byte	0x3
 1307 0467 88       		.byte	0x88
 1308 0468 0B       		.byte	0xb
 1309 0469 6F040000 		.long	0x46f
 1310 046d 00       		.byte	0
 1311 046e 00       		.byte	0
 1312 046f 0E       		.uleb128 0xe
 1313 0470 C4000000 		.long	0xc4
 1314 0474 7F040000 		.long	0x47f
 1315 0478 0F       		.uleb128 0xf
 1316 0479 2D000000 		.long	0x2d
 1317 047d 0F       		.byte	0xf
 1318 047e 00       		.byte	0
 1319 047f 2B       		.uleb128 0x2b
 1320 0480 B6010000 		.long	.LASF135
 1321 0484 03       		.byte	0x3
 1322 0485 89       		.byte	0x89
 1323 0486 03       		.byte	0x3
 1324 0487 5A040000 		.long	0x45a
 1325 048b 10       		.byte	0x10
 1326 048c 01       		.uleb128 0x1
 1327 048d F7050000 		.long	.LASF79
 1328 0491 03       		.byte	0x3
 1329 0492 8E       		.byte	0x8e
 1330 0493 0F       		.byte	0xf
 1331 0494 AA000000 		.long	0xaa
 1332 0498 06       		.uleb128 0x6
 1333 0499 E6030000 		.long	.LASF80
 1334 049d 14       		.byte	0x14
 1335 049e 03       		.byte	0x3
 1336 049f 9D       		.byte	0x9d
 1337 04a0 08       		.byte	0x8
 1338 04a1 E7040000 		.long	0x4e7
 1339 04a5 07       		.uleb128 0x7
 1340 04a6 65627800 		.string	"ebx"
GAS LISTING /tmp/cc2l5lB5.s 			page 25


 1341 04aa 03       		.byte	0x3
 1342 04ab 9E       		.byte	0x9e
 1343 04ac 0B       		.byte	0xb
 1344 04ad 8C040000 		.long	0x48c
 1345 04b1 00       		.byte	0
 1346 04b2 07       		.uleb128 0x7
 1347 04b3 65646900 		.string	"edi"
 1348 04b7 03       		.byte	0x3
 1349 04b8 9F       		.byte	0x9f
 1350 04b9 0B       		.byte	0xb
 1351 04ba 8C040000 		.long	0x48c
 1352 04be 04       		.byte	0x4
 1353 04bf 07       		.uleb128 0x7
 1354 04c0 65736900 		.string	"esi"
 1355 04c4 03       		.byte	0x3
 1356 04c5 A0       		.byte	0xa0
 1357 04c6 0B       		.byte	0xb
 1358 04c7 8C040000 		.long	0x48c
 1359 04cb 08       		.byte	0x8
 1360 04cc 07       		.uleb128 0x7
 1361 04cd 65627000 		.string	"ebp"
 1362 04d1 03       		.byte	0x3
 1363 04d2 A1       		.byte	0xa1
 1364 04d3 0B       		.byte	0xb
 1365 04d4 8C040000 		.long	0x48c
 1366 04d8 0C       		.byte	0xc
 1367 04d9 07       		.uleb128 0x7
 1368 04da 65697000 		.string	"eip"
 1369 04de 03       		.byte	0x3
 1370 04df A2       		.byte	0xa2
 1371 04e0 0B       		.byte	0xb
 1372 04e1 8C040000 		.long	0x48c
 1373 04e5 10       		.byte	0x10
 1374 04e6 00       		.byte	0
 1375 04e7 06       		.uleb128 0x6
 1376 04e8 B2000000 		.long	.LASF81
 1377 04ec 04       		.byte	0x4
 1378 04ed 03       		.byte	0x3
 1379 04ee AA       		.byte	0xaa
 1380 04ef 08       		.byte	0x8
 1381 04f0 01050000 		.long	0x501
 1382 04f4 07       		.uleb128 0x7
 1383 04f5 737000   		.string	"sp"
 1384 04f8 03       		.byte	0x3
 1385 04f9 AB       		.byte	0xab
 1386 04fa 17       		.byte	0x17
 1387 04fb 01050000 		.long	0x501
 1388 04ff 00       		.byte	0
 1389 0500 00       		.byte	0
 1390 0501 04       		.uleb128 0x4
 1391 0502 98040000 		.long	0x498
 1392 0506 05       		.uleb128 0x5
 1393 0507 01       		.byte	0x1
 1394 0508 02       		.byte	0x2
 1395 0509 28020000 		.long	.LASF82
 1396 050d 2C       		.uleb128 0x2c
 1397 050e 2E020000 		.long	.LASF114
GAS LISTING /tmp/cc2l5lB5.s 			page 26


 1398 0512 03       		.byte	0x3
 1399 0513 1C01     		.value	0x11c
 1400 0515 11       		.byte	0x11
 1401 0516 ED000000 		.long	0xed
 1402 051a 06       		.uleb128 0x6
 1403 051b E8010000 		.long	.LASF83
 1404 051f 18       		.byte	0x18
 1405 0520 0C       		.byte	0xc
 1406 0521 64       		.byte	0x64
 1407 0522 10       		.byte	0x10
 1408 0523 4F050000 		.long	0x54f
 1409 0527 02       		.uleb128 0x2
 1410 0528 D1040000 		.long	.LASF84
 1411 052c 0C       		.byte	0xc
 1412 052d 68       		.byte	0x68
 1413 052e 21       		.byte	0x21
 1414 052f 14040000 		.long	0x414
 1415 0533 00       		.byte	0
 1416 0534 02       		.uleb128 0x2
 1417 0535 A3030000 		.long	.LASF85
 1418 0539 0C       		.byte	0xc
 1419 053a 6D       		.byte	0x6d
 1420 053b 21       		.byte	0x21
 1421 053c 58030000 		.long	0x358
 1422 0540 0C       		.byte	0xc
 1423 0541 02       		.uleb128 0x2
 1424 0542 DE000000 		.long	.LASF86
 1425 0546 0C       		.byte	0xc
 1426 0547 81       		.byte	0x81
 1427 0548 21       		.byte	0x21
 1428 0549 E8000000 		.long	0xe8
 1429 054d 10       		.byte	0x10
 1430 054e 00       		.byte	0
 1431 054f 01       		.uleb128 0x1
 1432 0550 9F050000 		.long	.LASF87
 1433 0554 0C       		.byte	0xc
 1434 0555 83       		.byte	0x83
 1435 0556 03       		.byte	0x3
 1436 0557 1A050000 		.long	0x51a
 1437 055b 06       		.uleb128 0x6
 1438 055c 1B000000 		.long	.LASF88
 1439 0560 08       		.byte	0x8
 1440 0561 0C       		.byte	0xc
 1441 0562 88       		.byte	0x88
 1442 0563 10       		.byte	0x10
 1443 0564 76050000 		.long	0x576
 1444 0568 02       		.uleb128 0x2
 1445 0569 3F050000 		.long	.LASF89
 1446 056d 0C       		.byte	0xc
 1447 056e 8C       		.byte	0x8c
 1448 056f 21       		.byte	0x21
 1449 0570 95030000 		.long	0x395
 1450 0574 00       		.byte	0
 1451 0575 00       		.byte	0
 1452 0576 01       		.uleb128 0x1
 1453 0577 3A030000 		.long	.LASF90
 1454 057b 0C       		.byte	0xc
GAS LISTING /tmp/cc2l5lB5.s 			page 27


 1455 057c 8D       		.byte	0x8d
 1456 057d 03       		.byte	0x3
 1457 057e 5B050000 		.long	0x55b
 1458 0582 01       		.uleb128 0x1
 1459 0583 C0020000 		.long	.LASF91
 1460 0587 0C       		.byte	0xc
 1461 0588 92       		.byte	0x92
 1462 0589 14       		.byte	0x14
 1463 058a 8E050000 		.long	0x58e
 1464 058e 04       		.uleb128 0x4
 1465 058f 59010000 		.long	0x159
 1466 0593 01       		.uleb128 0x1
 1467 0594 58030000 		.long	.LASF92
 1468 0598 0C       		.byte	0xc
 1469 0599 A1       		.byte	0xa1
 1470 059a 10       		.byte	0x10
 1471 059b 9F050000 		.long	0x59f
 1472 059f 04       		.uleb128 0x4
 1473 05a0 A4050000 		.long	0x5a4
 1474 05a4 2D       		.uleb128 0x2d
 1475 05a5 AF050000 		.long	0x5af
 1476 05a9 0A       		.uleb128 0xa
 1477 05aa 8E050000 		.long	0x58e
 1478 05ae 00       		.byte	0
 1479 05af 2E       		.uleb128 0x2e
 1480 05b0 0C       		.byte	0xc
 1481 05b1 0C       		.byte	0xc
 1482 05b2 AD       		.byte	0xad
 1483 05b3 03       		.byte	0x3
 1484 05b4 D7050000 		.long	0x5d7
 1485 05b8 15       		.uleb128 0x15
 1486 05b9 2D010000 		.long	.LASF93
 1487 05bd B1       		.byte	0xb1
 1488 05be 69030000 		.long	0x369
 1489 05c2 15       		.uleb128 0x15
 1490 05c3 3F050000 		.long	.LASF89
 1491 05c7 B5       		.byte	0xb5
 1492 05c8 95030000 		.long	0x395
 1493 05cc 15       		.uleb128 0x15
 1494 05cd A9010000 		.long	.LASF94
 1495 05d1 B9       		.byte	0xb9
 1496 05d2 CE030000 		.long	0x3ce
 1497 05d6 00       		.byte	0
 1498 05d7 2F       		.uleb128 0x2f
 1499 05d8 04       		.byte	0x4
 1500 05d9 0C       		.byte	0xc
 1501 05da 0201     		.value	0x102
 1502 05dc 03       		.byte	0x3
 1503 05dd 42060000 		.long	0x642
 1504 05e1 08       		.uleb128 0x8
 1505 05e2 0D020000 		.long	.LASF95
 1506 05e6 0901     		.value	0x109
 1507 05e8 21       		.byte	0x21
 1508 05e9 29010000 		.long	0x129
 1509 05ed 08       		.uleb128 0x8
 1510 05ee 4E060000 		.long	.LASF96
 1511 05f2 1001     		.value	0x110
GAS LISTING /tmp/cc2l5lB5.s 			page 28


 1512 05f4 21       		.byte	0x21
 1513 05f5 29010000 		.long	0x129
 1514 05f9 08       		.uleb128 0x8
 1515 05fa 9A000000 		.long	.LASF97
 1516 05fe 1701     		.value	0x117
 1517 0600 22       		.byte	0x22
 1518 0601 AA000000 		.long	0xaa
 1519 0605 08       		.uleb128 0x8
 1520 0606 06060000 		.long	.LASF98
 1521 060a 1E01     		.value	0x11e
 1522 060c 22       		.byte	0x22
 1523 060d 42060000 		.long	0x642
 1524 0611 08       		.uleb128 0x8
 1525 0612 49010000 		.long	.LASF99
 1526 0616 2301     		.value	0x123
 1527 0618 21       		.byte	0x21
 1528 0619 29010000 		.long	0x129
 1529 061d 08       		.uleb128 0x8
 1530 061e 54050000 		.long	.LASF100
 1531 0622 2C01     		.value	0x12c
 1532 0624 22       		.byte	0x22
 1533 0625 6F060000 		.long	0x66f
 1534 0629 08       		.uleb128 0x8
 1535 062a 0C000000 		.long	.LASF101
 1536 062e 3501     		.value	0x135
 1537 0630 22       		.byte	0x22
 1538 0631 A9060000 		.long	0x6a9
 1539 0635 08       		.uleb128 0x8
 1540 0636 E8000000 		.long	.LASF102
 1541 063a 3D01     		.value	0x13d
 1542 063c 21       		.byte	0x21
 1543 063d 35010000 		.long	0x135
 1544 0641 00       		.byte	0
 1545 0642 04       		.uleb128 0x4
 1546 0643 82050000 		.long	0x582
 1547 0647 06       		.uleb128 0x6
 1548 0648 5D010000 		.long	.LASF103
 1549 064c 0C       		.byte	0xc
 1550 064d 10       		.byte	0x10
 1551 064e 34       		.byte	0x34
 1552 064f 10       		.byte	0x10
 1553 0650 6F060000 		.long	0x66f
 1554 0654 02       		.uleb128 0x2
 1555 0655 3F050000 		.long	.LASF89
 1556 0659 10       		.byte	0x10
 1557 065a 35       		.byte	0x35
 1558 065b 19       		.byte	0x19
 1559 065c 95030000 		.long	0x395
 1560 0660 00       		.byte	0
 1561 0661 07       		.uleb128 0x7
 1562 0662 636E7400 		.string	"cnt"
 1563 0666 10       		.byte	0x10
 1564 0667 37       		.byte	0x37
 1565 0668 19       		.byte	0x19
 1566 0669 41010000 		.long	0x141
 1567 066d 08       		.byte	0x8
 1568 066e 00       		.byte	0
GAS LISTING /tmp/cc2l5lB5.s 			page 29


 1569 066f 04       		.uleb128 0x4
 1570 0670 47060000 		.long	0x647
 1571 0674 06       		.uleb128 0x6
 1572 0675 D5000000 		.long	.LASF104
 1573 0679 10       		.byte	0x10
 1574 067a 11       		.byte	0x11
 1575 067b 39       		.byte	0x39
 1576 067c 08       		.byte	0x8
 1577 067d A9060000 		.long	0x6a9
 1578 0681 02       		.uleb128 0x2
 1579 0682 3F050000 		.long	.LASF89
 1580 0686 11       		.byte	0x11
 1581 0687 3A       		.byte	0x3a
 1582 0688 19       		.byte	0x19
 1583 0689 95030000 		.long	0x395
 1584 068d 00       		.byte	0
 1585 068e 02       		.uleb128 0x2
 1586 068f DA010000 		.long	.LASF32
 1587 0693 11       		.byte	0x11
 1588 0694 3C       		.byte	0x3c
 1589 0695 1A       		.byte	0x1a
 1590 0696 8E050000 		.long	0x58e
 1591 069a 08       		.byte	0x8
 1592 069b 02       		.uleb128 0x2
 1593 069c 61000000 		.long	.LASF69
 1594 06a0 11       		.byte	0x11
 1595 06a1 3E       		.byte	0x3e
 1596 06a2 1A       		.byte	0x1a
 1597 06a3 68070000 		.long	0x768
 1598 06a7 0C       		.byte	0xc
 1599 06a8 00       		.byte	0
 1600 06a9 04       		.uleb128 0x4
 1601 06aa 74060000 		.long	0x674
 1602 06ae 04       		.uleb128 0x4
 1603 06af 5A020000 		.long	0x25a
 1604 06b3 04       		.uleb128 0x4
 1605 06b4 7F040000 		.long	0x47f
 1606 06b8 14       		.uleb128 0x14
 1607 06b9 BF000000 		.long	.LASF105
 1608 06bd 10       		.byte	0x10
 1609 06be 6C01     		.value	0x16c
 1610 06c0 10       		.byte	0x10
 1611 06c1 E0060000 		.long	0x6e0
 1612 06c5 03       		.uleb128 0x3
 1613 06c6 A9010000 		.long	.LASF94
 1614 06ca 7101     		.value	0x171
 1615 06cc 21       		.byte	0x21
 1616 06cd CE030000 		.long	0x3ce
 1617 06d1 00       		.byte	0
 1618 06d2 03       		.uleb128 0x3
 1619 06d3 31060000 		.long	.LASF106
 1620 06d7 7501     		.value	0x175
 1621 06d9 22       		.byte	0x22
 1622 06da 8E050000 		.long	0x58e
 1623 06de 0C       		.byte	0xc
 1624 06df 00       		.byte	0
 1625 06e0 1E       		.uleb128 0x1e
GAS LISTING /tmp/cc2l5lB5.s 			page 30


 1626 06e1 1D050000 		.long	.LASF107
 1627 06e5 7601     		.value	0x176
 1628 06e7 B8060000 		.long	0x6b8
 1629 06eb 14       		.uleb128 0x14
 1630 06ec BB040000 		.long	.LASF108
 1631 06f0 14       		.byte	0x14
 1632 06f1 7B01     		.value	0x17b
 1633 06f3 10       		.byte	0x10
 1634 06f4 3A070000 		.long	0x73a
 1635 06f8 03       		.uleb128 0x3
 1636 06f9 F0040000 		.long	.LASF38
 1637 06fd 7F01     		.value	0x17f
 1638 06ff 22       		.byte	0x22
 1639 0700 36030000 		.long	0x336
 1640 0704 00       		.byte	0
 1641 0705 03       		.uleb128 0x3
 1642 0706 00000000 		.long	.LASF109
 1643 070a 8301     		.value	0x183
 1644 070c 22       		.byte	0x22
 1645 070d B3060000 		.long	0x6b3
 1646 0711 04       		.byte	0x4
 1647 0712 03       		.uleb128 0x3
 1648 0713 B0040000 		.long	.LASF110
 1649 0717 8701     		.value	0x187
 1650 0719 22       		.byte	0x22
 1651 071a B3060000 		.long	0x6b3
 1652 071e 08       		.byte	0x8
 1653 071f 03       		.uleb128 0x3
 1654 0720 8C030000 		.long	.LASF111
 1655 0724 8C01     		.value	0x18c
 1656 0726 22       		.byte	0x22
 1657 0727 B3060000 		.long	0x6b3
 1658 072b 0C       		.byte	0xc
 1659 072c 03       		.uleb128 0x3
 1660 072d 45030000 		.long	.LASF112
 1661 0731 9001     		.value	0x190
 1662 0733 22       		.byte	0x22
 1663 0734 B3060000 		.long	0x6b3
 1664 0738 10       		.byte	0x10
 1665 0739 00       		.byte	0
 1666 073a 1E       		.uleb128 0x1e
 1667 073b 7D010000 		.long	.LASF113
 1668 073f 9201     		.value	0x192
 1669 0741 EB060000 		.long	0x6eb
 1670 0745 0C       		.uleb128 0xc
 1671 0746 3A070000 		.long	0x73a
 1672 074a 04       		.uleb128 0x4
 1673 074b 45070000 		.long	0x745
 1674 074f 30       		.uleb128 0x30
 1675 0750 63683000 		.string	"ch0"
 1676 0754 04       		.byte	0x4
 1677 0755 4101     		.value	0x141
 1678 0757 16       		.byte	0x16
 1679 0758 5A020000 		.long	0x25a
 1680 075c 01       		.uleb128 0x1
 1681 075d 76050000 		.long	.LASF115
 1682 0761 11       		.byte	0x11
GAS LISTING /tmp/cc2l5lB5.s 			page 31


 1683 0762 34       		.byte	0x34
 1684 0763 19       		.byte	0x19
 1685 0764 74060000 		.long	0x674
 1686 0768 04       		.uleb128 0x4
 1687 0769 5C070000 		.long	0x75c
 1688 076d 1F       		.uleb128 0x1f
 1689 076e CB050000 		.long	.LASF116
 1690 0772 93       		.byte	0x93
 1691 0773 82070000 		.long	0x782
 1692 0777 0A       		.uleb128 0xa
 1693 0778 8E050000 		.long	0x58e
 1694 077c 0A       		.uleb128 0xa
 1695 077d 29010000 		.long	0x129
 1696 0781 00       		.byte	0
 1697 0782 20       		.uleb128 0x20
 1698 0783 2A050000 		.long	.LASF118
 1699 0787 92       		.byte	0x92
 1700 0788 09       		.byte	0x9
 1701 0789 29010000 		.long	0x129
 1702 078d 9C070000 		.long	0x79c
 1703 0791 0A       		.uleb128 0xa
 1704 0792 05010000 		.long	0x105
 1705 0796 0A       		.uleb128 0xa
 1706 0797 5D030000 		.long	0x35d
 1707 079b 00       		.byte	0
 1708 079c 1F       		.uleb128 0x1f
 1709 079d F5040000 		.long	.LASF117
 1710 07a1 91       		.byte	0x91
 1711 07a2 AC070000 		.long	0x7ac
 1712 07a6 0A       		.uleb128 0xa
 1713 07a7 05010000 		.long	0x105
 1714 07ab 00       		.byte	0
 1715 07ac 20       		.uleb128 0x20
 1716 07ad 11010000 		.long	.LASF119
 1717 07b1 90       		.byte	0x90
 1718 07b2 0D       		.byte	0xd
 1719 07b3 8E050000 		.long	0x58e
 1720 07b7 C1070000 		.long	0x7c1
 1721 07bb 0A       		.uleb128 0xa
 1722 07bc 8E050000 		.long	0x58e
 1723 07c0 00       		.byte	0
 1724 07c1 31       		.uleb128 0x31
 1725 07c2 04010000 		.long	.LASF136
 1726 07c6 01       		.byte	0x1
 1727 07c7 D3       		.byte	0xd3
 1728 07c8 06       		.byte	0x6
 1729 07c9 00000000 		.long	.LFB207
 1730 07cd 35000000 		.long	.LFE207-.LFB207
 1731 07d1 01       		.uleb128 0x1
 1732 07d2 9C       		.byte	0x9c
 1733 07d3 6F080000 		.long	0x86f
 1734 07d7 21       		.uleb128 0x21
 1735 07d8 747000   		.string	"tp"
 1736 07db D3       		.byte	0xd3
 1737 07dc 1D       		.byte	0x1d
 1738 07dd 8E050000 		.long	0x58e
 1739 07e1 02       		.uleb128 0x2
GAS LISTING /tmp/cc2l5lB5.s 			page 32


 1740 07e2 91       		.byte	0x91
 1741 07e3 00       		.sleb128 0
 1742 07e4 21       		.uleb128 0x21
 1743 07e5 6D736700 		.string	"msg"
 1744 07e9 D3       		.byte	0xd3
 1745 07ea 27       		.byte	0x27
 1746 07eb 29010000 		.long	0x129
 1747 07ef 02       		.uleb128 0x2
 1748 07f0 91       		.byte	0x91
 1749 07f1 04       		.sleb128 4
 1750 07f2 16       		.uleb128 0x16
 1751 07f3 39060000 		.long	.LASF126
 1752 07f7 7F080000 		.long	0x87f
 1753 07fb 0B       		.uleb128 0xb
 1754 07fc 1E0C0000 		.long	0xc1e
 1755 0800 00000000 		.long	.LBI101
 1756 0804 02       		.byte	.LVU184
 1757 0805 78000000 		.long	.LLRL27
 1758 0809 D5       		.byte	0xd5
 1759 080a 03       		.byte	0x3
 1760 080b 1E080000 		.long	0x81e
 1761 080f 22       		.uleb128 0x22
 1762 0810 2E0C0000 		.long	0xc2e
 1763 0814 00000000 		.long	.LBI102
 1764 0818 04       		.byte	.LVU186
 1765 0819 78000000 		.long	.LLRL27
 1766 081d 00       		.byte	0
 1767 081e 0B       		.uleb128 0xb
 1768 081f A40B0000 		.long	0xba4
 1769 0823 24000000 		.long	.LBI106
 1770 0827 06       		.byte	.LVU197
 1771 0828 84000000 		.long	.LLRL28
 1772 082c D7       		.byte	0xd7
 1773 082d 03       		.byte	0x3
 1774 082e 46080000 		.long	0x846
 1775 0832 23       		.uleb128 0x23
 1776 0833 BB0B0000 		.long	0xbbb
 1777 0837 23       		.uleb128 0x23
 1778 0838 B10B0000 		.long	0xbb1
 1779 083c 0D       		.uleb128 0xd
 1780 083d 29000000 		.long	.LVL39
 1781 0841 6D070000 		.long	0x76d
 1782 0845 00       		.byte	0
 1783 0846 32       		.uleb128 0x32
 1784 0847 F10B0000 		.long	0xbf1
 1785 084b 29000000 		.long	.LBI111
 1786 084f 01       		.byte	.LVU201
 1787 0850 29000000 		.long	.LBB111
 1788 0854 06000000 		.long	.LBE111-.LBB111
 1789 0858 01       		.byte	0x1
 1790 0859 D8       		.byte	0xd8
 1791 085a 03       		.byte	0x3
 1792 085b 24       		.uleb128 0x24
 1793 085c 260C0000 		.long	0xc26
 1794 0860 29000000 		.long	.LBI113
 1795 0864 08       		.byte	.LVU208
 1796 0865 29000000 		.long	.LBB113
GAS LISTING /tmp/cc2l5lB5.s 			page 33


 1797 0869 06000000 		.long	.LBE113-.LBB113
 1798 086d 00       		.byte	0
 1799 086e 00       		.byte	0
 1800 086f 0E       		.uleb128 0xe
 1801 0870 B3000000 		.long	0xb3
 1802 0874 7F080000 		.long	0x87f
 1803 0878 0F       		.uleb128 0xf
 1804 0879 2D000000 		.long	0x2d
 1805 087d 0C       		.byte	0xc
 1806 087e 00       		.byte	0
 1807 087f 0C       		.uleb128 0xc
 1808 0880 6F080000 		.long	0x86f
 1809 0884 10       		.uleb128 0x10
 1810 0885 72010000 		.long	.LASF121
 1811 0889 BD       		.byte	0xbd
 1812 088a 0B       		.byte	0xb
 1813 088b 8E050000 		.long	0x58e
 1814 088f 00000000 		.long	.LFB206
 1815 0893 33000000 		.long	.LFE206-.LFB206
 1816 0897 01       		.uleb128 0x1
 1817 0898 9C       		.byte	0x9c
 1818 0899 2E090000 		.long	0x92e
 1819 089d 11       		.uleb128 0x11
 1820 089e 55020000 		.long	.LASF120
 1821 08a2 BE       		.byte	0xbe
 1822 08a3 8E050000 		.long	0x58e
 1823 08a7 0E000000 		.long	.LLST21
 1824 08ab 0C000000 		.long	.LVUS21
 1825 08af 25       		.uleb128 0x25
 1826 08b0 747000   		.string	"tp"
 1827 08b3 BF       		.byte	0xbf
 1828 08b4 8E050000 		.long	0x58e
 1829 08b8 1D000000 		.long	.LLST22
 1830 08bc 17000000 		.long	.LVUS22
 1831 08c0 33       		.uleb128 0x33
 1832 08c1 E30B0000 		.long	0xbe3
 1833 08c5 00000000 		.long	.LBI93
 1834 08c9 02       		.byte	.LVU152
 1835 08ca 00000000 		.long	.LBB93
 1836 08ce 13000000 		.long	.LBE93-.LBB93
 1837 08d2 01       		.byte	0x1
 1838 08d3 BE       		.byte	0xbe
 1839 08d4 16       		.byte	0x16
 1840 08d5 12       		.uleb128 0x12
 1841 08d6 C70B0000 		.long	0xbc7
 1842 08da 13000000 		.long	.LBI95
 1843 08de 03       		.byte	.LVU158
 1844 08df 13000000 		.long	.LBB95
 1845 08e3 06000000 		.long	.LBE95-.LBB95
 1846 08e7 C1       		.byte	0xc1
 1847 08e8 07       		.byte	0x7
 1848 08e9 FB080000 		.long	0x8fb
 1849 08ed 09       		.uleb128 0x9
 1850 08ee D80B0000 		.long	0xbd8
 1851 08f2 36000000 		.long	.LLST23
 1852 08f6 34000000 		.long	.LVUS23
 1853 08fa 00       		.byte	0
GAS LISTING /tmp/cc2l5lB5.s 			page 34


 1854 08fb 34       		.uleb128 0x34
 1855 08fc 360C0000 		.long	0xc36
 1856 0900 1D000000 		.long	.LBI97
 1857 0904 01       		.byte	.LVU166
 1858 0905 6C000000 		.long	.LLRL24
 1859 0909 01       		.byte	0x1
 1860 090a C2       		.byte	0xc2
 1861 090b 0A       		.byte	0xa
 1862 090c 09       		.uleb128 0x9
 1863 090d 480C0000 		.long	0xc48
 1864 0911 41000000 		.long	.LLST25
 1865 0915 3F000000 		.long	.LVUS25
 1866 0919 17       		.uleb128 0x17
 1867 091a 6C000000 		.long	.LLRL24
 1868 091e 18       		.uleb128 0x18
 1869 091f 530C0000 		.long	0xc53
 1870 0923 4C000000 		.long	.LLST26
 1871 0927 4A000000 		.long	.LVUS26
 1872 092b 00       		.byte	0
 1873 092c 00       		.byte	0
 1874 092d 00       		.byte	0
 1875 092e 10       		.uleb128 0x10
 1876 092f DA020000 		.long	.LASF122
 1877 0933 9B       		.byte	0x9b
 1878 0934 0B       		.byte	0xb
 1879 0935 8E050000 		.long	0x58e
 1880 0939 00000000 		.long	.LFB205
 1881 093d 5C000000 		.long	.LFE205-.LFB205
 1882 0941 01       		.uleb128 0x1
 1883 0942 9C       		.byte	0x9c
 1884 0943 E7090000 		.long	0x9e7
 1885 0947 35       		.uleb128 0x35
 1886 0948 C3050000 		.long	.LASF123
 1887 094c 01       		.byte	0x1
 1888 094d 9B       		.byte	0x9b
 1889 094e 2B       		.byte	0x2b
 1890 094f 5D030000 		.long	0x35d
 1891 0953 02       		.uleb128 0x2
 1892 0954 91       		.byte	0x91
 1893 0955 00       		.sleb128 0
 1894 0956 11       		.uleb128 0x11
 1895 0957 55020000 		.long	.LASF120
 1896 095b 9C       		.byte	0x9c
 1897 095c 8E050000 		.long	0x58e
 1898 0960 5B000000 		.long	.LLST15
 1899 0964 55000000 		.long	.LVUS15
 1900 0968 36       		.uleb128 0x36
 1901 0969 747000   		.string	"tp"
 1902 096c 01       		.byte	0x1
 1903 096d 9D       		.byte	0x9d
 1904 096e 0D       		.byte	0xd
 1905 096f 8E050000 		.long	0x58e
 1906 0973 19       		.uleb128 0x19
 1907 0974 E30B0000 		.long	0xbe3
 1908 0978 00000000 		.long	.LBI83
 1909 097c 02       		.byte	.LVU113
 1910 097d 54000000 		.long	.LLRL16
GAS LISTING /tmp/cc2l5lB5.s 			page 35


 1911 0981 9C       		.byte	0x9c
 1912 0982 12       		.uleb128 0x12
 1913 0983 C70B0000 		.long	0xbc7
 1914 0987 17000000 		.long	.LBI87
 1915 098b 04       		.byte	.LVU121
 1916 098c 17000000 		.long	.LBB87
 1917 0990 06000000 		.long	.LBE87-.LBB87
 1918 0994 A1       		.byte	0xa1
 1919 0995 08       		.byte	0x8
 1920 0996 A8090000 		.long	0x9a8
 1921 099a 09       		.uleb128 0x9
 1922 099b D80B0000 		.long	0xbd8
 1923 099f 74000000 		.long	.LLST17
 1924 09a3 72000000 		.long	.LVUS17
 1925 09a7 00       		.byte	0
 1926 09a8 0B       		.uleb128 0xb
 1927 09a9 360C0000 		.long	0xc36
 1928 09ad 21000000 		.long	.LBI89
 1929 09b1 01       		.byte	.LVU129
 1930 09b2 60000000 		.long	.LLRL18
 1931 09b6 A6       		.byte	0xa6
 1932 09b7 08       		.byte	0x8
 1933 09b8 DD090000 		.long	0x9dd
 1934 09bc 09       		.uleb128 0x9
 1935 09bd 480C0000 		.long	0xc48
 1936 09c1 7F000000 		.long	.LLST19
 1937 09c5 7D000000 		.long	.LVUS19
 1938 09c9 17       		.uleb128 0x17
 1939 09ca 60000000 		.long	.LLRL18
 1940 09ce 18       		.uleb128 0x18
 1941 09cf 530C0000 		.long	0xc53
 1942 09d3 8A000000 		.long	.LLST20
 1943 09d7 88000000 		.long	.LVUS20
 1944 09db 00       		.byte	0
 1945 09dc 00       		.byte	0
 1946 09dd 0D       		.uleb128 0xd
 1947 09de 46000000 		.long	.LVL32
 1948 09e2 82070000 		.long	0x782
 1949 09e6 00       		.byte	0
 1950 09e7 10       		.uleb128 0x10
 1951 09e8 27000000 		.long	.LASF124
 1952 09ec 77       		.byte	0x77
 1953 09ed 0B       		.byte	0xb
 1954 09ee 8E050000 		.long	0x58e
 1955 09f2 00000000 		.long	.LFB204
 1956 09f6 58000000 		.long	.LFE204-.LFB204
 1957 09fa 01       		.uleb128 0x1
 1958 09fb 9C       		.byte	0x9c
 1959 09fc 970A0000 		.long	0xa97
 1960 0a00 11       		.uleb128 0x11
 1961 0a01 55020000 		.long	.LASF120
 1962 0a05 78       		.byte	0x78
 1963 0a06 8E050000 		.long	0x58e
 1964 0a0a 9A000000 		.long	.LLST8
 1965 0a0e 94000000 		.long	.LVUS8
 1966 0a12 25       		.uleb128 0x25
 1967 0a13 747000   		.string	"tp"
GAS LISTING /tmp/cc2l5lB5.s 			page 36


 1968 0a16 79       		.byte	0x79
 1969 0a17 8E050000 		.long	0x58e
 1970 0a1b B5000000 		.long	.LLST9
 1971 0a1f B1000000 		.long	.LVUS9
 1972 0a23 19       		.uleb128 0x19
 1973 0a24 E30B0000 		.long	0xbe3
 1974 0a28 00000000 		.long	.LBI71
 1975 0a2c 02       		.byte	.LVU63
 1976 0a2d 39000000 		.long	.LLRL10
 1977 0a31 78       		.byte	0x78
 1978 0a32 12       		.uleb128 0x12
 1979 0a33 C70B0000 		.long	0xbc7
 1980 0a37 17000000 		.long	.LBI75
 1981 0a3b 04       		.byte	.LVU71
 1982 0a3c 17000000 		.long	.LBB75
 1983 0a40 06000000 		.long	.LBE75-.LBB75
 1984 0a44 7D       		.byte	0x7d
 1985 0a45 08       		.byte	0x8
 1986 0a46 580A0000 		.long	0xa58
 1987 0a4a 09       		.uleb128 0x9
 1988 0a4b D80B0000 		.long	0xbd8
 1989 0a4f C7000000 		.long	.LLST11
 1990 0a53 C5000000 		.long	.LVUS11
 1991 0a57 00       		.byte	0
 1992 0a58 0B       		.uleb128 0xb
 1993 0a59 360C0000 		.long	0xc36
 1994 0a5d 21000000 		.long	.LBI77
 1995 0a61 01       		.byte	.LVU79
 1996 0a62 45000000 		.long	.LLRL12
 1997 0a66 80       		.byte	0x80
 1998 0a67 08       		.byte	0x8
 1999 0a68 8D0A0000 		.long	0xa8d
 2000 0a6c 09       		.uleb128 0x9
 2001 0a6d 480C0000 		.long	0xc48
 2002 0a71 D4000000 		.long	.LLST13
 2003 0a75 D0000000 		.long	.LVUS13
 2004 0a79 17       		.uleb128 0x17
 2005 0a7a 45000000 		.long	.LLRL12
 2006 0a7e 18       		.uleb128 0x18
 2007 0a7f 530C0000 		.long	0xc53
 2008 0a83 E8000000 		.long	.LLST14
 2009 0a87 E4000000 		.long	.LVUS14
 2010 0a8b 00       		.byte	0
 2011 0a8c 00       		.byte	0
 2012 0a8d 0D       		.uleb128 0xd
 2013 0a8e 42000000 		.long	.LVL18
 2014 0a92 9C070000 		.long	0x79c
 2015 0a96 00       		.byte	0
 2016 0a97 10       		.uleb128 0x10
 2017 0a98 90000000 		.long	.LASF125
 2018 0a9c 55       		.byte	0x55
 2019 0a9d 07       		.byte	0x7
 2020 0a9e 29010000 		.long	0x129
 2021 0aa2 00000000 		.long	.LFB203
 2022 0aa6 6E000000 		.long	.LFE203-.LFB203
 2023 0aaa 01       		.uleb128 0x1
 2024 0aab 9C       		.byte	0x9c
GAS LISTING /tmp/cc2l5lB5.s 			page 37


 2025 0aac 8F0B0000 		.long	0xb8f
 2026 0ab0 26       		.uleb128 0x26
 2027 0ab1 747000   		.string	"tp"
 2028 0ab4 55       		.byte	0x55
 2029 0ab5 1B       		.byte	0x1b
 2030 0ab6 8E050000 		.long	0x58e
 2031 0aba FE000000 		.long	.LLST0
 2032 0abe F8000000 		.long	.LVUS0
 2033 0ac2 26       		.uleb128 0x26
 2034 0ac3 6D736700 		.string	"msg"
 2035 0ac7 55       		.byte	0x55
 2036 0ac8 25       		.byte	0x25
 2037 0ac9 29010000 		.long	0x129
 2038 0acd 1B010000 		.long	.LLST1
 2039 0ad1 15010000 		.long	.LVUS1
 2040 0ad5 11       		.uleb128 0x11
 2041 0ad6 55020000 		.long	.LASF120
 2042 0ada 56       		.byte	0x56
 2043 0adb 8E050000 		.long	0x58e
 2044 0adf 36010000 		.long	.LLST2
 2045 0ae3 32010000 		.long	.LVUS2
 2046 0ae7 16       		.uleb128 0x16
 2047 0ae8 39060000 		.long	.LASF126
 2048 0aec 9F0B0000 		.long	0xb9f
 2049 0af0 19       		.uleb128 0x19
 2050 0af1 E30B0000 		.long	0xbe3
 2051 0af5 00000000 		.long	.LBI46
 2052 0af9 02       		.byte	.LVU2
 2053 0afa 0C000000 		.long	.LLRL3
 2054 0afe 56       		.byte	0x56
 2055 0aff 0B       		.uleb128 0xb
 2056 0b00 1E0C0000 		.long	0xc1e
 2057 0b04 21000000 		.long	.LBI51
 2058 0b08 05       		.byte	.LVU14
 2059 0b09 1B000000 		.long	.LLRL4
 2060 0b0d 5A       		.byte	0x5a
 2061 0b0e 03       		.byte	0x3
 2062 0b0f 220B0000 		.long	0xb22
 2063 0b13 22       		.uleb128 0x22
 2064 0b14 2E0C0000 		.long	0xc2e
 2065 0b18 21000000 		.long	.LBI52
 2066 0b1c 07       		.byte	.LVU16
 2067 0b1d 1B000000 		.long	.LLRL4
 2068 0b21 00       		.byte	0
 2069 0b22 0B       		.uleb128 0xb
 2070 0b23 5F0C0000 		.long	0xc5f
 2071 0b27 2E000000 		.long	.LBI61
 2072 0b2b 01       		.byte	.LVU25
 2073 0b2c 2A000000 		.long	.LLRL5
 2074 0b30 5C       		.byte	0x5c
 2075 0b31 03       		.byte	0x3
 2076 0b32 510B0000 		.long	0xb51
 2077 0b36 09       		.uleb128 0x9
 2078 0b37 740C0000 		.long	0xc74
 2079 0b3b 48010000 		.long	.LLST6
 2080 0b3f 46010000 		.long	.LVUS6
 2081 0b43 09       		.uleb128 0x9
GAS LISTING /tmp/cc2l5lB5.s 			page 38


 2082 0b44 690C0000 		.long	0xc69
 2083 0b48 59010000 		.long	.LLST7
 2084 0b4c 51010000 		.long	.LVUS7
 2085 0b50 00       		.byte	0
 2086 0b51 12       		.uleb128 0x12
 2087 0b52 F10B0000 		.long	0xbf1
 2088 0b56 54000000 		.long	.LBI67
 2089 0b5a 01       		.byte	.LVU45
 2090 0b5b 54000000 		.long	.LBB67
 2091 0b5f 06000000 		.long	.LBE67-.LBB67
 2092 0b63 62       		.byte	0x62
 2093 0b64 03       		.byte	0x3
 2094 0b65 7C0B0000 		.long	0xb7c
 2095 0b69 24       		.uleb128 0x24
 2096 0b6a 260C0000 		.long	0xc26
 2097 0b6e 54000000 		.long	.LBI69
 2098 0b72 08       		.byte	.LVU52
 2099 0b73 54000000 		.long	.LBB69
 2100 0b77 06000000 		.long	.LBE69-.LBB69
 2101 0b7b 00       		.byte	0
 2102 0b7c 0D       		.uleb128 0xd
 2103 0b7d 4E000000 		.long	.LVL7
 2104 0b81 9C070000 		.long	0x79c
 2105 0b85 0D       		.uleb128 0xd
 2106 0b86 69000000 		.long	.LVL11
 2107 0b8a AC070000 		.long	0x7ac
 2108 0b8e 00       		.byte	0
 2109 0b8f 0E       		.uleb128 0xe
 2110 0b90 B3000000 		.long	0xb3
 2111 0b94 9F0B0000 		.long	0xb9f
 2112 0b98 0F       		.uleb128 0xf
 2113 0b99 2D000000 		.long	0x2d
 2114 0b9d 09       		.byte	0x9
 2115 0b9e 00       		.byte	0
 2116 0b9f 0C       		.uleb128 0xc
 2117 0ba0 8F0B0000 		.long	0xb8f
 2118 0ba4 37       		.uleb128 0x37
 2119 0ba5 B5050000 		.long	.LASF127
 2120 0ba9 06       		.byte	0x6
 2121 0baa CE       		.byte	0xce
 2122 0bab 14       		.byte	0x14
 2123 0bac 03       		.byte	0x3
 2124 0bad C70B0000 		.long	0xbc7
 2125 0bb1 1A       		.uleb128 0x1a
 2126 0bb2 747000   		.string	"tp"
 2127 0bb5 CE       		.byte	0xce
 2128 0bb6 2C       		.byte	0x2c
 2129 0bb7 8E050000 		.long	0x58e
 2130 0bbb 1A       		.uleb128 0x1a
 2131 0bbc 6D736700 		.string	"msg"
 2132 0bc0 CE       		.byte	0xce
 2133 0bc1 36       		.byte	0x36
 2134 0bc2 29010000 		.long	0x129
 2135 0bc6 00       		.byte	0
 2136 0bc7 38       		.uleb128 0x38
 2137 0bc8 75020000 		.long	.LASF132
 2138 0bcc 06       		.byte	0x6
GAS LISTING /tmp/cc2l5lB5.s 			page 39


 2139 0bcd AC       		.byte	0xac
 2140 0bce 14       		.byte	0x14
 2141 0bcf 06050000 		.long	0x506
 2142 0bd3 03       		.byte	0x3
 2143 0bd4 E30B0000 		.long	0xbe3
 2144 0bd8 1A       		.uleb128 0x1a
 2145 0bd9 747000   		.string	"tp"
 2146 0bdc AC       		.byte	0xac
 2147 0bdd 2E       		.byte	0x2e
 2148 0bde 8E050000 		.long	0x58e
 2149 0be2 00       		.byte	0
 2150 0be3 39       		.uleb128 0x39
 2151 0be4 CC010000 		.long	.LASF137
 2152 0be8 02       		.byte	0x2
 2153 0be9 0F02     		.value	0x20f
 2154 0beb 19       		.byte	0x19
 2155 0bec 8E050000 		.long	0x58e
 2156 0bf0 03       		.byte	0x3
 2157 0bf1 3A       		.uleb128 0x3a
 2158 0bf2 C0010000 		.long	.LASF128
 2159 0bf6 04       		.byte	0x4
 2160 0bf7 A501     		.value	0x1a5
 2161 0bf9 14       		.byte	0x14
 2162 0bfa 03       		.byte	0x3
 2163 0bfb 090C0000 		.long	0xc09
 2164 0bff 16       		.uleb128 0x16
 2165 0c00 39060000 		.long	.LASF126
 2166 0c04 190C0000 		.long	0xc19
 2167 0c08 00       		.byte	0
 2168 0c09 0E       		.uleb128 0xe
 2169 0c0a B3000000 		.long	0xb3
 2170 0c0e 190C0000 		.long	0xc19
 2171 0c12 0F       		.uleb128 0xf
 2172 0c13 2D000000 		.long	0x2d
 2173 0c17 0B       		.byte	0xb
 2174 0c18 00       		.byte	0
 2175 0c19 0C       		.uleb128 0xc
 2176 0c1a 090C0000 		.long	0xc09
 2177 0c1e 1B       		.uleb128 0x1b
 2178 0c1f 6B020000 		.long	.LASF129
 2179 0c23 04       		.byte	0x4
 2180 0c24 9701     		.value	0x197
 2181 0c26 1B       		.uleb128 0x1b
 2182 0c27 42060000 		.long	.LASF130
 2183 0c2b 03       		.byte	0x3
 2184 0c2c 7201     		.value	0x172
 2185 0c2e 1B       		.uleb128 0x1b
 2186 0c2f A1000000 		.long	.LASF131
 2187 0c33 03       		.byte	0x3
 2188 0c34 6901     		.value	0x169
 2189 0c36 3B       		.uleb128 0x3b
 2190 0c37 8A020000 		.long	.LASF133
 2191 0c3b 05       		.byte	0x5
 2192 0c3c 5401     		.value	0x154
 2193 0c3e 1B       		.byte	0x1b
 2194 0c3f C9030000 		.long	0x3c9
 2195 0c43 03       		.byte	0x3
GAS LISTING /tmp/cc2l5lB5.s 			page 40


 2196 0c44 5F0C0000 		.long	0xc5f
 2197 0c48 1C       		.uleb128 0x1c
 2198 0c49 717000   		.string	"qp"
 2199 0c4c 5401     		.value	0x154
 2200 0c4e 3C       		.byte	0x3c
 2201 0c4f C9030000 		.long	0x3c9
 2202 0c53 3C       		.uleb128 0x3c
 2203 0c54 7000     		.string	"p"
 2204 0c56 05       		.byte	0x5
 2205 0c57 5501     		.value	0x155
 2206 0c59 0F       		.byte	0xf
 2207 0c5a C9030000 		.long	0x3c9
 2208 0c5e 00       		.byte	0
 2209 0c5f 3D       		.uleb128 0x3d
 2210 0c60 EF000000 		.long	.LASF138
 2211 0c64 05       		.byte	0x5
 2212 0c65 4201     		.value	0x142
 2213 0c67 14       		.byte	0x14
 2214 0c68 03       		.byte	0x3
 2215 0c69 1C       		.uleb128 0x1c
 2216 0c6a 717000   		.string	"qp"
 2217 0c6d 4201     		.value	0x142
 2218 0c6f 30       		.byte	0x30
 2219 0c70 C9030000 		.long	0x3c9
 2220 0c74 1C       		.uleb128 0x1c
 2221 0c75 7000     		.string	"p"
 2222 0c77 4201     		.value	0x142
 2223 0c79 40       		.byte	0x40
 2224 0c7a C9030000 		.long	0x3c9
 2225 0c7e 00       		.byte	0
 2226 0c7f 00       		.byte	0
 2227              		.section	.debug_abbrev,"",@progbits
 2228              	.Ldebug_abbrev0:
 2229 0000 01       		.uleb128 0x1
 2230 0001 16       		.uleb128 0x16
 2231 0002 00       		.byte	0
 2232 0003 03       		.uleb128 0x3
 2233 0004 0E       		.uleb128 0xe
 2234 0005 3A       		.uleb128 0x3a
 2235 0006 0B       		.uleb128 0xb
 2236 0007 3B       		.uleb128 0x3b
 2237 0008 0B       		.uleb128 0xb
 2238 0009 39       		.uleb128 0x39
 2239 000a 0B       		.uleb128 0xb
 2240 000b 49       		.uleb128 0x49
 2241 000c 13       		.uleb128 0x13
 2242 000d 00       		.byte	0
 2243 000e 00       		.byte	0
 2244 000f 02       		.uleb128 0x2
 2245 0010 0D       		.uleb128 0xd
 2246 0011 00       		.byte	0
 2247 0012 03       		.uleb128 0x3
 2248 0013 0E       		.uleb128 0xe
 2249 0014 3A       		.uleb128 0x3a
 2250 0015 0B       		.uleb128 0xb
 2251 0016 3B       		.uleb128 0x3b
 2252 0017 0B       		.uleb128 0xb
GAS LISTING /tmp/cc2l5lB5.s 			page 41


 2253 0018 39       		.uleb128 0x39
 2254 0019 0B       		.uleb128 0xb
 2255 001a 49       		.uleb128 0x49
 2256 001b 13       		.uleb128 0x13
 2257 001c 38       		.uleb128 0x38
 2258 001d 0B       		.uleb128 0xb
 2259 001e 00       		.byte	0
 2260 001f 00       		.byte	0
 2261 0020 03       		.uleb128 0x3
 2262 0021 0D       		.uleb128 0xd
 2263 0022 00       		.byte	0
 2264 0023 03       		.uleb128 0x3
 2265 0024 0E       		.uleb128 0xe
 2266 0025 3A       		.uleb128 0x3a
 2267 0026 21       		.uleb128 0x21
 2268 0027 0C       		.sleb128 12
 2269 0028 3B       		.uleb128 0x3b
 2270 0029 05       		.uleb128 0x5
 2271 002a 39       		.uleb128 0x39
 2272 002b 0B       		.uleb128 0xb
 2273 002c 49       		.uleb128 0x49
 2274 002d 13       		.uleb128 0x13
 2275 002e 38       		.uleb128 0x38
 2276 002f 0B       		.uleb128 0xb
 2277 0030 00       		.byte	0
 2278 0031 00       		.byte	0
 2279 0032 04       		.uleb128 0x4
 2280 0033 0F       		.uleb128 0xf
 2281 0034 00       		.byte	0
 2282 0035 0B       		.uleb128 0xb
 2283 0036 21       		.uleb128 0x21
 2284 0037 04       		.sleb128 4
 2285 0038 49       		.uleb128 0x49
 2286 0039 13       		.uleb128 0x13
 2287 003a 00       		.byte	0
 2288 003b 00       		.byte	0
 2289 003c 05       		.uleb128 0x5
 2290 003d 24       		.uleb128 0x24
 2291 003e 00       		.byte	0
 2292 003f 0B       		.uleb128 0xb
 2293 0040 0B       		.uleb128 0xb
 2294 0041 3E       		.uleb128 0x3e
 2295 0042 0B       		.uleb128 0xb
 2296 0043 03       		.uleb128 0x3
 2297 0044 0E       		.uleb128 0xe
 2298 0045 00       		.byte	0
 2299 0046 00       		.byte	0
 2300 0047 06       		.uleb128 0x6
 2301 0048 13       		.uleb128 0x13
 2302 0049 01       		.byte	0x1
 2303 004a 03       		.uleb128 0x3
 2304 004b 0E       		.uleb128 0xe
 2305 004c 0B       		.uleb128 0xb
 2306 004d 0B       		.uleb128 0xb
 2307 004e 3A       		.uleb128 0x3a
 2308 004f 0B       		.uleb128 0xb
 2309 0050 3B       		.uleb128 0x3b
GAS LISTING /tmp/cc2l5lB5.s 			page 42


 2310 0051 0B       		.uleb128 0xb
 2311 0052 39       		.uleb128 0x39
 2312 0053 0B       		.uleb128 0xb
 2313 0054 01       		.uleb128 0x1
 2314 0055 13       		.uleb128 0x13
 2315 0056 00       		.byte	0
 2316 0057 00       		.byte	0
 2317 0058 07       		.uleb128 0x7
 2318 0059 0D       		.uleb128 0xd
 2319 005a 00       		.byte	0
 2320 005b 03       		.uleb128 0x3
 2321 005c 08       		.uleb128 0x8
 2322 005d 3A       		.uleb128 0x3a
 2323 005e 0B       		.uleb128 0xb
 2324 005f 3B       		.uleb128 0x3b
 2325 0060 0B       		.uleb128 0xb
 2326 0061 39       		.uleb128 0x39
 2327 0062 0B       		.uleb128 0xb
 2328 0063 49       		.uleb128 0x49
 2329 0064 13       		.uleb128 0x13
 2330 0065 38       		.uleb128 0x38
 2331 0066 0B       		.uleb128 0xb
 2332 0067 00       		.byte	0
 2333 0068 00       		.byte	0
 2334 0069 08       		.uleb128 0x8
 2335 006a 0D       		.uleb128 0xd
 2336 006b 00       		.byte	0
 2337 006c 03       		.uleb128 0x3
 2338 006d 0E       		.uleb128 0xe
 2339 006e 3A       		.uleb128 0x3a
 2340 006f 21       		.uleb128 0x21
 2341 0070 0C       		.sleb128 12
 2342 0071 3B       		.uleb128 0x3b
 2343 0072 05       		.uleb128 0x5
 2344 0073 39       		.uleb128 0x39
 2345 0074 0B       		.uleb128 0xb
 2346 0075 49       		.uleb128 0x49
 2347 0076 13       		.uleb128 0x13
 2348 0077 00       		.byte	0
 2349 0078 00       		.byte	0
 2350 0079 09       		.uleb128 0x9
 2351 007a 05       		.uleb128 0x5
 2352 007b 00       		.byte	0
 2353 007c 31       		.uleb128 0x31
 2354 007d 13       		.uleb128 0x13
 2355 007e 02       		.uleb128 0x2
 2356 007f 17       		.uleb128 0x17
 2357 0080 B742     		.uleb128 0x2137
 2358 0082 17       		.uleb128 0x17
 2359 0083 00       		.byte	0
 2360 0084 00       		.byte	0
 2361 0085 0A       		.uleb128 0xa
 2362 0086 05       		.uleb128 0x5
 2363 0087 00       		.byte	0
 2364 0088 49       		.uleb128 0x49
 2365 0089 13       		.uleb128 0x13
 2366 008a 00       		.byte	0
GAS LISTING /tmp/cc2l5lB5.s 			page 43


 2367 008b 00       		.byte	0
 2368 008c 0B       		.uleb128 0xb
 2369 008d 1D       		.uleb128 0x1d
 2370 008e 01       		.byte	0x1
 2371 008f 31       		.uleb128 0x31
 2372 0090 13       		.uleb128 0x13
 2373 0091 52       		.uleb128 0x52
 2374 0092 01       		.uleb128 0x1
 2375 0093 B842     		.uleb128 0x2138
 2376 0095 0B       		.uleb128 0xb
 2377 0096 55       		.uleb128 0x55
 2378 0097 17       		.uleb128 0x17
 2379 0098 58       		.uleb128 0x58
 2380 0099 21       		.uleb128 0x21
 2381 009a 01       		.sleb128 1
 2382 009b 59       		.uleb128 0x59
 2383 009c 0B       		.uleb128 0xb
 2384 009d 57       		.uleb128 0x57
 2385 009e 0B       		.uleb128 0xb
 2386 009f 01       		.uleb128 0x1
 2387 00a0 13       		.uleb128 0x13
 2388 00a1 00       		.byte	0
 2389 00a2 00       		.byte	0
 2390 00a3 0C       		.uleb128 0xc
 2391 00a4 26       		.uleb128 0x26
 2392 00a5 00       		.byte	0
 2393 00a6 49       		.uleb128 0x49
 2394 00a7 13       		.uleb128 0x13
 2395 00a8 00       		.byte	0
 2396 00a9 00       		.byte	0
 2397 00aa 0D       		.uleb128 0xd
 2398 00ab 48       		.uleb128 0x48
 2399 00ac 00       		.byte	0
 2400 00ad 7D       		.uleb128 0x7d
 2401 00ae 01       		.uleb128 0x1
 2402 00af 7F       		.uleb128 0x7f
 2403 00b0 13       		.uleb128 0x13
 2404 00b1 00       		.byte	0
 2405 00b2 00       		.byte	0
 2406 00b3 0E       		.uleb128 0xe
 2407 00b4 01       		.uleb128 0x1
 2408 00b5 01       		.byte	0x1
 2409 00b6 49       		.uleb128 0x49
 2410 00b7 13       		.uleb128 0x13
 2411 00b8 01       		.uleb128 0x1
 2412 00b9 13       		.uleb128 0x13
 2413 00ba 00       		.byte	0
 2414 00bb 00       		.byte	0
 2415 00bc 0F       		.uleb128 0xf
 2416 00bd 21       		.uleb128 0x21
 2417 00be 00       		.byte	0
 2418 00bf 49       		.uleb128 0x49
 2419 00c0 13       		.uleb128 0x13
 2420 00c1 2F       		.uleb128 0x2f
 2421 00c2 0B       		.uleb128 0xb
 2422 00c3 00       		.byte	0
 2423 00c4 00       		.byte	0
GAS LISTING /tmp/cc2l5lB5.s 			page 44


 2424 00c5 10       		.uleb128 0x10
 2425 00c6 2E       		.uleb128 0x2e
 2426 00c7 01       		.byte	0x1
 2427 00c8 3F       		.uleb128 0x3f
 2428 00c9 19       		.uleb128 0x19
 2429 00ca 03       		.uleb128 0x3
 2430 00cb 0E       		.uleb128 0xe
 2431 00cc 3A       		.uleb128 0x3a
 2432 00cd 21       		.uleb128 0x21
 2433 00ce 01       		.sleb128 1
 2434 00cf 3B       		.uleb128 0x3b
 2435 00d0 0B       		.uleb128 0xb
 2436 00d1 39       		.uleb128 0x39
 2437 00d2 0B       		.uleb128 0xb
 2438 00d3 27       		.uleb128 0x27
 2439 00d4 19       		.uleb128 0x19
 2440 00d5 49       		.uleb128 0x49
 2441 00d6 13       		.uleb128 0x13
 2442 00d7 11       		.uleb128 0x11
 2443 00d8 01       		.uleb128 0x1
 2444 00d9 12       		.uleb128 0x12
 2445 00da 06       		.uleb128 0x6
 2446 00db 40       		.uleb128 0x40
 2447 00dc 18       		.uleb128 0x18
 2448 00dd 7A       		.uleb128 0x7a
 2449 00de 19       		.uleb128 0x19
 2450 00df 01       		.uleb128 0x1
 2451 00e0 13       		.uleb128 0x13
 2452 00e1 00       		.byte	0
 2453 00e2 00       		.byte	0
 2454 00e3 11       		.uleb128 0x11
 2455 00e4 34       		.uleb128 0x34
 2456 00e5 00       		.byte	0
 2457 00e6 03       		.uleb128 0x3
 2458 00e7 0E       		.uleb128 0xe
 2459 00e8 3A       		.uleb128 0x3a
 2460 00e9 21       		.uleb128 0x21
 2461 00ea 01       		.sleb128 1
 2462 00eb 3B       		.uleb128 0x3b
 2463 00ec 0B       		.uleb128 0xb
 2464 00ed 39       		.uleb128 0x39
 2465 00ee 21       		.uleb128 0x21
 2466 00ef 0D       		.sleb128 13
 2467 00f0 49       		.uleb128 0x49
 2468 00f1 13       		.uleb128 0x13
 2469 00f2 02       		.uleb128 0x2
 2470 00f3 17       		.uleb128 0x17
 2471 00f4 B742     		.uleb128 0x2137
 2472 00f6 17       		.uleb128 0x17
 2473 00f7 00       		.byte	0
 2474 00f8 00       		.byte	0
 2475 00f9 12       		.uleb128 0x12
 2476 00fa 1D       		.uleb128 0x1d
 2477 00fb 01       		.byte	0x1
 2478 00fc 31       		.uleb128 0x31
 2479 00fd 13       		.uleb128 0x13
 2480 00fe 52       		.uleb128 0x52
GAS LISTING /tmp/cc2l5lB5.s 			page 45


 2481 00ff 01       		.uleb128 0x1
 2482 0100 B842     		.uleb128 0x2138
 2483 0102 0B       		.uleb128 0xb
 2484 0103 11       		.uleb128 0x11
 2485 0104 01       		.uleb128 0x1
 2486 0105 12       		.uleb128 0x12
 2487 0106 06       		.uleb128 0x6
 2488 0107 58       		.uleb128 0x58
 2489 0108 21       		.uleb128 0x21
 2490 0109 01       		.sleb128 1
 2491 010a 59       		.uleb128 0x59
 2492 010b 0B       		.uleb128 0xb
 2493 010c 57       		.uleb128 0x57
 2494 010d 0B       		.uleb128 0xb
 2495 010e 01       		.uleb128 0x1
 2496 010f 13       		.uleb128 0x13
 2497 0110 00       		.byte	0
 2498 0111 00       		.byte	0
 2499 0112 13       		.uleb128 0x13
 2500 0113 35       		.uleb128 0x35
 2501 0114 00       		.byte	0
 2502 0115 49       		.uleb128 0x49
 2503 0116 13       		.uleb128 0x13
 2504 0117 00       		.byte	0
 2505 0118 00       		.byte	0
 2506 0119 14       		.uleb128 0x14
 2507 011a 13       		.uleb128 0x13
 2508 011b 01       		.byte	0x1
 2509 011c 03       		.uleb128 0x3
 2510 011d 0E       		.uleb128 0xe
 2511 011e 0B       		.uleb128 0xb
 2512 011f 0B       		.uleb128 0xb
 2513 0120 3A       		.uleb128 0x3a
 2514 0121 21       		.uleb128 0x21
 2515 0122 0C       		.sleb128 12
 2516 0123 3B       		.uleb128 0x3b
 2517 0124 05       		.uleb128 0x5
 2518 0125 39       		.uleb128 0x39
 2519 0126 0B       		.uleb128 0xb
 2520 0127 01       		.uleb128 0x1
 2521 0128 13       		.uleb128 0x13
 2522 0129 00       		.byte	0
 2523 012a 00       		.byte	0
 2524 012b 15       		.uleb128 0x15
 2525 012c 0D       		.uleb128 0xd
 2526 012d 00       		.byte	0
 2527 012e 03       		.uleb128 0x3
 2528 012f 0E       		.uleb128 0xe
 2529 0130 3A       		.uleb128 0x3a
 2530 0131 21       		.uleb128 0x21
 2531 0132 0C       		.sleb128 12
 2532 0133 3B       		.uleb128 0x3b
 2533 0134 0B       		.uleb128 0xb
 2534 0135 39       		.uleb128 0x39
 2535 0136 21       		.uleb128 0x21
 2536 0137 21       		.sleb128 33
 2537 0138 49       		.uleb128 0x49
GAS LISTING /tmp/cc2l5lB5.s 			page 46


 2538 0139 13       		.uleb128 0x13
 2539 013a 00       		.byte	0
 2540 013b 00       		.byte	0
 2541 013c 16       		.uleb128 0x16
 2542 013d 34       		.uleb128 0x34
 2543 013e 00       		.byte	0
 2544 013f 03       		.uleb128 0x3
 2545 0140 0E       		.uleb128 0xe
 2546 0141 49       		.uleb128 0x49
 2547 0142 13       		.uleb128 0x13
 2548 0143 34       		.uleb128 0x34
 2549 0144 19       		.uleb128 0x19
 2550 0145 00       		.byte	0
 2551 0146 00       		.byte	0
 2552 0147 17       		.uleb128 0x17
 2553 0148 0B       		.uleb128 0xb
 2554 0149 01       		.byte	0x1
 2555 014a 55       		.uleb128 0x55
 2556 014b 17       		.uleb128 0x17
 2557 014c 00       		.byte	0
 2558 014d 00       		.byte	0
 2559 014e 18       		.uleb128 0x18
 2560 014f 34       		.uleb128 0x34
 2561 0150 00       		.byte	0
 2562 0151 31       		.uleb128 0x31
 2563 0152 13       		.uleb128 0x13
 2564 0153 02       		.uleb128 0x2
 2565 0154 17       		.uleb128 0x17
 2566 0155 B742     		.uleb128 0x2137
 2567 0157 17       		.uleb128 0x17
 2568 0158 00       		.byte	0
 2569 0159 00       		.byte	0
 2570 015a 19       		.uleb128 0x19
 2571 015b 1D       		.uleb128 0x1d
 2572 015c 00       		.byte	0
 2573 015d 31       		.uleb128 0x31
 2574 015e 13       		.uleb128 0x13
 2575 015f 52       		.uleb128 0x52
 2576 0160 01       		.uleb128 0x1
 2577 0161 B842     		.uleb128 0x2138
 2578 0163 0B       		.uleb128 0xb
 2579 0164 55       		.uleb128 0x55
 2580 0165 17       		.uleb128 0x17
 2581 0166 58       		.uleb128 0x58
 2582 0167 21       		.uleb128 0x21
 2583 0168 01       		.sleb128 1
 2584 0169 59       		.uleb128 0x59
 2585 016a 0B       		.uleb128 0xb
 2586 016b 57       		.uleb128 0x57
 2587 016c 21       		.uleb128 0x21
 2588 016d 16       		.sleb128 22
 2589 016e 00       		.byte	0
 2590 016f 00       		.byte	0
 2591 0170 1A       		.uleb128 0x1a
 2592 0171 05       		.uleb128 0x5
 2593 0172 00       		.byte	0
 2594 0173 03       		.uleb128 0x3
GAS LISTING /tmp/cc2l5lB5.s 			page 47


 2595 0174 08       		.uleb128 0x8
 2596 0175 3A       		.uleb128 0x3a
 2597 0176 21       		.uleb128 0x21
 2598 0177 06       		.sleb128 6
 2599 0178 3B       		.uleb128 0x3b
 2600 0179 0B       		.uleb128 0xb
 2601 017a 39       		.uleb128 0x39
 2602 017b 0B       		.uleb128 0xb
 2603 017c 49       		.uleb128 0x49
 2604 017d 13       		.uleb128 0x13
 2605 017e 00       		.byte	0
 2606 017f 00       		.byte	0
 2607 0180 1B       		.uleb128 0x1b
 2608 0181 2E       		.uleb128 0x2e
 2609 0182 00       		.byte	0
 2610 0183 03       		.uleb128 0x3
 2611 0184 0E       		.uleb128 0xe
 2612 0185 3A       		.uleb128 0x3a
 2613 0186 0B       		.uleb128 0xb
 2614 0187 3B       		.uleb128 0x3b
 2615 0188 05       		.uleb128 0x5
 2616 0189 39       		.uleb128 0x39
 2617 018a 21       		.uleb128 0x21
 2618 018b 14       		.sleb128 20
 2619 018c 27       		.uleb128 0x27
 2620 018d 19       		.uleb128 0x19
 2621 018e 20       		.uleb128 0x20
 2622 018f 21       		.uleb128 0x21
 2623 0190 03       		.sleb128 3
 2624 0191 00       		.byte	0
 2625 0192 00       		.byte	0
 2626 0193 1C       		.uleb128 0x1c
 2627 0194 05       		.uleb128 0x5
 2628 0195 00       		.byte	0
 2629 0196 03       		.uleb128 0x3
 2630 0197 08       		.uleb128 0x8
 2631 0198 3A       		.uleb128 0x3a
 2632 0199 21       		.uleb128 0x21
 2633 019a 05       		.sleb128 5
 2634 019b 3B       		.uleb128 0x3b
 2635 019c 05       		.uleb128 0x5
 2636 019d 39       		.uleb128 0x39
 2637 019e 0B       		.uleb128 0xb
 2638 019f 49       		.uleb128 0x49
 2639 01a0 13       		.uleb128 0x13
 2640 01a1 00       		.byte	0
 2641 01a2 00       		.byte	0
 2642 01a3 1D       		.uleb128 0x1d
 2643 01a4 0D       		.uleb128 0xd
 2644 01a5 00       		.byte	0
 2645 01a6 03       		.uleb128 0x3
 2646 01a7 08       		.uleb128 0x8
 2647 01a8 3A       		.uleb128 0x3a
 2648 01a9 21       		.uleb128 0x21
 2649 01aa 0C       		.sleb128 12
 2650 01ab 3B       		.uleb128 0x3b
 2651 01ac 05       		.uleb128 0x5
GAS LISTING /tmp/cc2l5lB5.s 			page 48


 2652 01ad 39       		.uleb128 0x39
 2653 01ae 21       		.uleb128 0x21
 2654 01af 21       		.sleb128 33
 2655 01b0 49       		.uleb128 0x49
 2656 01b1 13       		.uleb128 0x13
 2657 01b2 38       		.uleb128 0x38
 2658 01b3 0B       		.uleb128 0xb
 2659 01b4 00       		.byte	0
 2660 01b5 00       		.byte	0
 2661 01b6 1E       		.uleb128 0x1e
 2662 01b7 16       		.uleb128 0x16
 2663 01b8 00       		.byte	0
 2664 01b9 03       		.uleb128 0x3
 2665 01ba 0E       		.uleb128 0xe
 2666 01bb 3A       		.uleb128 0x3a
 2667 01bc 21       		.uleb128 0x21
 2668 01bd 0C       		.sleb128 12
 2669 01be 3B       		.uleb128 0x3b
 2670 01bf 05       		.uleb128 0x5
 2671 01c0 39       		.uleb128 0x39
 2672 01c1 21       		.uleb128 0x21
 2673 01c2 03       		.sleb128 3
 2674 01c3 49       		.uleb128 0x49
 2675 01c4 13       		.uleb128 0x13
 2676 01c5 00       		.byte	0
 2677 01c6 00       		.byte	0
 2678 01c7 1F       		.uleb128 0x1f
 2679 01c8 2E       		.uleb128 0x2e
 2680 01c9 01       		.byte	0x1
 2681 01ca 3F       		.uleb128 0x3f
 2682 01cb 19       		.uleb128 0x19
 2683 01cc 03       		.uleb128 0x3
 2684 01cd 0E       		.uleb128 0xe
 2685 01ce 3A       		.uleb128 0x3a
 2686 01cf 21       		.uleb128 0x21
 2687 01d0 12       		.sleb128 18
 2688 01d1 3B       		.uleb128 0x3b
 2689 01d2 0B       		.uleb128 0xb
 2690 01d3 39       		.uleb128 0x39
 2691 01d4 21       		.uleb128 0x21
 2692 01d5 08       		.sleb128 8
 2693 01d6 27       		.uleb128 0x27
 2694 01d7 19       		.uleb128 0x19
 2695 01d8 3C       		.uleb128 0x3c
 2696 01d9 19       		.uleb128 0x19
 2697 01da 01       		.uleb128 0x1
 2698 01db 13       		.uleb128 0x13
 2699 01dc 00       		.byte	0
 2700 01dd 00       		.byte	0
 2701 01de 20       		.uleb128 0x20
 2702 01df 2E       		.uleb128 0x2e
 2703 01e0 01       		.byte	0x1
 2704 01e1 3F       		.uleb128 0x3f
 2705 01e2 19       		.uleb128 0x19
 2706 01e3 03       		.uleb128 0x3
 2707 01e4 0E       		.uleb128 0xe
 2708 01e5 3A       		.uleb128 0x3a
GAS LISTING /tmp/cc2l5lB5.s 			page 49


 2709 01e6 21       		.uleb128 0x21
 2710 01e7 12       		.sleb128 18
 2711 01e8 3B       		.uleb128 0x3b
 2712 01e9 0B       		.uleb128 0xb
 2713 01ea 39       		.uleb128 0x39
 2714 01eb 0B       		.uleb128 0xb
 2715 01ec 27       		.uleb128 0x27
 2716 01ed 19       		.uleb128 0x19
 2717 01ee 49       		.uleb128 0x49
 2718 01ef 13       		.uleb128 0x13
 2719 01f0 3C       		.uleb128 0x3c
 2720 01f1 19       		.uleb128 0x19
 2721 01f2 01       		.uleb128 0x1
 2722 01f3 13       		.uleb128 0x13
 2723 01f4 00       		.byte	0
 2724 01f5 00       		.byte	0
 2725 01f6 21       		.uleb128 0x21
 2726 01f7 05       		.uleb128 0x5
 2727 01f8 00       		.byte	0
 2728 01f9 03       		.uleb128 0x3
 2729 01fa 08       		.uleb128 0x8
 2730 01fb 3A       		.uleb128 0x3a
 2731 01fc 21       		.uleb128 0x21
 2732 01fd 01       		.sleb128 1
 2733 01fe 3B       		.uleb128 0x3b
 2734 01ff 0B       		.uleb128 0xb
 2735 0200 39       		.uleb128 0x39
 2736 0201 0B       		.uleb128 0xb
 2737 0202 49       		.uleb128 0x49
 2738 0203 13       		.uleb128 0x13
 2739 0204 02       		.uleb128 0x2
 2740 0205 18       		.uleb128 0x18
 2741 0206 00       		.byte	0
 2742 0207 00       		.byte	0
 2743 0208 22       		.uleb128 0x22
 2744 0209 1D       		.uleb128 0x1d
 2745 020a 00       		.byte	0
 2746 020b 31       		.uleb128 0x31
 2747 020c 13       		.uleb128 0x13
 2748 020d 52       		.uleb128 0x52
 2749 020e 01       		.uleb128 0x1
 2750 020f B842     		.uleb128 0x2138
 2751 0211 0B       		.uleb128 0xb
 2752 0212 55       		.uleb128 0x55
 2753 0213 17       		.uleb128 0x17
 2754 0214 58       		.uleb128 0x58
 2755 0215 21       		.uleb128 0x21
 2756 0216 04       		.sleb128 4
 2757 0217 59       		.uleb128 0x59
 2758 0218 21       		.uleb128 0x21
 2759 0219 9903     		.sleb128 409
 2760 021b 57       		.uleb128 0x57
 2761 021c 21       		.uleb128 0x21
 2762 021d 03       		.sleb128 3
 2763 021e 00       		.byte	0
 2764 021f 00       		.byte	0
 2765 0220 23       		.uleb128 0x23
GAS LISTING /tmp/cc2l5lB5.s 			page 50


 2766 0221 05       		.uleb128 0x5
 2767 0222 00       		.byte	0
 2768 0223 31       		.uleb128 0x31
 2769 0224 13       		.uleb128 0x13
 2770 0225 00       		.byte	0
 2771 0226 00       		.byte	0
 2772 0227 24       		.uleb128 0x24
 2773 0228 1D       		.uleb128 0x1d
 2774 0229 00       		.byte	0
 2775 022a 31       		.uleb128 0x31
 2776 022b 13       		.uleb128 0x13
 2777 022c 52       		.uleb128 0x52
 2778 022d 01       		.uleb128 0x1
 2779 022e B842     		.uleb128 0x2138
 2780 0230 0B       		.uleb128 0xb
 2781 0231 11       		.uleb128 0x11
 2782 0232 01       		.uleb128 0x1
 2783 0233 12       		.uleb128 0x12
 2784 0234 06       		.uleb128 0x6
 2785 0235 58       		.uleb128 0x58
 2786 0236 21       		.uleb128 0x21
 2787 0237 04       		.sleb128 4
 2788 0238 59       		.uleb128 0x59
 2789 0239 21       		.uleb128 0x21
 2790 023a B203     		.sleb128 434
 2791 023c 57       		.uleb128 0x57
 2792 023d 21       		.uleb128 0x21
 2793 023e 03       		.sleb128 3
 2794 023f 00       		.byte	0
 2795 0240 00       		.byte	0
 2796 0241 25       		.uleb128 0x25
 2797 0242 34       		.uleb128 0x34
 2798 0243 00       		.byte	0
 2799 0244 03       		.uleb128 0x3
 2800 0245 08       		.uleb128 0x8
 2801 0246 3A       		.uleb128 0x3a
 2802 0247 21       		.uleb128 0x21
 2803 0248 01       		.sleb128 1
 2804 0249 3B       		.uleb128 0x3b
 2805 024a 0B       		.uleb128 0xb
 2806 024b 39       		.uleb128 0x39
 2807 024c 21       		.uleb128 0x21
 2808 024d 0D       		.sleb128 13
 2809 024e 49       		.uleb128 0x49
 2810 024f 13       		.uleb128 0x13
 2811 0250 02       		.uleb128 0x2
 2812 0251 17       		.uleb128 0x17
 2813 0252 B742     		.uleb128 0x2137
 2814 0254 17       		.uleb128 0x17
 2815 0255 00       		.byte	0
 2816 0256 00       		.byte	0
 2817 0257 26       		.uleb128 0x26
 2818 0258 05       		.uleb128 0x5
 2819 0259 00       		.byte	0
 2820 025a 03       		.uleb128 0x3
 2821 025b 08       		.uleb128 0x8
 2822 025c 3A       		.uleb128 0x3a
GAS LISTING /tmp/cc2l5lB5.s 			page 51


 2823 025d 21       		.uleb128 0x21
 2824 025e 01       		.sleb128 1
 2825 025f 3B       		.uleb128 0x3b
 2826 0260 0B       		.uleb128 0xb
 2827 0261 39       		.uleb128 0x39
 2828 0262 0B       		.uleb128 0xb
 2829 0263 49       		.uleb128 0x49
 2830 0264 13       		.uleb128 0x13
 2831 0265 02       		.uleb128 0x2
 2832 0266 17       		.uleb128 0x17
 2833 0267 B742     		.uleb128 0x2137
 2834 0269 17       		.uleb128 0x17
 2835 026a 00       		.byte	0
 2836 026b 00       		.byte	0
 2837 026c 27       		.uleb128 0x27
 2838 026d 11       		.uleb128 0x11
 2839 026e 01       		.byte	0x1
 2840 026f 25       		.uleb128 0x25
 2841 0270 0E       		.uleb128 0xe
 2842 0271 13       		.uleb128 0x13
 2843 0272 0B       		.uleb128 0xb
 2844 0273 03       		.uleb128 0x3
 2845 0274 1F       		.uleb128 0x1f
 2846 0275 1B       		.uleb128 0x1b
 2847 0276 1F       		.uleb128 0x1f
 2848 0277 55       		.uleb128 0x55
 2849 0278 17       		.uleb128 0x17
 2850 0279 11       		.uleb128 0x11
 2851 027a 01       		.uleb128 0x1
 2852 027b 10       		.uleb128 0x10
 2853 027c 17       		.uleb128 0x17
 2854 027d 00       		.byte	0
 2855 027e 00       		.byte	0
 2856 027f 28       		.uleb128 0x28
 2857 0280 24       		.uleb128 0x24
 2858 0281 00       		.byte	0
 2859 0282 0B       		.uleb128 0xb
 2860 0283 0B       		.uleb128 0xb
 2861 0284 3E       		.uleb128 0x3e
 2862 0285 0B       		.uleb128 0xb
 2863 0286 03       		.uleb128 0x3
 2864 0287 08       		.uleb128 0x8
 2865 0288 00       		.byte	0
 2866 0289 00       		.byte	0
 2867 028a 29       		.uleb128 0x29
 2868 028b 0F       		.uleb128 0xf
 2869 028c 00       		.byte	0
 2870 028d 0B       		.uleb128 0xb
 2871 028e 0B       		.uleb128 0xb
 2872 028f 00       		.byte	0
 2873 0290 00       		.byte	0
 2874 0291 2A       		.uleb128 0x2a
 2875 0292 13       		.uleb128 0x13
 2876 0293 01       		.byte	0x1
 2877 0294 0B       		.uleb128 0xb
 2878 0295 0B       		.uleb128 0xb
 2879 0296 3A       		.uleb128 0x3a
GAS LISTING /tmp/cc2l5lB5.s 			page 52


 2880 0297 0B       		.uleb128 0xb
 2881 0298 3B       		.uleb128 0x3b
 2882 0299 0B       		.uleb128 0xb
 2883 029a 39       		.uleb128 0x39
 2884 029b 0B       		.uleb128 0xb
 2885 029c 01       		.uleb128 0x1
 2886 029d 13       		.uleb128 0x13
 2887 029e 00       		.byte	0
 2888 029f 00       		.byte	0
 2889 02a0 2B       		.uleb128 0x2b
 2890 02a1 16       		.uleb128 0x16
 2891 02a2 00       		.byte	0
 2892 02a3 03       		.uleb128 0x3
 2893 02a4 0E       		.uleb128 0xe
 2894 02a5 3A       		.uleb128 0x3a
 2895 02a6 0B       		.uleb128 0xb
 2896 02a7 3B       		.uleb128 0x3b
 2897 02a8 0B       		.uleb128 0xb
 2898 02a9 39       		.uleb128 0x39
 2899 02aa 0B       		.uleb128 0xb
 2900 02ab 49       		.uleb128 0x49
 2901 02ac 13       		.uleb128 0x13
 2902 02ad 8801     		.uleb128 0x88
 2903 02af 0B       		.uleb128 0xb
 2904 02b0 00       		.byte	0
 2905 02b1 00       		.byte	0
 2906 02b2 2C       		.uleb128 0x2c
 2907 02b3 34       		.uleb128 0x34
 2908 02b4 00       		.byte	0
 2909 02b5 03       		.uleb128 0x3
 2910 02b6 0E       		.uleb128 0xe
 2911 02b7 3A       		.uleb128 0x3a
 2912 02b8 0B       		.uleb128 0xb
 2913 02b9 3B       		.uleb128 0x3b
 2914 02ba 05       		.uleb128 0x5
 2915 02bb 39       		.uleb128 0x39
 2916 02bc 0B       		.uleb128 0xb
 2917 02bd 49       		.uleb128 0x49
 2918 02be 13       		.uleb128 0x13
 2919 02bf 3F       		.uleb128 0x3f
 2920 02c0 19       		.uleb128 0x19
 2921 02c1 3C       		.uleb128 0x3c
 2922 02c2 19       		.uleb128 0x19
 2923 02c3 00       		.byte	0
 2924 02c4 00       		.byte	0
 2925 02c5 2D       		.uleb128 0x2d
 2926 02c6 15       		.uleb128 0x15
 2927 02c7 01       		.byte	0x1
 2928 02c8 27       		.uleb128 0x27
 2929 02c9 19       		.uleb128 0x19
 2930 02ca 01       		.uleb128 0x1
 2931 02cb 13       		.uleb128 0x13
 2932 02cc 00       		.byte	0
 2933 02cd 00       		.byte	0
 2934 02ce 2E       		.uleb128 0x2e
 2935 02cf 17       		.uleb128 0x17
 2936 02d0 01       		.byte	0x1
GAS LISTING /tmp/cc2l5lB5.s 			page 53


 2937 02d1 0B       		.uleb128 0xb
 2938 02d2 0B       		.uleb128 0xb
 2939 02d3 3A       		.uleb128 0x3a
 2940 02d4 0B       		.uleb128 0xb
 2941 02d5 3B       		.uleb128 0x3b
 2942 02d6 0B       		.uleb128 0xb
 2943 02d7 39       		.uleb128 0x39
 2944 02d8 0B       		.uleb128 0xb
 2945 02d9 01       		.uleb128 0x1
 2946 02da 13       		.uleb128 0x13
 2947 02db 00       		.byte	0
 2948 02dc 00       		.byte	0
 2949 02dd 2F       		.uleb128 0x2f
 2950 02de 17       		.uleb128 0x17
 2951 02df 01       		.byte	0x1
 2952 02e0 0B       		.uleb128 0xb
 2953 02e1 0B       		.uleb128 0xb
 2954 02e2 3A       		.uleb128 0x3a
 2955 02e3 0B       		.uleb128 0xb
 2956 02e4 3B       		.uleb128 0x3b
 2957 02e5 05       		.uleb128 0x5
 2958 02e6 39       		.uleb128 0x39
 2959 02e7 0B       		.uleb128 0xb
 2960 02e8 01       		.uleb128 0x1
 2961 02e9 13       		.uleb128 0x13
 2962 02ea 00       		.byte	0
 2963 02eb 00       		.byte	0
 2964 02ec 30       		.uleb128 0x30
 2965 02ed 34       		.uleb128 0x34
 2966 02ee 00       		.byte	0
 2967 02ef 03       		.uleb128 0x3
 2968 02f0 08       		.uleb128 0x8
 2969 02f1 3A       		.uleb128 0x3a
 2970 02f2 0B       		.uleb128 0xb
 2971 02f3 3B       		.uleb128 0x3b
 2972 02f4 05       		.uleb128 0x5
 2973 02f5 39       		.uleb128 0x39
 2974 02f6 0B       		.uleb128 0xb
 2975 02f7 49       		.uleb128 0x49
 2976 02f8 13       		.uleb128 0x13
 2977 02f9 3F       		.uleb128 0x3f
 2978 02fa 19       		.uleb128 0x19
 2979 02fb 3C       		.uleb128 0x3c
 2980 02fc 19       		.uleb128 0x19
 2981 02fd 00       		.byte	0
 2982 02fe 00       		.byte	0
 2983 02ff 31       		.uleb128 0x31
 2984 0300 2E       		.uleb128 0x2e
 2985 0301 01       		.byte	0x1
 2986 0302 3F       		.uleb128 0x3f
 2987 0303 19       		.uleb128 0x19
 2988 0304 03       		.uleb128 0x3
 2989 0305 0E       		.uleb128 0xe
 2990 0306 3A       		.uleb128 0x3a
 2991 0307 0B       		.uleb128 0xb
 2992 0308 3B       		.uleb128 0x3b
 2993 0309 0B       		.uleb128 0xb
GAS LISTING /tmp/cc2l5lB5.s 			page 54


 2994 030a 39       		.uleb128 0x39
 2995 030b 0B       		.uleb128 0xb
 2996 030c 27       		.uleb128 0x27
 2997 030d 19       		.uleb128 0x19
 2998 030e 11       		.uleb128 0x11
 2999 030f 01       		.uleb128 0x1
 3000 0310 12       		.uleb128 0x12
 3001 0311 06       		.uleb128 0x6
 3002 0312 40       		.uleb128 0x40
 3003 0313 18       		.uleb128 0x18
 3004 0314 7A       		.uleb128 0x7a
 3005 0315 19       		.uleb128 0x19
 3006 0316 01       		.uleb128 0x1
 3007 0317 13       		.uleb128 0x13
 3008 0318 00       		.byte	0
 3009 0319 00       		.byte	0
 3010 031a 32       		.uleb128 0x32
 3011 031b 1D       		.uleb128 0x1d
 3012 031c 01       		.byte	0x1
 3013 031d 31       		.uleb128 0x31
 3014 031e 13       		.uleb128 0x13
 3015 031f 52       		.uleb128 0x52
 3016 0320 01       		.uleb128 0x1
 3017 0321 B842     		.uleb128 0x2138
 3018 0323 0B       		.uleb128 0xb
 3019 0324 11       		.uleb128 0x11
 3020 0325 01       		.uleb128 0x1
 3021 0326 12       		.uleb128 0x12
 3022 0327 06       		.uleb128 0x6
 3023 0328 58       		.uleb128 0x58
 3024 0329 0B       		.uleb128 0xb
 3025 032a 59       		.uleb128 0x59
 3026 032b 0B       		.uleb128 0xb
 3027 032c 57       		.uleb128 0x57
 3028 032d 0B       		.uleb128 0xb
 3029 032e 00       		.byte	0
 3030 032f 00       		.byte	0
 3031 0330 33       		.uleb128 0x33
 3032 0331 1D       		.uleb128 0x1d
 3033 0332 00       		.byte	0
 3034 0333 31       		.uleb128 0x31
 3035 0334 13       		.uleb128 0x13
 3036 0335 52       		.uleb128 0x52
 3037 0336 01       		.uleb128 0x1
 3038 0337 B842     		.uleb128 0x2138
 3039 0339 0B       		.uleb128 0xb
 3040 033a 11       		.uleb128 0x11
 3041 033b 01       		.uleb128 0x1
 3042 033c 12       		.uleb128 0x12
 3043 033d 06       		.uleb128 0x6
 3044 033e 58       		.uleb128 0x58
 3045 033f 0B       		.uleb128 0xb
 3046 0340 59       		.uleb128 0x59
 3047 0341 0B       		.uleb128 0xb
 3048 0342 57       		.uleb128 0x57
 3049 0343 0B       		.uleb128 0xb
 3050 0344 00       		.byte	0
GAS LISTING /tmp/cc2l5lB5.s 			page 55


 3051 0345 00       		.byte	0
 3052 0346 34       		.uleb128 0x34
 3053 0347 1D       		.uleb128 0x1d
 3054 0348 01       		.byte	0x1
 3055 0349 31       		.uleb128 0x31
 3056 034a 13       		.uleb128 0x13
 3057 034b 52       		.uleb128 0x52
 3058 034c 01       		.uleb128 0x1
 3059 034d B842     		.uleb128 0x2138
 3060 034f 0B       		.uleb128 0xb
 3061 0350 55       		.uleb128 0x55
 3062 0351 17       		.uleb128 0x17
 3063 0352 58       		.uleb128 0x58
 3064 0353 0B       		.uleb128 0xb
 3065 0354 59       		.uleb128 0x59
 3066 0355 0B       		.uleb128 0xb
 3067 0356 57       		.uleb128 0x57
 3068 0357 0B       		.uleb128 0xb
 3069 0358 00       		.byte	0
 3070 0359 00       		.byte	0
 3071 035a 35       		.uleb128 0x35
 3072 035b 05       		.uleb128 0x5
 3073 035c 00       		.byte	0
 3074 035d 03       		.uleb128 0x3
 3075 035e 0E       		.uleb128 0xe
 3076 035f 3A       		.uleb128 0x3a
 3077 0360 0B       		.uleb128 0xb
 3078 0361 3B       		.uleb128 0x3b
 3079 0362 0B       		.uleb128 0xb
 3080 0363 39       		.uleb128 0x39
 3081 0364 0B       		.uleb128 0xb
 3082 0365 49       		.uleb128 0x49
 3083 0366 13       		.uleb128 0x13
 3084 0367 02       		.uleb128 0x2
 3085 0368 18       		.uleb128 0x18
 3086 0369 00       		.byte	0
 3087 036a 00       		.byte	0
 3088 036b 36       		.uleb128 0x36
 3089 036c 34       		.uleb128 0x34
 3090 036d 00       		.byte	0
 3091 036e 03       		.uleb128 0x3
 3092 036f 08       		.uleb128 0x8
 3093 0370 3A       		.uleb128 0x3a
 3094 0371 0B       		.uleb128 0xb
 3095 0372 3B       		.uleb128 0x3b
 3096 0373 0B       		.uleb128 0xb
 3097 0374 39       		.uleb128 0x39
 3098 0375 0B       		.uleb128 0xb
 3099 0376 49       		.uleb128 0x49
 3100 0377 13       		.uleb128 0x13
 3101 0378 00       		.byte	0
 3102 0379 00       		.byte	0
 3103 037a 37       		.uleb128 0x37
 3104 037b 2E       		.uleb128 0x2e
 3105 037c 01       		.byte	0x1
 3106 037d 03       		.uleb128 0x3
 3107 037e 0E       		.uleb128 0xe
GAS LISTING /tmp/cc2l5lB5.s 			page 56


 3108 037f 3A       		.uleb128 0x3a
 3109 0380 0B       		.uleb128 0xb
 3110 0381 3B       		.uleb128 0x3b
 3111 0382 0B       		.uleb128 0xb
 3112 0383 39       		.uleb128 0x39
 3113 0384 0B       		.uleb128 0xb
 3114 0385 27       		.uleb128 0x27
 3115 0386 19       		.uleb128 0x19
 3116 0387 20       		.uleb128 0x20
 3117 0388 0B       		.uleb128 0xb
 3118 0389 01       		.uleb128 0x1
 3119 038a 13       		.uleb128 0x13
 3120 038b 00       		.byte	0
 3121 038c 00       		.byte	0
 3122 038d 38       		.uleb128 0x38
 3123 038e 2E       		.uleb128 0x2e
 3124 038f 01       		.byte	0x1
 3125 0390 03       		.uleb128 0x3
 3126 0391 0E       		.uleb128 0xe
 3127 0392 3A       		.uleb128 0x3a
 3128 0393 0B       		.uleb128 0xb
 3129 0394 3B       		.uleb128 0x3b
 3130 0395 0B       		.uleb128 0xb
 3131 0396 39       		.uleb128 0x39
 3132 0397 0B       		.uleb128 0xb
 3133 0398 27       		.uleb128 0x27
 3134 0399 19       		.uleb128 0x19
 3135 039a 49       		.uleb128 0x49
 3136 039b 13       		.uleb128 0x13
 3137 039c 20       		.uleb128 0x20
 3138 039d 0B       		.uleb128 0xb
 3139 039e 01       		.uleb128 0x1
 3140 039f 13       		.uleb128 0x13
 3141 03a0 00       		.byte	0
 3142 03a1 00       		.byte	0
 3143 03a2 39       		.uleb128 0x39
 3144 03a3 2E       		.uleb128 0x2e
 3145 03a4 00       		.byte	0
 3146 03a5 03       		.uleb128 0x3
 3147 03a6 0E       		.uleb128 0xe
 3148 03a7 3A       		.uleb128 0x3a
 3149 03a8 0B       		.uleb128 0xb
 3150 03a9 3B       		.uleb128 0x3b
 3151 03aa 05       		.uleb128 0x5
 3152 03ab 39       		.uleb128 0x39
 3153 03ac 0B       		.uleb128 0xb
 3154 03ad 27       		.uleb128 0x27
 3155 03ae 19       		.uleb128 0x19
 3156 03af 49       		.uleb128 0x49
 3157 03b0 13       		.uleb128 0x13
 3158 03b1 20       		.uleb128 0x20
 3159 03b2 0B       		.uleb128 0xb
 3160 03b3 00       		.byte	0
 3161 03b4 00       		.byte	0
 3162 03b5 3A       		.uleb128 0x3a
 3163 03b6 2E       		.uleb128 0x2e
 3164 03b7 01       		.byte	0x1
GAS LISTING /tmp/cc2l5lB5.s 			page 57


 3165 03b8 03       		.uleb128 0x3
 3166 03b9 0E       		.uleb128 0xe
 3167 03ba 3A       		.uleb128 0x3a
 3168 03bb 0B       		.uleb128 0xb
 3169 03bc 3B       		.uleb128 0x3b
 3170 03bd 05       		.uleb128 0x5
 3171 03be 39       		.uleb128 0x39
 3172 03bf 0B       		.uleb128 0xb
 3173 03c0 27       		.uleb128 0x27
 3174 03c1 19       		.uleb128 0x19
 3175 03c2 20       		.uleb128 0x20
 3176 03c3 0B       		.uleb128 0xb
 3177 03c4 01       		.uleb128 0x1
 3178 03c5 13       		.uleb128 0x13
 3179 03c6 00       		.byte	0
 3180 03c7 00       		.byte	0
 3181 03c8 3B       		.uleb128 0x3b
 3182 03c9 2E       		.uleb128 0x2e
 3183 03ca 01       		.byte	0x1
 3184 03cb 03       		.uleb128 0x3
 3185 03cc 0E       		.uleb128 0xe
 3186 03cd 3A       		.uleb128 0x3a
 3187 03ce 0B       		.uleb128 0xb
 3188 03cf 3B       		.uleb128 0x3b
 3189 03d0 05       		.uleb128 0x5
 3190 03d1 39       		.uleb128 0x39
 3191 03d2 0B       		.uleb128 0xb
 3192 03d3 27       		.uleb128 0x27
 3193 03d4 19       		.uleb128 0x19
 3194 03d5 49       		.uleb128 0x49
 3195 03d6 13       		.uleb128 0x13
 3196 03d7 20       		.uleb128 0x20
 3197 03d8 0B       		.uleb128 0xb
 3198 03d9 01       		.uleb128 0x1
 3199 03da 13       		.uleb128 0x13
 3200 03db 00       		.byte	0
 3201 03dc 00       		.byte	0
 3202 03dd 3C       		.uleb128 0x3c
 3203 03de 34       		.uleb128 0x34
 3204 03df 00       		.byte	0
 3205 03e0 03       		.uleb128 0x3
 3206 03e1 08       		.uleb128 0x8
 3207 03e2 3A       		.uleb128 0x3a
 3208 03e3 0B       		.uleb128 0xb
 3209 03e4 3B       		.uleb128 0x3b
 3210 03e5 05       		.uleb128 0x5
 3211 03e6 39       		.uleb128 0x39
 3212 03e7 0B       		.uleb128 0xb
 3213 03e8 49       		.uleb128 0x49
 3214 03e9 13       		.uleb128 0x13
 3215 03ea 00       		.byte	0
 3216 03eb 00       		.byte	0
 3217 03ec 3D       		.uleb128 0x3d
 3218 03ed 2E       		.uleb128 0x2e
 3219 03ee 01       		.byte	0x1
 3220 03ef 03       		.uleb128 0x3
 3221 03f0 0E       		.uleb128 0xe
GAS LISTING /tmp/cc2l5lB5.s 			page 58


 3222 03f1 3A       		.uleb128 0x3a
 3223 03f2 0B       		.uleb128 0xb
 3224 03f3 3B       		.uleb128 0x3b
 3225 03f4 05       		.uleb128 0x5
 3226 03f5 39       		.uleb128 0x39
 3227 03f6 0B       		.uleb128 0xb
 3228 03f7 27       		.uleb128 0x27
 3229 03f8 19       		.uleb128 0x19
 3230 03f9 20       		.uleb128 0x20
 3231 03fa 0B       		.uleb128 0xb
 3232 03fb 00       		.byte	0
 3233 03fc 00       		.byte	0
 3234 03fd 00       		.byte	0
 3235              		.section	.debug_loclists,"",@progbits
 3236 0000 7A010000 		.long	.Ldebug_loc3-.Ldebug_loc2
 3237              	.Ldebug_loc2:
 3238 0004 0500     		.value	0x5
 3239 0006 04       		.byte	0x4
 3240 0007 00       		.byte	0
 3241 0008 00000000 		.long	0
 3242              	.Ldebug_loc0:
 3243              	.LVUS21:
 3244 000c 00       		.uleb128 .LVU155
 3245 000d 00       		.uleb128 0
 3246              	.LLST21:
 3247 000e 08       		.byte	0x8
 3248 000f 13000000 		.long	.LVL33
 3249 0013 20       		.uleb128 .LFE206-.LVL33
 3250 0014 01       		.uleb128 0x1
 3251 0015 52       		.byte	0x52
 3252 0016 00       		.byte	0
 3253              	.LVUS22:
 3254 0017 02       		.uleb128 .LVU157
 3255 0018 01       		.uleb128 .LVU175
 3256 0019 01       		.uleb128 .LVU175
 3257 001a 00       		.uleb128 .LVU179
 3258 001b 00       		.uleb128 .LVU179
 3259 001c 00       		.uleb128 0
 3260              	.LLST22:
 3261 001d 06       		.byte	0x6
 3262 001e 13000000 		.long	.LVL33
 3263 0022 04       		.byte	0x4
 3264 0023 00       		.uleb128 .LVL33-.LVL33
 3265 0024 13       		.uleb128 .LVL36-.LVL33
 3266 0025 02       		.uleb128 0x2
 3267 0026 30       		.byte	0x30
 3268 0027 9F       		.byte	0x9f
 3269 0028 04       		.byte	0x4
 3270 0029 13       		.uleb128 .LVL36-.LVL33
 3271 002a 19       		.uleb128 .LVL37-.LVL33
 3272 002b 01       		.uleb128 0x1
 3273 002c 50       		.byte	0x50
 3274 002d 04       		.byte	0x4
 3275 002e 19       		.uleb128 .LVL37-.LVL33
 3276 002f 20       		.uleb128 .LFE206-.LVL33
 3277 0030 02       		.uleb128 0x2
 3278 0031 30       		.byte	0x30
GAS LISTING /tmp/cc2l5lB5.s 			page 59


 3279 0032 9F       		.byte	0x9f
 3280 0033 00       		.byte	0
 3281              	.LVUS23:
 3282 0034 03       		.uleb128 .LVU158
 3283 0035 00       		.uleb128 .LVU163
 3284              	.LLST23:
 3285 0036 08       		.byte	0x8
 3286 0037 13000000 		.long	.LVL33
 3287 003b 06       		.uleb128 .LVL34-.LVL33
 3288 003c 01       		.uleb128 0x1
 3289 003d 52       		.byte	0x52
 3290 003e 00       		.byte	0
 3291              	.LVUS25:
 3292 003f 01       		.uleb128 .LVU166
 3293 0040 01       		.uleb128 .LVU175
 3294              	.LLST25:
 3295 0041 08       		.byte	0x8
 3296 0042 1D000000 		.long	.LVL35
 3297 0046 09       		.uleb128 .LVL36-.LVL35
 3298 0047 01       		.uleb128 0x1
 3299 0048 51       		.byte	0x51
 3300 0049 00       		.byte	0
 3301              	.LVUS26:
 3302 004a 03       		.uleb128 .LVU168
 3303 004b 01       		.uleb128 .LVU175
 3304              	.LLST26:
 3305 004c 08       		.byte	0x8
 3306 004d 1D000000 		.long	.LVL35
 3307 0051 09       		.uleb128 .LVL36-.LVL35
 3308 0052 01       		.uleb128 0x1
 3309 0053 50       		.byte	0x50
 3310 0054 00       		.byte	0
 3311              	.LVUS15:
 3312 0055 00       		.uleb128 .LVU117
 3313 0056 00       		.uleb128 .LVU142
 3314 0057 00       		.uleb128 .LVU142
 3315 0058 00       		.uleb128 .LVU143
 3316 0059 00       		.uleb128 .LVU144
 3317 005a 00       		.uleb128 0
 3318              	.LLST15:
 3319 005b 06       		.byte	0x6
 3320 005c 17000000 		.long	.LVL24
 3321 0060 04       		.byte	0x4
 3322 0061 00       		.uleb128 .LVL24-.LVL24
 3323 0062 18       		.uleb128 .LVL29-.LVL24
 3324 0063 01       		.uleb128 0x1
 3325 0064 56       		.byte	0x56
 3326 0065 04       		.byte	0x4
 3327 0066 18       		.uleb128 .LVL29-.LVL24
 3328 0067 19       		.uleb128 .LVL30-.LVL24
 3329 0068 03       		.uleb128 0x3
 3330 0069 77       		.byte	0x77
 3331 006a 44       		.sleb128 -60
 3332 006b 9F       		.byte	0x9f
 3333 006c 04       		.byte	0x4
 3334 006d 1A       		.uleb128 .LVL31-.LVL24
 3335 006e 45       		.uleb128 .LFE205-.LVL24
GAS LISTING /tmp/cc2l5lB5.s 			page 60


 3336 006f 01       		.uleb128 0x1
 3337 0070 56       		.byte	0x56
 3338 0071 00       		.byte	0
 3339              	.LVUS17:
 3340 0072 04       		.uleb128 .LVU121
 3341 0073 00       		.uleb128 .LVU126
 3342              	.LLST17:
 3343 0074 08       		.byte	0x8
 3344 0075 17000000 		.long	.LVL24
 3345 0079 06       		.uleb128 .LVL25-.LVL24
 3346 007a 01       		.uleb128 0x1
 3347 007b 56       		.byte	0x56
 3348 007c 00       		.byte	0
 3349              	.LVUS19:
 3350 007d 01       		.uleb128 .LVU129
 3351 007e 01       		.uleb128 .LVU137
 3352              	.LLST19:
 3353 007f 08       		.byte	0x8
 3354 0080 21000000 		.long	.LVL26
 3355 0084 08       		.uleb128 .LVL28-.LVL26
 3356 0085 01       		.uleb128 0x1
 3357 0086 57       		.byte	0x57
 3358 0087 00       		.byte	0
 3359              	.LVUS20:
 3360 0088 03       		.uleb128 .LVU131
 3361 0089 00       		.uleb128 .LVU134
 3362              	.LLST20:
 3363 008a 08       		.byte	0x8
 3364 008b 21000000 		.long	.LVL26
 3365 008f 05       		.uleb128 .LVL27-.LVL26
 3366 0090 02       		.uleb128 0x2
 3367 0091 76       		.byte	0x76
 3368 0092 3C       		.sleb128 60
 3369 0093 00       		.byte	0
 3370              	.LVUS8:
 3371 0094 00       		.uleb128 .LVU67
 3372 0095 00       		.uleb128 .LVU92
 3373 0096 00       		.uleb128 .LVU93
 3374 0097 00       		.uleb128 .LVU109
 3375 0098 00       		.uleb128 .LVU109
 3376 0099 00       		.uleb128 .LVU110
 3377              	.LLST8:
 3378 009a 06       		.byte	0x6
 3379 009b 17000000 		.long	.LVL12
 3380 009f 04       		.byte	0x4
 3381 00a0 00       		.uleb128 .LVL12-.LVL12
 3382 00a1 18       		.uleb128 .LVL16-.LVL12
 3383 00a2 01       		.uleb128 0x1
 3384 00a3 56       		.byte	0x56
 3385 00a4 04       		.byte	0x4
 3386 00a5 1A       		.uleb128 .LVL17-.LVL12
 3387 00a6 3F       		.uleb128 .LVL21-.LVL12
 3388 00a7 01       		.uleb128 0x1
 3389 00a8 56       		.byte	0x56
 3390 00a9 04       		.byte	0x4
 3391 00aa 3F       		.uleb128 .LVL21-.LVL12
 3392 00ab 40       		.uleb128 .LVL22-.LVL12
GAS LISTING /tmp/cc2l5lB5.s 			page 61


 3393 00ac 03       		.uleb128 0x3
 3394 00ad 77       		.byte	0x77
 3395 00ae 44       		.sleb128 -60
 3396 00af 9F       		.byte	0x9f
 3397 00b0 00       		.byte	0
 3398              	.LVUS9:
 3399 00b1 01       		.uleb128 .LVU87
 3400 00b2 00       		.uleb128 .LVU93
 3401 00b3 01       		.uleb128 .LVU104
 3402 00b4 00       		.uleb128 0
 3403              	.LLST9:
 3404 00b5 06       		.byte	0x6
 3405 00b6 29000000 		.long	.LVL15
 3406 00ba 04       		.byte	0x4
 3407 00bb 00       		.uleb128 .LVL15-.LVL15
 3408 00bc 08       		.uleb128 .LVL17-.LVL15
 3409 00bd 01       		.uleb128 0x1
 3410 00be 50       		.byte	0x50
 3411 00bf 04       		.byte	0x4
 3412 00c0 27       		.uleb128 .LVL20-.LVL15
 3413 00c1 2F       		.uleb128 .LFE204-.LVL15
 3414 00c2 01       		.uleb128 0x1
 3415 00c3 50       		.byte	0x50
 3416 00c4 00       		.byte	0
 3417              	.LVUS11:
 3418 00c5 04       		.uleb128 .LVU71
 3419 00c6 00       		.uleb128 .LVU76
 3420              	.LLST11:
 3421 00c7 08       		.byte	0x8
 3422 00c8 17000000 		.long	.LVL12
 3423 00cc 06       		.uleb128 .LVL13-.LVL12
 3424 00cd 01       		.uleb128 0x1
 3425 00ce 56       		.byte	0x56
 3426 00cf 00       		.byte	0
 3427              	.LVUS13:
 3428 00d0 01       		.uleb128 .LVU79
 3429 00d1 01       		.uleb128 .LVU87
 3430 00d2 01       		.uleb128 .LVU96
 3431 00d3 01       		.uleb128 .LVU104
 3432              	.LLST13:
 3433 00d4 06       		.byte	0x6
 3434 00d5 21000000 		.long	.LVL14
 3435 00d9 04       		.byte	0x4
 3436 00da 00       		.uleb128 .LVL14-.LVL14
 3437 00db 08       		.uleb128 .LVL15-.LVL14
 3438 00dc 01       		.uleb128 0x1
 3439 00dd 57       		.byte	0x57
 3440 00de 04       		.byte	0x4
 3441 00df 27       		.uleb128 .LVL19-.LVL14
 3442 00e0 2F       		.uleb128 .LVL20-.LVL14
 3443 00e1 01       		.uleb128 0x1
 3444 00e2 57       		.byte	0x57
 3445 00e3 00       		.byte	0
 3446              	.LVUS14:
 3447 00e4 03       		.uleb128 .LVU81
 3448 00e5 01       		.uleb128 .LVU87
 3449 00e6 03       		.uleb128 .LVU98
GAS LISTING /tmp/cc2l5lB5.s 			page 62


 3450 00e7 01       		.uleb128 .LVU104
 3451              	.LLST14:
 3452 00e8 06       		.byte	0x6
 3453 00e9 21000000 		.long	.LVL14
 3454 00ed 04       		.byte	0x4
 3455 00ee 00       		.uleb128 .LVL14-.LVL14
 3456 00ef 08       		.uleb128 .LVL15-.LVL14
 3457 00f0 01       		.uleb128 0x1
 3458 00f1 50       		.byte	0x50
 3459 00f2 04       		.byte	0x4
 3460 00f3 27       		.uleb128 .LVL19-.LVL14
 3461 00f4 2F       		.uleb128 .LVL20-.LVL14
 3462 00f5 01       		.uleb128 0x1
 3463 00f6 50       		.byte	0x50
 3464 00f7 00       		.byte	0
 3465              	.LVUS0:
 3466 00f8 00       		.uleb128 0
 3467 00f9 00       		.uleb128 .LVU58
 3468 00fa 00       		.uleb128 .LVU58
 3469 00fb 00       		.uleb128 .LVU60
 3470 00fc 00       		.uleb128 .LVU60
 3471 00fd 00       		.uleb128 0
 3472              	.LLST0:
 3473 00fe 06       		.byte	0x6
 3474 00ff 00000000 		.long	.LVL0
 3475 0103 04       		.byte	0x4
 3476 0104 00       		.uleb128 .LVL0-.LVL0
 3477 0105 5E       		.uleb128 .LVL10-.LVL0
 3478 0106 02       		.uleb128 0x2
 3479 0107 91       		.byte	0x91
 3480 0108 00       		.sleb128 0
 3481 0109 04       		.byte	0x4
 3482 010a 5E       		.uleb128 .LVL10-.LVL0
 3483 010b 68       		.uleb128 .LVL11-1-.LVL0
 3484 010c 01       		.uleb128 0x1
 3485 010d 50       		.byte	0x50
 3486 010e 04       		.byte	0x4
 3487 010f 68       		.uleb128 .LVL11-1-.LVL0
 3488 0110 6E       		.uleb128 .LFE203-.LVL0
 3489 0111 02       		.uleb128 0x2
 3490 0112 91       		.byte	0x91
 3491 0113 00       		.sleb128 0
 3492 0114 00       		.byte	0
 3493              	.LVUS1:
 3494 0115 00       		.uleb128 0
 3495 0116 00       		.uleb128 .LVU44
 3496 0117 00       		.uleb128 .LVU44
 3497 0118 00       		.uleb128 .LVU58
 3498 0119 00       		.uleb128 .LVU58
 3499 011a 00       		.uleb128 0
 3500              	.LLST1:
 3501 011b 06       		.byte	0x6
 3502 011c 00000000 		.long	.LVL0
 3503 0120 04       		.byte	0x4
 3504 0121 00       		.uleb128 .LVL0-.LVL0
 3505 0122 54       		.uleb128 .LVL8-.LVL0
 3506 0123 02       		.uleb128 0x2
GAS LISTING /tmp/cc2l5lB5.s 			page 63


 3507 0124 91       		.byte	0x91
 3508 0125 04       		.sleb128 4
 3509 0126 04       		.byte	0x4
 3510 0127 54       		.uleb128 .LVL8-.LVL0
 3511 0128 5E       		.uleb128 .LVL10-.LVL0
 3512 0129 01       		.uleb128 0x1
 3513 012a 50       		.byte	0x50
 3514 012b 04       		.byte	0x4
 3515 012c 5E       		.uleb128 .LVL10-.LVL0
 3516 012d 6E       		.uleb128 .LFE203-.LVL0
 3517 012e 02       		.uleb128 0x2
 3518 012f 91       		.byte	0x91
 3519 0130 04       		.sleb128 4
 3520 0131 00       		.byte	0
 3521              	.LVUS2:
 3522 0132 00       		.uleb128 .LVU9
 3523 0133 00       		.uleb128 .LVU57
 3524 0134 00       		.uleb128 .LVU58
 3525 0135 00       		.uleb128 0
 3526              	.LLST2:
 3527 0136 06       		.byte	0x6
 3528 0137 21000000 		.long	.LVL1
 3529 013b 04       		.byte	0x4
 3530 013c 00       		.uleb128 .LVL1-.LVL1
 3531 013d 3B       		.uleb128 .LVL9-.LVL1
 3532 013e 01       		.uleb128 0x1
 3533 013f 56       		.byte	0x56
 3534 0140 04       		.byte	0x4
 3535 0141 3D       		.uleb128 .LVL10-.LVL1
 3536 0142 4D       		.uleb128 .LFE203-.LVL1
 3537 0143 01       		.uleb128 0x1
 3538 0144 56       		.byte	0x56
 3539 0145 00       		.byte	0
 3540              	.LVUS6:
 3541 0146 01       		.uleb128 .LVU25
 3542 0147 00       		.uleb128 .LVU37
 3543              	.LLST6:
 3544 0148 08       		.byte	0x8
 3545 0149 2E000000 		.long	.LVL2
 3546 014d 14       		.uleb128 .LVL6-.LVL2
 3547 014e 01       		.uleb128 0x1
 3548 014f 56       		.byte	0x56
 3549 0150 00       		.byte	0
 3550              	.LVUS7:
 3551 0151 01       		.uleb128 .LVU25
 3552 0152 00       		.uleb128 .LVU28
 3553 0153 00       		.uleb128 .LVU28
 3554 0154 00       		.uleb128 .LVU31
 3555 0155 00       		.uleb128 .LVU31
 3556 0156 00       		.uleb128 .LVU34
 3557 0157 00       		.uleb128 .LVU34
 3558 0158 00       		.uleb128 .LVU37
 3559              	.LLST7:
 3560 0159 06       		.byte	0x6
 3561 015a 2E000000 		.long	.LVL2
 3562 015e 04       		.byte	0x4
 3563 015f 00       		.uleb128 .LVL2-.LVL2
GAS LISTING /tmp/cc2l5lB5.s 			page 64


 3564 0160 03       		.uleb128 .LVL3-.LVL2
 3565 0161 06       		.uleb128 0x6
 3566 0162 91       		.byte	0x91
 3567 0163 00       		.sleb128 0
 3568 0164 06       		.byte	0x6
 3569 0165 23       		.byte	0x23
 3570 0166 3C       		.uleb128 0x3c
 3571 0167 9F       		.byte	0x9f
 3572 0168 04       		.byte	0x4
 3573 0169 03       		.uleb128 .LVL3-.LVL2
 3574 016a 08       		.uleb128 .LVL4-.LVL2
 3575 016b 01       		.uleb128 0x1
 3576 016c 52       		.byte	0x52
 3577 016d 04       		.byte	0x4
 3578 016e 08       		.uleb128 .LVL4-.LVL2
 3579 016f 0D       		.uleb128 .LVL5-.LVL2
 3580 0170 02       		.uleb128 0x2
 3581 0171 76       		.byte	0x76
 3582 0172 00       		.sleb128 0
 3583 0173 04       		.byte	0x4
 3584 0174 0D       		.uleb128 .LVL5-.LVL2
 3585 0175 14       		.uleb128 .LVL6-.LVL2
 3586 0176 06       		.uleb128 0x6
 3587 0177 91       		.byte	0x91
 3588 0178 00       		.sleb128 0
 3589 0179 06       		.byte	0x6
 3590 017a 23       		.byte	0x23
 3591 017b 3C       		.uleb128 0x3c
 3592 017c 9F       		.byte	0x9f
 3593 017d 00       		.byte	0
 3594              	.Ldebug_loc3:
 3595              		.section	.debug_aranges,"",@progbits
 3596 0000 3C000000 		.long	0x3c
 3597 0004 0200     		.value	0x2
 3598 0006 00000000 		.long	.Ldebug_info0
 3599 000a 04       		.byte	0x4
 3600 000b 00       		.byte	0
 3601 000c 0000     		.value	0
 3602 000e 0000     		.value	0
 3603 0010 00000000 		.long	.LFB203
 3604 0014 6E000000 		.long	.LFE203-.LFB203
 3605 0018 00000000 		.long	.LFB204
 3606 001c 58000000 		.long	.LFE204-.LFB204
 3607 0020 00000000 		.long	.LFB205
 3608 0024 5C000000 		.long	.LFE205-.LFB205
 3609 0028 00000000 		.long	.LFB206
 3610 002c 33000000 		.long	.LFE206-.LFB206
 3611 0030 00000000 		.long	.LFB207
 3612 0034 35000000 		.long	.LFE207-.LFB207
 3613 0038 00000000 		.long	0
 3614 003c 00000000 		.long	0
 3615              		.section	.debug_rnglists,"",@progbits
 3616              	.Ldebug_ranges0:
 3617 0000 AB000000 		.long	.Ldebug_ranges3-.Ldebug_ranges2
 3618              	.Ldebug_ranges2:
 3619 0004 0500     		.value	0x5
 3620 0006 04       		.byte	0x4
GAS LISTING /tmp/cc2l5lB5.s 			page 65


 3621 0007 00       		.byte	0
 3622 0008 00000000 		.long	0
 3623              	.LLRL3:
 3624 000c 05       		.byte	0x5
 3625 000d 00000000 		.long	.LBB46
 3626 0011 04       		.byte	0x4
 3627 0012 00       		.uleb128 .LBB46-.LBB46
 3628 0013 00       		.uleb128 .LBE46-.LBB46
 3629 0014 04       		.byte	0x4
 3630 0015 12       		.uleb128 .LBB50-.LBB46
 3631 0016 18       		.uleb128 .LBE50-.LBB46
 3632 0017 04       		.byte	0x4
 3633 0018 1E       		.uleb128 .LBB58-.LBB46
 3634 0019 21       		.uleb128 .LBE58-.LBB46
 3635 001a 00       		.byte	0
 3636              	.LLRL4:
 3637 001b 05       		.byte	0x5
 3638 001c 18000000 		.long	.LBB51
 3639 0020 04       		.byte	0x4
 3640 0021 00       		.uleb128 .LBB51-.LBB51
 3641 0022 06       		.uleb128 .LBE51-.LBB51
 3642 0023 04       		.byte	0x4
 3643 0024 09       		.uleb128 .LBB59-.LBB51
 3644 0025 09       		.uleb128 .LBE59-.LBB51
 3645 0026 04       		.byte	0x4
 3646 0027 0D       		.uleb128 .LBB60-.LBB51
 3647 0028 13       		.uleb128 .LBE60-.LBB51
 3648 0029 00       		.byte	0
 3649              	.LLRL5:
 3650 002a 05       		.byte	0x5
 3651 002b 2E000000 		.long	.LBB61
 3652 002f 04       		.byte	0x4
 3653 0030 00       		.uleb128 .LBB61-.LBB61
 3654 0031 00       		.uleb128 .LBE61-.LBB61
 3655 0032 04       		.byte	0x4
 3656 0033 05       		.uleb128 .LBB65-.LBB61
 3657 0034 0D       		.uleb128 .LBE65-.LBB61
 3658 0035 04       		.byte	0x4
 3659 0036 11       		.uleb128 .LBB66-.LBB61
 3660 0037 14       		.uleb128 .LBE66-.LBB61
 3661 0038 00       		.byte	0
 3662              	.LLRL10:
 3663 0039 05       		.byte	0x5
 3664 003a 00000000 		.long	.LBB71
 3665 003e 04       		.byte	0x4
 3666 003f 00       		.uleb128 .LBB71-.LBB71
 3667 0040 00       		.uleb128 .LBE71-.LBB71
 3668 0041 04       		.byte	0x4
 3669 0042 0E       		.uleb128 .LBB74-.LBB71
 3670 0043 17       		.uleb128 .LBE74-.LBB71
 3671 0044 00       		.byte	0
 3672              	.LLRL12:
 3673 0045 05       		.byte	0x5
 3674 0046 21000000 		.long	.LBB77
 3675 004a 04       		.byte	0x4
 3676 004b 00       		.uleb128 .LBB77-.LBB77
 3677 004c 08       		.uleb128 .LBE77-.LBB77
GAS LISTING /tmp/cc2l5lB5.s 			page 66


 3678 004d 04       		.byte	0x4
 3679 004e 21       		.uleb128 .LBB81-.LBB77
 3680 004f 27       		.uleb128 .LBE81-.LBB77
 3681 0050 04       		.byte	0x4
 3682 0051 27       		.uleb128 .LBB82-.LBB77
 3683 0052 2F       		.uleb128 .LBE82-.LBB77
 3684 0053 00       		.byte	0
 3685              	.LLRL16:
 3686 0054 05       		.byte	0x5
 3687 0055 00000000 		.long	.LBB83
 3688 0059 04       		.byte	0x4
 3689 005a 00       		.uleb128 .LBB83-.LBB83
 3690 005b 00       		.uleb128 .LBE83-.LBB83
 3691 005c 04       		.byte	0x4
 3692 005d 0E       		.uleb128 .LBB86-.LBB83
 3693 005e 17       		.uleb128 .LBE86-.LBB83
 3694 005f 00       		.byte	0
 3695              	.LLRL18:
 3696 0060 05       		.byte	0x5
 3697 0061 21000000 		.long	.LBB89
 3698 0065 04       		.byte	0x4
 3699 0066 00       		.uleb128 .LBB89-.LBB89
 3700 0067 08       		.uleb128 .LBE89-.LBB89
 3701 0068 04       		.byte	0x4
 3702 0069 2C       		.uleb128 .LBB92-.LBB89
 3703 006a 37       		.uleb128 .LBE92-.LBB89
 3704 006b 00       		.byte	0
 3705              	.LLRL24:
 3706 006c 05       		.byte	0x5
 3707 006d 1D000000 		.long	.LBB97
 3708 0071 04       		.byte	0x4
 3709 0072 00       		.uleb128 .LBB97-.LBB97
 3710 0073 00       		.uleb128 .LBE97-.LBB97
 3711 0074 04       		.byte	0x4
 3712 0075 01       		.uleb128 .LBB100-.LBB97
 3713 0076 09       		.uleb128 .LBE100-.LBB97
 3714 0077 00       		.byte	0
 3715              	.LLRL27:
 3716 0078 05       		.byte	0x5
 3717 0079 00000000 		.long	.LBB101
 3718 007d 04       		.byte	0x4
 3719 007e 00       		.uleb128 .LBB101-.LBB101
 3720 007f 00       		.uleb128 .LBE101-.LBB101
 3721 0080 04       		.byte	0x4
 3722 0081 18       		.uleb128 .LBB109-.LBB101
 3723 0082 24       		.uleb128 .LBE109-.LBB101
 3724 0083 00       		.byte	0
 3725              	.LLRL28:
 3726 0084 05       		.byte	0x5
 3727 0085 10000000 		.long	.LBB106
 3728 0089 04       		.byte	0x4
 3729 008a 00       		.uleb128 .LBB106-.LBB106
 3730 008b 08       		.uleb128 .LBE106-.LBB106
 3731 008c 04       		.byte	0x4
 3732 008d 14       		.uleb128 .LBB110-.LBB106
 3733 008e 19       		.uleb128 .LBE110-.LBB106
 3734 008f 00       		.byte	0
GAS LISTING /tmp/cc2l5lB5.s 			page 67


 3735              	.LLRL29:
 3736 0090 07       		.byte	0x7
 3737 0091 00000000 		.long	.LFB203
 3738 0095 6E       		.uleb128 .LFE203-.LFB203
 3739 0096 07       		.byte	0x7
 3740 0097 00000000 		.long	.LFB204
 3741 009b 58       		.uleb128 .LFE204-.LFB204
 3742 009c 07       		.byte	0x7
 3743 009d 00000000 		.long	.LFB205
 3744 00a1 5C       		.uleb128 .LFE205-.LFB205
 3745 00a2 07       		.byte	0x7
 3746 00a3 00000000 		.long	.LFB206
 3747 00a7 33       		.uleb128 .LFE206-.LFB206
 3748 00a8 07       		.byte	0x7
 3749 00a9 00000000 		.long	.LFB207
 3750 00ad 35       		.uleb128 .LFE207-.LFB207
 3751 00ae 00       		.byte	0
 3752              	.Ldebug_ranges3:
 3753              		.section	.debug_line,"",@progbits
 3754              	.Ldebug_line0:
 3755 0000 85040000 		.section	.debug_str,"MS",@progbits,1
 3755      05000400 
 3755      93000000 
 3755      010101FB 
 3755      0E0D0001 
 3756              	.LASF109:
 3757 0000 63737461 		.string	"cstack_base"
 3757      636B5F62 
 3757      61736500 
 3758              	.LASF101:
 3759 000c 77746D74 		.string	"wtmtxp"
 3759      787000
 3760              	.LASF40:
 3761 0013 64697370 		.string	"dispose"
 3761      6F736500 
 3762              	.LASF88:
 3763 001b 63685F72 		.string	"ch_registry"
 3763      65676973 
 3763      74727900 
 3764              	.LASF124:
 3765 0027 63684D73 		.string	"chMsgWaitS"
 3765      67576169 
 3765      745300
 3766              	.LASF36:
 3767 0032 666C6167 		.string	"flags"
 3767      7300
 3768              	.LASF65:
 3769 0038 73797374 		.string	"systime_t"
 3769      696D655F 
 3769      7400
 3770              	.LASF46:
 3771 0042 7265616C 		.string	"realprio"
 3771      7072696F 
 3771      00
 3772              	.LASF44:
 3773 004b 6570656E 		.string	"epending"
 3773      64696E67 
GAS LISTING /tmp/cc2l5lB5.s 			page 68


 3773      00
 3774              	.LASF2:
 3775 0054 756E7369 		.string	"unsigned int"
 3775      676E6564 
 3775      20696E74 
 3775      00
 3776              	.LASF69:
 3777 0061 6E657874 		.string	"next"
 3777      00
 3778              	.LASF6:
 3779 0066 5F466C6F 		.string	"_Float128"
 3779      61743132 
 3779      3800
 3780              	.LASF22:
 3781 0070 73797373 		.string	"syssts_t"
 3781      74735F74 
 3781      00
 3782              	.LASF53:
 3783 0079 636F7265 		.string	"core_id"
 3783      5F696400 
 3784              	.LASF13:
 3785 0081 5F5F696E 		.string	"__int32_t"
 3785      7433325F 
 3785      7400
 3786              	.LASF37:
 3787 008b 72656673 		.string	"refs"
 3787      00
 3788              	.LASF125:
 3789 0090 63684D73 		.string	"chMsgSend"
 3789      6753656E 
 3789      6400
 3790              	.LASF97:
 3791 009a 77746F62 		.string	"wtobjp"
 3791      6A7000
 3792              	.LASF131:
 3793 00a1 706F7274 		.string	"port_lock"
 3793      5F6C6F63 
 3793      6B00
 3794              	.LASF51:
 3795 00ab 76746C69 		.string	"vtlist"
 3795      737400
 3796              	.LASF81:
 3797 00b2 706F7274 		.string	"port_context"
 3797      5F636F6E 
 3797      74657874 
 3797      00
 3798              	.LASF105:
 3799 00bf 63685F72 		.string	"ch_ready_list"
 3799      65616479 
 3799      5F6C6973 
 3799      7400
 3800              	.LASF68:
 3801 00cd 63685F6C 		.string	"ch_list"
 3801      69737400 
 3802              	.LASF104:
 3803 00d5 63685F6D 		.string	"ch_mutex"
 3803      75746578 
GAS LISTING /tmp/cc2l5lB5.s 			page 69


 3803      00
 3804              	.LASF86:
 3805 00de 6C617374 		.string	"laststamp"
 3805      7374616D 
 3805      7000
 3806              	.LASF102:
 3807 00e8 65776D61 		.string	"ewmask"
 3807      736B00
 3808              	.LASF138:
 3809 00ef 63685F71 		.string	"ch_queue_insert"
 3809      75657565 
 3809      5F696E73 
 3809      65727400 
 3810              	.LASF72:
 3811 00ff 70726576 		.string	"prev"
 3811      00
 3812              	.LASF136:
 3813 0104 63684D73 		.string	"chMsgRelease"
 3813      6752656C 
 3813      65617365 
 3813      00
 3814              	.LASF119:
 3815 0111 63685363 		.string	"chSchReadyI"
 3815      68526561 
 3815      64794900 
 3816              	.LASF62:
 3817 011d 63685F73 		.string	"ch_system_debug"
 3817      79737465 
 3817      6D5F6465 
 3817      62756700 
 3818              	.LASF93:
 3819 012d 6C697374 		.string	"list"
 3819      00
 3820              	.LASF77:
 3821 0132 63685F64 		.string	"ch_delta_list"
 3821      656C7461 
 3821      5F6C6973 
 3821      7400
 3822              	.LASF20:
 3823 0140 75696E74 		.string	"uint32_t"
 3823      33325F74 
 3823      00
 3824              	.LASF99:
 3825 0149 73656E74 		.string	"sentmsg"
 3825      6D736700 
 3826              	.LASF28:
 3827 0151 6576656E 		.string	"eventmask_t"
 3827      746D6173 
 3827      6B5F7400 
 3828              	.LASF103:
 3829 015d 63685F73 		.string	"ch_semaphore"
 3829      656D6170 
 3829      686F7265 
 3829      00
 3830              	.LASF26:
 3831 016a 74707269 		.string	"tprio_t"
 3831      6F5F7400 
GAS LISTING /tmp/cc2l5lB5.s 			page 70


 3832              	.LASF121:
 3833 0172 63684D73 		.string	"chMsgPollS"
 3833      67506F6C 
 3833      6C5300
 3834              	.LASF113:
 3835 017d 6F735F69 		.string	"os_instance_config_t"
 3835      6E737461 
 3835      6E63655F 
 3835      636F6E66 
 3835      69675F74 
 3836              	.LASF16:
 3837 0192 6C6F6E67 		.string	"long long unsigned int"
 3837      206C6F6E 
 3837      6720756E 
 3837      7369676E 
 3837      65642069 
 3838              	.LASF94:
 3839 01a9 70717565 		.string	"pqueue"
 3839      756500
 3840              	.LASF29:
 3841 01b0 636E745F 		.string	"cnt_t"
 3841      7400
 3842              	.LASF135:
 3843 01b6 73746B6C 		.string	"stkline_t"
 3843      696E655F 
 3843      7400
 3844              	.LASF128:
 3845 01c0 63685379 		.string	"chSysUnlock"
 3845      73556E6C 
 3845      6F636B00 
 3846              	.LASF137:
 3847 01cc 63685468 		.string	"chThdGetSelfX"
 3847      64476574 
 3847      53656C66 
 3847      5800
 3848              	.LASF32:
 3849 01da 6F776E65 		.string	"owner"
 3849      7200
 3850              	.LASF45:
 3851 01e0 6D74786C 		.string	"mtxlist"
 3851      69737400 
 3852              	.LASF83:
 3853 01e8 63685F76 		.string	"ch_virtual_timers_list"
 3853      69727475 
 3853      616C5F74 
 3853      696D6572 
 3853      735F6C69 
 3854              	.LASF54:
 3855 01ff 72666375 		.string	"rfcu"
 3855      00
 3856              	.LASF31:
 3857 0204 74687265 		.string	"thread_t"
 3857      61645F74 
 3857      00
 3858              	.LASF95:
 3859 020d 7264796D 		.string	"rdymsg"
 3859      736700
GAS LISTING /tmp/cc2l5lB5.s 			page 71


 3860              	.LASF73:
 3861 0214 63685F70 		.string	"ch_priority_queue_t"
 3861      72696F72 
 3861      6974795F 
 3861      71756575 
 3861      655F7400 
 3862              	.LASF82:
 3863 0228 5F426F6F 		.string	"_Bool"
 3863      6C00
 3864              	.LASF114:
 3865 022e 706F7274 		.string	"port_irq_sts"
 3865      5F697271 
 3865      5F737473 
 3865      00
 3866              	.LASF41:
 3867 023b 6F626A65 		.string	"object"
 3867      637400
 3868              	.LASF59:
 3869 0242 63685F72 		.string	"ch_rfcu"
 3869      66637500 
 3870              	.LASF15:
 3871 024a 5F5F7569 		.string	"__uint64_t"
 3871      6E743634 
 3871      5F7400
 3872              	.LASF120:
 3873 0255 63757272 		.string	"currtp"
 3873      747000
 3874              	.LASF49:
 3875 025c 63685F6F 		.string	"ch_os_instance"
 3875      735F696E 
 3875      7374616E 
 3875      636500
 3876              	.LASF129:
 3877 026b 63685379 		.string	"chSysLock"
 3877      734C6F63 
 3877      6B00
 3878              	.LASF132:
 3879 0275 63684D73 		.string	"chMsgIsPendingI"
 3879      67497350 
 3879      656E6469 
 3879      6E674900 
 3880              	.LASF75:
 3881 0285 7072696F 		.string	"prio"
 3881      00
 3882              	.LASF133:
 3883 028a 63685F71 		.string	"ch_queue_fifo_remove"
 3883      75657565 
 3883      5F666966 
 3883      6F5F7265 
 3883      6D6F7665 
 3884              	.LASF17:
 3885 029f 63686172 		.string	"char"
 3885      00
 3886              	.LASF76:
 3887 02a4 63685F64 		.string	"ch_delta_list_t"
 3887      656C7461 
 3887      5F6C6973 
GAS LISTING /tmp/cc2l5lB5.s 			page 72


 3887      745F7400 
 3888              	.LASF58:
 3889 02b4 72666375 		.string	"rfcu_mask_t"
 3889      5F6D6173 
 3889      6B5F7400 
 3890              	.LASF91:
 3891 02c0 74687265 		.string	"thread_reference_t"
 3891      61645F72 
 3891      65666572 
 3891      656E6365 
 3891      5F7400
 3892              	.LASF33:
 3893 02d3 77616261 		.string	"wabase"
 3893      736500
 3894              	.LASF122:
 3895 02da 63684D73 		.string	"chMsgWaitTimeoutS"
 3895      67576169 
 3895      7454696D 
 3895      656F7574 
 3895      5300
 3896              	.LASF24:
 3897 02ec 74737461 		.string	"tstate_t"
 3897      74655F74 
 3897      00
 3898              	.LASF39:
 3899 02f5 72717565 		.string	"rqueue"
 3899      756500
 3900              	.LASF19:
 3901 02fc 75696E74 		.string	"uint8_t"
 3901      385F7400 
 3902              	.LASF43:
 3903 0304 6D736771 		.string	"msgqueue"
 3903      75657565 
 3903      00
 3904              	.LASF48:
 3905 030d 63685F74 		.string	"ch_thread"
 3905      68726561 
 3905      6400
 3906              	.LASF64:
 3907 0317 73797374 		.string	"system_debug_t"
 3907      656D5F64 
 3907      65627567 
 3907      5F7400
 3908              	.LASF4:
 3909 0326 6C6F6E67 		.string	"long long int"
 3909      206C6F6E 
 3909      6720696E 
 3909      7400
 3910              	.LASF27:
 3911 0334 6D73675F 		.string	"msg_t"
 3911      7400
 3912              	.LASF90:
 3913 033a 72656769 		.string	"registry_t"
 3913      73747279 
 3913      5F7400
 3914              	.LASF112:
 3915 0345 69646C65 		.string	"idlestack_end"
GAS LISTING /tmp/cc2l5lB5.s 			page 73


 3915      73746163 
 3915      6B5F656E 
 3915      6400
 3916              	.LASF60:
 3917 0353 6D61736B 		.string	"mask"
 3917      00
 3918              	.LASF92:
 3919 0358 74687265 		.string	"thread_dispose_t"
 3919      61645F64 
 3919      6973706F 
 3919      73655F74 
 3919      00
 3920              	.LASF66:
 3921 0369 73797369 		.string	"sysinterval_t"
 3921      6E746572 
 3921      76616C5F 
 3921      7400
 3922              	.LASF70:
 3923 0377 63685F71 		.string	"ch_queue_t"
 3923      75657565 
 3923      5F7400
 3924              	.LASF63:
 3925 0382 70616E69 		.string	"panic_msg"
 3925      635F6D73 
 3925      6700
 3926              	.LASF111:
 3927 038c 69646C65 		.string	"idlestack_base"
 3927      73746163 
 3927      6B5F6261 
 3927      736500
 3928              	.LASF23:
 3929 039b 746D6F64 		.string	"tmode_t"
 3929      655F7400 
 3930              	.LASF85:
 3931 03a3 73797374 		.string	"systime"
 3931      696D6500 
 3932              	.LASF56:
 3933 03ab 69646C65 		.string	"idlethread"
 3933      74687265 
 3933      616400
 3934              	.LASF5:
 3935 03b6 6C6F6E67 		.string	"long double"
 3935      20646F75 
 3935      626C6500 
 3936              	.LASF67:
 3937 03c2 63685F6C 		.string	"ch_list_t"
 3937      6973745F 
 3937      7400
 3938              	.LASF55:
 3939 03cc 636F6E66 		.string	"config"
 3939      696700
 3940              	.LASF11:
 3941 03d3 73686F72 		.string	"short int"
 3941      7420696E 
 3941      7400
 3942              	.LASF3:
 3943 03dd 6C6F6E67 		.string	"long int"
GAS LISTING /tmp/cc2l5lB5.s 			page 74


 3943      20696E74 
 3943      00
 3944              	.LASF80:
 3945 03e6 706F7274 		.string	"port_intctx"
 3945      5F696E74 
 3945      63747800 
 3946              	.LASF134:
 3947 03f2 474E5520 		.string	"GNU C17 11.4.0 -m32 -mtune=generic -march=i686 -ggdb -O2 -ffunction-sections -fdata-secti
 3947      43313720 
 3947      31312E34 
 3947      2E30202D 
 3947      6D333220 
 3948              	.LASF34:
 3949 04aa 7761656E 		.string	"waend"
 3949      6400
 3950              	.LASF110:
 3951 04b0 63737461 		.string	"cstack_end"
 3951      636B5F65 
 3951      6E6400
 3952              	.LASF108:
 3953 04bb 63685F6F 		.string	"ch_os_instance_config"
 3953      735F696E 
 3953      7374616E 
 3953      63655F63 
 3953      6F6E6669 
 3954              	.LASF84:
 3955 04d1 646C6973 		.string	"dlist"
 3955      7400
 3956              	.LASF21:
 3957 04d7 75696E74 		.string	"uint64_t"
 3957      36345F74 
 3957      00
 3958              	.LASF50:
 3959 04e0 726C6973 		.string	"rlist"
 3959      7400
 3960              	.LASF12:
 3961 04e6 5F5F7569 		.string	"__uint8_t"
 3961      6E74385F 
 3961      7400
 3962              	.LASF38:
 3963 04f0 6E616D65 		.string	"name"
 3963      00
 3964              	.LASF117:
 3965 04f5 63685363 		.string	"chSchGoSleepS"
 3965      68476F53 
 3965      6C656570 
 3965      5300
 3966              	.LASF25:
 3967 0503 74726566 		.string	"trefs_t"
 3967      735F7400 
 3968              	.LASF9:
 3969 050b 6C6F6E67 		.string	"long unsigned int"
 3969      20756E73 
 3969      69676E65 
 3969      6420696E 
 3969      7400
 3970              	.LASF107:
GAS LISTING /tmp/cc2l5lB5.s 			page 75


 3971 051d 72656164 		.string	"ready_list_t"
 3971      795F6C69 
 3971      73745F74 
 3971      00
 3972              	.LASF118:
 3973 052a 63685363 		.string	"chSchGoSleepTimeoutS"
 3973      68476F53 
 3973      6C656570 
 3973      54696D65 
 3973      6F757453 
 3974              	.LASF89:
 3975 053f 71756575 		.string	"queue"
 3975      6500
 3976              	.LASF18:
 3977 0545 696E7433 		.string	"int32_t"
 3977      325F7400 
 3978              	.LASF61:
 3979 054d 72666375 		.string	"rfcu_t"
 3979      5F7400
 3980              	.LASF100:
 3981 0554 77747365 		.string	"wtsemp"
 3981      6D7000
 3982              	.LASF74:
 3983 055b 63685F70 		.string	"ch_priority_queue"
 3983      72696F72 
 3983      6974795F 
 3983      71756575 
 3983      6500
 3984              	.LASF71:
 3985 056d 63685F71 		.string	"ch_queue"
 3985      75657565 
 3985      00
 3986              	.LASF115:
 3987 0576 6D757465 		.string	"mutex_t"
 3987      785F7400 
 3988              	.LASF7:
 3989 057e 756E7369 		.string	"unsigned char"
 3989      676E6564 
 3989      20636861 
 3989      7200
 3990              	.LASF14:
 3991 058c 5F5F7569 		.string	"__uint32_t"
 3991      6E743332 
 3991      5F7400
 3992              	.LASF42:
 3993 0597 77616974 		.string	"waiting"
 3993      696E6700 
 3994              	.LASF87:
 3995 059f 76697274 		.string	"virtual_timers_list_t"
 3995      75616C5F 
 3995      74696D65 
 3995      72735F6C 
 3995      6973745F 
 3996              	.LASF127:
 3997 05b5 63684D73 		.string	"chMsgReleaseS"
 3997      6752656C 
 3997      65617365 
GAS LISTING /tmp/cc2l5lB5.s 			page 76


 3997      5300
 3998              	.LASF123:
 3999 05c3 74696D65 		.string	"timeout"
 3999      6F757400 
 4000              	.LASF116:
 4001 05cb 63685363 		.string	"chSchWakeupS"
 4001      6857616B 
 4001      65757053 
 4001      00
 4002              	.LASF57:
 4003 05d8 6D61696E 		.string	"mainthread"
 4003      74687265 
 4003      616400
 4004              	.LASF35:
 4005 05e3 73746174 		.string	"state"
 4005      6500
 4006              	.LASF47:
 4007 05e9 6F735F69 		.string	"os_instance_t"
 4007      6E737461 
 4007      6E63655F 
 4007      7400
 4008              	.LASF79:
 4009 05f7 72656778 		.string	"regx86"
 4009      383600
 4010              	.LASF52:
 4011 05fe 7265676C 		.string	"reglist"
 4011      69737400 
 4012              	.LASF98:
 4013 0606 77747472 		.string	"wttrp"
 4013      7000
 4014              	.LASF10:
 4015 060c 7369676E 		.string	"signed char"
 4015      65642063 
 4015      68617200 
 4016              	.LASF78:
 4017 0618 64656C74 		.string	"delta"
 4017      6100
 4018              	.LASF8:
 4019 061e 73686F72 		.string	"short unsigned int"
 4019      7420756E 
 4019      7369676E 
 4019      65642069 
 4019      6E7400
 4020              	.LASF106:
 4021 0631 63757272 		.string	"current"
 4021      656E7400 
 4022              	.LASF126:
 4023 0639 5F5F6675 		.string	"__func__"
 4023      6E635F5F 
 4023      00
 4024              	.LASF130:
 4025 0642 706F7274 		.string	"port_unlock"
 4025      5F756E6C 
 4025      6F636B00 
 4026              	.LASF96:
 4027 064e 65786974 		.string	"exitcode"
 4027      636F6465 
GAS LISTING /tmp/cc2l5lB5.s 			page 77


 4027      00
 4028              	.LASF30:
 4029 0657 636F7265 		.string	"core_id_t"
 4029      5F69645F 
 4029      7400
 4030              		.section	.debug_line_str,"MS",@progbits,1
 4031              	.LASF1:
 4032 0000 2F686F6D 		.string	"/home/alex/ChibiOS/demos/various/LAB2"
 4032      652F616C 
 4032      65782F43 
 4032      68696269 
 4032      4F532F64 
 4033              	.LASF0:
 4034 0026 2E2E2F2E 		.string	"../../../os/rt/src/chmsg.c"
 4034      2E2F2E2E 
 4034      2F6F732F 
 4034      72742F73 
 4034      72632F63 
 4035              		.ident	"GCC: (Ubuntu 11.4.0-1ubuntu1~22.04) 11.4.0"
 4036 0041 2F686F6D 		.section	.note.GNU-stack,"",@progbits
 4036      652F616C 
 4036      65782F43 
 4036      68696269 
 4036      4F532F64 
GAS LISTING /tmp/cc2l5lB5.s 			page 78


DEFINED SYMBOLS
                            *ABS*:0000000000000000 chmsg.c
     /tmp/cc2l5lB5.s:9      .text.chMsgSend:0000000000000000 chMsgSend
     /tmp/cc2l5lB5.s:710    .text.__x86.get_pc_thunk.bx:0000000000000000 __x86.get_pc_thunk.bx
     /tmp/cc2l5lB5.s:212    .text.chMsgWaitS:0000000000000000 chMsgWaitS
     /tmp/cc2l5lB5.s:369    .text.chMsgWaitTimeoutS:0000000000000000 chMsgWaitTimeoutS
     /tmp/cc2l5lB5.s:507    .text.chMsgPollS:0000000000000000 chMsgPollS
     /tmp/cc2l5lB5.s:699    .text.__x86.get_pc_thunk.ax:0000000000000000 __x86.get_pc_thunk.ax
     /tmp/cc2l5lB5.s:597    .text.chMsgRelease:0000000000000000 chMsgRelease

UNDEFINED SYMBOLS
_GLOBAL_OFFSET_TABLE_
ch0
port_irq_sts
chSchGoSleepS
chSchReadyI
chSchGoSleepTimeoutS
chSchWakeupS
