GAS LISTING /tmp/ccEIekbo.s 			page 1


   1              		.file	"chprintf.c"
   2              		.text
   3              	.Ltext0:
   4              		.file 0 "/home/alex/ChibiOS/demos/various/LAB3" "../../../os/hal/lib/streams/chprintf.c"
   5              		.section	.rodata.chvprintf.str1.1,"aMS",@progbits,1
   6              	.LC0:
   7 0000 286E756C 		.string	"(null)"
   7      6C2900
   8              		.section	.text.chvprintf,"ax",@progbits
   9              		.p2align 4
  10              		.globl	chvprintf
  11              		.type	chvprintf, @function
  12              	chvprintf:
  13              	.LVL0:
  14              	.LFB301:
  15              		.file 1 "../../../os/hal/lib/streams/chprintf.c"
  16              		.loc 1 124 71 view -0
  17              		.cfi_startproc
  18              		.loc 1 124 71 is_stmt 0 view .LVU1
  19 0000 E8FCFFFF 		call	__x86.get_pc_thunk.ax
  19      FF
  20 0005 05010000 		addl	$_GLOBAL_OFFSET_TABLE_, %eax
  20      00
  21 000a 55       		pushl	%ebp
  22              		.cfi_def_cfa_offset 8
  23              		.cfi_offset 5, -8
  24 000b 57       		pushl	%edi
  25              		.cfi_def_cfa_offset 12
  26              		.cfi_offset 7, -12
  27 000c 56       		pushl	%esi
  28              		.cfi_def_cfa_offset 16
  29              		.cfi_offset 6, -16
  30 000d 53       		pushl	%ebx
  31              		.cfi_def_cfa_offset 20
  32              		.cfi_offset 3, -20
  33 000e 83EC4C   		subl	$76, %esp
  34              		.cfi_def_cfa_offset 96
  35              		.loc 1 124 71 view .LVU2
  36 0011 8B4C2464 		movl	100(%esp), %ecx
  37 0015 8B7C2460 		movl	96(%esp), %edi
  38 0019 89442428 		movl	%eax, 40(%esp)
  39 001d 8B442468 		movl	104(%esp), %eax
  40 0021 894C2408 		movl	%ecx, 8(%esp)
  41 0025 8944241C 		movl	%eax, 28(%esp)
  42 0029 65A11400 		movl	%gs:20, %eax
  42      0000
  43 002f 8944243C 		movl	%eax, 60(%esp)
  44 0033 31C0     		xorl	%eax, %eax
  45              		.loc 1 125 3 is_stmt 1 view .LVU3
  46              		.loc 1 126 3 view .LVU4
  47              		.loc 1 127 3 view .LVU5
  48              	.LVL1:
  49              		.loc 1 128 3 view .LVU6
  50              		.loc 1 129 3 view .LVU7
  51              		.loc 1 134 3 view .LVU8
  52              		.loc 1 137 3 view .LVU9
  53              		.loc 1 138 5 view .LVU10
GAS LISTING /tmp/ccEIekbo.s 			page 2


  54              		.loc 1 138 7 is_stmt 0 view .LVU11
  55 0035 0FB601   		movzbl	(%ecx), %eax
  56              	.LVL2:
  57              		.loc 1 139 5 is_stmt 1 view .LVU12
  58              		.loc 1 139 8 is_stmt 0 view .LVU13
  59 0038 84C0     		testb	%al, %al
  60 003a 0F849201 		je	.L64
  60      0000
  61              		.loc 1 127 7 view .LVU14
  62 0040 C744240C 		movl	$0, 12(%esp)
  62      00000000 
  63 0048 8D7101   		leal	1(%ecx), %esi
  64              	.LVL3:
  65              		.loc 1 127 7 view .LVU15
  66 004b EB2B     		jmp	.L3
  67              	.LVL4:
  68 004d 8D7600   		.p2align 4,,10
  69              		.p2align 3
  70              	.L124:
  71              		.loc 1 144 7 is_stmt 1 discriminator 1 view .LVU16
  72 0050 83EC08   		subl	$8, %esp
  73              		.cfi_def_cfa_offset 104
  74 0053 8B17     		movl	(%edi), %edx
  75 0055 50       		pushl	%eax
  76              		.cfi_def_cfa_offset 108
  77 0056 57       		pushl	%edi
  78              		.cfi_def_cfa_offset 112
  79 0057 FF520C   		call	*12(%edx)
  80              	.LVL5:
  81              		.loc 1 145 7 discriminator 1 view .LVU17
  82              		.loc 1 146 7 discriminator 1 view .LVU18
  83              		.loc 1 145 8 is_stmt 0 discriminator 1 view .LVU19
  84 005a 8344241C 		addl	$1, 28(%esp)
  84      01
  85              	.LVL6:
  86              		.loc 1 146 7 discriminator 1 view .LVU20
  87 005f 83C410   		addl	$16, %esp
  88              		.cfi_def_cfa_offset 96
  89 0062 89742408 		movl	%esi, 8(%esp)
  90              	.LVL7:
  91              	.L5:
  92              		.loc 1 128 3 is_stmt 1 view .LVU21
  93              		.loc 1 129 3 view .LVU22
  94              		.loc 1 134 3 view .LVU23
  95              		.loc 1 137 3 view .LVU24
  96              		.loc 1 138 5 view .LVU25
  97              		.loc 1 138 13 is_stmt 0 view .LVU26
  98 0066 8B442408 		movl	8(%esp), %eax
  99 006a 8D7001   		leal	1(%eax), %esi
 100              	.LVL8:
 101              		.loc 1 138 7 view .LVU27
 102 006d 0FB600   		movzbl	(%eax), %eax
 103              	.LVL9:
 104              		.loc 1 139 5 is_stmt 1 view .LVU28
 105              		.loc 1 139 8 is_stmt 0 view .LVU29
 106 0070 84C0     		testb	%al, %al
 107 0072 0F846801 		je	.L1
GAS LISTING /tmp/ccEIekbo.s 			page 3


 107      0000
 108              	.LVL10:
 109              	.L3:
 110              		.loc 1 143 5 is_stmt 1 view .LVU30
 111              		.loc 1 143 8 is_stmt 0 view .LVU31
 112 0078 3C25     		cmpb	$37, %al
 113 007a 75D4     		jne	.L124
 114              		.loc 1 149 5 is_stmt 1 view .LVU32
 115              	.LVL11:
 116              		.loc 1 150 5 view .LVU33
 117              		.loc 1 153 5 view .LVU34
 118              		.loc 1 154 5 view .LVU35
 119              		.loc 1 154 8 is_stmt 0 view .LVU36
 120 007c 8B442408 		movl	8(%esp), %eax
 121              	.LVL12:
 122              		.loc 1 153 16 view .LVU37
 123 0080 C6442418 		movb	$0, 24(%esp)
 123      00
 124              		.loc 1 154 8 view .LVU38
 125 0085 8078012D 		cmpb	$45, 1(%eax)
 126 0089 750A     		jne	.L6
 127              		.loc 1 155 7 is_stmt 1 view .LVU39
 128              		.loc 1 156 18 is_stmt 0 view .LVU40
 129 008b C6442418 		movb	$1, 24(%esp)
 129      01
 130              		.loc 1 155 10 view .LVU41
 131 0090 89C6     		movl	%eax, %esi
 132              	.LVL13:
 133              		.loc 1 155 10 view .LVU42
 134 0092 83C602   		addl	$2, %esi
 135              	.LVL14:
 136              		.loc 1 156 7 is_stmt 1 view .LVU43
 137              	.L6:
 138              		.loc 1 160 5 view .LVU44
 139              		.loc 1 161 5 view .LVU45
 140              		.loc 1 161 9 is_stmt 0 view .LVU46
 141 0095 0FB606   		movzbl	(%esi), %eax
 142              		.loc 1 160 13 view .LVU47
 143 0098 C6442410 		movb	$0, 16(%esp)
 143      00
 144              		.loc 1 161 8 view .LVU48
 145 009d 3C2B     		cmpb	$43, %al
 146 009f 750C     		jne	.L7
 147              		.loc 1 162 7 is_stmt 1 view .LVU49
 148              	.LVL15:
 149              		.loc 1 163 7 view .LVU50
 150              		.loc 1 163 15 is_stmt 0 view .LVU51
 151 00a1 C6442410 		movb	$1, 16(%esp)
 151      01
 152              		.loc 1 168 9 view .LVU52
 153 00a6 0FB64601 		movzbl	1(%esi), %eax
 154              		.loc 1 162 10 view .LVU53
 155 00aa 83C601   		addl	$1, %esi
 156              	.LVL16:
 157              	.L7:
 158              		.loc 1 167 5 is_stmt 1 view .LVU54
 159              		.loc 1 168 5 view .LVU55
GAS LISTING /tmp/ccEIekbo.s 			page 4


 160              		.loc 1 167 12 is_stmt 0 view .LVU56
 161 00ad C6442417 		movb	$32, 23(%esp)
 161      20
 162              		.loc 1 168 8 view .LVU57
 163 00b2 3C30     		cmpb	$48, %al
 164 00b4 750C     		jne	.L8
 165              		.loc 1 169 7 is_stmt 1 view .LVU58
 166              	.LVL17:
 167              		.loc 1 170 7 view .LVU59
 168              		.loc 1 170 14 is_stmt 0 view .LVU60
 169 00b6 C6442417 		movb	$48, 23(%esp)
 169      30
 170              		.loc 1 174 10 view .LVU61
 171 00bb 0FB64601 		movzbl	1(%esi), %eax
 172              		.loc 1 169 10 view .LVU62
 173 00bf 83C601   		addl	$1, %esi
 174              	.LVL18:
 175              	.L8:
 176              		.loc 1 174 5 is_stmt 1 view .LVU63
 177              		.loc 1 174 8 is_stmt 0 view .LVU64
 178 00c2 3C2A     		cmpb	$42, %al
 179 00c4 756A     		jne	.L9
 180              		.loc 1 175 7 is_stmt 1 view .LVU65
 181              		.loc 1 175 13 is_stmt 0 view .LVU66
 182 00c6 8B44241C 		movl	28(%esp), %eax
 183              		.loc 1 197 15 view .LVU67
 184 00ca 31C9     		xorl	%ecx, %ecx
 185              		.loc 1 175 13 view .LVU68
 186 00cc 8D6804   		leal	4(%eax), %ebp
 187              	.LVL19:
 188              		.loc 1 175 13 view .LVU69
 189 00cf 8B00     		movl	(%eax), %eax
 190 00d1 89442420 		movl	%eax, 32(%esp)
 191              		.loc 1 176 7 is_stmt 1 view .LVU70
 192              	.LVL20:
 193              		.loc 1 177 7 view .LVU71
 194              		.loc 1 177 15 is_stmt 0 view .LVU72
 195 00d5 8D4602   		leal	2(%esi), %eax
 196 00d8 89442408 		movl	%eax, 8(%esp)
 197              	.LVL21:
 198              		.loc 1 177 9 view .LVU73
 199 00dc 0FB64601 		movzbl	1(%esi), %eax
 200              	.LVL22:
 201              		.loc 1 197 5 is_stmt 1 view .LVU74
 202              		.loc 1 198 5 view .LVU75
 203              		.loc 1 198 8 is_stmt 0 view .LVU76
 204 00e0 3C2E     		cmpb	$46, %al
 205 00e2 0F849000 		je	.L125
 205      0000
 206              	.LVL23:
 207              	.L12:
 208              		.loc 1 220 5 is_stmt 1 view .LVU77
 209              		.loc 1 220 23 is_stmt 0 view .LVU78
 210 00e8 89C2     		movl	%eax, %edx
 211 00ea 83E2DF   		andl	$-33, %edx
 212              		.loc 1 220 8 view .LVU79
 213 00ed 80FA4C   		cmpb	$76, %dl
GAS LISTING /tmp/ccEIekbo.s 			page 5


 214 00f0 0F85BB00 		jne	.L16
 214      0000
 215              	.L127:
 216              		.loc 1 221 7 is_stmt 1 view .LVU80
 217              	.LVL24:
 218              		.loc 1 222 7 view .LVU81
 219              		.loc 1 222 9 is_stmt 0 view .LVU82
 220 00f6 8B442408 		movl	8(%esp), %eax
 221              	.LVL25:
 222              		.loc 1 222 9 view .LVU83
 223 00fa 0FB600   		movzbl	(%eax), %eax
 224              	.LVL26:
 225              		.loc 1 223 7 is_stmt 1 view .LVU84
 226              		.loc 1 223 10 is_stmt 0 view .LVU85
 227 00fd 84C0     		testb	%al, %al
 228 00ff 0F84DB00 		je	.L1
 228      0000
 229              	.LVL27:
 230              		.loc 1 232 5 is_stmt 1 view .LVU86
 231 0105 8D50BC   		leal	-68(%eax), %edx
 232              		.loc 1 222 15 is_stmt 0 view .LVU87
 233 0108 83442408 		addl	$1, 8(%esp)
 233      01
 234              	.LVL28:
 235              		.loc 1 232 5 view .LVU88
 236 010d 80FA34   		cmpb	$52, %dl
 237 0110 0F871A01 		ja	.L18
 237      0000
 238 0116 8B5C2428 		movl	40(%esp), %ebx
 239 011a 0FB6D2   		movzbl	%dl, %edx
 240 011d 8BB49300 		movl	.L58@GOTOFF(%ebx,%edx,4), %esi
 240      000000
 241 0124 01DE     		addl	%ebx, %esi
 242 0126 FFE6     		jmp	*%esi
 243              		.section	.rodata.chvprintf,"a",@progbits
 244              		.align 4
 245              		.align 4
 246              	.L58:
 247 0000 00000000 		.long	.L89@GOTOFF
 248 0004 00000000 		.long	.L18@GOTOFF
 249 0008 00000000 		.long	.L18@GOTOFF
 250 000c 00000000 		.long	.L18@GOTOFF
 251 0010 00000000 		.long	.L18@GOTOFF
 252 0014 00000000 		.long	.L89@GOTOFF
 253 0018 00000000 		.long	.L18@GOTOFF
 254 001c 00000000 		.long	.L18@GOTOFF
 255 0020 00000000 		.long	.L18@GOTOFF
 256 0024 00000000 		.long	.L18@GOTOFF
 257 0028 00000000 		.long	.L18@GOTOFF
 258 002c 00000000 		.long	.L60@GOTOFF
 259 0030 00000000 		.long	.L74@GOTOFF
 260 0034 00000000 		.long	.L18@GOTOFF
 261 0038 00000000 		.long	.L18@GOTOFF
 262 003c 00000000 		.long	.L18@GOTOFF
 263 0040 00000000 		.long	.L18@GOTOFF
 264 0044 00000000 		.long	.L59@GOTOFF
 265 0048 00000000 		.long	.L18@GOTOFF
GAS LISTING /tmp/ccEIekbo.s 			page 6


 266 004c 00000000 		.long	.L18@GOTOFF
 267 0050 00000000 		.long	.L74@GOTOFF
 268 0054 00000000 		.long	.L18@GOTOFF
 269 0058 00000000 		.long	.L18@GOTOFF
 270 005c 00000000 		.long	.L18@GOTOFF
 271 0060 00000000 		.long	.L18@GOTOFF
 272 0064 00000000 		.long	.L18@GOTOFF
 273 0068 00000000 		.long	.L18@GOTOFF
 274 006c 00000000 		.long	.L18@GOTOFF
 275 0070 00000000 		.long	.L18@GOTOFF
 276 0074 00000000 		.long	.L18@GOTOFF
 277 0078 00000000 		.long	.L18@GOTOFF
 278 007c 00000000 		.long	.L25@GOTOFF
 279 0080 00000000 		.long	.L89@GOTOFF
 280 0084 00000000 		.long	.L18@GOTOFF
 281 0088 00000000 		.long	.L18@GOTOFF
 282 008c 00000000 		.long	.L18@GOTOFF
 283 0090 00000000 		.long	.L18@GOTOFF
 284 0094 00000000 		.long	.L89@GOTOFF
 285 0098 00000000 		.long	.L18@GOTOFF
 286 009c 00000000 		.long	.L18@GOTOFF
 287 00a0 00000000 		.long	.L18@GOTOFF
 288 00a4 00000000 		.long	.L18@GOTOFF
 289 00a8 00000000 		.long	.L18@GOTOFF
 290 00ac 00000000 		.long	.L60@GOTOFF
 291 00b0 00000000 		.long	.L74@GOTOFF
 292 00b4 00000000 		.long	.L18@GOTOFF
 293 00b8 00000000 		.long	.L18@GOTOFF
 294 00bc 00000000 		.long	.L22@GOTOFF
 295 00c0 00000000 		.long	.L18@GOTOFF
 296 00c4 00000000 		.long	.L59@GOTOFF
 297 00c8 00000000 		.long	.L18@GOTOFF
 298 00cc 00000000 		.long	.L18@GOTOFF
 299 00d0 00000000 		.long	.L74@GOTOFF
 300              		.section	.text.chvprintf
 301              	.LVL29:
 302 0128 8DB42600 		.p2align 4,,10
 302      00000090 
 303              		.p2align 3
 304              	.L9:
 305              		.loc 1 181 7 is_stmt 1 view .LVU89
 306              		.loc 1 182 9 view .LVU90
 307              		.loc 1 182 17 is_stmt 0 view .LVU91
 308 0130 83C601   		addl	$1, %esi
 309              	.LVL30:
 310              		.loc 1 183 9 is_stmt 1 view .LVU92
 311              		.loc 1 183 12 is_stmt 0 view .LVU93
 312 0133 84C0     		testb	%al, %al
 313 0135 0F84A500 		je	.L1
 313      0000
 314              		.loc 1 180 13 view .LVU94
 315 013b 31C9     		xorl	%ecx, %ecx
 316 013d EB16     		jmp	.L11
 317              	.LVL31:
 318 013f 90       		.p2align 4,,10
 319              		.p2align 3
 320              	.L126:
GAS LISTING /tmp/ccEIekbo.s 			page 7


 321              		.loc 1 187 11 is_stmt 1 view .LVU95
 322              		.loc 1 188 11 view .LVU96
 323              		.loc 1 188 25 is_stmt 0 view .LVU97
 324 0140 8D0489   		leal	(%ecx,%ecx,4), %eax
 325              		.loc 1 188 30 view .LVU98
 326 0143 0FB6D2   		movzbl	%dl, %edx
 327              	.LVL32:
 328              		.loc 1 188 17 view .LVU99
 329 0146 8D0C42   		leal	(%edx,%eax,2), %ecx
 330              	.LVL33:
 331              		.loc 1 181 13 is_stmt 1 view .LVU100
 332              		.loc 1 181 7 view .LVU101
 333              		.loc 1 182 9 view .LVU102
 334              		.loc 1 182 11 is_stmt 0 view .LVU103
 335 0149 0FB646FF 		movzbl	-1(%esi), %eax
 336              	.LVL34:
 337              		.loc 1 183 9 is_stmt 1 view .LVU104
 338              		.loc 1 183 12 is_stmt 0 view .LVU105
 339 014d 84C0     		testb	%al, %al
 340 014f 0F848B00 		je	.L1
 340      0000
 341              	.LVL35:
 342              	.L11:
 343              		.loc 1 186 9 is_stmt 1 view .LVU106
 344              		.loc 1 186 22 is_stmt 0 view .LVU107
 345 0155 8D50D0   		leal	-48(%eax), %edx
 346 0158 89F3     		movl	%esi, %ebx
 347              		.loc 1 182 17 view .LVU108
 348 015a 83C601   		addl	$1, %esi
 349              	.LVL36:
 350              		.loc 1 186 12 view .LVU109
 351 015d 80FA09   		cmpb	$9, %dl
 352 0160 76DE     		jbe	.L126
 353 0162 894C2420 		movl	%ecx, 32(%esp)
 354 0166 8B6C241C 		movl	28(%esp), %ebp
 355              	.LVL37:
 356              		.loc 1 197 5 is_stmt 1 view .LVU110
 357              		.loc 1 198 5 view .LVU111
 358              		.loc 1 197 15 is_stmt 0 view .LVU112
 359 016a 31C9     		xorl	%ecx, %ecx
 360 016c 895C2408 		movl	%ebx, 8(%esp)
 361              		.loc 1 198 8 view .LVU113
 362 0170 3C2E     		cmpb	$46, %al
 363 0172 0F8570FF 		jne	.L12
 363      FFFF
 364              	.LVL38:
 365              	.L125:
 366              		.loc 1 199 7 is_stmt 1 view .LVU114
 367              		.loc 1 199 9 is_stmt 0 view .LVU115
 368 0178 8B5C2408 		movl	8(%esp), %ebx
 369 017c 0FB603   		movzbl	(%ebx), %eax
 370              	.LVL39:
 371              		.loc 1 200 7 is_stmt 1 view .LVU116
 372              		.loc 1 200 10 is_stmt 0 view .LVU117
 373 017f 84C0     		testb	%al, %al
 374 0181 745D     		je	.L1
 375              		.loc 1 203 7 is_stmt 1 view .LVU118
GAS LISTING /tmp/ccEIekbo.s 			page 8


 376              		.loc 1 199 15 is_stmt 0 view .LVU119
 377 0183 83C301   		addl	$1, %ebx
 378              		.loc 1 203 10 view .LVU120
 379 0186 3C2A     		cmpb	$42, %al
 380 0188 0F858300 		jne	.L14
 380      0000
 381              		.loc 1 204 9 is_stmt 1 view .LVU121
 382              	.LVL40:
 383              		.loc 1 205 11 is_stmt 0 view .LVU122
 384 018e 8B5C2408 		movl	8(%esp), %ebx
 385              		.loc 1 204 19 view .LVU123
 386 0192 8B4D00   		movl	0(%ebp), %ecx
 387              	.LVL41:
 388              		.loc 1 205 9 is_stmt 1 view .LVU124
 389              		.loc 1 204 19 is_stmt 0 view .LVU125
 390 0195 83C504   		addl	$4, %ebp
 391              	.LVL42:
 392              		.loc 1 205 11 view .LVU126
 393 0198 0FB64301 		movzbl	1(%ebx), %eax
 394              	.LVL43:
 395              		.loc 1 205 17 view .LVU127
 396 019c 83C302   		addl	$2, %ebx
 397              	.LVL44:
 398              		.loc 1 205 17 view .LVU128
 399 019f 895C2408 		movl	%ebx, 8(%esp)
 400              	.LVL45:
 401              		.loc 1 220 5 is_stmt 1 view .LVU129
 402              		.loc 1 220 23 is_stmt 0 view .LVU130
 403 01a3 89C2     		movl	%eax, %edx
 404 01a5 83E2DF   		andl	$-33, %edx
 405              		.loc 1 220 8 view .LVU131
 406 01a8 80FA4C   		cmpb	$76, %dl
 407 01ab 0F8445FF 		je	.L127
 407      FFFF
 408              	.LVL46:
 409              	.L16:
 410              		.loc 1 228 7 is_stmt 1 view .LVU132
 411              		.loc 1 228 28 is_stmt 0 view .LVU133
 412 01b1 8D58BF   		leal	-65(%eax), %ebx
 413 01b4 885C2424 		movb	%bl, 36(%esp)
 414              	.LVL47:
 415              		.loc 1 232 5 is_stmt 1 view .LVU134
 416 01b8 8D58BC   		leal	-68(%eax), %ebx
 417              	.LVL48:
 418              		.loc 1 232 5 is_stmt 0 view .LVU135
 419 01bb 80FB34   		cmpb	$52, %bl
 420 01be 7770     		ja	.L18
 421              		.loc 1 232 5 view .LVU136
 422 01c0 8B742428 		movl	40(%esp), %esi
 423 01c4 0FB6DB   		movzbl	%bl, %ebx
 424 01c7 8B949ED4 		movl	.L20@GOTOFF(%esi,%ebx,4), %edx
 424      000000
 425 01ce 01F2     		addl	%esi, %edx
 426 01d0 FFE2     		jmp	*%edx
 427              		.section	.rodata.chvprintf
 428              		.align 4
 429              		.align 4
GAS LISTING /tmp/ccEIekbo.s 			page 9


 430              	.L20:
 431 00d4 00000000 		.long	.L24@GOTOFF
 432 00d8 00000000 		.long	.L18@GOTOFF
 433 00dc 00000000 		.long	.L18@GOTOFF
 434 00e0 00000000 		.long	.L18@GOTOFF
 435 00e4 00000000 		.long	.L18@GOTOFF
 436 00e8 00000000 		.long	.L24@GOTOFF
 437 00ec 00000000 		.long	.L18@GOTOFF
 438 00f0 00000000 		.long	.L18@GOTOFF
 439 00f4 00000000 		.long	.L18@GOTOFF
 440 00f8 00000000 		.long	.L18@GOTOFF
 441 00fc 00000000 		.long	.L18@GOTOFF
 442 0100 00000000 		.long	.L23@GOTOFF
 443 0104 00000000 		.long	.L19@GOTOFF
 444 0108 00000000 		.long	.L18@GOTOFF
 445 010c 00000000 		.long	.L18@GOTOFF
 446 0110 00000000 		.long	.L18@GOTOFF
 447 0114 00000000 		.long	.L18@GOTOFF
 448 0118 00000000 		.long	.L70@GOTOFF
 449 011c 00000000 		.long	.L18@GOTOFF
 450 0120 00000000 		.long	.L18@GOTOFF
 451 0124 00000000 		.long	.L19@GOTOFF
 452 0128 00000000 		.long	.L18@GOTOFF
 453 012c 00000000 		.long	.L18@GOTOFF
 454 0130 00000000 		.long	.L18@GOTOFF
 455 0134 00000000 		.long	.L18@GOTOFF
 456 0138 00000000 		.long	.L18@GOTOFF
 457 013c 00000000 		.long	.L18@GOTOFF
 458 0140 00000000 		.long	.L18@GOTOFF
 459 0144 00000000 		.long	.L18@GOTOFF
 460 0148 00000000 		.long	.L18@GOTOFF
 461 014c 00000000 		.long	.L18@GOTOFF
 462 0150 00000000 		.long	.L25@GOTOFF
 463 0154 00000000 		.long	.L24@GOTOFF
 464 0158 00000000 		.long	.L18@GOTOFF
 465 015c 00000000 		.long	.L18@GOTOFF
 466 0160 00000000 		.long	.L18@GOTOFF
 467 0164 00000000 		.long	.L18@GOTOFF
 468 0168 00000000 		.long	.L24@GOTOFF
 469 016c 00000000 		.long	.L18@GOTOFF
 470 0170 00000000 		.long	.L18@GOTOFF
 471 0174 00000000 		.long	.L18@GOTOFF
 472 0178 00000000 		.long	.L18@GOTOFF
 473 017c 00000000 		.long	.L18@GOTOFF
 474 0180 00000000 		.long	.L23@GOTOFF
 475 0184 00000000 		.long	.L19@GOTOFF
 476 0188 00000000 		.long	.L18@GOTOFF
 477 018c 00000000 		.long	.L18@GOTOFF
 478 0190 00000000 		.long	.L22@GOTOFF
 479 0194 00000000 		.long	.L18@GOTOFF
 480 0198 00000000 		.long	.L70@GOTOFF
 481 019c 00000000 		.long	.L18@GOTOFF
 482 01a0 00000000 		.long	.L18@GOTOFF
 483 01a4 00000000 		.long	.L19@GOTOFF
 484              		.section	.text.chvprintf
 485              	.LVL49:
 486              	.L64:
GAS LISTING /tmp/ccEIekbo.s 			page 10


 487              		.loc 1 127 7 view .LVU137
 488 01d2 C744240C 		movl	$0, 12(%esp)
 488      00000000 
 489              	.LVL50:
 490 01da 8DB60000 		.p2align 4,,10
 490      0000
 491              		.p2align 3
 492              	.L1:
 493              		.loc 1 338 1 view .LVU138
 494 01e0 8B44243C 		movl	60(%esp), %eax
 495 01e4 652B0514 		subl	%gs:20, %eax
 495      000000
 496 01eb 0F85FE03 		jne	.L128
 496      0000
 497 01f1 8B44240C 		movl	12(%esp), %eax
 498 01f5 83C44C   		addl	$76, %esp
 499              		.cfi_remember_state
 500              		.cfi_def_cfa_offset 20
 501 01f8 5B       		popl	%ebx
 502              		.cfi_restore 3
 503              		.cfi_def_cfa_offset 16
 504 01f9 5E       		popl	%esi
 505              		.cfi_restore 6
 506              		.cfi_def_cfa_offset 12
 507 01fa 5F       		popl	%edi
 508              		.cfi_restore 7
 509              		.cfi_def_cfa_offset 8
 510 01fb 5D       		popl	%ebp
 511              		.cfi_restore 5
 512              		.cfi_def_cfa_offset 4
 513 01fc C3       		ret
 514              	.LVL51:
 515 01fd 8D7600   		.p2align 4,,10
 516              		.p2align 3
 517              	.L15:
 518              		.cfi_restore_state
 519              		.loc 1 209 11 is_stmt 1 view .LVU139
 520              		.loc 1 210 11 view .LVU140
 521              		.loc 1 210 33 is_stmt 0 view .LVU141
 522 0200 8D0489   		leal	(%ecx,%ecx,4), %eax
 523              		.loc 1 210 38 view .LVU142
 524 0203 0FB6D2   		movzbl	%dl, %edx
 525              		.loc 1 210 21 view .LVU143
 526 0206 8D0C42   		leal	(%edx,%eax,2), %ecx
 527              	.LVL52:
 528              		.loc 1 211 11 is_stmt 1 view .LVU144
 529              		.loc 1 211 13 is_stmt 0 view .LVU145
 530 0209 0FB643FF 		movzbl	-1(%ebx), %eax
 531              	.LVL53:
 532              		.loc 1 212 11 is_stmt 1 view .LVU146
 533              		.loc 1 212 14 is_stmt 0 view .LVU147
 534 020d 84C0     		testb	%al, %al
 535 020f 74CF     		je	.L1
 536              	.LVL54:
 537              	.L14:
 538              		.loc 1 208 25 is_stmt 1 view .LVU148
 539 0211 8D50D0   		leal	-48(%eax), %edx
GAS LISTING /tmp/ccEIekbo.s 			page 11


 540 0214 89DE     		movl	%ebx, %esi
 541              		.loc 1 211 19 is_stmt 0 view .LVU149
 542 0216 83C301   		addl	$1, %ebx
 543              	.LVL55:
 544              		.loc 1 208 25 view .LVU150
 545 0219 80FA09   		cmpb	$9, %dl
 546 021c 76E2     		jbe	.L15
 547              		.loc 1 208 25 view .LVU151
 548 021e 89742408 		movl	%esi, 8(%esp)
 549 0222 E9C1FEFF 		jmp	.L12
 549      FF
 550              	.LVL56:
 551 0227 8DB42600 		.p2align 4,,10
 551      00000066 
 551      90
 552              		.p2align 3
 553              	.L18:
 554              		.loc 1 306 7 is_stmt 1 view .LVU152
 555              		.loc 1 306 12 is_stmt 0 view .LVU153
 556 0230 88442430 		movb	%al, 48(%esp)
 557              		.loc 1 307 7 is_stmt 1 view .LVU154
 558 0234 8B442420 		movl	32(%esp), %eax
 559              	.LVL57:
 560              		.loc 1 307 7 is_stmt 0 view .LVU155
 561 0238 896C241C 		movl	%ebp, 28(%esp)
 562 023c 83E801   		subl	$1, %eax
 563              	.LVL58:
 564              	.L26:
 565              		.loc 1 309 5 is_stmt 1 view .LVU156
 566              		.loc 1 310 5 view .LVU157
 567              		.loc 1 310 5 is_stmt 0 view .LVU158
 568 023f 31F6     		xorl	%esi, %esi
 569 0241 85C0     		testl	%eax, %eax
 570              		.loc 1 313 8 view .LVU159
 571 0243 C7442410 		movl	$0, 16(%esp)
 571      00000000 
 572              	.LVL59:
 573              		.loc 1 313 8 view .LVU160
 574 024b 8D6C2430 		leal	48(%esp), %ebp
 575              	.LVL60:
 576              		.loc 1 313 8 view .LVU161
 577 024f 0F49F0   		cmovns	%eax, %esi
 578              	.LVL61:
 579              		.loc 1 313 5 is_stmt 1 view .LVU162
 580              		.loc 1 313 8 is_stmt 0 view .LVU163
 581 0252 807C2418 		cmpb	$0, 24(%esp)
 581      00
 582 0257 7517     		jne	.L55
 583              		.loc 1 314 7 is_stmt 1 view .LVU164
 584              		.loc 1 314 13 is_stmt 0 view .LVU165
 585 0259 F7DE     		negl	%esi
 586              	.LVL62:
 587              		.loc 1 316 5 is_stmt 1 view .LVU166
 588              		.loc 1 316 8 is_stmt 0 view .LVU167
 589 025b 85C0     		testl	%eax, %eax
 590 025d 0F8F1901 		jg	.L129
 590      0000
GAS LISTING /tmp/ccEIekbo.s 			page 12


 591              	.LVL63:
 592              		.p2align 4,,10
 593 0263 8D742600 		.p2align 3
 593      90
 594              	.L49:
 595              		.loc 1 327 16 is_stmt 1 view .LVU168
 596 0268 8B542410 		movl	16(%esp), %edx
 597 026c 85D2     		testl	%edx, %edx
 598 026e 7838     		js	.L54
 599              	.LVL64:
 600              	.L55:
 601              		.loc 1 327 16 is_stmt 0 view .LVU169
 602 0270 8B442410 		movl	16(%esp), %eax
 603 0274 8D5C0501 		leal	1(%ebp,%eax), %ebx
 604 0278 8DB42600 		.p2align 4,,10
 604      00000090 
 605              		.p2align 3
 606              	.L53:
 607              	.LVL65:
 608              		.loc 1 328 7 is_stmt 1 view .LVU170
 609 0280 0FB65500 		movzbl	0(%ebp), %edx
 610 0284 83EC08   		subl	$8, %esp
 611              		.cfi_def_cfa_offset 104
 612 0287 8B07     		movl	(%edi), %eax
 613 0289 83C501   		addl	$1, %ebp
 614              	.LVL66:
 615              		.loc 1 328 7 is_stmt 0 view .LVU171
 616 028c 52       		pushl	%edx
 617              		.cfi_def_cfa_offset 108
 618 028d 57       		pushl	%edi
 619              		.cfi_def_cfa_offset 112
 620 028e FF500C   		call	*12(%eax)
 621              	.LVL67:
 622              		.loc 1 329 7 is_stmt 1 view .LVU172
 623              		.loc 1 327 16 view .LVU173
 624              		.loc 1 327 16 is_stmt 0 view .LVU174
 625 0291 83C410   		addl	$16, %esp
 626              		.cfi_def_cfa_offset 96
 627 0294 39DD     		cmpl	%ebx, %ebp
 628 0296 75E8     		jne	.L53
 629              		.loc 1 329 8 view .LVU175
 630 0298 8B4C240C 		movl	12(%esp), %ecx
 631 029c 8B442410 		movl	16(%esp), %eax
 632 02a0 8D440801 		leal	1(%eax,%ecx), %eax
 633 02a4 8944240C 		movl	%eax, 12(%esp)
 634              	.LVL68:
 635              	.L54:
 636              		.loc 1 332 12 is_stmt 1 view .LVU176
 637 02a8 85F6     		testl	%esi, %esi
 638 02aa 0F84B6FD 		je	.L5
 638      FFFF
 639              		.loc 1 323 9 is_stmt 0 view .LVU177
 640 02b0 0FBE6C24 		movsbl	23(%esp), %ebp
 640      17
 641 02b5 89F3     		movl	%esi, %ebx
 642              	.LVL69:
 643 02b7 8DB42600 		.p2align 4,,10
GAS LISTING /tmp/ccEIekbo.s 			page 13


 643      00000066 
 643      90
 644              		.p2align 3
 645              	.L56:
 646              		.loc 1 333 7 is_stmt 1 view .LVU178
 647 02c0 83EC08   		subl	$8, %esp
 648              		.cfi_def_cfa_offset 104
 649 02c3 8B07     		movl	(%edi), %eax
 650 02c5 55       		pushl	%ebp
 651              		.cfi_def_cfa_offset 108
 652 02c6 57       		pushl	%edi
 653              		.cfi_def_cfa_offset 112
 654 02c7 FF500C   		call	*12(%eax)
 655              	.LVL70:
 656              		.loc 1 334 7 view .LVU179
 657              		.loc 1 335 7 view .LVU180
 658              		.loc 1 332 12 view .LVU181
 659 02ca 83C410   		addl	$16, %esp
 660              		.cfi_def_cfa_offset 96
 661 02cd 83EB01   		subl	$1, %ebx
 662              	.LVL71:
 663              		.loc 1 332 12 is_stmt 0 view .LVU182
 664 02d0 75EE     		jne	.L56
 665              		.loc 1 334 8 view .LVU183
 666 02d2 8B44240C 		movl	12(%esp), %eax
 667 02d6 01F0     		addl	%esi, %eax
 668 02d8 8944240C 		movl	%eax, 12(%esp)
 669 02dc E985FDFF 		jmp	.L5
 669      FF
 670              	.LVL72:
 671              	.L25:
 672              		.loc 1 234 7 is_stmt 1 view .LVU184
 673              		.loc 1 235 7 view .LVU185
 674              		.loc 1 235 14 is_stmt 0 view .LVU186
 675 02e1 8D4504   		leal	4(%ebp), %eax
 676              	.LVL73:
 677              		.loc 1 234 14 view .LVU187
 678 02e4 C6442417 		movb	$32, 23(%esp)
 678      20
 679              		.loc 1 235 14 view .LVU188
 680 02e9 8944241C 		movl	%eax, 28(%esp)
 681              	.LVL74:
 682              		.loc 1 235 12 view .LVU189
 683 02ed 8B4500   		movl	0(%ebp), %eax
 684              	.LVL75:
 685              		.loc 1 235 12 view .LVU190
 686 02f0 88442430 		movb	%al, 48(%esp)
 687              		.loc 1 236 7 is_stmt 1 view .LVU191
 688 02f4 8B442420 		movl	32(%esp), %eax
 689 02f8 83E801   		subl	$1, %eax
 690 02fb E93FFFFF 		jmp	.L26
 690      FF
 691              	.LVL76:
 692              	.L22:
 693              		.loc 1 238 7 view .LVU192
 694              		.loc 1 239 7 view .LVU193
 695              		.loc 1 239 14 is_stmt 0 view .LVU194
GAS LISTING /tmp/ccEIekbo.s 			page 14


 696 0300 8D4504   		leal	4(%ebp), %eax
 697              	.LVL77:
 698              		.loc 1 239 14 view .LVU195
 699 0303 8B6D00   		movl	0(%ebp), %ebp
 700              	.LVL78:
 701              		.loc 1 239 14 view .LVU196
 702 0306 8944241C 		movl	%eax, 28(%esp)
 703              	.LVL79:
 704              		.loc 1 239 10 view .LVU197
 705 030a 85ED     		testl	%ebp, %ebp
 706 030c 0F84A702 		je	.L130
 706      0000
 707              		.loc 1 245 19 view .LVU198
 708 0312 0FB64500 		movzbl	0(%ebp), %eax
 709              	.LVL80:
 710              		.loc 1 242 7 is_stmt 1 view .LVU199
 711              		.loc 1 242 10 is_stmt 0 view .LVU200
 712 0316 85C9     		testl	%ecx, %ecx
 713 0318 0F84B700 		je	.L30
 713      0000
 714              	.LVL81:
 715              		.loc 1 245 22 is_stmt 1 discriminator 1 view .LVU201
 716 031e 84C0     		testb	%al, %al
 717 0320 0F84BC00 		je	.L31
 717      0000
 718              	.LVL82:
 719              	.L29:
 720              		.loc 1 245 22 is_stmt 0 view .LVU202
 721 0326 83E901   		subl	$1, %ecx
 722              	.LVL83:
 723              		.loc 1 245 22 view .LVU203
 724 0329 0F88B300 		js	.L31
 724      0000
 725              	.LVL84:
 726              	.L28:
 727              		.loc 1 245 22 discriminator 4 view .LVU204
 728 032f 89E8     		movl	%ebp, %eax
 729 0331 EB0D     		jmp	.L34
 730              	.LVL85:
 731              		.p2align 4,,10
 732 0333 8D742600 		.p2align 3
 732      90
 733              	.L32:
 734              		.loc 1 245 22 discriminator 4 view .LVU205
 735 0338 89EA     		movl	%ebp, %edx
 736 033a 29C2     		subl	%eax, %edx
 737              		.loc 1 245 22 discriminator 3 view .LVU206
 738 033c 01CA     		addl	%ecx, %edx
 739 033e 7808     		js	.L122
 740              	.LVL86:
 741              	.L34:
 742              		.loc 1 245 46 is_stmt 1 discriminator 4 view .LVU207
 743 0340 83C001   		addl	$1, %eax
 744              	.LVL87:
 745              		.loc 1 245 22 discriminator 4 view .LVU208
 746 0343 803800   		cmpb	$0, (%eax)
 747 0346 75F0     		jne	.L32
GAS LISTING /tmp/ccEIekbo.s 			page 15


 748              	.LVL88:
 749              	.L122:
 750              		.loc 1 309 7 is_stmt 0 view .LVU209
 751 0348 29E8     		subl	%ebp, %eax
 752              	.LVL89:
 753              		.loc 1 238 14 view .LVU210
 754 034a C6442417 		movb	$32, 23(%esp)
 754      20
 755              		.loc 1 309 7 view .LVU211
 756 034f 89C1     		movl	%eax, %ecx
 757              		.loc 1 310 16 view .LVU212
 758 0351 8B442420 		movl	32(%esp), %eax
 759 0355 29C8     		subl	%ecx, %eax
 760              		.loc 1 320 10 view .LVU213
 761 0357 83E901   		subl	$1, %ecx
 762 035a 894C2410 		movl	%ecx, 16(%esp)
 763              	.LVL90:
 764 035e 6690     		.p2align 4,,10
 765              		.p2align 3
 766              	.L33:
 767              		.loc 1 309 5 is_stmt 1 view .LVU214
 768              		.loc 1 310 5 view .LVU215
 769              		.loc 1 310 5 is_stmt 0 view .LVU216
 770 0360 31F6     		xorl	%esi, %esi
 771 0362 85C0     		testl	%eax, %eax
 772 0364 0F49F0   		cmovns	%eax, %esi
 773              	.LVL91:
 774              		.loc 1 313 5 is_stmt 1 view .LVU217
 775              		.loc 1 313 8 is_stmt 0 view .LVU218
 776 0367 807C2418 		cmpb	$0, 24(%esp)
 776      00
 777 036c 0F85F6FE 		jne	.L49
 777      FFFF
 778              		.loc 1 314 7 is_stmt 1 view .LVU219
 779              		.loc 1 314 13 is_stmt 0 view .LVU220
 780 0372 F7DE     		negl	%esi
 781              	.LVL92:
 782              		.loc 1 316 5 is_stmt 1 view .LVU221
 783              		.loc 1 316 8 is_stmt 0 view .LVU222
 784 0374 85C0     		testl	%eax, %eax
 785 0376 0F8EECFE 		jle	.L49
 785      FFFF
 786              	.L129:
 787              		.loc 1 317 7 is_stmt 1 view .LVU223
 788              		.loc 1 317 22 is_stmt 0 view .LVU224
 789 037c 0FB64500 		movzbl	0(%ebp), %eax
 790 0380 8D48D5   		leal	-43(%eax), %ecx
 791              		.loc 1 317 36 view .LVU225
 792 0383 81E1FD00 		andl	$253, %ecx
 792      0000
 793 0389 750B     		jne	.L50
 794              		.loc 1 317 36 view .LVU226
 795 038b 807C2417 		cmpb	$48, 23(%esp)
 795      30
 796 0390 0F84E601 		je	.L131
 796      0000
 797              	.LVL93:
GAS LISTING /tmp/ccEIekbo.s 			page 16


 798              	.L50:
 799              		.loc 1 323 9 discriminator 1 view .LVU227
 800 0396 0FBE4424 		movsbl	23(%esp), %eax
 800      17
 801 039b 89742418 		movl	%esi, 24(%esp)
 802              	.LVL94:
 803              		.loc 1 323 9 discriminator 1 view .LVU228
 804 039f 89F3     		movl	%esi, %ebx
 805 03a1 89C6     		movl	%eax, %esi
 806              	.LVL95:
 807              		.p2align 4,,10
 808 03a3 8D742600 		.p2align 3
 808      90
 809              	.L51:
 810              		.loc 1 322 7 is_stmt 1 discriminator 1 view .LVU229
 811              		.loc 1 323 9 discriminator 1 view .LVU230
 812 03a8 83EC08   		subl	$8, %esp
 813              		.cfi_def_cfa_offset 104
 814 03ab 8B07     		movl	(%edi), %eax
 815 03ad 56       		pushl	%esi
 816              		.cfi_def_cfa_offset 108
 817 03ae 57       		pushl	%edi
 818              		.cfi_def_cfa_offset 112
 819 03af FF500C   		call	*12(%eax)
 820              	.LVL96:
 821              		.loc 1 324 9 discriminator 1 view .LVU231
 822              		.loc 1 325 24 discriminator 1 view .LVU232
 823              		.loc 1 325 24 is_stmt 0 discriminator 1 view .LVU233
 824 03b2 83C410   		addl	$16, %esp
 825              		.cfi_def_cfa_offset 96
 826 03b5 83C301   		addl	$1, %ebx
 827              	.LVL97:
 828              		.loc 1 325 24 discriminator 1 view .LVU234
 829 03b8 75EE     		jne	.L51
 830              		.loc 1 327 16 view .LVU235
 831 03ba 8B4C2410 		movl	16(%esp), %ecx
 832 03be 8B742418 		movl	24(%esp), %esi
 833              	.LVL98:
 834              		.loc 1 327 16 is_stmt 1 view .LVU236
 835              		.loc 1 324 10 is_stmt 0 view .LVU237
 836 03c2 2974240C 		subl	%esi, 12(%esp)
 837              	.LVL99:
 838              		.loc 1 325 24 view .LVU238
 839 03c6 31F6     		xorl	%esi, %esi
 840              		.loc 1 327 16 view .LVU239
 841 03c8 85C9     		testl	%ecx, %ecx
 842 03ca 0F89A0FE 		jns	.L55
 842      FFFF
 843 03d0 E991FCFF 		jmp	.L5
 843      FF
 844              	.LVL100:
 845              	.L30:
 846              		.loc 1 245 22 is_stmt 1 view .LVU240
 847 03d5 B9FE7F00 		movl	$32766, %ecx
 847      00
 848 03da 84C0     		testb	%al, %al
 849 03dc 0F854DFF 		jne	.L28
GAS LISTING /tmp/ccEIekbo.s 			page 17


 849      FFFF
 850              	.LVL101:
 851              	.L31:
 852              		.loc 1 309 5 view .LVU241
 853              		.loc 1 310 5 view .LVU242
 854              		.loc 1 310 5 is_stmt 0 view .LVU243
 855 03e2 8B442420 		movl	32(%esp), %eax
 856 03e6 31F6     		xorl	%esi, %esi
 857              		.loc 1 313 8 view .LVU244
 858 03e8 C6442417 		movb	$32, 23(%esp)
 858      20
 859 03ed 85C0     		testl	%eax, %eax
 860 03ef 0F49F0   		cmovns	%eax, %esi
 861              	.LVL102:
 862              		.loc 1 313 5 is_stmt 1 view .LVU245
 863              		.loc 1 313 8 is_stmt 0 view .LVU246
 864 03f2 807C2418 		cmpb	$0, 24(%esp)
 864      00
 865 03f7 0F85ABFE 		jne	.L54
 865      FFFF
 866              		.loc 1 314 7 is_stmt 1 view .LVU247
 867              		.loc 1 316 8 is_stmt 0 view .LVU248
 868 03fd 8B442420 		movl	32(%esp), %eax
 869              		.loc 1 314 13 view .LVU249
 870 0401 F7DE     		negl	%esi
 871              	.LVL103:
 872              		.loc 1 316 5 is_stmt 1 view .LVU250
 873              		.loc 1 316 8 is_stmt 0 view .LVU251
 874 0403 85C0     		testl	%eax, %eax
 875 0405 0F8E9DFE 		jle	.L54
 875      FFFF
 876 040b C7442410 		movl	$-1, 16(%esp)
 876      FFFFFFFF 
 877              	.LVL104:
 878              		.loc 1 316 8 view .LVU252
 879 0413 EB81     		jmp	.L50
 880              	.LVL105:
 881              		.p2align 4,,10
 882 0415 8D7600   		.p2align 3
 883              	.L24:
 884              		.loc 1 252 7 is_stmt 1 view .LVU253
 885              		.loc 1 256 11 is_stmt 0 view .LVU254
 886 0418 8D4D04   		leal	4(%ebp), %ecx
 887              	.LVL106:
 888              		.loc 1 252 10 view .LVU255
 889 041b 807C2424 		cmpb	$25, 36(%esp)
 889      19
 890              		.loc 1 256 11 view .LVU256
 891 0420 894C241C 		movl	%ecx, 28(%esp)
 892              		.loc 1 252 10 view .LVU257
 893 0424 0F862B01 		jbe	.L36
 893      0000
 894              		.loc 1 256 9 is_stmt 1 view .LVU258
 895              	.LVL107:
 896              		.loc 1 256 11 is_stmt 0 view .LVU259
 897 042a 8B4500   		movl	0(%ebp), %eax
 898              	.LVL108:
GAS LISTING /tmp/ccEIekbo.s 			page 18


 899              		.loc 1 258 7 is_stmt 1 view .LVU260
 900              		.loc 1 258 10 is_stmt 0 view .LVU261
 901 042d 85C0     		testl	%eax, %eax
 902 042f 0F882F01 		js	.L132
 902      0000
 903              	.LVL109:
 904              	.L38:
 905              		.loc 1 263 9 is_stmt 1 view .LVU262
 906              		.loc 1 263 12 is_stmt 0 view .LVU263
 907 0435 807C2410 		cmpb	$0, 16(%esp)
 907      00
 908 043a 0F849501 		je	.L72
 908      0000
 909              		.loc 1 264 11 is_stmt 1 view .LVU264
 910              	.LVL110:
 911              		.loc 1 264 11 is_stmt 0 view .LVU265
 912 0440 8D4C2430 		leal	48(%esp), %ecx
 913              	.LVL111:
 914              		.loc 1 264 16 view .LVU266
 915 0444 C6442430 		movb	$43, 48(%esp)
 915      2B
 916              		.loc 1 264 13 view .LVU267
 917 0449 8D5C2431 		leal	49(%esp), %ebx
 918              	.LVL112:
 919              		.loc 1 264 13 view .LVU268
 920 044d 894C2424 		movl	%ecx, 36(%esp)
 921              	.LVL113:
 922              	.L39:
 923              		.loc 1 266 7 is_stmt 1 view .LVU269
 924              	.LBB14:
 925              	.LBI14:
 926              		.loc 1 72 14 view .LVU270
 927              		.loc 1 74 3 view .LVU271
 928              	.LBB15:
 929              	.LBI15:
 930              		.loc 1 38 14 view .LVU272
 931              	.LBB16:
 932              		.loc 1 42 3 view .LVU273
 933              		.loc 1 43 3 view .LVU274
 934              		.loc 1 44 3 view .LVU275
 935              		.loc 1 46 3 view .LVU276
 936              		.loc 1 47 3 view .LVU277
 937              		.loc 1 53 3 view .LVU278
 938              		.loc 1 53 5 is_stmt 0 view .LVU279
 939 0451 8D4B0B   		leal	11(%ebx), %ecx
 940 0454 894C2410 		movl	%ecx, 16(%esp)
 941              	.LVL114:
 942 0458 8DB42600 		.p2align 4,,10
 942      00000090 
 943              		.p2align 3
 944              	.L40:
 945              		.loc 1 54 3 is_stmt 1 view .LVU280
 946              		.loc 1 55 5 view .LVU281
 947              		.loc 1 55 17 is_stmt 0 view .LVU282
 948 0460 89C6     		movl	%eax, %esi
 949 0462 B8CDCCCC 		movl	$-858993459, %eax
 949      CC
GAS LISTING /tmp/ccEIekbo.s 			page 19


 950              	.LVL115:
 951              		.loc 1 60 10 view .LVU283
 952 0467 83E901   		subl	$1, %ecx
 953              	.LVL116:
 954              		.loc 1 55 17 view .LVU284
 955 046a F7E6     		mull	%esi
 956 046c C1EA03   		shrl	$3, %edx
 957 046f 8D2C92   		leal	(%edx,%edx,4), %ebp
 958 0472 89D0     		movl	%edx, %eax
 959 0474 89F2     		movl	%esi, %edx
 960 0476 01ED     		addl	%ebp, %ebp
 961 0478 29EA     		subl	%ebp, %edx
 962              	.LVL117:
 963              		.loc 1 56 5 is_stmt 1 view .LVU285
 964              		.loc 1 57 5 view .LVU286
 965              		.loc 1 60 5 view .LVU287
 966              		.loc 1 56 7 is_stmt 0 view .LVU288
 967 047a 83C230   		addl	$48, %edx
 968              	.LVL118:
 969              		.loc 1 60 10 view .LVU289
 970 047d 8811     		movb	%dl, (%ecx)
 971              		.loc 1 61 5 is_stmt 1 view .LVU290
 972              	.LVL119:
 973              		.loc 1 62 26 view .LVU291
 974              		.loc 1 62 26 is_stmt 0 view .LVU292
 975 047f 83FE09   		cmpl	$9, %esi
 976 0482 7FDC     		jg	.L40
 977              		.loc 1 64 3 is_stmt 1 view .LVU293
 978              	.LVL120:
 979              		.loc 1 64 5 is_stmt 0 view .LVU294
 980 0484 8B442410 		movl	16(%esp), %eax
 981              	.LVL121:
 982              		.loc 1 64 5 view .LVU295
 983 0488 29C8     		subl	%ecx, %eax
 984              	.LVL122:
 985              		.loc 1 64 5 view .LVU296
 986 048a 01D8     		addl	%ebx, %eax
 987              	.LVL123:
 988              		.loc 1 64 5 view .LVU297
 989 048c EB05     		jmp	.L42
 990              	.LVL124:
 991 048e 6690     		.p2align 4,,10
 992              		.p2align 3
 993              	.L41:
 994              		.loc 1 66 12 view .LVU298
 995 0490 0FB611   		movzbl	(%ecx), %edx
 996              	.L42:
 997              		.loc 1 65 3 is_stmt 1 view .LVU299
 998              		.loc 1 66 5 view .LVU300
 999              		.loc 1 66 7 is_stmt 0 view .LVU301
 1000 0493 83C301   		addl	$1, %ebx
 1001              	.LVL125:
 1002              		.loc 1 66 14 view .LVU302
 1003 0496 83C101   		addl	$1, %ecx
 1004              	.LVL126:
 1005              		.loc 1 66 10 view .LVU303
 1006 0499 8853FF   		movb	%dl, -1(%ebx)
GAS LISTING /tmp/ccEIekbo.s 			page 20


 1007              		.loc 1 67 10 is_stmt 1 view .LVU304
 1008              		.loc 1 67 10 is_stmt 0 view .LVU305
 1009 049c 39C3     		cmpl	%eax, %ebx
 1010 049e 75F0     		jne	.L41
 1011              	.LBE16:
 1012              	.LBE15:
 1013              	.LBE14:
 1014              		.loc 1 309 7 view .LVU306
 1015 04a0 8B6C2424 		movl	36(%esp), %ebp
 1016              		.loc 1 310 16 view .LVU307
 1017 04a4 8B442420 		movl	32(%esp), %eax
 1018              		.loc 1 309 7 view .LVU308
 1019 04a8 29EB     		subl	%ebp, %ebx
 1020              	.LVL127:
 1021              		.loc 1 320 10 view .LVU309
 1022 04aa 8D4BFF   		leal	-1(%ebx), %ecx
 1023              	.LVL128:
 1024              		.loc 1 310 16 view .LVU310
 1025 04ad 29D8     		subl	%ebx, %eax
 1026              		.loc 1 320 10 view .LVU311
 1027 04af 894C2410 		movl	%ecx, 16(%esp)
 1028              	.LVL129:
 1029              		.loc 1 320 10 view .LVU312
 1030 04b3 E9A8FEFF 		jmp	.L33
 1030      FF
 1031              	.LVL130:
 1032              	.L19:
 1033              		.loc 1 232 5 view .LVU313
 1034 04b8 BE100000 		movl	$16, %esi
 1034      00
 1035              	.L21:
 1036              	.LVL131:
 1037              		.loc 1 297 7 is_stmt 1 view .LVU314
 1038              		.loc 1 256 11 is_stmt 0 view .LVU315
 1039 04bd 8D4D04   		leal	4(%ebp), %ecx
 1040              	.LVL132:
 1041              		.loc 1 297 10 view .LVU316
 1042 04c0 807C2424 		cmpb	$25, 36(%esp)
 1042      19
 1043              		.loc 1 301 11 view .LVU317
 1044 04c5 8B4500   		movl	0(%ebp), %eax
 1045              		.loc 1 256 11 view .LVU318
 1046 04c8 894C241C 		movl	%ecx, 28(%esp)
 1047              		.loc 1 297 10 view .LVU319
 1048 04cc 7678     		jbe	.L44
 1049              	.LVL133:
 1050              	.L43:
 1051              		.loc 1 303 7 is_stmt 1 view .LVU320
 1052              	.LBB17:
 1053              	.LBI17:
 1054              		.loc 1 72 14 view .LVU321
 1055              		.loc 1 74 3 view .LVU322
 1056              	.LBB18:
 1057              	.LBI18:
 1058              		.loc 1 38 14 view .LVU323
 1059              	.LBB19:
 1060              		.loc 1 42 3 view .LVU324
GAS LISTING /tmp/ccEIekbo.s 			page 21


 1061              		.loc 1 43 3 view .LVU325
 1062              		.loc 1 44 3 view .LVU326
 1063              		.loc 1 46 3 view .LVU327
 1064              		.loc 1 47 3 view .LVU328
 1065              		.loc 1 53 3 view .LVU329
 1066              		.loc 1 53 5 is_stmt 0 view .LVU330
 1067 04ce 8D4C243B 		leal	59(%esp), %ecx
 1068              	.LVL134:
 1069              		.loc 1 53 5 view .LVU331
 1070 04d2 894C242C 		movl	%ecx, 44(%esp)
 1071              	.LVL135:
 1072 04d6 8DB42600 		.p2align 4,,10
 1072      0000008D 
 1072      7600
 1073              		.p2align 3
 1074              	.L46:
 1075              		.loc 1 54 3 is_stmt 1 view .LVU332
 1076              		.loc 1 55 5 view .LVU333
 1077 04e0 31D2     		xorl	%edx, %edx
 1078              		.loc 1 55 17 is_stmt 0 view .LVU334
 1079 04e2 89C3     		movl	%eax, %ebx
 1080 04e4 F7F6     		divl	%esi
 1081              	.LVL136:
 1082              		.loc 1 56 5 is_stmt 1 view .LVU335
 1083              		.loc 1 56 7 is_stmt 0 view .LVU336
 1084 04e6 8D6A30   		leal	48(%edx), %ebp
 1085              	.LVL137:
 1086              		.loc 1 57 5 is_stmt 1 view .LVU337
 1087              		.loc 1 58 9 is_stmt 0 view .LVU338
 1088 04e9 83C237   		addl	$55, %edx
 1089 04ec 83FD39   		cmpl	$57, %ebp
 1090 04ef 0F4FEA   		cmovg	%edx, %ebp
 1091              	.LVL138:
 1092              		.loc 1 60 5 is_stmt 1 view .LVU339
 1093              		.loc 1 60 10 is_stmt 0 view .LVU340
 1094 04f2 83E901   		subl	$1, %ecx
 1095              	.LVL139:
 1096              		.loc 1 60 10 view .LVU341
 1097 04f5 89EA     		movl	%ebp, %edx
 1098 04f7 88542410 		movb	%dl, 16(%esp)
 1099 04fb 8811     		movb	%dl, (%ecx)
 1100              		.loc 1 61 5 is_stmt 1 view .LVU342
 1101              	.LVL140:
 1102              		.loc 1 62 26 view .LVU343
 1103              		.loc 1 62 26 is_stmt 0 view .LVU344
 1104 04fd 39F3     		cmpl	%esi, %ebx
 1105 04ff 73DF     		jnb	.L46
 1106              		.loc 1 64 3 is_stmt 1 view .LVU345
 1107              		.loc 1 64 5 is_stmt 0 view .LVU346
 1108 0501 8B74242C 		movl	44(%esp), %esi
 1109 0505 8D442430 		leal	48(%esp), %eax
 1110              	.LVL141:
 1111              		.loc 1 64 5 view .LVU347
 1112 0509 89442424 		movl	%eax, 36(%esp)
 1113 050d 29CE     		subl	%ecx, %esi
 1114              	.LVL142:
 1115              		.loc 1 64 5 view .LVU348
GAS LISTING /tmp/ccEIekbo.s 			page 22


 1116 050f 8D1C30   		leal	(%eax,%esi), %ebx
 1117 0512 EB07     		jmp	.L48
 1118              	.LVL143:
 1119              		.p2align 4,,10
 1120 0514 8D742600 		.p2align 3
 1121              	.L47:
 1122              		.loc 1 66 12 view .LVU349
 1123 0518 0FB611   		movzbl	(%ecx), %edx
 1124              	.LVL144:
 1125              	.L48:
 1126              		.loc 1 65 3 is_stmt 1 view .LVU350
 1127              		.loc 1 66 5 view .LVU351
 1128              		.loc 1 66 7 is_stmt 0 view .LVU352
 1129 051b 83C001   		addl	$1, %eax
 1130              	.LVL145:
 1131              		.loc 1 66 14 view .LVU353
 1132 051e 83C101   		addl	$1, %ecx
 1133              	.LVL146:
 1134              		.loc 1 66 10 view .LVU354
 1135 0521 8850FF   		movb	%dl, -1(%eax)
 1136              		.loc 1 67 10 is_stmt 1 view .LVU355
 1137              	.LVL147:
 1138              		.loc 1 67 10 is_stmt 0 view .LVU356
 1139 0524 39D8     		cmpl	%ebx, %eax
 1140 0526 75F0     		jne	.L47
 1141              	.LBE19:
 1142              	.LBE18:
 1143              	.LBE17:
 1144              		.loc 1 310 16 view .LVU357
 1145 0528 8B442420 		movl	32(%esp), %eax
 1146              	.LVL148:
 1147              		.loc 1 320 10 view .LVU358
 1148 052c 8D4EFF   		leal	-1(%esi), %ecx
 1149              	.LVL149:
 1150              		.loc 1 150 7 view .LVU359
 1151 052f 8B6C2424 		movl	36(%esp), %ebp
 1152              		.loc 1 320 10 view .LVU360
 1153 0533 894C2410 		movl	%ecx, 16(%esp)
 1154              		.loc 1 310 16 view .LVU361
 1155 0537 29F0     		subl	%esi, %eax
 1156 0539 E922FEFF 		jmp	.L33
 1156      FF
 1157              	.LVL150:
 1158              	.L74:
 1159              		.loc 1 232 5 view .LVU362
 1160 053e BE100000 		movl	$16, %esi
 1160      00
 1161 0543 8D4D04   		leal	4(%ebp), %ecx
 1162              	.LVL151:
 1163              	.L44:
 1164              		.loc 1 298 9 is_stmt 1 view .LVU363
 1165              		.loc 1 298 13 is_stmt 0 view .LVU364
 1166 0546 894C241C 		movl	%ecx, 28(%esp)
 1167              	.LVL152:
 1168              		.loc 1 298 11 view .LVU365
 1169 054a 8B4500   		movl	0(%ebp), %eax
 1170              	.LVL153:
GAS LISTING /tmp/ccEIekbo.s 			page 23


 1171              		.loc 1 298 11 view .LVU366
 1172 054d E97CFFFF 		jmp	.L43
 1172      FF
 1173              	.LVL154:
 1174              	.L89:
 1175              		.loc 1 298 11 view .LVU367
 1176 0552 8D4D04   		leal	4(%ebp), %ecx
 1177              	.LVL155:
 1178              	.L36:
 1179              		.loc 1 253 9 is_stmt 1 view .LVU368
 1180              		.loc 1 253 11 is_stmt 0 view .LVU369
 1181 0555 894C241C 		movl	%ecx, 28(%esp)
 1182              	.LVL156:
 1183              		.loc 1 253 11 view .LVU370
 1184 0559 8B4500   		movl	0(%ebp), %eax
 1185              	.LVL157:
 1186              		.loc 1 258 7 is_stmt 1 view .LVU371
 1187              		.loc 1 258 10 is_stmt 0 view .LVU372
 1188 055c 85C0     		testl	%eax, %eax
 1189 055e 0F89D1FE 		jns	.L38
 1189      FFFF
 1190              	.L132:
 1191              		.loc 1 259 9 is_stmt 1 view .LVU373
 1192              	.LVL158:
 1193              		.loc 1 259 9 is_stmt 0 view .LVU374
 1194 0564 8D4C2430 		leal	48(%esp), %ecx
 1195              	.LVL159:
 1196              		.loc 1 259 14 view .LVU375
 1197 0568 C6442430 		movb	$45, 48(%esp)
 1197      2D
 1198              		.loc 1 260 9 is_stmt 1 view .LVU376
 1199              	.LVL160:
 1200              		.loc 1 260 11 is_stmt 0 view .LVU377
 1201 056d F7D8     		negl	%eax
 1202              	.LVL161:
 1203              		.loc 1 259 11 view .LVU378
 1204 056f 8D5C2431 		leal	49(%esp), %ebx
 1205              	.LVL162:
 1206              		.loc 1 259 11 view .LVU379
 1207 0573 894C2424 		movl	%ecx, 36(%esp)
 1208 0577 E9D5FEFF 		jmp	.L39
 1208      FF
 1209              	.LVL163:
 1210              	.L131:
 1211              		.loc 1 318 9 is_stmt 1 view .LVU380
 1212              		.loc 1 145 8 is_stmt 0 view .LVU381
 1213 057c 8344240C 		addl	$1, 12(%esp)
 1213      01
 1214              	.LVL164:
 1215              		.loc 1 318 9 view .LVU382
 1216 0581 83EC08   		subl	$8, %esp
 1217              		.cfi_def_cfa_offset 104
 1218              		.loc 1 144 7 view .LVU383
 1219 0584 8B0F     		movl	(%edi), %ecx
 1220              		.loc 1 318 9 view .LVU384
 1221 0586 83C501   		addl	$1, %ebp
 1222              	.LVL165:
GAS LISTING /tmp/ccEIekbo.s 			page 24


 1223              		.loc 1 318 9 view .LVU385
 1224 0589 50       		pushl	%eax
 1225              		.cfi_def_cfa_offset 108
 1226 058a 57       		pushl	%edi
 1227              		.cfi_def_cfa_offset 112
 1228 058b FF510C   		call	*12(%ecx)
 1229              	.LVL166:
 1230              		.loc 1 319 9 is_stmt 1 view .LVU386
 1231              		.loc 1 320 9 view .LVU387
 1232              		.loc 1 327 16 is_stmt 0 view .LVU388
 1233 058e 836C2420 		subl	$1, 32(%esp)
 1233      01
 1234 0593 83C410   		addl	$16, %esp
 1235              		.cfi_def_cfa_offset 96
 1236 0596 E9FBFDFF 		jmp	.L50
 1236      FF
 1237              	.LVL167:
 1238              	.L23:
 1239              		.loc 1 232 5 view .LVU389
 1240 059b BE080000 		movl	$8, %esi
 1240      00
 1241 05a0 E918FFFF 		jmp	.L21
 1241      FF
 1242              	.LVL168:
 1243              	.L60:
 1244              		.loc 1 297 7 is_stmt 1 view .LVU390
 1245              		.loc 1 232 5 is_stmt 0 view .LVU391
 1246 05a5 BE080000 		movl	$8, %esi
 1246      00
 1247 05aa 8D4D04   		leal	4(%ebp), %ecx
 1248              	.LVL169:
 1249              		.loc 1 232 5 view .LVU392
 1250 05ad EB97     		jmp	.L44
 1251              	.LVL170:
 1252              	.L70:
 1253              		.loc 1 232 5 view .LVU393
 1254 05af BE0A0000 		movl	$10, %esi
 1254      00
 1255 05b4 E904FFFF 		jmp	.L21
 1255      FF
 1256              	.LVL171:
 1257              	.L130:
 1258              		.loc 1 242 7 is_stmt 1 view .LVU394
 1259              		.loc 1 240 11 is_stmt 0 view .LVU395
 1260 05b9 8B442428 		movl	40(%esp), %eax
 1261              	.LVL172:
 1262              		.loc 1 240 11 view .LVU396
 1263 05bd 8DA80000 		leal	.LC0@GOTOFF(%eax), %ebp
 1263      0000
 1264              		.loc 1 242 10 view .LVU397
 1265 05c3 85C9     		testl	%ecx, %ecx
 1266 05c5 0F855BFD 		jne	.L29
 1266      FFFF
 1267              		.loc 1 245 22 view .LVU398
 1268 05cb B9FE7F00 		movl	$32766, %ecx
 1268      00
 1269              	.LVL173:
GAS LISTING /tmp/ccEIekbo.s 			page 25


 1270              		.loc 1 245 22 view .LVU399
 1271 05d0 E95AFDFF 		jmp	.L28
 1271      FF
 1272              	.LVL174:
 1273              	.L72:
 1274              		.loc 1 149 7 view .LVU400
 1275 05d5 8D5C2430 		leal	48(%esp), %ebx
 1276              	.LVL175:
 1277              		.loc 1 149 7 view .LVU401
 1278 05d9 895C2424 		movl	%ebx, 36(%esp)
 1279 05dd E96FFEFF 		jmp	.L39
 1279      FF
 1280              	.LVL176:
 1281              	.L59:
 1282              		.loc 1 232 5 view .LVU402
 1283 05e2 BE0A0000 		movl	$10, %esi
 1283      00
 1284 05e7 8D4D04   		leal	4(%ebp), %ecx
 1285              	.LVL177:
 1286              		.loc 1 232 5 view .LVU403
 1287 05ea E957FFFF 		jmp	.L44
 1287      FF
 1288              	.LVL178:
 1289              	.L128:
 1290              		.loc 1 338 1 view .LVU404
 1291 05ef E8FCFFFF 		call	__stack_chk_fail_local
 1291      FF
 1292              	.LVL179:
 1293              		.cfi_endproc
 1294              	.LFE301:
 1295              		.size	chvprintf, .-chvprintf
 1296              		.section	.text.chprintf,"ax",@progbits
 1297              		.p2align 4
 1298              		.globl	chprintf
 1299              		.type	chprintf, @function
 1300              	chprintf:
 1301              	.LVL180:
 1302              	.LFB302:
 1303              		.loc 1 365 63 is_stmt 1 view -0
 1304              		.cfi_startproc
 1305              		.loc 1 366 3 view .LVU406
 1306              		.loc 1 367 3 view .LVU407
 1307              		.loc 1 369 3 view .LVU408
 1308              		.loc 1 365 63 is_stmt 0 view .LVU409
 1309 0000 83EC0C   		subl	$12, %esp
 1310              		.cfi_def_cfa_offset 16
 1311              		.loc 1 369 3 view .LVU410
 1312 0003 8D442418 		leal	24(%esp), %eax
 1313              	.LVL181:
 1314              		.loc 1 370 3 is_stmt 1 view .LVU411
 1315              		.loc 1 370 21 is_stmt 0 view .LVU412
 1316 0007 83EC04   		subl	$4, %esp
 1317              		.cfi_def_cfa_offset 20
 1318 000a 50       		pushl	%eax
 1319              		.cfi_def_cfa_offset 24
 1320 000b FF74241C 		pushl	28(%esp)
 1321              		.cfi_def_cfa_offset 28
GAS LISTING /tmp/ccEIekbo.s 			page 26


 1322 000f FF74241C 		pushl	28(%esp)
 1323              		.cfi_def_cfa_offset 32
 1324 0013 E8FCFFFF 		call	chvprintf
 1324      FF
 1325              	.LVL182:
 1326              		.loc 1 371 3 is_stmt 1 view .LVU413
 1327              		.loc 1 373 3 view .LVU414
 1328              		.loc 1 374 1 is_stmt 0 view .LVU415
 1329 0018 83C41C   		addl	$28, %esp
 1330              		.cfi_def_cfa_offset 4
 1331 001b C3       		ret
 1332              		.cfi_endproc
 1333              	.LFE302:
 1334              		.size	chprintf, .-chprintf
 1335              		.section	.text.chsnprintf,"ax",@progbits
 1336              		.p2align 4
 1337              		.globl	chsnprintf
 1338              		.type	chsnprintf, @function
 1339              	chsnprintf:
 1340              	.LVL183:
 1341              	.LFB303:
 1342              		.loc 1 403 62 is_stmt 1 view -0
 1343              		.cfi_startproc
 1344              		.loc 1 403 62 is_stmt 0 view .LVU417
 1345 0000 55       		pushl	%ebp
 1346              		.cfi_def_cfa_offset 8
 1347              		.cfi_offset 5, -8
 1348 0001 57       		pushl	%edi
 1349              		.cfi_def_cfa_offset 12
 1350              		.cfi_offset 7, -12
 1351 0002 56       		pushl	%esi
 1352              		.cfi_def_cfa_offset 16
 1353              		.cfi_offset 6, -16
 1354 0003 53       		pushl	%ebx
 1355              		.cfi_def_cfa_offset 20
 1356              		.cfi_offset 3, -20
 1357 0004 E8FCFFFF 		call	__x86.get_pc_thunk.bx
 1357      FF
 1358 0009 81C30200 		addl	$_GLOBAL_OFFSET_TABLE_, %ebx
 1358      0000
 1359 000f 83EC3C   		subl	$60, %esp
 1360              		.cfi_def_cfa_offset 80
 1361              		.loc 1 403 62 view .LVU418
 1362 0012 65A11400 		movl	%gs:20, %eax
 1362      0000
 1363 0018 8944242C 		movl	%eax, 44(%esp)
 1364 001c 31C0     		xorl	%eax, %eax
 1365              		.loc 1 404 3 is_stmt 1 view .LVU419
 1366              		.loc 1 405 3 view .LVU420
 1367              		.loc 1 408 3 view .LVU421
 1368              	.LBB22:
 1369              	.LBB23:
 1370              		.loc 1 450 6 is_stmt 0 view .LVU422
 1371 001e 8B542454 		movl	84(%esp), %edx
 1372              	.LBE23:
 1373              	.LBE22:
 1374              		.loc 1 408 3 view .LVU423
GAS LISTING /tmp/ccEIekbo.s 			page 27


 1375 0022 8D44245C 		leal	92(%esp), %eax
 1376              	.LVL184:
 1377              		.loc 1 409 3 is_stmt 1 view .LVU424
 1378              		.loc 1 403 62 is_stmt 0 view .LVU425
 1379 0026 8B7C2450 		movl	80(%esp), %edi
 1380              	.LVL185:
 1381              		.loc 1 403 62 view .LVU426
 1382 002a 8944240C 		movl	%eax, 12(%esp)
 1383 002e 8B6C2458 		movl	88(%esp), %ebp
 1384              	.LVL186:
 1385              	.LBB26:
 1386              	.LBI22:
 1387              		.loc 1 444 5 is_stmt 1 view .LVU427
 1388              	.LBB24:
 1389              		.loc 1 445 3 view .LVU428
 1390              		.loc 1 446 3 view .LVU429
 1391              		.loc 1 447 3 view .LVU430
 1392              		.loc 1 448 3 view .LVU431
 1393              		.loc 1 450 3 view .LVU432
 1394              		.loc 1 450 6 is_stmt 0 view .LVU433
 1395 0032 85D2     		testl	%edx, %edx
 1396 0034 744A     		je	.L136
 1397              		.loc 1 451 5 is_stmt 1 view .LVU434
 1398              	.LVL187:
 1399              		.loc 1 457 3 view .LVU435
 1400 0036 6A00     		pushl	$0
 1401              		.cfi_def_cfa_offset 84
 1402              		.loc 1 451 17 is_stmt 0 view .LVU436
 1403 0038 8B442458 		movl	88(%esp), %eax
 1404              	.LVL188:
 1405              		.loc 1 451 17 view .LVU437
 1406 003c 8D50FF   		leal	-1(%eax), %edx
 1407              	.LVL189:
 1408              		.loc 1 457 3 view .LVU438
 1409 003f 52       		pushl	%edx
 1410              		.cfi_def_cfa_offset 88
 1411 0040 57       		pushl	%edi
 1412              		.cfi_def_cfa_offset 92
 1413 0041 8D742424 		leal	36(%esp), %esi
 1414 0045 56       		pushl	%esi
 1415              		.cfi_def_cfa_offset 96
 1416 0046 E8FCFFFF 		call	msObjectInit@PLT
 1416      FF
 1417              	.LVL190:
 1418              		.loc 1 460 3 is_stmt 1 view .LVU439
 1419              		.loc 1 461 3 view .LVU440
 1420              		.loc 1 461 12 is_stmt 0 view .LVU441
 1421 004b 8B44241C 		movl	28(%esp), %eax
 1422 004f 83C40C   		addl	$12, %esp
 1423              		.cfi_def_cfa_offset 84
 1424 0052 50       		pushl	%eax
 1425              		.cfi_def_cfa_offset 88
 1426 0053 55       		pushl	%ebp
 1427              		.cfi_def_cfa_offset 92
 1428 0054 56       		pushl	%esi
 1429              		.cfi_def_cfa_offset 96
 1430 0055 E8FCFFFF 		call	chvprintf
GAS LISTING /tmp/ccEIekbo.s 			page 28


 1430      FF
 1431              	.LVL191:
 1432              		.loc 1 464 3 is_stmt 1 view .LVU442
 1433              		.loc 1 464 9 is_stmt 0 view .LVU443
 1434 005a 8B542434 		movl	52(%esp), %edx
 1435              		.loc 1 464 6 view .LVU444
 1436 005e 83C410   		addl	$16, %esp
 1437              		.cfi_def_cfa_offset 80
 1438 0061 39542454 		cmpl	%edx, 84(%esp)
 1439 0065 7604     		jbe	.L135
 1440              		.loc 1 465 5 is_stmt 1 view .LVU445
 1441              		.loc 1 465 17 is_stmt 0 view .LVU446
 1442 0067 C6041700 		movb	$0, (%edi,%edx)
 1443              		.loc 1 469 3 is_stmt 1 view .LVU447
 1444              	.LVL192:
 1445              		.loc 1 469 3 is_stmt 0 view .LVU448
 1446              	.LBE24:
 1447              	.LBE26:
 1448              		.loc 1 410 3 is_stmt 1 view .LVU449
 1449              		.loc 1 413 3 view .LVU450
 1450              	.L135:
 1451              		.loc 1 414 1 is_stmt 0 view .LVU451
 1452 006b 8B54242C 		movl	44(%esp), %edx
 1453 006f 652B1514 		subl	%gs:20, %edx
 1453      000000
 1454 0076 752B     		jne	.L140
 1455 0078 83C43C   		addl	$60, %esp
 1456              		.cfi_remember_state
 1457              		.cfi_def_cfa_offset 20
 1458 007b 5B       		popl	%ebx
 1459              		.cfi_restore 3
 1460              		.cfi_def_cfa_offset 16
 1461 007c 5E       		popl	%esi
 1462              		.cfi_restore 6
 1463              		.cfi_def_cfa_offset 12
 1464              	.LVL193:
 1465              		.loc 1 414 1 view .LVU452
 1466 007d 5F       		popl	%edi
 1467              		.cfi_restore 7
 1468              		.cfi_def_cfa_offset 8
 1469 007e 5D       		popl	%ebp
 1470              		.cfi_restore 5
 1471              		.cfi_def_cfa_offset 4
 1472 007f C3       		ret
 1473              	.LVL194:
 1474              		.p2align 4,,10
 1475              		.p2align 3
 1476              	.L136:
 1477              		.cfi_restore_state
 1478              	.LBB27:
 1479              	.LBB25:
 1480              		.loc 1 457 3 is_stmt 1 view .LVU453
 1481 0080 6A00     		pushl	$0
 1482              		.cfi_def_cfa_offset 84
 1483 0082 6A00     		pushl	$0
 1484              		.cfi_def_cfa_offset 88
 1485 0084 57       		pushl	%edi
GAS LISTING /tmp/ccEIekbo.s 			page 29


 1486              		.cfi_def_cfa_offset 92
 1487 0085 8D742424 		leal	36(%esp), %esi
 1488 0089 56       		pushl	%esi
 1489              		.cfi_def_cfa_offset 96
 1490 008a E8FCFFFF 		call	msObjectInit@PLT
 1490      FF
 1491              	.LVL195:
 1492              		.loc 1 460 3 view .LVU454
 1493              		.loc 1 461 3 view .LVU455
 1494              		.loc 1 461 12 is_stmt 0 view .LVU456
 1495 008f 8B44241C 		movl	28(%esp), %eax
 1496 0093 83C40C   		addl	$12, %esp
 1497              		.cfi_def_cfa_offset 84
 1498 0096 50       		pushl	%eax
 1499              		.cfi_def_cfa_offset 88
 1500 0097 55       		pushl	%ebp
 1501              		.cfi_def_cfa_offset 92
 1502 0098 56       		pushl	%esi
 1503              		.cfi_def_cfa_offset 96
 1504 0099 E8FCFFFF 		call	chvprintf
 1504      FF
 1505              	.LVL196:
 1506              		.loc 1 464 3 is_stmt 1 view .LVU457
 1507              		.loc 1 461 12 is_stmt 0 view .LVU458
 1508 009e 83C410   		addl	$16, %esp
 1509              		.cfi_def_cfa_offset 80
 1510 00a1 EBC8     		jmp	.L135
 1511              	.LVL197:
 1512              	.L140:
 1513              		.loc 1 461 12 view .LVU459
 1514              	.LBE25:
 1515              	.LBE27:
 1516              		.loc 1 414 1 view .LVU460
 1517 00a3 E8FCFFFF 		call	__stack_chk_fail_local
 1517      FF
 1518              	.LVL198:
 1519              		.cfi_endproc
 1520              	.LFE303:
 1521              		.size	chsnprintf, .-chsnprintf
 1522              		.section	.text.chvsnprintf,"ax",@progbits
 1523              		.p2align 4
 1524              		.globl	chvsnprintf
 1525              		.type	chvsnprintf, @function
 1526              	chvsnprintf:
 1527              	.LVL199:
 1528              	.LFB304:
 1529              		.loc 1 444 70 is_stmt 1 view -0
 1530              		.cfi_startproc
 1531              		.loc 1 444 70 is_stmt 0 view .LVU462
 1532 0000 55       		pushl	%ebp
 1533              		.cfi_def_cfa_offset 8
 1534              		.cfi_offset 5, -8
 1535 0001 57       		pushl	%edi
 1536              		.cfi_def_cfa_offset 12
 1537              		.cfi_offset 7, -12
 1538 0002 56       		pushl	%esi
 1539              		.cfi_def_cfa_offset 16
GAS LISTING /tmp/ccEIekbo.s 			page 30


 1540              		.cfi_offset 6, -16
 1541 0003 53       		pushl	%ebx
 1542              		.cfi_def_cfa_offset 20
 1543              		.cfi_offset 3, -20
 1544 0004 E8FCFFFF 		call	__x86.get_pc_thunk.bx
 1544      FF
 1545 0009 81C30200 		addl	$_GLOBAL_OFFSET_TABLE_, %ebx
 1545      0000
 1546 000f 83EC3C   		subl	$60, %esp
 1547              		.cfi_def_cfa_offset 80
 1548              		.loc 1 444 70 view .LVU463
 1549 0012 658B1514 		movl	%gs:20, %edx
 1549      000000
 1550 0019 8954242C 		movl	%edx, 44(%esp)
 1551 001d 31D2     		xorl	%edx, %edx
 1552              		.loc 1 445 3 is_stmt 1 view .LVU464
 1553              		.loc 1 446 3 view .LVU465
 1554              		.loc 1 447 3 view .LVU466
 1555              		.loc 1 448 3 view .LVU467
 1556              		.loc 1 450 3 view .LVU468
 1557              		.loc 1 450 6 is_stmt 0 view .LVU469
 1558 001f 8B542454 		movl	84(%esp), %edx
 1559              		.loc 1 444 70 view .LVU470
 1560 0023 8B44245C 		movl	92(%esp), %eax
 1561 0027 8B7C2450 		movl	80(%esp), %edi
 1562 002b 8B6C2458 		movl	88(%esp), %ebp
 1563              		.loc 1 450 6 view .LVU471
 1564 002f 85D2     		testl	%edx, %edx
 1565 0031 8944240C 		movl	%eax, 12(%esp)
 1566 0035 7451     		je	.L142
 1567              		.loc 1 451 5 is_stmt 1 view .LVU472
 1568              	.LVL200:
 1569              		.loc 1 457 3 view .LVU473
 1570 0037 6A00     		pushl	$0
 1571              		.cfi_def_cfa_offset 84
 1572              		.loc 1 451 17 is_stmt 0 view .LVU474
 1573 0039 8B442458 		movl	88(%esp), %eax
 1574 003d 8D50FF   		leal	-1(%eax), %edx
 1575              	.LVL201:
 1576              		.loc 1 457 3 view .LVU475
 1577 0040 52       		pushl	%edx
 1578              		.cfi_def_cfa_offset 88
 1579 0041 57       		pushl	%edi
 1580              		.cfi_def_cfa_offset 92
 1581 0042 8D742424 		leal	36(%esp), %esi
 1582 0046 56       		pushl	%esi
 1583              		.cfi_def_cfa_offset 96
 1584 0047 E8FCFFFF 		call	msObjectInit@PLT
 1584      FF
 1585              	.LVL202:
 1586              		.loc 1 460 3 is_stmt 1 view .LVU476
 1587              		.loc 1 461 3 view .LVU477
 1588              		.loc 1 461 12 is_stmt 0 view .LVU478
 1589 004c 8B44241C 		movl	28(%esp), %eax
 1590 0050 83C40C   		addl	$12, %esp
 1591              		.cfi_def_cfa_offset 84
 1592 0053 50       		pushl	%eax
GAS LISTING /tmp/ccEIekbo.s 			page 31


 1593              		.cfi_def_cfa_offset 88
 1594 0054 55       		pushl	%ebp
 1595              		.cfi_def_cfa_offset 92
 1596 0055 56       		pushl	%esi
 1597              		.cfi_def_cfa_offset 96
 1598 0056 E8FCFFFF 		call	chvprintf
 1598      FF
 1599              	.LVL203:
 1600              		.loc 1 464 3 is_stmt 1 view .LVU479
 1601              		.loc 1 464 9 is_stmt 0 view .LVU480
 1602 005b 8B542434 		movl	52(%esp), %edx
 1603              		.loc 1 464 6 view .LVU481
 1604 005f 83C410   		addl	$16, %esp
 1605              		.cfi_def_cfa_offset 80
 1606 0062 3B542454 		cmpl	84(%esp), %edx
 1607 0066 7304     		jnb	.L141
 1608              		.loc 1 465 5 is_stmt 1 view .LVU482
 1609              		.loc 1 465 17 is_stmt 0 view .LVU483
 1610 0068 C6041700 		movb	$0, (%edi,%edx)
 1611              		.loc 1 469 3 is_stmt 1 view .LVU484
 1612              	.LVL204:
 1613              	.L141:
 1614              		.loc 1 470 1 is_stmt 0 view .LVU485
 1615 006c 8B54242C 		movl	44(%esp), %edx
 1616 0070 652B1514 		subl	%gs:20, %edx
 1616      000000
 1617 0077 7532     		jne	.L146
 1618 0079 83C43C   		addl	$60, %esp
 1619              		.cfi_remember_state
 1620              		.cfi_def_cfa_offset 20
 1621 007c 5B       		popl	%ebx
 1622              		.cfi_restore 3
 1623              		.cfi_def_cfa_offset 16
 1624 007d 5E       		popl	%esi
 1625              		.cfi_restore 6
 1626              		.cfi_def_cfa_offset 12
 1627              	.LVL205:
 1628              		.loc 1 470 1 view .LVU486
 1629 007e 5F       		popl	%edi
 1630              		.cfi_restore 7
 1631              		.cfi_def_cfa_offset 8
 1632 007f 5D       		popl	%ebp
 1633              		.cfi_restore 5
 1634              		.cfi_def_cfa_offset 4
 1635 0080 C3       		ret
 1636              	.LVL206:
 1637              		.p2align 4,,10
 1638 0081 8DB42600 		.p2align 3
 1638      000000
 1639              	.L142:
 1640              		.cfi_restore_state
 1641              		.loc 1 457 3 is_stmt 1 view .LVU487
 1642 0088 6A00     		pushl	$0
 1643              		.cfi_def_cfa_offset 84
 1644 008a 6A00     		pushl	$0
 1645              		.cfi_def_cfa_offset 88
 1646 008c 57       		pushl	%edi
GAS LISTING /tmp/ccEIekbo.s 			page 32


 1647              		.cfi_def_cfa_offset 92
 1648 008d 8D742424 		leal	36(%esp), %esi
 1649 0091 56       		pushl	%esi
 1650              		.cfi_def_cfa_offset 96
 1651 0092 E8FCFFFF 		call	msObjectInit@PLT
 1651      FF
 1652              	.LVL207:
 1653              		.loc 1 460 3 view .LVU488
 1654              		.loc 1 461 3 view .LVU489
 1655              		.loc 1 461 12 is_stmt 0 view .LVU490
 1656 0097 8B44241C 		movl	28(%esp), %eax
 1657 009b 83C40C   		addl	$12, %esp
 1658              		.cfi_def_cfa_offset 84
 1659 009e 50       		pushl	%eax
 1660              		.cfi_def_cfa_offset 88
 1661 009f 55       		pushl	%ebp
 1662              		.cfi_def_cfa_offset 92
 1663 00a0 56       		pushl	%esi
 1664              		.cfi_def_cfa_offset 96
 1665 00a1 E8FCFFFF 		call	chvprintf
 1665      FF
 1666              	.LVL208:
 1667              		.loc 1 464 3 is_stmt 1 view .LVU491
 1668              		.loc 1 461 12 is_stmt 0 view .LVU492
 1669 00a6 83C410   		addl	$16, %esp
 1670              		.cfi_def_cfa_offset 80
 1671 00a9 EBC1     		jmp	.L141
 1672              	.LVL209:
 1673              	.L146:
 1674              		.loc 1 470 1 view .LVU493
 1675 00ab E8FCFFFF 		call	__stack_chk_fail_local
 1675      FF
 1676              	.LVL210:
 1677              		.loc 1 470 1 view .LVU494
 1678              		.cfi_endproc
 1679              	.LFE304:
 1680              		.size	chvsnprintf, .-chvsnprintf
 1681              		.section	.text.__x86.get_pc_thunk.ax,"axG",@progbits,__x86.get_pc_thunk.ax,comdat
 1682              		.globl	__x86.get_pc_thunk.ax
 1683              		.hidden	__x86.get_pc_thunk.ax
 1684              		.type	__x86.get_pc_thunk.ax, @function
 1685              	__x86.get_pc_thunk.ax:
 1686              	.LFB306:
 1687              		.cfi_startproc
 1688 0000 8B0424   		movl	(%esp), %eax
 1689 0003 C3       		ret
 1690              		.cfi_endproc
 1691              	.LFE306:
 1692              		.section	.text.__x86.get_pc_thunk.bx,"axG",@progbits,__x86.get_pc_thunk.bx,comdat
 1693              		.globl	__x86.get_pc_thunk.bx
 1694              		.hidden	__x86.get_pc_thunk.bx
 1695              		.type	__x86.get_pc_thunk.bx, @function
 1696              	__x86.get_pc_thunk.bx:
 1697              	.LFB307:
 1698              		.cfi_startproc
 1699 0000 8B1C24   		movl	(%esp), %ebx
 1700 0003 C3       		ret
GAS LISTING /tmp/ccEIekbo.s 			page 33


 1701              		.cfi_endproc
 1702              	.LFE307:
 1703              		.text
 1704              	.Letext0:
 1705              		.file 2 "/usr/lib/gcc/x86_64-linux-gnu/11/include/stddef.h"
 1706              		.file 3 "/usr/include/bits/types.h"
 1707              		.file 4 "/usr/include/bits/stdint-intn.h"
 1708              		.file 5 "/usr/include/bits/stdint-uintn.h"
 1709              		.file 6 "../../../os/common/ports/SIMIA32/compilers/GCC/chtypes.h"
 1710              		.file 7 "/usr/lib/gcc/x86_64-linux-gnu/11/include/stdarg.h"
 1711              		.file 8 "../../../os/hal/include/hal_streams.h"
 1712              		.file 9 "../../../os/hal/lib/streams/memstreams.h"
 6626 004d 2F686F6D 		.section	.note.GNU-stack,"",@progbits
 6626      652F616C 
 6626      65782F43 
 6626      68696269 
 6626      4F532F64 
GAS LISTING /tmp/ccEIekbo.s 			page 122

