GAS LISTING /tmp/ccbAsKlD.s 			page 1


   1              		.file	"chtm.c"
   2              		.text
   3              	.Ltext0:
   4              		.file 0 "/home/alex/ChibiOS/demos/various/LAB3" "../../../os/rt/src/chtm.c"
   5              		.section	.text.chTMObjectInit,"ax",@progbits
   6              		.p2align 4
   7              		.globl	chTMObjectInit
   8              		.type	chTMObjectInit, @function
   9              	chTMObjectInit:
  10              	.LVL0:
  11              	.LFB216:
  12              		.file 1 "../../../os/rt/src/chtm.c"
  13              		.loc 1 81 46 view -0
  14              		.cfi_startproc
  15              		.loc 1 83 3 view .LVU1
  16              		.loc 1 81 46 is_stmt 0 view .LVU2
  17 0000 8B442404 		movl	4(%esp), %eax
  18              		.loc 1 83 19 view .LVU3
  19 0004 C700FFFF 		movl	$-1, (%eax)
  19      FFFF
  20              		.loc 1 84 3 is_stmt 1 view .LVU4
  21              		.loc 1 84 19 is_stmt 0 view .LVU5
  22 000a C7400400 		movl	$0, 4(%eax)
  22      000000
  23              		.loc 1 85 3 is_stmt 1 view .LVU6
  24              		.loc 1 85 19 is_stmt 0 view .LVU7
  25 0011 C7400800 		movl	$0, 8(%eax)
  25      000000
  26              		.loc 1 86 3 is_stmt 1 view .LVU8
  27              		.loc 1 86 19 is_stmt 0 view .LVU9
  28 0018 C7400C00 		movl	$0, 12(%eax)
  28      000000
  29              		.loc 1 87 3 is_stmt 1 view .LVU10
  30              		.loc 1 87 19 is_stmt 0 view .LVU11
  31 001f C7401000 		movl	$0, 16(%eax)
  31      000000
  32 0026 C7401400 		movl	$0, 20(%eax)
  32      000000
  33              		.loc 1 88 1 view .LVU12
  34 002d C3       		ret
  35              		.cfi_endproc
  36              	.LFE216:
  37              		.size	chTMObjectInit, .-chTMObjectInit
  38              		.section	.text.chTMObjectDispose,"ax",@progbits
  39              		.p2align 4
  40              		.globl	chTMObjectDispose
  41              		.type	chTMObjectDispose, @function
  42              	chTMObjectDispose:
  43              	.LVL1:
  44              	.LFB217:
  45              		.loc 1 105 49 is_stmt 1 view -0
  46              		.cfi_startproc
  47              		.loc 1 107 3 view .LVU14
  48              		.loc 1 107 3 view .LVU15
  49              		.loc 1 107 3 view .LVU16
  50              		.loc 1 112 1 is_stmt 0 view .LVU17
  51 0000 C3       		ret
GAS LISTING /tmp/ccbAsKlD.s 			page 2


  52              		.cfi_endproc
  53              	.LFE217:
  54              		.size	chTMObjectDispose, .-chTMObjectDispose
  55              		.section	.text.chTMStartMeasurementX,"ax",@progbits
  56              		.p2align 4
  57              		.globl	chTMStartMeasurementX
  58              		.type	chTMStartMeasurementX, @function
  59              	chTMStartMeasurementX:
  60              	.LVL2:
  61              	.LFB218:
  62              		.loc 1 122 62 is_stmt 1 view -0
  63              		.cfi_startproc
  64              		.loc 1 124 3 view .LVU19
  65              		.loc 1 122 62 is_stmt 0 view .LVU20
  66 0000 53       		pushl	%ebx
  67              		.cfi_def_cfa_offset 8
  68              		.cfi_offset 3, -8
  69 0001 E8FCFFFF 		call	__x86.get_pc_thunk.bx
  69      FF
  70 0006 81C30200 		addl	$_GLOBAL_OFFSET_TABLE_, %ebx
  70      0000
  71 000c 83EC08   		subl	$8, %esp
  72              		.cfi_def_cfa_offset 16
  73              		.loc 1 124 15 view .LVU21
  74 000f E8FCFFFF 		call	port_rt_get_counter_value@PLT
  74      FF
  75              	.LVL3:
  76              		.loc 1 124 13 view .LVU22
  77 0014 8B542410 		movl	16(%esp), %edx
  78 0018 894208   		movl	%eax, 8(%edx)
  79              		.loc 1 125 1 view .LVU23
  80 001b 83C408   		addl	$8, %esp
  81              		.cfi_def_cfa_offset 8
  82 001e 5B       		popl	%ebx
  83              		.cfi_restore 3
  84              		.cfi_def_cfa_offset 4
  85 001f C3       		ret
  86              		.cfi_endproc
  87              	.LFE218:
  88              		.size	chTMStartMeasurementX, .-chTMStartMeasurementX
  89              		.section	.text.chTMStopMeasurementX,"ax",@progbits
  90              		.p2align 4
  91              		.globl	chTMStopMeasurementX
  92              		.type	chTMStopMeasurementX, @function
  93              	chTMStopMeasurementX:
  94              	.LVL4:
  95              	.LFB219:
  96              		.loc 1 135 61 is_stmt 1 view -0
  97              		.cfi_startproc
  98              		.loc 1 137 3 view .LVU25
  99              		.loc 1 135 61 is_stmt 0 view .LVU26
 100 0000 57       		pushl	%edi
 101              		.cfi_def_cfa_offset 8
 102              		.cfi_offset 7, -8
 103 0001 56       		pushl	%esi
 104              		.cfi_def_cfa_offset 12
 105              		.cfi_offset 6, -12
GAS LISTING /tmp/ccbAsKlD.s 			page 3


 106 0002 53       		pushl	%ebx
 107              		.cfi_def_cfa_offset 16
 108              		.cfi_offset 3, -16
 109              		.loc 1 135 61 view .LVU27
 110 0003 8B742410 		movl	16(%esp), %esi
 111 0007 E8FCFFFF 		call	__x86.get_pc_thunk.bx
 111      FF
 112 000c 81C30200 		addl	$_GLOBAL_OFFSET_TABLE_, %ebx
 112      0000
 113              		.loc 1 137 3 view .LVU28
 114 0012 8B830000 		movl	ch_system@GOT(%ebx), %eax
 114      0000
 115 0018 8B7808   		movl	8(%eax), %edi
 116              		.loc 1 137 16 view .LVU29
 117 001b E8FCFFFF 		call	port_rt_get_counter_value@PLT
 117      FF
 118              	.LVL5:
 119              	.LBB4:
 120              	.LBI4:
 121              		.loc 1 55 20 is_stmt 1 view .LVU30
 122              	.LBB5:
 123              		.loc 1 59 3 view .LVU31
 124              		.loc 1 60 33 is_stmt 0 view .LVU32
 125 0020 037E08   		addl	8(%esi), %edi
 126              	.LVL6:
 127              		.loc 1 61 22 view .LVU33
 128 0023 31DB     		xorl	%ebx, %ebx
 129              		.loc 1 59 9 view .LVU34
 130 0025 83460C01 		addl	$1, 12(%esi)
 131              		.loc 1 60 3 is_stmt 1 view .LVU35
 132              		.loc 1 60 33 is_stmt 0 view .LVU36
 133 0029 29F8     		subl	%edi, %eax
 134              	.LVL7:
 135              		.loc 1 61 19 view .LVU37
 136 002b 014610   		addl	%eax, 16(%esi)
 137              		.loc 1 60 13 view .LVU38
 138 002e 894608   		movl	%eax, 8(%esi)
 139              		.loc 1 61 3 is_stmt 1 view .LVU39
 140              		.loc 1 61 19 is_stmt 0 view .LVU40
 141 0031 115E14   		adcl	%ebx, 20(%esi)
 142              		.loc 1 62 3 is_stmt 1 view .LVU41
 143              		.loc 1 62 6 is_stmt 0 view .LVU42
 144 0034 3B4604   		cmpl	4(%esi), %eax
 145 0037 7603     		jbe	.L7
 146              		.loc 1 63 5 is_stmt 1 view .LVU43
 147              		.loc 1 63 16 is_stmt 0 view .LVU44
 148 0039 894604   		movl	%eax, 4(%esi)
 149              	.L7:
 150              		.loc 1 65 3 is_stmt 1 view .LVU45
 151              		.loc 1 65 6 is_stmt 0 view .LVU46
 152 003c 3B06     		cmpl	(%esi), %eax
 153 003e 7302     		jnb	.L6
 154              		.loc 1 66 5 is_stmt 1 view .LVU47
 155              		.loc 1 66 15 is_stmt 0 view .LVU48
 156 0040 8906     		movl	%eax, (%esi)
 157              	.LVL8:
 158              	.L6:
GAS LISTING /tmp/ccbAsKlD.s 			page 4


 159              		.loc 1 66 15 view .LVU49
 160              	.LBE5:
 161              	.LBE4:
 162              		.loc 1 138 1 view .LVU50
 163 0042 5B       		popl	%ebx
 164              		.cfi_restore 3
 165              		.cfi_def_cfa_offset 12
 166 0043 5E       		popl	%esi
 167              		.cfi_restore 6
 168              		.cfi_def_cfa_offset 8
 169 0044 5F       		popl	%edi
 170              		.cfi_restore 7
 171              		.cfi_def_cfa_offset 4
 172 0045 C3       		ret
 173              		.cfi_endproc
 174              	.LFE219:
 175              		.size	chTMStopMeasurementX, .-chTMStopMeasurementX
 176              		.section	.text.chTMChainMeasurementToX,"ax",@progbits
 177              		.p2align 4
 178              		.globl	chTMChainMeasurementToX
 179              		.type	chTMChainMeasurementToX, @function
 180              	chTMChainMeasurementToX:
 181              	.LVL9:
 182              	.LFB220:
 183              		.loc 1 153 65 is_stmt 1 view -0
 184              		.cfi_startproc
 185              		.loc 1 156 3 view .LVU52
 186              		.loc 1 153 65 is_stmt 0 view .LVU53
 187 0000 56       		pushl	%esi
 188              		.cfi_def_cfa_offset 8
 189              		.cfi_offset 6, -8
 190 0001 53       		pushl	%ebx
 191              		.cfi_def_cfa_offset 12
 192              		.cfi_offset 3, -12
 193 0002 E8FCFFFF 		call	__x86.get_pc_thunk.bx
 193      FF
 194 0007 81C30200 		addl	$_GLOBAL_OFFSET_TABLE_, %ebx
 194      0000
 195 000d 83EC04   		subl	$4, %esp
 196              		.cfi_def_cfa_offset 16
 197              		.loc 1 153 65 view .LVU54
 198 0010 8B742410 		movl	16(%esp), %esi
 199              		.loc 1 156 17 view .LVU55
 200 0014 E8FCFFFF 		call	port_rt_get_counter_value@PLT
 200      FF
 201              	.LVL10:
 202              		.loc 1 160 3 is_stmt 1 view .LVU56
 203              	.LBB8:
 204              	.LBI8:
 205              		.loc 1 55 20 view .LVU57
 206              	.LBB9:
 207              		.loc 1 59 3 view .LVU58
 208              		.loc 1 61 22 is_stmt 0 view .LVU59
 209 0019 31DB     		xorl	%ebx, %ebx
 210              		.loc 1 59 9 view .LVU60
 211 001b 83460C01 		addl	$1, 12(%esi)
 212              		.loc 1 60 3 is_stmt 1 view .LVU61
GAS LISTING /tmp/ccbAsKlD.s 			page 5


 213              		.loc 1 60 20 is_stmt 0 view .LVU62
 214 001f 89C2     		movl	%eax, %edx
 215 0021 2B5608   		subl	8(%esi), %edx
 216              		.loc 1 61 19 view .LVU63
 217 0024 015610   		addl	%edx, 16(%esi)
 218              		.loc 1 60 13 view .LVU64
 219 0027 895608   		movl	%edx, 8(%esi)
 220              		.loc 1 61 3 is_stmt 1 view .LVU65
 221              		.loc 1 61 19 is_stmt 0 view .LVU66
 222 002a 115E14   		adcl	%ebx, 20(%esi)
 223              		.loc 1 62 3 is_stmt 1 view .LVU67
 224              		.loc 1 62 6 is_stmt 0 view .LVU68
 225 002d 3B5604   		cmpl	4(%esi), %edx
 226 0030 7603     		jbe	.L11
 227              		.loc 1 63 5 is_stmt 1 view .LVU69
 228              		.loc 1 63 16 is_stmt 0 view .LVU70
 229 0032 895604   		movl	%edx, 4(%esi)
 230              	.L11:
 231              		.loc 1 65 3 is_stmt 1 view .LVU71
 232              		.loc 1 65 6 is_stmt 0 view .LVU72
 233 0035 3B16     		cmpl	(%esi), %edx
 234 0037 7302     		jnb	.L12
 235              		.loc 1 66 5 is_stmt 1 view .LVU73
 236              		.loc 1 66 15 is_stmt 0 view .LVU74
 237 0039 8916     		movl	%edx, (%esi)
 238              	.L12:
 239              	.LVL11:
 240              		.loc 1 66 15 view .LVU75
 241              	.LBE9:
 242              	.LBE8:
 243              		.loc 1 161 3 is_stmt 1 view .LVU76
 244              		.loc 1 161 14 is_stmt 0 view .LVU77
 245 003b 8B542414 		movl	20(%esp), %edx
 246 003f 894208   		movl	%eax, 8(%edx)
 247              		.loc 1 162 1 view .LVU78
 248 0042 83C404   		addl	$4, %esp
 249              		.cfi_def_cfa_offset 12
 250 0045 5B       		popl	%ebx
 251              		.cfi_restore 3
 252              		.cfi_def_cfa_offset 8
 253 0046 5E       		popl	%esi
 254              		.cfi_restore 6
 255              		.cfi_def_cfa_offset 4
 256 0047 C3       		ret
 257              		.cfi_endproc
 258              	.LFE220:
 259              		.size	chTMChainMeasurementToX, .-chTMChainMeasurementToX
 260              		.section	.text.__x86.get_pc_thunk.bx,"axG",@progbits,__x86.get_pc_thunk.bx,comdat
 261              		.globl	__x86.get_pc_thunk.bx
 262              		.hidden	__x86.get_pc_thunk.bx
 263              		.type	__x86.get_pc_thunk.bx, @function
 264              	__x86.get_pc_thunk.bx:
 265              	.LFB221:
 266              		.cfi_startproc
 267 0000 8B1C24   		movl	(%esp), %ebx
 268 0003 C3       		ret
 269              		.cfi_endproc
GAS LISTING /tmp/ccbAsKlD.s 			page 6


 270              	.LFE221:
 271              		.text
 272              	.Letext0:
 273              		.file 2 "/usr/include/bits/types.h"
 274              		.file 3 "/usr/include/bits/stdint-intn.h"
 275              		.file 4 "/usr/include/bits/stdint-uintn.h"
 276              		.file 5 "../../../os/common/ports/SIMIA32/compilers/GCC/chtypes.h"
 277              		.file 6 "../../../os/rt/include/chearly.h"
 278              		.file 7 "../../../os/rt/include/chobjects.h"
 279              		.file 8 "../../../os/rt/include/chrfcu.h"
 280              		.file 9 "../../../os/rt/include/chdebug.h"
 281              		.file 10 "../../../os/rt/include/chtime.h"
 282              		.file 11 "../../../os/rt/include/chlists.h"
 283              		.file 12 "../../../os/common/ports/SIMIA32/chcore.h"
 284              		.file 13 "../../../os/rt/include/chtm.h"
 285              		.file 14 "../../../os/rt/include/chsem.h"
 286              		.file 15 "../../../os/rt/include/chmtx.h"
 287              		.file 16 "../../../os/rt/include/chsys.h"
 2596 0040 2F686F6D 		.section	.note.GNU-stack,"",@progbits
 2596      652F616C 
 2596      65782F43 
 2596      68696269 
 2596      4F532F64 
GAS LISTING /tmp/ccbAsKlD.s 			page 53

