GAS LISTING /tmp/ccuvcQSy.s 			page 1


   1              		.file	"oslib_test_sequence_003.c"
   2              		.text
   3              	.Ltext0:
   4              		.file 0 "/home/alex/ChibiOS/demos/various/LAB3" "../../../test/oslib/source/test/oslib_test_sequen
   5              		.section	.rodata.oslib_test_003_002_execute.str1.1,"aMS",@progbits,1
   6              	.LC0:
   7 0000 77726F6E 		.string	"wrong size"
   7      67207369 
   7      7A6500
   8              	.LC1:
   9 000b 696E7661 		.string	"invalid pipe state"
   9      6C696420 
   9      70697065 
   9      20737461 
   9      746500
  10              		.section	.text.oslib_test_003_002_execute,"ax",@progbits
  11              		.p2align 4
  12              		.type	oslib_test_003_002_execute, @function
  13              	oslib_test_003_002_execute:
  14              	.LFB318:
  15              		.file 1 "../../../test/oslib/source/test/oslib_test_sequence_003.c"
  16              		.loc 1 320 46 view -0
  17              		.cfi_startproc
  18 0000 55       		pushl	%ebp
  19              		.cfi_def_cfa_offset 8
  20              		.cfi_offset 5, -8
  21 0001 57       		pushl	%edi
  22              		.cfi_def_cfa_offset 12
  23              		.cfi_offset 7, -12
  24 0002 56       		pushl	%esi
  25              		.cfi_def_cfa_offset 16
  26              		.cfi_offset 6, -16
  27 0003 53       		pushl	%ebx
  28              		.cfi_def_cfa_offset 20
  29              		.cfi_offset 3, -20
  30 0004 E8FCFFFF 		call	__x86.get_pc_thunk.bx
  30      FF
  31 0009 81C30200 		addl	$_GLOBAL_OFFSET_TABLE_, %ebx
  31      0000
  32 000f 83EC3C   		subl	$60, %esp
  33              		.cfi_def_cfa_offset 80
  34              		.loc 1 320 46 is_stmt 0 view .LVU1
  35 0012 65A11400 		movl	%gs:20, %eax
  35      0000
  36 0018 8944242C 		movl	%eax, 44(%esp)
  37 001c 31C0     		xorl	%eax, %eax
  38              		.loc 1 323 3 is_stmt 1 view .LVU2
  39              	.LBB30:
  40              		.loc 1 328 9 is_stmt 0 view .LVU3
  41 001e 6A00     		pushl	$0
  42              		.cfi_def_cfa_offset 84
  43 0020 6A10     		pushl	$16
  44              		.cfi_def_cfa_offset 88
  45 0022 8DBB0000 		leal	pipe1@GOTOFF(%ebx), %edi
  45      0000
  46              	.LBE30:
  47              		.loc 1 323 3 view .LVU4
GAS LISTING /tmp/ccuvcQSy.s 			page 2


  48 0028 8BAB0000 		movl	chtest@GOT(%ebx), %ebp
  48      0000
  49              	.LBB31:
  50              		.loc 1 329 5 view .LVU5
  51 002e 8DB30000 		leal	.LC0@GOTOFF(%ebx), %esi
  51      0000
  52              		.loc 1 328 9 view .LVU6
  53 0034 8D442424 		leal	36(%esp), %eax
  54 0038 50       		pushl	%eax
  55              		.cfi_def_cfa_offset 92
  56 0039 57       		pushl	%edi
  57              		.cfi_def_cfa_offset 96
  58              	.LBE31:
  59              		.loc 1 323 3 view .LVU7
  60 003a C7450001 		movl	$1, 0(%ebp)
  60      000000
  61              	.LBB32:
  62              		.loc 1 325 5 is_stmt 1 view .LVU8
  63              		.loc 1 326 5 view .LVU9
  64              		.loc 1 328 5 view .LVU10
  65              		.loc 1 328 9 is_stmt 0 view .LVU11
  66 0041 E8FCFFFF 		call	chPipeReadTimeout@PLT
  66      FF
  67              	.LVL0:
  68              		.loc 1 329 5 is_stmt 1 view .LVU12
  69 0046 5A       		popl	%edx
  70              		.cfi_def_cfa_offset 92
  71 0047 59       		popl	%ecx
  72              		.cfi_def_cfa_offset 88
  73 0048 56       		pushl	%esi
  74              		.cfi_def_cfa_offset 92
  75 0049 85C0     		testl	%eax, %eax
  76 004b 0F94C0   		sete	%al
  77              	.LVL1:
  78              		.loc 1 329 5 is_stmt 0 view .LVU13
  79 004e 0FB6C0   		movzbl	%al, %eax
  80 0051 50       		pushl	%eax
  81              		.cfi_def_cfa_offset 96
  82 0052 E8FCFFFF 		call	__test_assert@PLT
  82      FF
  83              	.LVL2:
  84 0057 83C410   		addl	$16, %esp
  85              		.cfi_def_cfa_offset 80
  86 005a 84C0     		testb	%al, %al
  87 005c 752F     		jne	.L1
  88              		.loc 1 329 38 is_stmt 1 discriminator 2 view .LVU14
  89              		.loc 1 330 5 discriminator 2 view .LVU15
  90 005e 8B830000 		movl	pipe1@GOTOFF(%ebx), %eax
  90      0000
  91 0064 31D2     		xorl	%edx, %edx
  92 0066 39830C00 		cmpl	%eax, 12+pipe1@GOTOFF(%ebx)
  92      0000
  93 006c 0F849600 		je	.L14
  93      0000
  94              	.L3:
  95              		.loc 1 330 5 is_stmt 0 discriminator 8 view .LVU16
  96 0072 83EC08   		subl	$8, %esp
GAS LISTING /tmp/ccuvcQSy.s 			page 3


  97              		.cfi_def_cfa_offset 88
  98 0075 8D830000 		leal	.LC1@GOTOFF(%ebx), %eax
  98      0000
  99 007b 89442414 		movl	%eax, 20(%esp)
 100 007f 50       		pushl	%eax
 101              		.cfi_def_cfa_offset 92
 102 0080 52       		pushl	%edx
 103              		.cfi_def_cfa_offset 96
 104 0081 E8FCFFFF 		call	__test_assert@PLT
 104      FF
 105              	.LVL3:
 106 0086 83C410   		addl	$16, %esp
 107              		.cfi_def_cfa_offset 80
 108 0089 84C0     		testb	%al, %al
 109 008b 7423     		je	.L15
 110              	.L1:
 111              	.LBE32:
 112              		.loc 1 350 1 view .LVU17
 113 008d 8B44242C 		movl	44(%esp), %eax
 114 0091 652B0514 		subl	%gs:20, %eax
 114      000000
 115 0098 0F85A800 		jne	.L16
 115      0000
 116 009e 83C43C   		addl	$60, %esp
 117              		.cfi_remember_state
 118              		.cfi_def_cfa_offset 20
 119 00a1 5B       		popl	%ebx
 120              		.cfi_restore 3
 121              		.cfi_def_cfa_offset 16
 122 00a2 5E       		popl	%esi
 123              		.cfi_restore 6
 124              		.cfi_def_cfa_offset 12
 125 00a3 5F       		popl	%edi
 126              		.cfi_restore 7
 127              		.cfi_def_cfa_offset 8
 128 00a4 5D       		popl	%ebp
 129              		.cfi_restore 5
 130              		.cfi_def_cfa_offset 4
 131 00a5 C3       		ret
 132 00a6 8DB42600 		.p2align 4,,10
 132      0000008D 
 132      7600
 133              		.p2align 3
 134              	.L15:
 135              		.cfi_restore_state
 136              	.LBB33:
 137              		.loc 1 333 38 is_stmt 1 view .LVU18
 138              	.LBE33:
 139              		.loc 1 335 3 view .LVU19
 140              		.loc 1 335 19 view .LVU20
 141              		.loc 1 338 3 view .LVU21
 142              	.LBB34:
 143              		.loc 1 342 9 is_stmt 0 view .LVU22
 144 00b0 8D830000 		leal	pipe_pattern@GOTOFF(%ebx), %eax
 144      0000
 145 00b6 6A00     		pushl	$0
 146              		.cfi_def_cfa_offset 84
GAS LISTING /tmp/ccuvcQSy.s 			page 4


 147 00b8 6A10     		pushl	$16
 148              		.cfi_def_cfa_offset 88
 149 00ba 50       		pushl	%eax
 150              		.cfi_def_cfa_offset 92
 151 00bb 57       		pushl	%edi
 152              		.cfi_def_cfa_offset 96
 153              	.LBE34:
 154              		.loc 1 338 3 view .LVU23
 155 00bc C7450002 		movl	$2, 0(%ebp)
 155      000000
 156              	.LBB35:
 157              		.loc 1 340 5 is_stmt 1 view .LVU24
 158              		.loc 1 342 5 view .LVU25
 159              		.loc 1 342 9 is_stmt 0 view .LVU26
 160 00c3 E8FCFFFF 		call	chPipeWriteTimeout@PLT
 160      FF
 161              	.LVL4:
 162              		.loc 1 343 5 is_stmt 1 view .LVU27
 163 00c8 5A       		popl	%edx
 164              		.cfi_def_cfa_offset 92
 165 00c9 59       		popl	%ecx
 166              		.cfi_def_cfa_offset 88
 167 00ca 56       		pushl	%esi
 168              		.cfi_def_cfa_offset 92
 169 00cb 83F808   		cmpl	$8, %eax
 170 00ce 0F94C0   		sete	%al
 171              	.LVL5:
 172              		.loc 1 343 5 is_stmt 0 view .LVU28
 173 00d1 0FB6C0   		movzbl	%al, %eax
 174 00d4 50       		pushl	%eax
 175              		.cfi_def_cfa_offset 96
 176 00d5 E8FCFFFF 		call	__test_assert@PLT
 176      FF
 177              	.LVL6:
 178 00da 83C410   		addl	$16, %esp
 179              		.cfi_def_cfa_offset 80
 180 00dd 84C0     		testb	%al, %al
 181 00df 75AC     		jne	.L1
 182              		.loc 1 343 50 is_stmt 1 view .LVU29
 183              		.loc 1 344 5 view .LVU30
 184 00e1 8B830800 		movl	8+pipe1@GOTOFF(%ebx), %eax
 184      0000
 185 00e7 31D2     		xorl	%edx, %edx
 186 00e9 39830C00 		cmpl	%eax, 12+pipe1@GOTOFF(%ebx)
 186      0000
 187 00ef 743F     		je	.L17
 188              	.L6:
 189              		.loc 1 344 5 is_stmt 0 discriminator 8 view .LVU31
 190 00f1 83EC08   		subl	$8, %esp
 191              		.cfi_def_cfa_offset 88
 192 00f4 FF742414 		pushl	20(%esp)
 193              		.cfi_def_cfa_offset 92
 194 00f8 52       		pushl	%edx
 195              		.cfi_def_cfa_offset 96
 196 00f9 E8FCFFFF 		call	__test_assert@PLT
 196      FF
 197              	.LVL7:
GAS LISTING /tmp/ccuvcQSy.s 			page 5


 198 00fe 83C410   		addl	$16, %esp
 199              		.cfi_def_cfa_offset 80
 200              		.loc 1 347 38 is_stmt 1 discriminator 8 view .LVU32
 201              	.LBE35:
 202              		.loc 1 349 3 discriminator 8 view .LVU33
 203              		.loc 1 349 19 discriminator 8 view .LVU34
 204              	.LBB36:
 205 0101 EB8A     		jmp	.L1
 206              		.p2align 4,,10
 207 0103 8D742600 		.p2align 3
 207      90
 208              	.L14:
 209              		.loc 1 349 19 is_stmt 0 discriminator 8 view .LVU35
 210              	.LBE36:
 211              	.LBB37:
 212              		.loc 1 330 5 discriminator 1 view .LVU36
 213 0108 3B830800 		cmpl	8+pipe1@GOTOFF(%ebx), %eax
 213      0000
 214 010e 0F855EFF 		jne	.L3
 214      FFFF
 215              		.loc 1 330 5 discriminator 3 view .LVU37
 216 0114 8B831000 		movl	16+pipe1@GOTOFF(%ebx), %eax
 216      0000
 217 011a 31D2     		xorl	%edx, %edx
 218 011c 85C0     		testl	%eax, %eax
 219 011e 0F94C2   		sete	%dl
 220 0121 E94CFFFF 		jmp	.L3
 220      FF
 221 0126 8DB42600 		.p2align 4,,10
 221      0000008D 
 221      7600
 222              		.p2align 3
 223              	.L17:
 224              		.loc 1 330 5 discriminator 3 view .LVU38
 225              	.LBE37:
 226              	.LBB38:
 227              		.loc 1 344 5 discriminator 1 view .LVU39
 228 0130 3B830000 		cmpl	pipe1@GOTOFF(%ebx), %eax
 228      0000
 229 0136 75B9     		jne	.L6
 230              		.loc 1 344 5 discriminator 3 view .LVU40
 231 0138 31D2     		xorl	%edx, %edx
 232 013a 83BB1000 		cmpl	$8, 16+pipe1@GOTOFF(%ebx)
 232      000008
 233 0141 0F94C2   		sete	%dl
 234 0144 EBAB     		jmp	.L6
 235              	.L16:
 236              		.loc 1 344 5 discriminator 3 view .LVU41
 237              	.LBE38:
 238              		.loc 1 350 1 view .LVU42
 239 0146 E8FCFFFF 		call	__stack_chk_fail_local
 239      FF
 240              	.LVL8:
 241              		.cfi_endproc
 242              	.LFE318:
 243              		.size	oslib_test_003_002_execute, .-oslib_test_003_002_execute
 244              		.section	.text.oslib_test_003_002_setup,"ax",@progbits
GAS LISTING /tmp/ccuvcQSy.s 			page 6


 245              		.p2align 4
 246              		.type	oslib_test_003_002_setup, @function
 247              	oslib_test_003_002_setup:
 248              	.LFB317:
 249              		.loc 1 316 44 is_stmt 1 view -0
 250              		.cfi_startproc
 251              		.loc 1 317 3 view .LVU44
 252              		.loc 1 316 44 is_stmt 0 view .LVU45
 253 0000 53       		pushl	%ebx
 254              		.cfi_def_cfa_offset 8
 255              		.cfi_offset 3, -8
 256 0001 E8FCFFFF 		call	__x86.get_pc_thunk.bx
 256      FF
 257 0006 81C30200 		addl	$_GLOBAL_OFFSET_TABLE_, %ebx
 257      0000
 258 000c 83EC0C   		subl	$12, %esp
 259              		.cfi_def_cfa_offset 20
 260              		.loc 1 317 3 view .LVU46
 261 000f 6A08     		pushl	$8
 262              		.cfi_def_cfa_offset 24
 263 0011 8D830000 		leal	buffer@GOTOFF(%ebx), %eax
 263      0000
 264 0017 50       		pushl	%eax
 265              		.cfi_def_cfa_offset 28
 266 0018 8D830000 		leal	pipe1@GOTOFF(%ebx), %eax
 266      0000
 267 001e 50       		pushl	%eax
 268              		.cfi_def_cfa_offset 32
 269 001f E8FCFFFF 		call	chPipeObjectInit@PLT
 269      FF
 270              	.LVL9:
 271              		.loc 1 318 1 view .LVU47
 272 0024 83C418   		addl	$24, %esp
 273              		.cfi_def_cfa_offset 8
 274 0027 5B       		popl	%ebx
 275              		.cfi_restore 3
 276              		.cfi_def_cfa_offset 4
 277 0028 C3       		ret
 278              		.cfi_endproc
 279              	.LFE317:
 280              		.size	oslib_test_003_002_setup, .-oslib_test_003_002_setup
 281              		.section	.text.oslib_test_003_001_setup,"ax",@progbits
 282              		.p2align 4
 283              		.type	oslib_test_003_001_setup, @function
 284              	oslib_test_003_001_setup:
 285              	.LFB315:
 286              		.loc 1 88 44 is_stmt 1 view -0
 287              		.cfi_startproc
 288              		.loc 1 89 3 view .LVU49
 289              		.loc 1 88 44 is_stmt 0 view .LVU50
 290 0000 53       		pushl	%ebx
 291              		.cfi_def_cfa_offset 8
 292              		.cfi_offset 3, -8
 293 0001 E8FCFFFF 		call	__x86.get_pc_thunk.bx
 293      FF
 294 0006 81C30200 		addl	$_GLOBAL_OFFSET_TABLE_, %ebx
 294      0000
GAS LISTING /tmp/ccuvcQSy.s 			page 7


 295 000c 83EC0C   		subl	$12, %esp
 296              		.cfi_def_cfa_offset 20
 297              		.loc 1 89 3 view .LVU51
 298 000f 6A10     		pushl	$16
 299              		.cfi_def_cfa_offset 24
 300 0011 8D830000 		leal	buffer@GOTOFF(%ebx), %eax
 300      0000
 301 0017 50       		pushl	%eax
 302              		.cfi_def_cfa_offset 28
 303 0018 8D830000 		leal	pipe1@GOTOFF(%ebx), %eax
 303      0000
 304 001e 50       		pushl	%eax
 305              		.cfi_def_cfa_offset 32
 306 001f E8FCFFFF 		call	chPipeObjectInit@PLT
 306      FF
 307              	.LVL10:
 308              		.loc 1 90 1 view .LVU52
 309 0024 83C418   		addl	$24, %esp
 310              		.cfi_def_cfa_offset 8
 311 0027 5B       		popl	%ebx
 312              		.cfi_restore 3
 313              		.cfi_def_cfa_offset 4
 314 0028 C3       		ret
 315              		.cfi_endproc
 316              	.LFE315:
 317              		.size	oslib_test_003_001_setup, .-oslib_test_003_001_setup
 318              		.section	.rodata.oslib_test_003_001_execute.str1.1,"aMS",@progbits,1
 319              	.LC2:
 320 0000 6E6F7420 		.string	"not reset"
 320      72657365 
 320      7400
 321              	.LC3:
 322 000a 636F6E74 		.string	"content mismatch"
 322      656E7420 
 322      6D69736D 
 322      61746368 
 322      00
 323              		.section	.text.oslib_test_003_001_execute,"ax",@progbits
 324              		.p2align 4
 325              		.type	oslib_test_003_001_execute, @function
 326              	oslib_test_003_001_execute:
 327              	.LFB316:
 328              		.loc 1 92 46 is_stmt 1 view -0
 329              		.cfi_startproc
 330 0000 55       		pushl	%ebp
 331              		.cfi_def_cfa_offset 8
 332              		.cfi_offset 5, -8
 333 0001 57       		pushl	%edi
 334              		.cfi_def_cfa_offset 12
 335              		.cfi_offset 7, -12
 336 0002 56       		pushl	%esi
 337              		.cfi_def_cfa_offset 16
 338              		.cfi_offset 6, -16
 339 0003 53       		pushl	%ebx
 340              		.cfi_def_cfa_offset 20
 341              		.cfi_offset 3, -20
 342 0004 E8FCFFFF 		call	__x86.get_pc_thunk.bx
GAS LISTING /tmp/ccuvcQSy.s 			page 8


 342      FF
 343 0009 81C30200 		addl	$_GLOBAL_OFFSET_TABLE_, %ebx
 343      0000
 344 000f 83EC48   		subl	$72, %esp
 345              		.cfi_def_cfa_offset 92
 346              		.loc 1 92 46 is_stmt 0 view .LVU54
 347 0012 65A11400 		movl	%gs:20, %eax
 347      0000
 348 0018 89442438 		movl	%eax, 56(%esp)
 349 001c 31C0     		xorl	%eax, %eax
 350              		.loc 1 95 3 is_stmt 1 view .LVU55
 351 001e 8BB30000 		movl	chtest@GOT(%ebx), %esi
 351      0000
 352              		.loc 1 97 5 is_stmt 0 view .LVU56
 353 0024 8DBB0000 		leal	pipe1@GOTOFF(%ebx), %edi
 353      0000
 354              		.loc 1 95 3 view .LVU57
 355 002a C7060100 		movl	$1, (%esi)
 355      0000
 356              		.loc 1 97 5 is_stmt 1 view .LVU58
 357 0030 57       		pushl	%edi
 358              		.cfi_def_cfa_offset 96
 359 0031 E8FCFFFF 		call	chPipeReset@PLT
 359      FF
 360              	.LVL11:
 361              		.loc 1 99 5 view .LVU59
 362 0036 8B830000 		movl	pipe1@GOTOFF(%ebx), %eax
 362      0000
 363 003c 83C410   		addl	$16, %esp
 364              		.cfi_def_cfa_offset 80
 365 003f 31D2     		xorl	%edx, %edx
 366 0041 39830C00 		cmpl	%eax, 12+pipe1@GOTOFF(%ebx)
 366      0000
 367 0047 0F84D305 		je	.L84
 367      0000
 368              	.L23:
 369              		.loc 1 99 5 is_stmt 0 discriminator 8 view .LVU60
 370 004d 83EC08   		subl	$8, %esp
 371              		.cfi_def_cfa_offset 88
 372 0050 8DAB0000 		leal	.LC1@GOTOFF(%ebx), %ebp
 372      0000
 373 0056 55       		pushl	%ebp
 374              		.cfi_def_cfa_offset 92
 375 0057 52       		pushl	%edx
 376              		.cfi_def_cfa_offset 96
 377 0058 E8FCFFFF 		call	__test_assert@PLT
 377      FF
 378              	.LVL12:
 379 005d 83C410   		addl	$16, %esp
 380              		.cfi_def_cfa_offset 80
 381 0060 84C0     		testb	%al, %al
 382 0062 741C     		je	.L85
 383              	.L22:
 384              		.loc 1 295 1 view .LVU61
 385 0064 8B44242C 		movl	44(%esp), %eax
 386 0068 652B0514 		subl	%gs:20, %eax
 386      000000
GAS LISTING /tmp/ccuvcQSy.s 			page 9


 387 006f 0F859406 		jne	.L86
 387      0000
 388 0075 83C43C   		addl	$60, %esp
 389              		.cfi_remember_state
 390              		.cfi_def_cfa_offset 20
 391 0078 5B       		popl	%ebx
 392              		.cfi_restore 3
 393              		.cfi_def_cfa_offset 16
 394 0079 5E       		popl	%esi
 395              		.cfi_restore 6
 396              		.cfi_def_cfa_offset 12
 397 007a 5F       		popl	%edi
 398              		.cfi_restore 7
 399              		.cfi_def_cfa_offset 8
 400 007b 5D       		popl	%ebp
 401              		.cfi_restore 5
 402              		.cfi_def_cfa_offset 4
 403 007c C3       		ret
 404 007d 8D7600   		.p2align 4,,10
 405              		.p2align 3
 406              	.L85:
 407              		.cfi_restore_state
 408              	.LBB55:
 409              	.LBI55:
 410              		.loc 1 92 13 is_stmt 1 view .LVU62
 411              	.LBB56:
 412              		.loc 1 102 38 view .LVU63
 413              		.loc 1 104 3 view .LVU64
 414              		.loc 1 104 19 view .LVU65
 415              		.loc 1 107 3 view .LVU66
 416 0080 C7060200 		movl	$2, (%esi)
 416      0000
 417              	.LBB57:
 418              		.loc 1 109 5 view .LVU67
 419              		.loc 1 111 5 view .LVU68
 420              		.loc 1 111 9 is_stmt 0 view .LVU69
 421 0086 8D830000 		leal	pipe_pattern@GOTOFF(%ebx), %eax
 421      0000
 422 008c 6A00     		pushl	$0
 423              		.cfi_def_cfa_offset 84
 424 008e 6A10     		pushl	$16
 425              		.cfi_def_cfa_offset 88
 426 0090 8944240C 		movl	%eax, 12(%esp)
 427 0094 50       		pushl	%eax
 428              		.cfi_def_cfa_offset 92
 429 0095 57       		pushl	%edi
 430              		.cfi_def_cfa_offset 96
 431 0096 E8FCFFFF 		call	chPipeWriteTimeout@PLT
 431      FF
 432              	.LVL13:
 433              		.loc 1 112 5 is_stmt 1 view .LVU70
 434 009b 5A       		popl	%edx
 435              		.cfi_def_cfa_offset 92
 436 009c 59       		popl	%ecx
 437              		.cfi_def_cfa_offset 88
 438 009d 8D8B0000 		leal	.LC2@GOTOFF(%ebx), %ecx
 438      0000
GAS LISTING /tmp/ccuvcQSy.s 			page 10


 439 00a3 85C0     		testl	%eax, %eax
 440 00a5 894C2408 		movl	%ecx, 8(%esp)
 441 00a9 0F94C0   		sete	%al
 442              	.LVL14:
 443              		.loc 1 112 5 is_stmt 0 view .LVU71
 444 00ac 51       		pushl	%ecx
 445              		.cfi_def_cfa_offset 92
 446 00ad 0FB6C0   		movzbl	%al, %eax
 447 00b0 50       		pushl	%eax
 448              		.cfi_def_cfa_offset 96
 449 00b1 E8FCFFFF 		call	__test_assert@PLT
 449      FF
 450              	.LVL15:
 451 00b6 83C410   		addl	$16, %esp
 452              		.cfi_def_cfa_offset 80
 453 00b9 84C0     		testb	%al, %al
 454 00bb 75A7     		jne	.L22
 455              		.loc 1 112 37 is_stmt 1 view .LVU72
 456              		.loc 1 113 5 view .LVU73
 457 00bd 8B830000 		movl	pipe1@GOTOFF(%ebx), %eax
 457      0000
 458 00c3 31D2     		xorl	%edx, %edx
 459 00c5 39830C00 		cmpl	%eax, 12+pipe1@GOTOFF(%ebx)
 459      0000
 460 00cb 0F846F05 		je	.L87
 460      0000
 461              	.L27:
 462 00d1 83EC08   		subl	$8, %esp
 463              		.cfi_def_cfa_offset 88
 464 00d4 55       		pushl	%ebp
 465              		.cfi_def_cfa_offset 92
 466 00d5 52       		pushl	%edx
 467              		.cfi_def_cfa_offset 96
 468 00d6 E8FCFFFF 		call	__test_assert@PLT
 468      FF
 469              	.LVL16:
 470 00db 83C410   		addl	$16, %esp
 471              		.cfi_def_cfa_offset 80
 472 00de 84C0     		testb	%al, %al
 473 00e0 7582     		jne	.L22
 474              		.loc 1 116 38 view .LVU74
 475              	.LBE57:
 476              		.loc 1 118 3 view .LVU75
 477              		.loc 1 118 19 view .LVU76
 478              		.loc 1 121 3 view .LVU77
 479 00e2 C7060300 		movl	$3, (%esi)
 479      0000
 480              	.LBB58:
 481              		.loc 1 123 5 view .LVU78
 482              		.loc 1 124 5 view .LVU79
 483              		.loc 1 126 5 view .LVU80
 484              		.loc 1 126 9 is_stmt 0 view .LVU81
 485 00e8 6A00     		pushl	$0
 486              		.cfi_def_cfa_offset 84
 487 00ea 6A10     		pushl	$16
 488              		.cfi_def_cfa_offset 88
 489 00ec 8D442424 		leal	36(%esp), %eax
GAS LISTING /tmp/ccuvcQSy.s 			page 11


 490 00f0 89442410 		movl	%eax, 16(%esp)
 491 00f4 50       		pushl	%eax
 492              		.cfi_def_cfa_offset 92
 493 00f5 57       		pushl	%edi
 494              		.cfi_def_cfa_offset 96
 495 00f6 E8FCFFFF 		call	chPipeReadTimeout@PLT
 495      FF
 496              	.LVL17:
 497              		.loc 1 127 5 is_stmt 1 view .LVU82
 498 00fb 5A       		popl	%edx
 499              		.cfi_def_cfa_offset 92
 500 00fc 59       		popl	%ecx
 501              		.cfi_def_cfa_offset 88
 502 00fd FF742408 		pushl	8(%esp)
 503              		.cfi_def_cfa_offset 92
 504 0101 85C0     		testl	%eax, %eax
 505 0103 0F94C0   		sete	%al
 506              	.LVL18:
 507              		.loc 1 127 5 is_stmt 0 view .LVU83
 508 0106 0FB6C0   		movzbl	%al, %eax
 509 0109 50       		pushl	%eax
 510              		.cfi_def_cfa_offset 96
 511 010a E8FCFFFF 		call	__test_assert@PLT
 511      FF
 512              	.LVL19:
 513 010f 83C410   		addl	$16, %esp
 514              		.cfi_def_cfa_offset 80
 515 0112 84C0     		testb	%al, %al
 516 0114 0F854AFF 		jne	.L22
 516      FFFF
 517              		.loc 1 127 37 is_stmt 1 view .LVU84
 518              		.loc 1 128 5 view .LVU85
 519 011a 8B830000 		movl	pipe1@GOTOFF(%ebx), %eax
 519      0000
 520 0120 31D2     		xorl	%edx, %edx
 521 0122 39830C00 		cmpl	%eax, 12+pipe1@GOTOFF(%ebx)
 521      0000
 522 0128 0F845205 		je	.L88
 522      0000
 523              	.L29:
 524 012e 83EC08   		subl	$8, %esp
 525              		.cfi_def_cfa_offset 88
 526 0131 55       		pushl	%ebp
 527              		.cfi_def_cfa_offset 92
 528 0132 52       		pushl	%edx
 529              		.cfi_def_cfa_offset 96
 530 0133 E8FCFFFF 		call	__test_assert@PLT
 530      FF
 531              	.LVL20:
 532 0138 83C410   		addl	$16, %esp
 533              		.cfi_def_cfa_offset 80
 534 013b 84C0     		testb	%al, %al
 535 013d 0F8521FF 		jne	.L22
 535      FFFF
 536              		.loc 1 131 38 view .LVU86
 537              	.LBE58:
 538              		.loc 1 133 3 view .LVU87
GAS LISTING /tmp/ccuvcQSy.s 			page 12


 539              		.loc 1 133 19 view .LVU88
 540              		.loc 1 136 3 view .LVU89
 541 0143 C7060400 		movl	$4, (%esi)
 541      0000
 542              		.loc 1 138 5 view .LVU90
 543              	.LVL21:
 544              	.LBB59:
 545              	.LBI59:
 546              		.file 2 "../../../os/oslib/include/chpipes.h"
 547              		.loc 2 199 20 view .LVU91
 548              	.LBB60:
 549              		.loc 2 201 3 view .LVU92
 550              	.LBE60:
 551              	.LBE59:
 552              		.loc 1 139 5 is_stmt 0 view .LVU93
 553 0149 8B830000 		movl	pipe1@GOTOFF(%ebx), %eax
 553      0000
 554 014f 31D2     		xorl	%edx, %edx
 555              	.LBB62:
 556              	.LBB61:
 557              		.loc 2 201 13 view .LVU94
 558 0151 C6831400 		movb	$0, 20+pipe1@GOTOFF(%ebx)
 558      000000
 559              	.LVL22:
 560              		.loc 2 201 13 view .LVU95
 561              	.LBE61:
 562              	.LBE62:
 563              		.loc 1 139 5 is_stmt 1 view .LVU96
 564 0158 39830C00 		cmpl	%eax, 12+pipe1@GOTOFF(%ebx)
 564      0000
 565 015e 0F84FC04 		je	.L30
 565      0000
 566              	.L31:
 567 0164 83EC08   		subl	$8, %esp
 568              		.cfi_def_cfa_offset 88
 569 0167 55       		pushl	%ebp
 570              		.cfi_def_cfa_offset 92
 571 0168 52       		pushl	%edx
 572              		.cfi_def_cfa_offset 96
 573 0169 E8FCFFFF 		call	__test_assert@PLT
 573      FF
 574              	.LVL23:
 575 016e 83C410   		addl	$16, %esp
 576              		.cfi_def_cfa_offset 80
 577 0171 84C0     		testb	%al, %al
 578 0173 0F85EBFE 		jne	.L22
 578      FFFF
 579              		.loc 1 142 38 view .LVU97
 580              		.loc 1 144 3 view .LVU98
 581              		.loc 1 144 19 view .LVU99
 582              		.loc 1 147 3 view .LVU100
 583 0179 C7060500 		movl	$5, (%esi)
 583      0000
 584              	.LBB63:
 585              		.loc 1 149 5 view .LVU101
 586              		.loc 1 151 5 view .LVU102
 587              		.loc 1 151 9 is_stmt 0 view .LVU103
GAS LISTING /tmp/ccuvcQSy.s 			page 13


 588 017f 6A00     		pushl	$0
 589              		.cfi_def_cfa_offset 84
 590 0181 6A10     		pushl	$16
 591              		.cfi_def_cfa_offset 88
 592 0183 FF74240C 		pushl	12(%esp)
 593              		.cfi_def_cfa_offset 92
 594 0187 57       		pushl	%edi
 595              		.cfi_def_cfa_offset 96
 596 0188 E8FCFFFF 		call	chPipeWriteTimeout@PLT
 596      FF
 597              	.LVL24:
 598              		.loc 1 152 5 is_stmt 1 view .LVU104
 599 018d 5A       		popl	%edx
 600              		.cfi_def_cfa_offset 92
 601 018e 59       		popl	%ecx
 602              		.cfi_def_cfa_offset 88
 603 018f 8D8B0000 		leal	.LC0@GOTOFF(%ebx), %ecx
 603      0000
 604 0195 83F810   		cmpl	$16, %eax
 605 0198 894C2408 		movl	%ecx, 8(%esp)
 606 019c 0F94C0   		sete	%al
 607              	.LVL25:
 608              		.loc 1 152 5 is_stmt 0 view .LVU105
 609 019f 51       		pushl	%ecx
 610              		.cfi_def_cfa_offset 92
 611 01a0 0FB6C0   		movzbl	%al, %eax
 612 01a3 50       		pushl	%eax
 613              		.cfi_def_cfa_offset 96
 614 01a4 E8FCFFFF 		call	__test_assert@PLT
 614      FF
 615              	.LVL26:
 616 01a9 83C410   		addl	$16, %esp
 617              		.cfi_def_cfa_offset 80
 618 01ac 84C0     		testb	%al, %al
 619 01ae 0F85B0FE 		jne	.L22
 619      FFFF
 620              		.loc 1 152 46 is_stmt 1 view .LVU106
 621              		.loc 1 153 5 view .LVU107
 622 01b4 8B830000 		movl	pipe1@GOTOFF(%ebx), %eax
 622      0000
 623 01ba 31D2     		xorl	%edx, %edx
 624 01bc 39830C00 		cmpl	%eax, 12+pipe1@GOTOFF(%ebx)
 624      0000
 625 01c2 0F84D604 		je	.L89
 625      0000
 626              	.L32:
 627 01c8 83EC08   		subl	$8, %esp
 628              		.cfi_def_cfa_offset 88
 629 01cb 55       		pushl	%ebp
 630              		.cfi_def_cfa_offset 92
 631 01cc 52       		pushl	%edx
 632              		.cfi_def_cfa_offset 96
 633 01cd E8FCFFFF 		call	__test_assert@PLT
 633      FF
 634              	.LVL27:
 635 01d2 83C410   		addl	$16, %esp
 636              		.cfi_def_cfa_offset 80
GAS LISTING /tmp/ccuvcQSy.s 			page 14


 637 01d5 84C0     		testb	%al, %al
 638 01d7 0F8587FE 		jne	.L22
 638      FFFF
 639              		.loc 1 156 38 view .LVU108
 640              	.LBE63:
 641              		.loc 1 158 3 view .LVU109
 642              		.loc 1 158 19 view .LVU110
 643              		.loc 1 161 3 view .LVU111
 644 01dd C7060600 		movl	$6, (%esi)
 644      0000
 645              	.LBB64:
 646              		.loc 1 163 5 view .LVU112
 647              		.loc 1 164 5 view .LVU113
 648              		.loc 1 166 5 view .LVU114
 649              		.loc 1 166 9 is_stmt 0 view .LVU115
 650 01e3 6A00     		pushl	$0
 651              		.cfi_def_cfa_offset 84
 652 01e5 6A10     		pushl	$16
 653              		.cfi_def_cfa_offset 88
 654 01e7 FF742410 		pushl	16(%esp)
 655              		.cfi_def_cfa_offset 92
 656 01eb 57       		pushl	%edi
 657              		.cfi_def_cfa_offset 96
 658 01ec E8FCFFFF 		call	chPipeReadTimeout@PLT
 658      FF
 659              	.LVL28:
 660              		.loc 1 167 5 is_stmt 1 view .LVU116
 661 01f1 5A       		popl	%edx
 662              		.cfi_def_cfa_offset 92
 663 01f2 59       		popl	%ecx
 664              		.cfi_def_cfa_offset 88
 665 01f3 FF742408 		pushl	8(%esp)
 666              		.cfi_def_cfa_offset 92
 667 01f7 83F810   		cmpl	$16, %eax
 668 01fa 0F94C0   		sete	%al
 669              	.LVL29:
 670              		.loc 1 167 5 is_stmt 0 view .LVU117
 671 01fd 0FB6C0   		movzbl	%al, %eax
 672 0200 50       		pushl	%eax
 673              		.cfi_def_cfa_offset 96
 674 0201 E8FCFFFF 		call	__test_assert@PLT
 674      FF
 675              	.LVL30:
 676 0206 83C410   		addl	$16, %esp
 677              		.cfi_def_cfa_offset 80
 678 0209 84C0     		testb	%al, %al
 679 020b 0F8553FE 		jne	.L22
 679      FFFF
 680              		.loc 1 167 46 is_stmt 1 view .LVU118
 681              		.loc 1 168 5 view .LVU119
 682 0211 8B830000 		movl	pipe1@GOTOFF(%ebx), %eax
 682      0000
 683 0217 31D2     		xorl	%edx, %edx
 684 0219 39830C00 		cmpl	%eax, 12+pipe1@GOTOFF(%ebx)
 684      0000
 685 021f 0F849604 		je	.L90
 685      0000
GAS LISTING /tmp/ccuvcQSy.s 			page 15


 686              	.L34:
 687 0225 83EC08   		subl	$8, %esp
 688              		.cfi_def_cfa_offset 88
 689 0228 55       		pushl	%ebp
 690              		.cfi_def_cfa_offset 92
 691 0229 52       		pushl	%edx
 692              		.cfi_def_cfa_offset 96
 693 022a E8FCFFFF 		call	__test_assert@PLT
 693      FF
 694              	.LVL31:
 695 022f 83C410   		addl	$16, %esp
 696              		.cfi_def_cfa_offset 80
 697 0232 84C0     		testb	%al, %al
 698 0234 0F852AFE 		jne	.L22
 698      FFFF
 699              		.loc 1 171 38 view .LVU120
 700              		.loc 1 172 5 view .LVU121
 701 023a 817C241C 		cmpl	$858927408, 28(%esp)
 701      30313233 
 702 0242 0F849004 		je	.L91
 702      0000
 703              	.L35:
 704 0248 B8010000 		movl	$1, %eax
 704      00
 705              	.L36:
 706 024d 83EC08   		subl	$8, %esp
 707              		.cfi_def_cfa_offset 88
 708 0250 8D8B0000 		leal	.LC3@GOTOFF(%ebx), %ecx
 708      0000
 709 0256 83F001   		xorl	$1, %eax
 710 0259 894C2414 		movl	%ecx, 20(%esp)
 711 025d 51       		pushl	%ecx
 712              		.cfi_def_cfa_offset 92
 713 025e 50       		pushl	%eax
 714              		.cfi_def_cfa_offset 96
 715 025f E8FCFFFF 		call	__test_assert@PLT
 715      FF
 716              	.LVL32:
 717 0264 83C410   		addl	$16, %esp
 718              		.cfi_def_cfa_offset 80
 719 0267 84C0     		testb	%al, %al
 720 0269 0F85F5FD 		jne	.L22
 720      FFFF
 721              		.loc 1 172 79 view .LVU122
 722              	.LBE64:
 723              		.loc 1 174 3 view .LVU123
 724              		.loc 1 174 19 view .LVU124
 725              		.loc 1 177 3 view .LVU125
 726 026f C7060700 		movl	$7, (%esi)
 726      0000
 727              	.LBB65:
 728              		.loc 1 179 5 view .LVU126
 729              		.loc 1 181 5 view .LVU127
 730              		.loc 1 181 9 is_stmt 0 view .LVU128
 731 0275 6A00     		pushl	$0
 732              		.cfi_def_cfa_offset 84
 733 0277 6A04     		pushl	$4
GAS LISTING /tmp/ccuvcQSy.s 			page 16


 734              		.cfi_def_cfa_offset 88
 735 0279 FF74240C 		pushl	12(%esp)
 736              		.cfi_def_cfa_offset 92
 737 027d 57       		pushl	%edi
 738              		.cfi_def_cfa_offset 96
 739 027e E8FCFFFF 		call	chPipeWriteTimeout@PLT
 739      FF
 740              	.LVL33:
 741              		.loc 1 182 5 is_stmt 1 view .LVU129
 742 0283 5A       		popl	%edx
 743              		.cfi_def_cfa_offset 92
 744 0284 59       		popl	%ecx
 745              		.cfi_def_cfa_offset 88
 746 0285 FF742408 		pushl	8(%esp)
 747              		.cfi_def_cfa_offset 92
 748 0289 83F804   		cmpl	$4, %eax
 749 028c 0F94C0   		sete	%al
 750              	.LVL34:
 751              		.loc 1 182 5 is_stmt 0 view .LVU130
 752 028f 0FB6C0   		movzbl	%al, %eax
 753 0292 50       		pushl	%eax
 754              		.cfi_def_cfa_offset 96
 755 0293 E8FCFFFF 		call	__test_assert@PLT
 755      FF
 756              	.LVL35:
 757 0298 83C410   		addl	$16, %esp
 758              		.cfi_def_cfa_offset 80
 759 029b 84C0     		testb	%al, %al
 760 029d 0F85C1FD 		jne	.L22
 760      FFFF
 761              		.loc 1 182 38 is_stmt 1 view .LVU131
 762              		.loc 1 183 5 view .LVU132
 763 02a3 8B930C00 		movl	12+pipe1@GOTOFF(%ebx), %edx
 763      0000
 764 02a9 31C0     		xorl	%eax, %eax
 765 02ab 3B930800 		cmpl	8+pipe1@GOTOFF(%ebx), %edx
 765      0000
 766 02b1 740C     		je	.L38
 767 02b3 3B930000 		cmpl	pipe1@GOTOFF(%ebx), %edx
 767      0000
 768 02b9 0F844F04 		je	.L92
 768      0000
 769              	.L38:
 770 02bf 83EC08   		subl	$8, %esp
 771              		.cfi_def_cfa_offset 88
 772 02c2 55       		pushl	%ebp
 773              		.cfi_def_cfa_offset 92
 774 02c3 50       		pushl	%eax
 775              		.cfi_def_cfa_offset 96
 776 02c4 E8FCFFFF 		call	__test_assert@PLT
 776      FF
 777              	.LVL36:
 778 02c9 83C410   		addl	$16, %esp
 779              		.cfi_def_cfa_offset 80
 780 02cc 84C0     		testb	%al, %al
 781 02ce 0F8590FD 		jne	.L22
 781      FFFF
GAS LISTING /tmp/ccuvcQSy.s 			page 17


 782              		.loc 1 186 38 view .LVU133
 783              	.LBE65:
 784              		.loc 1 188 3 view .LVU134
 785              		.loc 1 188 19 view .LVU135
 786              		.loc 1 191 3 view .LVU136
 787 02d4 C7060800 		movl	$8, (%esi)
 787      0000
 788              	.LBB66:
 789              		.loc 1 193 5 view .LVU137
 790              		.loc 1 195 5 view .LVU138
 791              		.loc 1 195 9 is_stmt 0 view .LVU139
 792 02da 6A00     		pushl	$0
 793              		.cfi_def_cfa_offset 84
 794 02dc 6A0C     		pushl	$12
 795              		.cfi_def_cfa_offset 88
 796 02de FF74240C 		pushl	12(%esp)
 797              		.cfi_def_cfa_offset 92
 798 02e2 57       		pushl	%edi
 799              		.cfi_def_cfa_offset 96
 800 02e3 E8FCFFFF 		call	chPipeWriteTimeout@PLT
 800      FF
 801              	.LVL37:
 802              		.loc 1 196 5 is_stmt 1 view .LVU140
 803 02e8 5A       		popl	%edx
 804              		.cfi_def_cfa_offset 92
 805 02e9 59       		popl	%ecx
 806              		.cfi_def_cfa_offset 88
 807 02ea FF742408 		pushl	8(%esp)
 808              		.cfi_def_cfa_offset 92
 809 02ee 83F80C   		cmpl	$12, %eax
 810 02f1 0F94C0   		sete	%al
 811              	.LVL38:
 812              		.loc 1 196 5 is_stmt 0 view .LVU141
 813 02f4 0FB6C0   		movzbl	%al, %eax
 814 02f7 50       		pushl	%eax
 815              		.cfi_def_cfa_offset 96
 816 02f8 E8FCFFFF 		call	__test_assert@PLT
 816      FF
 817              	.LVL39:
 818 02fd 83C410   		addl	$16, %esp
 819              		.cfi_def_cfa_offset 80
 820 0300 84C0     		testb	%al, %al
 821 0302 0F855CFD 		jne	.L22
 821      FFFF
 822              		.loc 1 196 50 is_stmt 1 view .LVU142
 823              		.loc 1 197 5 view .LVU143
 824 0308 8B930000 		movl	pipe1@GOTOFF(%ebx), %edx
 824      0000
 825 030e 31C0     		xorl	%eax, %eax
 826 0310 39930C00 		cmpl	%edx, 12+pipe1@GOTOFF(%ebx)
 826      0000
 827 0316 0F840304 		je	.L93
 827      0000
 828              	.L39:
 829 031c 51       		pushl	%ecx
 830              		.cfi_def_cfa_offset 84
 831 031d 51       		pushl	%ecx
GAS LISTING /tmp/ccuvcQSy.s 			page 18


 832              		.cfi_def_cfa_offset 88
 833 031e 55       		pushl	%ebp
 834              		.cfi_def_cfa_offset 92
 835 031f 50       		pushl	%eax
 836              		.cfi_def_cfa_offset 96
 837 0320 E8FCFFFF 		call	__test_assert@PLT
 837      FF
 838              	.LVL40:
 839 0325 83C410   		addl	$16, %esp
 840              		.cfi_def_cfa_offset 80
 841 0328 84C0     		testb	%al, %al
 842 032a 0F8534FD 		jne	.L22
 842      FFFF
 843              		.loc 1 200 38 view .LVU144
 844              	.LBE66:
 845              		.loc 1 202 3 view .LVU145
 846              		.loc 1 202 19 view .LVU146
 847              		.loc 1 205 3 view .LVU147
 848 0330 C7060900 		movl	$9, (%esi)
 848      0000
 849              	.LBB67:
 850              		.loc 1 207 5 view .LVU148
 851              		.loc 1 208 5 view .LVU149
 852              		.loc 1 210 5 view .LVU150
 853              		.loc 1 210 9 is_stmt 0 view .LVU151
 854 0336 6A00     		pushl	$0
 855              		.cfi_def_cfa_offset 84
 856 0338 6A04     		pushl	$4
 857              		.cfi_def_cfa_offset 88
 858 033a FF742410 		pushl	16(%esp)
 859              		.cfi_def_cfa_offset 92
 860 033e 57       		pushl	%edi
 861              		.cfi_def_cfa_offset 96
 862 033f E8FCFFFF 		call	chPipeReadTimeout@PLT
 862      FF
 863              	.LVL41:
 864              		.loc 1 211 5 is_stmt 1 view .LVU152
 865 0344 59       		popl	%ecx
 866              		.cfi_def_cfa_offset 92
 867 0345 5A       		popl	%edx
 868              		.cfi_def_cfa_offset 88
 869 0346 FF742408 		pushl	8(%esp)
 870              		.cfi_def_cfa_offset 92
 871 034a 83F804   		cmpl	$4, %eax
 872 034d 0F94C0   		sete	%al
 873              	.LVL42:
 874              		.loc 1 211 5 is_stmt 0 view .LVU153
 875 0350 0FB6C0   		movzbl	%al, %eax
 876 0353 50       		pushl	%eax
 877              		.cfi_def_cfa_offset 96
 878 0354 E8FCFFFF 		call	__test_assert@PLT
 878      FF
 879              	.LVL43:
 880 0359 83C410   		addl	$16, %esp
 881              		.cfi_def_cfa_offset 80
 882 035c 84C0     		testb	%al, %al
 883 035e 0F8500FD 		jne	.L22
GAS LISTING /tmp/ccuvcQSy.s 			page 19


 883      FFFF
 884              		.loc 1 211 38 is_stmt 1 view .LVU154
 885              		.loc 1 212 5 view .LVU155
 886 0364 8B930000 		movl	pipe1@GOTOFF(%ebx), %edx
 886      0000
 887 036a 31C0     		xorl	%eax, %eax
 888 036c 39930C00 		cmpl	%edx, 12+pipe1@GOTOFF(%ebx)
 888      0000
 889 0372 740C     		je	.L41
 890 0374 3B930800 		cmpl	8+pipe1@GOTOFF(%ebx), %edx
 890      0000
 891 037a 0F841304 		je	.L94
 891      0000
 892              	.L41:
 893 0380 52       		pushl	%edx
 894              		.cfi_def_cfa_offset 84
 895 0381 52       		pushl	%edx
 896              		.cfi_def_cfa_offset 88
 897 0382 55       		pushl	%ebp
 898              		.cfi_def_cfa_offset 92
 899 0383 50       		pushl	%eax
 900              		.cfi_def_cfa_offset 96
 901 0384 E8FCFFFF 		call	__test_assert@PLT
 901      FF
 902              	.LVL44:
 903 0389 83C410   		addl	$16, %esp
 904              		.cfi_def_cfa_offset 80
 905 038c 84C0     		testb	%al, %al
 906 038e 0F85D0FC 		jne	.L22
 906      FFFF
 907              		.loc 1 215 38 view .LVU156
 908              		.loc 1 216 5 view .LVU157
 909 0394 31C0     		xorl	%eax, %eax
 910 0396 51       		pushl	%ecx
 911              		.cfi_def_cfa_offset 84
 912 0397 51       		pushl	%ecx
 913              		.cfi_def_cfa_offset 88
 914 0398 FF742414 		pushl	20(%esp)
 915              		.cfi_def_cfa_offset 92
 916 039c 817C2428 		cmpl	$858927408, 40(%esp)
 916      30313233 
 917 03a4 0F94C0   		sete	%al
 918 03a7 50       		pushl	%eax
 919              		.cfi_def_cfa_offset 96
 920 03a8 E8FCFFFF 		call	__test_assert@PLT
 920      FF
 921              	.LVL45:
 922 03ad 83C410   		addl	$16, %esp
 923              		.cfi_def_cfa_offset 80
 924 03b0 84C0     		testb	%al, %al
 925 03b2 0F85ACFC 		jne	.L22
 925      FFFF
 926              		.loc 1 216 71 view .LVU158
 927              	.LBE67:
 928              		.loc 1 218 3 view .LVU159
 929              		.loc 1 218 19 view .LVU160
 930              		.loc 1 221 3 view .LVU161
GAS LISTING /tmp/ccuvcQSy.s 			page 20


 931 03b8 C7060A00 		movl	$10, (%esi)
 931      0000
 932              	.LBB68:
 933              		.loc 1 223 5 view .LVU162
 934              		.loc 1 224 5 view .LVU163
 935              		.loc 1 226 5 view .LVU164
 936              		.loc 1 226 9 is_stmt 0 view .LVU165
 937 03be 6A00     		pushl	$0
 938              		.cfi_def_cfa_offset 84
 939 03c0 6A0C     		pushl	$12
 940              		.cfi_def_cfa_offset 88
 941 03c2 FF742410 		pushl	16(%esp)
 942              		.cfi_def_cfa_offset 92
 943 03c6 57       		pushl	%edi
 944              		.cfi_def_cfa_offset 96
 945 03c7 E8FCFFFF 		call	chPipeReadTimeout@PLT
 945      FF
 946              	.LVL46:
 947              		.loc 1 227 5 is_stmt 1 view .LVU166
 948 03cc 59       		popl	%ecx
 949              		.cfi_def_cfa_offset 92
 950 03cd 5A       		popl	%edx
 951              		.cfi_def_cfa_offset 88
 952 03ce FF742408 		pushl	8(%esp)
 953              		.cfi_def_cfa_offset 92
 954 03d2 83F80C   		cmpl	$12, %eax
 955 03d5 0F94C0   		sete	%al
 956              	.LVL47:
 957              		.loc 1 227 5 is_stmt 0 view .LVU167
 958 03d8 0FB6C0   		movzbl	%al, %eax
 959 03db 50       		pushl	%eax
 960              		.cfi_def_cfa_offset 96
 961 03dc E8FCFFFF 		call	__test_assert@PLT
 961      FF
 962              	.LVL48:
 963 03e1 83C410   		addl	$16, %esp
 964              		.cfi_def_cfa_offset 80
 965 03e4 84C0     		testb	%al, %al
 966 03e6 0F8578FC 		jne	.L22
 966      FFFF
 967              		.loc 1 227 50 is_stmt 1 view .LVU168
 968              		.loc 1 228 5 view .LVU169
 969 03ec 8B930000 		movl	pipe1@GOTOFF(%ebx), %edx
 969      0000
 970 03f2 31C0     		xorl	%eax, %eax
 971 03f4 39930C00 		cmpl	%edx, 12+pipe1@GOTOFF(%ebx)
 971      0000
 972 03fa 0F84A403 		je	.L95
 972      0000
 973              	.L44:
 974 0400 52       		pushl	%edx
 975              		.cfi_def_cfa_offset 84
 976 0401 52       		pushl	%edx
 977              		.cfi_def_cfa_offset 88
 978 0402 55       		pushl	%ebp
 979              		.cfi_def_cfa_offset 92
 980 0403 50       		pushl	%eax
GAS LISTING /tmp/ccuvcQSy.s 			page 21


 981              		.cfi_def_cfa_offset 96
 982 0404 E8FCFFFF 		call	__test_assert@PLT
 982      FF
 983              	.LVL49:
 984 0409 83C410   		addl	$16, %esp
 985              		.cfi_def_cfa_offset 80
 986 040c 84C0     		testb	%al, %al
 987 040e 0F8550FC 		jne	.L22
 987      FFFF
 988              		.loc 1 231 38 view .LVU170
 989              		.loc 1 232 5 view .LVU171
 990 0414 50       		pushl	%eax
 991              		.cfi_def_cfa_offset 84
 992 0415 6A0C     		pushl	$12
 993              		.cfi_def_cfa_offset 88
 994 0417 FF742410 		pushl	16(%esp)
 995              		.cfi_def_cfa_offset 92
 996 041b FF742410 		pushl	16(%esp)
 997              		.cfi_def_cfa_offset 96
 998 041f E8FCFFFF 		call	memcmp@PLT
 998      FF
 999              	.LVL50:
 1000 0424 5A       		popl	%edx
 1001              		.cfi_def_cfa_offset 92
 1002 0425 59       		popl	%ecx
 1003              		.cfi_def_cfa_offset 88
 1004 0426 FF742414 		pushl	20(%esp)
 1005              		.cfi_def_cfa_offset 92
 1006 042a 85C0     		testl	%eax, %eax
 1007 042c 0F94C0   		sete	%al
 1008 042f 0FB6C0   		movzbl	%al, %eax
 1009 0432 50       		pushl	%eax
 1010              		.cfi_def_cfa_offset 96
 1011 0433 E8FCFFFF 		call	__test_assert@PLT
 1011      FF
 1012              	.LVL51:
 1013 0438 83C410   		addl	$16, %esp
 1014              		.cfi_def_cfa_offset 80
 1015 043b 84C0     		testb	%al, %al
 1016 043d 0F8521FC 		jne	.L22
 1016      FFFF
 1017              		.loc 1 232 83 view .LVU172
 1018              	.LBE68:
 1019              		.loc 1 234 3 view .LVU173
 1020              		.loc 1 234 20 view .LVU174
 1021              		.loc 1 237 3 view .LVU175
 1022 0443 C7060B00 		movl	$11, (%esi)
 1022      0000
 1023              	.LBB69:
 1024              		.loc 1 239 5 view .LVU176
 1025              		.loc 1 241 5 view .LVU177
 1026              		.loc 1 241 9 is_stmt 0 view .LVU178
 1027 0449 6A00     		pushl	$0
 1028              		.cfi_def_cfa_offset 84
 1029 044b 6A05     		pushl	$5
 1030              		.cfi_def_cfa_offset 88
 1031 044d FF74240C 		pushl	12(%esp)
GAS LISTING /tmp/ccuvcQSy.s 			page 22


 1032              		.cfi_def_cfa_offset 92
 1033 0451 57       		pushl	%edi
 1034              		.cfi_def_cfa_offset 96
 1035 0452 E8FCFFFF 		call	chPipeWriteTimeout@PLT
 1035      FF
 1036              	.LVL52:
 1037              		.loc 1 242 5 is_stmt 1 view .LVU179
 1038 0457 5A       		popl	%edx
 1039              		.cfi_def_cfa_offset 92
 1040 0458 59       		popl	%ecx
 1041              		.cfi_def_cfa_offset 88
 1042 0459 FF742408 		pushl	8(%esp)
 1043              		.cfi_def_cfa_offset 92
 1044 045d 83F805   		cmpl	$5, %eax
 1045 0460 0F94C0   		sete	%al
 1046              	.LVL53:
 1047              		.loc 1 242 5 is_stmt 0 view .LVU180
 1048 0463 0FB6C0   		movzbl	%al, %eax
 1049 0466 50       		pushl	%eax
 1050              		.cfi_def_cfa_offset 96
 1051 0467 E8FCFFFF 		call	__test_assert@PLT
 1051      FF
 1052              	.LVL54:
 1053 046c 83C410   		addl	$16, %esp
 1054              		.cfi_def_cfa_offset 80
 1055 046f 84C0     		testb	%al, %al
 1056 0471 0F85EDFB 		jne	.L22
 1056      FFFF
 1057              		.loc 1 242 38 is_stmt 1 view .LVU181
 1058              		.loc 1 243 5 view .LVU182
 1059 0477 8B930C00 		movl	12+pipe1@GOTOFF(%ebx), %edx
 1059      0000
 1060 047d 31C0     		xorl	%eax, %eax
 1061 047f 3B930800 		cmpl	8+pipe1@GOTOFF(%ebx), %edx
 1061      0000
 1062 0485 740C     		je	.L46
 1063 0487 3B930000 		cmpl	pipe1@GOTOFF(%ebx), %edx
 1063      0000
 1064 048d 0F842E03 		je	.L96
 1064      0000
 1065              	.L46:
 1066 0493 51       		pushl	%ecx
 1067              		.cfi_def_cfa_offset 84
 1068 0494 51       		pushl	%ecx
 1069              		.cfi_def_cfa_offset 88
 1070 0495 55       		pushl	%ebp
 1071              		.cfi_def_cfa_offset 92
 1072 0496 50       		pushl	%eax
 1073              		.cfi_def_cfa_offset 96
 1074 0497 E8FCFFFF 		call	__test_assert@PLT
 1074      FF
 1075              	.LVL55:
 1076 049c 83C410   		addl	$16, %esp
 1077              		.cfi_def_cfa_offset 80
 1078 049f 84C0     		testb	%al, %al
 1079 04a1 0F85BDFB 		jne	.L22
 1079      FFFF
GAS LISTING /tmp/ccuvcQSy.s 			page 23


 1080              		.loc 1 246 38 view .LVU183
 1081              	.LBE69:
 1082              		.loc 1 248 3 view .LVU184
 1083              		.loc 1 248 20 view .LVU185
 1084              		.loc 1 251 3 view .LVU186
 1085 04a7 C7060C00 		movl	$12, (%esi)
 1085      0000
 1086              	.LBB70:
 1087              		.loc 1 253 5 view .LVU187
 1088              		.loc 1 254 5 view .LVU188
 1089              		.loc 1 256 5 view .LVU189
 1090              		.loc 1 256 9 is_stmt 0 view .LVU190
 1091 04ad 6A00     		pushl	$0
 1092              		.cfi_def_cfa_offset 84
 1093 04af 6A05     		pushl	$5
 1094              		.cfi_def_cfa_offset 88
 1095 04b1 FF742410 		pushl	16(%esp)
 1096              		.cfi_def_cfa_offset 92
 1097 04b5 57       		pushl	%edi
 1098              		.cfi_def_cfa_offset 96
 1099 04b6 E8FCFFFF 		call	chPipeReadTimeout@PLT
 1099      FF
 1100              	.LVL56:
 1101              		.loc 1 257 5 is_stmt 1 view .LVU191
 1102 04bb 59       		popl	%ecx
 1103              		.cfi_def_cfa_offset 92
 1104 04bc 5A       		popl	%edx
 1105              		.cfi_def_cfa_offset 88
 1106 04bd FF742408 		pushl	8(%esp)
 1107              		.cfi_def_cfa_offset 92
 1108 04c1 83F805   		cmpl	$5, %eax
 1109 04c4 0F94C0   		sete	%al
 1110              	.LVL57:
 1111              		.loc 1 257 5 is_stmt 0 view .LVU192
 1112 04c7 0FB6C0   		movzbl	%al, %eax
 1113 04ca 50       		pushl	%eax
 1114              		.cfi_def_cfa_offset 96
 1115 04cb E8FCFFFF 		call	__test_assert@PLT
 1115      FF
 1116              	.LVL58:
 1117 04d0 83C410   		addl	$16, %esp
 1118              		.cfi_def_cfa_offset 80
 1119 04d3 84C0     		testb	%al, %al
 1120 04d5 0F8589FB 		jne	.L22
 1120      FFFF
 1121              		.loc 1 257 38 is_stmt 1 view .LVU193
 1122              		.loc 1 258 5 view .LVU194
 1123 04db 8B930800 		movl	8+pipe1@GOTOFF(%ebx), %edx
 1123      0000
 1124 04e1 31C0     		xorl	%eax, %eax
 1125 04e3 39930C00 		cmpl	%edx, 12+pipe1@GOTOFF(%ebx)
 1125      0000
 1126 04e9 0F846A02 		je	.L97
 1126      0000
 1127              	.L48:
 1128 04ef 52       		pushl	%edx
 1129              		.cfi_def_cfa_offset 84
GAS LISTING /tmp/ccuvcQSy.s 			page 24


 1130 04f0 52       		pushl	%edx
 1131              		.cfi_def_cfa_offset 88
 1132 04f1 55       		pushl	%ebp
 1133              		.cfi_def_cfa_offset 92
 1134 04f2 50       		pushl	%eax
 1135              		.cfi_def_cfa_offset 96
 1136 04f3 E8FCFFFF 		call	__test_assert@PLT
 1136      FF
 1137              	.LVL59:
 1138 04f8 83C410   		addl	$16, %esp
 1139              		.cfi_def_cfa_offset 80
 1140 04fb 84C0     		testb	%al, %al
 1141 04fd 0F8561FB 		jne	.L22
 1141      FFFF
 1142              		.loc 1 261 38 view .LVU195
 1143              		.loc 1 262 5 view .LVU196
 1144 0503 50       		pushl	%eax
 1145              		.cfi_def_cfa_offset 84
 1146 0504 6A05     		pushl	$5
 1147              		.cfi_def_cfa_offset 88
 1148 0506 FF742410 		pushl	16(%esp)
 1149              		.cfi_def_cfa_offset 92
 1150 050a FF742410 		pushl	16(%esp)
 1151              		.cfi_def_cfa_offset 96
 1152 050e E8FCFFFF 		call	memcmp@PLT
 1152      FF
 1153              	.LVL60:
 1154 0513 5A       		popl	%edx
 1155              		.cfi_def_cfa_offset 92
 1156 0514 59       		popl	%ecx
 1157              		.cfi_def_cfa_offset 88
 1158 0515 FF742414 		pushl	20(%esp)
 1159              		.cfi_def_cfa_offset 92
 1160 0519 85C0     		testl	%eax, %eax
 1161 051b 0F94C0   		sete	%al
 1162 051e 0FB6C0   		movzbl	%al, %eax
 1163 0521 50       		pushl	%eax
 1164              		.cfi_def_cfa_offset 96
 1165 0522 E8FCFFFF 		call	__test_assert@PLT
 1165      FF
 1166              	.LVL61:
 1167 0527 83C410   		addl	$16, %esp
 1168              		.cfi_def_cfa_offset 80
 1169 052a 84C0     		testb	%al, %al
 1170 052c 0F8532FB 		jne	.L22
 1170      FFFF
 1171              		.loc 1 262 71 view .LVU197
 1172              	.LBE70:
 1173              		.loc 1 264 3 view .LVU198
 1174              		.loc 1 264 20 view .LVU199
 1175              		.loc 1 267 3 view .LVU200
 1176 0532 C7060D00 		movl	$13, (%esi)
 1176      0000
 1177              	.LBB71:
 1178              		.loc 1 269 5 view .LVU201
 1179              		.loc 1 271 5 view .LVU202
 1180              		.loc 1 271 9 is_stmt 0 view .LVU203
GAS LISTING /tmp/ccuvcQSy.s 			page 25


 1181 0538 6A00     		pushl	$0
 1182              		.cfi_def_cfa_offset 84
 1183 053a 6A10     		pushl	$16
 1184              		.cfi_def_cfa_offset 88
 1185 053c FF74240C 		pushl	12(%esp)
 1186              		.cfi_def_cfa_offset 92
 1187 0540 57       		pushl	%edi
 1188              		.cfi_def_cfa_offset 96
 1189 0541 E8FCFFFF 		call	chPipeWriteTimeout@PLT
 1189      FF
 1190              	.LVL62:
 1191              		.loc 1 272 5 is_stmt 1 view .LVU204
 1192 0546 5A       		popl	%edx
 1193              		.cfi_def_cfa_offset 92
 1194 0547 59       		popl	%ecx
 1195              		.cfi_def_cfa_offset 88
 1196 0548 FF742408 		pushl	8(%esp)
 1197              		.cfi_def_cfa_offset 92
 1198 054c 83F810   		cmpl	$16, %eax
 1199 054f 0F94C0   		sete	%al
 1200              	.LVL63:
 1201              		.loc 1 272 5 is_stmt 0 view .LVU205
 1202 0552 0FB6C0   		movzbl	%al, %eax
 1203 0555 50       		pushl	%eax
 1204              		.cfi_def_cfa_offset 96
 1205 0556 E8FCFFFF 		call	__test_assert@PLT
 1205      FF
 1206              	.LVL64:
 1207 055b 83C410   		addl	$16, %esp
 1208              		.cfi_def_cfa_offset 80
 1209 055e 84C0     		testb	%al, %al
 1210 0560 0F85FEFA 		jne	.L22
 1210      FFFF
 1211              		.loc 1 272 46 is_stmt 1 view .LVU206
 1212              		.loc 1 273 5 view .LVU207
 1213 0566 8B930800 		movl	8+pipe1@GOTOFF(%ebx), %edx
 1213      0000
 1214 056c 31C0     		xorl	%eax, %eax
 1215 056e 39930C00 		cmpl	%edx, 12+pipe1@GOTOFF(%ebx)
 1215      0000
 1216 0574 0F84C201 		je	.L98
 1216      0000
 1217              	.L50:
 1218 057a 51       		pushl	%ecx
 1219              		.cfi_def_cfa_offset 84
 1220 057b 51       		pushl	%ecx
 1221              		.cfi_def_cfa_offset 88
 1222 057c 55       		pushl	%ebp
 1223              		.cfi_def_cfa_offset 92
 1224 057d 50       		pushl	%eax
 1225              		.cfi_def_cfa_offset 96
 1226 057e E8FCFFFF 		call	__test_assert@PLT
 1226      FF
 1227              	.LVL65:
 1228 0583 83C410   		addl	$16, %esp
 1229              		.cfi_def_cfa_offset 80
 1230 0586 84C0     		testb	%al, %al
GAS LISTING /tmp/ccuvcQSy.s 			page 26


 1231 0588 0F85D6FA 		jne	.L22
 1231      FFFF
 1232              		.loc 1 276 38 view .LVU208
 1233              	.LBE71:
 1234              		.loc 1 278 3 view .LVU209
 1235              		.loc 1 278 20 view .LVU210
 1236              		.loc 1 281 3 view .LVU211
 1237 058e C7060E00 		movl	$14, (%esi)
 1237      0000
 1238              	.LBB72:
 1239              		.loc 1 283 5 view .LVU212
 1240              		.loc 1 284 5 view .LVU213
 1241              		.loc 1 286 5 view .LVU214
 1242              		.loc 1 286 9 is_stmt 0 view .LVU215
 1243 0594 6A00     		pushl	$0
 1244              		.cfi_def_cfa_offset 84
 1245 0596 6A10     		pushl	$16
 1246              		.cfi_def_cfa_offset 88
 1247 0598 FF742410 		pushl	16(%esp)
 1248              		.cfi_def_cfa_offset 92
 1249 059c 57       		pushl	%edi
 1250              		.cfi_def_cfa_offset 96
 1251 059d E8FCFFFF 		call	chPipeReadTimeout@PLT
 1251      FF
 1252              	.LVL66:
 1253              		.loc 1 287 5 is_stmt 1 view .LVU216
 1254 05a2 5F       		popl	%edi
 1255              		.cfi_def_cfa_offset 92
 1256 05a3 5A       		popl	%edx
 1257              		.cfi_def_cfa_offset 88
 1258 05a4 FF742408 		pushl	8(%esp)
 1259              		.cfi_def_cfa_offset 92
 1260 05a8 83F810   		cmpl	$16, %eax
 1261 05ab 0F94C0   		sete	%al
 1262              	.LVL67:
 1263              		.loc 1 287 5 is_stmt 0 view .LVU217
 1264 05ae 0FB6C0   		movzbl	%al, %eax
 1265 05b1 50       		pushl	%eax
 1266              		.cfi_def_cfa_offset 96
 1267 05b2 E8FCFFFF 		call	__test_assert@PLT
 1267      FF
 1268              	.LVL68:
 1269 05b7 83C410   		addl	$16, %esp
 1270              		.cfi_def_cfa_offset 80
 1271 05ba 84C0     		testb	%al, %al
 1272 05bc 0F85A2FA 		jne	.L22
 1272      FFFF
 1273              		.loc 1 287 46 is_stmt 1 view .LVU218
 1274              		.loc 1 288 5 view .LVU219
 1275 05c2 8B930800 		movl	8+pipe1@GOTOFF(%ebx), %edx
 1275      0000
 1276 05c8 31C0     		xorl	%eax, %eax
 1277 05ca 39930C00 		cmpl	%edx, 12+pipe1@GOTOFF(%ebx)
 1277      0000
 1278 05d0 0F84A001 		je	.L99
 1278      0000
 1279              	.L53:
GAS LISTING /tmp/ccuvcQSy.s 			page 27


 1280 05d6 56       		pushl	%esi
 1281              		.cfi_def_cfa_offset 84
 1282 05d7 56       		pushl	%esi
 1283              		.cfi_def_cfa_offset 88
 1284 05d8 55       		pushl	%ebp
 1285              		.cfi_def_cfa_offset 92
 1286 05d9 50       		pushl	%eax
 1287              		.cfi_def_cfa_offset 96
 1288 05da E8FCFFFF 		call	__test_assert@PLT
 1288      FF
 1289              	.LVL69:
 1290 05df 83C410   		addl	$16, %esp
 1291              		.cfi_def_cfa_offset 80
 1292 05e2 84C0     		testb	%al, %al
 1293 05e4 0F857AFA 		jne	.L22
 1293      FFFF
 1294              		.loc 1 291 38 view .LVU220
 1295              		.loc 1 292 5 view .LVU221
 1296 05ea 50       		pushl	%eax
 1297              		.cfi_def_cfa_offset 84
 1298 05eb 6A10     		pushl	$16
 1299              		.cfi_def_cfa_offset 88
 1300 05ed FF742410 		pushl	16(%esp)
 1301              		.cfi_def_cfa_offset 92
 1302 05f1 FF742410 		pushl	16(%esp)
 1303              		.cfi_def_cfa_offset 96
 1304 05f5 E8FCFFFF 		call	memcmp@PLT
 1304      FF
 1305              	.LVL70:
 1306 05fa 5A       		popl	%edx
 1307              		.cfi_def_cfa_offset 92
 1308 05fb 59       		popl	%ecx
 1309              		.cfi_def_cfa_offset 88
 1310 05fc FF742414 		pushl	20(%esp)
 1311              		.cfi_def_cfa_offset 92
 1312 0600 85C0     		testl	%eax, %eax
 1313 0602 0F94C0   		sete	%al
 1314 0605 0FB6C0   		movzbl	%al, %eax
 1315 0608 50       		pushl	%eax
 1316              		.cfi_def_cfa_offset 96
 1317 0609 E8FCFFFF 		call	__test_assert@PLT
 1317      FF
 1318              	.LVL71:
 1319              		.loc 1 292 5 view .LVU222
 1320 060e 83C410   		addl	$16, %esp
 1321              		.cfi_def_cfa_offset 80
 1322              		.loc 1 292 5 is_stmt 0 view .LVU223
 1323              	.LBE72:
 1324              	.LBE56:
 1325              	.LBE55:
 1326              		.loc 1 294 3 is_stmt 1 view .LVU224
 1327              		.loc 1 294 20 view .LVU225
 1328              	.LBB89:
 1329              	.LBB86:
 1330              	.LBB73:
 1331              		.loc 1 292 5 is_stmt 0 view .LVU226
 1332 0611 E94EFAFF 		jmp	.L22
GAS LISTING /tmp/ccuvcQSy.s 			page 28


 1332      FF
 1333 0616 8DB42600 		.p2align 4,,10
 1333      0000008D 
 1333      7600
 1334              		.p2align 3
 1335              	.L84:
 1336              	.LBE73:
 1337              	.LBE86:
 1338              	.LBE89:
 1339              		.loc 1 99 5 discriminator 1 view .LVU227
 1340 0620 3B830800 		cmpl	8+pipe1@GOTOFF(%ebx), %eax
 1340      0000
 1341 0626 0F8521FA 		jne	.L23
 1341      FFFF
 1342              		.loc 1 99 5 discriminator 3 view .LVU228
 1343 062c 8BAB1000 		movl	16+pipe1@GOTOFF(%ebx), %ebp
 1343      0000
 1344 0632 31D2     		xorl	%edx, %edx
 1345 0634 85ED     		testl	%ebp, %ebp
 1346 0636 0F94C2   		sete	%dl
 1347 0639 E90FFAFF 		jmp	.L23
 1347      FF
 1348 063e 6690     		.p2align 4,,10
 1349              		.p2align 3
 1350              	.L87:
 1351              	.LBB90:
 1352              	.LBB87:
 1353              	.LBB74:
 1354              		.loc 1 113 5 view .LVU229
 1355 0640 3B830800 		cmpl	8+pipe1@GOTOFF(%ebx), %eax
 1355      0000
 1356 0646 0F8585FA 		jne	.L27
 1356      FFFF
 1357 064c 8B831000 		movl	16+pipe1@GOTOFF(%ebx), %eax
 1357      0000
 1358 0652 31D2     		xorl	%edx, %edx
 1359 0654 85C0     		testl	%eax, %eax
 1360 0656 0F94C2   		sete	%dl
 1361 0659 E973FAFF 		jmp	.L27
 1361      FF
 1362 065e 6690     		.p2align 4,,10
 1363              		.p2align 3
 1364              	.L30:
 1365              		.loc 1 113 5 view .LVU230
 1366              	.LBE74:
 1367              		.loc 1 139 5 view .LVU231
 1368 0660 3B830800 		cmpl	8+pipe1@GOTOFF(%ebx), %eax
 1368      0000
 1369 0666 0F85F8FA 		jne	.L31
 1369      FFFF
 1370 066c 8B831000 		movl	16+pipe1@GOTOFF(%ebx), %eax
 1370      0000
 1371 0672 31D2     		xorl	%edx, %edx
 1372 0674 85C0     		testl	%eax, %eax
 1373 0676 0F94C2   		sete	%dl
 1374 0679 E9E6FAFF 		jmp	.L31
 1374      FF
GAS LISTING /tmp/ccuvcQSy.s 			page 29


 1375 067e 6690     		.p2align 4,,10
 1376              		.p2align 3
 1377              	.L88:
 1378              	.LBB75:
 1379              		.loc 1 128 5 view .LVU232
 1380 0680 3B830800 		cmpl	8+pipe1@GOTOFF(%ebx), %eax
 1380      0000
 1381 0686 0F85A2FA 		jne	.L29
 1381      FFFF
 1382 068c 8B831000 		movl	16+pipe1@GOTOFF(%ebx), %eax
 1382      0000
 1383 0692 31D2     		xorl	%edx, %edx
 1384 0694 85C0     		testl	%eax, %eax
 1385 0696 0F94C2   		sete	%dl
 1386 0699 E990FAFF 		jmp	.L29
 1386      FF
 1387              	.L89:
 1388              		.loc 1 128 5 view .LVU233
 1389              	.LBE75:
 1390              	.LBB76:
 1391              		.loc 1 153 5 view .LVU234
 1392 069e 3B830800 		cmpl	8+pipe1@GOTOFF(%ebx), %eax
 1392      0000
 1393 06a4 0F851EFB 		jne	.L32
 1393      FFFF
 1394 06aa 31D2     		xorl	%edx, %edx
 1395 06ac 83BB1000 		cmpl	$16, 16+pipe1@GOTOFF(%ebx)
 1395      000010
 1396 06b3 0F94C2   		sete	%dl
 1397 06b6 E90DFBFF 		jmp	.L32
 1397      FF
 1398              	.L90:
 1399              		.loc 1 153 5 view .LVU235
 1400              	.LBE76:
 1401              	.LBB77:
 1402              		.loc 1 168 5 view .LVU236
 1403 06bb 3B830800 		cmpl	8+pipe1@GOTOFF(%ebx), %eax
 1403      0000
 1404 06c1 0F855EFB 		jne	.L34
 1404      FFFF
 1405 06c7 31D2     		xorl	%edx, %edx
 1406 06c9 83BB1000 		cmpl	$0, 16+pipe1@GOTOFF(%ebx)
 1406      000000
 1407 06d0 0F94C2   		sete	%dl
 1408 06d3 E94DFBFF 		jmp	.L34
 1408      FF
 1409              	.L91:
 1410              		.loc 1 172 5 view .LVU237
 1411 06d8 817C2420 		cmpl	$926299444, 32(%esp)
 1411      34353637 
 1412 06e0 0F8562FB 		jne	.L35
 1412      FFFF
 1413 06e6 817C2424 		cmpl	$1111570744, 36(%esp)
 1413      38394142 
 1414 06ee 0F8554FB 		jne	.L35
 1414      FFFF
 1415 06f4 31C0     		xorl	%eax, %eax
GAS LISTING /tmp/ccuvcQSy.s 			page 30


 1416 06f6 817C2428 		cmpl	$1178944579, 40(%esp)
 1416      43444546 
 1417 06fe 0F8544FB 		jne	.L35
 1417      FFFF
 1418 0704 E944FBFF 		jmp	.L36
 1418      FF
 1419              	.L86:
 1420              		.loc 1 172 5 view .LVU238
 1421              	.LBE77:
 1422              	.LBE87:
 1423              	.LBE90:
 1424              		.loc 1 295 1 view .LVU239
 1425 0709 E8FCFFFF 		call	__stack_chk_fail_local
 1425      FF
 1426              	.LVL72:
 1427              	.L92:
 1428              	.LBB91:
 1429              	.LBB88:
 1430              	.LBB78:
 1431              		.loc 1 183 5 view .LVU240
 1432 070e 31C0     		xorl	%eax, %eax
 1433 0710 83BB1000 		cmpl	$4, 16+pipe1@GOTOFF(%ebx)
 1433      000004
 1434 0717 0F94C0   		sete	%al
 1435 071a E9A0FBFF 		jmp	.L38
 1435      FF
 1436              	.L93:
 1437              		.loc 1 183 5 view .LVU241
 1438              	.LBE78:
 1439              	.LBB79:
 1440              		.loc 1 197 5 view .LVU242
 1441 071f 3B930800 		cmpl	8+pipe1@GOTOFF(%ebx), %edx
 1441      0000
 1442 0725 0F85F1FB 		jne	.L39
 1442      FFFF
 1443 072b 31C0     		xorl	%eax, %eax
 1444 072d 83BB1000 		cmpl	$16, 16+pipe1@GOTOFF(%ebx)
 1444      000010
 1445 0734 0F94C0   		sete	%al
 1446 0737 E9E0FBFF 		jmp	.L39
 1446      FF
 1447              	.L98:
 1448              		.loc 1 197 5 view .LVU243
 1449              	.LBE79:
 1450              	.LBB80:
 1451              		.loc 1 273 5 view .LVU244
 1452 073c 3B930000 		cmpl	pipe1@GOTOFF(%ebx), %edx
 1452      0000
 1453 0742 0F8432FE 		je	.L50
 1453      FFFF
 1454 0748 31C0     		xorl	%eax, %eax
 1455 074a 83BB1000 		cmpl	$16, 16+pipe1@GOTOFF(%ebx)
 1455      000010
 1456 0751 0F94C0   		sete	%al
 1457 0754 E921FEFF 		jmp	.L50
 1457      FF
 1458              	.L97:
GAS LISTING /tmp/ccuvcQSy.s 			page 31


 1459              		.loc 1 273 5 view .LVU245
 1460              	.LBE80:
 1461              	.LBB81:
 1462              		.loc 1 258 5 view .LVU246
 1463 0759 3B930000 		cmpl	pipe1@GOTOFF(%ebx), %edx
 1463      0000
 1464 075f 0F848AFD 		je	.L48
 1464      FFFF
 1465 0765 31C0     		xorl	%eax, %eax
 1466 0767 83BB1000 		cmpl	$0, 16+pipe1@GOTOFF(%ebx)
 1466      000000
 1467 076e 0F94C0   		sete	%al
 1468 0771 E979FDFF 		jmp	.L48
 1468      FF
 1469              	.L99:
 1470              		.loc 1 258 5 view .LVU247
 1471              	.LBE81:
 1472              	.LBB82:
 1473              		.loc 1 288 5 view .LVU248
 1474 0776 3B930000 		cmpl	pipe1@GOTOFF(%ebx), %edx
 1474      0000
 1475 077c 0F8454FE 		je	.L53
 1475      FFFF
 1476 0782 31C0     		xorl	%eax, %eax
 1477 0784 83BB1000 		cmpl	$0, 16+pipe1@GOTOFF(%ebx)
 1477      000000
 1478 078b 0F94C0   		sete	%al
 1479 078e E943FEFF 		jmp	.L53
 1479      FF
 1480              	.L94:
 1481              		.loc 1 288 5 view .LVU249
 1482              	.LBE82:
 1483              	.LBB83:
 1484              		.loc 1 212 5 view .LVU250
 1485 0793 31C0     		xorl	%eax, %eax
 1486 0795 83BB1000 		cmpl	$12, 16+pipe1@GOTOFF(%ebx)
 1486      00000C
 1487 079c 0F94C0   		sete	%al
 1488 079f E9DCFBFF 		jmp	.L41
 1488      FF
 1489              	.L95:
 1490              		.loc 1 212 5 view .LVU251
 1491              	.LBE83:
 1492              	.LBB84:
 1493              		.loc 1 228 5 view .LVU252
 1494 07a4 3B930800 		cmpl	8+pipe1@GOTOFF(%ebx), %edx
 1494      0000
 1495 07aa 0F8550FC 		jne	.L44
 1495      FFFF
 1496 07b0 31C0     		xorl	%eax, %eax
 1497 07b2 83BB1000 		cmpl	$0, 16+pipe1@GOTOFF(%ebx)
 1497      000000
 1498 07b9 0F94C0   		sete	%al
 1499 07bc E93FFCFF 		jmp	.L44
 1499      FF
 1500              	.L96:
 1501              		.loc 1 228 5 view .LVU253
GAS LISTING /tmp/ccuvcQSy.s 			page 32


 1502              	.LBE84:
 1503              	.LBB85:
 1504              		.loc 1 243 5 view .LVU254
 1505 07c1 31C0     		xorl	%eax, %eax
 1506 07c3 83BB1000 		cmpl	$5, 16+pipe1@GOTOFF(%ebx)
 1506      000005
 1507 07ca 0F94C0   		sete	%al
 1508 07cd E9C1FCFF 		jmp	.L46
 1508      FF
 1509              	.LBE85:
 1510              	.LBE88:
 1511              	.LBE91:
 1512              		.cfi_endproc
 1513              	.LFE316:
 1514              		.size	oslib_test_003_001_execute, .-oslib_test_003_001_execute
 1515              		.globl	oslib_test_sequence_003
 1516              		.section	.rodata.str1.1,"aMS",@progbits,1
 1517              	.LC4:
 1518 0000 50697065 		.string	"Pipes"
 1518      7300
 1519              		.section	.data.rel.ro.local.oslib_test_sequence_003,"aw"
 1520              		.align 4
 1521              		.type	oslib_test_sequence_003, @object
 1522              		.size	oslib_test_sequence_003, 8
 1523              	oslib_test_sequence_003:
 1524 0000 00000000 		.long	.LC4
 1525 0004 00000000 		.long	oslib_test_sequence_003_array
 1526              		.globl	oslib_test_sequence_003_array
 1527              		.section	.data.rel.ro.local.oslib_test_sequence_003_array,"aw"
 1528              		.align 4
 1529              		.type	oslib_test_sequence_003_array, @object
 1530              		.size	oslib_test_sequence_003_array, 12
 1531              	oslib_test_sequence_003_array:
 1532 0000 00000000 		.long	oslib_test_003_001
 1533 0004 00000000 		.long	oslib_test_003_002
 1534 0008 00000000 		.long	0
 1535              		.section	.rodata.str1.1
 1536              	.LC5:
 1537 0006 50697065 		.string	"Pipe timeouts"
 1537      2074696D 
 1537      656F7574 
 1537      7300
 1538              		.section	.data.rel.ro.local.oslib_test_003_002,"aw"
 1539              		.align 4
 1540              		.type	oslib_test_003_002, @object
 1541              		.size	oslib_test_003_002, 16
 1542              	oslib_test_003_002:
 1543 0000 06000000 		.long	.LC5
 1544 0004 00000000 		.long	oslib_test_003_002_setup
 1545 0008 00000000 		.long	0
 1546 000c 00000000 		.long	oslib_test_003_002_execute
 1547              		.section	.rodata.str1.4,"aMS",@progbits,1
 1548              		.align 4
 1549              	.LC6:
 1550 0000 50697065 		.string	"Pipes normal API, non-blocking tests"
 1550      73206E6F 
 1550      726D616C 
GAS LISTING /tmp/ccuvcQSy.s 			page 33


 1550      20415049 
 1550      2C206E6F 
 1551              		.section	.data.rel.ro.local.oslib_test_003_001,"aw"
 1552              		.align 4
 1553              		.type	oslib_test_003_001, @object
 1554              		.size	oslib_test_003_001, 16
 1555              	oslib_test_003_001:
 1556 0000 00000000 		.long	.LC6
 1557 0004 00000000 		.long	oslib_test_003_001_setup
 1558 0008 00000000 		.long	0
 1559 000c 00000000 		.long	oslib_test_003_001_execute
 1560              		.section	.rodata.pipe_pattern,"a"
 1561              		.align 4
 1562              		.type	pipe_pattern, @object
 1563              		.size	pipe_pattern, 17
 1564              	pipe_pattern:
 1565 0000 30313233 		.string	"0123456789ABCDEF"
 1565      34353637 
 1565      38394142 
 1565      43444546 
 1565      00
 1566              		.section	.data.rel.local.pipe1,"aw"
 1567              		.align 32
 1568              		.type	pipe1, @object
 1569              		.size	pipe1, 80
 1570              	pipe1:
 1571 0000 00000000 		.long	buffer
 1572 0004 10000000 		.long	buffer+16
 1573 0008 00000000 		.long	buffer
 1574 000c 00000000 		.long	buffer
 1575 0010 00000000 		.long	0
 1576 0014 00       		.byte	0
 1577 0015 000000   		.zero	3
 1578 0018 00000000 		.long	0
 1579 001c 00000000 		.long	0
 1580 0020 20000000 		.long	pipe1+32
 1581 0024 20000000 		.long	pipe1+32
 1582 0028 00000000 		.long	0
 1583 002c 00000000 		.long	0
 1584 0030 30000000 		.long	pipe1+48
 1585 0034 30000000 		.long	pipe1+48
 1586 0038 00000000 		.long	0
 1587 003c 00000000 		.long	0
 1588 0040 40000000 		.long	pipe1+64
 1589 0044 40000000 		.long	pipe1+64
 1590 0048 00000000 		.long	0
 1591 004c 00000000 		.long	0
 1592              		.section	.bss.buffer,"aw",@nobits
 1593              		.align 4
 1594              		.type	buffer, @object
 1595              		.size	buffer, 16
 1596              	buffer:
 1597 0000 00000000 		.zero	16
 1597      00000000 
 1597      00000000 
 1597      00000000 
 1598              		.section	.text.__x86.get_pc_thunk.bx,"axG",@progbits,__x86.get_pc_thunk.bx,comdat
GAS LISTING /tmp/ccuvcQSy.s 			page 34


 1599              		.globl	__x86.get_pc_thunk.bx
 1600              		.hidden	__x86.get_pc_thunk.bx
 1601              		.type	__x86.get_pc_thunk.bx, @function
 1602              	__x86.get_pc_thunk.bx:
 1603              	.LFB320:
 1604              		.cfi_startproc
 1605 0000 8B1C24   		movl	(%esp), %ebx
 1606 0003 C3       		ret
 1607              		.cfi_endproc
 1608              	.LFE320:
 1609              		.text
 1610              	.Letext0:
 1611              		.file 3 "/usr/lib/gcc/x86_64-linux-gnu/11/include/stddef.h"
 1612              		.file 4 "/usr/include/bits/types.h"
 1613              		.file 5 "/usr/include/bits/stdint-intn.h"
 1614              		.file 6 "/usr/include/bits/stdint-uintn.h"
 1615              		.file 7 "../../../os/common/ports/SIMIA32/compilers/GCC/chtypes.h"
 1616              		.file 8 "../../../os/rt/include/chearly.h"
 1617              		.file 9 "../../../os/rt/include/chobjects.h"
 1618              		.file 10 "../../../os/rt/include/chrfcu.h"
 1619              		.file 11 "../../../os/rt/include/chdebug.h"
 1620              		.file 12 "../../../os/rt/include/chtime.h"
 1621              		.file 13 "../../../os/rt/include/chlists.h"
 1622              		.file 14 "../../../os/common/ports/SIMIA32/chcore.h"
 1623              		.file 15 "../../../os/rt/include/chsem.h"
 1624              		.file 16 "../../../os/rt/include/chmtx.h"
 1625              		.file 17 "../../../os/hal/include/hal_streams.h"
 1626              		.file 18 "../../../os/test/include/ch_test.h"
 1627              		.file 19 "../../../test/oslib/source/test/oslib_test_sequence_003.h"
 1628              		.file 20 "/usr/include/string.h"
 1629              		.file 21 "<built-in>"
 5233 0060 2F686F6D 		.section	.note.GNU-stack,"",@progbits
 5233      652F616C 
 5233      65782F43 
 5233      68696269 
 5233      4F532F64 
GAS LISTING /tmp/ccuvcQSy.s 			page 104


GAS LISTING /tmp/ccuvcQSy.s 			page 105

