GAS LISTING /tmp/cc7Pe5Xi.s 			page 1


   1              		.file	"rt_test_sequence_009.c"
   2              		.text
   3              	.Ltext0:
   4              		.file 0 "/home/alex/ChibiOS/demos/various/LAB3" "../../../test/rt/source/test/rt_test_sequence_009
   5              		.section	.text.msg_thread1,"ax",@progbits
   6              		.p2align 4
   7              		.type	msg_thread1, @function
   8              	msg_thread1:
   9              	.LVL0:
  10              	.LFB303:
  11              		.file 1 "../../../test/rt/source/test/rt_test_sequence_009.c"
  12              		.loc 1 49 37 view -0
  13              		.cfi_startproc
  14              		.loc 1 51 3 view .LVU1
  15              		.loc 1 49 37 is_stmt 0 view .LVU2
  16 0000 56       		pushl	%esi
  17              		.cfi_def_cfa_offset 8
  18              		.cfi_offset 6, -8
  19 0001 53       		pushl	%ebx
  20              		.cfi_def_cfa_offset 12
  21              		.cfi_offset 3, -12
  22 0002 E8FCFFFF 		call	__x86.get_pc_thunk.bx
  22      FF
  23 0007 81C30200 		addl	$_GLOBAL_OFFSET_TABLE_, %ebx
  23      0000
  24 000d 83EC0C   		subl	$12, %esp
  25              		.cfi_def_cfa_offset 24
  26              		.loc 1 49 37 view .LVU3
  27 0010 8B742418 		movl	24(%esp), %esi
  28              		.loc 1 51 3 view .LVU4
  29 0014 6A41     		pushl	$65
  30              		.cfi_def_cfa_offset 28
  31 0016 56       		pushl	%esi
  32              		.cfi_def_cfa_offset 32
  33 0017 E8FCFFFF 		call	chMsgSend@PLT
  33      FF
  34              	.LVL1:
  35              		.loc 1 52 3 is_stmt 1 view .LVU5
  36 001c 58       		popl	%eax
  37              		.cfi_def_cfa_offset 28
  38 001d 5A       		popl	%edx
  39              		.cfi_def_cfa_offset 24
  40 001e 6A42     		pushl	$66
  41              		.cfi_def_cfa_offset 28
  42 0020 56       		pushl	%esi
  43              		.cfi_def_cfa_offset 32
  44 0021 E8FCFFFF 		call	chMsgSend@PLT
  44      FF
  45              	.LVL2:
  46              		.loc 1 53 3 view .LVU6
  47 0026 59       		popl	%ecx
  48              		.cfi_def_cfa_offset 28
  49 0027 58       		popl	%eax
  50              		.cfi_def_cfa_offset 24
  51 0028 6A43     		pushl	$67
  52              		.cfi_def_cfa_offset 28
  53 002a 56       		pushl	%esi
GAS LISTING /tmp/cc7Pe5Xi.s 			page 2


  54              		.cfi_def_cfa_offset 32
  55 002b E8FCFFFF 		call	chMsgSend@PLT
  55      FF
  56              	.LVL3:
  57              		.loc 1 54 3 view .LVU7
  58 0030 58       		popl	%eax
  59              		.cfi_def_cfa_offset 28
  60 0031 5A       		popl	%edx
  61              		.cfi_def_cfa_offset 24
  62 0032 6A44     		pushl	$68
  63              		.cfi_def_cfa_offset 28
  64 0034 56       		pushl	%esi
  65              		.cfi_def_cfa_offset 32
  66 0035 E8FCFFFF 		call	chMsgSend@PLT
  66      FF
  67              	.LVL4:
  68              		.loc 1 55 1 is_stmt 0 view .LVU8
  69 003a 83C414   		addl	$20, %esp
  70              		.cfi_def_cfa_offset 12
  71 003d 5B       		popl	%ebx
  72              		.cfi_restore 3
  73              		.cfi_def_cfa_offset 8
  74 003e 5E       		popl	%esi
  75              		.cfi_restore 6
  76              		.cfi_def_cfa_offset 4
  77 003f C3       		ret
  78              		.cfi_endproc
  79              	.LFE303:
  80              		.size	msg_thread1, .-msg_thread1
  81              		.section	.rodata.rt_test_009_001_execute.str1.1,"aMS",@progbits,1
  82              	.LC0:
  83 0000 696E7661 		.string	"invalid sequence"
  83      6C696420 
  83      73657175 
  83      656E6365 
  83      00
  84              	.LC1:
  85 0011 41424344 		.string	"ABCD"
  85      00
  86              		.section	.text.rt_test_009_001_execute,"ax",@progbits
  87              		.p2align 4
  88              		.type	rt_test_009_001_execute, @function
  89              	rt_test_009_001_execute:
  90              	.LFB304:
  91              		.loc 1 75 43 is_stmt 1 view -0
  92              		.cfi_startproc
  93              		.loc 1 76 3 view .LVU10
  94              		.loc 1 77 3 view .LVU11
  95              		.loc 1 80 3 view .LVU12
  96              		.loc 1 75 43 is_stmt 0 view .LVU13
  97 0000 55       		pushl	%ebp
  98              		.cfi_def_cfa_offset 8
  99              		.cfi_offset 5, -8
 100 0001 57       		pushl	%edi
 101              		.cfi_def_cfa_offset 12
 102              		.cfi_offset 7, -12
 103 0002 56       		pushl	%esi
GAS LISTING /tmp/cc7Pe5Xi.s 			page 3


 104              		.cfi_def_cfa_offset 16
 105              		.cfi_offset 6, -16
 106 0003 53       		pushl	%ebx
 107              		.cfi_def_cfa_offset 20
 108              		.cfi_offset 3, -20
 109 0004 E8FCFFFF 		call	__x86.get_pc_thunk.bx
 109      FF
 110 0009 81C30200 		addl	$_GLOBAL_OFFSET_TABLE_, %ebx
 110      0000
 111 000f 83EC18   		subl	$24, %esp
 112              		.cfi_def_cfa_offset 44
 113              	.LBB34:
 114              	.LBB35:
 115              		.file 2 "../../../os/rt/include/chthreads.h"
 116              		.loc 2 529 10 view .LVU14
 117 0012 8B830000 		movl	ch0@GOT(%ebx), %eax
 117      0000
 118              	.LBE35:
 119              	.LBE34:
 120              		.loc 1 80 3 view .LVU15
 121 0018 8BB30000 		movl	chtest@GOT(%ebx), %esi
 121      0000
 122              		.loc 1 82 18 view .LVU16
 123 001e 8D930000 		leal	msg_thread1@GOTOFF(%ebx), %edx
 123      0000
 124              	.LBB38:
 125              	.LBB36:
 126              		.loc 2 529 10 view .LVU17
 127 0024 8B400C   		movl	12(%eax), %eax
 128              	.LBE36:
 129              	.LBE38:
 130              		.loc 1 80 3 view .LVU18
 131 0027 C7060100 		movl	$1, (%esi)
 131      0000
 132              		.loc 1 82 5 is_stmt 1 view .LVU19
 133              	.LBB39:
 134              	.LBI34:
 135              		.loc 2 527 25 view .LVU20
 136              	.LBB37:
 137              		.loc 2 529 3 view .LVU21
 138              	.LBE37:
 139              	.LBE39:
 140              	.LBB40:
 141              	.LBI40:
 142              		.loc 2 540 23 view .LVU22
 143              	.LBB41:
 144              		.loc 2 542 3 view .LVU23
 145              	.LBE41:
 146              	.LBE40:
 147              		.loc 1 82 18 is_stmt 0 view .LVU24
 148 002d 50       		pushl	%eax
 149              		.cfi_def_cfa_offset 48
 150 002e 52       		pushl	%edx
 151              		.cfi_def_cfa_offset 52
 152 002f 8B4008   		movl	8(%eax), %eax
 153 0032 83C001   		addl	$1, %eax
 154 0035 50       		pushl	%eax
GAS LISTING /tmp/cc7Pe5Xi.s 			page 4


 155              		.cfi_def_cfa_offset 56
 156              		.loc 1 82 38 view .LVU25
 157 0036 8B830000 		movl	wa@GOT(%ebx), %eax
 157      0000
 158              		.loc 1 82 18 view .LVU26
 159 003c 68404100 		pushl	$16704
 159      00
 160              		.cfi_def_cfa_offset 60
 161 0041 FF30     		pushl	(%eax)
 162              		.cfi_def_cfa_offset 64
 163 0043 E8FCFFFF 		call	chThdCreateStatic@PLT
 163      FF
 164              	.LVL5:
 165 0048 8BBB0000 		movl	port_irq_sts@GOT(%ebx), %edi
 165      0000
 166              		.loc 1 89 3 view .LVU27
 167 004e C7060200 		movl	$2, (%esi)
 167      0000
 168 0054 83C420   		addl	$32, %esp
 169              		.cfi_def_cfa_offset 32
 170              		.loc 1 82 18 view .LVU28
 171 0057 89C2     		movl	%eax, %edx
 172              		.loc 1 82 16 view .LVU29
 173 0059 8B830000 		movl	threads@GOT(%ebx), %eax
 173      0000
 174              		.loc 1 89 3 view .LVU30
 175 005f BE040000 		movl	$4, %esi
 175      00
 176              		.loc 1 82 16 view .LVU31
 177 0064 8910     		movl	%edx, (%eax)
 178              		.loc 1 85 3 is_stmt 1 view .LVU32
 179              		.loc 1 85 19 view .LVU33
 180              		.loc 1 89 3 view .LVU34
 181              	.LBB42:
 182              		.loc 1 91 5 view .LVU35
 183              		.loc 1 93 5 view .LVU36
 184              	.LVL6:
 185              		.loc 1 93 19 view .LVU37
 186              	.L5:
 187              		.loc 1 94 7 view .LVU38
 188              	.LBB43:
 189              	.LBI43:
 190              		.file 3 "../../../os/rt/include/chmsg.h"
 191              		.loc 3 95 25 view .LVU39
 192              	.LBB44:
 193              		.loc 3 96 3 view .LVU40
 194              		.loc 3 98 3 view .LVU41
 195              	.LBB45:
 196              	.LBI45:
 197              		.file 4 "../../../os/rt/include/chsys.h"
 198              		.loc 4 407 20 view .LVU42
 199              		.loc 4 409 3 view .LVU43
 200              	.LBB46:
 201              	.LBI46:
 202              		.file 5 "../../../os/common/ports/SIMIA32/chcore.h"
 203              		.loc 5 361 20 view .LVU44
 204              	.LBB47:
GAS LISTING /tmp/cc7Pe5Xi.s 			page 5


 205              		.loc 5 363 3 view .LVU45
 206              		.loc 5 363 16 is_stmt 0 view .LVU46
 207 0066 C7070100 		movl	$1, (%edi)
 207      0000
 208              	.LBE47:
 209              	.LBE46:
 210              		.loc 4 410 35 is_stmt 1 view .LVU47
 211              		.loc 4 411 21 view .LVU48
 212              	.LBE45:
 213              		.loc 3 99 3 view .LVU49
 214              		.loc 3 99 8 is_stmt 0 view .LVU50
 215 006c E8FCFFFF 		call	chMsgWaitS@PLT
 215      FF
 216              	.LVL7:
 217              		.loc 3 100 3 is_stmt 1 view .LVU51
 218              	.LBB48:
 219              	.LBI48:
 220              		.loc 4 421 20 view .LVU52
 221              	.LBB49:
 222              		.loc 4 423 23 view .LVU53
 223              		.loc 4 424 34 view .LVU54
 224              		.loc 4 430 3 view .LVU55
 225              		.loc 4 430 3 view .LVU56
 226              		.loc 4 430 3 view .LVU57
 227              		.loc 4 434 3 view .LVU58
 228              	.LBB50:
 229              	.LBI50:
 230              		.loc 5 370 20 view .LVU59
 231              	.LBB51:
 232              		.loc 5 372 3 view .LVU60
 233              	.LBE51:
 234              	.LBE50:
 235              	.LBE49:
 236              	.LBE48:
 237              	.LBE44:
 238              	.LBE43:
 239              		.loc 1 96 7 is_stmt 0 view .LVU61
 240 0071 83EC08   		subl	$8, %esp
 241              		.cfi_def_cfa_offset 40
 242              	.LBB57:
 243              	.LBB56:
 244              	.LBB55:
 245              	.LBB54:
 246              	.LBB53:
 247              	.LBB52:
 248              		.loc 5 372 16 view .LVU62
 249 0074 C7070000 		movl	$0, (%edi)
 249      0000
 250              	.LBE52:
 251              	.LBE53:
 252              	.LBE54:
 253              	.LBE55:
 254              		.loc 3 102 3 is_stmt 1 view .LVU63
 255              	.LVL8:
 256              		.loc 3 102 3 is_stmt 0 view .LVU64
 257              	.LBE56:
 258              	.LBE57:
GAS LISTING /tmp/cc7Pe5Xi.s 			page 6


 259              		.loc 1 95 7 is_stmt 1 view .LVU65
 260              	.LBB58:
 261              	.LBI58:
 262              		.loc 3 189 21 view .LVU66
 263              	.LBB59:
 264              		.loc 3 191 3 view .LVU67
 265              		.loc 3 191 3 view .LVU68
 266              		.loc 3 191 3 view .LVU69
 267              		.loc 3 193 3 view .LVU70
 268              		.loc 3 193 15 is_stmt 0 view .LVU71
 269 007a 8B6834   		movl	52(%eax), %ebp
 270              	.LVL9:
 271              		.loc 3 193 15 view .LVU72
 272              	.LBE59:
 273              	.LBE58:
 274              		.loc 1 96 7 is_stmt 1 view .LVU73
 275 007d 55       		pushl	%ebp
 276              		.cfi_def_cfa_offset 44
 277 007e 50       		pushl	%eax
 278              		.cfi_def_cfa_offset 48
 279 007f E8FCFFFF 		call	chMsgRelease@PLT
 279      FF
 280              	.LVL10:
 281              		.loc 1 97 7 view .LVU74
 282 0084 89E8     		movl	%ebp, %eax
 283 0086 0FBEE8   		movsbl	%al, %ebp
 284              	.LVL11:
 285              		.loc 1 97 7 is_stmt 0 view .LVU75
 286 0089 892C24   		movl	%ebp, (%esp)
 287 008c E8FCFFFF 		call	test_emit_token@PLT
 287      FF
 288              	.LVL12:
 289              		.loc 1 93 25 is_stmt 1 view .LVU76
 290              		.loc 1 93 19 view .LVU77
 291 0091 83C410   		addl	$16, %esp
 292              		.cfi_def_cfa_offset 32
 293 0094 83EE01   		subl	$1, %esi
 294              	.LVL13:
 295              		.loc 1 93 19 is_stmt 0 view .LVU78
 296 0097 75CD     		jne	.L5
 297              		.loc 1 99 5 is_stmt 1 view .LVU79
 298 0099 E8FCFFFF 		call	test_wait_threads@PLT
 298      FF
 299              	.LVL14:
 300              		.loc 1 100 5 view .LVU80
 301 009e 83EC08   		subl	$8, %esp
 302              		.cfi_def_cfa_offset 40
 303 00a1 8D830000 		leal	.LC0@GOTOFF(%ebx), %eax
 303      0000
 304 00a7 50       		pushl	%eax
 305              		.cfi_def_cfa_offset 44
 306 00a8 8D830000 		leal	.LC1@GOTOFF(%ebx), %eax
 306      0000
 307 00ae 50       		pushl	%eax
 308              		.cfi_def_cfa_offset 48
 309 00af E8FCFFFF 		call	__test_assert_sequence@PLT
 309      FF
GAS LISTING /tmp/cc7Pe5Xi.s 			page 7


 310              	.LVL15:
 311              		.loc 1 100 53 view .LVU81
 312              	.LBE42:
 313              		.loc 1 102 3 view .LVU82
 314              		.loc 1 102 19 view .LVU83
 315              		.loc 1 103 1 is_stmt 0 view .LVU84
 316 00b4 83C41C   		addl	$28, %esp
 317              		.cfi_def_cfa_offset 20
 318 00b7 5B       		popl	%ebx
 319              		.cfi_restore 3
 320              		.cfi_def_cfa_offset 16
 321 00b8 5E       		popl	%esi
 322              		.cfi_restore 6
 323              		.cfi_def_cfa_offset 12
 324              	.LVL16:
 325              		.loc 1 103 1 view .LVU85
 326 00b9 5F       		popl	%edi
 327              		.cfi_restore 7
 328              		.cfi_def_cfa_offset 8
 329 00ba 5D       		popl	%ebp
 330              		.cfi_restore 5
 331              		.cfi_def_cfa_offset 4
 332 00bb C3       		ret
 333              		.cfi_endproc
 334              	.LFE304:
 335              		.size	rt_test_009_001_execute, .-rt_test_009_001_execute
 336              		.globl	rt_test_sequence_009
 337              		.section	.rodata.str1.1,"aMS",@progbits,1
 338              	.LC2:
 339 0000 53796E63 		.string	"Synchronous Messages"
 339      68726F6E 
 339      6F757320 
 339      4D657373 
 339      61676573 
 340              		.section	.data.rel.ro.local.rt_test_sequence_009,"aw"
 341              		.align 4
 342              		.type	rt_test_sequence_009, @object
 343              		.size	rt_test_sequence_009, 8
 344              	rt_test_sequence_009:
 345 0000 00000000 		.long	.LC2
 346 0004 00000000 		.long	rt_test_sequence_009_array
 347              		.globl	rt_test_sequence_009_array
 348              		.section	.data.rel.ro.local.rt_test_sequence_009_array,"aw"
 349              		.align 4
 350              		.type	rt_test_sequence_009_array, @object
 351              		.size	rt_test_sequence_009_array, 8
 352              	rt_test_sequence_009_array:
 353 0000 00000000 		.long	rt_test_009_001
 354 0004 00000000 		.long	0
 355              		.section	.rodata.str1.1
 356              	.LC3:
 357 0015 4D657373 		.string	"Messages Server loop"
 357      61676573 
 357      20536572 
 357      76657220 
 357      6C6F6F70 
 358              		.section	.data.rel.ro.local.rt_test_009_001,"aw"
GAS LISTING /tmp/cc7Pe5Xi.s 			page 8


 359              		.align 4
 360              		.type	rt_test_009_001, @object
 361              		.size	rt_test_009_001, 16
 362              	rt_test_009_001:
 363 0000 15000000 		.long	.LC3
 364 0004 00000000 		.long	0
 365 0008 00000000 		.long	0
 366 000c 00000000 		.long	rt_test_009_001_execute
 367              		.section	.text.__x86.get_pc_thunk.bx,"axG",@progbits,__x86.get_pc_thunk.bx,comdat
 368              		.globl	__x86.get_pc_thunk.bx
 369              		.hidden	__x86.get_pc_thunk.bx
 370              		.type	__x86.get_pc_thunk.bx, @function
 371              	__x86.get_pc_thunk.bx:
 372              	.LFB305:
 373              		.cfi_startproc
 374 0000 8B1C24   		movl	(%esp), %ebx
 375 0003 C3       		ret
 376              		.cfi_endproc
 377              	.LFE305:
 378              		.text
 379              	.Letext0:
 380              		.file 6 "/usr/lib/gcc/x86_64-linux-gnu/11/include/stddef.h"
 381              		.file 7 "/usr/include/bits/types.h"
 382              		.file 8 "/usr/include/bits/stdint-intn.h"
 383              		.file 9 "/usr/include/bits/stdint-uintn.h"
 384              		.file 10 "../../../os/common/ports/SIMIA32/compilers/GCC/chtypes.h"
 385              		.file 11 "../../../os/rt/include/chearly.h"
 386              		.file 12 "../../../os/rt/include/chobjects.h"
 387              		.file 13 "../../../os/rt/include/chrfcu.h"
 388              		.file 14 "../../../os/rt/include/chdebug.h"
 389              		.file 15 "../../../os/rt/include/chtime.h"
 390              		.file 16 "../../../os/rt/include/chlists.h"
 391              		.file 17 "../../../os/rt/include/chsem.h"
 392              		.file 18 "../../../os/rt/include/chmtx.h"
 393              		.file 19 "../../../os/hal/include/hal_streams.h"
 394              		.file 20 "../../../os/test/include/ch_test.h"
 395              		.file 21 "../../../test/rt/source/test/rt_test_sequence_009.h"
 396              		.file 22 "../../../test/rt/source/test/rt_test_root.h"
 3531 005a 2F686F6D 		.section	.note.GNU-stack,"",@progbits
 3531      652F616C 
 3531      65782F43 
 3531      68696269 
 3531      4F532F64 
GAS LISTING /tmp/cc7Pe5Xi.s 			page 70

