GAS LISTING /tmp/ccFuH4ay.s 			page 1


   1              		.file	"chdynamic.c"
   2              		.text
   3              	.Ltext0:
   4              		.file 0 "/home/alex/ChibiOS/demos/various/LAB2_VARIANT3" "../../../os/rt/src/chdynamic.c"
   5              		.section	.text.thd_heapfree,"ax",@progbits
   6              		.p2align 4
   7              		.type	thd_heapfree, @function
   8              	thd_heapfree:
   9              	.LVL0:
  10              	.LFB203:
  11              		.file 1 "../../../os/rt/src/chdynamic.c"
  12              		.loc 1 54 40 view -0
  13              		.cfi_startproc
  14              		.loc 1 56 3 view .LVU1
  15              		.loc 1 54 40 is_stmt 0 view .LVU2
  16 0000 53       		pushl	%ebx
  17              		.cfi_def_cfa_offset 8
  18              		.cfi_offset 3, -8
  19 0001 E8FCFFFF 		call	__x86.get_pc_thunk.bx
  19      FF
  20 0006 81C30200 		addl	$_GLOBAL_OFFSET_TABLE_, %ebx
  20      0000
  21 000c 83EC14   		subl	$20, %esp
  22              		.cfi_def_cfa_offset 28
  23              		.loc 1 56 3 view .LVU3
  24 000f 8B44241C 		movl	28(%esp), %eax
  25 0013 FF7014   		pushl	20(%eax)
  26              		.cfi_def_cfa_offset 32
  27 0016 E8FCFFFF 		call	chHeapFree@PLT
  27      FF
  28              	.LVL1:
  29              		.loc 1 57 1 view .LVU4
  30 001b 83C418   		addl	$24, %esp
  31              		.cfi_def_cfa_offset 8
  32 001e 5B       		popl	%ebx
  33              		.cfi_restore 3
  34              		.cfi_def_cfa_offset 4
  35 001f C3       		ret
  36              		.cfi_endproc
  37              	.LFE203:
  38              		.size	thd_heapfree, .-thd_heapfree
  39              		.section	.text.thd_poolfree,"ax",@progbits
  40              		.p2align 4
  41              		.type	thd_poolfree, @function
  42              	thd_poolfree:
  43              	.LVL2:
  44              	.LFB204:
  45              		.loc 1 61 40 is_stmt 1 view -0
  46              		.cfi_startproc
  47              		.loc 1 63 3 view .LVU6
  48              		.loc 1 61 40 is_stmt 0 view .LVU7
  49 0000 53       		pushl	%ebx
  50              		.cfi_def_cfa_offset 8
  51              		.cfi_offset 3, -8
  52 0001 E8FCFFFF 		call	__x86.get_pc_thunk.bx
  52      FF
  53 0006 81C30200 		addl	$_GLOBAL_OFFSET_TABLE_, %ebx
GAS LISTING /tmp/ccFuH4ay.s 			page 2


  53      0000
  54 000c 83EC10   		subl	$16, %esp
  55              		.cfi_def_cfa_offset 24
  56              		.loc 1 61 40 view .LVU8
  57 000f 8B442418 		movl	24(%esp), %eax
  58              		.loc 1 63 3 view .LVU9
  59 0013 FF7014   		pushl	20(%eax)
  60              		.cfi_def_cfa_offset 28
  61 0016 FF7030   		pushl	48(%eax)
  62              		.cfi_def_cfa_offset 32
  63 0019 E8FCFFFF 		call	chPoolFree@PLT
  63      FF
  64              	.LVL3:
  65              		.loc 1 64 1 view .LVU10
  66 001e 83C418   		addl	$24, %esp
  67              		.cfi_def_cfa_offset 8
  68 0021 5B       		popl	%ebx
  69              		.cfi_restore 3
  70              		.cfi_def_cfa_offset 4
  71 0022 C3       		ret
  72              		.cfi_endproc
  73              	.LFE204:
  74              		.size	thd_poolfree, .-thd_poolfree
  75              		.section	.text.chThdCreateFromHeap,"ax",@progbits
  76              		.p2align 4
  77              		.globl	chThdCreateFromHeap
  78              		.type	chThdCreateFromHeap, @function
  79              	chThdCreateFromHeap:
  80              	.LVL4:
  81              	.LFB205:
  82              		.loc 1 98 54 is_stmt 1 view -0
  83              		.cfi_startproc
  84              		.loc 1 98 54 is_stmt 0 view .LVU12
  85 0000 55       		pushl	%ebp
  86              		.cfi_def_cfa_offset 8
  87              		.cfi_offset 5, -8
  88 0001 57       		pushl	%edi
  89              		.cfi_def_cfa_offset 12
  90              		.cfi_offset 7, -12
  91 0002 56       		pushl	%esi
  92              		.cfi_def_cfa_offset 16
  93              		.cfi_offset 6, -16
  94 0003 53       		pushl	%ebx
  95              		.cfi_def_cfa_offset 20
  96              		.cfi_offset 3, -20
  97 0004 E8FCFFFF 		call	__x86.get_pc_thunk.bx
  97      FF
  98 0009 81C30200 		addl	$_GLOBAL_OFFSET_TABLE_, %ebx
  98      0000
  99 000f 83EC40   		subl	$64, %esp
 100              		.cfi_def_cfa_offset 84
 101              		.loc 1 98 54 view .LVU13
 102 0012 65A11400 		movl	%gs:20, %eax
 102      0000
 103 0018 89442430 		movl	%eax, 48(%esp)
 104 001c 31C0     		xorl	%eax, %eax
 105              		.loc 1 99 3 is_stmt 1 view .LVU14
GAS LISTING /tmp/ccFuH4ay.s 			page 3


 106              		.loc 1 100 3 view .LVU15
 107              		.loc 1 102 3 view .LVU16
 108              		.loc 1 98 54 is_stmt 0 view .LVU17
 109 001e 8B6C245C 		movl	92(%esp), %ebp
 110 0022 8B7C2464 		movl	100(%esp), %edi
 111 0026 8B742468 		movl	104(%esp), %esi
 112              		.loc 1 102 11 view .LVU18
 113 002a 6A10     		pushl	$16
 114              		.cfi_def_cfa_offset 88
 115 002c FF74245C 		pushl	92(%esp)
 116              		.cfi_def_cfa_offset 92
 117 0030 FF74245C 		pushl	92(%esp)
 118              		.cfi_def_cfa_offset 96
 119 0034 E8FCFFFF 		call	chHeapAllocAligned@PLT
 119      FF
 120              	.LVL5:
 121              		.loc 1 103 3 is_stmt 1 view .LVU19
 122              		.loc 1 103 6 is_stmt 0 view .LVU20
 123 0039 83C410   		addl	$16, %esp
 124              		.cfi_def_cfa_offset 80
 125 003c 85C0     		testl	%eax, %eax
 126 003e 746C     		je	.L6
 127              		.loc 1 106 3 is_stmt 1 view .LVU21
 128              	.LVL6:
 129              		.loc 1 108 3 view .LVU22
 130              		.loc 1 108 23 is_stmt 0 view .LVU23
 131 0040 89442414 		movl	%eax, 20(%esp)
 132              		.loc 1 106 8 view .LVU24
 133 0044 03442454 		addl	84(%esp), %eax
 134              	.LVL7:
 135              		.loc 1 116 8 view .LVU25
 136 0048 83EC0C   		subl	$12, %esp
 137              		.cfi_def_cfa_offset 92
 138              		.loc 1 106 8 view .LVU26
 139 004b 89442424 		movl	%eax, 36(%esp)
 140              		.loc 1 108 23 view .LVU27
 141 004f 8B442468 		movl	104(%esp), %eax
 142              	.LVL8:
 143              		.loc 1 108 23 view .LVU28
 144 0053 89742430 		movl	%esi, 48(%esp)
 145              	.LBB26:
 146              	.LBB27:
 147              	.LBB28:
 148              		.file 2 "../../../os/common/ports/SIMIA32/chcore.h"
 149              		.loc 2 363 16 view .LVU29
 150 0057 8BB30000 		movl	port_irq_sts@GOT(%ebx), %esi
 150      0000
 151              	.LBE28:
 152              	.LBE27:
 153              	.LBE26:
 154              		.loc 1 108 23 view .LVU30
 155 005d 896C241C 		movl	%ebp, 28(%esp)
 156 0061 89442428 		movl	%eax, 40(%esp)
 157 0065 897C242C 		movl	%edi, 44(%esp)
 158 0069 C7442434 		movl	$0, 52(%esp)
 158      00000000 
 159              		.loc 1 115 3 is_stmt 1 view .LVU31
GAS LISTING /tmp/ccFuH4ay.s 			page 4


 160              	.LBB33:
 161              	.LBI26:
 162              		.file 3 "../../../os/rt/include/chsys.h"
 163              		.loc 3 407 20 view .LVU32
 164              		.loc 3 409 3 view .LVU33
 165              	.LBB31:
 166              	.LBI27:
 167              		.loc 2 361 20 view .LVU34
 168              	.LBB29:
 169              		.loc 2 363 3 view .LVU35
 170              	.LBE29:
 171              	.LBE31:
 172              	.LBE33:
 173              		.loc 1 116 8 is_stmt 0 view .LVU36
 174 0071 8D44241C 		leal	28(%esp), %eax
 175              	.LBB34:
 176              	.LBB32:
 177              	.LBB30:
 178              		.loc 2 363 16 view .LVU37
 179 0075 C7060100 		movl	$1, (%esi)
 179      0000
 180              	.LBE30:
 181              	.LBE32:
 182              		.loc 3 410 35 is_stmt 1 view .LVU38
 183              		.loc 3 411 21 view .LVU39
 184              	.LBE34:
 185              		.loc 1 116 3 view .LVU40
 186              		.loc 1 116 8 is_stmt 0 view .LVU41
 187 007b 50       		pushl	%eax
 188              		.cfi_def_cfa_offset 96
 189 007c E8FCFFFF 		call	chThdCreateSuspendedI@PLT
 189      FF
 190              	.LVL9:
 191              		.loc 1 117 3 is_stmt 1 view .LVU42
 192              	.LBB35:
 193              	.LBI35:
 194              		.file 4 "../../../os/rt/include/chthreads.h"
 195              		.loc 4 498 20 view .LVU43
 196              	.LBB36:
 197              		.loc 4 502 3 view .LVU44
 198              		.loc 4 502 15 is_stmt 0 view .LVU45
 199 0081 8D930000 		leal	thd_heapfree@GOTOFF(%ebx), %edx
 199      0000
 200 0087 89502C   		movl	%edx, 44(%eax)
 201              		.loc 4 503 3 is_stmt 1 view .LVU46
 202              		.loc 4 503 15 is_stmt 0 view .LVU47
 203 008a C7403000 		movl	$0, 48(%eax)
 203      000000
 204              	.LVL10:
 205              		.loc 4 503 15 view .LVU48
 206              	.LBE36:
 207              	.LBE35:
 208              		.loc 1 118 3 is_stmt 1 view .LVU49
 209 0091 5A       		popl	%edx
 210              		.cfi_def_cfa_offset 92
 211 0092 59       		popl	%ecx
 212              		.cfi_def_cfa_offset 88
GAS LISTING /tmp/ccFuH4ay.s 			page 5


 213 0093 6A00     		pushl	$0
 214              		.cfi_def_cfa_offset 92
 215 0095 50       		pushl	%eax
 216              		.cfi_def_cfa_offset 96
 217 0096 8944241C 		movl	%eax, 28(%esp)
 218 009a E8FCFFFF 		call	chSchWakeupS@PLT
 218      FF
 219              	.LVL11:
 220              		.loc 1 119 3 view .LVU50
 221              	.LBB37:
 222              	.LBI37:
 223              		.loc 3 421 20 view .LVU51
 224              	.LBB38:
 225              		.loc 3 423 23 view .LVU52
 226              		.loc 3 424 34 view .LVU53
 227              		.loc 3 430 3 view .LVU54
 228              		.loc 3 430 3 view .LVU55
 229              		.loc 3 430 3 view .LVU56
 230              		.loc 3 434 3 view .LVU57
 231              	.LBB39:
 232              	.LBI39:
 233              		.loc 2 370 20 view .LVU58
 234              	.LBB40:
 235              		.loc 2 372 3 view .LVU59
 236              		.loc 2 372 16 is_stmt 0 view .LVU60
 237 009f C7060000 		movl	$0, (%esi)
 237      0000
 238              	.LBE40:
 239              	.LBE39:
 240              	.LBE38:
 241              	.LBE37:
 242              		.loc 1 121 3 is_stmt 1 view .LVU61
 243              		.loc 1 121 10 is_stmt 0 view .LVU62
 244 00a5 8B44241C 		movl	28(%esp), %eax
 245 00a9 83C410   		addl	$16, %esp
 246              		.cfi_def_cfa_offset 80
 247              	.LVL12:
 248              	.L6:
 249              		.loc 1 122 1 view .LVU63
 250 00ac 8B54242C 		movl	44(%esp), %edx
 251 00b0 652B1514 		subl	%gs:20, %edx
 251      000000
 252 00b7 7508     		jne	.L13
 253 00b9 83C43C   		addl	$60, %esp
 254              		.cfi_remember_state
 255              		.cfi_def_cfa_offset 20
 256 00bc 5B       		popl	%ebx
 257              		.cfi_restore 3
 258              		.cfi_def_cfa_offset 16
 259 00bd 5E       		popl	%esi
 260              		.cfi_restore 6
 261              		.cfi_def_cfa_offset 12
 262 00be 5F       		popl	%edi
 263              		.cfi_restore 7
 264              		.cfi_def_cfa_offset 8
 265 00bf 5D       		popl	%ebp
 266              		.cfi_restore 5
GAS LISTING /tmp/ccFuH4ay.s 			page 6


 267              		.cfi_def_cfa_offset 4
 268 00c0 C3       		ret
 269              	.L13:
 270              		.cfi_restore_state
 271 00c1 E8FCFFFF 		call	__stack_chk_fail_local
 271      FF
 272              	.LVL13:
 273              		.cfi_endproc
 274              	.LFE205:
 275              		.size	chThdCreateFromHeap, .-chThdCreateFromHeap
 276              		.section	.text.chThdCreateFromMemoryPool,"ax",@progbits
 277              		.p2align 4
 278              		.globl	chThdCreateFromMemoryPool
 279              		.type	chThdCreateFromMemoryPool, @function
 280              	chThdCreateFromMemoryPool:
 281              	.LVL14:
 282              	.LFB206:
 283              		.loc 1 153 74 is_stmt 1 view -0
 284              		.cfi_startproc
 285              		.loc 1 153 74 is_stmt 0 view .LVU65
 286 0000 55       		pushl	%ebp
 287              		.cfi_def_cfa_offset 8
 288              		.cfi_offset 5, -8
 289 0001 57       		pushl	%edi
 290              		.cfi_def_cfa_offset 12
 291              		.cfi_offset 7, -12
 292 0002 56       		pushl	%esi
 293              		.cfi_def_cfa_offset 16
 294              		.cfi_offset 6, -16
 295 0003 53       		pushl	%ebx
 296              		.cfi_def_cfa_offset 20
 297              		.cfi_offset 3, -20
 298 0004 E8FCFFFF 		call	__x86.get_pc_thunk.bx
 298      FF
 299 0009 81C30200 		addl	$_GLOBAL_OFFSET_TABLE_, %ebx
 299      0000
 300 000f 83EC48   		subl	$72, %esp
 301              		.cfi_def_cfa_offset 92
 302              		.loc 1 153 74 view .LVU66
 303 0012 8B442468 		movl	104(%esp), %eax
 304 0016 8B7C245C 		movl	92(%esp), %edi
 305 001a 8B6C2460 		movl	96(%esp), %ebp
 306 001e 8B74246C 		movl	108(%esp), %esi
 307 0022 89442418 		movl	%eax, 24(%esp)
 308 0026 65A11400 		movl	%gs:20, %eax
 308      0000
 309 002c 89442438 		movl	%eax, 56(%esp)
 310 0030 31C0     		xorl	%eax, %eax
 311              		.loc 1 154 3 is_stmt 1 view .LVU67
 312              		.loc 1 155 3 view .LVU68
 313              		.loc 1 157 3 view .LVU69
 314              		.loc 1 157 3 view .LVU70
 315              		.loc 1 157 3 view .LVU71
 316              		.loc 1 159 3 view .LVU72
 317              		.loc 1 159 11 is_stmt 0 view .LVU73
 318 0032 57       		pushl	%edi
 319              		.cfi_def_cfa_offset 96
GAS LISTING /tmp/ccFuH4ay.s 			page 7


 320 0033 E8FCFFFF 		call	chPoolAlloc@PLT
 320      FF
 321              	.LVL15:
 322              		.loc 1 160 3 is_stmt 1 view .LVU74
 323              		.loc 1 160 6 is_stmt 0 view .LVU75
 324 0038 83C410   		addl	$16, %esp
 325              		.cfi_def_cfa_offset 80
 326 003b 85C0     		testl	%eax, %eax
 327 003d 746D     		je	.L14
 328              		.loc 1 163 3 is_stmt 1 view .LVU76
 329              		.loc 1 163 8 is_stmt 0 view .LVU77
 330 003f 8B4F04   		movl	4(%edi), %ecx
 331              		.loc 1 165 23 view .LVU78
 332 0042 89442414 		movl	%eax, 20(%esp)
 333              		.loc 1 173 8 view .LVU79
 334 0046 83EC0C   		subl	$12, %esp
 335              		.cfi_def_cfa_offset 92
 336              		.loc 1 165 23 view .LVU80
 337 0049 89742430 		movl	%esi, 48(%esp)
 338              	.LBB41:
 339              	.LBB42:
 340              	.LBB43:
 341              		.loc 2 363 16 view .LVU81
 342 004d 8BB30000 		movl	port_irq_sts@GOT(%ebx), %esi
 342      0000
 343              	.LBE43:
 344              	.LBE42:
 345              	.LBE41:
 346              		.loc 1 163 8 view .LVU82
 347 0053 01C1     		addl	%eax, %ecx
 348              	.LVL16:
 349              		.loc 1 165 3 is_stmt 1 view .LVU83
 350              		.loc 1 165 23 is_stmt 0 view .LVU84
 351 0055 8B442464 		movl	100(%esp), %eax
 352              	.LVL17:
 353              		.loc 1 165 23 view .LVU85
 354 0059 896C241C 		movl	%ebp, 28(%esp)
 355 005d 894C2424 		movl	%ecx, 36(%esp)
 356 0061 89442428 		movl	%eax, 40(%esp)
 357 0065 8B442418 		movl	24(%esp), %eax
 358 0069 C7442434 		movl	$0, 52(%esp)
 358      00000000 
 359              		.loc 1 172 3 is_stmt 1 view .LVU86
 360              	.LBB48:
 361              	.LBI41:
 362              		.loc 3 407 20 view .LVU87
 363              		.loc 3 409 3 view .LVU88
 364              	.LBB46:
 365              	.LBI42:
 366              		.loc 2 361 20 view .LVU89
 367              	.LBB44:
 368              		.loc 2 363 3 view .LVU90
 369              	.LBE44:
 370              	.LBE46:
 371              	.LBE48:
 372              		.loc 1 165 23 is_stmt 0 view .LVU91
 373 0071 8944242C 		movl	%eax, 44(%esp)
GAS LISTING /tmp/ccFuH4ay.s 			page 8


 374              		.loc 1 173 8 view .LVU92
 375 0075 8D44241C 		leal	28(%esp), %eax
 376              	.LBB49:
 377              	.LBB47:
 378              	.LBB45:
 379              		.loc 2 363 16 view .LVU93
 380 0079 C7060100 		movl	$1, (%esi)
 380      0000
 381              	.LBE45:
 382              	.LBE47:
 383              		.loc 3 410 35 is_stmt 1 view .LVU94
 384              		.loc 3 411 21 view .LVU95
 385              	.LBE49:
 386              		.loc 1 173 3 view .LVU96
 387              		.loc 1 173 8 is_stmt 0 view .LVU97
 388 007f 50       		pushl	%eax
 389              		.cfi_def_cfa_offset 96
 390 0080 E8FCFFFF 		call	chThdCreateSuspendedI@PLT
 390      FF
 391              	.LVL18:
 392              		.loc 1 174 3 is_stmt 1 view .LVU98
 393              	.LBB50:
 394              	.LBI50:
 395              		.loc 4 498 20 view .LVU99
 396              	.LBB51:
 397              		.loc 4 502 3 view .LVU100
 398              		.loc 4 502 15 is_stmt 0 view .LVU101
 399 0085 8D8B0000 		leal	thd_poolfree@GOTOFF(%ebx), %ecx
 399      0000
 400 008b 89482C   		movl	%ecx, 44(%eax)
 401              		.loc 4 503 3 is_stmt 1 view .LVU102
 402              		.loc 4 503 15 is_stmt 0 view .LVU103
 403 008e 897830   		movl	%edi, 48(%eax)
 404              	.LVL19:
 405              		.loc 4 503 15 view .LVU104
 406              	.LBE51:
 407              	.LBE50:
 408              		.loc 1 175 3 is_stmt 1 view .LVU105
 409 0091 5A       		popl	%edx
 410              		.cfi_def_cfa_offset 92
 411 0092 59       		popl	%ecx
 412              		.cfi_def_cfa_offset 88
 413 0093 6A00     		pushl	$0
 414              		.cfi_def_cfa_offset 92
 415 0095 50       		pushl	%eax
 416              		.cfi_def_cfa_offset 96
 417 0096 8944241C 		movl	%eax, 28(%esp)
 418 009a E8FCFFFF 		call	chSchWakeupS@PLT
 418      FF
 419              	.LVL20:
 420              		.loc 1 176 3 view .LVU106
 421              	.LBB52:
 422              	.LBI52:
 423              		.loc 3 421 20 view .LVU107
 424              	.LBB53:
 425              		.loc 3 423 23 view .LVU108
 426              		.loc 3 424 34 view .LVU109
GAS LISTING /tmp/ccFuH4ay.s 			page 9


 427              		.loc 3 430 3 view .LVU110
 428              		.loc 3 430 3 view .LVU111
 429              		.loc 3 430 3 view .LVU112
 430              		.loc 3 434 3 view .LVU113
 431              	.LBB54:
 432              	.LBI54:
 433              		.loc 2 370 20 view .LVU114
 434              	.LBB55:
 435              		.loc 2 372 3 view .LVU115
 436              		.loc 2 372 16 is_stmt 0 view .LVU116
 437 009f C7060000 		movl	$0, (%esi)
 437      0000
 438              	.LBE55:
 439              	.LBE54:
 440              	.LBE53:
 441              	.LBE52:
 442              		.loc 1 178 3 is_stmt 1 view .LVU117
 443              		.loc 1 178 10 is_stmt 0 view .LVU118
 444 00a5 8B44241C 		movl	28(%esp), %eax
 445 00a9 83C410   		addl	$16, %esp
 446              		.cfi_def_cfa_offset 80
 447              	.LVL21:
 448              	.L14:
 449              		.loc 1 179 1 view .LVU119
 450 00ac 8B54242C 		movl	44(%esp), %edx
 451 00b0 652B1514 		subl	%gs:20, %edx
 451      000000
 452 00b7 7508     		jne	.L21
 453 00b9 83C43C   		addl	$60, %esp
 454              		.cfi_remember_state
 455              		.cfi_def_cfa_offset 20
 456 00bc 5B       		popl	%ebx
 457              		.cfi_restore 3
 458              		.cfi_def_cfa_offset 16
 459 00bd 5E       		popl	%esi
 460              		.cfi_restore 6
 461              		.cfi_def_cfa_offset 12
 462 00be 5F       		popl	%edi
 463              		.cfi_restore 7
 464              		.cfi_def_cfa_offset 8
 465 00bf 5D       		popl	%ebp
 466              		.cfi_restore 5
 467              		.cfi_def_cfa_offset 4
 468 00c0 C3       		ret
 469              	.L21:
 470              		.cfi_restore_state
 471 00c1 E8FCFFFF 		call	__stack_chk_fail_local
 471      FF
 472              	.LVL22:
 473              		.cfi_endproc
 474              	.LFE206:
 475              		.size	chThdCreateFromMemoryPool, .-chThdCreateFromMemoryPool
 476              		.section	.text.__x86.get_pc_thunk.bx,"axG",@progbits,__x86.get_pc_thunk.bx,comdat
 477              		.globl	__x86.get_pc_thunk.bx
 478              		.hidden	__x86.get_pc_thunk.bx
 479              		.type	__x86.get_pc_thunk.bx, @function
 480              	__x86.get_pc_thunk.bx:
GAS LISTING /tmp/ccFuH4ay.s 			page 10


 481              	.LFB207:
 482              		.cfi_startproc
 483 0000 8B1C24   		movl	(%esp), %ebx
 484 0003 C3       		ret
 485              		.cfi_endproc
 486              	.LFE207:
 487              		.text
 488              	.Letext0:
 489              		.file 5 "/usr/lib/gcc/x86_64-linux-gnu/11/include/stddef.h"
 490              		.file 6 "/usr/include/bits/types.h"
 491              		.file 7 "/usr/include/bits/stdint-intn.h"
 492              		.file 8 "/usr/include/bits/stdint-uintn.h"
 493              		.file 9 "../../../os/common/ports/SIMIA32/compilers/GCC/chtypes.h"
 494              		.file 10 "../../../os/rt/include/chearly.h"
 495              		.file 11 "../../../os/rt/include/chobjects.h"
 496              		.file 12 "../../../os/rt/include/chrfcu.h"
 497              		.file 13 "../../../os/rt/include/chdebug.h"
 498              		.file 14 "../../../os/rt/include/chtime.h"
 499              		.file 15 "../../../os/rt/include/chlists.h"
 500              		.file 16 "../../../os/rt/include/chsem.h"
 501              		.file 17 "../../../os/rt/include/chmtx.h"
 502              		.file 18 "../../../os/oslib/include/chmemchecks.h"
 503              		.file 19 "../../../os/oslib/include/chmemcore.h"
 504              		.file 20 "../../../os/oslib/include/chmemheaps.h"
 505              		.file 21 "../../../os/oslib/include/chmempools.h"
 506              		.file 22 "../../../os/rt/include/chschd.h"
 3651 004e 2F686F6D 		.section	.note.GNU-stack,"",@progbits
 3651      652F616C 
 3651      65782F43 
 3651      68696269 
 3651      4F532F64 
GAS LISTING /tmp/ccFuH4ay.s 			page 72

