GAS LISTING /tmp/ccoiMs3n.s 			page 1


   1              		.file	"chfactory.c"
   2              		.text
   3              	.Ltext0:
   4              		.file 0 "/home/alex/ChibiOS/demos/various/LAB2_VARIANT3" "../../../os/oslib/src/chfactory.c"
   5              		.section	.text.chCoreAllocAlignedI,"ax",@progbits
   6              		.p2align 4
   7              		.type	chCoreAllocAlignedI, @function
   8              	chCoreAllocAlignedI:
   9              	.LVL0:
  10              	.LFB148:
  11              		.file 1 "../../../os/oslib/include/chmemcore.h"
  12              		.loc 1 150 70 view -0
  13              		.cfi_startproc
  14              		.loc 1 152 3 view .LVU1
  15              		.loc 1 150 70 is_stmt 0 view .LVU2
  16 0000 53       		pushl	%ebx
  17              		.cfi_def_cfa_offset 8
  18              		.cfi_offset 3, -8
  19 0001 E8FCFFFF 		call	__x86.get_pc_thunk.bx
  19      FF
  20 0006 81C30200 		addl	$_GLOBAL_OFFSET_TABLE_, %ebx
  20      0000
  21 000c 83EC0C   		subl	$12, %esp
  22              		.cfi_def_cfa_offset 20
  23              		.loc 1 152 10 view .LVU3
  24 000f 6A00     		pushl	$0
  25              		.cfi_def_cfa_offset 24
  26 0011 FF74241C 		pushl	28(%esp)
  27              		.cfi_def_cfa_offset 28
  28 0015 FF74241C 		pushl	28(%esp)
  29              		.cfi_def_cfa_offset 32
  30 0019 E8FCFFFF 		call	chCoreAllocFromTopI@PLT
  30      FF
  31              	.LVL1:
  32              		.loc 1 153 1 view .LVU4
  33 001e 83C418   		addl	$24, %esp
  34              		.cfi_def_cfa_offset 8
  35 0021 5B       		popl	%ebx
  36              		.cfi_restore 3
  37              		.cfi_def_cfa_offset 4
  38 0022 C3       		ret
  39              		.cfi_endproc
  40              	.LFE148:
  41              		.size	chCoreAllocAlignedI, .-chCoreAllocAlignedI
  42              		.section	.text.dyn_create_object_heap,"ax",@progbits
  43              		.p2align 4
  44              		.type	dyn_create_object_heap, @function
  45              	dyn_create_object_heap:
  46              	.LVL2:
  47              	.LFB220:
  48              		.file 2 "../../../os/oslib/src/chfactory.c"
  49              		.loc 2 145 62 is_stmt 1 view -0
  50              		.cfi_startproc
  51              		.loc 2 146 3 view .LVU6
  52              		.loc 2 148 3 view .LVU7
  53              		.loc 2 148 3 view .LVU8
  54              		.loc 2 148 3 view .LVU9
GAS LISTING /tmp/ccoiMs3n.s 			page 2


  55              		.loc 2 151 3 view .LVU10
  56              		.loc 2 145 62 is_stmt 0 view .LVU11
  57 0000 55       		pushl	%ebp
  58              		.cfi_def_cfa_offset 8
  59              		.cfi_offset 5, -8
  60 0001 57       		pushl	%edi
  61              		.cfi_def_cfa_offset 12
  62              		.cfi_offset 7, -12
  63 0002 89D7     		movl	%edx, %edi
  64 0004 56       		pushl	%esi
  65              		.cfi_def_cfa_offset 16
  66              		.cfi_offset 6, -16
  67 0005 89C6     		movl	%eax, %esi
  68              	.LVL3:
  69              	.LBB34:
  70              	.LBI34:
  71              		.loc 2 103 23 is_stmt 1 view .LVU12
  72              	.LBB35:
  73              		.loc 2 104 3 view .LVU13
  74              	.LBE35:
  75              	.LBE34:
  76              		.loc 2 145 62 is_stmt 0 view .LVU14
  77 0007 53       		pushl	%ebx
  78              		.cfi_def_cfa_offset 20
  79              		.cfi_offset 3, -20
  80 0008 E8FCFFFF 		call	__x86.get_pc_thunk.bx
  80      FF
  81 000d 81C30200 		addl	$_GLOBAL_OFFSET_TABLE_, %ebx
  81      0000
  82 0013 83EC1C   		subl	$28, %esp
  83              		.cfi_def_cfa_offset 48
  84              	.LBB38:
  85              	.LBB36:
  86              		.loc 2 104 18 view .LVU15
  87 0016 8B2A     		movl	(%edx), %ebp
  88              	.LVL4:
  89              		.loc 2 106 3 is_stmt 1 view .LVU16
  90              		.loc 2 106 12 view .LVU17
  91              	.LBE36:
  92              	.LBE38:
  93              		.loc 2 145 62 is_stmt 0 view .LVU18
  94 0018 894C240C 		movl	%ecx, 12(%esp)
  95              	.LBB39:
  96              	.LBB37:
  97              		.loc 2 106 12 view .LVU19
  98 001c 39EA     		cmpl	%ebp, %edx
  99 001e 750F     		jne	.L8
 100 0020 EB36     		jmp	.L5
 101              	.LVL5:
 102              		.p2align 4,,10
 103 0022 8DB60000 		.p2align 3
 103      0000
 104              	.L6:
 105              		.loc 2 110 5 is_stmt 1 view .LVU20
 106              		.loc 2 110 7 is_stmt 0 view .LVU21
 107 0028 8B6D00   		movl	0(%ebp), %ebp
 108              	.LVL6:
GAS LISTING /tmp/ccoiMs3n.s 			page 3


 109              		.loc 2 106 12 is_stmt 1 view .LVU22
 110 002b 39EF     		cmpl	%ebp, %edi
 111 002d 7429     		je	.L5
 112              	.L8:
 113              		.loc 2 107 5 view .LVU23
 114              		.loc 2 107 9 is_stmt 0 view .LVU24
 115 002f 83EC04   		subl	$4, %esp
 116              		.cfi_def_cfa_offset 52
 117 0032 8D4508   		leal	8(%ebp), %eax
 118 0035 6A08     		pushl	$8
 119              		.cfi_def_cfa_offset 56
 120 0037 56       		pushl	%esi
 121              		.cfi_def_cfa_offset 60
 122 0038 50       		pushl	%eax
 123              		.cfi_def_cfa_offset 64
 124 0039 E8FCFFFF 		call	strncmp@PLT
 124      FF
 125              	.LVL7:
 126 003e 83C410   		addl	$16, %esp
 127              		.cfi_def_cfa_offset 48
 128              		.loc 2 107 8 view .LVU25
 129 0041 85C0     		testl	%eax, %eax
 130 0043 75E3     		jne	.L6
 131              		.loc 2 108 7 is_stmt 1 view .LVU26
 132              	.LVL8:
 133              		.loc 2 108 7 is_stmt 0 view .LVU27
 134              	.LBE37:
 135              	.LBE39:
 136              		.loc 2 152 3 is_stmt 1 view .LVU28
 137              		.loc 2 152 6 is_stmt 0 view .LVU29
 138 0045 85ED     		testl	%ebp, %ebp
 139 0047 740F     		je	.L5
 140              	.LVL9:
 141              	.L9:
 142              		.loc 2 171 1 view .LVU30
 143 0049 83C41C   		addl	$28, %esp
 144              		.cfi_remember_state
 145              		.cfi_def_cfa_offset 20
 146              		.loc 2 153 12 view .LVU31
 147 004c 31C9     		xorl	%ecx, %ecx
 148              		.loc 2 171 1 view .LVU32
 149 004e 5B       		popl	%ebx
 150              		.cfi_restore 3
 151              		.cfi_def_cfa_offset 16
 152 004f 89C8     		movl	%ecx, %eax
 153 0051 5E       		popl	%esi
 154              		.cfi_restore 6
 155              		.cfi_def_cfa_offset 12
 156              	.LVL10:
 157              		.loc 2 171 1 view .LVU33
 158 0052 5F       		popl	%edi
 159              		.cfi_restore 7
 160              		.cfi_def_cfa_offset 8
 161              	.LVL11:
 162              		.loc 2 171 1 view .LVU34
 163 0053 5D       		popl	%ebp
 164              		.cfi_restore 5
GAS LISTING /tmp/ccoiMs3n.s 			page 4


 165              		.cfi_def_cfa_offset 4
 166 0054 C3       		ret
 167              	.LVL12:
 168              		.p2align 4,,10
 169 0055 8D7600   		.p2align 3
 170              	.L5:
 171              		.cfi_restore_state
 172              	.LBB40:
 173              	.LBI40:
 174              		.loc 2 142 23 is_stmt 1 view .LVU35
 175              	.LBB41:
 176              		.loc 2 157 3 view .LVU36
 177              		.loc 2 157 26 is_stmt 0 view .LVU37
 178 0058 83EC04   		subl	$4, %esp
 179              		.cfi_def_cfa_offset 52
 180 005b FF742434 		pushl	52(%esp)
 181              		.cfi_def_cfa_offset 56
 182 005f FF742414 		pushl	20(%esp)
 183              		.cfi_def_cfa_offset 60
 184 0063 6A00     		pushl	$0
 185              		.cfi_def_cfa_offset 64
 186 0065 E8FCFFFF 		call	chHeapAllocAligned@PLT
 186      FF
 187              	.LVL13:
 188              		.loc 2 158 6 view .LVU38
 189 006a 83C410   		addl	$16, %esp
 190              		.cfi_def_cfa_offset 48
 191              		.loc 2 157 26 view .LVU39
 192 006d 89C1     		movl	%eax, %ecx
 193              	.LVL14:
 194              		.loc 2 158 3 is_stmt 1 view .LVU40
 195              		.loc 2 158 6 is_stmt 0 view .LVU41
 196 006f 85C0     		testl	%eax, %eax
 197 0071 74D6     		je	.L9
 198 0073 31C0     		xorl	%eax, %eax
 199              	.LVL15:
 200              		.p2align 4,,10
 201 0075 8D7600   		.p2align 3
 202              	.L10:
 203              	.LBB42:
 204              	.LBB43:
 205              		.loc 2 91 3 is_stmt 1 view .LVU42
 206              		.loc 2 92 5 view .LVU43
 207              		.loc 2 92 7 is_stmt 0 view .LVU44
 208 0078 0FB61406 		movzbl	(%esi,%eax), %edx
 209              	.LVL16:
 210              		.loc 2 93 5 is_stmt 1 view .LVU45
 211              		.loc 2 95 15 is_stmt 0 view .LVU46
 212 007c 84D2     		testb	%dl, %dl
 213              		.loc 2 93 11 view .LVU47
 214 007e 88540108 		movb	%dl, 8(%ecx,%eax)
 215              		.loc 2 94 5 is_stmt 1 view .LVU48
 216              	.LVL17:
 217              		.loc 2 95 27 view .LVU49
 218              		.loc 2 95 15 is_stmt 0 view .LVU50
 219 0082 0F95C3   		setne	%bl
 220              		.loc 2 95 33 view .LVU51
GAS LISTING /tmp/ccoiMs3n.s 			page 5


 221 0085 83F807   		cmpl	$7, %eax
 222 0088 0F95C2   		setne	%dl
 223              	.LVL18:
 224              		.loc 2 95 27 view .LVU52
 225 008b 83C001   		addl	$1, %eax
 226              	.LVL19:
 227              		.loc 2 95 27 view .LVU53
 228 008e 84D3     		testb	%dl, %bl
 229 0090 75E6     		jne	.L10
 230              	.LVL20:
 231              		.loc 2 95 27 view .LVU54
 232              	.LBE43:
 233              	.LBE42:
 234              		.loc 2 164 3 is_stmt 1 view .LVU55
 235              		.loc 2 165 13 is_stmt 0 view .LVU56
 236 0092 8B07     		movl	(%edi), %eax
 237              		.loc 2 164 13 view .LVU57
 238 0094 C7410401 		movl	$1, 4(%ecx)
 238      000000
 239              		.loc 2 165 3 is_stmt 1 view .LVU58
 240              		.loc 2 165 13 is_stmt 0 view .LVU59
 241 009b 8901     		movl	%eax, (%ecx)
 242              		.loc 2 168 3 is_stmt 1 view .LVU60
 243              	.LBE41:
 244              	.LBE40:
 245              		.loc 2 171 1 is_stmt 0 view .LVU61
 246 009d 89C8     		movl	%ecx, %eax
 247              	.LBB45:
 248              	.LBB44:
 249              		.loc 2 168 13 view .LVU62
 250 009f 890F     		movl	%ecx, (%edi)
 251              		.loc 2 170 3 is_stmt 1 view .LVU63
 252              	.LVL21:
 253              		.loc 2 170 3 is_stmt 0 view .LVU64
 254              	.LBE44:
 255              	.LBE45:
 256              		.loc 2 171 1 view .LVU65
 257 00a1 83C41C   		addl	$28, %esp
 258              		.cfi_def_cfa_offset 20
 259 00a4 5B       		popl	%ebx
 260              		.cfi_restore 3
 261              		.cfi_def_cfa_offset 16
 262 00a5 5E       		popl	%esi
 263              		.cfi_restore 6
 264              		.cfi_def_cfa_offset 12
 265              	.LVL22:
 266              		.loc 2 171 1 view .LVU66
 267 00a6 5F       		popl	%edi
 268              		.cfi_restore 7
 269              		.cfi_def_cfa_offset 8
 270              	.LVL23:
 271              		.loc 2 171 1 view .LVU67
 272 00a7 5D       		popl	%ebp
 273              		.cfi_restore 5
 274              		.cfi_def_cfa_offset 4
 275 00a8 C3       		ret
 276              		.cfi_endproc
GAS LISTING /tmp/ccoiMs3n.s 			page 6


 277              	.LFE220:
 278              		.size	dyn_create_object_heap, .-dyn_create_object_heap
 279              		.section	.text.__factory_init,"ax",@progbits
 280              		.p2align 4
 281              		.globl	__factory_init
 282              		.type	__factory_init, @function
 283              	__factory_init:
 284              	.LFB225:
 285              		.loc 2 287 27 is_stmt 1 view -0
 286              		.cfi_startproc
 287              		.loc 2 290 3 view .LVU69
 288              		.loc 2 287 27 is_stmt 0 view .LVU70
 289 0000 57       		pushl	%edi
 290              		.cfi_def_cfa_offset 8
 291              		.cfi_offset 7, -8
 292 0001 56       		pushl	%esi
 293              		.cfi_def_cfa_offset 12
 294              		.cfi_offset 6, -12
 295 0002 53       		pushl	%ebx
 296              		.cfi_def_cfa_offset 16
 297              		.cfi_offset 3, -16
 298 0003 E8FCFFFF 		call	__x86.get_pc_thunk.bx
 298      FF
 299 0008 81C30200 		addl	$_GLOBAL_OFFSET_TABLE_, %ebx
 299      0000
 300              		.loc 2 290 3 view .LVU71
 301 000e 83EC0C   		subl	$12, %esp
 302              		.cfi_def_cfa_offset 28
 303 0011 8DB30000 		leal	ch_factory@GOTOFF(%ebx), %esi
 303      0000
 304              	.LBB46:
 305              	.LBB47:
 306              		.file 3 "../../../os/oslib/include/chmempools.h"
 307              		.loc 3 195 3 view .LVU72
 308 0017 8DBB0000 		leal	chCoreAllocAlignedI@GOTOFF(%ebx), %edi
 308      0000
 309              	.LBE47:
 310              	.LBE46:
 311              		.loc 2 290 3 view .LVU73
 312 001d 56       		pushl	%esi
 313              		.cfi_def_cfa_offset 32
 314 001e E8FCFFFF 		call	chMtxObjectInit@PLT
 314      FF
 315              	.LVL24:
 316              		.loc 2 296 3 is_stmt 1 view .LVU74
 317              	.LBB50:
 318              	.LBI50:
 319              		.loc 2 98 20 view .LVU75
 320              	.LBB51:
 321              		.loc 2 100 3 view .LVU76
 322              		.loc 2 100 13 is_stmt 0 view .LVU77
 323 0023 8D4610   		leal	16(%esi), %eax
 324              	.LBE51:
 325              	.LBE50:
 326              	.LBB53:
 327              	.LBB48:
 328              		.loc 3 195 3 view .LVU78
GAS LISTING /tmp/ccoiMs3n.s 			page 7


 329 0026 57       		pushl	%edi
 330              		.cfi_def_cfa_offset 36
 331              	.LBE48:
 332              	.LBE53:
 333              	.LBB54:
 334              	.LBB52:
 335              		.loc 2 100 13 view .LVU79
 336 0027 89831000 		movl	%eax, 16+ch_factory@GOTOFF(%ebx)
 336      0000
 337              	.LVL25:
 338              		.loc 2 100 13 view .LVU80
 339              	.LBE52:
 340              	.LBE54:
 341              		.loc 2 297 3 is_stmt 1 view .LVU81
 342              	.LBB55:
 343              	.LBI46:
 344              		.loc 3 191 20 view .LVU82
 345              	.LBB49:
 346              		.loc 3 195 3 view .LVU83
 347 002d 8D4614   		leal	20(%esi), %eax
 348 0030 6A04     		pushl	$4
 349              		.cfi_def_cfa_offset 40
 350 0032 6A14     		pushl	$20
 351              		.cfi_def_cfa_offset 44
 352 0034 50       		pushl	%eax
 353              		.cfi_def_cfa_offset 48
 354 0035 E8FCFFFF 		call	chPoolObjectInitAligned@PLT
 354      FF
 355              	.LVL26:
 356              		.loc 3 195 3 is_stmt 0 view .LVU84
 357              	.LBE49:
 358              	.LBE55:
 359              		.loc 2 302 3 is_stmt 1 view .LVU85
 360              	.LBB56:
 361              	.LBI56:
 362              		.loc 2 98 20 view .LVU86
 363              	.LBB57:
 364              		.loc 2 100 3 view .LVU87
 365              		.loc 2 100 13 is_stmt 0 view .LVU88
 366 003a 8D4624   		leal	36(%esi), %eax
 367              	.LBE57:
 368              	.LBE56:
 369              	.LBB59:
 370              	.LBB60:
 371              		.loc 3 195 3 view .LVU89
 372 003d 83C420   		addl	$32, %esp
 373              		.cfi_def_cfa_offset 16
 374              	.LBE60:
 375              	.LBE59:
 376              	.LBB62:
 377              	.LBB58:
 378              		.loc 2 100 13 view .LVU90
 379 0040 89832400 		movl	%eax, 36+ch_factory@GOTOFF(%ebx)
 379      0000
 380              	.LVL27:
 381              		.loc 2 100 13 view .LVU91
 382              	.LBE58:
GAS LISTING /tmp/ccoiMs3n.s 			page 8


 383              	.LBE62:
 384              		.loc 2 305 3 is_stmt 1 view .LVU92
 385              	.LBB63:
 386              	.LBI63:
 387              		.loc 2 98 20 view .LVU93
 388              	.LBB64:
 389              		.loc 2 100 3 view .LVU94
 390              		.loc 2 100 13 is_stmt 0 view .LVU95
 391 0046 8D4628   		leal	40(%esi), %eax
 392 0049 89832800 		movl	%eax, 40+ch_factory@GOTOFF(%ebx)
 392      0000
 393              	.LVL28:
 394              		.loc 2 100 13 view .LVU96
 395              	.LBE64:
 396              	.LBE63:
 397              		.loc 2 306 3 is_stmt 1 view .LVU97
 398              	.LBB65:
 399              	.LBI59:
 400              		.loc 3 191 20 view .LVU98
 401              	.LBB61:
 402              		.loc 3 195 3 view .LVU99
 403 004f 8D462C   		leal	44(%esi), %eax
 404 0052 57       		pushl	%edi
 405              		.cfi_def_cfa_offset 20
 406 0053 6A04     		pushl	$4
 407              		.cfi_def_cfa_offset 24
 408 0055 6A1C     		pushl	$28
 409              		.cfi_def_cfa_offset 28
 410 0057 50       		pushl	%eax
 411              		.cfi_def_cfa_offset 32
 412 0058 E8FCFFFF 		call	chPoolObjectInitAligned@PLT
 412      FF
 413              	.LVL29:
 414              		.loc 3 195 3 is_stmt 0 view .LVU100
 415              	.LBE61:
 416              	.LBE65:
 417              		.loc 2 311 3 is_stmt 1 view .LVU101
 418              	.LBB66:
 419              	.LBI66:
 420              		.loc 2 98 20 view .LVU102
 421              	.LBB67:
 422              		.loc 2 100 3 view .LVU103
 423              		.loc 2 100 13 is_stmt 0 view .LVU104
 424 005d 8D463C   		leal	60(%esi), %eax
 425              	.LBE67:
 426              	.LBE66:
 427              		.loc 2 319 1 view .LVU105
 428 0060 83C410   		addl	$16, %esp
 429              		.cfi_def_cfa_offset 16
 430              	.LBB69:
 431              	.LBB68:
 432              		.loc 2 100 13 view .LVU106
 433 0063 89833C00 		movl	%eax, 60+ch_factory@GOTOFF(%ebx)
 433      0000
 434              	.LVL30:
 435              		.loc 2 100 13 view .LVU107
 436              	.LBE68:
GAS LISTING /tmp/ccoiMs3n.s 			page 9


 437              	.LBE69:
 438              		.loc 2 314 3 is_stmt 1 view .LVU108
 439              	.LBB70:
 440              	.LBI70:
 441              		.loc 2 98 20 view .LVU109
 442              	.LBB71:
 443              		.loc 2 100 3 view .LVU110
 444              		.loc 2 100 13 is_stmt 0 view .LVU111
 445 0069 8D4640   		leal	64(%esi), %eax
 446 006c 89834000 		movl	%eax, 64+ch_factory@GOTOFF(%ebx)
 446      0000
 447              	.LVL31:
 448              		.loc 2 100 13 view .LVU112
 449              	.LBE71:
 450              	.LBE70:
 451              		.loc 2 317 3 is_stmt 1 view .LVU113
 452              	.LBB72:
 453              	.LBI72:
 454              		.loc 2 98 20 view .LVU114
 455              	.LBB73:
 456              		.loc 2 100 3 view .LVU115
 457              		.loc 2 100 13 is_stmt 0 view .LVU116
 458 0072 8D4644   		leal	68(%esi), %eax
 459 0075 89834400 		movl	%eax, 68+ch_factory@GOTOFF(%ebx)
 459      0000
 460              	.LVL32:
 461              		.loc 2 100 13 view .LVU117
 462              	.LBE73:
 463              	.LBE72:
 464              		.loc 2 319 1 view .LVU118
 465 007b 5B       		popl	%ebx
 466              		.cfi_restore 3
 467              		.cfi_def_cfa_offset 12
 468 007c 5E       		popl	%esi
 469              		.cfi_restore 6
 470              		.cfi_def_cfa_offset 8
 471 007d 5F       		popl	%edi
 472              		.cfi_restore 7
 473              		.cfi_def_cfa_offset 4
 474 007e C3       		ret
 475              		.cfi_endproc
 476              	.LFE225:
 477              		.size	__factory_init, .-__factory_init
 478              		.section	.text.chFactoryRegisterObject,"ax",@progbits
 479              		.p2align 4
 480              		.globl	chFactoryRegisterObject
 481              		.type	chFactoryRegisterObject, @function
 482              	chFactoryRegisterObject:
 483              	.LVL33:
 484              	.LFB226:
 485              		.loc 2 337 58 is_stmt 1 view -0
 486              		.cfi_startproc
 487              		.loc 2 338 3 view .LVU120
 488              		.loc 2 340 3 view .LVU121
 489              		.loc 2 337 58 is_stmt 0 view .LVU122
 490 0000 55       		pushl	%ebp
 491              		.cfi_def_cfa_offset 8
GAS LISTING /tmp/ccoiMs3n.s 			page 10


 492              		.cfi_offset 5, -8
 493 0001 57       		pushl	%edi
 494              		.cfi_def_cfa_offset 12
 495              		.cfi_offset 7, -12
 496 0002 56       		pushl	%esi
 497              		.cfi_def_cfa_offset 16
 498              		.cfi_offset 6, -16
 499 0003 53       		pushl	%ebx
 500              		.cfi_def_cfa_offset 20
 501              		.cfi_offset 3, -20
 502 0004 E8FCFFFF 		call	__x86.get_pc_thunk.bx
 502      FF
 503 0009 81C30200 		addl	$_GLOBAL_OFFSET_TABLE_, %ebx
 503      0000
 504 000f 83EC28   		subl	$40, %esp
 505              		.cfi_def_cfa_offset 60
 506              		.loc 2 337 58 view .LVU123
 507 0012 8B74243C 		movl	60(%esp), %esi
 508              		.loc 2 340 3 view .LVU124
 509 0016 8D830000 		leal	ch_factory@GOTOFF(%ebx), %eax
 509      0000
 510 001c 89442418 		movl	%eax, 24(%esp)
 511 0020 89C7     		movl	%eax, %edi
 512 0022 50       		pushl	%eax
 513              		.cfi_def_cfa_offset 64
 514 0023 E8FCFFFF 		call	chMtxLock@PLT
 514      FF
 515              	.LVL34:
 516              		.loc 2 342 3 is_stmt 1 view .LVU125
 517              	.LBB82:
 518              	.LBI82:
 519              		.loc 2 203 23 view .LVU126
 520              	.LBB83:
 521              		.loc 2 206 3 view .LVU127
 522              		.loc 2 208 3 view .LVU128
 523              		.loc 2 208 3 view .LVU129
 524              		.loc 2 208 3 view .LVU130
 525              		.loc 2 211 3 view .LVU131
 526              	.LBB84:
 527              	.LBI84:
 528              		.loc 2 103 23 view .LVU132
 529              	.LBB85:
 530              		.loc 2 104 3 view .LVU133
 531              		.loc 2 104 18 is_stmt 0 view .LVU134
 532 0028 8BAB1000 		movl	16+ch_factory@GOTOFF(%ebx), %ebp
 532      0000
 533              	.LVL35:
 534              		.loc 2 106 3 is_stmt 1 view .LVU135
 535              		.loc 2 106 12 view .LVU136
 536 002e 8D4710   		leal	16(%edi), %eax
 537 0031 83C410   		addl	$16, %esp
 538              		.cfi_def_cfa_offset 48
 539 0034 39C5     		cmpl	%eax, %ebp
 540 0036 7448     		je	.L23
 541 0038 8DBB1000 		leal	16+ch_factory@GOTOFF(%ebx), %edi
 541      0000
 542 003e EB07     		jmp	.L25
GAS LISTING /tmp/ccoiMs3n.s 			page 11


 543              		.p2align 4,,10
 544              		.p2align 3
 545              	.L38:
 546              		.loc 2 110 5 view .LVU137
 547              		.loc 2 110 7 is_stmt 0 view .LVU138
 548 0040 8B6D00   		movl	0(%ebp), %ebp
 549              	.LVL36:
 550              		.loc 2 106 12 is_stmt 1 view .LVU139
 551 0043 39FD     		cmpl	%edi, %ebp
 552 0045 7439     		je	.L23
 553              	.L25:
 554              		.loc 2 107 5 view .LVU140
 555              		.loc 2 107 9 is_stmt 0 view .LVU141
 556 0047 83EC04   		subl	$4, %esp
 557              		.cfi_def_cfa_offset 52
 558 004a 8D4508   		leal	8(%ebp), %eax
 559 004d 6A08     		pushl	$8
 560              		.cfi_def_cfa_offset 56
 561 004f 56       		pushl	%esi
 562              		.cfi_def_cfa_offset 60
 563 0050 50       		pushl	%eax
 564              		.cfi_def_cfa_offset 64
 565 0051 E8FCFFFF 		call	strncmp@PLT
 565      FF
 566              	.LVL37:
 567 0056 83C410   		addl	$16, %esp
 568              		.cfi_def_cfa_offset 48
 569              		.loc 2 107 8 view .LVU142
 570 0059 85C0     		testl	%eax, %eax
 571 005b 75E3     		jne	.L38
 572              	.LVL38:
 573              		.loc 2 107 8 view .LVU143
 574              	.LBE85:
 575              	.LBE84:
 576              		.loc 2 212 3 is_stmt 1 view .LVU144
 577              		.loc 2 212 6 is_stmt 0 view .LVU145
 578 005d 85ED     		testl	%ebp, %ebp
 579 005f 741F     		je	.L23
 580              	.LVL39:
 581              	.L27:
 582              		.loc 2 213 12 view .LVU146
 583 0061 31FF     		xorl	%edi, %edi
 584              	.LVL40:
 585              	.L26:
 586              		.loc 2 213 12 view .LVU147
 587              	.LBE83:
 588              	.LBE82:
 589              		.loc 2 350 3 is_stmt 1 view .LVU148
 590 0063 83EC0C   		subl	$12, %esp
 591              		.cfi_def_cfa_offset 60
 592 0066 FF742418 		pushl	24(%esp)
 593              		.cfi_def_cfa_offset 64
 594 006a E8FCFFFF 		call	chMtxUnlock@PLT
 594      FF
 595              	.LVL41:
 596              		.loc 2 352 3 view .LVU149
 597              		.loc 2 353 1 is_stmt 0 view .LVU150
GAS LISTING /tmp/ccoiMs3n.s 			page 12


 598 006f 83C42C   		addl	$44, %esp
 599              		.cfi_def_cfa_offset 20
 600 0072 89F8     		movl	%edi, %eax
 601 0074 5B       		popl	%ebx
 602              		.cfi_restore 3
 603              		.cfi_def_cfa_offset 16
 604 0075 5E       		popl	%esi
 605              		.cfi_restore 6
 606              		.cfi_def_cfa_offset 12
 607 0076 5F       		popl	%edi
 608              		.cfi_restore 7
 609              		.cfi_def_cfa_offset 8
 610 0077 5D       		popl	%ebp
 611              		.cfi_restore 5
 612              		.cfi_def_cfa_offset 4
 613 0078 C3       		ret
 614              	.LVL42:
 615 0079 8DB42600 		.p2align 4,,10
 615      000000
 616              		.p2align 3
 617              	.L23:
 618              		.cfi_def_cfa_offset 48
 619              		.cfi_offset 3, -20
 620              		.cfi_offset 5, -8
 621              		.cfi_offset 6, -16
 622              		.cfi_offset 7, -12
 623              	.LBB94:
 624              	.LBB92:
 625              	.LBB86:
 626              	.LBI86:
 627              		.loc 2 203 23 is_stmt 1 view .LVU151
 628              	.LBB87:
 629              		.loc 2 217 3 view .LVU152
 630              		.loc 2 217 26 is_stmt 0 view .LVU153
 631 0080 83EC0C   		subl	$12, %esp
 632              		.cfi_def_cfa_offset 60
 633 0083 8D831400 		leal	20+ch_factory@GOTOFF(%ebx), %eax
 633      0000
 634 0089 50       		pushl	%eax
 635              		.cfi_def_cfa_offset 64
 636 008a E8FCFFFF 		call	chPoolAlloc@PLT
 636      FF
 637              	.LVL43:
 638              		.loc 2 218 6 view .LVU154
 639 008f 83C410   		addl	$16, %esp
 640              		.cfi_def_cfa_offset 48
 641              		.loc 2 217 26 view .LVU155
 642 0092 89C7     		movl	%eax, %edi
 643              	.LVL44:
 644              		.loc 2 218 3 is_stmt 1 view .LVU156
 645              		.loc 2 218 6 is_stmt 0 view .LVU157
 646 0094 85C0     		testl	%eax, %eax
 647 0096 74C9     		je	.L27
 648 0098 31C0     		xorl	%eax, %eax
 649              	.LVL45:
 650 009a 8DB60000 		.p2align 4,,10
 650      0000
GAS LISTING /tmp/ccoiMs3n.s 			page 13


 651              		.p2align 3
 652              	.L28:
 653              	.LBB88:
 654              	.LBB89:
 655              		.loc 2 91 3 is_stmt 1 view .LVU158
 656              		.loc 2 92 5 view .LVU159
 657              		.loc 2 92 7 is_stmt 0 view .LVU160
 658 00a0 0FB61406 		movzbl	(%esi,%eax), %edx
 659              	.LVL46:
 660              		.loc 2 93 5 is_stmt 1 view .LVU161
 661              		.loc 2 95 15 is_stmt 0 view .LVU162
 662 00a4 84D2     		testb	%dl, %dl
 663              		.loc 2 93 11 view .LVU163
 664 00a6 88540708 		movb	%dl, 8(%edi,%eax)
 665              		.loc 2 94 5 is_stmt 1 view .LVU164
 666              	.LVL47:
 667              		.loc 2 95 27 view .LVU165
 668              		.loc 2 95 15 is_stmt 0 view .LVU166
 669 00aa 0F95C1   		setne	%cl
 670              		.loc 2 95 33 view .LVU167
 671 00ad 83F807   		cmpl	$7, %eax
 672 00b0 0F95C2   		setne	%dl
 673              	.LVL48:
 674              		.loc 2 95 27 view .LVU168
 675 00b3 83C001   		addl	$1, %eax
 676              	.LVL49:
 677              		.loc 2 95 27 view .LVU169
 678 00b6 84D1     		testb	%dl, %cl
 679 00b8 75E6     		jne	.L28
 680              	.LVL50:
 681              		.loc 2 95 27 view .LVU170
 682              	.LBE89:
 683              	.LBE88:
 684              		.loc 2 224 3 is_stmt 1 view .LVU171
 685              		.loc 2 225 13 is_stmt 0 view .LVU172
 686 00ba 8B831000 		movl	16+ch_factory@GOTOFF(%ebx), %eax
 686      0000
 687              		.loc 2 224 13 view .LVU173
 688 00c0 C7470401 		movl	$1, 4(%edi)
 688      000000
 689              		.loc 2 225 3 is_stmt 1 view .LVU174
 690              		.loc 2 225 13 is_stmt 0 view .LVU175
 691 00c7 8907     		movl	%eax, (%edi)
 692              		.loc 2 228 3 is_stmt 1 view .LVU176
 693              	.LBE87:
 694              	.LBE86:
 695              	.LBE92:
 696              	.LBE94:
 697              		.loc 2 347 15 is_stmt 0 view .LVU177
 698 00c9 8B442434 		movl	52(%esp), %eax
 699              	.LBB95:
 700              	.LBB93:
 701              	.LBB91:
 702              	.LBB90:
 703              		.loc 2 228 13 view .LVU178
 704 00cd 89BB1000 		movl	%edi, 16+ch_factory@GOTOFF(%ebx)
 704      0000
GAS LISTING /tmp/ccoiMs3n.s 			page 14


 705              		.loc 2 230 3 is_stmt 1 view .LVU179
 706              	.LVL51:
 707              		.loc 2 230 3 is_stmt 0 view .LVU180
 708              	.LBE90:
 709              	.LBE91:
 710              	.LBE93:
 711              	.LBE95:
 712              		.loc 2 345 3 is_stmt 1 view .LVU181
 713              		.loc 2 347 5 view .LVU182
 714              		.loc 2 347 15 is_stmt 0 view .LVU183
 715 00d3 894710   		movl	%eax, 16(%edi)
 716 00d6 EB8B     		jmp	.L26
 717              		.cfi_endproc
 718              	.LFE226:
 719              		.size	chFactoryRegisterObject, .-chFactoryRegisterObject
 720              		.section	.text.chFactoryFindObject,"ax",@progbits
 721              		.p2align 4
 722              		.globl	chFactoryFindObject
 723              		.type	chFactoryFindObject, @function
 724              	chFactoryFindObject:
 725              	.LVL52:
 726              	.LFB227:
 727              		.loc 2 368 60 is_stmt 1 view -0
 728              		.cfi_startproc
 729              		.loc 2 369 3 view .LVU185
 730              		.loc 2 371 3 view .LVU186
 731              		.loc 2 368 60 is_stmt 0 view .LVU187
 732 0000 55       		pushl	%ebp
 733              		.cfi_def_cfa_offset 8
 734              		.cfi_offset 5, -8
 735 0001 57       		pushl	%edi
 736              		.cfi_def_cfa_offset 12
 737              		.cfi_offset 7, -12
 738 0002 56       		pushl	%esi
 739              		.cfi_def_cfa_offset 16
 740              		.cfi_offset 6, -16
 741 0003 53       		pushl	%ebx
 742              		.cfi_def_cfa_offset 20
 743              		.cfi_offset 3, -20
 744 0004 E8FCFFFF 		call	__x86.get_pc_thunk.bx
 744      FF
 745 0009 81C30200 		addl	$_GLOBAL_OFFSET_TABLE_, %ebx
 745      0000
 746 000f 83EC28   		subl	$40, %esp
 747              		.cfi_def_cfa_offset 60
 748              		.loc 2 368 60 view .LVU188
 749 0012 8B74243C 		movl	60(%esp), %esi
 750              		.loc 2 371 3 view .LVU189
 751 0016 8D830000 		leal	ch_factory@GOTOFF(%ebx), %eax
 751      0000
 752 001c 89442418 		movl	%eax, 24(%esp)
 753 0020 89C7     		movl	%eax, %edi
 754 0022 50       		pushl	%eax
 755              		.cfi_def_cfa_offset 64
 756 0023 E8FCFFFF 		call	chMtxLock@PLT
 756      FF
 757              	.LVL53:
GAS LISTING /tmp/ccoiMs3n.s 			page 15


 758              		.loc 2 373 3 is_stmt 1 view .LVU190
 759              	.LBB100:
 760              	.LBI100:
 761              		.loc 2 263 23 view .LVU191
 762              	.LBB101:
 763              		.loc 2 264 3 view .LVU192
 764              		.loc 2 266 3 view .LVU193
 765              		.loc 2 266 3 view .LVU194
 766              		.loc 2 266 3 view .LVU195
 767              		.loc 2 269 3 view .LVU196
 768              	.LBB102:
 769              	.LBI102:
 770              		.loc 2 103 23 view .LVU197
 771              	.LBB103:
 772              		.loc 2 104 3 view .LVU198
 773              		.loc 2 104 18 is_stmt 0 view .LVU199
 774 0028 8BAB1000 		movl	16+ch_factory@GOTOFF(%ebx), %ebp
 774      0000
 775              	.LVL54:
 776              		.loc 2 106 3 is_stmt 1 view .LVU200
 777              		.loc 2 106 12 view .LVU201
 778 002e 8D4710   		leal	16(%edi), %eax
 779 0031 83C410   		addl	$16, %esp
 780              		.cfi_def_cfa_offset 48
 781 0034 39C5     		cmpl	%eax, %ebp
 782 0036 7448     		je	.L44
 783 0038 8DBB1000 		leal	16+ch_factory@GOTOFF(%ebx), %edi
 783      0000
 784 003e EB07     		jmp	.L43
 785              		.p2align 4,,10
 786              		.p2align 3
 787              	.L41:
 788              		.loc 2 110 5 view .LVU202
 789              		.loc 2 110 7 is_stmt 0 view .LVU203
 790 0040 8B6D00   		movl	0(%ebp), %ebp
 791              	.LVL55:
 792              		.loc 2 106 12 is_stmt 1 view .LVU204
 793 0043 39FD     		cmpl	%edi, %ebp
 794 0045 7439     		je	.L44
 795              	.L43:
 796              		.loc 2 107 5 view .LVU205
 797              		.loc 2 107 9 is_stmt 0 view .LVU206
 798 0047 83EC04   		subl	$4, %esp
 799              		.cfi_def_cfa_offset 52
 800 004a 8D4508   		leal	8(%ebp), %eax
 801 004d 6A08     		pushl	$8
 802              		.cfi_def_cfa_offset 56
 803 004f 56       		pushl	%esi
 804              		.cfi_def_cfa_offset 60
 805 0050 50       		pushl	%eax
 806              		.cfi_def_cfa_offset 64
 807 0051 E8FCFFFF 		call	strncmp@PLT
 807      FF
 808              	.LVL56:
 809 0056 83C410   		addl	$16, %esp
 810              		.cfi_def_cfa_offset 48
 811              		.loc 2 107 8 view .LVU207
GAS LISTING /tmp/ccoiMs3n.s 			page 16


 812 0059 85C0     		testl	%eax, %eax
 813 005b 75E3     		jne	.L41
 814              		.loc 2 108 7 is_stmt 1 view .LVU208
 815              	.LVL57:
 816              		.loc 2 108 7 is_stmt 0 view .LVU209
 817              	.LBE103:
 818              	.LBE102:
 819              		.loc 2 270 3 is_stmt 1 view .LVU210
 820              		.loc 2 270 6 is_stmt 0 view .LVU211
 821 005d 85ED     		testl	%ebp, %ebp
 822 005f 7404     		je	.L40
 823              		.loc 2 272 5 is_stmt 1 view .LVU212
 824              		.loc 2 272 14 is_stmt 0 view .LVU213
 825 0061 83450401 		addl	$1, 4(%ebp)
 826              	.LVL58:
 827              	.L40:
 828              		.loc 2 275 3 is_stmt 1 view .LVU214
 829              		.loc 2 275 3 is_stmt 0 view .LVU215
 830              	.LBE101:
 831              	.LBE100:
 832              		.loc 2 375 3 is_stmt 1 view .LVU216
 833 0065 83EC0C   		subl	$12, %esp
 834              		.cfi_def_cfa_offset 60
 835 0068 FF742418 		pushl	24(%esp)
 836              		.cfi_def_cfa_offset 64
 837 006c E8FCFFFF 		call	chMtxUnlock@PLT
 837      FF
 838              	.LVL59:
 839              		.loc 2 377 3 view .LVU217
 840              		.loc 2 378 1 is_stmt 0 view .LVU218
 841 0071 83C42C   		addl	$44, %esp
 842              		.cfi_def_cfa_offset 20
 843 0074 89E8     		movl	%ebp, %eax
 844 0076 5B       		popl	%ebx
 845              		.cfi_restore 3
 846              		.cfi_def_cfa_offset 16
 847 0077 5E       		popl	%esi
 848              		.cfi_restore 6
 849              		.cfi_def_cfa_offset 12
 850 0078 5F       		popl	%edi
 851              		.cfi_restore 7
 852              		.cfi_def_cfa_offset 8
 853 0079 5D       		popl	%ebp
 854              		.cfi_restore 5
 855              		.cfi_def_cfa_offset 4
 856              	.LVL60:
 857              		.loc 2 378 1 view .LVU219
 858 007a C3       		ret
 859              	.LVL61:
 860 007b 8D742600 		.p2align 4,,10
 860      90
 861              		.p2align 3
 862              	.L44:
 863              		.cfi_def_cfa_offset 48
 864              		.cfi_offset 3, -20
 865              		.cfi_offset 5, -8
 866              		.cfi_offset 6, -16
GAS LISTING /tmp/ccoiMs3n.s 			page 17


 867              		.cfi_offset 7, -12
 868              	.LBB107:
 869              	.LBB106:
 870              	.LBB105:
 871              	.LBB104:
 872              		.loc 2 113 10 view .LVU220
 873 0080 31ED     		xorl	%ebp, %ebp
 874              	.LVL62:
 875              		.loc 2 113 10 view .LVU221
 876 0082 EBE1     		jmp	.L40
 877              	.LBE104:
 878              	.LBE105:
 879              	.LBE106:
 880              	.LBE107:
 881              		.cfi_endproc
 882              	.LFE227:
 883              		.size	chFactoryFindObject, .-chFactoryFindObject
 884              		.section	.text.chFactoryFindObjectByPointer,"ax",@progbits
 885              		.p2align 4
 886              		.globl	chFactoryFindObjectByPointer
 887              		.type	chFactoryFindObjectByPointer, @function
 888              	chFactoryFindObjectByPointer:
 889              	.LVL63:
 890              	.LFB228:
 891              		.loc 2 393 63 is_stmt 1 view -0
 892              		.cfi_startproc
 893              		.loc 2 394 3 view .LVU223
 894              		.loc 2 393 63 is_stmt 0 view .LVU224
 895 0000 55       		pushl	%ebp
 896              		.cfi_def_cfa_offset 8
 897              		.cfi_offset 5, -8
 898 0001 57       		pushl	%edi
 899              		.cfi_def_cfa_offset 12
 900              		.cfi_offset 7, -12
 901 0002 56       		pushl	%esi
 902              		.cfi_def_cfa_offset 16
 903              		.cfi_offset 6, -16
 904 0003 53       		pushl	%ebx
 905              		.cfi_def_cfa_offset 20
 906              		.cfi_offset 3, -20
 907 0004 E8FCFFFF 		call	__x86.get_pc_thunk.bx
 907      FF
 908 0009 81C30200 		addl	$_GLOBAL_OFFSET_TABLE_, %ebx
 908      0000
 909 000f 83EC18   		subl	$24, %esp
 910              		.cfi_def_cfa_offset 44
 911              		.loc 2 393 63 view .LVU225
 912 0012 8B7C242C 		movl	44(%esp), %edi
 913              		.loc 2 396 3 view .LVU226
 914 0016 8DAB0000 		leal	ch_factory@GOTOFF(%ebx), %ebp
 914      0000
 915              		.loc 2 394 24 view .LVU227
 916 001c 8BB31000 		movl	16+ch_factory@GOTOFF(%ebx), %esi
 916      0000
 917              	.LVL64:
 918              		.loc 2 396 3 is_stmt 1 view .LVU228
 919 0022 55       		pushl	%ebp
GAS LISTING /tmp/ccoiMs3n.s 			page 18


 920              		.cfi_def_cfa_offset 48
 921 0023 E8FCFFFF 		call	chMtxLock@PLT
 921      FF
 922              	.LVL65:
 923              		.loc 2 398 3 view .LVU229
 924              		.loc 2 398 22 view .LVU230
 925 0028 8D4510   		leal	16(%ebp), %eax
 926 002b 83C410   		addl	$16, %esp
 927              		.cfi_def_cfa_offset 32
 928 002e 39C6     		cmpl	%eax, %esi
 929 0030 7436     		je	.L48
 930 0032 8D831000 		leal	16+ch_factory@GOTOFF(%ebx), %eax
 930      0000
 931 0038 EB0C     		jmp	.L51
 932 003a 8DB60000 		.p2align 4,,10
 932      0000
 933              		.p2align 3
 934              	.L49:
 935              		.loc 2 406 5 view .LVU231
 936              		.loc 2 406 9 is_stmt 0 view .LVU232
 937 0040 8B36     		movl	(%esi), %esi
 938              	.LVL66:
 939              		.loc 2 398 22 is_stmt 1 view .LVU233
 940 0042 39C6     		cmpl	%eax, %esi
 941 0044 7422     		je	.L48
 942              	.L51:
 943              		.loc 2 399 5 view .LVU234
 944              		.loc 2 399 8 is_stmt 0 view .LVU235
 945 0046 397E10   		cmpl	%edi, 16(%esi)
 946 0049 75F5     		jne	.L49
 947              		.loc 2 400 7 is_stmt 1 view .LVU236
 948              		.loc 2 400 24 is_stmt 0 view .LVU237
 949 004b 83460401 		addl	$1, 4(%esi)
 950              		.loc 2 402 7 is_stmt 1 view .LVU238
 951 004f 83EC0C   		subl	$12, %esp
 952              		.cfi_def_cfa_offset 44
 953 0052 55       		pushl	%ebp
 954              		.cfi_def_cfa_offset 48
 955 0053 E8FCFFFF 		call	chMtxUnlock@PLT
 955      FF
 956              	.LVL67:
 957              		.loc 2 404 7 view .LVU239
 958              		.loc 2 404 14 is_stmt 0 view .LVU240
 959 0058 83C410   		addl	$16, %esp
 960              		.cfi_def_cfa_offset 32
 961              		.loc 2 412 1 view .LVU241
 962 005b 89F0     		movl	%esi, %eax
 963 005d 83C40C   		addl	$12, %esp
 964              		.cfi_remember_state
 965              		.cfi_def_cfa_offset 20
 966 0060 5B       		popl	%ebx
 967              		.cfi_restore 3
 968              		.cfi_def_cfa_offset 16
 969 0061 5E       		popl	%esi
 970              		.cfi_restore 6
 971              		.cfi_def_cfa_offset 12
 972              	.LVL68:
GAS LISTING /tmp/ccoiMs3n.s 			page 19


 973              		.loc 2 412 1 view .LVU242
 974 0062 5F       		popl	%edi
 975              		.cfi_restore 7
 976              		.cfi_def_cfa_offset 8
 977 0063 5D       		popl	%ebp
 978              		.cfi_restore 5
 979              		.cfi_def_cfa_offset 4
 980 0064 C3       		ret
 981              	.LVL69:
 982              		.p2align 4,,10
 983 0065 8D7600   		.p2align 3
 984              	.L48:
 985              		.cfi_restore_state
 986              		.loc 2 409 3 is_stmt 1 view .LVU243
 987 0068 83EC0C   		subl	$12, %esp
 988              		.cfi_def_cfa_offset 44
 989              		.loc 2 411 10 is_stmt 0 view .LVU244
 990 006b 31F6     		xorl	%esi, %esi
 991              	.LVL70:
 992              		.loc 2 409 3 view .LVU245
 993 006d 55       		pushl	%ebp
 994              		.cfi_def_cfa_offset 48
 995 006e E8FCFFFF 		call	chMtxUnlock@PLT
 995      FF
 996              	.LVL71:
 997              		.loc 2 411 3 is_stmt 1 view .LVU246
 998              		.loc 2 411 10 is_stmt 0 view .LVU247
 999 0073 83C410   		addl	$16, %esp
 1000              		.cfi_def_cfa_offset 32
 1001              		.loc 2 412 1 view .LVU248
 1002 0076 89F0     		movl	%esi, %eax
 1003 0078 83C40C   		addl	$12, %esp
 1004              		.cfi_def_cfa_offset 20
 1005 007b 5B       		popl	%ebx
 1006              		.cfi_restore 3
 1007              		.cfi_def_cfa_offset 16
 1008 007c 5E       		popl	%esi
 1009              		.cfi_restore 6
 1010              		.cfi_def_cfa_offset 12
 1011 007d 5F       		popl	%edi
 1012              		.cfi_restore 7
 1013              		.cfi_def_cfa_offset 8
 1014 007e 5D       		popl	%ebp
 1015              		.cfi_restore 5
 1016              		.cfi_def_cfa_offset 4
 1017 007f C3       		ret
 1018              		.cfi_endproc
 1019              	.LFE228:
 1020              		.size	chFactoryFindObjectByPointer, .-chFactoryFindObjectByPointer
 1021              		.section	.text.chFactoryReleaseObject,"ax",@progbits
 1022              		.p2align 4
 1023              		.globl	chFactoryReleaseObject
 1024              		.type	chFactoryReleaseObject, @function
 1025              	chFactoryReleaseObject:
 1026              	.LVL72:
 1027              	.LFB229:
 1028              		.loc 2 430 57 is_stmt 1 view -0
GAS LISTING /tmp/ccoiMs3n.s 			page 20


 1029              		.cfi_startproc
 1030              		.loc 2 431 3 view .LVU250
 1031              		.loc 2 433 3 view .LVU251
 1032              		.loc 2 430 57 is_stmt 0 view .LVU252
 1033 0000 55       		pushl	%ebp
 1034              		.cfi_def_cfa_offset 8
 1035              		.cfi_offset 5, -8
 1036 0001 57       		pushl	%edi
 1037              		.cfi_def_cfa_offset 12
 1038              		.cfi_offset 7, -12
 1039 0002 56       		pushl	%esi
 1040              		.cfi_def_cfa_offset 16
 1041              		.cfi_offset 6, -16
 1042 0003 53       		pushl	%ebx
 1043              		.cfi_def_cfa_offset 20
 1044              		.cfi_offset 3, -20
 1045 0004 E8FCFFFF 		call	__x86.get_pc_thunk.bx
 1045      FF
 1046 0009 81C30200 		addl	$_GLOBAL_OFFSET_TABLE_, %ebx
 1046      0000
 1047 000f 83EC18   		subl	$24, %esp
 1048              		.cfi_def_cfa_offset 44
 1049              		.loc 2 430 57 view .LVU253
 1050 0012 8B74242C 		movl	44(%esp), %esi
 1051              		.loc 2 433 3 view .LVU254
 1052 0016 8DBB0000 		leal	ch_factory@GOTOFF(%ebx), %edi
 1052      0000
 1053 001c 57       		pushl	%edi
 1054              		.cfi_def_cfa_offset 48
 1055 001d E8FCFFFF 		call	chMtxLock@PLT
 1055      FF
 1056              	.LVL73:
 1057              		.loc 2 435 3 is_stmt 1 view .LVU255
 1058              	.LBB114:
 1059              	.LBI114:
 1060              		.loc 2 233 15 view .LVU256
 1061              	.LBB115:
 1062              		.loc 2 236 3 view .LVU257
 1063              		.loc 2 237 3 view .LVU258
 1064              		.loc 2 239 3 view .LVU259
 1065              		.loc 2 239 3 view .LVU260
 1066              		.loc 2 239 3 view .LVU261
 1067              		.loc 2 242 3 view .LVU262
 1068              	.LBB116:
 1069              	.LBI116:
 1070              		.loc 2 116 23 view .LVU263
 1071              	.LBB117:
 1072              		.loc 2 118 3 view .LVU264
 1073              		.loc 2 121 3 view .LVU265
 1074              		.loc 2 121 9 is_stmt 0 view .LVU266
 1075 0022 83C410   		addl	$16, %esp
 1076              		.cfi_def_cfa_offset 32
 1077              		.loc 2 118 18 view .LVU267
 1078 0025 8D4710   		leal	16(%edi), %eax
 1079 0028 8D931000 		leal	16+ch_factory@GOTOFF(%ebx), %edx
 1079      0000
 1080              		.loc 2 121 9 view .LVU268
GAS LISTING /tmp/ccoiMs3n.s 			page 21


 1081 002e EB04     		jmp	.L55
 1082              	.LVL74:
 1083              		.p2align 4,,10
 1084              		.p2align 3
 1085              	.L57:
 1086              		.loc 2 122 5 is_stmt 1 view .LVU269
 1087              		.loc 2 122 8 is_stmt 0 view .LVU270
 1088 0030 39C6     		cmpl	%eax, %esi
 1089 0032 7424     		je	.L56
 1090              	.LVL75:
 1091              	.L55:
 1092              		.loc 2 121 21 is_stmt 1 view .LVU271
 1093 0034 89C1     		movl	%eax, %ecx
 1094              		.loc 2 121 14 is_stmt 0 view .LVU272
 1095 0036 8B00     		movl	(%eax), %eax
 1096              	.LVL76:
 1097              		.loc 2 121 21 view .LVU273
 1098 0038 39D0     		cmpl	%edx, %eax
 1099 003a 75F4     		jne	.L57
 1100              	.LBE117:
 1101              	.LBE116:
 1102              		.loc 2 256 10 view .LVU274
 1103 003c 31ED     		xorl	%ebp, %ebp
 1104              	.LVL77:
 1105              	.L58:
 1106              		.loc 2 259 3 is_stmt 1 view .LVU275
 1107              		.loc 2 259 3 is_stmt 0 view .LVU276
 1108              	.LBE115:
 1109              	.LBE114:
 1110              		.loc 2 439 3 is_stmt 1 view .LVU277
 1111 003e 83EC0C   		subl	$12, %esp
 1112              		.cfi_def_cfa_offset 44
 1113 0041 57       		pushl	%edi
 1114              		.cfi_def_cfa_offset 48
 1115 0042 E8FCFFFF 		call	chMtxUnlock@PLT
 1115      FF
 1116              	.LVL78:
 1117              		.loc 2 441 3 view .LVU278
 1118              		.loc 2 442 1 is_stmt 0 view .LVU279
 1119 0047 83C41C   		addl	$28, %esp
 1120              		.cfi_def_cfa_offset 20
 1121 004a 89E8     		movl	%ebp, %eax
 1122 004c 5B       		popl	%ebx
 1123              		.cfi_restore 3
 1124              		.cfi_def_cfa_offset 16
 1125 004d 5E       		popl	%esi
 1126              		.cfi_restore 6
 1127              		.cfi_def_cfa_offset 12
 1128 004e 5F       		popl	%edi
 1129              		.cfi_restore 7
 1130              		.cfi_def_cfa_offset 8
 1131 004f 5D       		popl	%ebp
 1132              		.cfi_restore 5
 1133              		.cfi_def_cfa_offset 4
 1134              	.LVL79:
 1135              		.loc 2 442 1 view .LVU280
 1136 0050 C3       		ret
GAS LISTING /tmp/ccoiMs3n.s 			page 22


 1137              	.LVL80:
 1138              		.p2align 4,,10
 1139 0051 8DB42600 		.p2align 3
 1139      000000
 1140              	.L56:
 1141              		.cfi_def_cfa_offset 32
 1142              		.cfi_offset 3, -20
 1143              		.cfi_offset 5, -8
 1144              		.cfi_offset 6, -16
 1145              		.cfi_offset 7, -12
 1146              	.LBB123:
 1147              	.LBB122:
 1148              		.loc 2 243 3 is_stmt 1 view .LVU281
 1149              		.loc 2 245 5 view .LVU282
 1150              		.loc 2 245 5 view .LVU283
 1151              		.loc 2 245 5 view .LVU284
 1152              		.loc 2 247 5 view .LVU285
 1153              		.loc 2 247 12 is_stmt 0 view .LVU286
 1154 0058 8B4604   		movl	4(%esi), %eax
 1155 005b 8D68FF   		leal	-1(%eax), %ebp
 1156              		.loc 2 247 10 view .LVU287
 1157 005e 896E04   		movl	%ebp, 4(%esi)
 1158              	.LVL81:
 1159              		.loc 2 248 5 is_stmt 1 view .LVU288
 1160              		.loc 2 248 8 is_stmt 0 view .LVU289
 1161 0061 85ED     		testl	%ebp, %ebp
 1162 0063 75D9     		jne	.L58
 1163              		.loc 2 249 7 is_stmt 1 view .LVU290
 1164              	.LVL82:
 1165              	.LBB118:
 1166              	.LBI118:
 1167              		.loc 2 133 23 view .LVU291
 1168              	.LBB119:
 1169              		.loc 2 134 3 view .LVU292
 1170              		.loc 2 136 3 view .LVU293
 1171              		.loc 2 136 23 is_stmt 0 view .LVU294
 1172 0065 8B06     		movl	(%esi), %eax
 1173              	.LBE119:
 1174              	.LBE118:
 1175              		.loc 2 249 7 view .LVU295
 1176 0067 83EC08   		subl	$8, %esp
 1177              		.cfi_def_cfa_offset 40
 1178              	.LBB121:
 1179              	.LBB120:
 1180              		.loc 2 136 14 view .LVU296
 1181 006a 8901     		movl	%eax, (%ecx)
 1182              		.loc 2 138 3 is_stmt 1 view .LVU297
 1183              	.LVL83:
 1184              		.loc 2 138 3 is_stmt 0 view .LVU298
 1185              	.LBE120:
 1186              	.LBE121:
 1187              		.loc 2 249 7 view .LVU299
 1188 006c 8D4204   		leal	4(%edx), %eax
 1189 006f 56       		pushl	%esi
 1190              		.cfi_def_cfa_offset 44
 1191 0070 50       		pushl	%eax
 1192              		.cfi_def_cfa_offset 48
GAS LISTING /tmp/ccoiMs3n.s 			page 23


 1193 0071 E8FCFFFF 		call	chPoolFree@PLT
 1193      FF
 1194              	.LVL84:
 1195              		.loc 2 249 7 view .LVU300
 1196 0076 83C410   		addl	$16, %esp
 1197              		.cfi_def_cfa_offset 32
 1198 0079 EBC3     		jmp	.L58
 1199              	.LBE122:
 1200              	.LBE123:
 1201              		.cfi_endproc
 1202              	.LFE229:
 1203              		.size	chFactoryReleaseObject, .-chFactoryReleaseObject
 1204              		.section	.text.chFactoryCreateBuffer,"ax",@progbits
 1205              		.p2align 4
 1206              		.globl	chFactoryCreateBuffer
 1207              		.type	chFactoryCreateBuffer, @function
 1208              	chFactoryCreateBuffer:
 1209              	.LVL85:
 1210              	.LFB230:
 1211              		.loc 2 461 68 is_stmt 1 view -0
 1212              		.cfi_startproc
 1213              		.loc 2 462 3 view .LVU302
 1214              		.loc 2 464 3 view .LVU303
 1215              		.loc 2 461 68 is_stmt 0 view .LVU304
 1216 0000 55       		pushl	%ebp
 1217              		.cfi_def_cfa_offset 8
 1218              		.cfi_offset 5, -8
 1219 0001 57       		pushl	%edi
 1220              		.cfi_def_cfa_offset 12
 1221              		.cfi_offset 7, -12
 1222 0002 56       		pushl	%esi
 1223              		.cfi_def_cfa_offset 16
 1224              		.cfi_offset 6, -16
 1225 0003 53       		pushl	%ebx
 1226              		.cfi_def_cfa_offset 20
 1227              		.cfi_offset 3, -20
 1228 0004 E8FCFFFF 		call	__x86.get_pc_thunk.bx
 1228      FF
 1229 0009 81C30200 		addl	$_GLOBAL_OFFSET_TABLE_, %ebx
 1229      0000
 1230 000f 83EC18   		subl	$24, %esp
 1231              		.cfi_def_cfa_offset 44
 1232              		.loc 2 461 68 view .LVU305
 1233 0012 8B6C2430 		movl	48(%esp), %ebp
 1234              		.loc 2 464 3 view .LVU306
 1235 0016 8DBB0000 		leal	ch_factory@GOTOFF(%ebx), %edi
 1235      0000
 1236 001c 57       		pushl	%edi
 1237              		.cfi_def_cfa_offset 48
 1238 001d E8FCFFFF 		call	chMtxLock@PLT
 1238      FF
 1239              	.LVL86:
 1240              		.loc 2 466 3 is_stmt 1 view .LVU307
 1241              		.loc 2 466 25 is_stmt 0 view .LVU308
 1242 0022 8B442430 		movl	48(%esp), %eax
 1243 0026 8D4D10   		leal	16(%ebp), %ecx
 1244 0029 8D932400 		leal	36+ch_factory@GOTOFF(%ebx), %edx
GAS LISTING /tmp/ccoiMs3n.s 			page 24


 1244      0000
 1245 002f C7042408 		movl	$8, (%esp)
 1245      000000
 1246 0036 E8FCFFFF 		call	dyn_create_object_heap
 1246      FF
 1247              	.LVL87:
 1248              		.loc 2 470 6 view .LVU309
 1249 003b 83C410   		addl	$16, %esp
 1250              		.cfi_def_cfa_offset 32
 1251              		.loc 2 466 25 view .LVU310
 1252 003e 89C6     		movl	%eax, %esi
 1253              	.LVL88:
 1254              		.loc 2 470 3 is_stmt 1 view .LVU311
 1255              		.loc 2 470 6 is_stmt 0 view .LVU312
 1256 0040 85C0     		testl	%eax, %eax
 1257 0042 7412     		je	.L63
 1258              		.loc 2 472 5 is_stmt 1 view .LVU313
 1259              	.LVL89:
 1260              	.LBB124:
 1261              	.LBI124:
 1262              		.file 4 "/usr/include/bits/string_fortified.h"
 1263              		.loc 4 57 1 view .LVU314
 1264              	.LBB125:
 1265              		.loc 4 59 3 view .LVU315
 1266              		.loc 4 59 10 is_stmt 0 view .LVU316
 1267 0044 83EC04   		subl	$4, %esp
 1268              		.cfi_def_cfa_offset 36
 1269              	.LBE125:
 1270              	.LBE124:
 1271              		.loc 2 472 25 view .LVU317
 1272 0047 8D4010   		leal	16(%eax), %eax
 1273              	.LVL90:
 1274              	.LBB127:
 1275              	.LBB126:
 1276              		.loc 4 59 10 view .LVU318
 1277 004a 55       		pushl	%ebp
 1278              		.cfi_def_cfa_offset 40
 1279 004b 6A00     		pushl	$0
 1280              		.cfi_def_cfa_offset 44
 1281 004d 50       		pushl	%eax
 1282              		.cfi_def_cfa_offset 48
 1283 004e E8FCFFFF 		call	memset@PLT
 1283      FF
 1284              	.LVL91:
 1285              		.loc 4 59 10 view .LVU319
 1286 0053 83C410   		addl	$16, %esp
 1287              		.cfi_def_cfa_offset 32
 1288              	.LVL92:
 1289              	.L63:
 1290              		.loc 4 59 10 view .LVU320
 1291              	.LBE126:
 1292              	.LBE127:
 1293              		.loc 2 475 3 is_stmt 1 view .LVU321
 1294 0056 83EC0C   		subl	$12, %esp
 1295              		.cfi_def_cfa_offset 44
 1296 0059 57       		pushl	%edi
 1297              		.cfi_def_cfa_offset 48
GAS LISTING /tmp/ccoiMs3n.s 			page 25


 1298 005a E8FCFFFF 		call	chMtxUnlock@PLT
 1298      FF
 1299              	.LVL93:
 1300              		.loc 2 477 3 view .LVU322
 1301              		.loc 2 478 1 is_stmt 0 view .LVU323
 1302 005f 83C41C   		addl	$28, %esp
 1303              		.cfi_def_cfa_offset 20
 1304 0062 89F0     		movl	%esi, %eax
 1305 0064 5B       		popl	%ebx
 1306              		.cfi_restore 3
 1307              		.cfi_def_cfa_offset 16
 1308 0065 5E       		popl	%esi
 1309              		.cfi_restore 6
 1310              		.cfi_def_cfa_offset 12
 1311              	.LVL94:
 1312              		.loc 2 478 1 view .LVU324
 1313 0066 5F       		popl	%edi
 1314              		.cfi_restore 7
 1315              		.cfi_def_cfa_offset 8
 1316 0067 5D       		popl	%ebp
 1317              		.cfi_restore 5
 1318              		.cfi_def_cfa_offset 4
 1319 0068 C3       		ret
 1320              		.cfi_endproc
 1321              	.LFE230:
 1322              		.size	chFactoryCreateBuffer, .-chFactoryCreateBuffer
 1323              		.section	.text.chFactoryFindBuffer,"ax",@progbits
 1324              		.p2align 4
 1325              		.globl	chFactoryFindBuffer
 1326              		.type	chFactoryFindBuffer, @function
 1327              	chFactoryFindBuffer:
 1328              	.LVL95:
 1329              	.LFB231:
 1330              		.loc 2 493 53 is_stmt 1 view -0
 1331              		.cfi_startproc
 1332              		.loc 2 494 3 view .LVU326
 1333              		.loc 2 496 3 view .LVU327
 1334              		.loc 2 493 53 is_stmt 0 view .LVU328
 1335 0000 55       		pushl	%ebp
 1336              		.cfi_def_cfa_offset 8
 1337              		.cfi_offset 5, -8
 1338 0001 57       		pushl	%edi
 1339              		.cfi_def_cfa_offset 12
 1340              		.cfi_offset 7, -12
 1341 0002 56       		pushl	%esi
 1342              		.cfi_def_cfa_offset 16
 1343              		.cfi_offset 6, -16
 1344 0003 53       		pushl	%ebx
 1345              		.cfi_def_cfa_offset 20
 1346              		.cfi_offset 3, -20
 1347 0004 E8FCFFFF 		call	__x86.get_pc_thunk.bx
 1347      FF
 1348 0009 81C30200 		addl	$_GLOBAL_OFFSET_TABLE_, %ebx
 1348      0000
 1349 000f 83EC28   		subl	$40, %esp
 1350              		.cfi_def_cfa_offset 60
 1351              		.loc 2 493 53 view .LVU329
GAS LISTING /tmp/ccoiMs3n.s 			page 26


 1352 0012 8B74243C 		movl	60(%esp), %esi
 1353              		.loc 2 496 3 view .LVU330
 1354 0016 8D830000 		leal	ch_factory@GOTOFF(%ebx), %eax
 1354      0000
 1355 001c 89442418 		movl	%eax, 24(%esp)
 1356 0020 89C7     		movl	%eax, %edi
 1357 0022 50       		pushl	%eax
 1358              		.cfi_def_cfa_offset 64
 1359 0023 E8FCFFFF 		call	chMtxLock@PLT
 1359      FF
 1360              	.LVL96:
 1361              		.loc 2 498 3 is_stmt 1 view .LVU331
 1362              	.LBB132:
 1363              	.LBI132:
 1364              		.loc 2 263 23 view .LVU332
 1365              	.LBB133:
 1366              		.loc 2 264 3 view .LVU333
 1367              		.loc 2 266 3 view .LVU334
 1368              		.loc 2 266 3 view .LVU335
 1369              		.loc 2 266 3 view .LVU336
 1370              		.loc 2 269 3 view .LVU337
 1371              	.LBB134:
 1372              	.LBI134:
 1373              		.loc 2 103 23 view .LVU338
 1374              	.LBB135:
 1375              		.loc 2 104 3 view .LVU339
 1376              		.loc 2 104 18 is_stmt 0 view .LVU340
 1377 0028 8BAB2400 		movl	36+ch_factory@GOTOFF(%ebx), %ebp
 1377      0000
 1378              	.LVL97:
 1379              		.loc 2 106 3 is_stmt 1 view .LVU341
 1380              		.loc 2 106 12 view .LVU342
 1381 002e 8D4724   		leal	36(%edi), %eax
 1382 0031 83C410   		addl	$16, %esp
 1383              		.cfi_def_cfa_offset 48
 1384 0034 39C5     		cmpl	%eax, %ebp
 1385 0036 7448     		je	.L73
 1386 0038 8DBB2400 		leal	36+ch_factory@GOTOFF(%ebx), %edi
 1386      0000
 1387 003e EB07     		jmp	.L72
 1388              		.p2align 4,,10
 1389              		.p2align 3
 1390              	.L70:
 1391              		.loc 2 110 5 view .LVU343
 1392              		.loc 2 110 7 is_stmt 0 view .LVU344
 1393 0040 8B6D00   		movl	0(%ebp), %ebp
 1394              	.LVL98:
 1395              		.loc 2 106 12 is_stmt 1 view .LVU345
 1396 0043 39FD     		cmpl	%edi, %ebp
 1397 0045 7439     		je	.L73
 1398              	.L72:
 1399              		.loc 2 107 5 view .LVU346
 1400              		.loc 2 107 9 is_stmt 0 view .LVU347
 1401 0047 83EC04   		subl	$4, %esp
 1402              		.cfi_def_cfa_offset 52
 1403 004a 8D4508   		leal	8(%ebp), %eax
 1404 004d 6A08     		pushl	$8
GAS LISTING /tmp/ccoiMs3n.s 			page 27


 1405              		.cfi_def_cfa_offset 56
 1406 004f 56       		pushl	%esi
 1407              		.cfi_def_cfa_offset 60
 1408 0050 50       		pushl	%eax
 1409              		.cfi_def_cfa_offset 64
 1410 0051 E8FCFFFF 		call	strncmp@PLT
 1410      FF
 1411              	.LVL99:
 1412 0056 83C410   		addl	$16, %esp
 1413              		.cfi_def_cfa_offset 48
 1414              		.loc 2 107 8 view .LVU348
 1415 0059 85C0     		testl	%eax, %eax
 1416 005b 75E3     		jne	.L70
 1417              		.loc 2 108 7 is_stmt 1 view .LVU349
 1418              	.LVL100:
 1419              		.loc 2 108 7 is_stmt 0 view .LVU350
 1420              	.LBE135:
 1421              	.LBE134:
 1422              		.loc 2 270 3 is_stmt 1 view .LVU351
 1423              		.loc 2 270 6 is_stmt 0 view .LVU352
 1424 005d 85ED     		testl	%ebp, %ebp
 1425 005f 7404     		je	.L69
 1426              		.loc 2 272 5 is_stmt 1 view .LVU353
 1427              		.loc 2 272 14 is_stmt 0 view .LVU354
 1428 0061 83450401 		addl	$1, 4(%ebp)
 1429              	.LVL101:
 1430              	.L69:
 1431              		.loc 2 275 3 is_stmt 1 view .LVU355
 1432              		.loc 2 275 3 is_stmt 0 view .LVU356
 1433              	.LBE133:
 1434              	.LBE132:
 1435              		.loc 2 500 3 is_stmt 1 view .LVU357
 1436 0065 83EC0C   		subl	$12, %esp
 1437              		.cfi_def_cfa_offset 60
 1438 0068 FF742418 		pushl	24(%esp)
 1439              		.cfi_def_cfa_offset 64
 1440 006c E8FCFFFF 		call	chMtxUnlock@PLT
 1440      FF
 1441              	.LVL102:
 1442              		.loc 2 502 3 view .LVU358
 1443              		.loc 2 503 1 is_stmt 0 view .LVU359
 1444 0071 83C42C   		addl	$44, %esp
 1445              		.cfi_def_cfa_offset 20
 1446 0074 89E8     		movl	%ebp, %eax
 1447 0076 5B       		popl	%ebx
 1448              		.cfi_restore 3
 1449              		.cfi_def_cfa_offset 16
 1450 0077 5E       		popl	%esi
 1451              		.cfi_restore 6
 1452              		.cfi_def_cfa_offset 12
 1453 0078 5F       		popl	%edi
 1454              		.cfi_restore 7
 1455              		.cfi_def_cfa_offset 8
 1456 0079 5D       		popl	%ebp
 1457              		.cfi_restore 5
 1458              		.cfi_def_cfa_offset 4
 1459              	.LVL103:
GAS LISTING /tmp/ccoiMs3n.s 			page 28


 1460              		.loc 2 503 1 view .LVU360
 1461 007a C3       		ret
 1462              	.LVL104:
 1463 007b 8D742600 		.p2align 4,,10
 1463      90
 1464              		.p2align 3
 1465              	.L73:
 1466              		.cfi_def_cfa_offset 48
 1467              		.cfi_offset 3, -20
 1468              		.cfi_offset 5, -8
 1469              		.cfi_offset 6, -16
 1470              		.cfi_offset 7, -12
 1471              	.LBB139:
 1472              	.LBB138:
 1473              	.LBB137:
 1474              	.LBB136:
 1475              		.loc 2 113 10 view .LVU361
 1476 0080 31ED     		xorl	%ebp, %ebp
 1477              	.LVL105:
 1478              		.loc 2 113 10 view .LVU362
 1479 0082 EBE1     		jmp	.L69
 1480              	.LBE136:
 1481              	.LBE137:
 1482              	.LBE138:
 1483              	.LBE139:
 1484              		.cfi_endproc
 1485              	.LFE231:
 1486              		.size	chFactoryFindBuffer, .-chFactoryFindBuffer
 1487              		.section	.text.chFactoryReleaseBuffer,"ax",@progbits
 1488              		.p2align 4
 1489              		.globl	chFactoryReleaseBuffer
 1490              		.type	chFactoryReleaseBuffer, @function
 1491              	chFactoryReleaseBuffer:
 1492              	.LVL106:
 1493              	.LFB232:
 1494              		.loc 2 518 50 is_stmt 1 view -0
 1495              		.cfi_startproc
 1496              		.loc 2 519 3 view .LVU364
 1497              		.loc 2 521 3 view .LVU365
 1498              		.loc 2 518 50 is_stmt 0 view .LVU366
 1499 0000 55       		pushl	%ebp
 1500              		.cfi_def_cfa_offset 8
 1501              		.cfi_offset 5, -8
 1502 0001 57       		pushl	%edi
 1503              		.cfi_def_cfa_offset 12
 1504              		.cfi_offset 7, -12
 1505 0002 56       		pushl	%esi
 1506              		.cfi_def_cfa_offset 16
 1507              		.cfi_offset 6, -16
 1508 0003 53       		pushl	%ebx
 1509              		.cfi_def_cfa_offset 20
 1510              		.cfi_offset 3, -20
 1511 0004 E8FCFFFF 		call	__x86.get_pc_thunk.bx
 1511      FF
 1512 0009 81C30200 		addl	$_GLOBAL_OFFSET_TABLE_, %ebx
 1512      0000
 1513 000f 83EC18   		subl	$24, %esp
GAS LISTING /tmp/ccoiMs3n.s 			page 29


 1514              		.cfi_def_cfa_offset 44
 1515              		.loc 2 518 50 view .LVU367
 1516 0012 8B74242C 		movl	44(%esp), %esi
 1517              		.loc 2 521 3 view .LVU368
 1518 0016 8DBB0000 		leal	ch_factory@GOTOFF(%ebx), %edi
 1518      0000
 1519 001c 57       		pushl	%edi
 1520              		.cfi_def_cfa_offset 48
 1521 001d E8FCFFFF 		call	chMtxLock@PLT
 1521      FF
 1522              	.LVL107:
 1523              		.loc 2 523 3 is_stmt 1 view .LVU369
 1524              	.LBB146:
 1525              	.LBI146:
 1526              		.loc 2 173 15 view .LVU370
 1527              	.LBB147:
 1528              		.loc 2 175 3 view .LVU371
 1529              		.loc 2 176 3 view .LVU372
 1530              		.loc 2 178 3 view .LVU373
 1531              		.loc 2 178 3 view .LVU374
 1532              		.loc 2 178 3 view .LVU375
 1533              		.loc 2 181 3 view .LVU376
 1534              	.LBB148:
 1535              	.LBI148:
 1536              		.loc 2 116 23 view .LVU377
 1537              	.LBB149:
 1538              		.loc 2 118 3 view .LVU378
 1539              		.loc 2 121 3 view .LVU379
 1540              		.loc 2 121 9 is_stmt 0 view .LVU380
 1541 0022 83C410   		addl	$16, %esp
 1542              		.cfi_def_cfa_offset 32
 1543              		.loc 2 118 18 view .LVU381
 1544 0025 8D4724   		leal	36(%edi), %eax
 1545 0028 8D932400 		leal	36+ch_factory@GOTOFF(%ebx), %edx
 1545      0000
 1546              		.loc 2 121 9 view .LVU382
 1547 002e EB04     		jmp	.L77
 1548              	.LVL108:
 1549              		.p2align 4,,10
 1550              		.p2align 3
 1551              	.L79:
 1552              		.loc 2 122 5 is_stmt 1 view .LVU383
 1553              		.loc 2 122 8 is_stmt 0 view .LVU384
 1554 0030 39C6     		cmpl	%eax, %esi
 1555 0032 7424     		je	.L78
 1556              	.LVL109:
 1557              	.L77:
 1558              		.loc 2 121 21 is_stmt 1 view .LVU385
 1559 0034 89C1     		movl	%eax, %ecx
 1560              		.loc 2 121 14 is_stmt 0 view .LVU386
 1561 0036 8B00     		movl	(%eax), %eax
 1562              	.LVL110:
 1563              		.loc 2 121 21 view .LVU387
 1564 0038 39D0     		cmpl	%edx, %eax
 1565 003a 75F4     		jne	.L79
 1566              	.LBE149:
 1567              	.LBE148:
GAS LISTING /tmp/ccoiMs3n.s 			page 30


 1568              		.loc 2 195 10 view .LVU388
 1569 003c 31ED     		xorl	%ebp, %ebp
 1570              	.LVL111:
 1571              	.L80:
 1572              		.loc 2 198 3 is_stmt 1 view .LVU389
 1573              		.loc 2 198 3 is_stmt 0 view .LVU390
 1574              	.LBE147:
 1575              	.LBE146:
 1576              		.loc 2 525 3 is_stmt 1 view .LVU391
 1577 003e 83EC0C   		subl	$12, %esp
 1578              		.cfi_def_cfa_offset 44
 1579 0041 57       		pushl	%edi
 1580              		.cfi_def_cfa_offset 48
 1581 0042 E8FCFFFF 		call	chMtxUnlock@PLT
 1581      FF
 1582              	.LVL112:
 1583              		.loc 2 527 3 view .LVU392
 1584              		.loc 2 528 1 is_stmt 0 view .LVU393
 1585 0047 83C41C   		addl	$28, %esp
 1586              		.cfi_def_cfa_offset 20
 1587 004a 89E8     		movl	%ebp, %eax
 1588 004c 5B       		popl	%ebx
 1589              		.cfi_restore 3
 1590              		.cfi_def_cfa_offset 16
 1591 004d 5E       		popl	%esi
 1592              		.cfi_restore 6
 1593              		.cfi_def_cfa_offset 12
 1594 004e 5F       		popl	%edi
 1595              		.cfi_restore 7
 1596              		.cfi_def_cfa_offset 8
 1597 004f 5D       		popl	%ebp
 1598              		.cfi_restore 5
 1599              		.cfi_def_cfa_offset 4
 1600              	.LVL113:
 1601              		.loc 2 528 1 view .LVU394
 1602 0050 C3       		ret
 1603              	.LVL114:
 1604              		.p2align 4,,10
 1605 0051 8DB42600 		.p2align 3
 1605      000000
 1606              	.L78:
 1607              		.cfi_def_cfa_offset 32
 1608              		.cfi_offset 3, -20
 1609              		.cfi_offset 5, -8
 1610              		.cfi_offset 6, -16
 1611              		.cfi_offset 7, -12
 1612              	.LBB155:
 1613              	.LBB154:
 1614              		.loc 2 182 3 is_stmt 1 view .LVU395
 1615              		.loc 2 184 5 view .LVU396
 1616              		.loc 2 184 5 view .LVU397
 1617              		.loc 2 184 5 view .LVU398
 1618              		.loc 2 186 5 view .LVU399
 1619              		.loc 2 186 12 is_stmt 0 view .LVU400
 1620 0058 8B4604   		movl	4(%esi), %eax
 1621 005b 8D68FF   		leal	-1(%eax), %ebp
 1622              		.loc 2 186 10 view .LVU401
GAS LISTING /tmp/ccoiMs3n.s 			page 31


 1623 005e 896E04   		movl	%ebp, 4(%esi)
 1624              	.LVL115:
 1625              		.loc 2 187 5 is_stmt 1 view .LVU402
 1626              		.loc 2 187 8 is_stmt 0 view .LVU403
 1627 0061 85ED     		testl	%ebp, %ebp
 1628 0063 75D9     		jne	.L80
 1629              		.loc 2 188 7 is_stmt 1 view .LVU404
 1630              	.LVL116:
 1631              	.LBB150:
 1632              	.LBI150:
 1633              		.loc 2 133 23 view .LVU405
 1634              	.LBB151:
 1635              		.loc 2 134 3 view .LVU406
 1636              		.loc 2 136 3 view .LVU407
 1637              		.loc 2 136 23 is_stmt 0 view .LVU408
 1638 0065 8B06     		movl	(%esi), %eax
 1639              	.LBE151:
 1640              	.LBE150:
 1641              		.loc 2 188 7 view .LVU409
 1642 0067 83EC0C   		subl	$12, %esp
 1643              		.cfi_def_cfa_offset 44
 1644              	.LBB153:
 1645              	.LBB152:
 1646              		.loc 2 136 14 view .LVU410
 1647 006a 8901     		movl	%eax, (%ecx)
 1648              		.loc 2 138 3 is_stmt 1 view .LVU411
 1649              	.LVL117:
 1650              		.loc 2 138 3 is_stmt 0 view .LVU412
 1651              	.LBE152:
 1652              	.LBE153:
 1653              		.loc 2 188 7 view .LVU413
 1654 006c 56       		pushl	%esi
 1655              		.cfi_def_cfa_offset 48
 1656 006d E8FCFFFF 		call	chHeapFree@PLT
 1656      FF
 1657              	.LVL118:
 1658              		.loc 2 188 7 view .LVU414
 1659 0072 83C410   		addl	$16, %esp
 1660              		.cfi_def_cfa_offset 32
 1661 0075 EBC7     		jmp	.L80
 1662              	.LBE154:
 1663              	.LBE155:
 1664              		.cfi_endproc
 1665              	.LFE232:
 1666              		.size	chFactoryReleaseBuffer, .-chFactoryReleaseBuffer
 1667              		.section	.text.chFactoryCreateSemaphore,"ax",@progbits
 1668              		.p2align 4
 1669              		.globl	chFactoryCreateSemaphore
 1670              		.type	chFactoryCreateSemaphore, @function
 1671              	chFactoryCreateSemaphore:
 1672              	.LVL119:
 1673              	.LFB233:
 1674              		.loc 2 547 70 is_stmt 1 view -0
 1675              		.cfi_startproc
 1676              		.loc 2 548 3 view .LVU416
 1677              		.loc 2 550 3 view .LVU417
 1678              		.loc 2 547 70 is_stmt 0 view .LVU418
GAS LISTING /tmp/ccoiMs3n.s 			page 32


 1679 0000 55       		pushl	%ebp
 1680              		.cfi_def_cfa_offset 8
 1681              		.cfi_offset 5, -8
 1682 0001 57       		pushl	%edi
 1683              		.cfi_def_cfa_offset 12
 1684              		.cfi_offset 7, -12
 1685 0002 56       		pushl	%esi
 1686              		.cfi_def_cfa_offset 16
 1687              		.cfi_offset 6, -16
 1688 0003 53       		pushl	%ebx
 1689              		.cfi_def_cfa_offset 20
 1690              		.cfi_offset 3, -20
 1691 0004 E8FCFFFF 		call	__x86.get_pc_thunk.bx
 1691      FF
 1692 0009 81C30200 		addl	$_GLOBAL_OFFSET_TABLE_, %ebx
 1692      0000
 1693 000f 83EC28   		subl	$40, %esp
 1694              		.cfi_def_cfa_offset 60
 1695              		.loc 2 547 70 view .LVU419
 1696 0012 8B74243C 		movl	60(%esp), %esi
 1697              		.loc 2 550 3 view .LVU420
 1698 0016 8D830000 		leal	ch_factory@GOTOFF(%ebx), %eax
 1698      0000
 1699 001c 89442418 		movl	%eax, 24(%esp)
 1700 0020 89C7     		movl	%eax, %edi
 1701 0022 50       		pushl	%eax
 1702              		.cfi_def_cfa_offset 64
 1703 0023 E8FCFFFF 		call	chMtxLock@PLT
 1703      FF
 1704              	.LVL120:
 1705              		.loc 2 552 3 is_stmt 1 view .LVU421
 1706              	.LBB164:
 1707              	.LBI164:
 1708              		.loc 2 203 23 view .LVU422
 1709              	.LBB165:
 1710              		.loc 2 206 3 view .LVU423
 1711              		.loc 2 208 3 view .LVU424
 1712              		.loc 2 208 3 view .LVU425
 1713              		.loc 2 208 3 view .LVU426
 1714              		.loc 2 211 3 view .LVU427
 1715              	.LBB166:
 1716              	.LBI166:
 1717              		.loc 2 103 23 view .LVU428
 1718              	.LBB167:
 1719              		.loc 2 104 3 view .LVU429
 1720              		.loc 2 104 18 is_stmt 0 view .LVU430
 1721 0028 8BAB2800 		movl	40+ch_factory@GOTOFF(%ebx), %ebp
 1721      0000
 1722              	.LVL121:
 1723              		.loc 2 106 3 is_stmt 1 view .LVU431
 1724              		.loc 2 106 12 view .LVU432
 1725 002e 8D4728   		leal	40(%edi), %eax
 1726 0031 83C410   		addl	$16, %esp
 1727              		.cfi_def_cfa_offset 48
 1728 0034 39C5     		cmpl	%eax, %ebp
 1729 0036 7448     		je	.L85
 1730 0038 8DBB2800 		leal	40+ch_factory@GOTOFF(%ebx), %edi
GAS LISTING /tmp/ccoiMs3n.s 			page 33


 1730      0000
 1731 003e EB07     		jmp	.L87
 1732              		.p2align 4,,10
 1733              		.p2align 3
 1734              	.L100:
 1735              		.loc 2 110 5 view .LVU433
 1736              		.loc 2 110 7 is_stmt 0 view .LVU434
 1737 0040 8B6D00   		movl	0(%ebp), %ebp
 1738              	.LVL122:
 1739              		.loc 2 106 12 is_stmt 1 view .LVU435
 1740 0043 39FD     		cmpl	%edi, %ebp
 1741 0045 7439     		je	.L85
 1742              	.L87:
 1743              		.loc 2 107 5 view .LVU436
 1744              		.loc 2 107 9 is_stmt 0 view .LVU437
 1745 0047 83EC04   		subl	$4, %esp
 1746              		.cfi_def_cfa_offset 52
 1747 004a 8D4508   		leal	8(%ebp), %eax
 1748 004d 6A08     		pushl	$8
 1749              		.cfi_def_cfa_offset 56
 1750 004f 56       		pushl	%esi
 1751              		.cfi_def_cfa_offset 60
 1752 0050 50       		pushl	%eax
 1753              		.cfi_def_cfa_offset 64
 1754 0051 E8FCFFFF 		call	strncmp@PLT
 1754      FF
 1755              	.LVL123:
 1756 0056 83C410   		addl	$16, %esp
 1757              		.cfi_def_cfa_offset 48
 1758              		.loc 2 107 8 view .LVU438
 1759 0059 85C0     		testl	%eax, %eax
 1760 005b 75E3     		jne	.L100
 1761              	.LVL124:
 1762              		.loc 2 107 8 view .LVU439
 1763              	.LBE167:
 1764              	.LBE166:
 1765              		.loc 2 212 3 is_stmt 1 view .LVU440
 1766              		.loc 2 212 6 is_stmt 0 view .LVU441
 1767 005d 85ED     		testl	%ebp, %ebp
 1768 005f 741F     		je	.L85
 1769              	.LVL125:
 1770              	.L89:
 1771              		.loc 2 213 12 view .LVU442
 1772 0061 31FF     		xorl	%edi, %edi
 1773              	.LVL126:
 1774              	.L88:
 1775              		.loc 2 213 12 view .LVU443
 1776              	.LBE165:
 1777              	.LBE164:
 1778              		.loc 2 560 3 is_stmt 1 view .LVU444
 1779 0063 83EC0C   		subl	$12, %esp
 1780              		.cfi_def_cfa_offset 60
 1781 0066 FF742418 		pushl	24(%esp)
 1782              		.cfi_def_cfa_offset 64
 1783 006a E8FCFFFF 		call	chMtxUnlock@PLT
 1783      FF
 1784              	.LVL127:
GAS LISTING /tmp/ccoiMs3n.s 			page 34


 1785              		.loc 2 562 3 view .LVU445
 1786              		.loc 2 563 1 is_stmt 0 view .LVU446
 1787 006f 83C42C   		addl	$44, %esp
 1788              		.cfi_def_cfa_offset 20
 1789 0072 89F8     		movl	%edi, %eax
 1790 0074 5B       		popl	%ebx
 1791              		.cfi_restore 3
 1792              		.cfi_def_cfa_offset 16
 1793 0075 5E       		popl	%esi
 1794              		.cfi_restore 6
 1795              		.cfi_def_cfa_offset 12
 1796 0076 5F       		popl	%edi
 1797              		.cfi_restore 7
 1798              		.cfi_def_cfa_offset 8
 1799 0077 5D       		popl	%ebp
 1800              		.cfi_restore 5
 1801              		.cfi_def_cfa_offset 4
 1802 0078 C3       		ret
 1803              	.LVL128:
 1804 0079 8DB42600 		.p2align 4,,10
 1804      000000
 1805              		.p2align 3
 1806              	.L85:
 1807              		.cfi_def_cfa_offset 48
 1808              		.cfi_offset 3, -20
 1809              		.cfi_offset 5, -8
 1810              		.cfi_offset 6, -16
 1811              		.cfi_offset 7, -12
 1812              	.LBB179:
 1813              	.LBB176:
 1814              	.LBB168:
 1815              	.LBI168:
 1816              		.loc 2 203 23 is_stmt 1 view .LVU447
 1817              	.LBB169:
 1818              		.loc 2 217 3 view .LVU448
 1819              		.loc 2 217 26 is_stmt 0 view .LVU449
 1820 0080 83EC0C   		subl	$12, %esp
 1821              		.cfi_def_cfa_offset 60
 1822 0083 8D832C00 		leal	44+ch_factory@GOTOFF(%ebx), %eax
 1822      0000
 1823 0089 50       		pushl	%eax
 1824              		.cfi_def_cfa_offset 64
 1825 008a E8FCFFFF 		call	chPoolAlloc@PLT
 1825      FF
 1826              	.LVL129:
 1827              		.loc 2 218 6 view .LVU450
 1828 008f 83C410   		addl	$16, %esp
 1829              		.cfi_def_cfa_offset 48
 1830              		.loc 2 217 26 view .LVU451
 1831 0092 89C7     		movl	%eax, %edi
 1832              	.LVL130:
 1833              		.loc 2 218 3 is_stmt 1 view .LVU452
 1834              		.loc 2 218 6 is_stmt 0 view .LVU453
 1835 0094 85C0     		testl	%eax, %eax
 1836 0096 74C9     		je	.L89
 1837 0098 31C0     		xorl	%eax, %eax
 1838              	.LVL131:
GAS LISTING /tmp/ccoiMs3n.s 			page 35


 1839 009a 8DB60000 		.p2align 4,,10
 1839      0000
 1840              		.p2align 3
 1841              	.L90:
 1842              	.LBB170:
 1843              	.LBB171:
 1844              		.loc 2 91 3 is_stmt 1 view .LVU454
 1845              		.loc 2 92 5 view .LVU455
 1846              		.loc 2 92 7 is_stmt 0 view .LVU456
 1847 00a0 0FB61406 		movzbl	(%esi,%eax), %edx
 1848              	.LVL132:
 1849              		.loc 2 93 5 is_stmt 1 view .LVU457
 1850              		.loc 2 95 15 is_stmt 0 view .LVU458
 1851 00a4 84D2     		testb	%dl, %dl
 1852              		.loc 2 93 11 view .LVU459
 1853 00a6 88540708 		movb	%dl, 8(%edi,%eax)
 1854              		.loc 2 94 5 is_stmt 1 view .LVU460
 1855              	.LVL133:
 1856              		.loc 2 95 27 view .LVU461
 1857              		.loc 2 95 15 is_stmt 0 view .LVU462
 1858 00aa 0F95C1   		setne	%cl
 1859              		.loc 2 95 33 view .LVU463
 1860 00ad 83F807   		cmpl	$7, %eax
 1861 00b0 0F95C2   		setne	%dl
 1862              	.LVL134:
 1863              		.loc 2 95 27 view .LVU464
 1864 00b3 83C001   		addl	$1, %eax
 1865              	.LVL135:
 1866              		.loc 2 95 27 view .LVU465
 1867 00b6 84D1     		testb	%dl, %cl
 1868 00b8 75E6     		jne	.L90
 1869              	.LVL136:
 1870              		.loc 2 95 27 view .LVU466
 1871              	.LBE171:
 1872              	.LBE170:
 1873              		.loc 2 224 3 is_stmt 1 view .LVU467
 1874              		.loc 2 225 13 is_stmt 0 view .LVU468
 1875 00ba 8B832800 		movl	40+ch_factory@GOTOFF(%ebx), %eax
 1875      0000
 1876              	.LBE169:
 1877              	.LBE168:
 1878              	.LBE176:
 1879              	.LBE179:
 1880              		.loc 2 557 5 view .LVU469
 1881 00c0 83EC08   		subl	$8, %esp
 1882              		.cfi_def_cfa_offset 56
 1883              	.LBB180:
 1884              	.LBB177:
 1885              	.LBB174:
 1886              	.LBB172:
 1887              		.loc 2 224 13 view .LVU470
 1888 00c3 C7470401 		movl	$1, 4(%edi)
 1888      000000
 1889              		.loc 2 225 3 is_stmt 1 view .LVU471
 1890              		.loc 2 225 13 is_stmt 0 view .LVU472
 1891 00ca 8907     		movl	%eax, (%edi)
 1892              		.loc 2 228 3 is_stmt 1 view .LVU473
GAS LISTING /tmp/ccoiMs3n.s 			page 36


 1893              	.LBE172:
 1894              	.LBE174:
 1895              	.LBE177:
 1896              	.LBE180:
 1897              		.loc 2 557 5 is_stmt 0 view .LVU474
 1898 00cc 8D4710   		leal	16(%edi), %eax
 1899 00cf FF74243C 		pushl	60(%esp)
 1900              		.cfi_def_cfa_offset 60
 1901 00d3 50       		pushl	%eax
 1902              		.cfi_def_cfa_offset 64
 1903              	.LBB181:
 1904              	.LBB178:
 1905              	.LBB175:
 1906              	.LBB173:
 1907              		.loc 2 228 13 view .LVU475
 1908 00d4 89BB2800 		movl	%edi, 40+ch_factory@GOTOFF(%ebx)
 1908      0000
 1909              		.loc 2 230 3 is_stmt 1 view .LVU476
 1910              	.LVL137:
 1911              		.loc 2 230 3 is_stmt 0 view .LVU477
 1912              	.LBE173:
 1913              	.LBE175:
 1914              	.LBE178:
 1915              	.LBE181:
 1916              		.loc 2 555 3 is_stmt 1 view .LVU478
 1917              		.loc 2 557 5 view .LVU479
 1918 00da E8FCFFFF 		call	chSemObjectInit@PLT
 1918      FF
 1919              	.LVL138:
 1920 00df 83C410   		addl	$16, %esp
 1921              		.cfi_def_cfa_offset 48
 1922 00e2 E97CFFFF 		jmp	.L88
 1922      FF
 1923              		.cfi_endproc
 1924              	.LFE233:
 1925              		.size	chFactoryCreateSemaphore, .-chFactoryCreateSemaphore
 1926              		.section	.text.chFactoryFindSemaphore,"ax",@progbits
 1927              		.p2align 4
 1928              		.globl	chFactoryFindSemaphore
 1929              		.type	chFactoryFindSemaphore, @function
 1930              	chFactoryFindSemaphore:
 1931              	.LVL139:
 1932              	.LFB234:
 1933              		.loc 2 578 59 view -0
 1934              		.cfi_startproc
 1935              		.loc 2 579 3 view .LVU481
 1936              		.loc 2 581 3 view .LVU482
 1937              		.loc 2 578 59 is_stmt 0 view .LVU483
 1938 0000 55       		pushl	%ebp
 1939              		.cfi_def_cfa_offset 8
 1940              		.cfi_offset 5, -8
 1941 0001 57       		pushl	%edi
 1942              		.cfi_def_cfa_offset 12
 1943              		.cfi_offset 7, -12
 1944 0002 56       		pushl	%esi
 1945              		.cfi_def_cfa_offset 16
 1946              		.cfi_offset 6, -16
GAS LISTING /tmp/ccoiMs3n.s 			page 37


 1947 0003 53       		pushl	%ebx
 1948              		.cfi_def_cfa_offset 20
 1949              		.cfi_offset 3, -20
 1950 0004 E8FCFFFF 		call	__x86.get_pc_thunk.bx
 1950      FF
 1951 0009 81C30200 		addl	$_GLOBAL_OFFSET_TABLE_, %ebx
 1951      0000
 1952 000f 83EC28   		subl	$40, %esp
 1953              		.cfi_def_cfa_offset 60
 1954              		.loc 2 578 59 view .LVU484
 1955 0012 8B74243C 		movl	60(%esp), %esi
 1956              		.loc 2 581 3 view .LVU485
 1957 0016 8D830000 		leal	ch_factory@GOTOFF(%ebx), %eax
 1957      0000
 1958 001c 89442418 		movl	%eax, 24(%esp)
 1959 0020 89C7     		movl	%eax, %edi
 1960 0022 50       		pushl	%eax
 1961              		.cfi_def_cfa_offset 64
 1962 0023 E8FCFFFF 		call	chMtxLock@PLT
 1962      FF
 1963              	.LVL140:
 1964              		.loc 2 583 3 is_stmt 1 view .LVU486
 1965              	.LBB186:
 1966              	.LBI186:
 1967              		.loc 2 263 23 view .LVU487
 1968              	.LBB187:
 1969              		.loc 2 264 3 view .LVU488
 1970              		.loc 2 266 3 view .LVU489
 1971              		.loc 2 266 3 view .LVU490
 1972              		.loc 2 266 3 view .LVU491
 1973              		.loc 2 269 3 view .LVU492
 1974              	.LBB188:
 1975              	.LBI188:
 1976              		.loc 2 103 23 view .LVU493
 1977              	.LBB189:
 1978              		.loc 2 104 3 view .LVU494
 1979              		.loc 2 104 18 is_stmt 0 view .LVU495
 1980 0028 8BAB2800 		movl	40+ch_factory@GOTOFF(%ebx), %ebp
 1980      0000
 1981              	.LVL141:
 1982              		.loc 2 106 3 is_stmt 1 view .LVU496
 1983              		.loc 2 106 12 view .LVU497
 1984 002e 8D4728   		leal	40(%edi), %eax
 1985 0031 83C410   		addl	$16, %esp
 1986              		.cfi_def_cfa_offset 48
 1987 0034 39C5     		cmpl	%eax, %ebp
 1988 0036 7448     		je	.L106
 1989 0038 8DBB2800 		leal	40+ch_factory@GOTOFF(%ebx), %edi
 1989      0000
 1990 003e EB07     		jmp	.L105
 1991              		.p2align 4,,10
 1992              		.p2align 3
 1993              	.L103:
 1994              		.loc 2 110 5 view .LVU498
 1995              		.loc 2 110 7 is_stmt 0 view .LVU499
 1996 0040 8B6D00   		movl	0(%ebp), %ebp
 1997              	.LVL142:
GAS LISTING /tmp/ccoiMs3n.s 			page 38


 1998              		.loc 2 106 12 is_stmt 1 view .LVU500
 1999 0043 39FD     		cmpl	%edi, %ebp
 2000 0045 7439     		je	.L106
 2001              	.L105:
 2002              		.loc 2 107 5 view .LVU501
 2003              		.loc 2 107 9 is_stmt 0 view .LVU502
 2004 0047 83EC04   		subl	$4, %esp
 2005              		.cfi_def_cfa_offset 52
 2006 004a 8D4508   		leal	8(%ebp), %eax
 2007 004d 6A08     		pushl	$8
 2008              		.cfi_def_cfa_offset 56
 2009 004f 56       		pushl	%esi
 2010              		.cfi_def_cfa_offset 60
 2011 0050 50       		pushl	%eax
 2012              		.cfi_def_cfa_offset 64
 2013 0051 E8FCFFFF 		call	strncmp@PLT
 2013      FF
 2014              	.LVL143:
 2015 0056 83C410   		addl	$16, %esp
 2016              		.cfi_def_cfa_offset 48
 2017              		.loc 2 107 8 view .LVU503
 2018 0059 85C0     		testl	%eax, %eax
 2019 005b 75E3     		jne	.L103
 2020              		.loc 2 108 7 is_stmt 1 view .LVU504
 2021              	.LVL144:
 2022              		.loc 2 108 7 is_stmt 0 view .LVU505
 2023              	.LBE189:
 2024              	.LBE188:
 2025              		.loc 2 270 3 is_stmt 1 view .LVU506
 2026              		.loc 2 270 6 is_stmt 0 view .LVU507
 2027 005d 85ED     		testl	%ebp, %ebp
 2028 005f 7404     		je	.L102
 2029              		.loc 2 272 5 is_stmt 1 view .LVU508
 2030              		.loc 2 272 14 is_stmt 0 view .LVU509
 2031 0061 83450401 		addl	$1, 4(%ebp)
 2032              	.LVL145:
 2033              	.L102:
 2034              		.loc 2 275 3 is_stmt 1 view .LVU510
 2035              		.loc 2 275 3 is_stmt 0 view .LVU511
 2036              	.LBE187:
 2037              	.LBE186:
 2038              		.loc 2 585 3 is_stmt 1 view .LVU512
 2039 0065 83EC0C   		subl	$12, %esp
 2040              		.cfi_def_cfa_offset 60
 2041 0068 FF742418 		pushl	24(%esp)
 2042              		.cfi_def_cfa_offset 64
 2043 006c E8FCFFFF 		call	chMtxUnlock@PLT
 2043      FF
 2044              	.LVL146:
 2045              		.loc 2 587 3 view .LVU513
 2046              		.loc 2 588 1 is_stmt 0 view .LVU514
 2047 0071 83C42C   		addl	$44, %esp
 2048              		.cfi_def_cfa_offset 20
 2049 0074 89E8     		movl	%ebp, %eax
 2050 0076 5B       		popl	%ebx
 2051              		.cfi_restore 3
 2052              		.cfi_def_cfa_offset 16
GAS LISTING /tmp/ccoiMs3n.s 			page 39


 2053 0077 5E       		popl	%esi
 2054              		.cfi_restore 6
 2055              		.cfi_def_cfa_offset 12
 2056 0078 5F       		popl	%edi
 2057              		.cfi_restore 7
 2058              		.cfi_def_cfa_offset 8
 2059 0079 5D       		popl	%ebp
 2060              		.cfi_restore 5
 2061              		.cfi_def_cfa_offset 4
 2062              	.LVL147:
 2063              		.loc 2 588 1 view .LVU515
 2064 007a C3       		ret
 2065              	.LVL148:
 2066 007b 8D742600 		.p2align 4,,10
 2066      90
 2067              		.p2align 3
 2068              	.L106:
 2069              		.cfi_def_cfa_offset 48
 2070              		.cfi_offset 3, -20
 2071              		.cfi_offset 5, -8
 2072              		.cfi_offset 6, -16
 2073              		.cfi_offset 7, -12
 2074              	.LBB193:
 2075              	.LBB192:
 2076              	.LBB191:
 2077              	.LBB190:
 2078              		.loc 2 113 10 view .LVU516
 2079 0080 31ED     		xorl	%ebp, %ebp
 2080              	.LVL149:
 2081              		.loc 2 113 10 view .LVU517
 2082 0082 EBE1     		jmp	.L102
 2083              	.LBE190:
 2084              	.LBE191:
 2085              	.LBE192:
 2086              	.LBE193:
 2087              		.cfi_endproc
 2088              	.LFE234:
 2089              		.size	chFactoryFindSemaphore, .-chFactoryFindSemaphore
 2090              		.section	.text.chFactoryReleaseSemaphore,"ax",@progbits
 2091              		.p2align 4
 2092              		.globl	chFactoryReleaseSemaphore
 2093              		.type	chFactoryReleaseSemaphore, @function
 2094              	chFactoryReleaseSemaphore:
 2095              	.LVL150:
 2096              	.LFB235:
 2097              		.loc 2 603 56 is_stmt 1 view -0
 2098              		.cfi_startproc
 2099              		.loc 2 604 3 view .LVU519
 2100              		.loc 2 606 3 view .LVU520
 2101              		.loc 2 603 56 is_stmt 0 view .LVU521
 2102 0000 55       		pushl	%ebp
 2103              		.cfi_def_cfa_offset 8
 2104              		.cfi_offset 5, -8
 2105 0001 57       		pushl	%edi
 2106              		.cfi_def_cfa_offset 12
 2107              		.cfi_offset 7, -12
 2108 0002 56       		pushl	%esi
GAS LISTING /tmp/ccoiMs3n.s 			page 40


 2109              		.cfi_def_cfa_offset 16
 2110              		.cfi_offset 6, -16
 2111 0003 53       		pushl	%ebx
 2112              		.cfi_def_cfa_offset 20
 2113              		.cfi_offset 3, -20
 2114 0004 E8FCFFFF 		call	__x86.get_pc_thunk.bx
 2114      FF
 2115 0009 81C30200 		addl	$_GLOBAL_OFFSET_TABLE_, %ebx
 2115      0000
 2116 000f 83EC18   		subl	$24, %esp
 2117              		.cfi_def_cfa_offset 44
 2118              		.loc 2 603 56 view .LVU522
 2119 0012 8B74242C 		movl	44(%esp), %esi
 2120              		.loc 2 606 3 view .LVU523
 2121 0016 8DBB0000 		leal	ch_factory@GOTOFF(%ebx), %edi
 2121      0000
 2122 001c 57       		pushl	%edi
 2123              		.cfi_def_cfa_offset 48
 2124 001d E8FCFFFF 		call	chMtxLock@PLT
 2124      FF
 2125              	.LVL151:
 2126              		.loc 2 608 3 is_stmt 1 view .LVU524
 2127              	.LBB200:
 2128              	.LBI200:
 2129              		.loc 2 233 15 view .LVU525
 2130              	.LBB201:
 2131              		.loc 2 236 3 view .LVU526
 2132              		.loc 2 237 3 view .LVU527
 2133              		.loc 2 239 3 view .LVU528
 2134              		.loc 2 239 3 view .LVU529
 2135              		.loc 2 239 3 view .LVU530
 2136              		.loc 2 242 3 view .LVU531
 2137              	.LBB202:
 2138              	.LBI202:
 2139              		.loc 2 116 23 view .LVU532
 2140              	.LBB203:
 2141              		.loc 2 118 3 view .LVU533
 2142              		.loc 2 121 3 view .LVU534
 2143              		.loc 2 121 9 is_stmt 0 view .LVU535
 2144 0022 83C410   		addl	$16, %esp
 2145              		.cfi_def_cfa_offset 32
 2146              		.loc 2 118 18 view .LVU536
 2147 0025 8D4728   		leal	40(%edi), %eax
 2148 0028 8D932800 		leal	40+ch_factory@GOTOFF(%ebx), %edx
 2148      0000
 2149              		.loc 2 121 9 view .LVU537
 2150 002e EB04     		jmp	.L110
 2151              	.LVL152:
 2152              		.p2align 4,,10
 2153              		.p2align 3
 2154              	.L112:
 2155              		.loc 2 122 5 is_stmt 1 view .LVU538
 2156              		.loc 2 122 8 is_stmt 0 view .LVU539
 2157 0030 39C6     		cmpl	%eax, %esi
 2158 0032 7424     		je	.L111
 2159              	.LVL153:
 2160              	.L110:
GAS LISTING /tmp/ccoiMs3n.s 			page 41


 2161              		.loc 2 121 21 is_stmt 1 view .LVU540
 2162 0034 89C1     		movl	%eax, %ecx
 2163              		.loc 2 121 14 is_stmt 0 view .LVU541
 2164 0036 8B00     		movl	(%eax), %eax
 2165              	.LVL154:
 2166              		.loc 2 121 21 view .LVU542
 2167 0038 39D0     		cmpl	%edx, %eax
 2168 003a 75F4     		jne	.L112
 2169              	.LBE203:
 2170              	.LBE202:
 2171              		.loc 2 256 10 view .LVU543
 2172 003c 31ED     		xorl	%ebp, %ebp
 2173              	.LVL155:
 2174              	.L113:
 2175              		.loc 2 259 3 is_stmt 1 view .LVU544
 2176              		.loc 2 259 3 is_stmt 0 view .LVU545
 2177              	.LBE201:
 2178              	.LBE200:
 2179              		.loc 2 612 3 is_stmt 1 view .LVU546
 2180 003e 83EC0C   		subl	$12, %esp
 2181              		.cfi_def_cfa_offset 44
 2182 0041 57       		pushl	%edi
 2183              		.cfi_def_cfa_offset 48
 2184 0042 E8FCFFFF 		call	chMtxUnlock@PLT
 2184      FF
 2185              	.LVL156:
 2186              		.loc 2 614 3 view .LVU547
 2187              		.loc 2 615 1 is_stmt 0 view .LVU548
 2188 0047 83C41C   		addl	$28, %esp
 2189              		.cfi_def_cfa_offset 20
 2190 004a 89E8     		movl	%ebp, %eax
 2191 004c 5B       		popl	%ebx
 2192              		.cfi_restore 3
 2193              		.cfi_def_cfa_offset 16
 2194 004d 5E       		popl	%esi
 2195              		.cfi_restore 6
 2196              		.cfi_def_cfa_offset 12
 2197 004e 5F       		popl	%edi
 2198              		.cfi_restore 7
 2199              		.cfi_def_cfa_offset 8
 2200 004f 5D       		popl	%ebp
 2201              		.cfi_restore 5
 2202              		.cfi_def_cfa_offset 4
 2203              	.LVL157:
 2204              		.loc 2 615 1 view .LVU549
 2205 0050 C3       		ret
 2206              	.LVL158:
 2207              		.p2align 4,,10
 2208 0051 8DB42600 		.p2align 3
 2208      000000
 2209              	.L111:
 2210              		.cfi_def_cfa_offset 32
 2211              		.cfi_offset 3, -20
 2212              		.cfi_offset 5, -8
 2213              		.cfi_offset 6, -16
 2214              		.cfi_offset 7, -12
 2215              	.LBB209:
GAS LISTING /tmp/ccoiMs3n.s 			page 42


 2216              	.LBB208:
 2217              		.loc 2 243 3 is_stmt 1 view .LVU550
 2218              		.loc 2 245 5 view .LVU551
 2219              		.loc 2 245 5 view .LVU552
 2220              		.loc 2 245 5 view .LVU553
 2221              		.loc 2 247 5 view .LVU554
 2222              		.loc 2 247 12 is_stmt 0 view .LVU555
 2223 0058 8B4604   		movl	4(%esi), %eax
 2224 005b 8D68FF   		leal	-1(%eax), %ebp
 2225              		.loc 2 247 10 view .LVU556
 2226 005e 896E04   		movl	%ebp, 4(%esi)
 2227              	.LVL159:
 2228              		.loc 2 248 5 is_stmt 1 view .LVU557
 2229              		.loc 2 248 8 is_stmt 0 view .LVU558
 2230 0061 85ED     		testl	%ebp, %ebp
 2231 0063 75D9     		jne	.L113
 2232              		.loc 2 249 7 is_stmt 1 view .LVU559
 2233              	.LVL160:
 2234              	.LBB204:
 2235              	.LBI204:
 2236              		.loc 2 133 23 view .LVU560
 2237              	.LBB205:
 2238              		.loc 2 134 3 view .LVU561
 2239              		.loc 2 136 3 view .LVU562
 2240              		.loc 2 136 23 is_stmt 0 view .LVU563
 2241 0065 8B06     		movl	(%esi), %eax
 2242              	.LBE205:
 2243              	.LBE204:
 2244              		.loc 2 249 7 view .LVU564
 2245 0067 83EC08   		subl	$8, %esp
 2246              		.cfi_def_cfa_offset 40
 2247              	.LBB207:
 2248              	.LBB206:
 2249              		.loc 2 136 14 view .LVU565
 2250 006a 8901     		movl	%eax, (%ecx)
 2251              		.loc 2 138 3 is_stmt 1 view .LVU566
 2252              	.LVL161:
 2253              		.loc 2 138 3 is_stmt 0 view .LVU567
 2254              	.LBE206:
 2255              	.LBE207:
 2256              		.loc 2 249 7 view .LVU568
 2257 006c 8D4204   		leal	4(%edx), %eax
 2258 006f 56       		pushl	%esi
 2259              		.cfi_def_cfa_offset 44
 2260 0070 50       		pushl	%eax
 2261              		.cfi_def_cfa_offset 48
 2262 0071 E8FCFFFF 		call	chPoolFree@PLT
 2262      FF
 2263              	.LVL162:
 2264              		.loc 2 249 7 view .LVU569
 2265 0076 83C410   		addl	$16, %esp
 2266              		.cfi_def_cfa_offset 32
 2267 0079 EBC3     		jmp	.L113
 2268              	.LBE208:
 2269              	.LBE209:
 2270              		.cfi_endproc
 2271              	.LFE235:
GAS LISTING /tmp/ccoiMs3n.s 			page 43


 2272              		.size	chFactoryReleaseSemaphore, .-chFactoryReleaseSemaphore
 2273              		.section	.text.chFactoryCreateMailbox,"ax",@progbits
 2274              		.p2align 4
 2275              		.globl	chFactoryCreateMailbox
 2276              		.type	chFactoryCreateMailbox, @function
 2277              	chFactoryCreateMailbox:
 2278              	.LVL163:
 2279              	.LFB236:
 2280              		.loc 2 634 67 is_stmt 1 view -0
 2281              		.cfi_startproc
 2282              		.loc 2 635 3 view .LVU571
 2283              		.loc 2 637 3 view .LVU572
 2284              		.loc 2 634 67 is_stmt 0 view .LVU573
 2285 0000 55       		pushl	%ebp
 2286              		.cfi_def_cfa_offset 8
 2287              		.cfi_offset 5, -8
 2288 0001 57       		pushl	%edi
 2289              		.cfi_def_cfa_offset 12
 2290              		.cfi_offset 7, -12
 2291 0002 56       		pushl	%esi
 2292              		.cfi_def_cfa_offset 16
 2293              		.cfi_offset 6, -16
 2294 0003 53       		pushl	%ebx
 2295              		.cfi_def_cfa_offset 20
 2296              		.cfi_offset 3, -20
 2297 0004 E8FCFFFF 		call	__x86.get_pc_thunk.bx
 2297      FF
 2298 0009 81C30200 		addl	$_GLOBAL_OFFSET_TABLE_, %ebx
 2298      0000
 2299 000f 83EC18   		subl	$24, %esp
 2300              		.cfi_def_cfa_offset 44
 2301              		.loc 2 634 67 view .LVU574
 2302 0012 8B6C2430 		movl	48(%esp), %ebp
 2303              		.loc 2 637 3 view .LVU575
 2304 0016 8DBB0000 		leal	ch_factory@GOTOFF(%ebx), %edi
 2304      0000
 2305 001c 57       		pushl	%edi
 2306              		.cfi_def_cfa_offset 48
 2307 001d E8FCFFFF 		call	chMtxLock@PLT
 2307      FF
 2308              	.LVL164:
 2309              		.loc 2 639 3 is_stmt 1 view .LVU576
 2310              		.loc 2 639 26 is_stmt 0 view .LVU577
 2311 0022 8B442430 		movl	48(%esp), %eax
 2312 0026 8D0CAD38 		leal	56(,%ebp,4), %ecx
 2312      000000
 2313 002d 8D933C00 		leal	60+ch_factory@GOTOFF(%ebx), %edx
 2313      0000
 2314 0033 C7042408 		movl	$8, (%esp)
 2314      000000
 2315 003a E8FCFFFF 		call	dyn_create_object_heap
 2315      FF
 2316              	.LVL165:
 2317              		.loc 2 644 6 view .LVU578
 2318 003f 83C410   		addl	$16, %esp
 2319              		.cfi_def_cfa_offset 32
 2320              		.loc 2 639 26 view .LVU579
GAS LISTING /tmp/ccoiMs3n.s 			page 44


 2321 0042 89C6     		movl	%eax, %esi
 2322              	.LVL166:
 2323              		.loc 2 644 3 is_stmt 1 view .LVU580
 2324              		.loc 2 644 6 is_stmt 0 view .LVU581
 2325 0044 85C0     		testl	%eax, %eax
 2326 0046 7414     		je	.L118
 2327              		.loc 2 646 5 is_stmt 1 view .LVU582
 2328 0048 83EC04   		subl	$4, %esp
 2329              		.cfi_def_cfa_offset 36
 2330              		.loc 2 646 45 is_stmt 0 view .LVU583
 2331 004b 8D4038   		leal	56(%eax), %eax
 2332              	.LVL167:
 2333              		.loc 2 646 5 view .LVU584
 2334 004e 55       		pushl	%ebp
 2335              		.cfi_def_cfa_offset 40
 2336 004f 50       		pushl	%eax
 2337              		.cfi_def_cfa_offset 44
 2338 0050 8D4610   		leal	16(%esi), %eax
 2339 0053 50       		pushl	%eax
 2340              		.cfi_def_cfa_offset 48
 2341 0054 E8FCFFFF 		call	chMBObjectInit@PLT
 2341      FF
 2342              	.LVL168:
 2343 0059 83C410   		addl	$16, %esp
 2344              		.cfi_def_cfa_offset 32
 2345              	.L118:
 2346              		.loc 2 649 3 is_stmt 1 view .LVU585
 2347 005c 83EC0C   		subl	$12, %esp
 2348              		.cfi_def_cfa_offset 44
 2349 005f 57       		pushl	%edi
 2350              		.cfi_def_cfa_offset 48
 2351 0060 E8FCFFFF 		call	chMtxUnlock@PLT
 2351      FF
 2352              	.LVL169:
 2353              		.loc 2 651 3 view .LVU586
 2354              		.loc 2 652 1 is_stmt 0 view .LVU587
 2355 0065 83C41C   		addl	$28, %esp
 2356              		.cfi_def_cfa_offset 20
 2357 0068 89F0     		movl	%esi, %eax
 2358 006a 5B       		popl	%ebx
 2359              		.cfi_restore 3
 2360              		.cfi_def_cfa_offset 16
 2361 006b 5E       		popl	%esi
 2362              		.cfi_restore 6
 2363              		.cfi_def_cfa_offset 12
 2364              	.LVL170:
 2365              		.loc 2 652 1 view .LVU588
 2366 006c 5F       		popl	%edi
 2367              		.cfi_restore 7
 2368              		.cfi_def_cfa_offset 8
 2369 006d 5D       		popl	%ebp
 2370              		.cfi_restore 5
 2371              		.cfi_def_cfa_offset 4
 2372 006e C3       		ret
 2373              		.cfi_endproc
 2374              	.LFE236:
 2375              		.size	chFactoryCreateMailbox, .-chFactoryCreateMailbox
GAS LISTING /tmp/ccoiMs3n.s 			page 45


 2376              		.section	.text.chFactoryFindMailbox,"ax",@progbits
 2377              		.p2align 4
 2378              		.globl	chFactoryFindMailbox
 2379              		.type	chFactoryFindMailbox, @function
 2380              	chFactoryFindMailbox:
 2381              	.LVL171:
 2382              	.LFB237:
 2383              		.loc 2 667 55 is_stmt 1 view -0
 2384              		.cfi_startproc
 2385              		.loc 2 668 3 view .LVU590
 2386              		.loc 2 670 3 view .LVU591
 2387              		.loc 2 667 55 is_stmt 0 view .LVU592
 2388 0000 55       		pushl	%ebp
 2389              		.cfi_def_cfa_offset 8
 2390              		.cfi_offset 5, -8
 2391 0001 57       		pushl	%edi
 2392              		.cfi_def_cfa_offset 12
 2393              		.cfi_offset 7, -12
 2394 0002 56       		pushl	%esi
 2395              		.cfi_def_cfa_offset 16
 2396              		.cfi_offset 6, -16
 2397 0003 53       		pushl	%ebx
 2398              		.cfi_def_cfa_offset 20
 2399              		.cfi_offset 3, -20
 2400 0004 E8FCFFFF 		call	__x86.get_pc_thunk.bx
 2400      FF
 2401 0009 81C30200 		addl	$_GLOBAL_OFFSET_TABLE_, %ebx
 2401      0000
 2402 000f 83EC28   		subl	$40, %esp
 2403              		.cfi_def_cfa_offset 60
 2404              		.loc 2 667 55 view .LVU593
 2405 0012 8B74243C 		movl	60(%esp), %esi
 2406              		.loc 2 670 3 view .LVU594
 2407 0016 8D830000 		leal	ch_factory@GOTOFF(%ebx), %eax
 2407      0000
 2408 001c 89442418 		movl	%eax, 24(%esp)
 2409 0020 89C7     		movl	%eax, %edi
 2410 0022 50       		pushl	%eax
 2411              		.cfi_def_cfa_offset 64
 2412 0023 E8FCFFFF 		call	chMtxLock@PLT
 2412      FF
 2413              	.LVL172:
 2414              		.loc 2 672 3 is_stmt 1 view .LVU595
 2415              	.LBB214:
 2416              	.LBI214:
 2417              		.loc 2 263 23 view .LVU596
 2418              	.LBB215:
 2419              		.loc 2 264 3 view .LVU597
 2420              		.loc 2 266 3 view .LVU598
 2421              		.loc 2 266 3 view .LVU599
 2422              		.loc 2 266 3 view .LVU600
 2423              		.loc 2 269 3 view .LVU601
 2424              	.LBB216:
 2425              	.LBI216:
 2426              		.loc 2 103 23 view .LVU602
 2427              	.LBB217:
 2428              		.loc 2 104 3 view .LVU603
GAS LISTING /tmp/ccoiMs3n.s 			page 46


 2429              		.loc 2 104 18 is_stmt 0 view .LVU604
 2430 0028 8BAB3C00 		movl	60+ch_factory@GOTOFF(%ebx), %ebp
 2430      0000
 2431              	.LVL173:
 2432              		.loc 2 106 3 is_stmt 1 view .LVU605
 2433              		.loc 2 106 12 view .LVU606
 2434 002e 8D473C   		leal	60(%edi), %eax
 2435 0031 83C410   		addl	$16, %esp
 2436              		.cfi_def_cfa_offset 48
 2437 0034 39C5     		cmpl	%eax, %ebp
 2438 0036 7448     		je	.L128
 2439 0038 8DBB3C00 		leal	60+ch_factory@GOTOFF(%ebx), %edi
 2439      0000
 2440 003e EB07     		jmp	.L127
 2441              		.p2align 4,,10
 2442              		.p2align 3
 2443              	.L125:
 2444              		.loc 2 110 5 view .LVU607
 2445              		.loc 2 110 7 is_stmt 0 view .LVU608
 2446 0040 8B6D00   		movl	0(%ebp), %ebp
 2447              	.LVL174:
 2448              		.loc 2 106 12 is_stmt 1 view .LVU609
 2449 0043 39FD     		cmpl	%edi, %ebp
 2450 0045 7439     		je	.L128
 2451              	.L127:
 2452              		.loc 2 107 5 view .LVU610
 2453              		.loc 2 107 9 is_stmt 0 view .LVU611
 2454 0047 83EC04   		subl	$4, %esp
 2455              		.cfi_def_cfa_offset 52
 2456 004a 8D4508   		leal	8(%ebp), %eax
 2457 004d 6A08     		pushl	$8
 2458              		.cfi_def_cfa_offset 56
 2459 004f 56       		pushl	%esi
 2460              		.cfi_def_cfa_offset 60
 2461 0050 50       		pushl	%eax
 2462              		.cfi_def_cfa_offset 64
 2463 0051 E8FCFFFF 		call	strncmp@PLT
 2463      FF
 2464              	.LVL175:
 2465 0056 83C410   		addl	$16, %esp
 2466              		.cfi_def_cfa_offset 48
 2467              		.loc 2 107 8 view .LVU612
 2468 0059 85C0     		testl	%eax, %eax
 2469 005b 75E3     		jne	.L125
 2470              		.loc 2 108 7 is_stmt 1 view .LVU613
 2471              	.LVL176:
 2472              		.loc 2 108 7 is_stmt 0 view .LVU614
 2473              	.LBE217:
 2474              	.LBE216:
 2475              		.loc 2 270 3 is_stmt 1 view .LVU615
 2476              		.loc 2 270 6 is_stmt 0 view .LVU616
 2477 005d 85ED     		testl	%ebp, %ebp
 2478 005f 7404     		je	.L124
 2479              		.loc 2 272 5 is_stmt 1 view .LVU617
 2480              		.loc 2 272 14 is_stmt 0 view .LVU618
 2481 0061 83450401 		addl	$1, 4(%ebp)
 2482              	.LVL177:
GAS LISTING /tmp/ccoiMs3n.s 			page 47


 2483              	.L124:
 2484              		.loc 2 275 3 is_stmt 1 view .LVU619
 2485              		.loc 2 275 3 is_stmt 0 view .LVU620
 2486              	.LBE215:
 2487              	.LBE214:
 2488              		.loc 2 674 3 is_stmt 1 view .LVU621
 2489 0065 83EC0C   		subl	$12, %esp
 2490              		.cfi_def_cfa_offset 60
 2491 0068 FF742418 		pushl	24(%esp)
 2492              		.cfi_def_cfa_offset 64
 2493 006c E8FCFFFF 		call	chMtxUnlock@PLT
 2493      FF
 2494              	.LVL178:
 2495              		.loc 2 676 3 view .LVU622
 2496              		.loc 2 677 1 is_stmt 0 view .LVU623
 2497 0071 83C42C   		addl	$44, %esp
 2498              		.cfi_def_cfa_offset 20
 2499 0074 89E8     		movl	%ebp, %eax
 2500 0076 5B       		popl	%ebx
 2501              		.cfi_restore 3
 2502              		.cfi_def_cfa_offset 16
 2503 0077 5E       		popl	%esi
 2504              		.cfi_restore 6
 2505              		.cfi_def_cfa_offset 12
 2506 0078 5F       		popl	%edi
 2507              		.cfi_restore 7
 2508              		.cfi_def_cfa_offset 8
 2509 0079 5D       		popl	%ebp
 2510              		.cfi_restore 5
 2511              		.cfi_def_cfa_offset 4
 2512              	.LVL179:
 2513              		.loc 2 677 1 view .LVU624
 2514 007a C3       		ret
 2515              	.LVL180:
 2516 007b 8D742600 		.p2align 4,,10
 2516      90
 2517              		.p2align 3
 2518              	.L128:
 2519              		.cfi_def_cfa_offset 48
 2520              		.cfi_offset 3, -20
 2521              		.cfi_offset 5, -8
 2522              		.cfi_offset 6, -16
 2523              		.cfi_offset 7, -12
 2524              	.LBB221:
 2525              	.LBB220:
 2526              	.LBB219:
 2527              	.LBB218:
 2528              		.loc 2 113 10 view .LVU625
 2529 0080 31ED     		xorl	%ebp, %ebp
 2530              	.LVL181:
 2531              		.loc 2 113 10 view .LVU626
 2532 0082 EBE1     		jmp	.L124
 2533              	.LBE218:
 2534              	.LBE219:
 2535              	.LBE220:
 2536              	.LBE221:
 2537              		.cfi_endproc
GAS LISTING /tmp/ccoiMs3n.s 			page 48


 2538              	.LFE237:
 2539              		.size	chFactoryFindMailbox, .-chFactoryFindMailbox
 2540              		.section	.text.chFactoryReleaseMailbox,"ax",@progbits
 2541              		.p2align 4
 2542              		.globl	chFactoryReleaseMailbox
 2543              		.type	chFactoryReleaseMailbox, @function
 2544              	chFactoryReleaseMailbox:
 2545              	.LVL182:
 2546              	.LFB238:
 2547              		.loc 2 692 52 is_stmt 1 view -0
 2548              		.cfi_startproc
 2549              		.loc 2 693 3 view .LVU628
 2550              		.loc 2 695 3 view .LVU629
 2551              		.loc 2 692 52 is_stmt 0 view .LVU630
 2552 0000 55       		pushl	%ebp
 2553              		.cfi_def_cfa_offset 8
 2554              		.cfi_offset 5, -8
 2555 0001 57       		pushl	%edi
 2556              		.cfi_def_cfa_offset 12
 2557              		.cfi_offset 7, -12
 2558 0002 56       		pushl	%esi
 2559              		.cfi_def_cfa_offset 16
 2560              		.cfi_offset 6, -16
 2561 0003 53       		pushl	%ebx
 2562              		.cfi_def_cfa_offset 20
 2563              		.cfi_offset 3, -20
 2564 0004 E8FCFFFF 		call	__x86.get_pc_thunk.bx
 2564      FF
 2565 0009 81C30200 		addl	$_GLOBAL_OFFSET_TABLE_, %ebx
 2565      0000
 2566 000f 83EC18   		subl	$24, %esp
 2567              		.cfi_def_cfa_offset 44
 2568              		.loc 2 692 52 view .LVU631
 2569 0012 8B74242C 		movl	44(%esp), %esi
 2570              		.loc 2 695 3 view .LVU632
 2571 0016 8DBB0000 		leal	ch_factory@GOTOFF(%ebx), %edi
 2571      0000
 2572 001c 57       		pushl	%edi
 2573              		.cfi_def_cfa_offset 48
 2574 001d E8FCFFFF 		call	chMtxLock@PLT
 2574      FF
 2575              	.LVL183:
 2576              		.loc 2 697 3 is_stmt 1 view .LVU633
 2577              	.LBB228:
 2578              	.LBI228:
 2579              		.loc 2 173 15 view .LVU634
 2580              	.LBB229:
 2581              		.loc 2 175 3 view .LVU635
 2582              		.loc 2 176 3 view .LVU636
 2583              		.loc 2 178 3 view .LVU637
 2584              		.loc 2 178 3 view .LVU638
 2585              		.loc 2 178 3 view .LVU639
 2586              		.loc 2 181 3 view .LVU640
 2587              	.LBB230:
 2588              	.LBI230:
 2589              		.loc 2 116 23 view .LVU641
 2590              	.LBB231:
GAS LISTING /tmp/ccoiMs3n.s 			page 49


 2591              		.loc 2 118 3 view .LVU642
 2592              		.loc 2 121 3 view .LVU643
 2593              		.loc 2 121 9 is_stmt 0 view .LVU644
 2594 0022 83C410   		addl	$16, %esp
 2595              		.cfi_def_cfa_offset 32
 2596              		.loc 2 118 18 view .LVU645
 2597 0025 8D473C   		leal	60(%edi), %eax
 2598 0028 8D933C00 		leal	60+ch_factory@GOTOFF(%ebx), %edx
 2598      0000
 2599              		.loc 2 121 9 view .LVU646
 2600 002e EB04     		jmp	.L132
 2601              	.LVL184:
 2602              		.p2align 4,,10
 2603              		.p2align 3
 2604              	.L134:
 2605              		.loc 2 122 5 is_stmt 1 view .LVU647
 2606              		.loc 2 122 8 is_stmt 0 view .LVU648
 2607 0030 39C6     		cmpl	%eax, %esi
 2608 0032 7424     		je	.L133
 2609              	.LVL185:
 2610              	.L132:
 2611              		.loc 2 121 21 is_stmt 1 view .LVU649
 2612 0034 89C1     		movl	%eax, %ecx
 2613              		.loc 2 121 14 is_stmt 0 view .LVU650
 2614 0036 8B00     		movl	(%eax), %eax
 2615              	.LVL186:
 2616              		.loc 2 121 21 view .LVU651
 2617 0038 39D0     		cmpl	%edx, %eax
 2618 003a 75F4     		jne	.L134
 2619              	.LBE231:
 2620              	.LBE230:
 2621              		.loc 2 195 10 view .LVU652
 2622 003c 31ED     		xorl	%ebp, %ebp
 2623              	.LVL187:
 2624              	.L135:
 2625              		.loc 2 198 3 is_stmt 1 view .LVU653
 2626              		.loc 2 198 3 is_stmt 0 view .LVU654
 2627              	.LBE229:
 2628              	.LBE228:
 2629              		.loc 2 699 3 is_stmt 1 view .LVU655
 2630 003e 83EC0C   		subl	$12, %esp
 2631              		.cfi_def_cfa_offset 44
 2632 0041 57       		pushl	%edi
 2633              		.cfi_def_cfa_offset 48
 2634 0042 E8FCFFFF 		call	chMtxUnlock@PLT
 2634      FF
 2635              	.LVL188:
 2636              		.loc 2 701 3 view .LVU656
 2637              		.loc 2 702 1 is_stmt 0 view .LVU657
 2638 0047 83C41C   		addl	$28, %esp
 2639              		.cfi_def_cfa_offset 20
 2640 004a 89E8     		movl	%ebp, %eax
 2641 004c 5B       		popl	%ebx
 2642              		.cfi_restore 3
 2643              		.cfi_def_cfa_offset 16
 2644 004d 5E       		popl	%esi
 2645              		.cfi_restore 6
GAS LISTING /tmp/ccoiMs3n.s 			page 50


 2646              		.cfi_def_cfa_offset 12
 2647 004e 5F       		popl	%edi
 2648              		.cfi_restore 7
 2649              		.cfi_def_cfa_offset 8
 2650 004f 5D       		popl	%ebp
 2651              		.cfi_restore 5
 2652              		.cfi_def_cfa_offset 4
 2653              	.LVL189:
 2654              		.loc 2 702 1 view .LVU658
 2655 0050 C3       		ret
 2656              	.LVL190:
 2657              		.p2align 4,,10
 2658 0051 8DB42600 		.p2align 3
 2658      000000
 2659              	.L133:
 2660              		.cfi_def_cfa_offset 32
 2661              		.cfi_offset 3, -20
 2662              		.cfi_offset 5, -8
 2663              		.cfi_offset 6, -16
 2664              		.cfi_offset 7, -12
 2665              	.LBB237:
 2666              	.LBB236:
 2667              		.loc 2 182 3 is_stmt 1 view .LVU659
 2668              		.loc 2 184 5 view .LVU660
 2669              		.loc 2 184 5 view .LVU661
 2670              		.loc 2 184 5 view .LVU662
 2671              		.loc 2 186 5 view .LVU663
 2672              		.loc 2 186 12 is_stmt 0 view .LVU664
 2673 0058 8B4604   		movl	4(%esi), %eax
 2674 005b 8D68FF   		leal	-1(%eax), %ebp
 2675              		.loc 2 186 10 view .LVU665
 2676 005e 896E04   		movl	%ebp, 4(%esi)
 2677              	.LVL191:
 2678              		.loc 2 187 5 is_stmt 1 view .LVU666
 2679              		.loc 2 187 8 is_stmt 0 view .LVU667
 2680 0061 85ED     		testl	%ebp, %ebp
 2681 0063 75D9     		jne	.L135
 2682              		.loc 2 188 7 is_stmt 1 view .LVU668
 2683              	.LVL192:
 2684              	.LBB232:
 2685              	.LBI232:
 2686              		.loc 2 133 23 view .LVU669
 2687              	.LBB233:
 2688              		.loc 2 134 3 view .LVU670
 2689              		.loc 2 136 3 view .LVU671
 2690              		.loc 2 136 23 is_stmt 0 view .LVU672
 2691 0065 8B06     		movl	(%esi), %eax
 2692              	.LBE233:
 2693              	.LBE232:
 2694              		.loc 2 188 7 view .LVU673
 2695 0067 83EC0C   		subl	$12, %esp
 2696              		.cfi_def_cfa_offset 44
 2697              	.LBB235:
 2698              	.LBB234:
 2699              		.loc 2 136 14 view .LVU674
 2700 006a 8901     		movl	%eax, (%ecx)
 2701              		.loc 2 138 3 is_stmt 1 view .LVU675
GAS LISTING /tmp/ccoiMs3n.s 			page 51


 2702              	.LVL193:
 2703              		.loc 2 138 3 is_stmt 0 view .LVU676
 2704              	.LBE234:
 2705              	.LBE235:
 2706              		.loc 2 188 7 view .LVU677
 2707 006c 56       		pushl	%esi
 2708              		.cfi_def_cfa_offset 48
 2709 006d E8FCFFFF 		call	chHeapFree@PLT
 2709      FF
 2710              	.LVL194:
 2711              		.loc 2 188 7 view .LVU678
 2712 0072 83C410   		addl	$16, %esp
 2713              		.cfi_def_cfa_offset 32
 2714 0075 EBC7     		jmp	.L135
 2715              	.LBE236:
 2716              	.LBE237:
 2717              		.cfi_endproc
 2718              	.LFE238:
 2719              		.size	chFactoryReleaseMailbox, .-chFactoryReleaseMailbox
 2720              		.section	.text.chFactoryCreateObjectsFIFO,"ax",@progbits
 2721              		.p2align 4
 2722              		.globl	chFactoryCreateObjectsFIFO
 2723              		.type	chFactoryCreateObjectsFIFO, @function
 2724              	chFactoryCreateObjectsFIFO:
 2725              	.LVL195:
 2726              	.LFB239:
 2727              		.loc 2 728 67 is_stmt 1 view -0
 2728              		.cfi_startproc
 2729              		.loc 2 729 3 view .LVU680
 2730              		.loc 2 730 3 view .LVU681
 2731              		.loc 2 732 3 view .LVU682
 2732              		.loc 2 728 67 is_stmt 0 view .LVU683
 2733 0000 55       		pushl	%ebp
 2734              		.cfi_def_cfa_offset 8
 2735              		.cfi_offset 5, -8
 2736 0001 57       		pushl	%edi
 2737              		.cfi_def_cfa_offset 12
 2738              		.cfi_offset 7, -12
 2739 0002 56       		pushl	%esi
 2740              		.cfi_def_cfa_offset 16
 2741              		.cfi_offset 6, -16
 2742 0003 53       		pushl	%ebx
 2743              		.cfi_def_cfa_offset 20
 2744              		.cfi_offset 3, -20
 2745 0004 E8FCFFFF 		call	__x86.get_pc_thunk.bx
 2745      FF
 2746 0009 81C30200 		addl	$_GLOBAL_OFFSET_TABLE_, %ebx
 2746      0000
 2747 000f 83EC28   		subl	$40, %esp
 2748              		.cfi_def_cfa_offset 60
 2749              		.loc 2 728 67 view .LVU684
 2750 0012 8B7C2448 		movl	72(%esp), %edi
 2751              		.loc 2 732 3 view .LVU685
 2752 0016 8DAB0000 		leal	ch_factory@GOTOFF(%ebx), %ebp
 2752      0000
 2753 001c 55       		pushl	%ebp
 2754              		.cfi_def_cfa_offset 64
GAS LISTING /tmp/ccoiMs3n.s 			page 52


 2755 001d E8FCFFFF 		call	chMtxLock@PLT
 2755      FF
 2756              	.LVL196:
 2757              		.loc 2 735 3 is_stmt 1 view .LVU686
 2758              		.loc 2 735 13 is_stmt 0 view .LVU687
 2759 0022 8B442444 		movl	68(%esp), %eax
 2760              		.loc 2 736 13 view .LVU688
 2761 0026 8B742448 		movl	72(%esp), %esi
 2762              		.loc 2 741 32 view .LVU689
 2763 002a 893C24   		movl	%edi, (%esp)
 2764              		.loc 2 735 13 view .LVU690
 2765 002d 8D5438FF 		leal	-1(%eax,%edi), %edx
 2766 0031 89F8     		movl	%edi, %eax
 2767              		.loc 2 736 13 view .LVU691
 2768 0033 8D74B753 		leal	83(%edi,%esi,4), %esi
 2769              		.loc 2 735 13 view .LVU692
 2770 0037 F7D8     		negl	%eax
 2771              		.loc 2 735 11 view .LVU693
 2772 0039 89D1     		movl	%edx, %ecx
 2773              		.loc 2 741 32 view .LVU694
 2774 003b 8D934000 		leal	64+ch_factory@GOTOFF(%ebx), %edx
 2774      0000
 2775              		.loc 2 735 11 view .LVU695
 2776 0041 21C1     		andl	%eax, %ecx
 2777              	.LVL197:
 2778              		.loc 2 736 3 is_stmt 1 view .LVU696
 2779              		.loc 2 736 11 is_stmt 0 view .LVU697
 2780 0043 21C6     		andl	%eax, %esi
 2781              	.LVL198:
 2782              		.loc 2 738 3 is_stmt 1 view .LVU698
 2783              		.loc 2 741 3 view .LVU699
 2784              		.loc 2 741 32 is_stmt 0 view .LVU700
 2785 0045 8B442440 		movl	64(%esp), %eax
 2786              		.loc 2 738 11 view .LVU701
 2787 0049 894C2414 		movl	%ecx, 20(%esp)
 2788 004d 0FAF4C24 		imull	72(%esp), %ecx
 2788      48
 2789              	.LVL199:
 2790              		.loc 2 741 32 view .LVU702
 2791 0052 01F1     		addl	%esi, %ecx
 2792              	.LVL200:
 2793              		.loc 2 741 32 view .LVU703
 2794 0054 E8FCFFFF 		call	dyn_create_object_heap
 2794      FF
 2795              	.LVL201:
 2796              		.loc 2 745 3 is_stmt 1 view .LVU704
 2797              		.loc 2 745 6 is_stmt 0 view .LVU705
 2798 0059 83C410   		addl	$16, %esp
 2799              		.cfi_def_cfa_offset 48
 2800 005c 85C0     		testl	%eax, %eax
 2801 005e 7450     		je	.L140
 2802              	.LBB241:
 2803              		.loc 2 746 5 is_stmt 1 view .LVU706
 2804              	.LVL202:
 2805              		.loc 2 747 5 view .LVU707
 2806              		.loc 2 750 5 view .LVU708
 2807              	.LBB242:
GAS LISTING /tmp/ccoiMs3n.s 			page 53


 2808              	.LBI242:
 2809              		.file 5 "../../../os/oslib/include/chobjfifos.h"
 2810              		.loc 5 128 20 view .LVU709
 2811              	.LBB243:
 2812              		.loc 5 132 3 view .LVU710
 2813              		.loc 5 132 3 view .LVU711
 2814              		.loc 5 132 3 view .LVU712
 2815              		.loc 5 134 3 view .LVU713
 2816              	.LBE243:
 2817              	.LBE242:
 2818              		.loc 2 747 14 is_stmt 0 view .LVU714
 2819 0060 8D1430   		leal	(%eax,%esi), %edx
 2820              	.LBB247:
 2821              	.LBB244:
 2822              		.loc 5 134 3 view .LVU715
 2823 0063 8944240C 		movl	%eax, 12(%esp)
 2824 0067 8D7010   		leal	16(%eax), %esi
 2825              	.LVL203:
 2826              		.loc 5 134 3 view .LVU716
 2827 006a 83EC04   		subl	$4, %esp
 2828              		.cfi_def_cfa_offset 52
 2829              	.LBE244:
 2830              	.LBE247:
 2831              		.loc 2 747 14 view .LVU717
 2832 006d 8954240C 		movl	%edx, 12(%esp)
 2833              	.LVL204:
 2834              	.LBB248:
 2835              	.LBB245:
 2836              		.loc 5 134 3 view .LVU718
 2837 0071 57       		pushl	%edi
 2838              		.cfi_def_cfa_offset 56
 2839 0072 FF74240C 		pushl	12(%esp)
 2840              		.cfi_def_cfa_offset 60
 2841 0076 56       		pushl	%esi
 2842              		.cfi_def_cfa_offset 64
 2843 0077 E8FCFFFF 		call	chGuardedPoolObjectInitAligned@PLT
 2843      FF
 2844              	.LVL205:
 2845              		.loc 5 135 3 is_stmt 1 view .LVU719
 2846 007c 83C40C   		addl	$12, %esp
 2847              		.cfi_def_cfa_offset 52
 2848 007f FF74243C 		pushl	60(%esp)
 2849              		.cfi_def_cfa_offset 56
 2850 0083 FF742410 		pushl	16(%esp)
 2851              		.cfi_def_cfa_offset 60
 2852 0087 56       		pushl	%esi
 2853              		.cfi_def_cfa_offset 64
 2854 0088 E8FCFFFF 		call	chGuardedPoolLoadArray@PLT
 2854      FF
 2855              	.LVL206:
 2856              		.loc 5 136 3 view .LVU720
 2857 008d 83C40C   		addl	$12, %esp
 2858              		.cfi_def_cfa_offset 52
 2859 0090 FF74243C 		pushl	60(%esp)
 2860              		.cfi_def_cfa_offset 56
 2861              	.LBE245:
 2862              	.LBE248:
GAS LISTING /tmp/ccoiMs3n.s 			page 54


 2863              		.loc 2 746 12 is_stmt 0 view .LVU721
 2864 0094 8B442414 		movl	20(%esp), %eax
 2865 0098 8D5054   		leal	84(%eax), %edx
 2866              	.LBB249:
 2867              	.LBB246:
 2868              		.loc 5 136 3 view .LVU722
 2869 009b 52       		pushl	%edx
 2870              		.cfi_def_cfa_offset 60
 2871 009c 8D502C   		leal	44(%eax), %edx
 2872 009f 89442410 		movl	%eax, 16(%esp)
 2873              	.LVL207:
 2874              		.loc 5 136 3 view .LVU723
 2875 00a3 52       		pushl	%edx
 2876              		.cfi_def_cfa_offset 64
 2877 00a4 E8FCFFFF 		call	chMBObjectInit@PLT
 2877      FF
 2878              	.LVL208:
 2879              		.loc 5 137 1 view .LVU724
 2880 00a9 8B442414 		movl	20(%esp), %eax
 2881 00ad 83C410   		addl	$16, %esp
 2882              		.cfi_def_cfa_offset 48
 2883              	.LVL209:
 2884              	.L140:
 2885              		.loc 5 137 1 view .LVU725
 2886 00b0 89442404 		movl	%eax, 4(%esp)
 2887              	.LBE246:
 2888              	.LBE249:
 2889              	.LBE241:
 2890              		.loc 2 754 3 is_stmt 1 view .LVU726
 2891 00b4 83EC0C   		subl	$12, %esp
 2892              		.cfi_def_cfa_offset 60
 2893 00b7 55       		pushl	%ebp
 2894              		.cfi_def_cfa_offset 64
 2895 00b8 E8FCFFFF 		call	chMtxUnlock@PLT
 2895      FF
 2896              	.LVL210:
 2897              		.loc 2 756 3 view .LVU727
 2898              		.loc 2 757 1 is_stmt 0 view .LVU728
 2899 00bd 8B442414 		movl	20(%esp), %eax
 2900 00c1 83C42C   		addl	$44, %esp
 2901              		.cfi_def_cfa_offset 20
 2902 00c4 5B       		popl	%ebx
 2903              		.cfi_restore 3
 2904              		.cfi_def_cfa_offset 16
 2905 00c5 5E       		popl	%esi
 2906              		.cfi_restore 6
 2907              		.cfi_def_cfa_offset 12
 2908 00c6 5F       		popl	%edi
 2909              		.cfi_restore 7
 2910              		.cfi_def_cfa_offset 8
 2911              	.LVL211:
 2912              		.loc 2 757 1 view .LVU729
 2913 00c7 5D       		popl	%ebp
 2914              		.cfi_restore 5
 2915              		.cfi_def_cfa_offset 4
 2916 00c8 C3       		ret
 2917              		.cfi_endproc
GAS LISTING /tmp/ccoiMs3n.s 			page 55


 2918              	.LFE239:
 2919              		.size	chFactoryCreateObjectsFIFO, .-chFactoryCreateObjectsFIFO
 2920              		.section	.text.chFactoryFindObjectsFIFO,"ax",@progbits
 2921              		.p2align 4
 2922              		.globl	chFactoryFindObjectsFIFO
 2923              		.type	chFactoryFindObjectsFIFO, @function
 2924              	chFactoryFindObjectsFIFO:
 2925              	.LVL212:
 2926              	.LFB240:
 2927              		.loc 2 773 64 is_stmt 1 view -0
 2928              		.cfi_startproc
 2929              		.loc 2 774 3 view .LVU731
 2930              		.loc 2 776 3 view .LVU732
 2931              		.loc 2 773 64 is_stmt 0 view .LVU733
 2932 0000 55       		pushl	%ebp
 2933              		.cfi_def_cfa_offset 8
 2934              		.cfi_offset 5, -8
 2935 0001 57       		pushl	%edi
 2936              		.cfi_def_cfa_offset 12
 2937              		.cfi_offset 7, -12
 2938 0002 56       		pushl	%esi
 2939              		.cfi_def_cfa_offset 16
 2940              		.cfi_offset 6, -16
 2941 0003 53       		pushl	%ebx
 2942              		.cfi_def_cfa_offset 20
 2943              		.cfi_offset 3, -20
 2944 0004 E8FCFFFF 		call	__x86.get_pc_thunk.bx
 2944      FF
 2945 0009 81C30200 		addl	$_GLOBAL_OFFSET_TABLE_, %ebx
 2945      0000
 2946 000f 83EC28   		subl	$40, %esp
 2947              		.cfi_def_cfa_offset 60
 2948              		.loc 2 773 64 view .LVU734
 2949 0012 8B74243C 		movl	60(%esp), %esi
 2950              		.loc 2 776 3 view .LVU735
 2951 0016 8D830000 		leal	ch_factory@GOTOFF(%ebx), %eax
 2951      0000
 2952 001c 89442418 		movl	%eax, 24(%esp)
 2953 0020 89C7     		movl	%eax, %edi
 2954 0022 50       		pushl	%eax
 2955              		.cfi_def_cfa_offset 64
 2956 0023 E8FCFFFF 		call	chMtxLock@PLT
 2956      FF
 2957              	.LVL213:
 2958              		.loc 2 778 3 is_stmt 1 view .LVU736
 2959              	.LBB254:
 2960              	.LBI254:
 2961              		.loc 2 263 23 view .LVU737
 2962              	.LBB255:
 2963              		.loc 2 264 3 view .LVU738
 2964              		.loc 2 266 3 view .LVU739
 2965              		.loc 2 266 3 view .LVU740
 2966              		.loc 2 266 3 view .LVU741
 2967              		.loc 2 269 3 view .LVU742
 2968              	.LBB256:
 2969              	.LBI256:
 2970              		.loc 2 103 23 view .LVU743
GAS LISTING /tmp/ccoiMs3n.s 			page 56


 2971              	.LBB257:
 2972              		.loc 2 104 3 view .LVU744
 2973              		.loc 2 104 18 is_stmt 0 view .LVU745
 2974 0028 8BAB4000 		movl	64+ch_factory@GOTOFF(%ebx), %ebp
 2974      0000
 2975              	.LVL214:
 2976              		.loc 2 106 3 is_stmt 1 view .LVU746
 2977              		.loc 2 106 12 view .LVU747
 2978 002e 8D4740   		leal	64(%edi), %eax
 2979 0031 83C410   		addl	$16, %esp
 2980              		.cfi_def_cfa_offset 48
 2981 0034 39C5     		cmpl	%eax, %ebp
 2982 0036 7448     		je	.L150
 2983 0038 8DBB4000 		leal	64+ch_factory@GOTOFF(%ebx), %edi
 2983      0000
 2984 003e EB07     		jmp	.L149
 2985              		.p2align 4,,10
 2986              		.p2align 3
 2987              	.L147:
 2988              		.loc 2 110 5 view .LVU748
 2989              		.loc 2 110 7 is_stmt 0 view .LVU749
 2990 0040 8B6D00   		movl	0(%ebp), %ebp
 2991              	.LVL215:
 2992              		.loc 2 106 12 is_stmt 1 view .LVU750
 2993 0043 39FD     		cmpl	%edi, %ebp
 2994 0045 7439     		je	.L150
 2995              	.L149:
 2996              		.loc 2 107 5 view .LVU751
 2997              		.loc 2 107 9 is_stmt 0 view .LVU752
 2998 0047 83EC04   		subl	$4, %esp
 2999              		.cfi_def_cfa_offset 52
 3000 004a 8D4508   		leal	8(%ebp), %eax
 3001 004d 6A08     		pushl	$8
 3002              		.cfi_def_cfa_offset 56
 3003 004f 56       		pushl	%esi
 3004              		.cfi_def_cfa_offset 60
 3005 0050 50       		pushl	%eax
 3006              		.cfi_def_cfa_offset 64
 3007 0051 E8FCFFFF 		call	strncmp@PLT
 3007      FF
 3008              	.LVL216:
 3009 0056 83C410   		addl	$16, %esp
 3010              		.cfi_def_cfa_offset 48
 3011              		.loc 2 107 8 view .LVU753
 3012 0059 85C0     		testl	%eax, %eax
 3013 005b 75E3     		jne	.L147
 3014              		.loc 2 108 7 is_stmt 1 view .LVU754
 3015              	.LVL217:
 3016              		.loc 2 108 7 is_stmt 0 view .LVU755
 3017              	.LBE257:
 3018              	.LBE256:
 3019              		.loc 2 270 3 is_stmt 1 view .LVU756
 3020              		.loc 2 270 6 is_stmt 0 view .LVU757
 3021 005d 85ED     		testl	%ebp, %ebp
 3022 005f 7404     		je	.L146
 3023              		.loc 2 272 5 is_stmt 1 view .LVU758
 3024              		.loc 2 272 14 is_stmt 0 view .LVU759
GAS LISTING /tmp/ccoiMs3n.s 			page 57


 3025 0061 83450401 		addl	$1, 4(%ebp)
 3026              	.LVL218:
 3027              	.L146:
 3028              		.loc 2 275 3 is_stmt 1 view .LVU760
 3029              		.loc 2 275 3 is_stmt 0 view .LVU761
 3030              	.LBE255:
 3031              	.LBE254:
 3032              		.loc 2 780 3 is_stmt 1 view .LVU762
 3033 0065 83EC0C   		subl	$12, %esp
 3034              		.cfi_def_cfa_offset 60
 3035 0068 FF742418 		pushl	24(%esp)
 3036              		.cfi_def_cfa_offset 64
 3037 006c E8FCFFFF 		call	chMtxUnlock@PLT
 3037      FF
 3038              	.LVL219:
 3039              		.loc 2 782 3 view .LVU763
 3040              		.loc 2 783 1 is_stmt 0 view .LVU764
 3041 0071 83C42C   		addl	$44, %esp
 3042              		.cfi_def_cfa_offset 20
 3043 0074 89E8     		movl	%ebp, %eax
 3044 0076 5B       		popl	%ebx
 3045              		.cfi_restore 3
 3046              		.cfi_def_cfa_offset 16
 3047 0077 5E       		popl	%esi
 3048              		.cfi_restore 6
 3049              		.cfi_def_cfa_offset 12
 3050 0078 5F       		popl	%edi
 3051              		.cfi_restore 7
 3052              		.cfi_def_cfa_offset 8
 3053 0079 5D       		popl	%ebp
 3054              		.cfi_restore 5
 3055              		.cfi_def_cfa_offset 4
 3056              	.LVL220:
 3057              		.loc 2 783 1 view .LVU765
 3058 007a C3       		ret
 3059              	.LVL221:
 3060 007b 8D742600 		.p2align 4,,10
 3060      90
 3061              		.p2align 3
 3062              	.L150:
 3063              		.cfi_def_cfa_offset 48
 3064              		.cfi_offset 3, -20
 3065              		.cfi_offset 5, -8
 3066              		.cfi_offset 6, -16
 3067              		.cfi_offset 7, -12
 3068              	.LBB261:
 3069              	.LBB260:
 3070              	.LBB259:
 3071              	.LBB258:
 3072              		.loc 2 113 10 view .LVU766
 3073 0080 31ED     		xorl	%ebp, %ebp
 3074              	.LVL222:
 3075              		.loc 2 113 10 view .LVU767
 3076 0082 EBE1     		jmp	.L146
 3077              	.LBE258:
 3078              	.LBE259:
 3079              	.LBE260:
GAS LISTING /tmp/ccoiMs3n.s 			page 58


 3080              	.LBE261:
 3081              		.cfi_endproc
 3082              	.LFE240:
 3083              		.size	chFactoryFindObjectsFIFO, .-chFactoryFindObjectsFIFO
 3084              		.section	.text.chFactoryReleaseObjectsFIFO,"ax",@progbits
 3085              		.p2align 4
 3086              		.globl	chFactoryReleaseObjectsFIFO
 3087              		.type	chFactoryReleaseObjectsFIFO, @function
 3088              	chFactoryReleaseObjectsFIFO:
 3089              	.LVL223:
 3090              	.LFB241:
 3091              		.loc 2 798 62 is_stmt 1 view -0
 3092              		.cfi_startproc
 3093              		.loc 2 799 3 view .LVU769
 3094              		.loc 2 801 3 view .LVU770
 3095              		.loc 2 798 62 is_stmt 0 view .LVU771
 3096 0000 55       		pushl	%ebp
 3097              		.cfi_def_cfa_offset 8
 3098              		.cfi_offset 5, -8
 3099 0001 57       		pushl	%edi
 3100              		.cfi_def_cfa_offset 12
 3101              		.cfi_offset 7, -12
 3102 0002 56       		pushl	%esi
 3103              		.cfi_def_cfa_offset 16
 3104              		.cfi_offset 6, -16
 3105 0003 53       		pushl	%ebx
 3106              		.cfi_def_cfa_offset 20
 3107              		.cfi_offset 3, -20
 3108 0004 E8FCFFFF 		call	__x86.get_pc_thunk.bx
 3108      FF
 3109 0009 81C30200 		addl	$_GLOBAL_OFFSET_TABLE_, %ebx
 3109      0000
 3110 000f 83EC18   		subl	$24, %esp
 3111              		.cfi_def_cfa_offset 44
 3112              		.loc 2 798 62 view .LVU772
 3113 0012 8B74242C 		movl	44(%esp), %esi
 3114              		.loc 2 801 3 view .LVU773
 3115 0016 8DBB0000 		leal	ch_factory@GOTOFF(%ebx), %edi
 3115      0000
 3116 001c 57       		pushl	%edi
 3117              		.cfi_def_cfa_offset 48
 3118 001d E8FCFFFF 		call	chMtxLock@PLT
 3118      FF
 3119              	.LVL224:
 3120              		.loc 2 803 3 is_stmt 1 view .LVU774
 3121              	.LBB268:
 3122              	.LBI268:
 3123              		.loc 2 173 15 view .LVU775
 3124              	.LBB269:
 3125              		.loc 2 175 3 view .LVU776
 3126              		.loc 2 176 3 view .LVU777
 3127              		.loc 2 178 3 view .LVU778
 3128              		.loc 2 178 3 view .LVU779
 3129              		.loc 2 178 3 view .LVU780
 3130              		.loc 2 181 3 view .LVU781
 3131              	.LBB270:
 3132              	.LBI270:
GAS LISTING /tmp/ccoiMs3n.s 			page 59


 3133              		.loc 2 116 23 view .LVU782
 3134              	.LBB271:
 3135              		.loc 2 118 3 view .LVU783
 3136              		.loc 2 121 3 view .LVU784
 3137              		.loc 2 121 9 is_stmt 0 view .LVU785
 3138 0022 83C410   		addl	$16, %esp
 3139              		.cfi_def_cfa_offset 32
 3140              		.loc 2 118 18 view .LVU786
 3141 0025 8D4740   		leal	64(%edi), %eax
 3142 0028 8D934000 		leal	64+ch_factory@GOTOFF(%ebx), %edx
 3142      0000
 3143              		.loc 2 121 9 view .LVU787
 3144 002e EB04     		jmp	.L154
 3145              	.LVL225:
 3146              		.p2align 4,,10
 3147              		.p2align 3
 3148              	.L156:
 3149              		.loc 2 122 5 is_stmt 1 view .LVU788
 3150              		.loc 2 122 8 is_stmt 0 view .LVU789
 3151 0030 39C6     		cmpl	%eax, %esi
 3152 0032 7424     		je	.L155
 3153              	.LVL226:
 3154              	.L154:
 3155              		.loc 2 121 21 is_stmt 1 view .LVU790
 3156 0034 89C1     		movl	%eax, %ecx
 3157              		.loc 2 121 14 is_stmt 0 view .LVU791
 3158 0036 8B00     		movl	(%eax), %eax
 3159              	.LVL227:
 3160              		.loc 2 121 21 view .LVU792
 3161 0038 39D0     		cmpl	%edx, %eax
 3162 003a 75F4     		jne	.L156
 3163              	.LBE271:
 3164              	.LBE270:
 3165              		.loc 2 195 10 view .LVU793
 3166 003c 31ED     		xorl	%ebp, %ebp
 3167              	.LVL228:
 3168              	.L157:
 3169              		.loc 2 198 3 is_stmt 1 view .LVU794
 3170              		.loc 2 198 3 is_stmt 0 view .LVU795
 3171              	.LBE269:
 3172              	.LBE268:
 3173              		.loc 2 805 3 is_stmt 1 view .LVU796
 3174 003e 83EC0C   		subl	$12, %esp
 3175              		.cfi_def_cfa_offset 44
 3176 0041 57       		pushl	%edi
 3177              		.cfi_def_cfa_offset 48
 3178 0042 E8FCFFFF 		call	chMtxUnlock@PLT
 3178      FF
 3179              	.LVL229:
 3180              		.loc 2 807 3 view .LVU797
 3181              		.loc 2 808 1 is_stmt 0 view .LVU798
 3182 0047 83C41C   		addl	$28, %esp
 3183              		.cfi_def_cfa_offset 20
 3184 004a 89E8     		movl	%ebp, %eax
 3185 004c 5B       		popl	%ebx
 3186              		.cfi_restore 3
 3187              		.cfi_def_cfa_offset 16
GAS LISTING /tmp/ccoiMs3n.s 			page 60


 3188 004d 5E       		popl	%esi
 3189              		.cfi_restore 6
 3190              		.cfi_def_cfa_offset 12
 3191 004e 5F       		popl	%edi
 3192              		.cfi_restore 7
 3193              		.cfi_def_cfa_offset 8
 3194 004f 5D       		popl	%ebp
 3195              		.cfi_restore 5
 3196              		.cfi_def_cfa_offset 4
 3197              	.LVL230:
 3198              		.loc 2 808 1 view .LVU799
 3199 0050 C3       		ret
 3200              	.LVL231:
 3201              		.p2align 4,,10
 3202 0051 8DB42600 		.p2align 3
 3202      000000
 3203              	.L155:
 3204              		.cfi_def_cfa_offset 32
 3205              		.cfi_offset 3, -20
 3206              		.cfi_offset 5, -8
 3207              		.cfi_offset 6, -16
 3208              		.cfi_offset 7, -12
 3209              	.LBB277:
 3210              	.LBB276:
 3211              		.loc 2 182 3 is_stmt 1 view .LVU800
 3212              		.loc 2 184 5 view .LVU801
 3213              		.loc 2 184 5 view .LVU802
 3214              		.loc 2 184 5 view .LVU803
 3215              		.loc 2 186 5 view .LVU804
 3216              		.loc 2 186 12 is_stmt 0 view .LVU805
 3217 0058 8B4604   		movl	4(%esi), %eax
 3218 005b 8D68FF   		leal	-1(%eax), %ebp
 3219              		.loc 2 186 10 view .LVU806
 3220 005e 896E04   		movl	%ebp, 4(%esi)
 3221              	.LVL232:
 3222              		.loc 2 187 5 is_stmt 1 view .LVU807
 3223              		.loc 2 187 8 is_stmt 0 view .LVU808
 3224 0061 85ED     		testl	%ebp, %ebp
 3225 0063 75D9     		jne	.L157
 3226              		.loc 2 188 7 is_stmt 1 view .LVU809
 3227              	.LVL233:
 3228              	.LBB272:
 3229              	.LBI272:
 3230              		.loc 2 133 23 view .LVU810
 3231              	.LBB273:
 3232              		.loc 2 134 3 view .LVU811
 3233              		.loc 2 136 3 view .LVU812
 3234              		.loc 2 136 23 is_stmt 0 view .LVU813
 3235 0065 8B06     		movl	(%esi), %eax
 3236              	.LBE273:
 3237              	.LBE272:
 3238              		.loc 2 188 7 view .LVU814
 3239 0067 83EC0C   		subl	$12, %esp
 3240              		.cfi_def_cfa_offset 44
 3241              	.LBB275:
 3242              	.LBB274:
 3243              		.loc 2 136 14 view .LVU815
GAS LISTING /tmp/ccoiMs3n.s 			page 61


 3244 006a 8901     		movl	%eax, (%ecx)
 3245              		.loc 2 138 3 is_stmt 1 view .LVU816
 3246              	.LVL234:
 3247              		.loc 2 138 3 is_stmt 0 view .LVU817
 3248              	.LBE274:
 3249              	.LBE275:
 3250              		.loc 2 188 7 view .LVU818
 3251 006c 56       		pushl	%esi
 3252              		.cfi_def_cfa_offset 48
 3253 006d E8FCFFFF 		call	chHeapFree@PLT
 3253      FF
 3254              	.LVL235:
 3255              		.loc 2 188 7 view .LVU819
 3256 0072 83C410   		addl	$16, %esp
 3257              		.cfi_def_cfa_offset 32
 3258 0075 EBC7     		jmp	.L157
 3259              	.LBE276:
 3260              	.LBE277:
 3261              		.cfi_endproc
 3262              	.LFE241:
 3263              		.size	chFactoryReleaseObjectsFIFO, .-chFactoryReleaseObjectsFIFO
 3264              		.section	.text.chFactoryCreatePipe,"ax",@progbits
 3265              		.p2align 4
 3266              		.globl	chFactoryCreatePipe
 3267              		.type	chFactoryCreatePipe, @function
 3268              	chFactoryCreatePipe:
 3269              	.LVL236:
 3270              	.LFB242:
 3271              		.loc 2 829 64 is_stmt 1 view -0
 3272              		.cfi_startproc
 3273              		.loc 2 830 3 view .LVU821
 3274              		.loc 2 832 3 view .LVU822
 3275              		.loc 2 829 64 is_stmt 0 view .LVU823
 3276 0000 55       		pushl	%ebp
 3277              		.cfi_def_cfa_offset 8
 3278              		.cfi_offset 5, -8
 3279 0001 57       		pushl	%edi
 3280              		.cfi_def_cfa_offset 12
 3281              		.cfi_offset 7, -12
 3282 0002 56       		pushl	%esi
 3283              		.cfi_def_cfa_offset 16
 3284              		.cfi_offset 6, -16
 3285 0003 53       		pushl	%ebx
 3286              		.cfi_def_cfa_offset 20
 3287              		.cfi_offset 3, -20
 3288 0004 E8FCFFFF 		call	__x86.get_pc_thunk.bx
 3288      FF
 3289 0009 81C30200 		addl	$_GLOBAL_OFFSET_TABLE_, %ebx
 3289      0000
 3290 000f 83EC18   		subl	$24, %esp
 3291              		.cfi_def_cfa_offset 44
 3292              		.loc 2 829 64 view .LVU824
 3293 0012 8B6C2430 		movl	48(%esp), %ebp
 3294              		.loc 2 832 3 view .LVU825
 3295 0016 8DBB0000 		leal	ch_factory@GOTOFF(%ebx), %edi
 3295      0000
 3296 001c 57       		pushl	%edi
GAS LISTING /tmp/ccoiMs3n.s 			page 62


 3297              		.cfi_def_cfa_offset 48
 3298 001d E8FCFFFF 		call	chMtxLock@PLT
 3298      FF
 3299              	.LVL237:
 3300              		.loc 2 834 3 is_stmt 1 view .LVU826
 3301              		.loc 2 834 23 is_stmt 0 view .LVU827
 3302 0022 8B442430 		movl	48(%esp), %eax
 3303 0026 8D4D60   		leal	96(%ebp), %ecx
 3304 0029 8D934400 		leal	68+ch_factory@GOTOFF(%ebx), %edx
 3304      0000
 3305 002f C7042408 		movl	$8, (%esp)
 3305      000000
 3306 0036 E8FCFFFF 		call	dyn_create_object_heap
 3306      FF
 3307              	.LVL238:
 3308              		.loc 2 838 6 view .LVU828
 3309 003b 83C410   		addl	$16, %esp
 3310              		.cfi_def_cfa_offset 32
 3311              		.loc 2 834 23 view .LVU829
 3312 003e 89C6     		movl	%eax, %esi
 3313              	.LVL239:
 3314              		.loc 2 838 3 is_stmt 1 view .LVU830
 3315              		.loc 2 838 6 is_stmt 0 view .LVU831
 3316 0040 85C0     		testl	%eax, %eax
 3317 0042 7414     		je	.L162
 3318              		.loc 2 840 5 is_stmt 1 view .LVU832
 3319 0044 83EC04   		subl	$4, %esp
 3320              		.cfi_def_cfa_offset 36
 3321              		.loc 2 840 50 is_stmt 0 view .LVU833
 3322 0047 8D4060   		leal	96(%eax), %eax
 3323              	.LVL240:
 3324              		.loc 2 840 5 view .LVU834
 3325 004a 55       		pushl	%ebp
 3326              		.cfi_def_cfa_offset 40
 3327 004b 50       		pushl	%eax
 3328              		.cfi_def_cfa_offset 44
 3329 004c 8D4610   		leal	16(%esi), %eax
 3330 004f 50       		pushl	%eax
 3331              		.cfi_def_cfa_offset 48
 3332 0050 E8FCFFFF 		call	chPipeObjectInit@PLT
 3332      FF
 3333              	.LVL241:
 3334 0055 83C410   		addl	$16, %esp
 3335              		.cfi_def_cfa_offset 32
 3336              	.L162:
 3337              		.loc 2 843 3 is_stmt 1 view .LVU835
 3338 0058 83EC0C   		subl	$12, %esp
 3339              		.cfi_def_cfa_offset 44
 3340 005b 57       		pushl	%edi
 3341              		.cfi_def_cfa_offset 48
 3342 005c E8FCFFFF 		call	chMtxUnlock@PLT
 3342      FF
 3343              	.LVL242:
 3344              		.loc 2 845 3 view .LVU836
 3345              		.loc 2 846 1 is_stmt 0 view .LVU837
 3346 0061 83C41C   		addl	$28, %esp
 3347              		.cfi_def_cfa_offset 20
GAS LISTING /tmp/ccoiMs3n.s 			page 63


 3348 0064 89F0     		movl	%esi, %eax
 3349 0066 5B       		popl	%ebx
 3350              		.cfi_restore 3
 3351              		.cfi_def_cfa_offset 16
 3352 0067 5E       		popl	%esi
 3353              		.cfi_restore 6
 3354              		.cfi_def_cfa_offset 12
 3355              	.LVL243:
 3356              		.loc 2 846 1 view .LVU838
 3357 0068 5F       		popl	%edi
 3358              		.cfi_restore 7
 3359              		.cfi_def_cfa_offset 8
 3360 0069 5D       		popl	%ebp
 3361              		.cfi_restore 5
 3362              		.cfi_def_cfa_offset 4
 3363 006a C3       		ret
 3364              		.cfi_endproc
 3365              	.LFE242:
 3366              		.size	chFactoryCreatePipe, .-chFactoryCreatePipe
 3367              		.section	.text.chFactoryFindPipe,"ax",@progbits
 3368              		.p2align 4
 3369              		.globl	chFactoryFindPipe
 3370              		.type	chFactoryFindPipe, @function
 3371              	chFactoryFindPipe:
 3372              	.LVL244:
 3373              	.LFB243:
 3374              		.loc 2 862 49 is_stmt 1 view -0
 3375              		.cfi_startproc
 3376              		.loc 2 863 3 view .LVU840
 3377              		.loc 2 865 3 view .LVU841
 3378              		.loc 2 862 49 is_stmt 0 view .LVU842
 3379 0000 55       		pushl	%ebp
 3380              		.cfi_def_cfa_offset 8
 3381              		.cfi_offset 5, -8
 3382 0001 57       		pushl	%edi
 3383              		.cfi_def_cfa_offset 12
 3384              		.cfi_offset 7, -12
 3385 0002 56       		pushl	%esi
 3386              		.cfi_def_cfa_offset 16
 3387              		.cfi_offset 6, -16
 3388 0003 53       		pushl	%ebx
 3389              		.cfi_def_cfa_offset 20
 3390              		.cfi_offset 3, -20
 3391 0004 E8FCFFFF 		call	__x86.get_pc_thunk.bx
 3391      FF
 3392 0009 81C30200 		addl	$_GLOBAL_OFFSET_TABLE_, %ebx
 3392      0000
 3393 000f 83EC28   		subl	$40, %esp
 3394              		.cfi_def_cfa_offset 60
 3395              		.loc 2 862 49 view .LVU843
 3396 0012 8B74243C 		movl	60(%esp), %esi
 3397              		.loc 2 865 3 view .LVU844
 3398 0016 8D830000 		leal	ch_factory@GOTOFF(%ebx), %eax
 3398      0000
 3399 001c 89442418 		movl	%eax, 24(%esp)
 3400 0020 89C7     		movl	%eax, %edi
 3401 0022 50       		pushl	%eax
GAS LISTING /tmp/ccoiMs3n.s 			page 64


 3402              		.cfi_def_cfa_offset 64
 3403 0023 E8FCFFFF 		call	chMtxLock@PLT
 3403      FF
 3404              	.LVL245:
 3405              		.loc 2 867 3 is_stmt 1 view .LVU845
 3406              	.LBB282:
 3407              	.LBI282:
 3408              		.loc 2 263 23 view .LVU846
 3409              	.LBB283:
 3410              		.loc 2 264 3 view .LVU847
 3411              		.loc 2 266 3 view .LVU848
 3412              		.loc 2 266 3 view .LVU849
 3413              		.loc 2 266 3 view .LVU850
 3414              		.loc 2 269 3 view .LVU851
 3415              	.LBB284:
 3416              	.LBI284:
 3417              		.loc 2 103 23 view .LVU852
 3418              	.LBB285:
 3419              		.loc 2 104 3 view .LVU853
 3420              		.loc 2 104 18 is_stmt 0 view .LVU854
 3421 0028 8BAB4400 		movl	68+ch_factory@GOTOFF(%ebx), %ebp
 3421      0000
 3422              	.LVL246:
 3423              		.loc 2 106 3 is_stmt 1 view .LVU855
 3424              		.loc 2 106 12 view .LVU856
 3425 002e 8D4744   		leal	68(%edi), %eax
 3426 0031 83C410   		addl	$16, %esp
 3427              		.cfi_def_cfa_offset 48
 3428 0034 39C5     		cmpl	%eax, %ebp
 3429 0036 7448     		je	.L172
 3430 0038 8DBB4400 		leal	68+ch_factory@GOTOFF(%ebx), %edi
 3430      0000
 3431 003e EB07     		jmp	.L171
 3432              		.p2align 4,,10
 3433              		.p2align 3
 3434              	.L169:
 3435              		.loc 2 110 5 view .LVU857
 3436              		.loc 2 110 7 is_stmt 0 view .LVU858
 3437 0040 8B6D00   		movl	0(%ebp), %ebp
 3438              	.LVL247:
 3439              		.loc 2 106 12 is_stmt 1 view .LVU859
 3440 0043 39FD     		cmpl	%edi, %ebp
 3441 0045 7439     		je	.L172
 3442              	.L171:
 3443              		.loc 2 107 5 view .LVU860
 3444              		.loc 2 107 9 is_stmt 0 view .LVU861
 3445 0047 83EC04   		subl	$4, %esp
 3446              		.cfi_def_cfa_offset 52
 3447 004a 8D4508   		leal	8(%ebp), %eax
 3448 004d 6A08     		pushl	$8
 3449              		.cfi_def_cfa_offset 56
 3450 004f 56       		pushl	%esi
 3451              		.cfi_def_cfa_offset 60
 3452 0050 50       		pushl	%eax
 3453              		.cfi_def_cfa_offset 64
 3454 0051 E8FCFFFF 		call	strncmp@PLT
 3454      FF
GAS LISTING /tmp/ccoiMs3n.s 			page 65


 3455              	.LVL248:
 3456 0056 83C410   		addl	$16, %esp
 3457              		.cfi_def_cfa_offset 48
 3458              		.loc 2 107 8 view .LVU862
 3459 0059 85C0     		testl	%eax, %eax
 3460 005b 75E3     		jne	.L169
 3461              		.loc 2 108 7 is_stmt 1 view .LVU863
 3462              	.LVL249:
 3463              		.loc 2 108 7 is_stmt 0 view .LVU864
 3464              	.LBE285:
 3465              	.LBE284:
 3466              		.loc 2 270 3 is_stmt 1 view .LVU865
 3467              		.loc 2 270 6 is_stmt 0 view .LVU866
 3468 005d 85ED     		testl	%ebp, %ebp
 3469 005f 7404     		je	.L168
 3470              		.loc 2 272 5 is_stmt 1 view .LVU867
 3471              		.loc 2 272 14 is_stmt 0 view .LVU868
 3472 0061 83450401 		addl	$1, 4(%ebp)
 3473              	.LVL250:
 3474              	.L168:
 3475              		.loc 2 275 3 is_stmt 1 view .LVU869
 3476              		.loc 2 275 3 is_stmt 0 view .LVU870
 3477              	.LBE283:
 3478              	.LBE282:
 3479              		.loc 2 869 3 is_stmt 1 view .LVU871
 3480 0065 83EC0C   		subl	$12, %esp
 3481              		.cfi_def_cfa_offset 60
 3482 0068 FF742418 		pushl	24(%esp)
 3483              		.cfi_def_cfa_offset 64
 3484 006c E8FCFFFF 		call	chMtxUnlock@PLT
 3484      FF
 3485              	.LVL251:
 3486              		.loc 2 871 3 view .LVU872
 3487              		.loc 2 872 1 is_stmt 0 view .LVU873
 3488 0071 83C42C   		addl	$44, %esp
 3489              		.cfi_def_cfa_offset 20
 3490 0074 89E8     		movl	%ebp, %eax
 3491 0076 5B       		popl	%ebx
 3492              		.cfi_restore 3
 3493              		.cfi_def_cfa_offset 16
 3494 0077 5E       		popl	%esi
 3495              		.cfi_restore 6
 3496              		.cfi_def_cfa_offset 12
 3497 0078 5F       		popl	%edi
 3498              		.cfi_restore 7
 3499              		.cfi_def_cfa_offset 8
 3500 0079 5D       		popl	%ebp
 3501              		.cfi_restore 5
 3502              		.cfi_def_cfa_offset 4
 3503              	.LVL252:
 3504              		.loc 2 872 1 view .LVU874
 3505 007a C3       		ret
 3506              	.LVL253:
 3507 007b 8D742600 		.p2align 4,,10
 3507      90
 3508              		.p2align 3
 3509              	.L172:
GAS LISTING /tmp/ccoiMs3n.s 			page 66


 3510              		.cfi_def_cfa_offset 48
 3511              		.cfi_offset 3, -20
 3512              		.cfi_offset 5, -8
 3513              		.cfi_offset 6, -16
 3514              		.cfi_offset 7, -12
 3515              	.LBB289:
 3516              	.LBB288:
 3517              	.LBB287:
 3518              	.LBB286:
 3519              		.loc 2 113 10 view .LVU875
 3520 0080 31ED     		xorl	%ebp, %ebp
 3521              	.LVL254:
 3522              		.loc 2 113 10 view .LVU876
 3523 0082 EBE1     		jmp	.L168
 3524              	.LBE286:
 3525              	.LBE287:
 3526              	.LBE288:
 3527              	.LBE289:
 3528              		.cfi_endproc
 3529              	.LFE243:
 3530              		.size	chFactoryFindPipe, .-chFactoryFindPipe
 3531              		.section	.text.chFactoryReleasePipe,"ax",@progbits
 3532              		.p2align 4
 3533              		.globl	chFactoryReleasePipe
 3534              		.type	chFactoryReleasePipe, @function
 3535              	chFactoryReleasePipe:
 3536              	.LVL255:
 3537              	.LFB244:
 3538              		.loc 2 887 46 is_stmt 1 view -0
 3539              		.cfi_startproc
 3540              		.loc 2 888 3 view .LVU878
 3541              		.loc 2 890 3 view .LVU879
 3542              		.loc 2 887 46 is_stmt 0 view .LVU880
 3543 0000 55       		pushl	%ebp
 3544              		.cfi_def_cfa_offset 8
 3545              		.cfi_offset 5, -8
 3546 0001 57       		pushl	%edi
 3547              		.cfi_def_cfa_offset 12
 3548              		.cfi_offset 7, -12
 3549 0002 56       		pushl	%esi
 3550              		.cfi_def_cfa_offset 16
 3551              		.cfi_offset 6, -16
 3552 0003 53       		pushl	%ebx
 3553              		.cfi_def_cfa_offset 20
 3554              		.cfi_offset 3, -20
 3555 0004 E8FCFFFF 		call	__x86.get_pc_thunk.bx
 3555      FF
 3556 0009 81C30200 		addl	$_GLOBAL_OFFSET_TABLE_, %ebx
 3556      0000
 3557 000f 83EC18   		subl	$24, %esp
 3558              		.cfi_def_cfa_offset 44
 3559              		.loc 2 887 46 view .LVU881
 3560 0012 8B74242C 		movl	44(%esp), %esi
 3561              		.loc 2 890 3 view .LVU882
 3562 0016 8DBB0000 		leal	ch_factory@GOTOFF(%ebx), %edi
 3562      0000
 3563 001c 57       		pushl	%edi
GAS LISTING /tmp/ccoiMs3n.s 			page 67


 3564              		.cfi_def_cfa_offset 48
 3565 001d E8FCFFFF 		call	chMtxLock@PLT
 3565      FF
 3566              	.LVL256:
 3567              		.loc 2 892 3 is_stmt 1 view .LVU883
 3568              	.LBB296:
 3569              	.LBI296:
 3570              		.loc 2 173 15 view .LVU884
 3571              	.LBB297:
 3572              		.loc 2 175 3 view .LVU885
 3573              		.loc 2 176 3 view .LVU886
 3574              		.loc 2 178 3 view .LVU887
 3575              		.loc 2 178 3 view .LVU888
 3576              		.loc 2 178 3 view .LVU889
 3577              		.loc 2 181 3 view .LVU890
 3578              	.LBB298:
 3579              	.LBI298:
 3580              		.loc 2 116 23 view .LVU891
 3581              	.LBB299:
 3582              		.loc 2 118 3 view .LVU892
 3583              		.loc 2 121 3 view .LVU893
 3584              		.loc 2 121 9 is_stmt 0 view .LVU894
 3585 0022 83C410   		addl	$16, %esp
 3586              		.cfi_def_cfa_offset 32
 3587              		.loc 2 118 18 view .LVU895
 3588 0025 8D4744   		leal	68(%edi), %eax
 3589 0028 8D934400 		leal	68+ch_factory@GOTOFF(%ebx), %edx
 3589      0000
 3590              		.loc 2 121 9 view .LVU896
 3591 002e EB04     		jmp	.L176
 3592              	.LVL257:
 3593              		.p2align 4,,10
 3594              		.p2align 3
 3595              	.L178:
 3596              		.loc 2 122 5 is_stmt 1 view .LVU897
 3597              		.loc 2 122 8 is_stmt 0 view .LVU898
 3598 0030 39C6     		cmpl	%eax, %esi
 3599 0032 7424     		je	.L177
 3600              	.LVL258:
 3601              	.L176:
 3602              		.loc 2 121 21 is_stmt 1 view .LVU899
 3603 0034 89C1     		movl	%eax, %ecx
 3604              		.loc 2 121 14 is_stmt 0 view .LVU900
 3605 0036 8B00     		movl	(%eax), %eax
 3606              	.LVL259:
 3607              		.loc 2 121 21 view .LVU901
 3608 0038 39D0     		cmpl	%edx, %eax
 3609 003a 75F4     		jne	.L178
 3610              	.LBE299:
 3611              	.LBE298:
 3612              		.loc 2 195 10 view .LVU902
 3613 003c 31ED     		xorl	%ebp, %ebp
 3614              	.LVL260:
 3615              	.L179:
 3616              		.loc 2 198 3 is_stmt 1 view .LVU903
 3617              		.loc 2 198 3 is_stmt 0 view .LVU904
 3618              	.LBE297:
GAS LISTING /tmp/ccoiMs3n.s 			page 68


 3619              	.LBE296:
 3620              		.loc 2 894 3 is_stmt 1 view .LVU905
 3621 003e 83EC0C   		subl	$12, %esp
 3622              		.cfi_def_cfa_offset 44
 3623 0041 57       		pushl	%edi
 3624              		.cfi_def_cfa_offset 48
 3625 0042 E8FCFFFF 		call	chMtxUnlock@PLT
 3625      FF
 3626              	.LVL261:
 3627              		.loc 2 896 3 view .LVU906
 3628              		.loc 2 897 1 is_stmt 0 view .LVU907
 3629 0047 83C41C   		addl	$28, %esp
 3630              		.cfi_def_cfa_offset 20
 3631 004a 89E8     		movl	%ebp, %eax
 3632 004c 5B       		popl	%ebx
 3633              		.cfi_restore 3
 3634              		.cfi_def_cfa_offset 16
 3635 004d 5E       		popl	%esi
 3636              		.cfi_restore 6
 3637              		.cfi_def_cfa_offset 12
 3638 004e 5F       		popl	%edi
 3639              		.cfi_restore 7
 3640              		.cfi_def_cfa_offset 8
 3641 004f 5D       		popl	%ebp
 3642              		.cfi_restore 5
 3643              		.cfi_def_cfa_offset 4
 3644              	.LVL262:
 3645              		.loc 2 897 1 view .LVU908
 3646 0050 C3       		ret
 3647              	.LVL263:
 3648              		.p2align 4,,10
 3649 0051 8DB42600 		.p2align 3
 3649      000000
 3650              	.L177:
 3651              		.cfi_def_cfa_offset 32
 3652              		.cfi_offset 3, -20
 3653              		.cfi_offset 5, -8
 3654              		.cfi_offset 6, -16
 3655              		.cfi_offset 7, -12
 3656              	.LBB305:
 3657              	.LBB304:
 3658              		.loc 2 182 3 is_stmt 1 view .LVU909
 3659              		.loc 2 184 5 view .LVU910
 3660              		.loc 2 184 5 view .LVU911
 3661              		.loc 2 184 5 view .LVU912
 3662              		.loc 2 186 5 view .LVU913
 3663              		.loc 2 186 12 is_stmt 0 view .LVU914
 3664 0058 8B4604   		movl	4(%esi), %eax
 3665 005b 8D68FF   		leal	-1(%eax), %ebp
 3666              		.loc 2 186 10 view .LVU915
 3667 005e 896E04   		movl	%ebp, 4(%esi)
 3668              	.LVL264:
 3669              		.loc 2 187 5 is_stmt 1 view .LVU916
 3670              		.loc 2 187 8 is_stmt 0 view .LVU917
 3671 0061 85ED     		testl	%ebp, %ebp
 3672 0063 75D9     		jne	.L179
 3673              		.loc 2 188 7 is_stmt 1 view .LVU918
GAS LISTING /tmp/ccoiMs3n.s 			page 69


 3674              	.LVL265:
 3675              	.LBB300:
 3676              	.LBI300:
 3677              		.loc 2 133 23 view .LVU919
 3678              	.LBB301:
 3679              		.loc 2 134 3 view .LVU920
 3680              		.loc 2 136 3 view .LVU921
 3681              		.loc 2 136 23 is_stmt 0 view .LVU922
 3682 0065 8B06     		movl	(%esi), %eax
 3683              	.LBE301:
 3684              	.LBE300:
 3685              		.loc 2 188 7 view .LVU923
 3686 0067 83EC0C   		subl	$12, %esp
 3687              		.cfi_def_cfa_offset 44
 3688              	.LBB303:
 3689              	.LBB302:
 3690              		.loc 2 136 14 view .LVU924
 3691 006a 8901     		movl	%eax, (%ecx)
 3692              		.loc 2 138 3 is_stmt 1 view .LVU925
 3693              	.LVL266:
 3694              		.loc 2 138 3 is_stmt 0 view .LVU926
 3695              	.LBE302:
 3696              	.LBE303:
 3697              		.loc 2 188 7 view .LVU927
 3698 006c 56       		pushl	%esi
 3699              		.cfi_def_cfa_offset 48
 3700 006d E8FCFFFF 		call	chHeapFree@PLT
 3700      FF
 3701              	.LVL267:
 3702              		.loc 2 188 7 view .LVU928
 3703 0072 83C410   		addl	$16, %esp
 3704              		.cfi_def_cfa_offset 32
 3705 0075 EBC7     		jmp	.L179
 3706              	.LBE304:
 3707              	.LBE305:
 3708              		.cfi_endproc
 3709              	.LFE244:
 3710              		.size	chFactoryReleasePipe, .-chFactoryReleasePipe
 3711              		.globl	ch_factory
 3712              		.section	.bss.ch_factory,"aw",@nobits
 3713              		.align 32
 3714              		.type	ch_factory, @object
 3715              		.size	ch_factory, 72
 3716              	ch_factory:
 3717 0000 00000000 		.zero	72
 3717      00000000 
 3717      00000000 
 3717      00000000 
 3717      00000000 
 3718              		.section	.text.__x86.get_pc_thunk.bx,"axG",@progbits,__x86.get_pc_thunk.bx,comdat
 3719              		.globl	__x86.get_pc_thunk.bx
 3720              		.hidden	__x86.get_pc_thunk.bx
 3721              		.type	__x86.get_pc_thunk.bx, @function
 3722              	__x86.get_pc_thunk.bx:
 3723              	.LFB247:
 3724              		.cfi_startproc
 3725 0000 8B1C24   		movl	(%esp), %ebx
GAS LISTING /tmp/ccoiMs3n.s 			page 70


 3726 0003 C3       		ret
 3727              		.cfi_endproc
 3728              	.LFE247:
 3729              		.text
 3730              	.Letext0:
 3731              		.file 6 "/usr/lib/gcc/x86_64-linux-gnu/11/include/stddef.h"
 3732              		.file 7 "/usr/include/bits/types.h"
 3733              		.file 8 "/usr/include/bits/stdint-intn.h"
 3734              		.file 9 "/usr/include/bits/stdint-uintn.h"
 3735              		.file 10 "../../../os/common/ports/SIMIA32/compilers/GCC/chtypes.h"
 3736              		.file 11 "../../../os/rt/include/chearly.h"
 3737              		.file 12 "../../../os/rt/include/chobjects.h"
 3738              		.file 13 "../../../os/rt/include/chrfcu.h"
 3739              		.file 14 "../../../os/rt/include/chdebug.h"
 3740              		.file 15 "../../../os/rt/include/chtime.h"
 3741              		.file 16 "../../../os/rt/include/chlists.h"
 3742              		.file 17 "../../../os/common/ports/SIMIA32/chcore.h"
 3743              		.file 18 "../../../os/rt/include/chsem.h"
 3744              		.file 19 "../../../os/rt/include/chmtx.h"
 3745              		.file 20 "../../../os/oslib/include/chmemchecks.h"
 3746              		.file 21 "../../../os/oslib/include/chmboxes.h"
 3747              		.file 22 "../../../os/oslib/include/chmemheaps.h"
 3748              		.file 23 "../../../os/oslib/include/chpipes.h"
 3749              		.file 24 "../../../os/oslib/include/chfactory.h"
 3750              		.file 25 "/usr/include/string.h"
 3751              		.file 26 "<built-in>"
 13961 0051 2F686F6D 		.section	.note.GNU-stack,"",@progbits
 13961      652F616C 
 13961      65782F43 
 13961      68696269 
 13961      4F532F64 
GAS LISTING /tmp/ccoiMs3n.s 			page 260

