GAS LISTING /tmp/ccoiMs3n.s 			page 1


   1              		.file	"chfactory.c"
   2              		.text
   3              	.Ltext0:
   4              		.file 0 "/home/alex/ChibiOS/demos/various/LAB2_VARIANT3" "../../../os/oslib/src/chfactory.c"
   5              		.section	.text.chCoreAllocAlignedI,"ax",@progbits
   6              		.p2align 4
   7              		.type	chCoreAllocAlignedI, @function
   8              	chCoreAllocAlignedI:
   9              	.LVL0:
  10              	.LFB148:
  11              		.file 1 "../../../os/oslib/include/chmemcore.h"
  12              		.loc 1 150 70 view -0
  13              		.cfi_startproc
  14              		.loc 1 152 3 view .LVU1
  15              		.loc 1 150 70 is_stmt 0 view .LVU2
  16 0000 53       		pushl	%ebx
  17              		.cfi_def_cfa_offset 8
  18              		.cfi_offset 3, -8
  19 0001 E8FCFFFF 		call	__x86.get_pc_thunk.bx
  19      FF
  20 0006 81C30200 		addl	$_GLOBAL_OFFSET_TABLE_, %ebx
  20      0000
  21 000c 83EC0C   		subl	$12, %esp
  22              		.cfi_def_cfa_offset 20
  23              		.loc 1 152 10 view .LVU3
  24 000f 6A00     		pushl	$0
  25              		.cfi_def_cfa_offset 24
  26 0011 FF74241C 		pushl	28(%esp)
  27              		.cfi_def_cfa_offset 28
  28 0015 FF74241C 		pushl	28(%esp)
  29              		.cfi_def_cfa_offset 32
  30 0019 E8FCFFFF 		call	chCoreAllocFromTopI@PLT
  30      FF
  31              	.LVL1:
  32              		.loc 1 153 1 view .LVU4
  33 001e 83C418   		addl	$24, %esp
  34              		.cfi_def_cfa_offset 8
  35 0021 5B       		popl	%ebx
  36              		.cfi_restore 3
  37              		.cfi_def_cfa_offset 4
  38 0022 C3       		ret
  39              		.cfi_endproc
  40              	.LFE148:
  41              		.size	chCoreAllocAlignedI, .-chCoreAllocAlignedI
  42              		.section	.text.dyn_create_object_heap,"ax",@progbits
  43              		.p2align 4
  44              		.type	dyn_create_object_heap, @function
  45              	dyn_create_object_heap:
  46              	.LVL2:
  47              	.LFB220:
  48              		.file 2 "../../../os/oslib/src/chfactory.c"
  49              		.loc 2 145 62 is_stmt 1 view -0
  50              		.cfi_startproc
  51              		.loc 2 146 3 view .LVU6
  52              		.loc 2 148 3 view .LVU7
  53              		.loc 2 148 3 view .LVU8
  54              		.loc 2 148 3 view .LVU9
GAS LISTING /tmp/ccoiMs3n.s 			page 2


  55              		.loc 2 151 3 view .LVU10
  56              		.loc 2 145 62 is_stmt 0 view .LVU11
  57 0000 55       		pushl	%ebp
  58              		.cfi_def_cfa_offset 8
  59              		.cfi_offset 5, -8
  60 0001 57       		pushl	%edi
  61              		.cfi_def_cfa_offset 12
  62              		.cfi_offset 7, -12
  63 0002 89D7     		movl	%edx, %edi
  64 0004 56       		pushl	%esi
  65              		.cfi_def_cfa_offset 16
  66              		.cfi_offset 6, -16
  67 0005 89C6     		movl	%eax, %esi
  68              	.LVL3:
  69              	.LBB34:
  70              	.LBI34:
  71              		.loc 2 103 23 is_stmt 1 view .LVU12
  72              	.LBB35:
  73              		.loc 2 104 3 view .LVU13
  74              	.LBE35:
  75              	.LBE34:
  76              		.loc 2 145 62 is_stmt 0 view .LVU14
  77 0007 53       		pushl	%ebx
  78              		.cfi_def_cfa_offset 20
  79              		.cfi_offset 3, -20
  80 0008 E8FCFFFF 		call	__x86.get_pc_thunk.bx
  80      FF
  81 000d 81C30200 		addl	$_GLOBAL_OFFSET_TABLE_, %ebx
  81      0000
  82 0013 83EC1C   		subl	$28, %esp
  83              		.cfi_def_cfa_offset 48
  84              	.LBB38:
  85              	.LBB36:
  86              		.loc 2 104 18 view .LVU15
  87 0016 8B2A     		movl	(%edx), %ebp
  88              	.LVL4:
  89              		.loc 2 106 3 is_stmt 1 view .LVU16
  90              		.loc 2 106 12 view .LVU17
  91              	.LBE36:
  92              	.LBE38:
  93              		.loc 2 145 62 is_stmt 0 view .LVU18
  94 0018 894C240C 		movl	%ecx, 12(%esp)
  95              	.LBB39:
  96              	.LBB37:
  97              		.loc 2 106 12 view .LVU19
  98 001c 39EA     		cmpl	%ebp, %edx
  99 001e 750F     		jne	.L8
 100 0020 EB36     		jmp	.L5
 101              	.LVL5:
 102              		.p2align 4,,10
 103 0022 8DB60000 		.p2align 3
 103      0000
 104              	.L6:
 105              		.loc 2 110 5 is_stmt 1 view .LVU20
 106              		.loc 2 110 7 is_stmt 0 view .LVU21
 107 0028 8B6D00   		movl	0(%ebp), %ebp
 108              	.LVL6:
GAS LISTING /tmp/ccoiMs3n.s 			page 3


 109              		.loc 2 106 12 is_stmt 1 view .LVU22
 110 002b 39EF     		cmpl	%ebp, %edi
 111 002d 7429     		je	.L5
 112              	.L8:
 113              		.loc 2 107 5 view .LVU23
 114              		.loc 2 107 9 is_stmt 0 view .LVU24
 115 002f 83EC04   		subl	$4, %esp
 116              		.cfi_def_cfa_offset 52
 117 0032 8D4508   		leal	8(%ebp), %eax
 118 0035 6A08     		pushl	$8
 119              		.cfi_def_cfa_offset 56
 120 0037 56       		pushl	%esi
 121              		.cfi_def_cfa_offset 60
 122 0038 50       		pushl	%eax
 123              		.cfi_def_cfa_offset 64
 124 0039 E8FCFFFF 		call	strncmp@PLT
 124      FF
 125              	.LVL7:
 126 003e 83C410   		addl	$16, %esp
 127              		.cfi_def_cfa_offset 48
 128              		.loc 2 107 8 view .LVU25
 129 0041 85C0     		testl	%eax, %eax
 130 0043 75E3     		jne	.L6
 131              		.loc 2 108 7 is_stmt 1 view .LVU26
 132              	.LVL8:
 133              		.loc 2 108 7 is_stmt 0 view .LVU27
 134              	.LBE37:
 135              	.LBE39:
 136              		.loc 2 152 3 is_stmt 1 view .LVU28
 137              		.loc 2 152 6 is_stmt 0 view .LVU29
 138 0045 85ED     		testl	%ebp, %ebp
 139 0047 740F     		je	.L5
 140              	.LVL9:
 141              	.L9:
 142              		.loc 2 171 1 view .LVU30
 143 0049 83C41C   		addl	$28, %esp
 144              		.cfi_remember_state
 145              		.cfi_def_cfa_offset 20
 146              		.loc 2 153 12 view .LVU31
 147 004c 31C9     		xorl	%ecx, %ecx
 148              		.loc 2 171 1 view .LVU32
 149 004e 5B       		popl	%ebx
 150              		.cfi_restore 3
 151              		.cfi_def_cfa_offset 16
 152 004f 89C8     		movl	%ecx, %eax
 153 0051 5E       		popl	%esi
 154              		.cfi_restore 6
 155              		.cfi_def_cfa_offset 12
 156              	.LVL10:
 157              		.loc 2 171 1 view .LVU33
 158 0052 5F       		popl	%edi
 159              		.cfi_restore 7
 160              		.cfi_def_cfa_offset 8
 161              	.LVL11:
 162              		.loc 2 171 1 view .LVU34
 163 0053 5D       		popl	%ebp
 164              		.cfi_restore 5
GAS LISTING /tmp/ccoiMs3n.s 			page 4


 165              		.cfi_def_cfa_offset 4
 166 0054 C3       		ret
 167              	.LVL12:
 168              		.p2align 4,,10
 169 0055 8D7600   		.p2align 3
 170              	.L5:
 171              		.cfi_restore_state
 172              	.LBB40:
 173              	.LBI40:
 174              		.loc 2 142 23 is_stmt 1 view .LVU35
 175              	.LBB41:
 176              		.loc 2 157 3 view .LVU36
 177              		.loc 2 157 26 is_stmt 0 view .LVU37
 178 0058 83EC04   		subl	$4, %esp
 179              		.cfi_def_cfa_offset 52
 180 005b FF742434 		pushl	52(%esp)
 181              		.cfi_def_cfa_offset 56
 182 005f FF742414 		pushl	20(%esp)
 183              		.cfi_def_cfa_offset 60
 184 0063 6A00     		pushl	$0
 185              		.cfi_def_cfa_offset 64
 186 0065 E8FCFFFF 		call	chHeapAllocAligned@PLT
 186      FF
 187              	.LVL13:
 188              		.loc 2 158 6 view .LVU38
 189 006a 83C410   		addl	$16, %esp
 190              		.cfi_def_cfa_offset 48
 191              		.loc 2 157 26 view .LVU39
 192 006d 89C1     		movl	%eax, %ecx
 193              	.LVL14:
 194              		.loc 2 158 3 is_stmt 1 view .LVU40
 195              		.loc 2 158 6 is_stmt 0 view .LVU41
 196 006f 85C0     		testl	%eax, %eax
 197 0071 74D6     		je	.L9
 198 0073 31C0     		xorl	%eax, %eax
 199              	.LVL15:
 200              		.p2align 4,,10
 201 0075 8D7600   		.p2align 3
 202              	.L10:
 203              	.LBB42:
 204              	.LBB43:
 205              		.loc 2 91 3 is_stmt 1 view .LVU42
 206              		.loc 2 92 5 view .LVU43
 207              		.loc 2 92 7 is_stmt 0 view .LVU44
 208 0078 0FB61406 		movzbl	(%esi,%eax), %edx
 209              	.LVL16:
 210              		.loc 2 93 5 is_stmt 1 view .LVU45
 211              		.loc 2 95 15 is_stmt 0 view .LVU46
 212 007c 84D2     		testb	%dl, %dl
 213              		.loc 2 93 11 view .LVU47
 214 007e 88540108 		movb	%dl, 8(%ecx,%eax)
 215              		.loc 2 94 5 is_stmt 1 view .LVU48
 216              	.LVL17:
 217              		.loc 2 95 27 view .LVU49
 218              		.loc 2 95 15 is_stmt 0 view .LVU50
 219 0082 0F95C3   		setne	%bl
 220              		.loc 2 95 33 view .LVU51
GAS LISTING /tmp/ccoiMs3n.s 			page 5


 221 0085 83F807   		cmpl	$7, %eax
 222 0088 0F95C2   		setne	%dl
 223              	.LVL18:
 224              		.loc 2 95 27 view .LVU52
 225 008b 83C001   		addl	$1, %eax
 226              	.LVL19:
 227              		.loc 2 95 27 view .LVU53
 228 008e 84D3     		testb	%dl, %bl
 229 0090 75E6     		jne	.L10
 230              	.LVL20:
 231              		.loc 2 95 27 view .LVU54
 232              	.LBE43:
 233              	.LBE42:
 234              		.loc 2 164 3 is_stmt 1 view .LVU55
 235              		.loc 2 165 13 is_stmt 0 view .LVU56
 236 0092 8B07     		movl	(%edi), %eax
 237              		.loc 2 164 13 view .LVU57
 238 0094 C7410401 		movl	$1, 4(%ecx)
 238      000000
 239              		.loc 2 165 3 is_stmt 1 view .LVU58
 240              		.loc 2 165 13 is_stmt 0 view .LVU59
 241 009b 8901     		movl	%eax, (%ecx)
 242              		.loc 2 168 3 is_stmt 1 view .LVU60
 243              	.LBE41:
 244              	.LBE40:
 245              		.loc 2 171 1 is_stmt 0 view .LVU61
 246 009d 89C8     		movl	%ecx, %eax
 247              	.LBB45:
 248              	.LBB44:
 249              		.loc 2 168 13 view .LVU62
 250 009f 890F     		movl	%ecx, (%edi)
 251              		.loc 2 170 3 is_stmt 1 view .LVU63
 252              	.LVL21:
 253              		.loc 2 170 3 is_stmt 0 view .LVU64
 254              	.LBE44:
 255              	.LBE45:
 256              		.loc 2 171 1 view .LVU65
 257 00a1 83C41C   		addl	$28, %esp
 258              		.cfi_def_cfa_offset 20
 259 00a4 5B       		popl	%ebx
 260              		.cfi_restore 3
 261              		.cfi_def_cfa_offset 16
 262 00a5 5E       		popl	%esi
 263              		.cfi_restore 6
 264              		.cfi_def_cfa_offset 12
 265              	.LVL22:
 266              		.loc 2 171 1 view .LVU66
 267 00a6 5F       		popl	%edi
 268              		.cfi_restore 7
 269              		.cfi_def_cfa_offset 8
 270              	.LVL23:
 271              		.loc 2 171 1 view .LVU67
 272 00a7 5D       		popl	%ebp
 273              		.cfi_restore 5
 274              		.cfi_def_cfa_offset 4
 275 00a8 C3       		ret
 276              		.cfi_endproc
GAS LISTING /tmp/ccoiMs3n.s 			page 6


 277              	.LFE220:
 278              		.size	dyn_create_object_heap, .-dyn_create_object_heap
 279              		.section	.text.__factory_init,"ax",@progbits
 280              		.p2align 4
 281              		.globl	__factory_init
 282              		.type	__factory_init, @function
 283              	__factory_init:
 284              	.LFB225:
 285              		.loc 2 287 27 is_stmt 1 view -0
 286              		.cfi_startproc
 287              		.loc 2 290 3 view .LVU69
 288              		.loc 2 287 27 is_stmt 0 view .LVU70
 289 0000 57       		pushl	%edi
 290              		.cfi_def_cfa_offset 8
 291              		.cfi_offset 7, -8
 292 0001 56       		pushl	%esi
 293              		.cfi_def_cfa_offset 12
 294              		.cfi_offset 6, -12
 295 0002 53       		pushl	%ebx
 296              		.cfi_def_cfa_offset 16
 297              		.cfi_offset 3, -16
 298 0003 E8FCFFFF 		call	__x86.get_pc_thunk.bx
 298      FF
 299 0008 81C30200 		addl	$_GLOBAL_OFFSET_TABLE_, %ebx
 299      0000
 300              		.loc 2 290 3 view .LVU71
 301 000e 83EC0C   		subl	$12, %esp
 302              		.cfi_def_cfa_offset 28
 303 0011 8DB30000 		leal	ch_factory@GOTOFF(%ebx), %esi
 303      0000
 304              	.LBB46:
 305              	.LBB47:
 306              		.file 3 "../../../os/oslib/include/chmempools.h"
 307              		.loc 3 195 3 view .LVU72
 308 0017 8DBB0000 		leal	chCoreAllocAlignedI@GOTOFF(%ebx), %edi
 308      0000
 309              	.LBE47:
 310              	.LBE46:
 311              		.loc 2 290 3 view .LVU73
 312 001d 56       		pushl	%esi
 313              		.cfi_def_cfa_offset 32
 314 001e E8FCFFFF 		call	chMtxObjectInit@PLT
 314      FF
 315              	.LVL24:
 316              		.loc 2 296 3 is_stmt 1 view .LVU74
 317              	.LBB50:
 318              	.LBI50:
 319              		.loc 2 98 20 view .LVU75
 320              	.LBB51:
 321              		.loc 2 100 3 view .LVU76
 322              		.loc 2 100 13 is_stmt 0 view .LVU77
 323 0023 8D4610   		leal	16(%esi), %eax
 324              	.LBE51:
 325              	.LBE50:
 326              	.LBB53:
 327              	.LBB48:
 328              		.loc 3 195 3 view .LVU78
GAS LISTING /tmp/ccoiMs3n.s 			page 7


 329 0026 57       		pushl	%edi
 330              		.cfi_def_cfa_offset 36
 331              	.LBE48:
 332              	.LBE53:
 333              	.LBB54:
 334              	.LBB52:
 335              		.loc 2 100 13 view .LVU79
 336 0027 89831000 		movl	%eax, 16+ch_factory@GOTOFF(%ebx)
 336      0000
 337              	.LVL25:
 338              		.loc 2 100 13 view .LVU80
 339              	.LBE52:
 340              	.LBE54:
 341              		.loc 2 297 3 is_stmt 1 view .LVU81
 342              	.LBB55:
 343              	.LBI46:
 344              		.loc 3 191 20 view .LVU82
 345              	.LBB49:
 346              		.loc 3 195 3 view .LVU83
 347 002d 8D4614   		leal	20(%esi), %eax
 348 0030 6A04     		pushl	$4
 349              		.cfi_def_cfa_offset 40
 350 0032 6A14     		pushl	$20
 351              		.cfi_def_cfa_offset 44
 352 0034 50       		pushl	%eax
 353              		.cfi_def_cfa_offset 48
 354 0035 E8FCFFFF 		call	chPoolObjectInitAligned@PLT
 354      FF
 355              	.LVL26:
 356              		.loc 3 195 3 is_stmt 0 view .LVU84
 357              	.LBE49:
 358              	.LBE55:
 359              		.loc 2 302 3 is_stmt 1 view .LVU85
 360              	.LBB56:
 361              	.LBI56:
 362              		.loc 2 98 20 view .LVU86
 363              	.LBB57:
 364              		.loc 2 100 3 view .LVU87
 365              		.loc 2 100 13 is_stmt 0 view .LVU88
 366 003a 8D4624   		leal	36(%esi), %eax
 367              	.LBE57:
 368              	.LBE56:
 369              	.LBB59:
 370              	.LBB60:
 371              		.loc 3 195 3 view .LVU89
 372 003d 83C420   		addl	$32, %esp
 373              		.cfi_def_cfa_offset 16
 374              	.LBE60:
 375              	.LBE59:
 376              	.LBB62:
 377              	.LBB58:
 378              		.loc 2 100 13 view .LVU90
 379 0040 89832400 		movl	%eax, 36+ch_factory@GOTOFF(%ebx)
 379      0000
 380              	.LVL27:
 381              		.loc 2 100 13 view .LVU91
 382              	.LBE58:
GAS LISTING /tmp/ccoiMs3n.s 			page 8


 383              	.LBE62:
 384              		.loc 2 305 3 is_stmt 1 view .LVU92
 385              	.LBB63:
 386              	.LBI63:
 387              		.loc 2 98 20 view .LVU93
 388              	.LBB64:
 389              		.loc 2 100 3 view .LVU94
 390              		.loc 2 100 13 is_stmt 0 view .LVU95
 391 0046 8D4628   		leal	40(%esi), %eax
 392 0049 89832800 		movl	%eax, 40+ch_factory@GOTOFF(%ebx)
 392      0000
 393              	.LVL28:
 394              		.loc 2 100 13 view .LVU96
 395              	.LBE64:
 396              	.LBE63:
 397              		.loc 2 306 3 is_stmt 1 view .LVU97
 398              	.LBB65:
 399              	.LBI59:
 400              		.loc 3 191 20 view .LVU98
 401              	.LBB61:
 402              		.loc 3 195 3 view .LVU99
 403 004f 8D462C   		leal	44(%esi), %eax
 404 0052 57       		pushl	%edi
 405              		.cfi_def_cfa_offset 20
 406 0053 6A04     		pushl	$4
 407              		.cfi_def_cfa_offset 24
 408 0055 6A1C     		pushl	$28
 409              		.cfi_def_cfa_offset 28
 410 0057 50       		pushl	%eax
 411              		.cfi_def_cfa_offset 32
 412 0058 E8FCFFFF 		call	chPoolObjectInitAligned@PLT
 412      FF
 413              	.LVL29:
 414              		.loc 3 195 3 is_stmt 0 view .LVU100
 415              	.LBE61:
 416              	.LBE65:
 417              		.loc 2 311 3 is_stmt 1 view .LVU101
 418              	.LBB66:
 419              	.LBI66:
 420              		.loc 2 98 20 view .LVU102
 421              	.LBB67:
 422              		.loc 2 100 3 view .LVU103
 423              		.loc 2 100 13 is_stmt 0 view .LVU104
 424 005d 8D463C   		leal	60(%esi), %eax
 425              	.LBE67:
 426              	.LBE66:
 427              		.loc 2 319 1 view .LVU105
 428 0060 83C410   		addl	$16, %esp
 429              		.cfi_def_cfa_offset 16
 430              	.LBB69:
 431              	.LBB68:
 432              		.loc 2 100 13 view .LVU106
 433 0063 89833C00 		movl	%eax, 60+ch_factory@GOTOFF(%ebx)
 433      0000
 434              	.LVL30:
 435              		.loc 2 100 13 view .LVU107
 436              	.LBE68:
GAS LISTING /tmp/ccoiMs3n.s 			page 9


 437              	.LBE69:
 438              		.loc 2 314 3 is_stmt 1 view .LVU108
 439              	.LBB70:
 440              	.LBI70:
 441              		.loc 2 98 20 view .LVU109
 442              	.LBB71:
 443              		.loc 2 100 3 view .LVU110
 444              		.loc 2 100 13 is_stmt 0 view .LVU111
 445 0069 8D4640   		leal	64(%esi), %eax
 446 006c 89834000 		movl	%eax, 64+ch_factory@GOTOFF(%ebx)
 446      0000
 447              	.LVL31:
 448              		.loc 2 100 13 view .LVU112
 449              	.LBE71:
 450              	.LBE70:
 451              		.loc 2 317 3 is_stmt 1 view .LVU113
 452              	.LBB72:
 453              	.LBI72:
 454              		.loc 2 98 20 view .LVU114
 455              	.LBB73:
 456              		.loc 2 100 3 view .LVU115
 457              		.loc 2 100 13 is_stmt 0 view .LVU116
 458 0072 8D4644   		leal	68(%esi), %eax
 459 0075 89834400 		movl	%eax, 68+ch_factory@GOTOFF(%ebx)
 459      0000
 460              	.LVL32:
 461              		.loc 2 100 13 view .LVU117
 462              	.LBE73:
 463              	.LBE72:
 464              		.loc 2 319 1 view .LVU118
 465 007b 5B       		popl	%ebx
 466              		.cfi_restore 3
 467              		.cfi_def_cfa_offset 12
 468 007c 5E       		popl	%esi
 469              		.cfi_restore 6
 470              		.cfi_def_cfa_offset 8
 471 007d 5F       		popl	%edi
 472              		.cfi_restore 7
 473              		.cfi_def_cfa_offset 4
 474 007e C3       		ret
 475              		.cfi_endproc
 476              	.LFE225:
 477              		.size	__factory_init, .-__factory_init
 478              		.section	.text.chFactoryRegisterObject,"ax",@progbits
 479              		.p2align 4
 480              		.globl	chFactoryRegisterObject
 481              		.type	chFactoryRegisterObject, @function
 482              	chFactoryRegisterObject:
 483              	.LVL33:
 484              	.LFB226:
 485              		.loc 2 337 58 is_stmt 1 view -0
 486              		.cfi_startproc
 487              		.loc 2 338 3 view .LVU120
 488              		.loc 2 340 3 view .LVU121
 489              		.loc 2 337 58 is_stmt 0 view .LVU122
 490 0000 55       		pushl	%ebp
 491              		.cfi_def_cfa_offset 8
GAS LISTING /tmp/ccoiMs3n.s 			page 10


 492              		.cfi_offset 5, -8
 493 0001 57       		pushl	%edi
 494              		.cfi_def_cfa_offset 12
 495              		.cfi_offset 7, -12
 496 0002 56       		pushl	%esi
 497              		.cfi_def_cfa_offset 16
 498              		.cfi_offset 6, -16
 499 0003 53       		pushl	%ebx
 500              		.cfi_def_cfa_offset 20
 501              		.cfi_offset 3, -20
 502 0004 E8FCFFFF 		call	__x86.get_pc_thunk.bx
 502      FF
 503 0009 81C30200 		addl	$_GLOBAL_OFFSET_TABLE_, %ebx
 503      0000
 504 000f 83EC28   		subl	$40, %esp
 505              		.cfi_def_cfa_offset 60
 506              		.loc 2 337 58 view .LVU123
 507 0012 8B74243C 		movl	60(%esp), %esi
 508              		.loc 2 340 3 view .LVU124
 509 0016 8D830000 		leal	ch_factory@GOTOFF(%ebx), %eax
 509      0000
 510 001c 89442418 		movl	%eax, 24(%esp)
 511 0020 89C7     		movl	%eax, %edi
 512 0022 50       		pushl	%eax
 513              		.cfi_def_cfa_offset 64
 514 0023 E8FCFFFF 		call	chMtxLock@PLT
 514      FF
 515              	.LVL34:
 516              		.loc 2 342 3 is_stmt 1 view .LVU125
 517              	.LBB82:
 518              	.LBI82:
 519              		.loc 2 203 23 view .LVU126
 520              	.LBB83:
 521              		.loc 2 206 3 view .LVU127
 522              		.loc 2 208 3 view .LVU128
 523              		.loc 2 208 3 view .LVU129
 524              		.loc 2 208 3 view .LVU130
 525              		.loc 2 211 3 view .LVU131
 526              	.LBB84:
 527              	.LBI84:
 528              		.loc 2 103 23 view .LVU132
 529              	.LBB85:
 530              		.loc 2 104 3 view .LVU133
 531              		.loc 2 104 18 is_stmt 0 view .LVU134
 532 0028 8BAB1000 		movl	16+ch_factory@GOTOFF(%ebx), %ebp
 532      0000
 533              	.LVL35:
 534              		.loc 2 106 3 is_stmt 1 view .LVU135
 535              		.loc 2 106 12 view .LVU136
 536 002e 8D4710   		leal	16(%edi), %eax
 537 0031 83C410   		addl	$16, %esp
 538              		.cfi_def_cfa_offset 48
 539 0034 39C5     		cmpl	%eax, %ebp
 540 0036 7448     		je	.L23
 541 0038 8DBB1000 		leal	16+ch_factory@GOTOFF(%ebx), %edi
 541      0000
 542 003e EB07     		jmp	.L25
GAS LISTING /tmp/ccoiMs3n.s 			page 11


 543              		.p2align 4,,10
 544              		.p2align 3
 545              	.L38:
 546              		.loc 2 110 5 view .LVU137
 547              		.loc 2 110 7 is_stmt 0 view .LVU138
 548 0040 8B6D00   		movl	0(%ebp), %ebp
 549              	.LVL36:
 550              		.loc 2 106 12 is_stmt 1 view .LVU139
 551 0043 39FD     		cmpl	%edi, %ebp
 552 0045 7439     		je	.L23
 553              	.L25:
 554              		.loc 2 107 5 view .LVU140
 555              		.loc 2 107 9 is_stmt 0 view .LVU141
 556 0047 83EC04   		subl	$4, %esp
 557              		.cfi_def_cfa_offset 52
 558 004a 8D4508   		leal	8(%ebp), %eax
 559 004d 6A08     		pushl	$8
 560              		.cfi_def_cfa_offset 56
 561 004f 56       		pushl	%esi
 562              		.cfi_def_cfa_offset 60
 563 0050 50       		pushl	%eax
 564              		.cfi_def_cfa_offset 64
 565 0051 E8FCFFFF 		call	strncmp@PLT
 565      FF
 566              	.LVL37:
 567 0056 83C410   		addl	$16, %esp
 568              		.cfi_def_cfa_offset 48
 569              		.loc 2 107 8 view .LVU142
 570 0059 85C0     		testl	%eax, %eax
 571 005b 75E3     		jne	.L38
 572              	.LVL38:
 573              		.loc 2 107 8 view .LVU143
 574              	.LBE85:
 575              	.LBE84:
 576              		.loc 2 212 3 is_stmt 1 view .LVU144
 577              		.loc 2 212 6 is_stmt 0 view .LVU145
 578 005d 85ED     		testl	%ebp, %ebp
 579 005f 741F     		je	.L23
 580              	.LVL39:
 581              	.L27:
 582              		.loc 2 213 12 view .LVU146
 583 0061 31FF     		xorl	%edi, %edi
 584              	.LVL40:
 585              	.L26:
 586              		.loc 2 213 12 view .LVU147
 587              	.LBE83:
 588              	.LBE82:
 589              		.loc 2 350 3 is_stmt 1 view .LVU148
 590 0063 83EC0C   		subl	$12, %esp
 591              		.cfi_def_cfa_offset 60
 592 0066 FF742418 		pushl	24(%esp)
 593              		.cfi_def_cfa_offset 64
 594 006a E8FCFFFF 		call	chMtxUnlock@PLT
 594      FF
 595              	.LVL41:
 596              		.loc 2 352 3 view .LVU149
 597              		.loc 2 353 1 is_stmt 0 view .LVU150
GAS LISTING /tmp/ccoiMs3n.s 			page 12


 598 006f 83C42C   		addl	$44, %esp
 599              		.cfi_def_cfa_offset 20
 600 0072 89F8     		movl	%edi, %eax
 601 0074 5B       		popl	%ebx
 602              		.cfi_restore 3
 603              		.cfi_def_cfa_offset 16
 604 0075 5E       		popl	%esi
 605              		.cfi_restore 6
 606              		.cfi_def_cfa_offset 12
 607 0076 5F       		popl	%edi
 608              		.cfi_restore 7
 609              		.cfi_def_cfa_offset 8
 610 0077 5D       		popl	%ebp
 611              		.cfi_restore 5
 612              		.cfi_def_cfa_offset 4
 613 0078 C3       		ret
 614              	.LVL42:
 615 0079 8DB42600 		.p2align 4,,10
 615      000000
 616              		.p2align 3
 617              	.L23:
 618              		.cfi_def_cfa_offset 48
 619              		.cfi_offset 3, -20
 620              		.cfi_offset 5, -8
 621              		.cfi_offset 6, -16
 622              		.cfi_offset 7, -12
 623              	.LBB94:
 624              	.LBB92:
 625              	.LBB86:
 626              	.LBI86:
 627              		.loc 2 203 23 is_stmt 1 view .LVU151
 628              	.LBB87:
 629              		.loc 2 217 3 view .LVU152
 630              		.loc 2 217 26 is_stmt 0 view .LVU153
 631 0080 83EC0C   		subl	$12, %esp
 632              		.cfi_def_cfa_offset 60
 633 0083 8D831400 		leal	20+ch_factory@GOTOFF(%ebx), %eax
 633      0000
 634 0089 50       		pushl	%eax
 635              		.cfi_def_cfa_offset 64
 636 008a E8FCFFFF 		call	chPoolAlloc@PLT
 636      FF
 637              	.LVL43:
 638              		.loc 2 218 6 view .LVU154
 639 008f 83C410   		addl	$16, %esp
 640              		.cfi_def_cfa_offset 48
 641              		.loc 2 217 26 view .LVU155
 642 0092 89C7     		movl	%eax, %edi
 643              	.LVL44:
 644              		.loc 2 218 3 is_stmt 1 view .LVU156
 645              		.loc 2 218 6 is_stmt 0 view .LVU157
 646 0094 85C0     		testl	%eax, %eax
 647 0096 74C9     		je	.L27
 648 0098 31C0     		xorl	%eax, %eax
 649              	.LVL45:
 650 009a 8DB60000 		.p2align 4,,10
 650      0000
GAS LISTING /tmp/ccoiMs3n.s 			page 13


 651              		.p2align 3
 652              	.L28:
 653              	.LBB88:
 654              	.LBB89:
 655              		.loc 2 91 3 is_stmt 1 view .LVU158
 656              		.loc 2 92 5 view .LVU159
 657              		.loc 2 92 7 is_stmt 0 view .LVU160
 658 00a0 0FB61406 		movzbl	(%esi,%eax), %edx
 659              	.LVL46:
 660              		.loc 2 93 5 is_stmt 1 view .LVU161
 661              		.loc 2 95 15 is_stmt 0 view .LVU162
 662 00a4 84D2     		testb	%dl, %dl
 663              		.loc 2 93 11 view .LVU163
 664 00a6 88540708 		movb	%dl, 8(%edi,%eax)
 665              		.loc 2 94 5 is_stmt 1 view .LVU164
 666              	.LVL47:
 667              		.loc 2 95 27 view .LVU165
 668              		.loc 2 95 15 is_stmt 0 view .LVU166
 669 00aa 0F95C1   		setne	%cl
 670              		.loc 2 95 33 view .LVU167
 671 00ad 83F807   		cmpl	$7, %eax
 672 00b0 0F95C2   		setne	%dl
 673              	.LVL48:
 674              		.loc 2 95 27 view .LVU168
 675 00b3 83C001   		addl	$1, %eax
 676              	.LVL49:
 677              		.loc 2 95 27 view .LVU169
 678 00b6 84D1     		testb	%dl, %cl
 679 00b8 75E6     		jne	.L28
 680              	.LVL50:
 681              		.loc 2 95 27 view .LVU170
 682              	.LBE89:
 683              	.LBE88:
 684              		.loc 2 224 3 is_stmt 1 view .LVU171
 685              		.loc 2 225 13 is_stmt 0 view .LVU172
 686 00ba 8B831000 		movl	16+ch_factory@GOTOFF(%ebx), %eax
 686      0000
 687              		.loc 2 224 13 view .LVU173
 688 00c0 C7470401 		movl	$1, 4(%edi)
 688      000000
 689              		.loc 2 225 3 is_stmt 1 view .LVU174
 690              		.loc 2 225 13 is_stmt 0 view .LVU175
 691 00c7 8907     		movl	%eax, (%edi)
 692              		.loc 2 228 3 is_stmt 1 view .LVU176
 693              	.LBE87:
 694              	.LBE86:
 695              	.LBE92:
 696              	.LBE94:
 697              		.loc 2 347 15 is_stmt 0 view .LVU177
 698 00c9 8B442434 		movl	52(%esp), %eax
 699              	.LBB95:
 700              	.LBB93:
 701              	.LBB91:
 702              	.LBB90:
 703              		.loc 2 228 13 view .LVU178
 704 00cd 89BB1000 		movl	%edi, 16+ch_factory@GOTOFF(%ebx)
 704      0000
GAS LISTING /tmp/ccoiMs3n.s 			page 14


 705              		.loc 2 230 3 is_stmt 1 view .LVU179
 706              	.LVL51:
 707              		.loc 2 230 3 is_stmt 0 view .LVU180
 708              	.LBE90:
 709              	.LBE91:
 710              	.LBE93:
 711              	.LBE95:
 712              		.loc 2 345 3 is_stmt 1 view .LVU181
 713              		.loc 2 347 5 view .LVU182
 714              		.loc 2 347 15 is_stmt 0 view .LVU183
 715 00d3 894710   		movl	%eax, 16(%edi)
 716 00d6 EB8B     		jmp	.L26
 717              		.cfi_endproc
 718              	.LFE226:
 719              		.size	chFactoryRegisterObject, .-chFactoryRegisterObject
 720              		.section	.text.chFactoryFindObject,"ax",@progbits
 721              		.p2align 4
 722              		.globl	chFactoryFindObject
 723              		.type	chFactoryFindObject, @function
 724              	chFactoryFindObject:
 725              	.LVL52:
 726              	.LFB227:
 727              		.loc 2 368 60 is_stmt 1 view -0
 728              		.cfi_startproc
 729              		.loc 2 369 3 view .LVU185
 730              		.loc 2 371 3 view .LVU186
 731              		.loc 2 368 60 is_stmt 0 view .LVU187
 732 0000 55       		pushl	%ebp
 733              		.cfi_def_cfa_offset 8
 734              		.cfi_offset 5, -8
 735 0001 57       		pushl	%edi
 736              		.cfi_def_cfa_offset 12
 737              		.cfi_offset 7, -12
 738 0002 56       		pushl	%esi
 739              		.cfi_def_cfa_offset 16
 740              		.cfi_offset 6, -16
 741 0003 53       		pushl	%ebx
 742              		.cfi_def_cfa_offset 20
 743              		.cfi_offset 3, -20
 744 0004 E8FCFFFF 		call	__x86.get_pc_thunk.bx
 744      FF
 745 0009 81C30200 		addl	$_GLOBAL_OFFSET_TABLE_, %ebx
 745      0000
 746 000f 83EC28   		subl	$40, %esp
 747              		.cfi_def_cfa_offset 60
 748              		.loc 2 368 60 view .LVU188
 749 0012 8B74243C 		movl	60(%esp), %esi
 750              		.loc 2 371 3 view .LVU189
 751 0016 8D830000 		leal	ch_factory@GOTOFF(%ebx), %eax
 751      0000
 752 001c 89442418 		movl	%eax, 24(%esp)
 753 0020 89C7     		movl	%eax, %edi
 754 0022 50       		pushl	%eax
 755              		.cfi_def_cfa_offset 64
 756 0023 E8FCFFFF 		call	chMtxLock@PLT
 756      FF
 757              	.LVL53:
GAS LISTING /tmp/ccoiMs3n.s 			page 15


 758              		.loc 2 373 3 is_stmt 1 view .LVU190
 759              	.LBB100:
 760              	.LBI100:
 761              		.loc 2 263 23 view .LVU191
 762              	.LBB101:
 763              		.loc 2 264 3 view .LVU192
 764              		.loc 2 266 3 view .LVU193
 765              		.loc 2 266 3 view .LVU194
 766              		.loc 2 266 3 view .LVU195
 767              		.loc 2 269 3 view .LVU196
 768              	.LBB102:
 769              	.LBI102:
 770              		.loc 2 103 23 view .LVU197
 771              	.LBB103:
 772              		.loc 2 104 3 view .LVU198
 773              		.loc 2 104 18 is_stmt 0 view .LVU199
 774 0028 8BAB1000 		movl	16+ch_factory@GOTOFF(%ebx), %ebp
 774      0000
 775              	.LVL54:
 776              		.loc 2 106 3 is_stmt 1 view .LVU200
 777              		.loc 2 106 12 view .LVU201
 778 002e 8D4710   		leal	16(%edi), %eax
 779 0031 83C410   		addl	$16, %esp
 780              		.cfi_def_cfa_offset 48
 781 0034 39C5     		cmpl	%eax, %ebp
 782 0036 7448     		je	.L44
 783 0038 8DBB1000 		leal	16+ch_factory@GOTOFF(%ebx), %edi
 783      0000
 784 003e EB07     		jmp	.L43
 785              		.p2align 4,,10
 786              		.p2align 3
 787              	.L41:
 788              		.loc 2 110 5 view .LVU202
 789              		.loc 2 110 7 is_stmt 0 view .LVU203
 790 0040 8B6D00   		movl	0(%ebp), %ebp
 791              	.LVL55:
 792              		.loc 2 106 12 is_stmt 1 view .LVU204
 793 0043 39FD     		cmpl	%edi, %ebp
 794 0045 7439     		je	.L44
 795              	.L43:
 796              		.loc 2 107 5 view .LVU205
 797              		.loc 2 107 9 is_stmt 0 view .LVU206
 798 0047 83EC04   		subl	$4, %esp
 799              		.cfi_def_cfa_offset 52
 800 004a 8D4508   		leal	8(%ebp), %eax
 801 004d 6A08     		pushl	$8
 802              		.cfi_def_cfa_offset 56
 803 004f 56       		pushl	%esi
 804              		.cfi_def_cfa_offset 60
 805 0050 50       		pushl	%eax
 806              		.cfi_def_cfa_offset 64
 807 0051 E8FCFFFF 		call	strncmp@PLT
 807      FF
 808              	.LVL56:
 809 0056 83C410   		addl	$16, %esp
 810              		.cfi_def_cfa_offset 48
 811              		.loc 2 107 8 view .LVU207
GAS LISTING /tmp/ccoiMs3n.s 			page 16


 812 0059 85C0     		testl	%eax, %eax
 813 005b 75E3     		jne	.L41
 814              		.loc 2 108 7 is_stmt 1 view .LVU208
 815              	.LVL57:
 816              		.loc 2 108 7 is_stmt 0 view .LVU209
 817              	.LBE103:
 818              	.LBE102:
 819              		.loc 2 270 3 is_stmt 1 view .LVU210
 820              		.loc 2 270 6 is_stmt 0 view .LVU211
 821 005d 85ED     		testl	%ebp, %ebp
 822 005f 7404     		je	.L40
 823              		.loc 2 272 5 is_stmt 1 view .LVU212
 824              		.loc 2 272 14 is_stmt 0 view .LVU213
 825 0061 83450401 		addl	$1, 4(%ebp)
 826              	.LVL58:
 827              	.L40:
 828              		.loc 2 275 3 is_stmt 1 view .LVU214
 829              		.loc 2 275 3 is_stmt 0 view .LVU215
 830              	.LBE101:
 831              	.LBE100:
 832              		.loc 2 375 3 is_stmt 1 view .LVU216
 833 0065 83EC0C   		subl	$12, %esp
 834              		.cfi_def_cfa_offset 60
 835 0068 FF742418 		pushl	24(%esp)
 836              		.cfi_def_cfa_offset 64
 837 006c E8FCFFFF 		call	chMtxUnlock@PLT
 837      FF
 838              	.LVL59:
 839              		.loc 2 377 3 view .LVU217
 840              		.loc 2 378 1 is_stmt 0 view .LVU218
 841 0071 83C42C   		addl	$44, %esp
 842              		.cfi_def_cfa_offset 20
 843 0074 89E8     		movl	%ebp, %eax
 844 0076 5B       		popl	%ebx
 845              		.cfi_restore 3
 846              		.cfi_def_cfa_offset 16
 847 0077 5E       		popl	%esi
 848              		.cfi_restore 6
 849              		.cfi_def_cfa_offset 12
 850 0078 5F       		popl	%edi
 851              		.cfi_restore 7
 852              		.cfi_def_cfa_offset 8
 853 0079 5D       		popl	%ebp
 854              		.cfi_restore 5
 855              		.cfi_def_cfa_offset 4
 856              	.LVL60:
 857              		.loc 2 378 1 view .LVU219
 858 007a C3       		ret
 859              	.LVL61:
 860 007b 8D742600 		.p2align 4,,10
 860      90
 861              		.p2align 3
 862              	.L44:
 863              		.cfi_def_cfa_offset 48
 864              		.cfi_offset 3, -20
 865              		.cfi_offset 5, -8
 866              		.cfi_offset 6, -16
GAS LISTING /tmp/ccoiMs3n.s 			page 17


 867              		.cfi_offset 7, -12
 868              	.LBB107:
 869              	.LBB106:
 870              	.LBB105:
 871              	.LBB104:
 872              		.loc 2 113 10 view .LVU220
 873 0080 31ED     		xorl	%ebp, %ebp
 874              	.LVL62:
 875              		.loc 2 113 10 view .LVU221
 876 0082 EBE1     		jmp	.L40
 877              	.LBE104:
 878              	.LBE105:
 879              	.LBE106:
 880              	.LBE107:
 881              		.cfi_endproc
 882              	.LFE227:
 883              		.size	chFactoryFindObject, .-chFactoryFindObject
 884              		.section	.text.chFactoryFindObjectByPointer,"ax",@progbits
 885              		.p2align 4
 886              		.globl	chFactoryFindObjectByPointer
 887              		.type	chFactoryFindObjectByPointer, @function
 888              	chFactoryFindObjectByPointer:
 889              	.LVL63:
 890              	.LFB228:
 891              		.loc 2 393 63 is_stmt 1 view -0
 892              		.cfi_startproc
 893              		.loc 2 394 3 view .LVU223
 894              		.loc 2 393 63 is_stmt 0 view .LVU224
 895 0000 55       		pushl	%ebp
 896              		.cfi_def_cfa_offset 8
 897              		.cfi_offset 5, -8
 898 0001 57       		pushl	%edi
 899              		.cfi_def_cfa_offset 12
 900              		.cfi_offset 7, -12
 901 0002 56       		pushl	%esi
 902              		.cfi_def_cfa_offset 16
 903              		.cfi_offset 6, -16
 904 0003 53       		pushl	%ebx
 905              		.cfi_def_cfa_offset 20
 906              		.cfi_offset 3, -20
 907 0004 E8FCFFFF 		call	__x86.get_pc_thunk.bx
 907      FF
 908 0009 81C30200 		addl	$_GLOBAL_OFFSET_TABLE_, %ebx
 908      0000
 909 000f 83EC18   		subl	$24, %esp
 910              		.cfi_def_cfa_offset 44
 911              		.loc 2 393 63 view .LVU225
 912 0012 8B7C242C 		movl	44(%esp), %edi
 913              		.loc 2 396 3 view .LVU226
 914 0016 8DAB0000 		leal	ch_factory@GOTOFF(%ebx), %ebp
 914      0000
 915              		.loc 2 394 24 view .LVU227
 916 001c 8BB31000 		movl	16+ch_factory@GOTOFF(%ebx), %esi
 916      0000
 917              	.LVL64:
 918              		.loc 2 396 3 is_stmt 1 view .LVU228
 919 0022 55       		pushl	%ebp
GAS LISTING /tmp/ccoiMs3n.s 			page 18


 920              		.cfi_def_cfa_offset 48
 921 0023 E8FCFFFF 		call	chMtxLock@PLT
 921      FF
 922              	.LVL65:
 923              		.loc 2 398 3 view .LVU229
 924              		.loc 2 398 22 view .LVU230
 925 0028 8D4510   		leal	16(%ebp), %eax
 926 002b 83C410   		addl	$16, %esp
 927              		.cfi_def_cfa_offset 32
 928 002e 39C6     		cmpl	%eax, %esi
 929 0030 7436     		je	.L48
 930 0032 8D831000 		leal	16+ch_factory@GOTOFF(%ebx), %eax
 930      0000
 931 0038 EB0C     		jmp	.L51
 932 003a 8DB60000 		.p2align 4,,10
 932      0000
 933              		.p2align 3
 934              	.L49:
 935              		.loc 2 406 5 view .LVU231
 936              		.loc 2 406 9 is_stmt 0 view .LVU232
 937 0040 8B36     		movl	(%esi), %esi
 938              	.LVL66:
 939              		.loc 2 398 22 is_stmt 1 view .LVU233
 940 0042 39C6     		cmpl	%eax, %esi
 941 0044 7422     		je	.L48
 942              	.L51:
 943              		.loc 2 399 5 view .LVU234
 944              		.loc 2 399 8 is_stmt 0 view .LVU235
 945 0046 397E10   		cmpl	%edi, 16(%esi)
 946 0049 75F5     		jne	.L49
 947              		.loc 2 400 7 is_stmt 1 view .LVU236
 948              		.loc 2 400 24 is_stmt 0 view .LVU237
 949 004b 83460401 		addl	$1, 4(%esi)
 950              		.loc 2 402 7 is_stmt 1 view .LVU238
 951 004f 83EC0C   		subl	$12, %esp
 952              		.cfi_def_cfa_offset 44
 953 0052 55       		pushl	%ebp
 954              		.cfi_def_cfa_offset 48
 955 0053 E8FCFFFF 		call	chMtxUnlock@PLT
 955      FF
 956              	.LVL67:
 957              		.loc 2 404 7 view .LVU239
 958              		.loc 2 404 14 is_stmt 0 view .LVU240
 959 0058 83C410   		addl	$16, %esp
 960              		.cfi_def_cfa_offset 32
 961              		.loc 2 412 1 view .LVU241
 962 005b 89F0     		movl	%esi, %eax
 963 005d 83C40C   		addl	$12, %esp
 964              		.cfi_remember_state
 965              		.cfi_def_cfa_offset 20
 966 0060 5B       		popl	%ebx
 967              		.cfi_restore 3
 968              		.cfi_def_cfa_offset 16
 969 0061 5E       		popl	%esi
 970              		.cfi_restore 6
 971              		.cfi_def_cfa_offset 12
 972              	.LVL68:
GAS LISTING /tmp/ccoiMs3n.s 			page 19


 973              		.loc 2 412 1 view .LVU242
 974 0062 5F       		popl	%edi
 975              		.cfi_restore 7
 976              		.cfi_def_cfa_offset 8
 977 0063 5D       		popl	%ebp
 978              		.cfi_restore 5
 979              		.cfi_def_cfa_offset 4
 980 0064 C3       		ret
 981              	.LVL69:
 982              		.p2align 4,,10
 983 0065 8D7600   		.p2align 3
 984              	.L48:
 985              		.cfi_restore_state
 986              		.loc 2 409 3 is_stmt 1 view .LVU243
 987 0068 83EC0C   		subl	$12, %esp
 988              		.cfi_def_cfa_offset 44
 989              		.loc 2 411 10 is_stmt 0 view .LVU244
 990 006b 31F6     		xorl	%esi, %esi
 991              	.LVL70:
 992              		.loc 2 409 3 view .LVU245
 993 006d 55       		pushl	%ebp
 994              		.cfi_def_cfa_offset 48
 995 006e E8FCFFFF 		call	chMtxUnlock@PLT
 995      FF
 996              	.LVL71:
 997              		.loc 2 411 3 is_stmt 1 view .LVU246
 998              		.loc 2 411 10 is_stmt 0 view .LVU247
 999 0073 83C410   		addl	$16, %esp
 1000              		.cfi_def_cfa_offset 32
 1001              		.loc 2 412 1 view .LVU248
 1002 0076 89F0     		movl	%esi, %eax
 1003 0078 83C40C   		addl	$12, %esp
 1004              		.cfi_def_cfa_offset 20
 1005 007b 5B       		popl	%ebx
 1006              		.cfi_restore 3
 1007              		.cfi_def_cfa_offset 16
 1008 007c 5E       		popl	%esi
 1009              		.cfi_restore 6
 1010              		.cfi_def_cfa_offset 12
 1011 007d 5F       		popl	%edi
 1012              		.cfi_restore 7
 1013              		.cfi_def_cfa_offset 8
 1014 007e 5D       		popl	%ebp
 1015              		.cfi_restore 5
 1016              		.cfi_def_cfa_offset 4
 1017 007f C3       		ret
 1018              		.cfi_endproc
 1019              	.LFE228:
 1020              		.size	chFactoryFindObjectByPointer, .-chFactoryFindObjectByPointer
 1021              		.section	.text.chFactoryReleaseObject,"ax",@progbits
 1022              		.p2align 4
 1023              		.globl	chFactoryReleaseObject
 1024              		.type	chFactoryReleaseObject, @function
 1025              	chFactoryReleaseObject:
 1026              	.LVL72:
 1027              	.LFB229:
 1028              		.loc 2 430 57 is_stmt 1 view -0
GAS LISTING /tmp/ccoiMs3n.s 			page 20


 1029              		.cfi_startproc
 1030              		.loc 2 431 3 view .LVU250
 1031              		.loc 2 433 3 view .LVU251
 1032              		.loc 2 430 57 is_stmt 0 view .LVU252
 1033 0000 55       		pushl	%ebp
 1034              		.cfi_def_cfa_offset 8
 1035              		.cfi_offset 5, -8
 1036 0001 57       		pushl	%edi
 1037              		.cfi_def_cfa_offset 12
 1038              		.cfi_offset 7, -12
 1039 0002 56       		pushl	%esi
 1040              		.cfi_def_cfa_offset 16
 1041              		.cfi_offset 6, -16
 1042 0003 53       		pushl	%ebx
 1043              		.cfi_def_cfa_offset 20
 1044              		.cfi_offset 3, -20
 1045 0004 E8FCFFFF 		call	__x86.get_pc_thunk.bx
 1045      FF
 1046 0009 81C30200 		addl	$_GLOBAL_OFFSET_TABLE_, %ebx
 1046      0000
 1047 000f 83EC18   		subl	$24, %esp
 1048              		.cfi_def_cfa_offset 44
 1049              		.loc 2 430 57 view .LVU253
 1050 0012 8B74242C 		movl	44(%esp), %esi
 1051              		.loc 2 433 3 view .LVU254
 1052 0016 8DBB0000 		leal	ch_factory@GOTOFF(%ebx), %edi
 1052      0000
 1053 001c 57       		pushl	%edi
 1054              		.cfi_def_cfa_offset 48
 1055 001d E8FCFFFF 		call	chMtxLock@PLT
 1055      FF
 1056              	.LVL73:
 1057              		.loc 2 435 3 is_stmt 1 view .LVU255
 1058              	.LBB114:
 1059              	.LBI114:
 1060              		.loc 2 233 15 view .LVU256
 1061              	.LBB115:
 1062              		.loc 2 236 3 view .LVU257
 1063              		.loc 2 237 3 view .LVU258
 1064              		.loc 2 239 3 view .LVU259
 1065              		.loc 2 239 3 view .LVU260
 1066              		.loc 2 239 3 view .LVU261
 1067              		.loc 2 242 3 view .LVU262
 1068              	.LBB116:
 1069              	.LBI116:
 1070              		.loc 2 116 23 view .LVU263
 1071              	.LBB117:
 1072              		.loc 2 118 3 view .LVU264
 1073              		.loc 2 121 3 view .LVU265
 1074              		.loc 2 121 9 is_stmt 0 view .LVU266
 1075 0022 83C410   		addl	$16, %esp
 1076              		.cfi_def_cfa_offset 32
 1077              		.loc 2 118 18 view .LVU267
 1078 0025 8D4710   		leal	16(%edi), %eax
 1079 0028 8D931000 		leal	16+ch_factory@GOTOFF(%ebx), %edx
 1079      0000
 1080              		.loc 2 121 9 view .LVU268
GAS LISTING /tmp/ccoiMs3n.s 			page 21


 1081 002e EB04     		jmp	.L55
 1082              	.LVL74:
 1083              		.p2align 4,,10
 1084              		.p2align 3
 1085              	.L57:
 1086              		.loc 2 122 5 is_stmt 1 view .LVU269
 1087              		.loc 2 122 8 is_stmt 0 view .LVU270
 1088 0030 39C6     		cmpl	%eax, %esi
 1089 0032 7424     		je	.L56
 1090              	.LVL75:
 1091              	.L55:
 1092              		.loc 2 121 21 is_stmt 1 view .LVU271
 1093 0034 89C1     		movl	%eax, %ecx
 1094              		.loc 2 121 14 is_stmt 0 view .LVU272
 1095 0036 8B00     		movl	(%eax), %eax
 1096              	.LVL76:
 1097              		.loc 2 121 21 view .LVU273
 1098 0038 39D0     		cmpl	%edx, %eax
 1099 003a 75F4     		jne	.L57
 1100              	.LBE117:
 1101              	.LBE116:
 1102              		.loc 2 256 10 view .LVU274
 1103 003c 31ED     		xorl	%ebp, %ebp
 1104              	.LVL77:
 1105              	.L58:
 1106              		.loc 2 259 3 is_stmt 1 view .LVU275
 1107              		.loc 2 259 3 is_stmt 0 view .LVU276
 1108              	.LBE115:
 1109              	.LBE114:
 1110              		.loc 2 439 3 is_stmt 1 view .LVU277
 1111 003e 83EC0C   		subl	$12, %esp
 1112              		.cfi_def_cfa_offset 44
 1113 0041 57       		pushl	%edi
 1114              		.cfi_def_cfa_offset 48
 1115 0042 E8FCFFFF 		call	chMtxUnlock@PLT
 1115      FF
 1116              	.LVL78:
 1117              		.loc 2 441 3 view .LVU278
 1118              		.loc 2 442 1 is_stmt 0 view .LVU279
 1119 0047 83C41C   		addl	$28, %esp
 1120              		.cfi_def_cfa_offset 20
 1121 004a 89E8     		movl	%ebp, %eax
 1122 004c 5B       		popl	%ebx
 1123              		.cfi_restore 3
 1124              		.cfi_def_cfa_offset 16
 1125 004d 5E       		popl	%esi
 1126              		.cfi_restore 6
 1127              		.cfi_def_cfa_offset 12
 1128 004e 5F       		popl	%edi
 1129              		.cfi_restore 7
 1130              		.cfi_def_cfa_offset 8
 1131 004f 5D       		popl	%ebp
 1132              		.cfi_restore 5
 1133              		.cfi_def_cfa_offset 4
 1134              	.LVL79:
 1135              		.loc 2 442 1 view .LVU280
 1136 0050 C3       		ret
GAS LISTING /tmp/ccoiMs3n.s 			page 22


 1137              	.LVL80:
 1138              		.p2align 4,,10
 1139 0051 8DB42600 		.p2align 3
 1139      000000
 1140              	.L56:
 1141              		.cfi_def_cfa_offset 32
 1142              		.cfi_offset 3, -20
 1143              		.cfi_offset 5, -8
 1144              		.cfi_offset 6, -16
 1145              		.cfi_offset 7, -12
 1146              	.LBB123:
 1147              	.LBB122:
 1148              		.loc 2 243 3 is_stmt 1 view .LVU281
 1149              		.loc 2 245 5 view .LVU282
 1150              		.loc 2 245 5 view .LVU283
 1151              		.loc 2 245 5 view .LVU284
 1152              		.loc 2 247 5 view .LVU285
 1153              		.loc 2 247 12 is_stmt 0 view .LVU286
 1154 0058 8B4604   		movl	4(%esi), %eax
 1155 005b 8D68FF   		leal	-1(%eax), %ebp
 1156              		.loc 2 247 10 view .LVU287
 1157 005e 896E04   		movl	%ebp, 4(%esi)
 1158              	.LVL81:
 1159              		.loc 2 248 5 is_stmt 1 view .LVU288
 1160              		.loc 2 248 8 is_stmt 0 view .LVU289
 1161 0061 85ED     		testl	%ebp, %ebp
 1162 0063 75D9     		jne	.L58
 1163              		.loc 2 249 7 is_stmt 1 view .LVU290
 1164              	.LVL82:
 1165              	.LBB118:
 1166              	.LBI118:
 1167              		.loc 2 133 23 view .LVU291
 1168              	.LBB119:
 1169              		.loc 2 134 3 view .LVU292
 1170              		.loc 2 136 3 view .LVU293
 1171              		.loc 2 136 23 is_stmt 0 view .LVU294
 1172 0065 8B06     		movl	(%esi), %eax
 1173              	.LBE119:
 1174              	.LBE118:
 1175              		.loc 2 249 7 view .LVU295
 1176 0067 83EC08   		subl	$8, %esp
 1177              		.cfi_def_cfa_offset 40
 1178              	.LBB121:
 1179              	.LBB120:
 1180              		.loc 2 136 14 view .LVU296
 1181 006a 8901     		movl	%eax, (%ecx)
 1182              		.loc 2 138 3 is_stmt 1 view .LVU297
 1183              	.LVL83:
 1184              		.loc 2 138 3 is_stmt 0 view .LVU298
 1185              	.LBE120:
 1186              	.LBE121:
 1187              		.loc 2 249 7 view .LVU299
 1188 006c 8D4204   		leal	4(%edx), %eax
 1189 006f 56       		pushl	%esi
 1190              		.cfi_def_cfa_offset 44
 1191 0070 50       		pushl	%eax
 1192              		.cfi_def_cfa_offset 48
GAS LISTING /tmp/ccoiMs3n.s 			page 23


 1193 0071 E8FCFFFF 		call	chPoolFree@PLT
 1193      FF
 1194              	.LVL84:
 1195              		.loc 2 249 7 view .LVU300
 1196 0076 83C410   		addl	$16, %esp
 1197              		.cfi_def_cfa_offset 32
 1198 0079 EBC3     		jmp	.L58
 1199              	.LBE122:
 1200              	.LBE123:
 1201              		.cfi_endproc
 1202              	.LFE229:
 1203              		.size	chFactoryReleaseObject, .-chFactoryReleaseObject
 1204              		.section	.text.chFactoryCreateBuffer,"ax",@progbits
 1205              		.p2align 4
 1206              		.globl	chFactoryCreateBuffer
 1207              		.type	chFactoryCreateBuffer, @function
 1208              	chFactoryCreateBuffer:
 1209              	.LVL85:
 1210              	.LFB230:
 1211              		.loc 2 461 68 is_stmt 1 view -0
 1212              		.cfi_startproc
 1213              		.loc 2 462 3 view .LVU302
 1214              		.loc 2 464 3 view .LVU303
 1215              		.loc 2 461 68 is_stmt 0 view .LVU304
 1216 0000 55       		pushl	%ebp
 1217              		.cfi_def_cfa_offset 8
 1218              		.cfi_offset 5, -8
 1219 0001 57       		pushl	%edi
 1220              		.cfi_def_cfa_offset 12
 1221              		.cfi_offset 7, -12
 1222 0002 56       		pushl	%esi
 1223              		.cfi_def_cfa_offset 16
 1224              		.cfi_offset 6, -16
 1225 0003 53       		pushl	%ebx
 1226              		.cfi_def_cfa_offset 20
 1227              		.cfi_offset 3, -20
 1228 0004 E8FCFFFF 		call	__x86.get_pc_thunk.bx
 1228      FF
 1229 0009 81C30200 		addl	$_GLOBAL_OFFSET_TABLE_, %ebx
 1229      0000
 1230 000f 83EC18   		subl	$24, %esp
 1231              		.cfi_def_cfa_offset 44
 1232              		.loc 2 461 68 view .LVU305
 1233 0012 8B6C2430 		movl	48(%esp), %ebp
 1234              		.loc 2 464 3 view .LVU306
 1235 0016 8DBB0000 		leal	ch_factory@GOTOFF(%ebx), %edi
 1235      0000
 1236 001c 57       		pushl	%edi
 1237              		.cfi_def_cfa_offset 48
 1238 001d E8FCFFFF 		call	chMtxLock@PLT
 1238      FF
 1239              	.LVL86:
 1240              		.loc 2 466 3 is_stmt 1 view .LVU307
 1241              		.loc 2 466 25 is_stmt 0 view .LVU308
 1242 0022 8B442430 		movl	48(%esp), %eax
 1243 0026 8D4D10   		leal	16(%ebp), %ecx
 1244 0029 8D932400 		leal	36+ch_factory@GOTOFF(%ebx), %edx
GAS LISTING /tmp/ccoiMs3n.s 			page 24


 1244      0000
 1245 002f C7042408 		movl	$8, (%esp)
 1245      000000
 1246 0036 E8FCFFFF 		call	dyn_create_object_heap
 1246      FF
 1247              	.LVL87:
 1248              		.loc 2 470 6 view .LVU309
 1249 003b 83C410   		addl	$16, %esp
 1250              		.cfi_def_cfa_offset 32
 1251              		.loc 2 466 25 view .LVU310
 1252 003e 89C6     		movl	%eax, %esi
 1253              	.LVL88:
 1254              		.loc 2 470 3 is_stmt 1 view .LVU311
 1255              		.loc 2 470 6 is_stmt 0 view .LVU312
 1256 0040 85C0     		testl	%eax, %eax
 1257 0042 7412     		je	.L63
 1258              		.loc 2 472 5 is_stmt 1 view .LVU313
 1259              	.LVL89:
 1260              	.LBB124:
 1261              	.LBI124:
 1262              		.file 4 "/usr/include/bits/string_fortified.h"
 1263              		.loc 4 57 1 view .LVU314
 1264              	.LBB125:
 1265              		.loc 4 59 3 view .LVU315
 1266              		.loc 4 59 10 is_stmt 0 view .LVU316
 1267 0044 83EC04   		subl	$4, %esp
 1268              		.cfi_def_cfa_offset 36
 1269              	.LBE125:
 1270              	.LBE124:
 1271              		.loc 2 472 25 view .LVU317
 1272 0047 8D4010   		leal	16(%eax), %eax
 1273              	.LVL90:
 1274              	.LBB127:
 1275              	.LBB126:
 1276              		.loc 4 59 10 view .LVU318
 1277 004a 55       		pushl	%ebp
 1278              		.cfi_def_cfa_offset 40
 1279 004b 6A00     		pushl	$0
 1280              		.cfi_def_cfa_offset 44
 1281 004d 50       		pushl	%eax
 1282              		.cfi_def_cfa_offset 48
 1283 004e E8FCFFFF 		call	memset@PLT
 1283      FF
 1284              	.LVL91:
 1285              		.loc 4 59 10 view .LVU319
 1286 0053 83C410   		addl	$16, %esp
 1287              		.cfi_def_cfa_offset 32
 1288              	.LVL92:
 1289              	.L63:
 1290              		.loc 4 59 10 view .LVU320
 1291              	.LBE126:
 1292              	.LBE127:
 1293              		.loc 2 475 3 is_stmt 1 view .LVU321
 1294 0056 83EC0C   		subl	$12, %esp
 1295              		.cfi_def_cfa_offset 44
 1296 0059 57       		pushl	%edi
 1297              		.cfi_def_cfa_offset 48
GAS LISTING /tmp/ccoiMs3n.s 			page 25


 1298 005a E8FCFFFF 		call	chMtxUnlock@PLT
 1298      FF
 1299              	.LVL93:
 1300              		.loc 2 477 3 view .LVU322
 1301              		.loc 2 478 1 is_stmt 0 view .LVU323
 1302 005f 83C41C   		addl	$28, %esp
 1303              		.cfi_def_cfa_offset 20
 1304 0062 89F0     		movl	%esi, %eax
 1305 0064 5B       		popl	%ebx
 1306              		.cfi_restore 3
 1307              		.cfi_def_cfa_offset 16
 1308 0065 5E       		popl	%esi
 1309              		.cfi_restore 6
 1310              		.cfi_def_cfa_offset 12
 1311              	.LVL94:
 1312              		.loc 2 478 1 view .LVU324
 1313 0066 5F       		popl	%edi
 1314              		.cfi_restore 7
 1315              		.cfi_def_cfa_offset 8
 1316 0067 5D       		popl	%ebp
 1317              		.cfi_restore 5
 1318              		.cfi_def_cfa_offset 4
 1319 0068 C3       		ret
 1320              		.cfi_endproc
 1321              	.LFE230:
 1322              		.size	chFactoryCreateBuffer, .-chFactoryCreateBuffer
 1323              		.section	.text.chFactoryFindBuffer,"ax",@progbits
 1324              		.p2align 4
 1325              		.globl	chFactoryFindBuffer
 1326              		.type	chFactoryFindBuffer, @function
 1327              	chFactoryFindBuffer:
 1328              	.LVL95:
 1329              	.LFB231:
 1330              		.loc 2 493 53 is_stmt 1 view -0
 1331              		.cfi_startproc
 1332              		.loc 2 494 3 view .LVU326
 1333              		.loc 2 496 3 view .LVU327
 1334              		.loc 2 493 53 is_stmt 0 view .LVU328
 1335 0000 55       		pushl	%ebp
 1336              		.cfi_def_cfa_offset 8
 1337              		.cfi_offset 5, -8
 1338 0001 57       		pushl	%edi
 1339              		.cfi_def_cfa_offset 12
 1340              		.cfi_offset 7, -12
 1341 0002 56       		pushl	%esi
 1342              		.cfi_def_cfa_offset 16
 1343              		.cfi_offset 6, -16
 1344 0003 53       		pushl	%ebx
 1345              		.cfi_def_cfa_offset 20
 1346              		.cfi_offset 3, -20
 1347 0004 E8FCFFFF 		call	__x86.get_pc_thunk.bx
 1347      FF
 1348 0009 81C30200 		addl	$_GLOBAL_OFFSET_TABLE_, %ebx
 1348      0000
 1349 000f 83EC28   		subl	$40, %esp
 1350              		.cfi_def_cfa_offset 60
 1351              		.loc 2 493 53 view .LVU329
GAS LISTING /tmp/ccoiMs3n.s 			page 26


 1352 0012 8B74243C 		movl	60(%esp), %esi
 1353              		.loc 2 496 3 view .LVU330
 1354 0016 8D830000 		leal	ch_factory@GOTOFF(%ebx), %eax
 1354      0000
 1355 001c 89442418 		movl	%eax, 24(%esp)
 1356 0020 89C7     		movl	%eax, %edi
 1357 0022 50       		pushl	%eax
 1358              		.cfi_def_cfa_offset 64
 1359 0023 E8FCFFFF 		call	chMtxLock@PLT
 1359      FF
 1360              	.LVL96:
 1361              		.loc 2 498 3 is_stmt 1 view .LVU331
 1362              	.LBB132:
 1363              	.LBI132:
 1364              		.loc 2 263 23 view .LVU332
 1365              	.LBB133:
 1366              		.loc 2 264 3 view .LVU333
 1367              		.loc 2 266 3 view .LVU334
 1368              		.loc 2 266 3 view .LVU335
 1369              		.loc 2 266 3 view .LVU336
 1370              		.loc 2 269 3 view .LVU337
 1371              	.LBB134:
 1372              	.LBI134:
 1373              		.loc 2 103 23 view .LVU338
 1374              	.LBB135:
 1375              		.loc 2 104 3 view .LVU339
 1376              		.loc 2 104 18 is_stmt 0 view .LVU340
 1377 0028 8BAB2400 		movl	36+ch_factory@GOTOFF(%ebx), %ebp
 1377      0000
 1378              	.LVL97:
 1379              		.loc 2 106 3 is_stmt 1 view .LVU341
 1380              		.loc 2 106 12 view .LVU342
 1381 002e 8D4724   		leal	36(%edi), %eax
 1382 0031 83C410   		addl	$16, %esp
 1383              		.cfi_def_cfa_offset 48
 1384 0034 39C5     		cmpl	%eax, %ebp
 1385 0036 7448     		je	.L73
 1386 0038 8DBB2400 		leal	36+ch_factory@GOTOFF(%ebx), %edi
 1386      0000
 1387 003e EB07     		jmp	.L72
 1388              		.p2align 4,,10
 1389              		.p2align 3
 1390              	.L70:
 1391              		.loc 2 110 5 view .LVU343
 1392              		.loc 2 110 7 is_stmt 0 view .LVU344
 1393 0040 8B6D00   		movl	0(%ebp), %ebp
 1394              	.LVL98:
 1395              		.loc 2 106 12 is_stmt 1 view .LVU345
 1396 0043 39FD     		cmpl	%edi, %ebp
 1397 0045 7439     		je	.L73
 1398              	.L72:
 1399              		.loc 2 107 5 view .LVU346
 1400              		.loc 2 107 9 is_stmt 0 view .LVU347
 1401 0047 83EC04   		subl	$4, %esp
 1402              		.cfi_def_cfa_offset 52
 1403 004a 8D4508   		leal	8(%ebp), %eax
 1404 004d 6A08     		pushl	$8
GAS LISTING /tmp/ccoiMs3n.s 			page 27


 1405              		.cfi_def_cfa_offset 56
 1406 004f 56       		pushl	%esi
 1407              		.cfi_def_cfa_offset 60
 1408 0050 50       		pushl	%eax
 1409              		.cfi_def_cfa_offset 64
 1410 0051 E8FCFFFF 		call	strncmp@PLT
 1410      FF
 1411              	.LVL99:
 1412 0056 83C410   		addl	$16, %esp
 1413              		.cfi_def_cfa_offset 48
 1414              		.loc 2 107 8 view .LVU348
 1415 0059 85C0     		testl	%eax, %eax
 1416 005b 75E3     		jne	.L70
 1417              		.loc 2 108 7 is_stmt 1 view .LVU349
 1418              	.LVL100:
 1419              		.loc 2 108 7 is_stmt 0 view .LVU350
 1420              	.LBE135:
 1421              	.LBE134:
 1422              		.loc 2 270 3 is_stmt 1 view .LVU351
 1423              		.loc 2 270 6 is_stmt 0 view .LVU352
 1424 005d 85ED     		testl	%ebp, %ebp
 1425 005f 7404     		je	.L69
 1426              		.loc 2 272 5 is_stmt 1 view .LVU353
 1427              		.loc 2 272 14 is_stmt 0 view .LVU354
 1428 0061 83450401 		addl	$1, 4(%ebp)
 1429              	.LVL101:
 1430              	.L69:
 1431              		.loc 2 275 3 is_stmt 1 view .LVU355
 1432              		.loc 2 275 3 is_stmt 0 view .LVU356
 1433              	.LBE133:
 1434              	.LBE132:
 1435              		.loc 2 500 3 is_stmt 1 view .LVU357
 1436 0065 83EC0C   		subl	$12, %esp
 1437              		.cfi_def_cfa_offset 60
 1438 0068 FF742418 		pushl	24(%esp)
 1439              		.cfi_def_cfa_offset 64
 1440 006c E8FCFFFF 		call	chMtxUnlock@PLT
 1440      FF
 1441              	.LVL102:
 1442              		.loc 2 502 3 view .LVU358
 1443              		.loc 2 503 1 is_stmt 0 view .LVU359
 1444 0071 83C42C   		addl	$44, %esp
 1445              		.cfi_def_cfa_offset 20
 1446 0074 89E8     		movl	%ebp, %eax
 1447 0076 5B       		popl	%ebx
 1448              		.cfi_restore 3
 1449              		.cfi_def_cfa_offset 16
 1450 0077 5E       		popl	%esi
 1451              		.cfi_restore 6
 1452              		.cfi_def_cfa_offset 12
 1453 0078 5F       		popl	%edi
 1454              		.cfi_restore 7
 1455              		.cfi_def_cfa_offset 8
 1456 0079 5D       		popl	%ebp
 1457              		.cfi_restore 5
 1458              		.cfi_def_cfa_offset 4
 1459              	.LVL103:
GAS LISTING /tmp/ccoiMs3n.s 			page 28


 1460              		.loc 2 503 1 view .LVU360
 1461 007a C3       		ret
 1462              	.LVL104:
 1463 007b 8D742600 		.p2align 4,,10
 1463      90
 1464              		.p2align 3
 1465              	.L73:
 1466              		.cfi_def_cfa_offset 48
 1467              		.cfi_offset 3, -20
 1468              		.cfi_offset 5, -8
 1469              		.cfi_offset 6, -16
 1470              		.cfi_offset 7, -12
 1471              	.LBB139:
 1472              	.LBB138:
 1473              	.LBB137:
 1474              	.LBB136:
 1475              		.loc 2 113 10 view .LVU361
 1476 0080 31ED     		xorl	%ebp, %ebp
 1477              	.LVL105:
 1478              		.loc 2 113 10 view .LVU362
 1479 0082 EBE1     		jmp	.L69
 1480              	.LBE136:
 1481              	.LBE137:
 1482              	.LBE138:
 1483              	.LBE139:
 1484              		.cfi_endproc
 1485              	.LFE231:
 1486              		.size	chFactoryFindBuffer, .-chFactoryFindBuffer
 1487              		.section	.text.chFactoryReleaseBuffer,"ax",@progbits
 1488              		.p2align 4
 1489              		.globl	chFactoryReleaseBuffer
 1490              		.type	chFactoryReleaseBuffer, @function
 1491              	chFactoryReleaseBuffer:
 1492              	.LVL106:
 1493              	.LFB232:
 1494              		.loc 2 518 50 is_stmt 1 view -0
 1495              		.cfi_startproc
 1496              		.loc 2 519 3 view .LVU364
 1497              		.loc 2 521 3 view .LVU365
 1498              		.loc 2 518 50 is_stmt 0 view .LVU366
 1499 0000 55       		pushl	%ebp
 1500              		.cfi_def_cfa_offset 8
 1501              		.cfi_offset 5, -8
 1502 0001 57       		pushl	%edi
 1503              		.cfi_def_cfa_offset 12
 1504              		.cfi_offset 7, -12
 1505 0002 56       		pushl	%esi
 1506              		.cfi_def_cfa_offset 16
 1507              		.cfi_offset 6, -16
 1508 0003 53       		pushl	%ebx
 1509              		.cfi_def_cfa_offset 20
 1510              		.cfi_offset 3, -20
 1511 0004 E8FCFFFF 		call	__x86.get_pc_thunk.bx
 1511      FF
 1512 0009 81C30200 		addl	$_GLOBAL_OFFSET_TABLE_, %ebx
 1512      0000
 1513 000f 83EC18   		subl	$24, %esp
GAS LISTING /tmp/ccoiMs3n.s 			page 29


 1514              		.cfi_def_cfa_offset 44
 1515              		.loc 2 518 50 view .LVU367
 1516 0012 8B74242C 		movl	44(%esp), %esi
 1517              		.loc 2 521 3 view .LVU368
 1518 0016 8DBB0000 		leal	ch_factory@GOTOFF(%ebx), %edi
 1518      0000
 1519 001c 57       		pushl	%edi
 1520              		.cfi_def_cfa_offset 48
 1521 001d E8FCFFFF 		call	chMtxLock@PLT
 1521      FF
 1522              	.LVL107:
 1523              		.loc 2 523 3 is_stmt 1 view .LVU369
 1524              	.LBB146:
 1525              	.LBI146:
 1526              		.loc 2 173 15 view .LVU370
 1527              	.LBB147:
 1528              		.loc 2 175 3 view .LVU371
 1529              		.loc 2 176 3 view .LVU372
 1530              		.loc 2 178 3 view .LVU373
 1531              		.loc 2 178 3 view .LVU374
 1532              		.loc 2 178 3 view .LVU375
 1533              		.loc 2 181 3 view .LVU376
 1534              	.LBB148:
 1535              	.LBI148:
 1536              		.loc 2 116 23 view .LVU377
 1537              	.LBB149:
 1538              		.loc 2 118 3 view .LVU378
 1539              		.loc 2 121 3 view .LVU379
 1540              		.loc 2 121 9 is_stmt 0 view .LVU380
 1541 0022 83C410   		addl	$16, %esp
 1542              		.cfi_def_cfa_offset 32
 1543              		.loc 2 118 18 view .LVU381
 1544 0025 8D4724   		leal	36(%edi), %eax
 1545 0028 8D932400 		leal	36+ch_factory@GOTOFF(%ebx), %edx
 1545      0000
 1546              		.loc 2 121 9 view .LVU382
 1547 002e EB04     		jmp	.L77
 1548              	.LVL108:
 1549              		.p2align 4,,10
 1550              		.p2align 3
 1551              	.L79:
 1552              		.loc 2 122 5 is_stmt 1 view .LVU383
 1553              		.loc 2 122 8 is_stmt 0 view .LVU384
 1554 0030 39C6     		cmpl	%eax, %esi
 1555 0032 7424     		je	.L78
 1556              	.LVL109:
 1557              	.L77:
 1558              		.loc 2 121 21 is_stmt 1 view .LVU385
 1559 0034 89C1     		movl	%eax, %ecx
 1560              		.loc 2 121 14 is_stmt 0 view .LVU386
 1561 0036 8B00     		movl	(%eax), %eax
 1562              	.LVL110:
 1563              		.loc 2 121 21 view .LVU387
 1564 0038 39D0     		cmpl	%edx, %eax
 1565 003a 75F4     		jne	.L79
 1566              	.LBE149:
 1567              	.LBE148:
GAS LISTING /tmp/ccoiMs3n.s 			page 30


 1568              		.loc 2 195 10 view .LVU388
 1569 003c 31ED     		xorl	%ebp, %ebp
 1570              	.LVL111:
 1571              	.L80:
 1572              		.loc 2 198 3 is_stmt 1 view .LVU389
 1573              		.loc 2 198 3 is_stmt 0 view .LVU390
 1574              	.LBE147:
 1575              	.LBE146:
 1576              		.loc 2 525 3 is_stmt 1 view .LVU391
 1577 003e 83EC0C   		subl	$12, %esp
 1578              		.cfi_def_cfa_offset 44
 1579 0041 57       		pushl	%edi
 1580              		.cfi_def_cfa_offset 48
 1581 0042 E8FCFFFF 		call	chMtxUnlock@PLT
 1581      FF
 1582              	.LVL112:
 1583              		.loc 2 527 3 view .LVU392
 1584              		.loc 2 528 1 is_stmt 0 view .LVU393
 1585 0047 83C41C   		addl	$28, %esp
 1586              		.cfi_def_cfa_offset 20
 1587 004a 89E8     		movl	%ebp, %eax
 1588 004c 5B       		popl	%ebx
 1589              		.cfi_restore 3
 1590              		.cfi_def_cfa_offset 16
 1591 004d 5E       		popl	%esi
 1592              		.cfi_restore 6
 1593              		.cfi_def_cfa_offset 12
 1594 004e 5F       		popl	%edi
 1595              		.cfi_restore 7
 1596              		.cfi_def_cfa_offset 8
 1597 004f 5D       		popl	%ebp
 1598              		.cfi_restore 5
 1599              		.cfi_def_cfa_offset 4
 1600              	.LVL113:
 1601              		.loc 2 528 1 view .LVU394
 1602 0050 C3       		ret
 1603              	.LVL114:
 1604              		.p2align 4,,10
 1605 0051 8DB42600 		.p2align 3
 1605      000000
 1606              	.L78:
 1607              		.cfi_def_cfa_offset 32
 1608              		.cfi_offset 3, -20
 1609              		.cfi_offset 5, -8
 1610              		.cfi_offset 6, -16
 1611              		.cfi_offset 7, -12
 1612              	.LBB155:
 1613              	.LBB154:
 1614              		.loc 2 182 3 is_stmt 1 view .LVU395
 1615              		.loc 2 184 5 view .LVU396
 1616              		.loc 2 184 5 view .LVU397
 1617              		.loc 2 184 5 view .LVU398
 1618              		.loc 2 186 5 view .LVU399
 1619              		.loc 2 186 12 is_stmt 0 view .LVU400
 1620 0058 8B4604   		movl	4(%esi), %eax
 1621 005b 8D68FF   		leal	-1(%eax), %ebp
 1622              		.loc 2 186 10 view .LVU401
GAS LISTING /tmp/ccoiMs3n.s 			page 31


 1623 005e 896E04   		movl	%ebp, 4(%esi)
 1624              	.LVL115:
 1625              		.loc 2 187 5 is_stmt 1 view .LVU402
 1626              		.loc 2 187 8 is_stmt 0 view .LVU403
 1627 0061 85ED     		testl	%ebp, %ebp
 1628 0063 75D9     		jne	.L80
 1629              		.loc 2 188 7 is_stmt 1 view .LVU404
 1630              	.LVL116:
 1631              	.LBB150:
 1632              	.LBI150:
 1633              		.loc 2 133 23 view .LVU405
 1634              	.LBB151:
 1635              		.loc 2 134 3 view .LVU406
 1636              		.loc 2 136 3 view .LVU407
 1637              		.loc 2 136 23 is_stmt 0 view .LVU408
 1638 0065 8B06     		movl	(%esi), %eax
 1639              	.LBE151:
 1640              	.LBE150:
 1641              		.loc 2 188 7 view .LVU409
 1642 0067 83EC0C   		subl	$12, %esp
 1643              		.cfi_def_cfa_offset 44
 1644              	.LBB153:
 1645              	.LBB152:
 1646              		.loc 2 136 14 view .LVU410
 1647 006a 8901     		movl	%eax, (%ecx)
 1648              		.loc 2 138 3 is_stmt 1 view .LVU411
 1649              	.LVL117:
 1650              		.loc 2 138 3 is_stmt 0 view .LVU412
 1651              	.LBE152:
 1652              	.LBE153:
 1653              		.loc 2 188 7 view .LVU413
 1654 006c 56       		pushl	%esi
 1655              		.cfi_def_cfa_offset 48
 1656 006d E8FCFFFF 		call	chHeapFree@PLT
 1656      FF
 1657              	.LVL118:
 1658              		.loc 2 188 7 view .LVU414
 1659 0072 83C410   		addl	$16, %esp
 1660              		.cfi_def_cfa_offset 32
 1661 0075 EBC7     		jmp	.L80
 1662              	.LBE154:
 1663              	.LBE155:
 1664              		.cfi_endproc
 1665              	.LFE232:
 1666              		.size	chFactoryReleaseBuffer, .-chFactoryReleaseBuffer
 1667              		.section	.text.chFactoryCreateSemaphore,"ax",@progbits
 1668              		.p2align 4
 1669              		.globl	chFactoryCreateSemaphore
 1670              		.type	chFactoryCreateSemaphore, @function
 1671              	chFactoryCreateSemaphore:
 1672              	.LVL119:
 1673              	.LFB233:
 1674              		.loc 2 547 70 is_stmt 1 view -0
 1675              		.cfi_startproc
 1676              		.loc 2 548 3 view .LVU416
 1677              		.loc 2 550 3 view .LVU417
 1678              		.loc 2 547 70 is_stmt 0 view .LVU418
GAS LISTING /tmp/ccoiMs3n.s 			page 32


 1679 0000 55       		pushl	%ebp
 1680              		.cfi_def_cfa_offset 8
 1681              		.cfi_offset 5, -8
 1682 0001 57       		pushl	%edi
 1683              		.cfi_def_cfa_offset 12
 1684              		.cfi_offset 7, -12
 1685 0002 56       		pushl	%esi
 1686              		.cfi_def_cfa_offset 16
 1687              		.cfi_offset 6, -16
 1688 0003 53       		pushl	%ebx
 1689              		.cfi_def_cfa_offset 20
 1690              		.cfi_offset 3, -20
 1691 0004 E8FCFFFF 		call	__x86.get_pc_thunk.bx
 1691      FF
 1692 0009 81C30200 		addl	$_GLOBAL_OFFSET_TABLE_, %ebx
 1692      0000
 1693 000f 83EC28   		subl	$40, %esp
 1694              		.cfi_def_cfa_offset 60
 1695              		.loc 2 547 70 view .LVU419
 1696 0012 8B74243C 		movl	60(%esp), %esi
 1697              		.loc 2 550 3 view .LVU420
 1698 0016 8D830000 		leal	ch_factory@GOTOFF(%ebx), %eax
 1698      0000
 1699 001c 89442418 		movl	%eax, 24(%esp)
 1700 0020 89C7     		movl	%eax, %edi
 1701 0022 50       		pushl	%eax
 1702              		.cfi_def_cfa_offset 64
 1703 0023 E8FCFFFF 		call	chMtxLock@PLT
 1703      FF
 1704              	.LVL120:
 1705              		.loc 2 552 3 is_stmt 1 view .LVU421
 1706              	.LBB164:
 1707              	.LBI164:
 1708              		.loc 2 203 23 view .LVU422
 1709              	.LBB165:
 1710              		.loc 2 206 3 view .LVU423
 1711              		.loc 2 208 3 view .LVU424
 1712              		.loc 2 208 3 view .LVU425
 1713              		.loc 2 208 3 view .LVU426
 1714              		.loc 2 211 3 view .LVU427
 1715              	.LBB166:
 1716              	.LBI166:
 1717              		.loc 2 103 23 view .LVU428
 1718              	.LBB167:
 1719              		.loc 2 104 3 view .LVU429
 1720              		.loc 2 104 18 is_stmt 0 view .LVU430
 1721 0028 8BAB2800 		movl	40+ch_factory@GOTOFF(%ebx), %ebp
 1721      0000
 1722              	.LVL121:
 1723              		.loc 2 106 3 is_stmt 1 view .LVU431
 1724              		.loc 2 106 12 view .LVU432
 1725 002e 8D4728   		leal	40(%edi), %eax
 1726 0031 83C410   		addl	$16, %esp
 1727              		.cfi_def_cfa_offset 48
 1728 0034 39C5     		cmpl	%eax, %ebp
 1729 0036 7448     		je	.L85
 1730 0038 8DBB2800 		leal	40+ch_factory@GOTOFF(%ebx), %edi
GAS LISTING /tmp/ccoiMs3n.s 			page 33


 1730      0000
 1731 003e EB07     		jmp	.L87
 1732              		.p2align 4,,10
 1733              		.p2align 3
 1734              	.L100:
 1735              		.loc 2 110 5 view .LVU433
 1736              		.loc 2 110 7 is_stmt 0 view .LVU434
 1737 0040 8B6D00   		movl	0(%ebp), %ebp
 1738              	.LVL122:
 1739              		.loc 2 106 12 is_stmt 1 view .LVU435
 1740 0043 39FD     		cmpl	%edi, %ebp
 1741 0045 7439     		je	.L85
 1742              	.L87:
 1743              		.loc 2 107 5 view .LVU436
 1744              		.loc 2 107 9 is_stmt 0 view .LVU437
 1745 0047 83EC04   		subl	$4, %esp
 1746              		.cfi_def_cfa_offset 52
 1747 004a 8D4508   		leal	8(%ebp), %eax
 1748 004d 6A08     		pushl	$8
 1749              		.cfi_def_cfa_offset 56
 1750 004f 56       		pushl	%esi
 1751              		.cfi_def_cfa_offset 60
 1752 0050 50       		pushl	%eax
 1753              		.cfi_def_cfa_offset 64
 1754 0051 E8FCFFFF 		call	strncmp@PLT
 1754      FF
 1755              	.LVL123:
 1756 0056 83C410   		addl	$16, %esp
 1757              		.cfi_def_cfa_offset 48
 1758              		.loc 2 107 8 view .LVU438
 1759 0059 85C0     		testl	%eax, %eax
 1760 005b 75E3     		jne	.L100
 1761              	.LVL124:
 1762              		.loc 2 107 8 view .LVU439
 1763              	.LBE167:
 1764              	.LBE166:
 1765              		.loc 2 212 3 is_stmt 1 view .LVU440
 1766              		.loc 2 212 6 is_stmt 0 view .LVU441
 1767 005d 85ED     		testl	%ebp, %ebp
 1768 005f 741F     		je	.L85
 1769              	.LVL125:
 1770              	.L89:
 1771              		.loc 2 213 12 view .LVU442
 1772 0061 31FF     		xorl	%edi, %edi
 1773              	.LVL126:
 1774              	.L88:
 1775              		.loc 2 213 12 view .LVU443
 1776              	.LBE165:
 1777              	.LBE164:
 1778              		.loc 2 560 3 is_stmt 1 view .LVU444
 1779 0063 83EC0C   		subl	$12, %esp
 1780              		.cfi_def_cfa_offset 60
 1781 0066 FF742418 		pushl	24(%esp)
 1782              		.cfi_def_cfa_offset 64
 1783 006a E8FCFFFF 		call	chMtxUnlock@PLT
 1783      FF
 1784              	.LVL127:
GAS LISTING /tmp/ccoiMs3n.s 			page 34


 1785              		.loc 2 562 3 view .LVU445
 1786              		.loc 2 563 1 is_stmt 0 view .LVU446
 1787 006f 83C42C   		addl	$44, %esp
 1788              		.cfi_def_cfa_offset 20
 1789 0072 89F8     		movl	%edi, %eax
 1790 0074 5B       		popl	%ebx
 1791              		.cfi_restore 3
 1792              		.cfi_def_cfa_offset 16
 1793 0075 5E       		popl	%esi
 1794              		.cfi_restore 6
 1795              		.cfi_def_cfa_offset 12
 1796 0076 5F       		popl	%edi
 1797              		.cfi_restore 7
 1798              		.cfi_def_cfa_offset 8
 1799 0077 5D       		popl	%ebp
 1800              		.cfi_restore 5
 1801              		.cfi_def_cfa_offset 4
 1802 0078 C3       		ret
 1803              	.LVL128:
 1804 0079 8DB42600 		.p2align 4,,10
 1804      000000
 1805              		.p2align 3
 1806              	.L85:
 1807              		.cfi_def_cfa_offset 48
 1808              		.cfi_offset 3, -20
 1809              		.cfi_offset 5, -8
 1810              		.cfi_offset 6, -16
 1811              		.cfi_offset 7, -12
 1812              	.LBB179:
 1813              	.LBB176:
 1814              	.LBB168:
 1815              	.LBI168:
 1816              		.loc 2 203 23 is_stmt 1 view .LVU447
 1817              	.LBB169:
 1818              		.loc 2 217 3 view .LVU448
 1819              		.loc 2 217 26 is_stmt 0 view .LVU449
 1820 0080 83EC0C   		subl	$12, %esp
 1821              		.cfi_def_cfa_offset 60
 1822 0083 8D832C00 		leal	44+ch_factory@GOTOFF(%ebx), %eax
 1822      0000
 1823 0089 50       		pushl	%eax
 1824              		.cfi_def_cfa_offset 64
 1825 008a E8FCFFFF 		call	chPoolAlloc@PLT
 1825      FF
 1826              	.LVL129:
 1827              		.loc 2 218 6 view .LVU450
 1828 008f 83C410   		addl	$16, %esp
 1829              		.cfi_def_cfa_offset 48
 1830              		.loc 2 217 26 view .LVU451
 1831 0092 89C7     		movl	%eax, %edi
 1832              	.LVL130:
 1833              		.loc 2 218 3 is_stmt 1 view .LVU452
 1834              		.loc 2 218 6 is_stmt 0 view .LVU453
 1835 0094 85C0     		testl	%eax, %eax
 1836 0096 74C9     		je	.L89
 1837 0098 31C0     		xorl	%eax, %eax
 1838              	.LVL131:
GAS LISTING /tmp/ccoiMs3n.s 			page 35


 1839 009a 8DB60000 		.p2align 4,,10
 1839      0000
 1840              		.p2align 3
 1841              	.L90:
 1842              	.LBB170:
 1843              	.LBB171:
 1844              		.loc 2 91 3 is_stmt 1 view .LVU454
 1845              		.loc 2 92 5 view .LVU455
 1846              		.loc 2 92 7 is_stmt 0 view .LVU456
 1847 00a0 0FB61406 		movzbl	(%esi,%eax), %edx
 1848              	.LVL132:
 1849              		.loc 2 93 5 is_stmt 1 view .LVU457
 1850              		.loc 2 95 15 is_stmt 0 view .LVU458
 1851 00a4 84D2     		testb	%dl, %dl
 1852              		.loc 2 93 11 view .LVU459
 1853 00a6 88540708 		movb	%dl, 8(%edi,%eax)
 1854              		.loc 2 94 5 is_stmt 1 view .LVU460
 1855              	.LVL133:
 1856              		.loc 2 95 27 view .LVU461
 1857              		.loc 2 95 15 is_stmt 0 view .LVU462
 1858 00aa 0F95C1   		setne	%cl
 1859              		.loc 2 95 33 view .LVU463
 1860 00ad 83F807   		cmpl	$7, %eax
 1861 00b0 0F95C2   		setne	%dl
 1862              	.LVL134:
 1863              		.loc 2 95 27 view .LVU464
 1864 00b3 83C001   		addl	$1, %eax
 1865              	.LVL135:
 1866              		.loc 2 95 27 view .LVU465
 1867 00b6 84D1     		testb	%dl, %cl
 1868 00b8 75E6     		jne	.L90
 1869              	.LVL136:
 1870              		.loc 2 95 27 view .LVU466
 1871              	.LBE171:
 1872              	.LBE170:
 1873              		.loc 2 224 3 is_stmt 1 view .LVU467
 1874              		.loc 2 225 13 is_stmt 0 view .LVU468
 1875 00ba 8B832800 		movl	40+ch_factory@GOTOFF(%ebx), %eax
 1875      0000
 1876              	.LBE169:
 1877              	.LBE168:
 1878              	.LBE176:
 1879              	.LBE179:
 1880              		.loc 2 557 5 view .LVU469
 1881 00c0 83EC08   		subl	$8, %esp
 1882              		.cfi_def_cfa_offset 56
 1883              	.LBB180:
 1884              	.LBB177:
 1885              	.LBB174:
 1886              	.LBB172:
 1887              		.loc 2 224 13 view .LVU470
 1888 00c3 C7470401 		movl	$1, 4(%edi)
 1888      000000
 1889              		.loc 2 225 3 is_stmt 1 view .LVU471
 1890              		.loc 2 225 13 is_stmt 0 view .LVU472
 1891 00ca 8907     		movl	%eax, (%edi)
 1892              		.loc 2 228 3 is_stmt 1 view .LVU473
GAS LISTING /tmp/ccoiMs3n.s 			page 36


 1893              	.LBE172:
 1894              	.LBE174:
 1895              	.LBE177:
 1896              	.LBE180:
 1897              		.loc 2 557 5 is_stmt 0 view .LVU474
 1898 00cc 8D4710   		leal	16(%edi), %eax
 1899 00cf FF74243C 		pushl	60(%esp)
 1900              		.cfi_def_cfa_offset 60
 1901 00d3 50       		pushl	%eax
 1902              		.cfi_def_cfa_offset 64
 1903              	.LBB181:
 1904              	.LBB178:
 1905              	.LBB175:
 1906              	.LBB173:
 1907              		.loc 2 228 13 view .LVU475
 1908 00d4 89BB2800 		movl	%edi, 40+ch_factory@GOTOFF(%ebx)
 1908      0000
 1909              		.loc 2 230 3 is_stmt 1 view .LVU476
 1910              	.LVL137:
 1911              		.loc 2 230 3 is_stmt 0 view .LVU477
 1912              	.LBE173:
 1913              	.LBE175:
 1914              	.LBE178:
 1915              	.LBE181:
 1916              		.loc 2 555 3 is_stmt 1 view .LVU478
 1917              		.loc 2 557 5 view .LVU479
 1918 00da E8FCFFFF 		call	chSemObjectInit@PLT
 1918      FF
 1919              	.LVL138:
 1920 00df 83C410   		addl	$16, %esp
 1921              		.cfi_def_cfa_offset 48
 1922 00e2 E97CFFFF 		jmp	.L88
 1922      FF
 1923              		.cfi_endproc
 1924              	.LFE233:
 1925              		.size	chFactoryCreateSemaphore, .-chFactoryCreateSemaphore
 1926              		.section	.text.chFactoryFindSemaphore,"ax",@progbits
 1927              		.p2align 4
 1928              		.globl	chFactoryFindSemaphore
 1929              		.type	chFactoryFindSemaphore, @function
 1930              	chFactoryFindSemaphore:
 1931              	.LVL139:
 1932              	.LFB234:
 1933              		.loc 2 578 59 view -0
 1934              		.cfi_startproc
 1935              		.loc 2 579 3 view .LVU481
 1936              		.loc 2 581 3 view .LVU482
 1937              		.loc 2 578 59 is_stmt 0 view .LVU483
 1938 0000 55       		pushl	%ebp
 1939              		.cfi_def_cfa_offset 8
 1940              		.cfi_offset 5, -8
 1941 0001 57       		pushl	%edi
 1942              		.cfi_def_cfa_offset 12
 1943              		.cfi_offset 7, -12
 1944 0002 56       		pushl	%esi
 1945              		.cfi_def_cfa_offset 16
 1946              		.cfi_offset 6, -16
GAS LISTING /tmp/ccoiMs3n.s 			page 37


 1947 0003 53       		pushl	%ebx
 1948              		.cfi_def_cfa_offset 20
 1949              		.cfi_offset 3, -20
 1950 0004 E8FCFFFF 		call	__x86.get_pc_thunk.bx
 1950      FF
 1951 0009 81C30200 		addl	$_GLOBAL_OFFSET_TABLE_, %ebx
 1951      0000
 1952 000f 83EC28   		subl	$40, %esp
 1953              		.cfi_def_cfa_offset 60
 1954              		.loc 2 578 59 view .LVU484
 1955 0012 8B74243C 		movl	60(%esp), %esi
 1956              		.loc 2 581 3 view .LVU485
 1957 0016 8D830000 		leal	ch_factory@GOTOFF(%ebx), %eax
 1957      0000
 1958 001c 89442418 		movl	%eax, 24(%esp)
 1959 0020 89C7     		movl	%eax, %edi
 1960 0022 50       		pushl	%eax
 1961              		.cfi_def_cfa_offset 64
 1962 0023 E8FCFFFF 		call	chMtxLock@PLT
 1962      FF
 1963              	.LVL140:
 1964              		.loc 2 583 3 is_stmt 1 view .LVU486
 1965              	.LBB186:
 1966              	.LBI186:
 1967              		.loc 2 263 23 view .LVU487
 1968              	.LBB187:
 1969              		.loc 2 264 3 view .LVU488
 1970              		.loc 2 266 3 view .LVU489
 1971              		.loc 2 266 3 view .LVU490
 1972              		.loc 2 266 3 view .LVU491
 1973              		.loc 2 269 3 view .LVU492
 1974              	.LBB188:
 1975              	.LBI188:
 1976              		.loc 2 103 23 view .LVU493
 1977              	.LBB189:
 1978              		.loc 2 104 3 view .LVU494
 1979              		.loc 2 104 18 is_stmt 0 view .LVU495
 1980 0028 8BAB2800 		movl	40+ch_factory@GOTOFF(%ebx), %ebp
 1980      0000
 1981              	.LVL141:
 1982              		.loc 2 106 3 is_stmt 1 view .LVU496
 1983              		.loc 2 106 12 view .LVU497
 1984 002e 8D4728   		leal	40(%edi), %eax
 1985 0031 83C410   		addl	$16, %esp
 1986              		.cfi_def_cfa_offset 48
 1987 0034 39C5     		cmpl	%eax, %ebp
 1988 0036 7448     		je	.L106
 1989 0038 8DBB2800 		leal	40+ch_factory@GOTOFF(%ebx), %edi
 1989      0000
 1990 003e EB07     		jmp	.L105
 1991              		.p2align 4,,10
 1992              		.p2align 3
 1993              	.L103:
 1994              		.loc 2 110 5 view .LVU498
 1995              		.loc 2 110 7 is_stmt 0 view .LVU499
 1996 0040 8B6D00   		movl	0(%ebp), %ebp
 1997              	.LVL142:
GAS LISTING /tmp/ccoiMs3n.s 			page 38


 1998              		.loc 2 106 12 is_stmt 1 view .LVU500
 1999 0043 39FD     		cmpl	%edi, %ebp
 2000 0045 7439     		je	.L106
 2001              	.L105:
 2002              		.loc 2 107 5 view .LVU501
 2003              		.loc 2 107 9 is_stmt 0 view .LVU502
 2004 0047 83EC04   		subl	$4, %esp
 2005              		.cfi_def_cfa_offset 52
 2006 004a 8D4508   		leal	8(%ebp), %eax
 2007 004d 6A08     		pushl	$8
 2008              		.cfi_def_cfa_offset 56
 2009 004f 56       		pushl	%esi
 2010              		.cfi_def_cfa_offset 60
 2011 0050 50       		pushl	%eax
 2012              		.cfi_def_cfa_offset 64
 2013 0051 E8FCFFFF 		call	strncmp@PLT
 2013      FF
 2014              	.LVL143:
 2015 0056 83C410   		addl	$16, %esp
 2016              		.cfi_def_cfa_offset 48
 2017              		.loc 2 107 8 view .LVU503
 2018 0059 85C0     		testl	%eax, %eax
 2019 005b 75E3     		jne	.L103
 2020              		.loc 2 108 7 is_stmt 1 view .LVU504
 2021              	.LVL144:
 2022              		.loc 2 108 7 is_stmt 0 view .LVU505
 2023              	.LBE189:
 2024              	.LBE188:
 2025              		.loc 2 270 3 is_stmt 1 view .LVU506
 2026              		.loc 2 270 6 is_stmt 0 view .LVU507
 2027 005d 85ED     		testl	%ebp, %ebp
 2028 005f 7404     		je	.L102
 2029              		.loc 2 272 5 is_stmt 1 view .LVU508
 2030              		.loc 2 272 14 is_stmt 0 view .LVU509
 2031 0061 83450401 		addl	$1, 4(%ebp)
 2032              	.LVL145:
 2033              	.L102:
 2034              		.loc 2 275 3 is_stmt 1 view .LVU510
 2035              		.loc 2 275 3 is_stmt 0 view .LVU511
 2036              	.LBE187:
 2037              	.LBE186:
 2038              		.loc 2 585 3 is_stmt 1 view .LVU512
 2039 0065 83EC0C   		subl	$12, %esp
 2040              		.cfi_def_cfa_offset 60
 2041 0068 FF742418 		pushl	24(%esp)
 2042              		.cfi_def_cfa_offset 64
 2043 006c E8FCFFFF 		call	chMtxUnlock@PLT
 2043      FF
 2044              	.LVL146:
 2045              		.loc 2 587 3 view .LVU513
 2046              		.loc 2 588 1 is_stmt 0 view .LVU514
 2047 0071 83C42C   		addl	$44, %esp
 2048              		.cfi_def_cfa_offset 20
 2049 0074 89E8     		movl	%ebp, %eax
 2050 0076 5B       		popl	%ebx
 2051              		.cfi_restore 3
 2052              		.cfi_def_cfa_offset 16
GAS LISTING /tmp/ccoiMs3n.s 			page 39


 2053 0077 5E       		popl	%esi
 2054              		.cfi_restore 6
 2055              		.cfi_def_cfa_offset 12
 2056 0078 5F       		popl	%edi
 2057              		.cfi_restore 7
 2058              		.cfi_def_cfa_offset 8
 2059 0079 5D       		popl	%ebp
 2060              		.cfi_restore 5
 2061              		.cfi_def_cfa_offset 4
 2062              	.LVL147:
 2063              		.loc 2 588 1 view .LVU515
 2064 007a C3       		ret
 2065              	.LVL148:
 2066 007b 8D742600 		.p2align 4,,10
 2066      90
 2067              		.p2align 3
 2068              	.L106:
 2069              		.cfi_def_cfa_offset 48
 2070              		.cfi_offset 3, -20
 2071              		.cfi_offset 5, -8
 2072              		.cfi_offset 6, -16
 2073              		.cfi_offset 7, -12
 2074              	.LBB193:
 2075              	.LBB192:
 2076              	.LBB191:
 2077              	.LBB190:
 2078              		.loc 2 113 10 view .LVU516
 2079 0080 31ED     		xorl	%ebp, %ebp
 2080              	.LVL149:
 2081              		.loc 2 113 10 view .LVU517
 2082 0082 EBE1     		jmp	.L102
 2083              	.LBE190:
 2084              	.LBE191:
 2085              	.LBE192:
 2086              	.LBE193:
 2087              		.cfi_endproc
 2088              	.LFE234:
 2089              		.size	chFactoryFindSemaphore, .-chFactoryFindSemaphore
 2090              		.section	.text.chFactoryReleaseSemaphore,"ax",@progbits
 2091              		.p2align 4
 2092              		.globl	chFactoryReleaseSemaphore
 2093              		.type	chFactoryReleaseSemaphore, @function
 2094              	chFactoryReleaseSemaphore:
 2095              	.LVL150:
 2096              	.LFB235:
 2097              		.loc 2 603 56 is_stmt 1 view -0
 2098              		.cfi_startproc
 2099              		.loc 2 604 3 view .LVU519
 2100              		.loc 2 606 3 view .LVU520
 2101              		.loc 2 603 56 is_stmt 0 view .LVU521
 2102 0000 55       		pushl	%ebp
 2103              		.cfi_def_cfa_offset 8
 2104              		.cfi_offset 5, -8
 2105 0001 57       		pushl	%edi
 2106              		.cfi_def_cfa_offset 12
 2107              		.cfi_offset 7, -12
 2108 0002 56       		pushl	%esi
GAS LISTING /tmp/ccoiMs3n.s 			page 40


 2109              		.cfi_def_cfa_offset 16
 2110              		.cfi_offset 6, -16
 2111 0003 53       		pushl	%ebx
 2112              		.cfi_def_cfa_offset 20
 2113              		.cfi_offset 3, -20
 2114 0004 E8FCFFFF 		call	__x86.get_pc_thunk.bx
 2114      FF
 2115 0009 81C30200 		addl	$_GLOBAL_OFFSET_TABLE_, %ebx
 2115      0000
 2116 000f 83EC18   		subl	$24, %esp
 2117              		.cfi_def_cfa_offset 44
 2118              		.loc 2 603 56 view .LVU522
 2119 0012 8B74242C 		movl	44(%esp), %esi
 2120              		.loc 2 606 3 view .LVU523
 2121 0016 8DBB0000 		leal	ch_factory@GOTOFF(%ebx), %edi
 2121      0000
 2122 001c 57       		pushl	%edi
 2123              		.cfi_def_cfa_offset 48
 2124 001d E8FCFFFF 		call	chMtxLock@PLT
 2124      FF
 2125              	.LVL151:
 2126              		.loc 2 608 3 is_stmt 1 view .LVU524
 2127              	.LBB200:
 2128              	.LBI200:
 2129              		.loc 2 233 15 view .LVU525
 2130              	.LBB201:
 2131              		.loc 2 236 3 view .LVU526
 2132              		.loc 2 237 3 view .LVU527
 2133              		.loc 2 239 3 view .LVU528
 2134              		.loc 2 239 3 view .LVU529
 2135              		.loc 2 239 3 view .LVU530
 2136              		.loc 2 242 3 view .LVU531
 2137              	.LBB202:
 2138              	.LBI202:
 2139              		.loc 2 116 23 view .LVU532
 2140              	.LBB203:
 2141              		.loc 2 118 3 view .LVU533
 2142              		.loc 2 121 3 view .LVU534
 2143              		.loc 2 121 9 is_stmt 0 view .LVU535
 2144 0022 83C410   		addl	$16, %esp
 2145              		.cfi_def_cfa_offset 32
 2146              		.loc 2 118 18 view .LVU536
 2147 0025 8D4728   		leal	40(%edi), %eax
 2148 0028 8D932800 		leal	40+ch_factory@GOTOFF(%ebx), %edx
 2148      0000
 2149              		.loc 2 121 9 view .LVU537
 2150 002e EB04     		jmp	.L110
 2151              	.LVL152:
 2152              		.p2align 4,,10
 2153              		.p2align 3
 2154              	.L112:
 2155              		.loc 2 122 5 is_stmt 1 view .LVU538
 2156              		.loc 2 122 8 is_stmt 0 view .LVU539
 2157 0030 39C6     		cmpl	%eax, %esi
 2158 0032 7424     		je	.L111
 2159              	.LVL153:
 2160              	.L110:
GAS LISTING /tmp/ccoiMs3n.s 			page 41


 2161              		.loc 2 121 21 is_stmt 1 view .LVU540
 2162 0034 89C1     		movl	%eax, %ecx
 2163              		.loc 2 121 14 is_stmt 0 view .LVU541
 2164 0036 8B00     		movl	(%eax), %eax
 2165              	.LVL154:
 2166              		.loc 2 121 21 view .LVU542
 2167 0038 39D0     		cmpl	%edx, %eax
 2168 003a 75F4     		jne	.L112
 2169              	.LBE203:
 2170              	.LBE202:
 2171              		.loc 2 256 10 view .LVU543
 2172 003c 31ED     		xorl	%ebp, %ebp
 2173              	.LVL155:
 2174              	.L113:
 2175              		.loc 2 259 3 is_stmt 1 view .LVU544
 2176              		.loc 2 259 3 is_stmt 0 view .LVU545
 2177              	.LBE201:
 2178              	.LBE200:
 2179              		.loc 2 612 3 is_stmt 1 view .LVU546
 2180 003e 83EC0C   		subl	$12, %esp
 2181              		.cfi_def_cfa_offset 44
 2182 0041 57       		pushl	%edi
 2183              		.cfi_def_cfa_offset 48
 2184 0042 E8FCFFFF 		call	chMtxUnlock@PLT
 2184      FF
 2185              	.LVL156:
 2186              		.loc 2 614 3 view .LVU547
 2187              		.loc 2 615 1 is_stmt 0 view .LVU548
 2188 0047 83C41C   		addl	$28, %esp
 2189              		.cfi_def_cfa_offset 20
 2190 004a 89E8     		movl	%ebp, %eax
 2191 004c 5B       		popl	%ebx
 2192              		.cfi_restore 3
 2193              		.cfi_def_cfa_offset 16
 2194 004d 5E       		popl	%esi
 2195              		.cfi_restore 6
 2196              		.cfi_def_cfa_offset 12
 2197 004e 5F       		popl	%edi
 2198              		.cfi_restore 7
 2199              		.cfi_def_cfa_offset 8
 2200 004f 5D       		popl	%ebp
 2201              		.cfi_restore 5
 2202              		.cfi_def_cfa_offset 4
 2203              	.LVL157:
 2204              		.loc 2 615 1 view .LVU549
 2205 0050 C3       		ret
 2206              	.LVL158:
 2207              		.p2align 4,,10
 2208 0051 8DB42600 		.p2align 3
 2208      000000
 2209              	.L111:
 2210              		.cfi_def_cfa_offset 32
 2211              		.cfi_offset 3, -20
 2212              		.cfi_offset 5, -8
 2213              		.cfi_offset 6, -16
 2214              		.cfi_offset 7, -12
 2215              	.LBB209:
GAS LISTING /tmp/ccoiMs3n.s 			page 42


 2216              	.LBB208:
 2217              		.loc 2 243 3 is_stmt 1 view .LVU550
 2218              		.loc 2 245 5 view .LVU551
 2219              		.loc 2 245 5 view .LVU552
 2220              		.loc 2 245 5 view .LVU553
 2221              		.loc 2 247 5 view .LVU554
 2222              		.loc 2 247 12 is_stmt 0 view .LVU555
 2223 0058 8B4604   		movl	4(%esi), %eax
 2224 005b 8D68FF   		leal	-1(%eax), %ebp
 2225              		.loc 2 247 10 view .LVU556
 2226 005e 896E04   		movl	%ebp, 4(%esi)
 2227              	.LVL159:
 2228              		.loc 2 248 5 is_stmt 1 view .LVU557
 2229              		.loc 2 248 8 is_stmt 0 view .LVU558
 2230 0061 85ED     		testl	%ebp, %ebp
 2231 0063 75D9     		jne	.L113
 2232              		.loc 2 249 7 is_stmt 1 view .LVU559
 2233              	.LVL160:
 2234              	.LBB204:
 2235              	.LBI204:
 2236              		.loc 2 133 23 view .LVU560
 2237              	.LBB205:
 2238              		.loc 2 134 3 view .LVU561
 2239              		.loc 2 136 3 view .LVU562
 2240              		.loc 2 136 23 is_stmt 0 view .LVU563
 2241 0065 8B06     		movl	(%esi), %eax
 2242              	.LBE205:
 2243              	.LBE204:
 2244              		.loc 2 249 7 view .LVU564
 2245 0067 83EC08   		subl	$8, %esp
 2246              		.cfi_def_cfa_offset 40
 2247              	.LBB207:
 2248              	.LBB206:
 2249              		.loc 2 136 14 view .LVU565
 2250 006a 8901     		movl	%eax, (%ecx)
 2251              		.loc 2 138 3 is_stmt 1 view .LVU566
 2252              	.LVL161:
 2253              		.loc 2 138 3 is_stmt 0 view .LVU567
 2254              	.LBE206:
 2255              	.LBE207:
 2256              		.loc 2 249 7 view .LVU568
 2257 006c 8D4204   		leal	4(%edx), %eax
 2258 006f 56       		pushl	%esi
 2259              		.cfi_def_cfa_offset 44
 2260 0070 50       		pushl	%eax
 2261              		.cfi_def_cfa_offset 48
 2262 0071 E8FCFFFF 		call	chPoolFree@PLT
 2262      FF
 2263              	.LVL162:
 2264              		.loc 2 249 7 view .LVU569
 2265 0076 83C410   		addl	$16, %esp
 2266              		.cfi_def_cfa_offset 32
 2267 0079 EBC3     		jmp	.L113
 2268              	.LBE208:
 2269              	.LBE209:
 2270              		.cfi_endproc
 2271              	.LFE235:
GAS LISTING /tmp/ccoiMs3n.s 			page 43


 2272              		.size	chFactoryReleaseSemaphore, .-chFactoryReleaseSemaphore
 2273              		.section	.text.chFactoryCreateMailbox,"ax",@progbits
 2274              		.p2align 4
 2275              		.globl	chFactoryCreateMailbox
 2276              		.type	chFactoryCreateMailbox, @function
 2277              	chFactoryCreateMailbox:
 2278              	.LVL163:
 2279              	.LFB236:
 2280              		.loc 2 634 67 is_stmt 1 view -0
 2281              		.cfi_startproc
 2282              		.loc 2 635 3 view .LVU571
 2283              		.loc 2 637 3 view .LVU572
 2284              		.loc 2 634 67 is_stmt 0 view .LVU573
 2285 0000 55       		pushl	%ebp
 2286              		.cfi_def_cfa_offset 8
 2287              		.cfi_offset 5, -8
 2288 0001 57       		pushl	%edi
 2289              		.cfi_def_cfa_offset 12
 2290              		.cfi_offset 7, -12
 2291 0002 56       		pushl	%esi
 2292              		.cfi_def_cfa_offset 16
 2293              		.cfi_offset 6, -16
 2294 0003 53       		pushl	%ebx
 2295              		.cfi_def_cfa_offset 20
 2296              		.cfi_offset 3, -20
 2297 0004 E8FCFFFF 		call	__x86.get_pc_thunk.bx
 2297      FF
 2298 0009 81C30200 		addl	$_GLOBAL_OFFSET_TABLE_, %ebx
 2298      0000
 2299 000f 83EC18   		subl	$24, %esp
 2300              		.cfi_def_cfa_offset 44
 2301              		.loc 2 634 67 view .LVU574
 2302 0012 8B6C2430 		movl	48(%esp), %ebp
 2303              		.loc 2 637 3 view .LVU575
 2304 0016 8DBB0000 		leal	ch_factory@GOTOFF(%ebx), %edi
 2304      0000
 2305 001c 57       		pushl	%edi
 2306              		.cfi_def_cfa_offset 48
 2307 001d E8FCFFFF 		call	chMtxLock@PLT
 2307      FF
 2308              	.LVL164:
 2309              		.loc 2 639 3 is_stmt 1 view .LVU576
 2310              		.loc 2 639 26 is_stmt 0 view .LVU577
 2311 0022 8B442430 		movl	48(%esp), %eax
 2312 0026 8D0CAD38 		leal	56(,%ebp,4), %ecx
 2312      000000
 2313 002d 8D933C00 		leal	60+ch_factory@GOTOFF(%ebx), %edx
 2313      0000
 2314 0033 C7042408 		movl	$8, (%esp)
 2314      000000
 2315 003a E8FCFFFF 		call	dyn_create_object_heap
 2315      FF
 2316              	.LVL165:
 2317              		.loc 2 644 6 view .LVU578
 2318 003f 83C410   		addl	$16, %esp
 2319              		.cfi_def_cfa_offset 32
 2320              		.loc 2 639 26 view .LVU579
GAS LISTING /tmp/ccoiMs3n.s 			page 44


 2321 0042 89C6     		movl	%eax, %esi
 2322              	.LVL166:
 2323              		.loc 2 644 3 is_stmt 1 view .LVU580
 2324              		.loc 2 644 6 is_stmt 0 view .LVU581
 2325 0044 85C0     		testl	%eax, %eax
 2326 0046 7414     		je	.L118
 2327              		.loc 2 646 5 is_stmt 1 view .LVU582
 2328 0048 83EC04   		subl	$4, %esp
 2329              		.cfi_def_cfa_offset 36
 2330              		.loc 2 646 45 is_stmt 0 view .LVU583
 2331 004b 8D4038   		leal	56(%eax), %eax
 2332              	.LVL167:
 2333              		.loc 2 646 5 view .LVU584
 2334 004e 55       		pushl	%ebp
 2335              		.cfi_def_cfa_offset 40
 2336 004f 50       		pushl	%eax
 2337              		.cfi_def_cfa_offset 44
 2338 0050 8D4610   		leal	16(%esi), %eax
 2339 0053 50       		pushl	%eax
 2340              		.cfi_def_cfa_offset 48
 2341 0054 E8FCFFFF 		call	chMBObjectInit@PLT
 2341      FF
 2342              	.LVL168:
 2343 0059 83C410   		addl	$16, %esp
 2344              		.cfi_def_cfa_offset 32
 2345              	.L118:
 2346              		.loc 2 649 3 is_stmt 1 view .LVU585
 2347 005c 83EC0C   		subl	$12, %esp
 2348              		.cfi_def_cfa_offset 44
 2349 005f 57       		pushl	%edi
 2350              		.cfi_def_cfa_offset 48
 2351 0060 E8FCFFFF 		call	chMtxUnlock@PLT
 2351      FF
 2352              	.LVL169:
 2353              		.loc 2 651 3 view .LVU586
 2354              		.loc 2 652 1 is_stmt 0 view .LVU587
 2355 0065 83C41C   		addl	$28, %esp
 2356              		.cfi_def_cfa_offset 20
 2357 0068 89F0     		movl	%esi, %eax
 2358 006a 5B       		popl	%ebx
 2359              		.cfi_restore 3
 2360              		.cfi_def_cfa_offset 16
 2361 006b 5E       		popl	%esi
 2362              		.cfi_restore 6
 2363              		.cfi_def_cfa_offset 12
 2364              	.LVL170:
 2365              		.loc 2 652 1 view .LVU588
 2366 006c 5F       		popl	%edi
 2367              		.cfi_restore 7
 2368              		.cfi_def_cfa_offset 8
 2369 006d 5D       		popl	%ebp
 2370              		.cfi_restore 5
 2371              		.cfi_def_cfa_offset 4
 2372 006e C3       		ret
 2373              		.cfi_endproc
 2374              	.LFE236:
 2375              		.size	chFactoryCreateMailbox, .-chFactoryCreateMailbox
GAS LISTING /tmp/ccoiMs3n.s 			page 45


 2376              		.section	.text.chFactoryFindMailbox,"ax",@progbits
 2377              		.p2align 4
 2378              		.globl	chFactoryFindMailbox
 2379              		.type	chFactoryFindMailbox, @function
 2380              	chFactoryFindMailbox:
 2381              	.LVL171:
 2382              	.LFB237:
 2383              		.loc 2 667 55 is_stmt 1 view -0
 2384              		.cfi_startproc
 2385              		.loc 2 668 3 view .LVU590
 2386              		.loc 2 670 3 view .LVU591
 2387              		.loc 2 667 55 is_stmt 0 view .LVU592
 2388 0000 55       		pushl	%ebp
 2389              		.cfi_def_cfa_offset 8
 2390              		.cfi_offset 5, -8
 2391 0001 57       		pushl	%edi
 2392              		.cfi_def_cfa_offset 12
 2393              		.cfi_offset 7, -12
 2394 0002 56       		pushl	%esi
 2395              		.cfi_def_cfa_offset 16
 2396              		.cfi_offset 6, -16
 2397 0003 53       		pushl	%ebx
 2398              		.cfi_def_cfa_offset 20
 2399              		.cfi_offset 3, -20
 2400 0004 E8FCFFFF 		call	__x86.get_pc_thunk.bx
 2400      FF
 2401 0009 81C30200 		addl	$_GLOBAL_OFFSET_TABLE_, %ebx
 2401      0000
 2402 000f 83EC28   		subl	$40, %esp
 2403              		.cfi_def_cfa_offset 60
 2404              		.loc 2 667 55 view .LVU593
 2405 0012 8B74243C 		movl	60(%esp), %esi
 2406              		.loc 2 670 3 view .LVU594
 2407 0016 8D830000 		leal	ch_factory@GOTOFF(%ebx), %eax
 2407      0000
 2408 001c 89442418 		movl	%eax, 24(%esp)
 2409 0020 89C7     		movl	%eax, %edi
 2410 0022 50       		pushl	%eax
 2411              		.cfi_def_cfa_offset 64
 2412 0023 E8FCFFFF 		call	chMtxLock@PLT
 2412      FF
 2413              	.LVL172:
 2414              		.loc 2 672 3 is_stmt 1 view .LVU595
 2415              	.LBB214:
 2416              	.LBI214:
 2417              		.loc 2 263 23 view .LVU596
 2418              	.LBB215:
 2419              		.loc 2 264 3 view .LVU597
 2420              		.loc 2 266 3 view .LVU598
 2421              		.loc 2 266 3 view .LVU599
 2422              		.loc 2 266 3 view .LVU600
 2423              		.loc 2 269 3 view .LVU601
 2424              	.LBB216:
 2425              	.LBI216:
 2426              		.loc 2 103 23 view .LVU602
 2427              	.LBB217:
 2428              		.loc 2 104 3 view .LVU603
GAS LISTING /tmp/ccoiMs3n.s 			page 46


 2429              		.loc 2 104 18 is_stmt 0 view .LVU604
 2430 0028 8BAB3C00 		movl	60+ch_factory@GOTOFF(%ebx), %ebp
 2430      0000
 2431              	.LVL173:
 2432              		.loc 2 106 3 is_stmt 1 view .LVU605
 2433              		.loc 2 106 12 view .LVU606
 2434 002e 8D473C   		leal	60(%edi), %eax
 2435 0031 83C410   		addl	$16, %esp
 2436              		.cfi_def_cfa_offset 48
 2437 0034 39C5     		cmpl	%eax, %ebp
 2438 0036 7448     		je	.L128
 2439 0038 8DBB3C00 		leal	60+ch_factory@GOTOFF(%ebx), %edi
 2439      0000
 2440 003e EB07     		jmp	.L127
 2441              		.p2align 4,,10
 2442              		.p2align 3
 2443              	.L125:
 2444              		.loc 2 110 5 view .LVU607
 2445              		.loc 2 110 7 is_stmt 0 view .LVU608
 2446 0040 8B6D00   		movl	0(%ebp), %ebp
 2447              	.LVL174:
 2448              		.loc 2 106 12 is_stmt 1 view .LVU609
 2449 0043 39FD     		cmpl	%edi, %ebp
 2450 0045 7439     		je	.L128
 2451              	.L127:
 2452              		.loc 2 107 5 view .LVU610
 2453              		.loc 2 107 9 is_stmt 0 view .LVU611
 2454 0047 83EC04   		subl	$4, %esp
 2455              		.cfi_def_cfa_offset 52
 2456 004a 8D4508   		leal	8(%ebp), %eax
 2457 004d 6A08     		pushl	$8
 2458              		.cfi_def_cfa_offset 56
 2459 004f 56       		pushl	%esi
 2460              		.cfi_def_cfa_offset 60
 2461 0050 50       		pushl	%eax
 2462              		.cfi_def_cfa_offset 64
 2463 0051 E8FCFFFF 		call	strncmp@PLT
 2463      FF
 2464              	.LVL175:
 2465 0056 83C410   		addl	$16, %esp
 2466              		.cfi_def_cfa_offset 48
 2467              		.loc 2 107 8 view .LVU612
 2468 0059 85C0     		testl	%eax, %eax
 2469 005b 75E3     		jne	.L125
 2470              		.loc 2 108 7 is_stmt 1 view .LVU613
 2471              	.LVL176:
 2472              		.loc 2 108 7 is_stmt 0 view .LVU614
 2473              	.LBE217:
 2474              	.LBE216:
 2475              		.loc 2 270 3 is_stmt 1 view .LVU615
 2476              		.loc 2 270 6 is_stmt 0 view .LVU616
 2477 005d 85ED     		testl	%ebp, %ebp
 2478 005f 7404     		je	.L124
 2479              		.loc 2 272 5 is_stmt 1 view .LVU617
 2480              		.loc 2 272 14 is_stmt 0 view .LVU618
 2481 0061 83450401 		addl	$1, 4(%ebp)
 2482              	.LVL177:
GAS LISTING /tmp/ccoiMs3n.s 			page 47


 2483              	.L124:
 2484              		.loc 2 275 3 is_stmt 1 view .LVU619
 2485              		.loc 2 275 3 is_stmt 0 view .LVU620
 2486              	.LBE215:
 2487              	.LBE214:
 2488              		.loc 2 674 3 is_stmt 1 view .LVU621
 2489 0065 83EC0C   		subl	$12, %esp
 2490              		.cfi_def_cfa_offset 60
 2491 0068 FF742418 		pushl	24(%esp)
 2492              		.cfi_def_cfa_offset 64
 2493 006c E8FCFFFF 		call	chMtxUnlock@PLT
 2493      FF
 2494              	.LVL178:
 2495              		.loc 2 676 3 view .LVU622
 2496              		.loc 2 677 1 is_stmt 0 view .LVU623
 2497 0071 83C42C   		addl	$44, %esp
 2498              		.cfi_def_cfa_offset 20
 2499 0074 89E8     		movl	%ebp, %eax
 2500 0076 5B       		popl	%ebx
 2501              		.cfi_restore 3
 2502              		.cfi_def_cfa_offset 16
 2503 0077 5E       		popl	%esi
 2504              		.cfi_restore 6
 2505              		.cfi_def_cfa_offset 12
 2506 0078 5F       		popl	%edi
 2507              		.cfi_restore 7
 2508              		.cfi_def_cfa_offset 8
 2509 0079 5D       		popl	%ebp
 2510              		.cfi_restore 5
 2511              		.cfi_def_cfa_offset 4
 2512              	.LVL179:
 2513              		.loc 2 677 1 view .LVU624
 2514 007a C3       		ret
 2515              	.LVL180:
 2516 007b 8D742600 		.p2align 4,,10
 2516      90
 2517              		.p2align 3
 2518              	.L128:
 2519              		.cfi_def_cfa_offset 48
 2520              		.cfi_offset 3, -20
 2521              		.cfi_offset 5, -8
 2522              		.cfi_offset 6, -16
 2523              		.cfi_offset 7, -12
 2524              	.LBB221:
 2525              	.LBB220:
 2526              	.LBB219:
 2527              	.LBB218:
 2528              		.loc 2 113 10 view .LVU625
 2529 0080 31ED     		xorl	%ebp, %ebp
 2530              	.LVL181:
 2531              		.loc 2 113 10 view .LVU626
 2532 0082 EBE1     		jmp	.L124
 2533              	.LBE218:
 2534              	.LBE219:
 2535              	.LBE220:
 2536              	.LBE221:
 2537              		.cfi_endproc
GAS LISTING /tmp/ccoiMs3n.s 			page 48


 2538              	.LFE237:
 2539              		.size	chFactoryFindMailbox, .-chFactoryFindMailbox
 2540              		.section	.text.chFactoryReleaseMailbox,"ax",@progbits
 2541              		.p2align 4
 2542              		.globl	chFactoryReleaseMailbox
 2543              		.type	chFactoryReleaseMailbox, @function
 2544              	chFactoryReleaseMailbox:
 2545              	.LVL182:
 2546              	.LFB238:
 2547              		.loc 2 692 52 is_stmt 1 view -0
 2548              		.cfi_startproc
 2549              		.loc 2 693 3 view .LVU628
 2550              		.loc 2 695 3 view .LVU629
 2551              		.loc 2 692 52 is_stmt 0 view .LVU630
 2552 0000 55       		pushl	%ebp
 2553              		.cfi_def_cfa_offset 8
 2554              		.cfi_offset 5, -8
 2555 0001 57       		pushl	%edi
 2556              		.cfi_def_cfa_offset 12
 2557              		.cfi_offset 7, -12
 2558 0002 56       		pushl	%esi
 2559              		.cfi_def_cfa_offset 16
 2560              		.cfi_offset 6, -16
 2561 0003 53       		pushl	%ebx
 2562              		.cfi_def_cfa_offset 20
 2563              		.cfi_offset 3, -20
 2564 0004 E8FCFFFF 		call	__x86.get_pc_thunk.bx
 2564      FF
 2565 0009 81C30200 		addl	$_GLOBAL_OFFSET_TABLE_, %ebx
 2565      0000
 2566 000f 83EC18   		subl	$24, %esp
 2567              		.cfi_def_cfa_offset 44
 2568              		.loc 2 692 52 view .LVU631
 2569 0012 8B74242C 		movl	44(%esp), %esi
 2570              		.loc 2 695 3 view .LVU632
 2571 0016 8DBB0000 		leal	ch_factory@GOTOFF(%ebx), %edi
 2571      0000
 2572 001c 57       		pushl	%edi
 2573              		.cfi_def_cfa_offset 48
 2574 001d E8FCFFFF 		call	chMtxLock@PLT
 2574      FF
 2575              	.LVL183:
 2576              		.loc 2 697 3 is_stmt 1 view .LVU633
 2577              	.LBB228:
 2578              	.LBI228:
 2579              		.loc 2 173 15 view .LVU634
 2580              	.LBB229:
 2581              		.loc 2 175 3 view .LVU635
 2582              		.loc 2 176 3 view .LVU636
 2583              		.loc 2 178 3 view .LVU637
 2584              		.loc 2 178 3 view .LVU638
 2585              		.loc 2 178 3 view .LVU639
 2586              		.loc 2 181 3 view .LVU640
 2587              	.LBB230:
 2588              	.LBI230:
 2589              		.loc 2 116 23 view .LVU641
 2590              	.LBB231:
GAS LISTING /tmp/ccoiMs3n.s 			page 49


 2591              		.loc 2 118 3 view .LVU642
 2592              		.loc 2 121 3 view .LVU643
 2593              		.loc 2 121 9 is_stmt 0 view .LVU644
 2594 0022 83C410   		addl	$16, %esp
 2595              		.cfi_def_cfa_offset 32
 2596              		.loc 2 118 18 view .LVU645
 2597 0025 8D473C   		leal	60(%edi), %eax
 2598 0028 8D933C00 		leal	60+ch_factory@GOTOFF(%ebx), %edx
 2598      0000
 2599              		.loc 2 121 9 view .LVU646
 2600 002e EB04     		jmp	.L132
 2601              	.LVL184:
 2602              		.p2align 4,,10
 2603              		.p2align 3
 2604              	.L134:
 2605              		.loc 2 122 5 is_stmt 1 view .LVU647
 2606              		.loc 2 122 8 is_stmt 0 view .LVU648
 2607 0030 39C6     		cmpl	%eax, %esi
 2608 0032 7424     		je	.L133
 2609              	.LVL185:
 2610              	.L132:
 2611              		.loc 2 121 21 is_stmt 1 view .LVU649
 2612 0034 89C1     		movl	%eax, %ecx
 2613              		.loc 2 121 14 is_stmt 0 view .LVU650
 2614 0036 8B00     		movl	(%eax), %eax
 2615              	.LVL186:
 2616              		.loc 2 121 21 view .LVU651
 2617 0038 39D0     		cmpl	%edx, %eax
 2618 003a 75F4     		jne	.L134
 2619              	.LBE231:
 2620              	.LBE230:
 2621              		.loc 2 195 10 view .LVU652
 2622 003c 31ED     		xorl	%ebp, %ebp
 2623              	.LVL187:
 2624              	.L135:
 2625              		.loc 2 198 3 is_stmt 1 view .LVU653
 2626              		.loc 2 198 3 is_stmt 0 view .LVU654
 2627              	.LBE229:
 2628              	.LBE228:
 2629              		.loc 2 699 3 is_stmt 1 view .LVU655
 2630 003e 83EC0C   		subl	$12, %esp
 2631              		.cfi_def_cfa_offset 44
 2632 0041 57       		pushl	%edi
 2633              		.cfi_def_cfa_offset 48
 2634 0042 E8FCFFFF 		call	chMtxUnlock@PLT
 2634      FF
 2635              	.LVL188:
 2636              		.loc 2 701 3 view .LVU656
 2637              		.loc 2 702 1 is_stmt 0 view .LVU657
 2638 0047 83C41C   		addl	$28, %esp
 2639              		.cfi_def_cfa_offset 20
 2640 004a 89E8     		movl	%ebp, %eax
 2641 004c 5B       		popl	%ebx
 2642              		.cfi_restore 3
 2643              		.cfi_def_cfa_offset 16
 2644 004d 5E       		popl	%esi
 2645              		.cfi_restore 6
GAS LISTING /tmp/ccoiMs3n.s 			page 50


 2646              		.cfi_def_cfa_offset 12
 2647 004e 5F       		popl	%edi
 2648              		.cfi_restore 7
 2649              		.cfi_def_cfa_offset 8
 2650 004f 5D       		popl	%ebp
 2651              		.cfi_restore 5
 2652              		.cfi_def_cfa_offset 4
 2653              	.LVL189:
 2654              		.loc 2 702 1 view .LVU658
 2655 0050 C3       		ret
 2656              	.LVL190:
 2657              		.p2align 4,,10
 2658 0051 8DB42600 		.p2align 3
 2658      000000
 2659              	.L133:
 2660              		.cfi_def_cfa_offset 32
 2661              		.cfi_offset 3, -20
 2662              		.cfi_offset 5, -8
 2663              		.cfi_offset 6, -16
 2664              		.cfi_offset 7, -12
 2665              	.LBB237:
 2666              	.LBB236:
 2667              		.loc 2 182 3 is_stmt 1 view .LVU659
 2668              		.loc 2 184 5 view .LVU660
 2669              		.loc 2 184 5 view .LVU661
 2670              		.loc 2 184 5 view .LVU662
 2671              		.loc 2 186 5 view .LVU663
 2672              		.loc 2 186 12 is_stmt 0 view .LVU664
 2673 0058 8B4604   		movl	4(%esi), %eax
 2674 005b 8D68FF   		leal	-1(%eax), %ebp
 2675              		.loc 2 186 10 view .LVU665
 2676 005e 896E04   		movl	%ebp, 4(%esi)
 2677              	.LVL191:
 2678              		.loc 2 187 5 is_stmt 1 view .LVU666
 2679              		.loc 2 187 8 is_stmt 0 view .LVU667
 2680 0061 85ED     		testl	%ebp, %ebp
 2681 0063 75D9     		jne	.L135
 2682              		.loc 2 188 7 is_stmt 1 view .LVU668
 2683              	.LVL192:
 2684              	.LBB232:
 2685              	.LBI232:
 2686              		.loc 2 133 23 view .LVU669
 2687              	.LBB233:
 2688              		.loc 2 134 3 view .LVU670
 2689              		.loc 2 136 3 view .LVU671
 2690              		.loc 2 136 23 is_stmt 0 view .LVU672
 2691 0065 8B06     		movl	(%esi), %eax
 2692              	.LBE233:
 2693              	.LBE232:
 2694              		.loc 2 188 7 view .LVU673
 2695 0067 83EC0C   		subl	$12, %esp
 2696              		.cfi_def_cfa_offset 44
 2697              	.LBB235:
 2698              	.LBB234:
 2699              		.loc 2 136 14 view .LVU674
 2700 006a 8901     		movl	%eax, (%ecx)
 2701              		.loc 2 138 3 is_stmt 1 view .LVU675
GAS LISTING /tmp/ccoiMs3n.s 			page 51


 2702              	.LVL193:
 2703              		.loc 2 138 3 is_stmt 0 view .LVU676
 2704              	.LBE234:
 2705              	.LBE235:
 2706              		.loc 2 188 7 view .LVU677
 2707 006c 56       		pushl	%esi
 2708              		.cfi_def_cfa_offset 48
 2709 006d E8FCFFFF 		call	chHeapFree@PLT
 2709      FF
 2710              	.LVL194:
 2711              		.loc 2 188 7 view .LVU678
 2712 0072 83C410   		addl	$16, %esp
 2713              		.cfi_def_cfa_offset 32
 2714 0075 EBC7     		jmp	.L135
 2715              	.LBE236:
 2716              	.LBE237:
 2717              		.cfi_endproc
 2718              	.LFE238:
 2719              		.size	chFactoryReleaseMailbox, .-chFactoryReleaseMailbox
 2720              		.section	.text.chFactoryCreateObjectsFIFO,"ax",@progbits
 2721              		.p2align 4
 2722              		.globl	chFactoryCreateObjectsFIFO
 2723              		.type	chFactoryCreateObjectsFIFO, @function
 2724              	chFactoryCreateObjectsFIFO:
 2725              	.LVL195:
 2726              	.LFB239:
 2727              		.loc 2 728 67 is_stmt 1 view -0
 2728              		.cfi_startproc
 2729              		.loc 2 729 3 view .LVU680
 2730              		.loc 2 730 3 view .LVU681
 2731              		.loc 2 732 3 view .LVU682
 2732              		.loc 2 728 67 is_stmt 0 view .LVU683
 2733 0000 55       		pushl	%ebp
 2734              		.cfi_def_cfa_offset 8
 2735              		.cfi_offset 5, -8
 2736 0001 57       		pushl	%edi
 2737              		.cfi_def_cfa_offset 12
 2738              		.cfi_offset 7, -12
 2739 0002 56       		pushl	%esi
 2740              		.cfi_def_cfa_offset 16
 2741              		.cfi_offset 6, -16
 2742 0003 53       		pushl	%ebx
 2743              		.cfi_def_cfa_offset 20
 2744              		.cfi_offset 3, -20
 2745 0004 E8FCFFFF 		call	__x86.get_pc_thunk.bx
 2745      FF
 2746 0009 81C30200 		addl	$_GLOBAL_OFFSET_TABLE_, %ebx
 2746      0000
 2747 000f 83EC28   		subl	$40, %esp
 2748              		.cfi_def_cfa_offset 60
 2749              		.loc 2 728 67 view .LVU684
 2750 0012 8B7C2448 		movl	72(%esp), %edi
 2751              		.loc 2 732 3 view .LVU685
 2752 0016 8DAB0000 		leal	ch_factory@GOTOFF(%ebx), %ebp
 2752      0000
 2753 001c 55       		pushl	%ebp
 2754              		.cfi_def_cfa_offset 64
GAS LISTING /tmp/ccoiMs3n.s 			page 52


 2755 001d E8FCFFFF 		call	chMtxLock@PLT
 2755      FF
 2756              	.LVL196:
 2757              		.loc 2 735 3 is_stmt 1 view .LVU686
 2758              		.loc 2 735 13 is_stmt 0 view .LVU687
 2759 0022 8B442444 		movl	68(%esp), %eax
 2760              		.loc 2 736 13 view .LVU688
 2761 0026 8B742448 		movl	72(%esp), %esi
 2762              		.loc 2 741 32 view .LVU689
 2763 002a 893C24   		movl	%edi, (%esp)
 2764              		.loc 2 735 13 view .LVU690
 2765 002d 8D5438FF 		leal	-1(%eax,%edi), %edx
 2766 0031 89F8     		movl	%edi, %eax
 2767              		.loc 2 736 13 view .LVU691
 2768 0033 8D74B753 		leal	83(%edi,%esi,4), %esi
 2769              		.loc 2 735 13 view .LVU692
 2770 0037 F7D8     		negl	%eax
 2771              		.loc 2 735 11 view .LVU693
 2772 0039 89D1     		movl	%edx, %ecx
 2773              		.loc 2 741 32 view .LVU694
 2774 003b 8D934000 		leal	64+ch_factory@GOTOFF(%ebx), %edx
 2774      0000
 2775              		.loc 2 735 11 view .LVU695
 2776 0041 21C1     		andl	%eax, %ecx
 2777              	.LVL197:
 2778              		.loc 2 736 3 is_stmt 1 view .LVU696
 2779              		.loc 2 736 11 is_stmt 0 view .LVU697
 2780 0043 21C6     		andl	%eax, %esi
 2781              	.LVL198:
 2782              		.loc 2 738 3 is_stmt 1 view .LVU698
 2783              		.loc 2 741 3 view .LVU699
 2784              		.loc 2 741 32 is_stmt 0 view .LVU700
 2785 0045 8B442440 		movl	64(%esp), %eax
 2786              		.loc 2 738 11 view .LVU701
 2787 0049 894C2414 		movl	%ecx, 20(%esp)
 2788 004d 0FAF4C24 		imull	72(%esp), %ecx
 2788      48
 2789              	.LVL199:
 2790              		.loc 2 741 32 view .LVU702
 2791 0052 01F1     		addl	%esi, %ecx
 2792              	.LVL200:
 2793              		.loc 2 741 32 view .LVU703
 2794 0054 E8FCFFFF 		call	dyn_create_object_heap
 2794      FF
 2795              	.LVL201:
 2796              		.loc 2 745 3 is_stmt 1 view .LVU704
 2797              		.loc 2 745 6 is_stmt 0 view .LVU705
 2798 0059 83C410   		addl	$16, %esp
 2799              		.cfi_def_cfa_offset 48
 2800 005c 85C0     		testl	%eax, %eax
 2801 005e 7450     		je	.L140
 2802              	.LBB241:
 2803              		.loc 2 746 5 is_stmt 1 view .LVU706
 2804              	.LVL202:
 2805              		.loc 2 747 5 view .LVU707
 2806              		.loc 2 750 5 view .LVU708
 2807              	.LBB242:
GAS LISTING /tmp/ccoiMs3n.s 			page 53


 2808              	.LBI242:
 2809              		.file 5 "../../../os/oslib/include/chobjfifos.h"
 2810              		.loc 5 128 20 view .LVU709
 2811              	.LBB243:
 2812              		.loc 5 132 3 view .LVU710
 2813              		.loc 5 132 3 view .LVU711
 2814              		.loc 5 132 3 view .LVU712
 2815              		.loc 5 134 3 view .LVU713
 2816              	.LBE243:
 2817              	.LBE242:
 2818              		.loc 2 747 14 is_stmt 0 view .LVU714
 2819 0060 8D1430   		leal	(%eax,%esi), %edx
 2820              	.LBB247:
 2821              	.LBB244:
 2822              		.loc 5 134 3 view .LVU715
 2823 0063 8944240C 		movl	%eax, 12(%esp)
 2824 0067 8D7010   		leal	16(%eax), %esi
 2825              	.LVL203:
 2826              		.loc 5 134 3 view .LVU716
 2827 006a 83EC04   		subl	$4, %esp
 2828              		.cfi_def_cfa_offset 52
 2829              	.LBE244:
 2830              	.LBE247:
 2831              		.loc 2 747 14 view .LVU717
 2832 006d 8954240C 		movl	%edx, 12(%esp)
 2833              	.LVL204:
 2834              	.LBB248:
 2835              	.LBB245:
 2836              		.loc 5 134 3 view .LVU718
 2837 0071 57       		pushl	%edi
 2838              		.cfi_def_cfa_offset 56
 2839 0072 FF74240C 		pushl	12(%esp)
 2840              		.cfi_def_cfa_offset 60
 2841 0076 56       		pushl	%esi
 2842              		.cfi_def_cfa_offset 64
 2843 0077 E8FCFFFF 		call	chGuardedPoolObjectInitAligned@PLT
 2843      FF
 2844              	.LVL205:
 2845              		.loc 5 135 3 is_stmt 1 view .LVU719
 2846 007c 83C40C   		addl	$12, %esp
 2847              		.cfi_def_cfa_offset 52
 2848 007f FF74243C 		pushl	60(%esp)
 2849              		.cfi_def_cfa_offset 56
 2850 0083 FF742410 		pushl	16(%esp)
 2851              		.cfi_def_cfa_offset 60
 2852 0087 56       		pushl	%esi
 2853              		.cfi_def_cfa_offset 64
 2854 0088 E8FCFFFF 		call	chGuardedPoolLoadArray@PLT
 2854      FF
 2855              	.LVL206:
 2856              		.loc 5 136 3 view .LVU720
 2857 008d 83C40C   		addl	$12, %esp
 2858              		.cfi_def_cfa_offset 52
 2859 0090 FF74243C 		pushl	60(%esp)
 2860              		.cfi_def_cfa_offset 56
 2861              	.LBE245:
 2862              	.LBE248:
GAS LISTING /tmp/ccoiMs3n.s 			page 54


 2863              		.loc 2 746 12 is_stmt 0 view .LVU721
 2864 0094 8B442414 		movl	20(%esp), %eax
 2865 0098 8D5054   		leal	84(%eax), %edx
 2866              	.LBB249:
 2867              	.LBB246:
 2868              		.loc 5 136 3 view .LVU722
 2869 009b 52       		pushl	%edx
 2870              		.cfi_def_cfa_offset 60
 2871 009c 8D502C   		leal	44(%eax), %edx
 2872 009f 89442410 		movl	%eax, 16(%esp)
 2873              	.LVL207:
 2874              		.loc 5 136 3 view .LVU723
 2875 00a3 52       		pushl	%edx
 2876              		.cfi_def_cfa_offset 64
 2877 00a4 E8FCFFFF 		call	chMBObjectInit@PLT
 2877      FF
 2878              	.LVL208:
 2879              		.loc 5 137 1 view .LVU724
 2880 00a9 8B442414 		movl	20(%esp), %eax
 2881 00ad 83C410   		addl	$16, %esp
 2882              		.cfi_def_cfa_offset 48
 2883              	.LVL209:
 2884              	.L140:
 2885              		.loc 5 137 1 view .LVU725
 2886 00b0 89442404 		movl	%eax, 4(%esp)
 2887              	.LBE246:
 2888              	.LBE249:
 2889              	.LBE241:
 2890              		.loc 2 754 3 is_stmt 1 view .LVU726
 2891 00b4 83EC0C   		subl	$12, %esp
 2892              		.cfi_def_cfa_offset 60
 2893 00b7 55       		pushl	%ebp
 2894              		.cfi_def_cfa_offset 64
 2895 00b8 E8FCFFFF 		call	chMtxUnlock@PLT
 2895      FF
 2896              	.LVL210:
 2897              		.loc 2 756 3 view .LVU727
 2898              		.loc 2 757 1 is_stmt 0 view .LVU728
 2899 00bd 8B442414 		movl	20(%esp), %eax
 2900 00c1 83C42C   		addl	$44, %esp
 2901              		.cfi_def_cfa_offset 20
 2902 00c4 5B       		popl	%ebx
 2903              		.cfi_restore 3
 2904              		.cfi_def_cfa_offset 16
 2905 00c5 5E       		popl	%esi
 2906              		.cfi_restore 6
 2907              		.cfi_def_cfa_offset 12
 2908 00c6 5F       		popl	%edi
 2909              		.cfi_restore 7
 2910              		.cfi_def_cfa_offset 8
 2911              	.LVL211:
 2912              		.loc 2 757 1 view .LVU729
 2913 00c7 5D       		popl	%ebp
 2914              		.cfi_restore 5
 2915              		.cfi_def_cfa_offset 4
 2916 00c8 C3       		ret
 2917              		.cfi_endproc
GAS LISTING /tmp/ccoiMs3n.s 			page 55


 2918              	.LFE239:
 2919              		.size	chFactoryCreateObjectsFIFO, .-chFactoryCreateObjectsFIFO
 2920              		.section	.text.chFactoryFindObjectsFIFO,"ax",@progbits
 2921              		.p2align 4
 2922              		.globl	chFactoryFindObjectsFIFO
 2923              		.type	chFactoryFindObjectsFIFO, @function
 2924              	chFactoryFindObjectsFIFO:
 2925              	.LVL212:
 2926              	.LFB240:
 2927              		.loc 2 773 64 is_stmt 1 view -0
 2928              		.cfi_startproc
 2929              		.loc 2 774 3 view .LVU731
 2930              		.loc 2 776 3 view .LVU732
 2931              		.loc 2 773 64 is_stmt 0 view .LVU733
 2932 0000 55       		pushl	%ebp
 2933              		.cfi_def_cfa_offset 8
 2934              		.cfi_offset 5, -8
 2935 0001 57       		pushl	%edi
 2936              		.cfi_def_cfa_offset 12
 2937              		.cfi_offset 7, -12
 2938 0002 56       		pushl	%esi
 2939              		.cfi_def_cfa_offset 16
 2940              		.cfi_offset 6, -16
 2941 0003 53       		pushl	%ebx
 2942              		.cfi_def_cfa_offset 20
 2943              		.cfi_offset 3, -20
 2944 0004 E8FCFFFF 		call	__x86.get_pc_thunk.bx
 2944      FF
 2945 0009 81C30200 		addl	$_GLOBAL_OFFSET_TABLE_, %ebx
 2945      0000
 2946 000f 83EC28   		subl	$40, %esp
 2947              		.cfi_def_cfa_offset 60
 2948              		.loc 2 773 64 view .LVU734
 2949 0012 8B74243C 		movl	60(%esp), %esi
 2950              		.loc 2 776 3 view .LVU735
 2951 0016 8D830000 		leal	ch_factory@GOTOFF(%ebx), %eax
 2951      0000
 2952 001c 89442418 		movl	%eax, 24(%esp)
 2953 0020 89C7     		movl	%eax, %edi
 2954 0022 50       		pushl	%eax
 2955              		.cfi_def_cfa_offset 64
 2956 0023 E8FCFFFF 		call	chMtxLock@PLT
 2956      FF
 2957              	.LVL213:
 2958              		.loc 2 778 3 is_stmt 1 view .LVU736
 2959              	.LBB254:
 2960              	.LBI254:
 2961              		.loc 2 263 23 view .LVU737
 2962              	.LBB255:
 2963              		.loc 2 264 3 view .LVU738
 2964              		.loc 2 266 3 view .LVU739
 2965              		.loc 2 266 3 view .LVU740
 2966              		.loc 2 266 3 view .LVU741
 2967              		.loc 2 269 3 view .LVU742
 2968              	.LBB256:
 2969              	.LBI256:
 2970              		.loc 2 103 23 view .LVU743
GAS LISTING /tmp/ccoiMs3n.s 			page 56


 2971              	.LBB257:
 2972              		.loc 2 104 3 view .LVU744
 2973              		.loc 2 104 18 is_stmt 0 view .LVU745
 2974 0028 8BAB4000 		movl	64+ch_factory@GOTOFF(%ebx), %ebp
 2974      0000
 2975              	.LVL214:
 2976              		.loc 2 106 3 is_stmt 1 view .LVU746
 2977              		.loc 2 106 12 view .LVU747
 2978 002e 8D4740   		leal	64(%edi), %eax
 2979 0031 83C410   		addl	$16, %esp
 2980              		.cfi_def_cfa_offset 48
 2981 0034 39C5     		cmpl	%eax, %ebp
 2982 0036 7448     		je	.L150
 2983 0038 8DBB4000 		leal	64+ch_factory@GOTOFF(%ebx), %edi
 2983      0000
 2984 003e EB07     		jmp	.L149
 2985              		.p2align 4,,10
 2986              		.p2align 3
 2987              	.L147:
 2988              		.loc 2 110 5 view .LVU748
 2989              		.loc 2 110 7 is_stmt 0 view .LVU749
 2990 0040 8B6D00   		movl	0(%ebp), %ebp
 2991              	.LVL215:
 2992              		.loc 2 106 12 is_stmt 1 view .LVU750
 2993 0043 39FD     		cmpl	%edi, %ebp
 2994 0045 7439     		je	.L150
 2995              	.L149:
 2996              		.loc 2 107 5 view .LVU751
 2997              		.loc 2 107 9 is_stmt 0 view .LVU752
 2998 0047 83EC04   		subl	$4, %esp
 2999              		.cfi_def_cfa_offset 52
 3000 004a 8D4508   		leal	8(%ebp), %eax
 3001 004d 6A08     		pushl	$8
 3002              		.cfi_def_cfa_offset 56
 3003 004f 56       		pushl	%esi
 3004              		.cfi_def_cfa_offset 60
 3005 0050 50       		pushl	%eax
 3006              		.cfi_def_cfa_offset 64
 3007 0051 E8FCFFFF 		call	strncmp@PLT
 3007      FF
 3008              	.LVL216:
 3009 0056 83C410   		addl	$16, %esp
 3010              		.cfi_def_cfa_offset 48
 3011              		.loc 2 107 8 view .LVU753
 3012 0059 85C0     		testl	%eax, %eax
 3013 005b 75E3     		jne	.L147
 3014              		.loc 2 108 7 is_stmt 1 view .LVU754
 3015              	.LVL217:
 3016              		.loc 2 108 7 is_stmt 0 view .LVU755
 3017              	.LBE257:
 3018              	.LBE256:
 3019              		.loc 2 270 3 is_stmt 1 view .LVU756
 3020              		.loc 2 270 6 is_stmt 0 view .LVU757
 3021 005d 85ED     		testl	%ebp, %ebp
 3022 005f 7404     		je	.L146
 3023              		.loc 2 272 5 is_stmt 1 view .LVU758
 3024              		.loc 2 272 14 is_stmt 0 view .LVU759
GAS LISTING /tmp/ccoiMs3n.s 			page 57


 3025 0061 83450401 		addl	$1, 4(%ebp)
 3026              	.LVL218:
 3027              	.L146:
 3028              		.loc 2 275 3 is_stmt 1 view .LVU760
 3029              		.loc 2 275 3 is_stmt 0 view .LVU761
 3030              	.LBE255:
 3031              	.LBE254:
 3032              		.loc 2 780 3 is_stmt 1 view .LVU762
 3033 0065 83EC0C   		subl	$12, %esp
 3034              		.cfi_def_cfa_offset 60
 3035 0068 FF742418 		pushl	24(%esp)
 3036              		.cfi_def_cfa_offset 64
 3037 006c E8FCFFFF 		call	chMtxUnlock@PLT
 3037      FF
 3038              	.LVL219:
 3039              		.loc 2 782 3 view .LVU763
 3040              		.loc 2 783 1 is_stmt 0 view .LVU764
 3041 0071 83C42C   		addl	$44, %esp
 3042              		.cfi_def_cfa_offset 20
 3043 0074 89E8     		movl	%ebp, %eax
 3044 0076 5B       		popl	%ebx
 3045              		.cfi_restore 3
 3046              		.cfi_def_cfa_offset 16
 3047 0077 5E       		popl	%esi
 3048              		.cfi_restore 6
 3049              		.cfi_def_cfa_offset 12
 3050 0078 5F       		popl	%edi
 3051              		.cfi_restore 7
 3052              		.cfi_def_cfa_offset 8
 3053 0079 5D       		popl	%ebp
 3054              		.cfi_restore 5
 3055              		.cfi_def_cfa_offset 4
 3056              	.LVL220:
 3057              		.loc 2 783 1 view .LVU765
 3058 007a C3       		ret
 3059              	.LVL221:
 3060 007b 8D742600 		.p2align 4,,10
 3060      90
 3061              		.p2align 3
 3062              	.L150:
 3063              		.cfi_def_cfa_offset 48
 3064              		.cfi_offset 3, -20
 3065              		.cfi_offset 5, -8
 3066              		.cfi_offset 6, -16
 3067              		.cfi_offset 7, -12
 3068              	.LBB261:
 3069              	.LBB260:
 3070              	.LBB259:
 3071              	.LBB258:
 3072              		.loc 2 113 10 view .LVU766
 3073 0080 31ED     		xorl	%ebp, %ebp
 3074              	.LVL222:
 3075              		.loc 2 113 10 view .LVU767
 3076 0082 EBE1     		jmp	.L146
 3077              	.LBE258:
 3078              	.LBE259:
 3079              	.LBE260:
GAS LISTING /tmp/ccoiMs3n.s 			page 58


 3080              	.LBE261:
 3081              		.cfi_endproc
 3082              	.LFE240:
 3083              		.size	chFactoryFindObjectsFIFO, .-chFactoryFindObjectsFIFO
 3084              		.section	.text.chFactoryReleaseObjectsFIFO,"ax",@progbits
 3085              		.p2align 4
 3086              		.globl	chFactoryReleaseObjectsFIFO
 3087              		.type	chFactoryReleaseObjectsFIFO, @function
 3088              	chFactoryReleaseObjectsFIFO:
 3089              	.LVL223:
 3090              	.LFB241:
 3091              		.loc 2 798 62 is_stmt 1 view -0
 3092              		.cfi_startproc
 3093              		.loc 2 799 3 view .LVU769
 3094              		.loc 2 801 3 view .LVU770
 3095              		.loc 2 798 62 is_stmt 0 view .LVU771
 3096 0000 55       		pushl	%ebp
 3097              		.cfi_def_cfa_offset 8
 3098              		.cfi_offset 5, -8
 3099 0001 57       		pushl	%edi
 3100              		.cfi_def_cfa_offset 12
 3101              		.cfi_offset 7, -12
 3102 0002 56       		pushl	%esi
 3103              		.cfi_def_cfa_offset 16
 3104              		.cfi_offset 6, -16
 3105 0003 53       		pushl	%ebx
 3106              		.cfi_def_cfa_offset 20
 3107              		.cfi_offset 3, -20
 3108 0004 E8FCFFFF 		call	__x86.get_pc_thunk.bx
 3108      FF
 3109 0009 81C30200 		addl	$_GLOBAL_OFFSET_TABLE_, %ebx
 3109      0000
 3110 000f 83EC18   		subl	$24, %esp
 3111              		.cfi_def_cfa_offset 44
 3112              		.loc 2 798 62 view .LVU772
 3113 0012 8B74242C 		movl	44(%esp), %esi
 3114              		.loc 2 801 3 view .LVU773
 3115 0016 8DBB0000 		leal	ch_factory@GOTOFF(%ebx), %edi
 3115      0000
 3116 001c 57       		pushl	%edi
 3117              		.cfi_def_cfa_offset 48
 3118 001d E8FCFFFF 		call	chMtxLock@PLT
 3118      FF
 3119              	.LVL224:
 3120              		.loc 2 803 3 is_stmt 1 view .LVU774
 3121              	.LBB268:
 3122              	.LBI268:
 3123              		.loc 2 173 15 view .LVU775
 3124              	.LBB269:
 3125              		.loc 2 175 3 view .LVU776
 3126              		.loc 2 176 3 view .LVU777
 3127              		.loc 2 178 3 view .LVU778
 3128              		.loc 2 178 3 view .LVU779
 3129              		.loc 2 178 3 view .LVU780
 3130              		.loc 2 181 3 view .LVU781
 3131              	.LBB270:
 3132              	.LBI270:
GAS LISTING /tmp/ccoiMs3n.s 			page 59


 3133              		.loc 2 116 23 view .LVU782
 3134              	.LBB271:
 3135              		.loc 2 118 3 view .LVU783
 3136              		.loc 2 121 3 view .LVU784
 3137              		.loc 2 121 9 is_stmt 0 view .LVU785
 3138 0022 83C410   		addl	$16, %esp
 3139              		.cfi_def_cfa_offset 32
 3140              		.loc 2 118 18 view .LVU786
 3141 0025 8D4740   		leal	64(%edi), %eax
 3142 0028 8D934000 		leal	64+ch_factory@GOTOFF(%ebx), %edx
 3142      0000
 3143              		.loc 2 121 9 view .LVU787
 3144 002e EB04     		jmp	.L154
 3145              	.LVL225:
 3146              		.p2align 4,,10
 3147              		.p2align 3
 3148              	.L156:
 3149              		.loc 2 122 5 is_stmt 1 view .LVU788
 3150              		.loc 2 122 8 is_stmt 0 view .LVU789
 3151 0030 39C6     		cmpl	%eax, %esi
 3152 0032 7424     		je	.L155
 3153              	.LVL226:
 3154              	.L154:
 3155              		.loc 2 121 21 is_stmt 1 view .LVU790
 3156 0034 89C1     		movl	%eax, %ecx
 3157              		.loc 2 121 14 is_stmt 0 view .LVU791
 3158 0036 8B00     		movl	(%eax), %eax
 3159              	.LVL227:
 3160              		.loc 2 121 21 view .LVU792
 3161 0038 39D0     		cmpl	%edx, %eax
 3162 003a 75F4     		jne	.L156
 3163              	.LBE271:
 3164              	.LBE270:
 3165              		.loc 2 195 10 view .LVU793
 3166 003c 31ED     		xorl	%ebp, %ebp
 3167              	.LVL228:
 3168              	.L157:
 3169              		.loc 2 198 3 is_stmt 1 view .LVU794
 3170              		.loc 2 198 3 is_stmt 0 view .LVU795
 3171              	.LBE269:
 3172              	.LBE268:
 3173              		.loc 2 805 3 is_stmt 1 view .LVU796
 3174 003e 83EC0C   		subl	$12, %esp
 3175              		.cfi_def_cfa_offset 44
 3176 0041 57       		pushl	%edi
 3177              		.cfi_def_cfa_offset 48
 3178 0042 E8FCFFFF 		call	chMtxUnlock@PLT
 3178      FF
 3179              	.LVL229:
 3180              		.loc 2 807 3 view .LVU797
 3181              		.loc 2 808 1 is_stmt 0 view .LVU798
 3182 0047 83C41C   		addl	$28, %esp
 3183              		.cfi_def_cfa_offset 20
 3184 004a 89E8     		movl	%ebp, %eax
 3185 004c 5B       		popl	%ebx
 3186              		.cfi_restore 3
 3187              		.cfi_def_cfa_offset 16
GAS LISTING /tmp/ccoiMs3n.s 			page 60


 3188 004d 5E       		popl	%esi
 3189              		.cfi_restore 6
 3190              		.cfi_def_cfa_offset 12
 3191 004e 5F       		popl	%edi
 3192              		.cfi_restore 7
 3193              		.cfi_def_cfa_offset 8
 3194 004f 5D       		popl	%ebp
 3195              		.cfi_restore 5
 3196              		.cfi_def_cfa_offset 4
 3197              	.LVL230:
 3198              		.loc 2 808 1 view .LVU799
 3199 0050 C3       		ret
 3200              	.LVL231:
 3201              		.p2align 4,,10
 3202 0051 8DB42600 		.p2align 3
 3202      000000
 3203              	.L155:
 3204              		.cfi_def_cfa_offset 32
 3205              		.cfi_offset 3, -20
 3206              		.cfi_offset 5, -8
 3207              		.cfi_offset 6, -16
 3208              		.cfi_offset 7, -12
 3209              	.LBB277:
 3210              	.LBB276:
 3211              		.loc 2 182 3 is_stmt 1 view .LVU800
 3212              		.loc 2 184 5 view .LVU801
 3213              		.loc 2 184 5 view .LVU802
 3214              		.loc 2 184 5 view .LVU803
 3215              		.loc 2 186 5 view .LVU804
 3216              		.loc 2 186 12 is_stmt 0 view .LVU805
 3217 0058 8B4604   		movl	4(%esi), %eax
 3218 005b 8D68FF   		leal	-1(%eax), %ebp
 3219              		.loc 2 186 10 view .LVU806
 3220 005e 896E04   		movl	%ebp, 4(%esi)
 3221              	.LVL232:
 3222              		.loc 2 187 5 is_stmt 1 view .LVU807
 3223              		.loc 2 187 8 is_stmt 0 view .LVU808
 3224 0061 85ED     		testl	%ebp, %ebp
 3225 0063 75D9     		jne	.L157
 3226              		.loc 2 188 7 is_stmt 1 view .LVU809
 3227              	.LVL233:
 3228              	.LBB272:
 3229              	.LBI272:
 3230              		.loc 2 133 23 view .LVU810
 3231              	.LBB273:
 3232              		.loc 2 134 3 view .LVU811
 3233              		.loc 2 136 3 view .LVU812
 3234              		.loc 2 136 23 is_stmt 0 view .LVU813
 3235 0065 8B06     		movl	(%esi), %eax
 3236              	.LBE273:
 3237              	.LBE272:
 3238              		.loc 2 188 7 view .LVU814
 3239 0067 83EC0C   		subl	$12, %esp
 3240              		.cfi_def_cfa_offset 44
 3241              	.LBB275:
 3242              	.LBB274:
 3243              		.loc 2 136 14 view .LVU815
GAS LISTING /tmp/ccoiMs3n.s 			page 61


 3244 006a 8901     		movl	%eax, (%ecx)
 3245              		.loc 2 138 3 is_stmt 1 view .LVU816
 3246              	.LVL234:
 3247              		.loc 2 138 3 is_stmt 0 view .LVU817
 3248              	.LBE274:
 3249              	.LBE275:
 3250              		.loc 2 188 7 view .LVU818
 3251 006c 56       		pushl	%esi
 3252              		.cfi_def_cfa_offset 48
 3253 006d E8FCFFFF 		call	chHeapFree@PLT
 3253      FF
 3254              	.LVL235:
 3255              		.loc 2 188 7 view .LVU819
 3256 0072 83C410   		addl	$16, %esp
 3257              		.cfi_def_cfa_offset 32
 3258 0075 EBC7     		jmp	.L157
 3259              	.LBE276:
 3260              	.LBE277:
 3261              		.cfi_endproc
 3262              	.LFE241:
 3263              		.size	chFactoryReleaseObjectsFIFO, .-chFactoryReleaseObjectsFIFO
 3264              		.section	.text.chFactoryCreatePipe,"ax",@progbits
 3265              		.p2align 4
 3266              		.globl	chFactoryCreatePipe
 3267              		.type	chFactoryCreatePipe, @function
 3268              	chFactoryCreatePipe:
 3269              	.LVL236:
 3270              	.LFB242:
 3271              		.loc 2 829 64 is_stmt 1 view -0
 3272              		.cfi_startproc
 3273              		.loc 2 830 3 view .LVU821
 3274              		.loc 2 832 3 view .LVU822
 3275              		.loc 2 829 64 is_stmt 0 view .LVU823
 3276 0000 55       		pushl	%ebp
 3277              		.cfi_def_cfa_offset 8
 3278              		.cfi_offset 5, -8
 3279 0001 57       		pushl	%edi
 3280              		.cfi_def_cfa_offset 12
 3281              		.cfi_offset 7, -12
 3282 0002 56       		pushl	%esi
 3283              		.cfi_def_cfa_offset 16
 3284              		.cfi_offset 6, -16
 3285 0003 53       		pushl	%ebx
 3286              		.cfi_def_cfa_offset 20
 3287              		.cfi_offset 3, -20
 3288 0004 E8FCFFFF 		call	__x86.get_pc_thunk.bx
 3288      FF
 3289 0009 81C30200 		addl	$_GLOBAL_OFFSET_TABLE_, %ebx
 3289      0000
 3290 000f 83EC18   		subl	$24, %esp
 3291              		.cfi_def_cfa_offset 44
 3292              		.loc 2 829 64 view .LVU824
 3293 0012 8B6C2430 		movl	48(%esp), %ebp
 3294              		.loc 2 832 3 view .LVU825
 3295 0016 8DBB0000 		leal	ch_factory@GOTOFF(%ebx), %edi
 3295      0000
 3296 001c 57       		pushl	%edi
GAS LISTING /tmp/ccoiMs3n.s 			page 62


 3297              		.cfi_def_cfa_offset 48
 3298 001d E8FCFFFF 		call	chMtxLock@PLT
 3298      FF
 3299              	.LVL237:
 3300              		.loc 2 834 3 is_stmt 1 view .LVU826
 3301              		.loc 2 834 23 is_stmt 0 view .LVU827
 3302 0022 8B442430 		movl	48(%esp), %eax
 3303 0026 8D4D60   		leal	96(%ebp), %ecx
 3304 0029 8D934400 		leal	68+ch_factory@GOTOFF(%ebx), %edx
 3304      0000
 3305 002f C7042408 		movl	$8, (%esp)
 3305      000000
 3306 0036 E8FCFFFF 		call	dyn_create_object_heap
 3306      FF
 3307              	.LVL238:
 3308              		.loc 2 838 6 view .LVU828
 3309 003b 83C410   		addl	$16, %esp
 3310              		.cfi_def_cfa_offset 32
 3311              		.loc 2 834 23 view .LVU829
 3312 003e 89C6     		movl	%eax, %esi
 3313              	.LVL239:
 3314              		.loc 2 838 3 is_stmt 1 view .LVU830
 3315              		.loc 2 838 6 is_stmt 0 view .LVU831
 3316 0040 85C0     		testl	%eax, %eax
 3317 0042 7414     		je	.L162
 3318              		.loc 2 840 5 is_stmt 1 view .LVU832
 3319 0044 83EC04   		subl	$4, %esp
 3320              		.cfi_def_cfa_offset 36
 3321              		.loc 2 840 50 is_stmt 0 view .LVU833
 3322 0047 8D4060   		leal	96(%eax), %eax
 3323              	.LVL240:
 3324              		.loc 2 840 5 view .LVU834
 3325 004a 55       		pushl	%ebp
 3326              		.cfi_def_cfa_offset 40
 3327 004b 50       		pushl	%eax
 3328              		.cfi_def_cfa_offset 44
 3329 004c 8D4610   		leal	16(%esi), %eax
 3330 004f 50       		pushl	%eax
 3331              		.cfi_def_cfa_offset 48
 3332 0050 E8FCFFFF 		call	chPipeObjectInit@PLT
 3332      FF
 3333              	.LVL241:
 3334 0055 83C410   		addl	$16, %esp
 3335              		.cfi_def_cfa_offset 32
 3336              	.L162:
 3337              		.loc 2 843 3 is_stmt 1 view .LVU835
 3338 0058 83EC0C   		subl	$12, %esp
 3339              		.cfi_def_cfa_offset 44
 3340 005b 57       		pushl	%edi
 3341              		.cfi_def_cfa_offset 48
 3342 005c E8FCFFFF 		call	chMtxUnlock@PLT
 3342      FF
 3343              	.LVL242:
 3344              		.loc 2 845 3 view .LVU836
 3345              		.loc 2 846 1 is_stmt 0 view .LVU837
 3346 0061 83C41C   		addl	$28, %esp
 3347              		.cfi_def_cfa_offset 20
GAS LISTING /tmp/ccoiMs3n.s 			page 63


 3348 0064 89F0     		movl	%esi, %eax
 3349 0066 5B       		popl	%ebx
 3350              		.cfi_restore 3
 3351              		.cfi_def_cfa_offset 16
 3352 0067 5E       		popl	%esi
 3353              		.cfi_restore 6
 3354              		.cfi_def_cfa_offset 12
 3355              	.LVL243:
 3356              		.loc 2 846 1 view .LVU838
 3357 0068 5F       		popl	%edi
 3358              		.cfi_restore 7
 3359              		.cfi_def_cfa_offset 8
 3360 0069 5D       		popl	%ebp
 3361              		.cfi_restore 5
 3362              		.cfi_def_cfa_offset 4
 3363 006a C3       		ret
 3364              		.cfi_endproc
 3365              	.LFE242:
 3366              		.size	chFactoryCreatePipe, .-chFactoryCreatePipe
 3367              		.section	.text.chFactoryFindPipe,"ax",@progbits
 3368              		.p2align 4
 3369              		.globl	chFactoryFindPipe
 3370              		.type	chFactoryFindPipe, @function
 3371              	chFactoryFindPipe:
 3372              	.LVL244:
 3373              	.LFB243:
 3374              		.loc 2 862 49 is_stmt 1 view -0
 3375              		.cfi_startproc
 3376              		.loc 2 863 3 view .LVU840
 3377              		.loc 2 865 3 view .LVU841
 3378              		.loc 2 862 49 is_stmt 0 view .LVU842
 3379 0000 55       		pushl	%ebp
 3380              		.cfi_def_cfa_offset 8
 3381              		.cfi_offset 5, -8
 3382 0001 57       		pushl	%edi
 3383              		.cfi_def_cfa_offset 12
 3384              		.cfi_offset 7, -12
 3385 0002 56       		pushl	%esi
 3386              		.cfi_def_cfa_offset 16
 3387              		.cfi_offset 6, -16
 3388 0003 53       		pushl	%ebx
 3389              		.cfi_def_cfa_offset 20
 3390              		.cfi_offset 3, -20
 3391 0004 E8FCFFFF 		call	__x86.get_pc_thunk.bx
 3391      FF
 3392 0009 81C30200 		addl	$_GLOBAL_OFFSET_TABLE_, %ebx
 3392      0000
 3393 000f 83EC28   		subl	$40, %esp
 3394              		.cfi_def_cfa_offset 60
 3395              		.loc 2 862 49 view .LVU843
 3396 0012 8B74243C 		movl	60(%esp), %esi
 3397              		.loc 2 865 3 view .LVU844
 3398 0016 8D830000 		leal	ch_factory@GOTOFF(%ebx), %eax
 3398      0000
 3399 001c 89442418 		movl	%eax, 24(%esp)
 3400 0020 89C7     		movl	%eax, %edi
 3401 0022 50       		pushl	%eax
GAS LISTING /tmp/ccoiMs3n.s 			page 64


 3402              		.cfi_def_cfa_offset 64
 3403 0023 E8FCFFFF 		call	chMtxLock@PLT
 3403      FF
 3404              	.LVL245:
 3405              		.loc 2 867 3 is_stmt 1 view .LVU845
 3406              	.LBB282:
 3407              	.LBI282:
 3408              		.loc 2 263 23 view .LVU846
 3409              	.LBB283:
 3410              		.loc 2 264 3 view .LVU847
 3411              		.loc 2 266 3 view .LVU848
 3412              		.loc 2 266 3 view .LVU849
 3413              		.loc 2 266 3 view .LVU850
 3414              		.loc 2 269 3 view .LVU851
 3415              	.LBB284:
 3416              	.LBI284:
 3417              		.loc 2 103 23 view .LVU852
 3418              	.LBB285:
 3419              		.loc 2 104 3 view .LVU853
 3420              		.loc 2 104 18 is_stmt 0 view .LVU854
 3421 0028 8BAB4400 		movl	68+ch_factory@GOTOFF(%ebx), %ebp
 3421      0000
 3422              	.LVL246:
 3423              		.loc 2 106 3 is_stmt 1 view .LVU855
 3424              		.loc 2 106 12 view .LVU856
 3425 002e 8D4744   		leal	68(%edi), %eax
 3426 0031 83C410   		addl	$16, %esp
 3427              		.cfi_def_cfa_offset 48
 3428 0034 39C5     		cmpl	%eax, %ebp
 3429 0036 7448     		je	.L172
 3430 0038 8DBB4400 		leal	68+ch_factory@GOTOFF(%ebx), %edi
 3430      0000
 3431 003e EB07     		jmp	.L171
 3432              		.p2align 4,,10
 3433              		.p2align 3
 3434              	.L169:
 3435              		.loc 2 110 5 view .LVU857
 3436              		.loc 2 110 7 is_stmt 0 view .LVU858
 3437 0040 8B6D00   		movl	0(%ebp), %ebp
 3438              	.LVL247:
 3439              		.loc 2 106 12 is_stmt 1 view .LVU859
 3440 0043 39FD     		cmpl	%edi, %ebp
 3441 0045 7439     		je	.L172
 3442              	.L171:
 3443              		.loc 2 107 5 view .LVU860
 3444              		.loc 2 107 9 is_stmt 0 view .LVU861
 3445 0047 83EC04   		subl	$4, %esp
 3446              		.cfi_def_cfa_offset 52
 3447 004a 8D4508   		leal	8(%ebp), %eax
 3448 004d 6A08     		pushl	$8
 3449              		.cfi_def_cfa_offset 56
 3450 004f 56       		pushl	%esi
 3451              		.cfi_def_cfa_offset 60
 3452 0050 50       		pushl	%eax
 3453              		.cfi_def_cfa_offset 64
 3454 0051 E8FCFFFF 		call	strncmp@PLT
 3454      FF
GAS LISTING /tmp/ccoiMs3n.s 			page 65


 3455              	.LVL248:
 3456 0056 83C410   		addl	$16, %esp
 3457              		.cfi_def_cfa_offset 48
 3458              		.loc 2 107 8 view .LVU862
 3459 0059 85C0     		testl	%eax, %eax
 3460 005b 75E3     		jne	.L169
 3461              		.loc 2 108 7 is_stmt 1 view .LVU863
 3462              	.LVL249:
 3463              		.loc 2 108 7 is_stmt 0 view .LVU864
 3464              	.LBE285:
 3465              	.LBE284:
 3466              		.loc 2 270 3 is_stmt 1 view .LVU865
 3467              		.loc 2 270 6 is_stmt 0 view .LVU866
 3468 005d 85ED     		testl	%ebp, %ebp
 3469 005f 7404     		je	.L168
 3470              		.loc 2 272 5 is_stmt 1 view .LVU867
 3471              		.loc 2 272 14 is_stmt 0 view .LVU868
 3472 0061 83450401 		addl	$1, 4(%ebp)
 3473              	.LVL250:
 3474              	.L168:
 3475              		.loc 2 275 3 is_stmt 1 view .LVU869
 3476              		.loc 2 275 3 is_stmt 0 view .LVU870
 3477              	.LBE283:
 3478              	.LBE282:
 3479              		.loc 2 869 3 is_stmt 1 view .LVU871
 3480 0065 83EC0C   		subl	$12, %esp
 3481              		.cfi_def_cfa_offset 60
 3482 0068 FF742418 		pushl	24(%esp)
 3483              		.cfi_def_cfa_offset 64
 3484 006c E8FCFFFF 		call	chMtxUnlock@PLT
 3484      FF
 3485              	.LVL251:
 3486              		.loc 2 871 3 view .LVU872
 3487              		.loc 2 872 1 is_stmt 0 view .LVU873
 3488 0071 83C42C   		addl	$44, %esp
 3489              		.cfi_def_cfa_offset 20
 3490 0074 89E8     		movl	%ebp, %eax
 3491 0076 5B       		popl	%ebx
 3492              		.cfi_restore 3
 3493              		.cfi_def_cfa_offset 16
 3494 0077 5E       		popl	%esi
 3495              		.cfi_restore 6
 3496              		.cfi_def_cfa_offset 12
 3497 0078 5F       		popl	%edi
 3498              		.cfi_restore 7
 3499              		.cfi_def_cfa_offset 8
 3500 0079 5D       		popl	%ebp
 3501              		.cfi_restore 5
 3502              		.cfi_def_cfa_offset 4
 3503              	.LVL252:
 3504              		.loc 2 872 1 view .LVU874
 3505 007a C3       		ret
 3506              	.LVL253:
 3507 007b 8D742600 		.p2align 4,,10
 3507      90
 3508              		.p2align 3
 3509              	.L172:
GAS LISTING /tmp/ccoiMs3n.s 			page 66


 3510              		.cfi_def_cfa_offset 48
 3511              		.cfi_offset 3, -20
 3512              		.cfi_offset 5, -8
 3513              		.cfi_offset 6, -16
 3514              		.cfi_offset 7, -12
 3515              	.LBB289:
 3516              	.LBB288:
 3517              	.LBB287:
 3518              	.LBB286:
 3519              		.loc 2 113 10 view .LVU875
 3520 0080 31ED     		xorl	%ebp, %ebp
 3521              	.LVL254:
 3522              		.loc 2 113 10 view .LVU876
 3523 0082 EBE1     		jmp	.L168
 3524              	.LBE286:
 3525              	.LBE287:
 3526              	.LBE288:
 3527              	.LBE289:
 3528              		.cfi_endproc
 3529              	.LFE243:
 3530              		.size	chFactoryFindPipe, .-chFactoryFindPipe
 3531              		.section	.text.chFactoryReleasePipe,"ax",@progbits
 3532              		.p2align 4
 3533              		.globl	chFactoryReleasePipe
 3534              		.type	chFactoryReleasePipe, @function
 3535              	chFactoryReleasePipe:
 3536              	.LVL255:
 3537              	.LFB244:
 3538              		.loc 2 887 46 is_stmt 1 view -0
 3539              		.cfi_startproc
 3540              		.loc 2 888 3 view .LVU878
 3541              		.loc 2 890 3 view .LVU879
 3542              		.loc 2 887 46 is_stmt 0 view .LVU880
 3543 0000 55       		pushl	%ebp
 3544              		.cfi_def_cfa_offset 8
 3545              		.cfi_offset 5, -8
 3546 0001 57       		pushl	%edi
 3547              		.cfi_def_cfa_offset 12
 3548              		.cfi_offset 7, -12
 3549 0002 56       		pushl	%esi
 3550              		.cfi_def_cfa_offset 16
 3551              		.cfi_offset 6, -16
 3552 0003 53       		pushl	%ebx
 3553              		.cfi_def_cfa_offset 20
 3554              		.cfi_offset 3, -20
 3555 0004 E8FCFFFF 		call	__x86.get_pc_thunk.bx
 3555      FF
 3556 0009 81C30200 		addl	$_GLOBAL_OFFSET_TABLE_, %ebx
 3556      0000
 3557 000f 83EC18   		subl	$24, %esp
 3558              		.cfi_def_cfa_offset 44
 3559              		.loc 2 887 46 view .LVU881
 3560 0012 8B74242C 		movl	44(%esp), %esi
 3561              		.loc 2 890 3 view .LVU882
 3562 0016 8DBB0000 		leal	ch_factory@GOTOFF(%ebx), %edi
 3562      0000
 3563 001c 57       		pushl	%edi
GAS LISTING /tmp/ccoiMs3n.s 			page 67


 3564              		.cfi_def_cfa_offset 48
 3565 001d E8FCFFFF 		call	chMtxLock@PLT
 3565      FF
 3566              	.LVL256:
 3567              		.loc 2 892 3 is_stmt 1 view .LVU883
 3568              	.LBB296:
 3569              	.LBI296:
 3570              		.loc 2 173 15 view .LVU884
 3571              	.LBB297:
 3572              		.loc 2 175 3 view .LVU885
 3573              		.loc 2 176 3 view .LVU886
 3574              		.loc 2 178 3 view .LVU887
 3575              		.loc 2 178 3 view .LVU888
 3576              		.loc 2 178 3 view .LVU889
 3577              		.loc 2 181 3 view .LVU890
 3578              	.LBB298:
 3579              	.LBI298:
 3580              		.loc 2 116 23 view .LVU891
 3581              	.LBB299:
 3582              		.loc 2 118 3 view .LVU892
 3583              		.loc 2 121 3 view .LVU893
 3584              		.loc 2 121 9 is_stmt 0 view .LVU894
 3585 0022 83C410   		addl	$16, %esp
 3586              		.cfi_def_cfa_offset 32
 3587              		.loc 2 118 18 view .LVU895
 3588 0025 8D4744   		leal	68(%edi), %eax
 3589 0028 8D934400 		leal	68+ch_factory@GOTOFF(%ebx), %edx
 3589      0000
 3590              		.loc 2 121 9 view .LVU896
 3591 002e EB04     		jmp	.L176
 3592              	.LVL257:
 3593              		.p2align 4,,10
 3594              		.p2align 3
 3595              	.L178:
 3596              		.loc 2 122 5 is_stmt 1 view .LVU897
 3597              		.loc 2 122 8 is_stmt 0 view .LVU898
 3598 0030 39C6     		cmpl	%eax, %esi
 3599 0032 7424     		je	.L177
 3600              	.LVL258:
 3601              	.L176:
 3602              		.loc 2 121 21 is_stmt 1 view .LVU899
 3603 0034 89C1     		movl	%eax, %ecx
 3604              		.loc 2 121 14 is_stmt 0 view .LVU900
 3605 0036 8B00     		movl	(%eax), %eax
 3606              	.LVL259:
 3607              		.loc 2 121 21 view .LVU901
 3608 0038 39D0     		cmpl	%edx, %eax
 3609 003a 75F4     		jne	.L178
 3610              	.LBE299:
 3611              	.LBE298:
 3612              		.loc 2 195 10 view .LVU902
 3613 003c 31ED     		xorl	%ebp, %ebp
 3614              	.LVL260:
 3615              	.L179:
 3616              		.loc 2 198 3 is_stmt 1 view .LVU903
 3617              		.loc 2 198 3 is_stmt 0 view .LVU904
 3618              	.LBE297:
GAS LISTING /tmp/ccoiMs3n.s 			page 68


 3619              	.LBE296:
 3620              		.loc 2 894 3 is_stmt 1 view .LVU905
 3621 003e 83EC0C   		subl	$12, %esp
 3622              		.cfi_def_cfa_offset 44
 3623 0041 57       		pushl	%edi
 3624              		.cfi_def_cfa_offset 48
 3625 0042 E8FCFFFF 		call	chMtxUnlock@PLT
 3625      FF
 3626              	.LVL261:
 3627              		.loc 2 896 3 view .LVU906
 3628              		.loc 2 897 1 is_stmt 0 view .LVU907
 3629 0047 83C41C   		addl	$28, %esp
 3630              		.cfi_def_cfa_offset 20
 3631 004a 89E8     		movl	%ebp, %eax
 3632 004c 5B       		popl	%ebx
 3633              		.cfi_restore 3
 3634              		.cfi_def_cfa_offset 16
 3635 004d 5E       		popl	%esi
 3636              		.cfi_restore 6
 3637              		.cfi_def_cfa_offset 12
 3638 004e 5F       		popl	%edi
 3639              		.cfi_restore 7
 3640              		.cfi_def_cfa_offset 8
 3641 004f 5D       		popl	%ebp
 3642              		.cfi_restore 5
 3643              		.cfi_def_cfa_offset 4
 3644              	.LVL262:
 3645              		.loc 2 897 1 view .LVU908
 3646 0050 C3       		ret
 3647              	.LVL263:
 3648              		.p2align 4,,10
 3649 0051 8DB42600 		.p2align 3
 3649      000000
 3650              	.L177:
 3651              		.cfi_def_cfa_offset 32
 3652              		.cfi_offset 3, -20
 3653              		.cfi_offset 5, -8
 3654              		.cfi_offset 6, -16
 3655              		.cfi_offset 7, -12
 3656              	.LBB305:
 3657              	.LBB304:
 3658              		.loc 2 182 3 is_stmt 1 view .LVU909
 3659              		.loc 2 184 5 view .LVU910
 3660              		.loc 2 184 5 view .LVU911
 3661              		.loc 2 184 5 view .LVU912
 3662              		.loc 2 186 5 view .LVU913
 3663              		.loc 2 186 12 is_stmt 0 view .LVU914
 3664 0058 8B4604   		movl	4(%esi), %eax
 3665 005b 8D68FF   		leal	-1(%eax), %ebp
 3666              		.loc 2 186 10 view .LVU915
 3667 005e 896E04   		movl	%ebp, 4(%esi)
 3668              	.LVL264:
 3669              		.loc 2 187 5 is_stmt 1 view .LVU916
 3670              		.loc 2 187 8 is_stmt 0 view .LVU917
 3671 0061 85ED     		testl	%ebp, %ebp
 3672 0063 75D9     		jne	.L179
 3673              		.loc 2 188 7 is_stmt 1 view .LVU918
GAS LISTING /tmp/ccoiMs3n.s 			page 69


 3674              	.LVL265:
 3675              	.LBB300:
 3676              	.LBI300:
 3677              		.loc 2 133 23 view .LVU919
 3678              	.LBB301:
 3679              		.loc 2 134 3 view .LVU920
 3680              		.loc 2 136 3 view .LVU921
 3681              		.loc 2 136 23 is_stmt 0 view .LVU922
 3682 0065 8B06     		movl	(%esi), %eax
 3683              	.LBE301:
 3684              	.LBE300:
 3685              		.loc 2 188 7 view .LVU923
 3686 0067 83EC0C   		subl	$12, %esp
 3687              		.cfi_def_cfa_offset 44
 3688              	.LBB303:
 3689              	.LBB302:
 3690              		.loc 2 136 14 view .LVU924
 3691 006a 8901     		movl	%eax, (%ecx)
 3692              		.loc 2 138 3 is_stmt 1 view .LVU925
 3693              	.LVL266:
 3694              		.loc 2 138 3 is_stmt 0 view .LVU926
 3695              	.LBE302:
 3696              	.LBE303:
 3697              		.loc 2 188 7 view .LVU927
 3698 006c 56       		pushl	%esi
 3699              		.cfi_def_cfa_offset 48
 3700 006d E8FCFFFF 		call	chHeapFree@PLT
 3700      FF
 3701              	.LVL267:
 3702              		.loc 2 188 7 view .LVU928
 3703 0072 83C410   		addl	$16, %esp
 3704              		.cfi_def_cfa_offset 32
 3705 0075 EBC7     		jmp	.L179
 3706              	.LBE304:
 3707              	.LBE305:
 3708              		.cfi_endproc
 3709              	.LFE244:
 3710              		.size	chFactoryReleasePipe, .-chFactoryReleasePipe
 3711              		.globl	ch_factory
 3712              		.section	.bss.ch_factory,"aw",@nobits
 3713              		.align 32
 3714              		.type	ch_factory, @object
 3715              		.size	ch_factory, 72
 3716              	ch_factory:
 3717 0000 00000000 		.zero	72
 3717      00000000 
 3717      00000000 
 3717      00000000 
 3717      00000000 
 3718              		.section	.text.__x86.get_pc_thunk.bx,"axG",@progbits,__x86.get_pc_thunk.bx,comdat
 3719              		.globl	__x86.get_pc_thunk.bx
 3720              		.hidden	__x86.get_pc_thunk.bx
 3721              		.type	__x86.get_pc_thunk.bx, @function
 3722              	__x86.get_pc_thunk.bx:
 3723              	.LFB247:
 3724              		.cfi_startproc
 3725 0000 8B1C24   		movl	(%esp), %ebx
GAS LISTING /tmp/ccoiMs3n.s 			page 70


 3726 0003 C3       		ret
 3727              		.cfi_endproc
 3728              	.LFE247:
 3729              		.text
 3730              	.Letext0:
 3731              		.file 6 "/usr/lib/gcc/x86_64-linux-gnu/11/include/stddef.h"
 3732              		.file 7 "/usr/include/bits/types.h"
 3733              		.file 8 "/usr/include/bits/stdint-intn.h"
 3734              		.file 9 "/usr/include/bits/stdint-uintn.h"
 3735              		.file 10 "../../../os/common/ports/SIMIA32/compilers/GCC/chtypes.h"
 3736              		.file 11 "../../../os/rt/include/chearly.h"
 3737              		.file 12 "../../../os/rt/include/chobjects.h"
 3738              		.file 13 "../../../os/rt/include/chrfcu.h"
 3739              		.file 14 "../../../os/rt/include/chdebug.h"
 3740              		.file 15 "../../../os/rt/include/chtime.h"
 3741              		.file 16 "../../../os/rt/include/chlists.h"
 3742              		.file 17 "../../../os/common/ports/SIMIA32/chcore.h"
 3743              		.file 18 "../../../os/rt/include/chsem.h"
 3744              		.file 19 "../../../os/rt/include/chmtx.h"
 3745              		.file 20 "../../../os/oslib/include/chmemchecks.h"
 3746              		.file 21 "../../../os/oslib/include/chmboxes.h"
 3747              		.file 22 "../../../os/oslib/include/chmemheaps.h"
 3748              		.file 23 "../../../os/oslib/include/chpipes.h"
 3749              		.file 24 "../../../os/oslib/include/chfactory.h"
 3750              		.file 25 "/usr/include/string.h"
 3751              		.file 26 "<built-in>"
 3752              		.section	.debug_info,"",@progbits
 3753              	.Ldebug_info0:
 3754 0000 6D280000 		.long	0x286d
 3755 0004 0500     		.value	0x5
 3756 0006 01       		.byte	0x1
 3757 0007 04       		.byte	0x4
 3758 0008 00000000 		.long	.Ldebug_abbrev0
 3759 000c 30       		.uleb128 0x30
 3760 000d 01080000 		.long	.LASF240
 3761 0011 1D       		.byte	0x1d
 3762 0012 2F000000 		.long	.LASF0
 3763 0016 00000000 		.long	.LASF1
 3764 001a CB010000 		.long	.LLRL220
 3765 001e 00000000 		.long	0
 3766 0022 00000000 		.long	.Ldebug_line0
 3767 0026 04       		.uleb128 0x4
 3768 0027 B8030000 		.long	.LASF12
 3769 002b 06       		.byte	0x6
 3770 002c D1       		.byte	0xd1
 3771 002d 17       		.byte	0x17
 3772 002e 32000000 		.long	0x32
 3773 0032 11       		.uleb128 0x11
 3774 0033 04       		.byte	0x4
 3775 0034 07       		.byte	0x7
 3776 0035 0A010000 		.long	.LASF2
 3777 0039 11       		.uleb128 0x11
 3778 003a 02       		.byte	0x2
 3779 003b 07       		.byte	0x7
 3780 003c 980B0000 		.long	.LASF3
 3781 0040 31       		.uleb128 0x31
 3782 0041 04       		.byte	0x4
GAS LISTING /tmp/ccoiMs3n.s 			page 71


 3783 0042 05       		.byte	0x5
 3784 0043 696E7400 		.string	"int"
 3785 0047 07       		.uleb128 0x7
 3786 0048 58000000 		.long	0x58
 3787 004c 29       		.uleb128 0x29
 3788 004d 47000000 		.long	0x47
 3789 0051 11       		.uleb128 0x11
 3790 0052 01       		.byte	0x1
 3791 0053 06       		.byte	0x6
 3792 0054 AE040000 		.long	.LASF4
 3793 0058 20       		.uleb128 0x20
 3794 0059 51000000 		.long	0x51
 3795 005d 11       		.uleb128 0x11
 3796 005e 04       		.byte	0x4
 3797 005f 05       		.byte	0x5
 3798 0060 C6070000 		.long	.LASF5
 3799 0064 11       		.uleb128 0x11
 3800 0065 08       		.byte	0x8
 3801 0066 05       		.byte	0x5
 3802 0067 92050000 		.long	.LASF6
 3803 006b 11       		.uleb128 0x11
 3804 006c 0C       		.byte	0xc
 3805 006d 04       		.byte	0x4
 3806 006e 0D070000 		.long	.LASF7
 3807 0072 11       		.uleb128 0x11
 3808 0073 10       		.byte	0x10
 3809 0074 04       		.byte	0x4
 3810 0075 21010000 		.long	.LASF8
 3811 0079 11       		.uleb128 0x11
 3812 007a 01       		.byte	0x1
 3813 007b 08       		.byte	0x8
 3814 007c 5D0A0000 		.long	.LASF9
 3815 0080 11       		.uleb128 0x11
 3816 0081 04       		.byte	0x4
 3817 0082 07       		.byte	0x7
 3818 0083 AA090000 		.long	.LASF10
 3819 0087 11       		.uleb128 0x11
 3820 0088 01       		.byte	0x1
 3821 0089 06       		.byte	0x6
 3822 008a 860B0000 		.long	.LASF11
 3823 008e 04       		.uleb128 0x4
 3824 008f 61090000 		.long	.LASF13
 3825 0093 07       		.byte	0x7
 3826 0094 26       		.byte	0x26
 3827 0095 17       		.byte	0x17
 3828 0096 79000000 		.long	0x79
 3829 009a 11       		.uleb128 0x11
 3830 009b 02       		.byte	0x2
 3831 009c 05       		.byte	0x5
 3832 009d B0070000 		.long	.LASF14
 3833 00a1 04       		.uleb128 0x4
 3834 00a2 3C010000 		.long	.LASF15
 3835 00a6 07       		.byte	0x7
 3836 00a7 29       		.byte	0x29
 3837 00a8 14       		.byte	0x14
 3838 00a9 40000000 		.long	0x40
 3839 00ad 04       		.uleb128 0x4
GAS LISTING /tmp/ccoiMs3n.s 			page 72


 3840 00ae 6B0A0000 		.long	.LASF16
 3841 00b2 07       		.byte	0x7
 3842 00b3 2A       		.byte	0x2a
 3843 00b4 16       		.byte	0x16
 3844 00b5 32000000 		.long	0x32
 3845 00b9 04       		.uleb128 0x4
 3846 00ba 4B040000 		.long	.LASF17
 3847 00be 07       		.byte	0x7
 3848 00bf 30       		.byte	0x30
 3849 00c0 2E       		.byte	0x2e
 3850 00c1 C5000000 		.long	0xc5
 3851 00c5 11       		.uleb128 0x11
 3852 00c6 08       		.byte	0x8
 3853 00c7 07       		.byte	0x7
 3854 00c8 A1020000 		.long	.LASF18
 3855 00cc 32       		.uleb128 0x32
 3856 00cd 04       		.byte	0x4
 3857 00ce 07       		.uleb128 0x7
 3858 00cf 51000000 		.long	0x51
 3859 00d3 04       		.uleb128 0x4
 3860 00d4 F1090000 		.long	.LASF19
 3861 00d8 08       		.byte	0x8
 3862 00d9 1A       		.byte	0x1a
 3863 00da 13       		.byte	0x13
 3864 00db A1000000 		.long	0xa1
 3865 00df 04       		.uleb128 0x4
 3866 00e0 16050000 		.long	.LASF20
 3867 00e4 09       		.byte	0x9
 3868 00e5 18       		.byte	0x18
 3869 00e6 13       		.byte	0x13
 3870 00e7 8E000000 		.long	0x8e
 3871 00eb 04       		.uleb128 0x4
 3872 00ec 2F020000 		.long	.LASF21
 3873 00f0 09       		.byte	0x9
 3874 00f1 1A       		.byte	0x1a
 3875 00f2 14       		.byte	0x14
 3876 00f3 AD000000 		.long	0xad
 3877 00f7 04       		.uleb128 0x4
 3878 00f8 08090000 		.long	.LASF22
 3879 00fc 09       		.byte	0x9
 3880 00fd 1B       		.byte	0x1b
 3881 00fe 14       		.byte	0x14
 3882 00ff B9000000 		.long	0xb9
 3883 0103 29       		.uleb128 0x29
 3884 0104 F7000000 		.long	0xf7
 3885 0108 04       		.uleb128 0x4
 3886 0109 F3060000 		.long	.LASF23
 3887 010d 0A       		.byte	0xa
 3888 010e 38       		.byte	0x38
 3889 010f 1D       		.byte	0x1d
 3890 0110 DF000000 		.long	0xdf
 3891 0114 04       		.uleb128 0x4
 3892 0115 E9040000 		.long	.LASF24
 3893 0119 0A       		.byte	0xa
 3894 011a 39       		.byte	0x39
 3895 011b 1D       		.byte	0x1d
 3896 011c DF000000 		.long	0xdf
GAS LISTING /tmp/ccoiMs3n.s 			page 73


 3897 0120 04       		.uleb128 0x4
 3898 0121 A2090000 		.long	.LASF25
 3899 0125 0A       		.byte	0xa
 3900 0126 3A       		.byte	0x3a
 3901 0127 1D       		.byte	0x1d
 3902 0128 DF000000 		.long	0xdf
 3903 012c 04       		.uleb128 0x4
 3904 012d 71020000 		.long	.LASF26
 3905 0131 0A       		.byte	0xa
 3906 0132 3C       		.byte	0x3c
 3907 0133 1D       		.byte	0x1d
 3908 0134 EB000000 		.long	0xeb
 3909 0138 04       		.uleb128 0x4
 3910 0139 BB050000 		.long	.LASF27
 3911 013d 0A       		.byte	0xa
 3912 013e 3D       		.byte	0x3d
 3913 013f 1D       		.byte	0x1d
 3914 0140 D3000000 		.long	0xd3
 3915 0144 04       		.uleb128 0x4
 3916 0145 58020000 		.long	.LASF28
 3917 0149 0A       		.byte	0xa
 3918 014a 3F       		.byte	0x3f
 3919 014b 1D       		.byte	0x1d
 3920 014c EB000000 		.long	0xeb
 3921 0150 04       		.uleb128 0x4
 3922 0151 D7020000 		.long	.LASF29
 3923 0155 0A       		.byte	0xa
 3924 0156 41       		.byte	0x41
 3925 0157 1D       		.byte	0x1d
 3926 0158 D3000000 		.long	0xd3
 3927 015c 04       		.uleb128 0x4
 3928 015d FB060000 		.long	.LASF30
 3929 0161 0A       		.byte	0xa
 3930 0162 42       		.byte	0x42
 3931 0163 1D       		.byte	0x1d
 3932 0164 EB000000 		.long	0xeb
 3933 0168 04       		.uleb128 0x4
 3934 0169 320C0000 		.long	.LASF31
 3935 016d 0B       		.byte	0xb
 3936 016e 80       		.byte	0x80
 3937 016f 12       		.byte	0x12
 3938 0170 32000000 		.long	0x32
 3939 0174 04       		.uleb128 0x4
 3940 0175 A3030000 		.long	.LASF32
 3941 0179 0B       		.byte	0xb
 3942 017a 85       		.byte	0x85
 3943 017b 1A       		.byte	0x1a
 3944 017c 80010000 		.long	0x180
 3945 0180 0A       		.uleb128 0xa
 3946 0181 36050000 		.long	.LASF49
 3947 0185 50       		.byte	0x50
 3948 0186 0C       		.byte	0xc
 3949 0187 A9       		.byte	0xa9
 3950 0188 08       		.byte	0x8
 3951 0189 7C020000 		.long	0x27c
 3952 018d 0B       		.uleb128 0xb
 3953 018e 68647200 		.string	"hdr"
GAS LISTING /tmp/ccoiMs3n.s 			page 74


 3954 0192 0C       		.byte	0xc
 3955 0193 BA       		.byte	0xba
 3956 0194 05       		.byte	0x5
 3957 0195 F1050000 		.long	0x5f1
 3958 0199 00       		.byte	0
 3959 019a 0B       		.uleb128 0xb
 3960 019b 63747800 		.string	"ctx"
 3961 019f 0C       		.byte	0xc
 3962 01a0 BE       		.byte	0xbe
 3963 01a1 21       		.byte	0x21
 3964 01a2 0F050000 		.long	0x50f
 3965 01a6 0C       		.byte	0xc
 3966 01a7 03       		.uleb128 0x3
 3967 01a8 39030000 		.long	.LASF33
 3968 01ac 0C       		.byte	0xc
 3969 01ad C2       		.byte	0xc2
 3970 01ae 22       		.byte	0x22
 3971 01af F6060000 		.long	0x6f6
 3972 01b3 10       		.byte	0x10
 3973 01b4 03       		.uleb128 0x3
 3974 01b5 E2040000 		.long	.LASF34
 3975 01b9 0C       		.byte	0xc
 3976 01ba C8       		.byte	0xc8
 3977 01bb 22       		.byte	0x22
 3978 01bc FB060000 		.long	0x6fb
 3979 01c0 14       		.byte	0x14
 3980 01c1 03       		.uleb128 0x3
 3981 01c2 B9080000 		.long	.LASF35
 3982 01c6 0C       		.byte	0xc
 3983 01c7 CD       		.byte	0xcd
 3984 01c8 21       		.byte	0x21
 3985 01c9 FB060000 		.long	0x6fb
 3986 01cd 18       		.byte	0x18
 3987 01ce 03       		.uleb128 0x3
 3988 01cf F10A0000 		.long	.LASF36
 3989 01d3 0C       		.byte	0xc
 3990 01d4 D1       		.byte	0xd1
 3991 01d5 21       		.byte	0x21
 3992 01d6 14010000 		.long	0x114
 3993 01da 1C       		.byte	0x1c
 3994 01db 03       		.uleb128 0x3
 3995 01dc 9D000000 		.long	.LASF37
 3996 01e0 0C       		.byte	0xc
 3997 01e1 D5       		.byte	0xd5
 3998 01e2 21       		.byte	0x21
 3999 01e3 08010000 		.long	0x108
 4000 01e7 1D       		.byte	0x1d
 4001 01e8 03       		.uleb128 0x3
 4002 01e9 46010000 		.long	.LASF38
 4003 01ed 0C       		.byte	0xc
 4004 01ee DA       		.byte	0xda
 4005 01ef 21       		.byte	0x21
 4006 01f0 20010000 		.long	0x120
 4007 01f4 1E       		.byte	0x1e
 4008 01f5 03       		.uleb128 0x3
 4009 01f6 8C090000 		.long	.LASF39
 4010 01fa 0C       		.byte	0xc
GAS LISTING /tmp/ccoiMs3n.s 			page 75


 4011 01fb DE       		.byte	0xde
 4012 01fc 22       		.byte	0x22
 4013 01fd 47000000 		.long	0x47
 4014 0201 20       		.byte	0x20
 4015 0202 03       		.uleb128 0x3
 4016 0203 F2040000 		.long	.LASF40
 4017 0207 0C       		.byte	0xc
 4018 0208 E2       		.byte	0xe2
 4019 0209 21       		.byte	0x21
 4020 020a B8030000 		.long	0x3b8
 4021 020e 24       		.byte	0x24
 4022 020f 03       		.uleb128 0x3
 4023 0210 62000000 		.long	.LASF41
 4024 0214 0C       		.byte	0xc
 4025 0215 E8       		.byte	0xe8
 4026 0216 21       		.byte	0x21
 4027 0217 D5050000 		.long	0x5d5
 4028 021b 2C       		.byte	0x2c
 4029 021c 03       		.uleb128 0x3
 4030 021d 1B040000 		.long	.LASF42
 4031 0221 0C       		.byte	0xc
 4032 0222 EE       		.byte	0xee
 4033 0223 22       		.byte	0x22
 4034 0224 CC000000 		.long	0xcc
 4035 0228 30       		.byte	0x30
 4036 0229 2A       		.uleb128 0x2a
 4037 022a 7500     		.string	"u"
 4038 022c 0C       		.byte	0xc
 4039 022d 3F01     		.value	0x13f
 4040 022f 21       		.byte	0x21
 4041 0230 1F060000 		.long	0x61f
 4042 0234 34       		.byte	0x34
 4043 0235 08       		.uleb128 0x8
 4044 0236 760A0000 		.long	.LASF43
 4045 023a 0C       		.byte	0xc
 4046 023b 4401     		.value	0x144
 4047 023d 21       		.byte	0x21
 4048 023e 8C030000 		.long	0x38c
 4049 0242 38       		.byte	0x38
 4050 0243 08       		.uleb128 0x8
 4051 0244 2D050000 		.long	.LASF44
 4052 0248 0C       		.byte	0xc
 4053 0249 4A01     		.value	0x14a
 4054 024b 21       		.byte	0x21
 4055 024c B8030000 		.long	0x3b8
 4056 0250 3C       		.byte	0x3c
 4057 0251 08       		.uleb128 0x8
 4058 0252 E9000000 		.long	.LASF45
 4059 0256 0C       		.byte	0xc
 4060 0257 5001     		.value	0x150
 4061 0259 21       		.byte	0x21
 4062 025a 44010000 		.long	0x144
 4063 025e 44       		.byte	0x44
 4064 025f 08       		.uleb128 0x8
 4065 0260 62030000 		.long	.LASF46
 4066 0264 0C       		.byte	0xc
 4067 0265 5701     		.value	0x157
GAS LISTING /tmp/ccoiMs3n.s 			page 76


 4068 0267 22       		.byte	0x22
 4069 0268 F1060000 		.long	0x6f1
 4070 026c 48       		.byte	0x48
 4071 026d 08       		.uleb128 0x8
 4072 026e AD000000 		.long	.LASF47
 4073 0272 0C       		.byte	0xc
 4074 0273 5B01     		.value	0x15b
 4075 0275 21       		.byte	0x21
 4076 0276 2C010000 		.long	0x12c
 4077 027a 4C       		.byte	0x4c
 4078 027b 00       		.byte	0
 4079 027c 04       		.uleb128 0x4
 4080 027d 1A0B0000 		.long	.LASF48
 4081 0281 0B       		.byte	0xb
 4082 0282 8A       		.byte	0x8a
 4083 0283 1F       		.byte	0x1f
 4084 0284 88020000 		.long	0x288
 4085 0288 1D       		.uleb128 0x1d
 4086 0289 6C040000 		.long	.LASF50
 4087 028d E0       		.byte	0xe0
 4088 028e 0C       		.byte	0xc
 4089 028f 9701     		.value	0x197
 4090 0291 08       		.byte	0x8
 4091 0292 15030000 		.long	0x315
 4092 0296 08       		.uleb128 0x8
 4093 0297 18090000 		.long	.LASF51
 4094 029b 0C       		.byte	0xc
 4095 029c 9B01     		.value	0x19b
 4096 029e 21       		.byte	0x21
 4097 029f 2B070000 		.long	0x72b
 4098 02a3 00       		.byte	0
 4099 02a4 08       		.uleb128 0x8
 4100 02a5 78010000 		.long	.LASF52
 4101 02a9 0C       		.byte	0xc
 4102 02aa 9F01     		.value	0x19f
 4103 02ac 21       		.byte	0x21
 4104 02ad 6A050000 		.long	0x56a
 4105 02b1 10       		.byte	0x10
 4106 02b2 08       		.uleb128 0x8
 4107 02b3 2F0B0000 		.long	.LASF53
 4108 02b7 0C       		.byte	0xc
 4109 02b8 A601     		.value	0x1a6
 4110 02ba 21       		.byte	0x21
 4111 02bb 91050000 		.long	0x591
 4112 02bf 28       		.byte	0x28
 4113 02c0 08       		.uleb128 0x8
 4114 02c1 2B010000 		.long	.LASF54
 4115 02c5 0C       		.byte	0xc
 4116 02c6 AB01     		.value	0x1ab
 4117 02c8 21       		.byte	0x21
 4118 02c9 68010000 		.long	0x168
 4119 02cd 30       		.byte	0x30
 4120 02ce 08       		.uleb128 0x8
 4121 02cf 81030000 		.long	.LASF55
 4122 02d3 0C       		.byte	0xc
 4123 02d4 B101     		.value	0x1b1
 4124 02d6 21       		.byte	0x21
GAS LISTING /tmp/ccoiMs3n.s 			page 77


 4125 02d7 3C030000 		.long	0x33c
 4126 02db 34       		.byte	0x34
 4127 02dc 08       		.uleb128 0x8
 4128 02dd 74070000 		.long	.LASF56
 4129 02e1 0C       		.byte	0xc
 4130 02e2 B601     		.value	0x1b6
 4131 02e4 22       		.byte	0x22
 4132 02e5 9D070000 		.long	0x79d
 4133 02e9 38       		.byte	0x38
 4134 02ea 08       		.uleb128 0x8
 4135 02eb 02070000 		.long	.LASF57
 4136 02ef 0C       		.byte	0xc
 4137 02f0 BA01     		.value	0x1ba
 4138 02f2 21       		.byte	0x21
 4139 02f3 74010000 		.long	0x174
 4140 02f7 3C       		.byte	0x3c
 4141 02f8 08       		.uleb128 0x8
 4142 02f9 E60A0000 		.long	.LASF58
 4143 02fd 0C       		.byte	0xc
 4144 02fe BF01     		.value	0x1bf
 4145 0300 21       		.byte	0x21
 4146 0301 74010000 		.long	0x174
 4147 0305 8C       		.byte	0x8c
 4148 0306 2A       		.uleb128 0x2a
 4149 0307 64626700 		.string	"dbg"
 4150 030b 0C       		.byte	0xc
 4151 030c C401     		.value	0x1c4
 4152 030e 21       		.byte	0x21
 4153 030f 63030000 		.long	0x363
 4154 0313 DC       		.byte	0xdc
 4155 0314 00       		.byte	0
 4156 0315 04       		.uleb128 0x4
 4157 0316 C3040000 		.long	.LASF59
 4158 031a 0D       		.byte	0xd
 4159 031b 3F       		.byte	0x3f
 4160 031c 12       		.byte	0x12
 4161 031d EB000000 		.long	0xeb
 4162 0321 0A       		.uleb128 0xa
 4163 0322 3E040000 		.long	.LASF60
 4164 0326 04       		.byte	0x4
 4165 0327 0D       		.byte	0xd
 4166 0328 44       		.byte	0x44
 4167 0329 10       		.byte	0x10
 4168 032a 3C030000 		.long	0x33c
 4169 032e 03       		.uleb128 0x3
 4170 032f 82060000 		.long	.LASF61
 4171 0333 0D       		.byte	0xd
 4172 0334 48       		.byte	0x48
 4173 0335 21       		.byte	0x21
 4174 0336 15030000 		.long	0x315
 4175 033a 00       		.byte	0
 4176 033b 00       		.byte	0
 4177 033c 04       		.uleb128 0x4
 4178 033d 1B0A0000 		.long	.LASF62
 4179 0341 0D       		.byte	0xd
 4180 0342 49       		.byte	0x49
 4181 0343 03       		.byte	0x3
GAS LISTING /tmp/ccoiMs3n.s 			page 78


 4182 0344 21030000 		.long	0x321
 4183 0348 0A       		.uleb128 0xa
 4184 0349 E5010000 		.long	.LASF63
 4185 034d 04       		.byte	0x4
 4186 034e 0E       		.byte	0xe
 4187 034f 3E       		.byte	0x3e
 4188 0350 10       		.byte	0x10
 4189 0351 63030000 		.long	0x363
 4190 0355 03       		.uleb128 0x3
 4191 0356 C1060000 		.long	.LASF64
 4192 035a 0E       		.byte	0xe
 4193 035b 46       		.byte	0x46
 4194 035c 24       		.byte	0x24
 4195 035d 4C000000 		.long	0x4c
 4196 0361 00       		.byte	0
 4197 0362 00       		.byte	0
 4198 0363 04       		.uleb128 0x4
 4199 0364 67050000 		.long	.LASF65
 4200 0368 0E       		.byte	0xe
 4201 0369 51       		.byte	0x51
 4202 036a 03       		.byte	0x3
 4203 036b 48030000 		.long	0x348
 4204 036f 04       		.uleb128 0x4
 4205 0370 A3000000 		.long	.LASF66
 4206 0374 0F       		.byte	0xf
 4207 0375 6D       		.byte	0x6d
 4208 0376 12       		.byte	0x12
 4209 0377 EB000000 		.long	0xeb
 4210 037b 29       		.uleb128 0x29
 4211 037c 6F030000 		.long	0x36f
 4212 0380 04       		.uleb128 0x4
 4213 0381 9F060000 		.long	.LASF67
 4214 0385 0F       		.byte	0xf
 4215 0386 79       		.byte	0x79
 4216 0387 12       		.byte	0x12
 4217 0388 EB000000 		.long	0xeb
 4218 038c 04       		.uleb128 0x4
 4219 038d 19070000 		.long	.LASF68
 4220 0391 10       		.byte	0x10
 4221 0392 32       		.byte	0x32
 4222 0393 18       		.byte	0x18
 4223 0394 98030000 		.long	0x398
 4224 0398 0A       		.uleb128 0xa
 4225 0399 9A010000 		.long	.LASF69
 4226 039d 04       		.byte	0x4
 4227 039e 10       		.byte	0x10
 4228 039f 38       		.byte	0x38
 4229 03a0 08       		.byte	0x8
 4230 03a1 B3030000 		.long	0x3b3
 4231 03a5 03       		.uleb128 0x3
 4232 03a6 17010000 		.long	.LASF70
 4233 03aa 10       		.byte	0x10
 4234 03ab 39       		.byte	0x39
 4235 03ac 1A       		.byte	0x1a
 4236 03ad B3030000 		.long	0x3b3
 4237 03b1 00       		.byte	0
 4238 03b2 00       		.byte	0
GAS LISTING /tmp/ccoiMs3n.s 			page 79


 4239 03b3 07       		.uleb128 0x7
 4240 03b4 8C030000 		.long	0x38c
 4241 03b8 04       		.uleb128 0x4
 4242 03b9 AD060000 		.long	.LASF71
 4243 03bd 10       		.byte	0x10
 4244 03be 3F       		.byte	0x3f
 4245 03bf 19       		.byte	0x19
 4246 03c0 C4030000 		.long	0x3c4
 4247 03c4 0A       		.uleb128 0xa
 4248 03c5 4C0A0000 		.long	.LASF72
 4249 03c9 08       		.byte	0x8
 4250 03ca 10       		.byte	0x10
 4251 03cb 45       		.byte	0x45
 4252 03cc 08       		.byte	0x8
 4253 03cd EC030000 		.long	0x3ec
 4254 03d1 03       		.uleb128 0x3
 4255 03d2 17010000 		.long	.LASF70
 4256 03d6 10       		.byte	0x10
 4257 03d7 46       		.byte	0x46
 4258 03d8 1A       		.byte	0x1a
 4259 03d9 EC030000 		.long	0x3ec
 4260 03dd 00       		.byte	0
 4261 03de 03       		.uleb128 0x3
 4262 03df BC010000 		.long	.LASF73
 4263 03e3 10       		.byte	0x10
 4264 03e4 47       		.byte	0x47
 4265 03e5 1A       		.byte	0x1a
 4266 03e6 EC030000 		.long	0x3ec
 4267 03ea 04       		.byte	0x4
 4268 03eb 00       		.byte	0
 4269 03ec 07       		.uleb128 0x7
 4270 03ed B8030000 		.long	0x3b8
 4271 03f1 04       		.uleb128 0x4
 4272 03f2 D2030000 		.long	.LASF74
 4273 03f6 10       		.byte	0x10
 4274 03f7 4E       		.byte	0x4e
 4275 03f8 22       		.byte	0x22
 4276 03f9 FD030000 		.long	0x3fd
 4277 03fd 0A       		.uleb128 0xa
 4278 03fe 290A0000 		.long	.LASF75
 4279 0402 0C       		.byte	0xc
 4280 0403 10       		.byte	0x10
 4281 0404 55       		.byte	0x55
 4282 0405 08       		.byte	0x8
 4283 0406 32040000 		.long	0x432
 4284 040a 03       		.uleb128 0x3
 4285 040b 17010000 		.long	.LASF70
 4286 040f 10       		.byte	0x10
 4287 0410 56       		.byte	0x56
 4288 0411 1A       		.byte	0x1a
 4289 0412 32040000 		.long	0x432
 4290 0416 00       		.byte	0
 4291 0417 03       		.uleb128 0x3
 4292 0418 BC010000 		.long	.LASF73
 4293 041c 10       		.byte	0x10
 4294 041d 57       		.byte	0x57
 4295 041e 1A       		.byte	0x1a
GAS LISTING /tmp/ccoiMs3n.s 			page 80


 4296 041f 32040000 		.long	0x432
 4297 0423 04       		.byte	0x4
 4298 0424 03       		.uleb128 0x3
 4299 0425 80040000 		.long	.LASF76
 4300 0429 10       		.byte	0x10
 4301 042a 58       		.byte	0x58
 4302 042b 19       		.byte	0x19
 4303 042c 2C010000 		.long	0x12c
 4304 0430 08       		.byte	0x8
 4305 0431 00       		.byte	0
 4306 0432 07       		.uleb128 0x7
 4307 0433 F1030000 		.long	0x3f1
 4308 0437 04       		.uleb128 0x4
 4309 0438 B3040000 		.long	.LASF77
 4310 043c 10       		.byte	0x10
 4311 043d 5F       		.byte	0x5f
 4312 043e 1E       		.byte	0x1e
 4313 043f 43040000 		.long	0x443
 4314 0443 0A       		.uleb128 0xa
 4315 0444 21020000 		.long	.LASF78
 4316 0448 0C       		.byte	0xc
 4317 0449 10       		.byte	0x10
 4318 044a 64       		.byte	0x64
 4319 044b 08       		.byte	0x8
 4320 044c 78040000 		.long	0x478
 4321 0450 03       		.uleb128 0x3
 4322 0451 17010000 		.long	.LASF70
 4323 0455 10       		.byte	0x10
 4324 0456 65       		.byte	0x65
 4325 0457 1A       		.byte	0x1a
 4326 0458 78040000 		.long	0x478
 4327 045c 00       		.byte	0
 4328 045d 03       		.uleb128 0x3
 4329 045e BC010000 		.long	.LASF73
 4330 0462 10       		.byte	0x10
 4331 0463 66       		.byte	0x66
 4332 0464 1A       		.byte	0x1a
 4333 0465 78040000 		.long	0x478
 4334 0469 04       		.byte	0x4
 4335 046a 03       		.uleb128 0x3
 4336 046b 920B0000 		.long	.LASF79
 4337 046f 10       		.byte	0x10
 4338 0470 67       		.byte	0x67
 4339 0471 19       		.byte	0x19
 4340 0472 80030000 		.long	0x380
 4341 0476 08       		.byte	0x8
 4342 0477 00       		.byte	0
 4343 0478 07       		.uleb128 0x7
 4344 0479 37040000 		.long	0x437
 4345 047d 07       		.uleb128 0x7
 4346 047e DF000000 		.long	0xdf
 4347 0482 16       		.uleb128 0x16
 4348 0483 10       		.byte	0x10
 4349 0484 11       		.byte	0x11
 4350 0485 87       		.byte	0x87
 4351 0486 09       		.byte	0x9
 4352 0487 97040000 		.long	0x497
GAS LISTING /tmp/ccoiMs3n.s 			page 81


 4353 048b 0B       		.uleb128 0xb
 4354 048c 6100     		.string	"a"
 4355 048e 11       		.byte	0x11
 4356 048f 88       		.byte	0x88
 4357 0490 0B       		.byte	0xb
 4358 0491 97040000 		.long	0x497
 4359 0495 00       		.byte	0
 4360 0496 00       		.byte	0
 4361 0497 21       		.uleb128 0x21
 4362 0498 DF000000 		.long	0xdf
 4363 049c A7040000 		.long	0x4a7
 4364 04a0 22       		.uleb128 0x22
 4365 04a1 32000000 		.long	0x32
 4366 04a5 0F       		.byte	0xf
 4367 04a6 00       		.byte	0
 4368 04a7 33       		.uleb128 0x33
 4369 04a8 02030000 		.long	.LASF241
 4370 04ac 11       		.byte	0x11
 4371 04ad 89       		.byte	0x89
 4372 04ae 03       		.byte	0x3
 4373 04af 82040000 		.long	0x482
 4374 04b3 10       		.byte	0x10
 4375 04b4 04       		.uleb128 0x4
 4376 04b5 280B0000 		.long	.LASF80
 4377 04b9 11       		.byte	0x11
 4378 04ba 8E       		.byte	0x8e
 4379 04bb 0F       		.byte	0xf
 4380 04bc CC000000 		.long	0xcc
 4381 04c0 0A       		.uleb128 0xa
 4382 04c1 CF070000 		.long	.LASF81
 4383 04c5 14       		.byte	0x14
 4384 04c6 11       		.byte	0x11
 4385 04c7 9D       		.byte	0x9d
 4386 04c8 08       		.byte	0x8
 4387 04c9 0F050000 		.long	0x50f
 4388 04cd 0B       		.uleb128 0xb
 4389 04ce 65627800 		.string	"ebx"
 4390 04d2 11       		.byte	0x11
 4391 04d3 9E       		.byte	0x9e
 4392 04d4 0B       		.byte	0xb
 4393 04d5 B4040000 		.long	0x4b4
 4394 04d9 00       		.byte	0
 4395 04da 0B       		.uleb128 0xb
 4396 04db 65646900 		.string	"edi"
 4397 04df 11       		.byte	0x11
 4398 04e0 9F       		.byte	0x9f
 4399 04e1 0B       		.byte	0xb
 4400 04e2 B4040000 		.long	0x4b4
 4401 04e6 04       		.byte	0x4
 4402 04e7 0B       		.uleb128 0xb
 4403 04e8 65736900 		.string	"esi"
 4404 04ec 11       		.byte	0x11
 4405 04ed A0       		.byte	0xa0
 4406 04ee 0B       		.byte	0xb
 4407 04ef B4040000 		.long	0x4b4
 4408 04f3 08       		.byte	0x8
 4409 04f4 0B       		.uleb128 0xb
GAS LISTING /tmp/ccoiMs3n.s 			page 82


 4410 04f5 65627000 		.string	"ebp"
 4411 04f9 11       		.byte	0x11
 4412 04fa A1       		.byte	0xa1
 4413 04fb 0B       		.byte	0xb
 4414 04fc B4040000 		.long	0x4b4
 4415 0500 0C       		.byte	0xc
 4416 0501 0B       		.uleb128 0xb
 4417 0502 65697000 		.string	"eip"
 4418 0506 11       		.byte	0x11
 4419 0507 A2       		.byte	0xa2
 4420 0508 0B       		.byte	0xb
 4421 0509 B4040000 		.long	0x4b4
 4422 050d 10       		.byte	0x10
 4423 050e 00       		.byte	0
 4424 050f 0A       		.uleb128 0xa
 4425 0510 7F010000 		.long	.LASF82
 4426 0514 04       		.byte	0x4
 4427 0515 11       		.byte	0x11
 4428 0516 AA       		.byte	0xaa
 4429 0517 08       		.byte	0x8
 4430 0518 29050000 		.long	0x529
 4431 051c 0B       		.uleb128 0xb
 4432 051d 737000   		.string	"sp"
 4433 0520 11       		.byte	0x11
 4434 0521 AB       		.byte	0xab
 4435 0522 17       		.byte	0x17
 4436 0523 29050000 		.long	0x529
 4437 0527 00       		.byte	0
 4438 0528 00       		.byte	0
 4439 0529 07       		.uleb128 0x7
 4440 052a C0040000 		.long	0x4c0
 4441 052e 11       		.uleb128 0x11
 4442 052f 01       		.byte	0x1
 4443 0530 02       		.byte	0x2
 4444 0531 15040000 		.long	.LASF83
 4445 0535 0A       		.uleb128 0xa
 4446 0536 6A030000 		.long	.LASF84
 4447 053a 18       		.byte	0x18
 4448 053b 0C       		.byte	0xc
 4449 053c 64       		.byte	0x64
 4450 053d 10       		.byte	0x10
 4451 053e 6A050000 		.long	0x56a
 4452 0542 03       		.uleb128 0x3
 4453 0543 F9080000 		.long	.LASF85
 4454 0547 0C       		.byte	0xc
 4455 0548 68       		.byte	0x68
 4456 0549 21       		.byte	0x21
 4457 054a 37040000 		.long	0x437
 4458 054e 00       		.byte	0
 4459 054f 03       		.uleb128 0x3
 4460 0550 81000000 		.long	.LASF86
 4461 0554 0C       		.byte	0xc
 4462 0555 6D       		.byte	0x6d
 4463 0556 21       		.byte	0x21
 4464 0557 7B030000 		.long	0x37b
 4465 055b 0C       		.byte	0xc
 4466 055c 03       		.uleb128 0x3
GAS LISTING /tmp/ccoiMs3n.s 			page 83


 4467 055d AB010000 		.long	.LASF87
 4468 0561 0C       		.byte	0xc
 4469 0562 81       		.byte	0x81
 4470 0563 21       		.byte	0x21
 4471 0564 03010000 		.long	0x103
 4472 0568 10       		.byte	0x10
 4473 0569 00       		.byte	0
 4474 056a 04       		.uleb128 0x4
 4475 056b 7E0A0000 		.long	.LASF88
 4476 056f 0C       		.byte	0xc
 4477 0570 83       		.byte	0x83
 4478 0571 03       		.byte	0x3
 4479 0572 35050000 		.long	0x535
 4480 0576 0A       		.uleb128 0xa
 4481 0577 75000000 		.long	.LASF89
 4482 057b 08       		.byte	0x8
 4483 057c 0C       		.byte	0xc
 4484 057d 88       		.byte	0x88
 4485 057e 10       		.byte	0x10
 4486 057f 91050000 		.long	0x591
 4487 0583 03       		.uleb128 0x3
 4488 0584 D7090000 		.long	.LASF90
 4489 0588 0C       		.byte	0xc
 4490 0589 8C       		.byte	0x8c
 4491 058a 21       		.byte	0x21
 4492 058b B8030000 		.long	0x3b8
 4493 058f 00       		.byte	0
 4494 0590 00       		.byte	0
 4495 0591 04       		.uleb128 0x4
 4496 0592 3B060000 		.long	.LASF91
 4497 0596 0C       		.byte	0xc
 4498 0597 8D       		.byte	0x8d
 4499 0598 03       		.byte	0x3
 4500 0599 76050000 		.long	0x576
 4501 059d 04       		.uleb128 0x4
 4502 059e CF040000 		.long	.LASF92
 4503 05a2 0C       		.byte	0xc
 4504 05a3 92       		.byte	0x92
 4505 05a4 14       		.byte	0x14
 4506 05a5 A9050000 		.long	0x5a9
 4507 05a9 07       		.uleb128 0x7
 4508 05aa 74010000 		.long	0x174
 4509 05ae 0A       		.uleb128 0xa
 4510 05af C1010000 		.long	.LASF93
 4511 05b3 08       		.byte	0x8
 4512 05b4 0C       		.byte	0xc
 4513 05b5 97       		.byte	0x97
 4514 05b6 10       		.byte	0x10
 4515 05b7 C9050000 		.long	0x5c9
 4516 05bb 03       		.uleb128 0x3
 4517 05bc D7090000 		.long	.LASF90
 4518 05c0 0C       		.byte	0xc
 4519 05c1 9B       		.byte	0x9b
 4520 05c2 21       		.byte	0x21
 4521 05c3 B8030000 		.long	0x3b8
 4522 05c7 00       		.byte	0
 4523 05c8 00       		.byte	0
GAS LISTING /tmp/ccoiMs3n.s 			page 84


 4524 05c9 04       		.uleb128 0x4
 4525 05ca 52030000 		.long	.LASF94
 4526 05ce 0C       		.byte	0xc
 4527 05cf 9C       		.byte	0x9c
 4528 05d0 03       		.byte	0x3
 4529 05d1 AE050000 		.long	0x5ae
 4530 05d5 04       		.uleb128 0x4
 4531 05d6 8E060000 		.long	.LASF95
 4532 05da 0C       		.byte	0xc
 4533 05db A1       		.byte	0xa1
 4534 05dc 10       		.byte	0x10
 4535 05dd E1050000 		.long	0x5e1
 4536 05e1 07       		.uleb128 0x7
 4537 05e2 E6050000 		.long	0x5e6
 4538 05e6 34       		.uleb128 0x34
 4539 05e7 F1050000 		.long	0x5f1
 4540 05eb 06       		.uleb128 0x6
 4541 05ec A9050000 		.long	0x5a9
 4542 05f0 00       		.byte	0
 4543 05f1 35       		.uleb128 0x35
 4544 05f2 0C       		.byte	0xc
 4545 05f3 0C       		.byte	0xc
 4546 05f4 AD       		.byte	0xad
 4547 05f5 03       		.byte	0x3
 4548 05f6 1F060000 		.long	0x61f
 4549 05fa 23       		.uleb128 0x23
 4550 05fb 1C020000 		.long	.LASF96
 4551 05ff 0C       		.byte	0xc
 4552 0600 B1       		.byte	0xb1
 4553 0601 21       		.byte	0x21
 4554 0602 8C030000 		.long	0x38c
 4555 0606 23       		.uleb128 0x23
 4556 0607 D7090000 		.long	.LASF90
 4557 060b 0C       		.byte	0xc
 4558 060c B5       		.byte	0xb5
 4559 060d 21       		.byte	0x21
 4560 060e B8030000 		.long	0x3b8
 4561 0612 23       		.uleb128 0x23
 4562 0613 D0020000 		.long	.LASF97
 4563 0617 0C       		.byte	0xc
 4564 0618 B9       		.byte	0xb9
 4565 0619 21       		.byte	0x21
 4566 061a F1030000 		.long	0x3f1
 4567 061e 00       		.byte	0
 4568 061f 36       		.uleb128 0x36
 4569 0620 04       		.byte	0x4
 4570 0621 0C       		.byte	0xc
 4571 0622 0201     		.value	0x102
 4572 0624 03       		.byte	0x3
 4573 0625 8A060000 		.long	0x68a
 4574 0629 17       		.uleb128 0x17
 4575 062a BF030000 		.long	.LASF98
 4576 062e 0901     		.value	0x109
 4577 0630 21       		.byte	0x21
 4578 0631 38010000 		.long	0x138
 4579 0635 17       		.uleb128 0x17
 4580 0636 040C0000 		.long	.LASF99
GAS LISTING /tmp/ccoiMs3n.s 			page 85


 4581 063a 1001     		.value	0x110
 4582 063c 21       		.byte	0x21
 4583 063d 38010000 		.long	0x138
 4584 0641 17       		.uleb128 0x17
 4585 0642 71010000 		.long	.LASF100
 4586 0646 1701     		.value	0x117
 4587 0648 22       		.byte	0x22
 4588 0649 CC000000 		.long	0xcc
 4589 064d 17       		.uleb128 0x17
 4590 064e 4E0B0000 		.long	.LASF101
 4591 0652 1E01     		.value	0x11e
 4592 0654 22       		.byte	0x22
 4593 0655 8A060000 		.long	0x68a
 4594 0659 17       		.uleb128 0x17
 4595 065a 50020000 		.long	.LASF102
 4596 065e 2301     		.value	0x123
 4597 0660 21       		.byte	0x21
 4598 0661 38010000 		.long	0x138
 4599 0665 17       		.uleb128 0x17
 4600 0666 220A0000 		.long	.LASF103
 4601 066a 2C01     		.value	0x12c
 4602 066c 22       		.byte	0x22
 4603 066d B7060000 		.long	0x6b7
 4604 0671 17       		.uleb128 0x17
 4605 0672 31000000 		.long	.LASF104
 4606 0676 3501     		.value	0x135
 4607 0678 22       		.byte	0x22
 4608 0679 F1060000 		.long	0x6f1
 4609 067d 17       		.uleb128 0x17
 4610 067e B5010000 		.long	.LASF105
 4611 0682 3D01     		.value	0x13d
 4612 0684 21       		.byte	0x21
 4613 0685 44010000 		.long	0x144
 4614 0689 00       		.byte	0
 4615 068a 07       		.uleb128 0x7
 4616 068b 9D050000 		.long	0x59d
 4617 068f 0A       		.uleb128 0xa
 4618 0690 64020000 		.long	.LASF106
 4619 0694 0C       		.byte	0xc
 4620 0695 12       		.byte	0x12
 4621 0696 34       		.byte	0x34
 4622 0697 10       		.byte	0x10
 4623 0698 B7060000 		.long	0x6b7
 4624 069c 03       		.uleb128 0x3
 4625 069d D7090000 		.long	.LASF90
 4626 06a1 12       		.byte	0x12
 4627 06a2 35       		.byte	0x35
 4628 06a3 19       		.byte	0x19
 4629 06a4 B8030000 		.long	0x3b8
 4630 06a8 00       		.byte	0
 4631 06a9 0B       		.uleb128 0xb
 4632 06aa 636E7400 		.string	"cnt"
 4633 06ae 12       		.byte	0x12
 4634 06af 37       		.byte	0x37
 4635 06b0 19       		.byte	0x19
 4636 06b1 50010000 		.long	0x150
 4637 06b5 08       		.byte	0x8
GAS LISTING /tmp/ccoiMs3n.s 			page 86


 4638 06b6 00       		.byte	0
 4639 06b7 07       		.uleb128 0x7
 4640 06b8 8F060000 		.long	0x68f
 4641 06bc 0A       		.uleb128 0xa
 4642 06bd A2010000 		.long	.LASF107
 4643 06c1 10       		.byte	0x10
 4644 06c2 13       		.byte	0x13
 4645 06c3 39       		.byte	0x39
 4646 06c4 08       		.byte	0x8
 4647 06c5 F1060000 		.long	0x6f1
 4648 06c9 03       		.uleb128 0x3
 4649 06ca D7090000 		.long	.LASF90
 4650 06ce 13       		.byte	0x13
 4651 06cf 3A       		.byte	0x3a
 4652 06d0 19       		.byte	0x19
 4653 06d1 B8030000 		.long	0x3b8
 4654 06d5 00       		.byte	0
 4655 06d6 03       		.uleb128 0x3
 4656 06d7 39030000 		.long	.LASF33
 4657 06db 13       		.byte	0x13
 4658 06dc 3C       		.byte	0x3c
 4659 06dd 1A       		.byte	0x1a
 4660 06de A9050000 		.long	0x5a9
 4661 06e2 08       		.byte	0x8
 4662 06e3 03       		.uleb128 0x3
 4663 06e4 17010000 		.long	.LASF70
 4664 06e8 13       		.byte	0x13
 4665 06e9 3E       		.byte	0x3e
 4666 06ea 1A       		.byte	0x1a
 4667 06eb BA070000 		.long	0x7ba
 4668 06ef 0C       		.byte	0xc
 4669 06f0 00       		.byte	0
 4670 06f1 07       		.uleb128 0x7
 4671 06f2 BC060000 		.long	0x6bc
 4672 06f6 07       		.uleb128 0x7
 4673 06f7 7C020000 		.long	0x27c
 4674 06fb 07       		.uleb128 0x7
 4675 06fc A7040000 		.long	0x4a7
 4676 0700 1D       		.uleb128 0x1d
 4677 0701 8C010000 		.long	.LASF108
 4678 0705 10       		.byte	0x10
 4679 0706 0C       		.byte	0xc
 4680 0707 6C01     		.value	0x16c
 4681 0709 10       		.byte	0x10
 4682 070a 2B070000 		.long	0x72b
 4683 070e 08       		.uleb128 0x8
 4684 070f D0020000 		.long	.LASF97
 4685 0713 0C       		.byte	0xc
 4686 0714 7101     		.value	0x171
 4687 0716 21       		.byte	0x21
 4688 0717 F1030000 		.long	0x3f1
 4689 071b 00       		.byte	0
 4690 071c 08       		.uleb128 0x8
 4691 071d AB0B0000 		.long	.LASF109
 4692 0721 0C       		.byte	0xc
 4693 0722 7501     		.value	0x175
 4694 0724 22       		.byte	0x22
GAS LISTING /tmp/ccoiMs3n.s 			page 87


 4695 0725 A9050000 		.long	0x5a9
 4696 0729 0C       		.byte	0xc
 4697 072a 00       		.byte	0
 4698 072b 24       		.uleb128 0x24
 4699 072c BC090000 		.long	.LASF110
 4700 0730 0C       		.byte	0xc
 4701 0731 7601     		.value	0x176
 4702 0733 00070000 		.long	0x700
 4703 0737 1D       		.uleb128 0x1d
 4704 0738 E3080000 		.long	.LASF111
 4705 073c 14       		.byte	0x14
 4706 073d 0C       		.byte	0xc
 4707 073e 7B01     		.value	0x17b
 4708 0740 10       		.byte	0x10
 4709 0741 8C070000 		.long	0x78c
 4710 0745 08       		.uleb128 0x8
 4711 0746 8C090000 		.long	.LASF39
 4712 074a 0C       		.byte	0xc
 4713 074b 7F01     		.value	0x17f
 4714 074d 22       		.byte	0x22
 4715 074e 47000000 		.long	0x47
 4716 0752 00       		.byte	0
 4717 0753 08       		.uleb128 0x8
 4718 0754 11000000 		.long	.LASF112
 4719 0758 0C       		.byte	0xc
 4720 0759 8301     		.value	0x183
 4721 075b 22       		.byte	0x22
 4722 075c FB060000 		.long	0x6fb
 4723 0760 04       		.byte	0x4
 4724 0761 08       		.uleb128 0x8
 4725 0762 D8080000 		.long	.LASF113
 4726 0766 0C       		.byte	0xc
 4727 0767 8701     		.value	0x187
 4728 0769 22       		.byte	0x22
 4729 076a FB060000 		.long	0x6fb
 4730 076e 08       		.byte	0x8
 4731 076f 08       		.uleb128 0x8
 4732 0770 DB060000 		.long	.LASF114
 4733 0774 0C       		.byte	0xc
 4734 0775 8C01     		.value	0x18c
 4735 0777 22       		.byte	0x22
 4736 0778 FB060000 		.long	0x6fb
 4737 077c 0C       		.byte	0xc
 4738 077d 08       		.uleb128 0x8
 4739 077e 57060000 		.long	.LASF115
 4740 0782 0C       		.byte	0xc
 4741 0783 9001     		.value	0x190
 4742 0785 22       		.byte	0x22
 4743 0786 FB060000 		.long	0x6fb
 4744 078a 10       		.byte	0x10
 4745 078b 00       		.byte	0
 4746 078c 24       		.uleb128 0x24
 4747 078d 8C020000 		.long	.LASF116
 4748 0791 0C       		.byte	0xc
 4749 0792 9201     		.value	0x192
 4750 0794 37070000 		.long	0x737
 4751 0798 20       		.uleb128 0x20
GAS LISTING /tmp/ccoiMs3n.s 			page 88


 4752 0799 8C070000 		.long	0x78c
 4753 079d 07       		.uleb128 0x7
 4754 079e 98070000 		.long	0x798
 4755 07a2 04       		.uleb128 0x4
 4756 07a3 3F030000 		.long	.LASF117
 4757 07a7 12       		.byte	0x12
 4758 07a8 38       		.byte	0x38
 4759 07a9 03       		.byte	0x3
 4760 07aa 8F060000 		.long	0x68f
 4761 07ae 04       		.uleb128 0x4
 4762 07af 550A0000 		.long	.LASF118
 4763 07b3 13       		.byte	0x13
 4764 07b4 34       		.byte	0x34
 4765 07b5 19       		.byte	0x19
 4766 07b6 BC060000 		.long	0x6bc
 4767 07ba 07       		.uleb128 0x7
 4768 07bb AE070000 		.long	0x7ae
 4769 07bf 16       		.uleb128 0x16
 4770 07c0 08       		.byte	0x8
 4771 07c1 14       		.byte	0x14
 4772 07c2 32       		.byte	0x32
 4773 07c3 09       		.byte	0x9
 4774 07c4 E3070000 		.long	0x7e3
 4775 07c8 03       		.uleb128 0x3
 4776 07c9 79020000 		.long	.LASF119
 4777 07cd 14       		.byte	0x14
 4778 07ce 37       		.byte	0x37
 4779 07cf 22       		.byte	0x22
 4780 07d0 7D040000 		.long	0x47d
 4781 07d4 00       		.byte	0
 4782 07d5 03       		.uleb128 0x3
 4783 07d6 52060000 		.long	.LASF120
 4784 07da 14       		.byte	0x14
 4785 07db 3D       		.byte	0x3d
 4786 07dc 21       		.byte	0x21
 4787 07dd 26000000 		.long	0x26
 4788 07e1 04       		.byte	0x4
 4789 07e2 00       		.byte	0
 4790 07e3 04       		.uleb128 0x4
 4791 07e4 C9090000 		.long	.LASF121
 4792 07e8 14       		.byte	0x14
 4793 07e9 3E       		.byte	0x3e
 4794 07ea 03       		.byte	0x3
 4795 07eb BF070000 		.long	0x7bf
 4796 07ef 16       		.uleb128 0x16
 4797 07f0 28       		.byte	0x28
 4798 07f1 15       		.byte	0x15
 4799 07f2 34       		.byte	0x34
 4800 07f3 09       		.byte	0x9
 4801 07f4 5F080000 		.long	0x85f
 4802 07f8 03       		.uleb128 0x3
 4803 07f9 B6000000 		.long	.LASF122
 4804 07fd 15       		.byte	0x15
 4805 07fe 35       		.byte	0x35
 4806 07ff 1A       		.byte	0x1a
 4807 0800 5F080000 		.long	0x85f
 4808 0804 00       		.byte	0
GAS LISTING /tmp/ccoiMs3n.s 			page 89


 4809 0805 0B       		.uleb128 0xb
 4810 0806 746F7000 		.string	"top"
 4811 080a 15       		.byte	0x15
 4812 080b 37       		.byte	0x37
 4813 080c 1A       		.byte	0x1a
 4814 080d 5F080000 		.long	0x85f
 4815 0811 04       		.byte	0x4
 4816 0812 03       		.uleb128 0x3
 4817 0813 33030000 		.long	.LASF123
 4818 0817 15       		.byte	0x15
 4819 0818 39       		.byte	0x39
 4820 0819 1A       		.byte	0x1a
 4821 081a 5F080000 		.long	0x85f
 4822 081e 08       		.byte	0x8
 4823 081f 03       		.uleb128 0x3
 4824 0820 E50B0000 		.long	.LASF124
 4825 0824 15       		.byte	0x15
 4826 0825 3A       		.byte	0x3a
 4827 0826 1A       		.byte	0x1a
 4828 0827 5F080000 		.long	0x85f
 4829 082b 0C       		.byte	0xc
 4830 082c 0B       		.uleb128 0xb
 4831 082d 636E7400 		.string	"cnt"
 4832 0831 15       		.byte	0x15
 4833 0832 3B       		.byte	0x3b
 4834 0833 19       		.byte	0x19
 4835 0834 26000000 		.long	0x26
 4836 0838 10       		.byte	0x10
 4837 0839 03       		.uleb128 0x3
 4838 083a 42090000 		.long	.LASF125
 4839 083e 15       		.byte	0x15
 4840 083f 3C       		.byte	0x3c
 4841 0840 19       		.byte	0x19
 4842 0841 2E050000 		.long	0x52e
 4843 0845 14       		.byte	0x14
 4844 0846 0B       		.uleb128 0xb
 4845 0847 717700   		.string	"qw"
 4846 084a 15       		.byte	0x15
 4847 084b 3D       		.byte	0x3d
 4848 084c 19       		.byte	0x19
 4849 084d C9050000 		.long	0x5c9
 4850 0851 18       		.byte	0x18
 4851 0852 0B       		.uleb128 0xb
 4852 0853 717200   		.string	"qr"
 4853 0856 15       		.byte	0x15
 4854 0857 3E       		.byte	0x3e
 4855 0858 19       		.byte	0x19
 4856 0859 C9050000 		.long	0x5c9
 4857 085d 20       		.byte	0x20
 4858 085e 00       		.byte	0
 4859 085f 07       		.uleb128 0x7
 4860 0860 38010000 		.long	0x138
 4861 0864 04       		.uleb128 0x4
 4862 0865 34040000 		.long	.LASF126
 4863 0869 15       		.byte	0x15
 4864 086a 3F       		.byte	0x3f
 4865 086b 03       		.byte	0x3
GAS LISTING /tmp/ccoiMs3n.s 			page 90


 4866 086c EF070000 		.long	0x7ef
 4867 0870 04       		.uleb128 0x4
 4868 0871 7F090000 		.long	.LASF127
 4869 0875 01       		.byte	0x1
 4870 0876 47       		.byte	0x47
 4871 0877 11       		.byte	0x11
 4872 0878 7C080000 		.long	0x87c
 4873 087c 07       		.uleb128 0x7
 4874 087d 81080000 		.long	0x881
 4875 0881 2E       		.uleb128 0x2e
 4876 0882 CC000000 		.long	0xcc
 4877 0886 95080000 		.long	0x895
 4878 088a 06       		.uleb128 0x6
 4879 088b 26000000 		.long	0x26
 4880 088f 06       		.uleb128 0x6
 4881 0890 32000000 		.long	0x32
 4882 0894 00       		.byte	0
 4883 0895 04       		.uleb128 0x4
 4884 0896 D70B0000 		.long	.LASF128
 4885 089a 01       		.byte	0x1
 4886 089b 4C       		.byte	0x4c
 4887 089c 11       		.byte	0x11
 4888 089d A1080000 		.long	0x8a1
 4889 08a1 07       		.uleb128 0x7
 4890 08a2 A6080000 		.long	0x8a6
 4891 08a6 2E       		.uleb128 0x2e
 4892 08a7 CC000000 		.long	0xcc
 4893 08ab BF080000 		.long	0x8bf
 4894 08af 06       		.uleb128 0x6
 4895 08b0 26000000 		.long	0x26
 4896 08b4 06       		.uleb128 0x6
 4897 08b5 32000000 		.long	0x32
 4898 08b9 06       		.uleb128 0x6
 4899 08ba 26000000 		.long	0x26
 4900 08be 00       		.byte	0
 4901 08bf 04       		.uleb128 0x4
 4902 08c0 7E020000 		.long	.LASF129
 4903 08c4 16       		.byte	0x16
 4904 08c5 48       		.byte	0x48
 4905 08c6 1C       		.byte	0x1c
 4906 08c7 CB080000 		.long	0x8cb
 4907 08cb 0A       		.uleb128 0xa
 4908 08cc BA070000 		.long	.LASF130
 4909 08d0 24       		.byte	0x24
 4910 08d1 16       		.byte	0x16
 4911 08d2 72       		.byte	0x72
 4912 08d3 08       		.byte	0x8
 4913 08d4 0D090000 		.long	0x90d
 4914 08d8 03       		.uleb128 0x3
 4915 08d9 FF080000 		.long	.LASF131
 4916 08dd 16       		.byte	0x16
 4917 08de 76       		.byte	0x76
 4918 08df 19       		.byte	0x19
 4919 08e0 95080000 		.long	0x895
 4920 08e4 00       		.byte	0
 4921 08e5 03       		.uleb128 0x3
 4922 08e6 F1070000 		.long	.LASF132
GAS LISTING /tmp/ccoiMs3n.s 			page 91


 4923 08ea 16       		.byte	0x16
 4924 08eb 7A       		.byte	0x7a
 4925 08ec 19       		.byte	0x19
 4926 08ed E3070000 		.long	0x7e3
 4927 08f1 04       		.byte	0x4
 4928 08f2 03       		.uleb128 0x3
 4929 08f3 87060000 		.long	.LASF133
 4930 08f7 16       		.byte	0x16
 4931 08f8 7E       		.byte	0x7e
 4932 08f9 19       		.byte	0x19
 4933 08fa 0D090000 		.long	0x90d
 4934 08fe 0C       		.byte	0xc
 4935 08ff 0B       		.uleb128 0xb
 4936 0900 6D747800 		.string	"mtx"
 4937 0904 16       		.byte	0x16
 4938 0905 83       		.byte	0x83
 4939 0906 19       		.byte	0x19
 4940 0907 AE070000 		.long	0x7ae
 4941 090b 14       		.byte	0x14
 4942 090c 00       		.byte	0
 4943 090d 04       		.uleb128 0x4
 4944 090e 0D0C0000 		.long	.LASF134
 4945 0912 16       		.byte	0x16
 4946 0913 4D       		.byte	0x4d
 4947 0914 1B       		.byte	0x1b
 4948 0915 19090000 		.long	0x919
 4949 0919 37       		.uleb128 0x37
 4950 091a AC030000 		.long	.LASF242
 4951 091e 08       		.byte	0x8
 4952 091f 16       		.byte	0x16
 4953 0920 52       		.byte	0x52
 4954 0921 07       		.byte	0x7
 4955 0922 3F090000 		.long	0x93f
 4956 0926 23       		.uleb128 0x23
 4957 0927 46040000 		.long	.LASF135
 4958 092b 16       		.byte	0x16
 4959 092c 5F       		.byte	0x5f
 4960 092d 05       		.byte	0x5
 4961 092e 3F090000 		.long	0x93f
 4962 0932 23       		.uleb128 0x23
 4963 0933 9E030000 		.long	.LASF136
 4964 0937 16       		.byte	0x16
 4965 0938 6C       		.byte	0x6c
 4966 0939 05       		.byte	0x5
 4967 093a 68090000 		.long	0x968
 4968 093e 00       		.byte	0
 4969 093f 16       		.uleb128 0x16
 4970 0940 08       		.byte	0x8
 4971 0941 16       		.byte	0x16
 4972 0942 56       		.byte	0x56
 4973 0943 03       		.byte	0x3
 4974 0944 63090000 		.long	0x963
 4975 0948 03       		.uleb128 0x3
 4976 0949 17010000 		.long	.LASF70
 4977 094d 16       		.byte	0x16
 4978 094e 5A       		.byte	0x5a
 4979 094f 1A       		.byte	0x1a
GAS LISTING /tmp/ccoiMs3n.s 			page 92


 4980 0950 63090000 		.long	0x963
 4981 0954 00       		.byte	0
 4982 0955 03       		.uleb128 0x3
 4983 0956 40050000 		.long	.LASF137
 4984 095a 16       		.byte	0x16
 4985 095b 5E       		.byte	0x5e
 4986 095c 19       		.byte	0x19
 4987 095d 26000000 		.long	0x26
 4988 0961 04       		.byte	0x4
 4989 0962 00       		.byte	0
 4990 0963 07       		.uleb128 0x7
 4991 0964 0D090000 		.long	0x90d
 4992 0968 16       		.uleb128 0x16
 4993 0969 08       		.byte	0x8
 4994 096a 16       		.byte	0x16
 4995 096b 63       		.byte	0x63
 4996 096c 03       		.byte	0x3
 4997 096d 8C090000 		.long	0x98c
 4998 0971 03       		.uleb128 0x3
 4999 0972 4B010000 		.long	.LASF138
 5000 0976 16       		.byte	0x16
 5001 0977 67       		.byte	0x67
 5002 0978 1A       		.byte	0x1a
 5003 0979 8C090000 		.long	0x98c
 5004 097d 00       		.byte	0
 5005 097e 03       		.uleb128 0x3
 5006 097f 52060000 		.long	.LASF120
 5007 0983 16       		.byte	0x16
 5008 0984 6B       		.byte	0x6b
 5009 0985 19       		.byte	0x19
 5010 0986 26000000 		.long	0x26
 5011 098a 04       		.byte	0x4
 5012 098b 00       		.byte	0
 5013 098c 07       		.uleb128 0x7
 5014 098d BF080000 		.long	0x8bf
 5015 0991 0A       		.uleb128 0xa
 5016 0992 F70A0000 		.long	.LASF139
 5017 0996 04       		.byte	0x4
 5018 0997 03       		.byte	0x3
 5019 0998 38       		.byte	0x38
 5020 0999 08       		.byte	0x8
 5021 099a AC090000 		.long	0x9ac
 5022 099e 03       		.uleb128 0x3
 5023 099f 17010000 		.long	.LASF70
 5024 09a3 03       		.byte	0x3
 5025 09a4 39       		.byte	0x39
 5026 09a5 1A       		.byte	0x1a
 5027 09a6 AC090000 		.long	0x9ac
 5028 09aa 00       		.byte	0
 5029 09ab 00       		.byte	0
 5030 09ac 07       		.uleb128 0x7
 5031 09ad 91090000 		.long	0x991
 5032 09b1 16       		.uleb128 0x16
 5033 09b2 10       		.byte	0x10
 5034 09b3 03       		.byte	0x3
 5035 09b4 40       		.byte	0x40
 5036 09b5 09       		.byte	0x9
GAS LISTING /tmp/ccoiMs3n.s 			page 93


 5037 09b6 EF090000 		.long	0x9ef
 5038 09ba 03       		.uleb128 0x3
 5039 09bb 17010000 		.long	.LASF70
 5040 09bf 03       		.byte	0x3
 5041 09c0 41       		.byte	0x41
 5042 09c1 1A       		.byte	0x1a
 5043 09c2 AC090000 		.long	0x9ac
 5044 09c6 00       		.byte	0
 5045 09c7 03       		.uleb128 0x3
 5046 09c8 C6030000 		.long	.LASF140
 5047 09cc 03       		.byte	0x3
 5048 09cd 42       		.byte	0x42
 5049 09ce 19       		.byte	0x19
 5050 09cf 26000000 		.long	0x26
 5051 09d3 04       		.byte	0x4
 5052 09d4 03       		.uleb128 0x3
 5053 09d5 F90B0000 		.long	.LASF141
 5054 09d9 03       		.byte	0x3
 5055 09da 44       		.byte	0x44
 5056 09db 19       		.byte	0x19
 5057 09dc 32000000 		.long	0x32
 5058 09e0 08       		.byte	0x8
 5059 09e1 03       		.uleb128 0x3
 5060 09e2 FF080000 		.long	.LASF131
 5061 09e6 03       		.byte	0x3
 5062 09e7 45       		.byte	0x45
 5063 09e8 19       		.byte	0x19
 5064 09e9 70080000 		.long	0x870
 5065 09ed 0C       		.byte	0xc
 5066 09ee 00       		.byte	0
 5067 09ef 04       		.uleb128 0x4
 5068 09f0 38000000 		.long	.LASF142
 5069 09f4 03       		.byte	0x3
 5070 09f5 47       		.byte	0x47
 5071 09f6 03       		.byte	0x3
 5072 09f7 B1090000 		.long	0x9b1
 5073 09fb 16       		.uleb128 0x16
 5074 09fc 1C       		.byte	0x1c
 5075 09fd 03       		.byte	0x3
 5076 09fe 4D       		.byte	0x4d
 5077 09ff 09       		.byte	0x9
 5078 0a00 1F0A0000 		.long	0xa1f
 5079 0a04 0B       		.uleb128 0xb
 5080 0a05 73656D00 		.string	"sem"
 5081 0a09 03       		.byte	0x3
 5082 0a0a 4E       		.byte	0x4e
 5083 0a0b 19       		.byte	0x19
 5084 0a0c A2070000 		.long	0x7a2
 5085 0a10 00       		.byte	0
 5086 0a11 03       		.uleb128 0x3
 5087 0a12 7B040000 		.long	.LASF143
 5088 0a16 03       		.byte	0x3
 5089 0a17 50       		.byte	0x50
 5090 0a18 19       		.byte	0x19
 5091 0a19 EF090000 		.long	0x9ef
 5092 0a1d 0C       		.byte	0xc
 5093 0a1e 00       		.byte	0
GAS LISTING /tmp/ccoiMs3n.s 			page 94


 5094 0a1f 04       		.uleb128 0x4
 5095 0a20 540B0000 		.long	.LASF144
 5096 0a24 03       		.byte	0x3
 5097 0a25 51       		.byte	0x51
 5098 0a26 03       		.byte	0x3
 5099 0a27 FB090000 		.long	0x9fb
 5100 0a2b 0A       		.uleb128 0xa
 5101 0a2c 32090000 		.long	.LASF145
 5102 0a30 44       		.byte	0x44
 5103 0a31 05       		.byte	0x5
 5104 0a32 50       		.byte	0x50
 5105 0a33 10       		.byte	0x10
 5106 0a34 530A0000 		.long	0xa53
 5107 0a38 03       		.uleb128 0x3
 5108 0a39 46040000 		.long	.LASF135
 5109 0a3d 05       		.byte	0x5
 5110 0a3e 54       		.byte	0x54
 5111 0a3f 1D       		.byte	0x1d
 5112 0a40 1F0A0000 		.long	0xa1f
 5113 0a44 00       		.byte	0
 5114 0a45 0B       		.uleb128 0xb
 5115 0a46 6D627800 		.string	"mbx"
 5116 0a4a 05       		.byte	0x5
 5117 0a4b 58       		.byte	0x58
 5118 0a4c 1D       		.byte	0x1d
 5119 0a4d 64080000 		.long	0x864
 5120 0a51 1C       		.byte	0x1c
 5121 0a52 00       		.byte	0
 5122 0a53 04       		.uleb128 0x4
 5123 0a54 85040000 		.long	.LASF146
 5124 0a58 05       		.byte	0x5
 5125 0a59 59       		.byte	0x59
 5126 0a5a 03       		.byte	0x3
 5127 0a5b 2B0A0000 		.long	0xa2b
 5128 0a5f 16       		.uleb128 0x16
 5129 0a60 50       		.byte	0x50
 5130 0a61 17       		.byte	0x17
 5131 0a62 34       		.byte	0x34
 5132 0a63 09       		.byte	0x9
 5133 0a64 F80A0000 		.long	0xaf8
 5134 0a68 03       		.uleb128 0x3
 5135 0a69 B6000000 		.long	.LASF122
 5136 0a6d 17       		.byte	0x17
 5137 0a6e 35       		.byte	0x35
 5138 0a6f 1A       		.byte	0x1a
 5139 0a70 7D040000 		.long	0x47d
 5140 0a74 00       		.byte	0
 5141 0a75 0B       		.uleb128 0xb
 5142 0a76 746F7000 		.string	"top"
 5143 0a7a 17       		.byte	0x17
 5144 0a7b 37       		.byte	0x37
 5145 0a7c 1A       		.byte	0x1a
 5146 0a7d 7D040000 		.long	0x47d
 5147 0a81 04       		.byte	0x4
 5148 0a82 03       		.uleb128 0x3
 5149 0a83 33030000 		.long	.LASF123
 5150 0a87 17       		.byte	0x17
GAS LISTING /tmp/ccoiMs3n.s 			page 95


 5151 0a88 39       		.byte	0x39
 5152 0a89 1A       		.byte	0x1a
 5153 0a8a 7D040000 		.long	0x47d
 5154 0a8e 08       		.byte	0x8
 5155 0a8f 03       		.uleb128 0x3
 5156 0a90 E50B0000 		.long	.LASF124
 5157 0a94 17       		.byte	0x17
 5158 0a95 3A       		.byte	0x3a
 5159 0a96 1A       		.byte	0x1a
 5160 0a97 7D040000 		.long	0x47d
 5161 0a9b 0C       		.byte	0xc
 5162 0a9c 0B       		.uleb128 0xb
 5163 0a9d 636E7400 		.string	"cnt"
 5164 0aa1 17       		.byte	0x17
 5165 0aa2 3B       		.byte	0x3b
 5166 0aa3 19       		.byte	0x19
 5167 0aa4 26000000 		.long	0x26
 5168 0aa8 10       		.byte	0x10
 5169 0aa9 03       		.uleb128 0x3
 5170 0aaa 42090000 		.long	.LASF125
 5171 0aae 17       		.byte	0x17
 5172 0aaf 3C       		.byte	0x3c
 5173 0ab0 19       		.byte	0x19
 5174 0ab1 2E050000 		.long	0x52e
 5175 0ab5 14       		.byte	0x14
 5176 0ab6 0B       		.uleb128 0xb
 5177 0ab7 77747200 		.string	"wtr"
 5178 0abb 17       		.byte	0x17
 5179 0abc 3D       		.byte	0x3d
 5180 0abd 19       		.byte	0x19
 5181 0abe 9D050000 		.long	0x59d
 5182 0ac2 18       		.byte	0x18
 5183 0ac3 0B       		.uleb128 0xb
 5184 0ac4 72747200 		.string	"rtr"
 5185 0ac8 17       		.byte	0x17
 5186 0ac9 3E       		.byte	0x3e
 5187 0aca 19       		.byte	0x19
 5188 0acb 9D050000 		.long	0x59d
 5189 0acf 1C       		.byte	0x1c
 5190 0ad0 03       		.uleb128 0x3
 5191 0ad1 45070000 		.long	.LASF147
 5192 0ad5 17       		.byte	0x17
 5193 0ad6 40       		.byte	0x40
 5194 0ad7 19       		.byte	0x19
 5195 0ad8 AE070000 		.long	0x7ae
 5196 0adc 20       		.byte	0x20
 5197 0add 03       		.uleb128 0x3
 5198 0ade 1C010000 		.long	.LASF148
 5199 0ae2 17       		.byte	0x17
 5200 0ae3 41       		.byte	0x41
 5201 0ae4 19       		.byte	0x19
 5202 0ae5 AE070000 		.long	0x7ae
 5203 0ae9 30       		.byte	0x30
 5204 0aea 03       		.uleb128 0x3
 5205 0aeb B30B0000 		.long	.LASF149
 5206 0aef 17       		.byte	0x17
 5207 0af0 42       		.byte	0x42
GAS LISTING /tmp/ccoiMs3n.s 			page 96


 5208 0af1 19       		.byte	0x19
 5209 0af2 AE070000 		.long	0x7ae
 5210 0af6 40       		.byte	0x40
 5211 0af7 00       		.byte	0
 5212 0af8 04       		.uleb128 0x4
 5213 0af9 4E090000 		.long	.LASF150
 5214 0afd 17       		.byte	0x17
 5215 0afe 48       		.byte	0x48
 5216 0aff 03       		.byte	0x3
 5217 0b00 5F0A0000 		.long	0xa5f
 5218 0b04 0A       		.uleb128 0xa
 5219 0b05 1E050000 		.long	.LASF151
 5220 0b09 10       		.byte	0x10
 5221 0b0a 18       		.byte	0x18
 5222 0b0b A9       		.byte	0xa9
 5223 0b0c 10       		.byte	0x10
 5224 0b0d 390B0000 		.long	0xb39
 5225 0b11 03       		.uleb128 0x3
 5226 0b12 17010000 		.long	.LASF70
 5227 0b16 18       		.byte	0x18
 5228 0b17 AD       		.byte	0xad
 5229 0b18 1A       		.byte	0x1a
 5230 0b19 390B0000 		.long	0xb39
 5231 0b1d 00       		.byte	0
 5232 0b1e 03       		.uleb128 0x3
 5233 0b1f 46010000 		.long	.LASF38
 5234 0b23 18       		.byte	0x18
 5235 0b24 B1       		.byte	0xb1
 5236 0b25 19       		.byte	0x19
 5237 0b26 5C010000 		.long	0x15c
 5238 0b2a 04       		.byte	0x4
 5239 0b2b 03       		.uleb128 0x3
 5240 0b2c 8C090000 		.long	.LASF39
 5241 0b30 18       		.byte	0x18
 5242 0b31 B3       		.byte	0xb3
 5243 0b32 19       		.byte	0x19
 5244 0b33 3E0B0000 		.long	0xb3e
 5245 0b37 08       		.byte	0x8
 5246 0b38 00       		.byte	0
 5247 0b39 07       		.uleb128 0x7
 5248 0b3a 040B0000 		.long	0xb04
 5249 0b3e 21       		.uleb128 0x21
 5250 0b3f 51000000 		.long	0x51
 5251 0b43 4E0B0000 		.long	0xb4e
 5252 0b47 22       		.uleb128 0x22
 5253 0b48 32000000 		.long	0x32
 5254 0b4c 07       		.byte	0x7
 5255 0b4d 00       		.byte	0
 5256 0b4e 04       		.uleb128 0x4
 5257 0b4f 940A0000 		.long	.LASF152
 5258 0b53 18       		.byte	0x18
 5259 0b54 B7       		.byte	0xb7
 5260 0b55 03       		.byte	0x3
 5261 0b56 040B0000 		.long	0xb04
 5262 0b5a 0A       		.uleb128 0xa
 5263 0b5b 60040000 		.long	.LASF153
 5264 0b5f 04       		.byte	0x4
GAS LISTING /tmp/ccoiMs3n.s 			page 97


 5265 0b60 18       		.byte	0x18
 5266 0b61 BC       		.byte	0xbc
 5267 0b62 10       		.byte	0x10
 5268 0b63 750B0000 		.long	0xb75
 5269 0b67 03       		.uleb128 0x3
 5270 0b68 17010000 		.long	.LASF70
 5271 0b6c 18       		.byte	0x18
 5272 0b6d BD       		.byte	0xbd
 5273 0b6e 1A       		.byte	0x1a
 5274 0b6f 750B0000 		.long	0xb75
 5275 0b73 00       		.byte	0
 5276 0b74 00       		.byte	0
 5277 0b75 07       		.uleb128 0x7
 5278 0b76 4E0B0000 		.long	0xb4e
 5279 0b7a 04       		.uleb128 0x4
 5280 0b7b 6A000000 		.long	.LASF154
 5281 0b7f 18       		.byte	0x18
 5282 0b80 BE       		.byte	0xbe
 5283 0b81 03       		.byte	0x3
 5284 0b82 5A0B0000 		.long	0xb5a
 5285 0b86 0A       		.uleb128 0xa
 5286 0b87 6A0B0000 		.long	.LASF155
 5287 0b8b 14       		.byte	0x14
 5288 0b8c 18       		.byte	0x18
 5289 0b8d C4       		.byte	0xc4
 5290 0b8e 10       		.byte	0x10
 5291 0b8f AE0B0000 		.long	0xbae
 5292 0b93 03       		.uleb128 0x3
 5293 0b94 0C030000 		.long	.LASF156
 5294 0b98 18       		.byte	0x18
 5295 0b99 C8       		.byte	0xc8
 5296 0b9a 19       		.byte	0x19
 5297 0b9b 4E0B0000 		.long	0xb4e
 5298 0b9f 00       		.byte	0
 5299 0ba0 03       		.uleb128 0x3
 5300 0ba1 17020000 		.long	.LASF157
 5301 0ba5 18       		.byte	0x18
 5302 0ba6 CD       		.byte	0xcd
 5303 0ba7 1A       		.byte	0x1a
 5304 0ba8 CC000000 		.long	0xcc
 5305 0bac 10       		.byte	0x10
 5306 0bad 00       		.byte	0
 5307 0bae 04       		.uleb128 0x4
 5308 0baf 6B090000 		.long	.LASF158
 5309 0bb3 18       		.byte	0x18
 5310 0bb4 CE       		.byte	0xce
 5311 0bb5 03       		.byte	0x3
 5312 0bb6 860B0000 		.long	0xb86
 5313 0bba 0A       		.uleb128 0xa
 5314 0bbb D5050000 		.long	.LASF159
 5315 0bbf 10       		.byte	0x10
 5316 0bc0 18       		.byte	0x18
 5317 0bc1 D5       		.byte	0xd5
 5318 0bc2 10       		.byte	0x10
 5319 0bc3 D50B0000 		.long	0xbd5
 5320 0bc7 03       		.uleb128 0x3
 5321 0bc8 0C030000 		.long	.LASF156
GAS LISTING /tmp/ccoiMs3n.s 			page 98


 5322 0bcc 18       		.byte	0x18
 5323 0bcd D9       		.byte	0xd9
 5324 0bce 19       		.byte	0x19
 5325 0bcf 4E0B0000 		.long	0xb4e
 5326 0bd3 00       		.byte	0
 5327 0bd4 00       		.byte	0
 5328 0bd5 04       		.uleb128 0x4
 5329 0bd6 46050000 		.long	.LASF160
 5330 0bda 18       		.byte	0x18
 5331 0bdb DA       		.byte	0xda
 5332 0bdc 03       		.byte	0x3
 5333 0bdd BA0B0000 		.long	0xbba
 5334 0be1 0A       		.uleb128 0xa
 5335 0be2 3B0A0000 		.long	.LASF161
 5336 0be6 1C       		.byte	0x1c
 5337 0be7 18       		.byte	0x18
 5338 0be8 E1       		.byte	0xe1
 5339 0be9 10       		.byte	0x10
 5340 0bea 090C0000 		.long	0xc09
 5341 0bee 03       		.uleb128 0x3
 5342 0bef 0C030000 		.long	.LASF156
 5343 0bf3 18       		.byte	0x18
 5344 0bf4 E5       		.byte	0xe5
 5345 0bf5 19       		.byte	0x19
 5346 0bf6 4E0B0000 		.long	0xb4e
 5347 0bfa 00       		.byte	0
 5348 0bfb 0B       		.uleb128 0xb
 5349 0bfc 73656D00 		.string	"sem"
 5350 0c00 18       		.byte	0x18
 5351 0c01 E9       		.byte	0xe9
 5352 0c02 19       		.byte	0x19
 5353 0c03 A2070000 		.long	0x7a2
 5354 0c07 10       		.byte	0x10
 5355 0c08 00       		.byte	0
 5356 0c09 04       		.uleb128 0x4
 5357 0c0a BD000000 		.long	.LASF162
 5358 0c0e 18       		.byte	0x18
 5359 0c0f EA       		.byte	0xea
 5360 0c10 03       		.byte	0x3
 5361 0c11 E10B0000 		.long	0xbe1
 5362 0c15 0A       		.uleb128 0xa
 5363 0c16 F5010000 		.long	.LASF163
 5364 0c1a 38       		.byte	0x38
 5365 0c1b 18       		.byte	0x18
 5366 0c1c F1       		.byte	0xf1
 5367 0c1d 10       		.byte	0x10
 5368 0c1e 3D0C0000 		.long	0xc3d
 5369 0c22 03       		.uleb128 0x3
 5370 0c23 0C030000 		.long	.LASF156
 5371 0c27 18       		.byte	0x18
 5372 0c28 F5       		.byte	0xf5
 5373 0c29 19       		.byte	0x19
 5374 0c2a 4E0B0000 		.long	0xb4e
 5375 0c2e 00       		.byte	0
 5376 0c2f 0B       		.uleb128 0xb
 5377 0c30 6D627800 		.string	"mbx"
 5378 0c34 18       		.byte	0x18
GAS LISTING /tmp/ccoiMs3n.s 			page 99


 5379 0c35 F9       		.byte	0xf9
 5380 0c36 19       		.byte	0x19
 5381 0c37 64080000 		.long	0x864
 5382 0c3b 10       		.byte	0x10
 5383 0c3c 00       		.byte	0
 5384 0c3d 04       		.uleb128 0x4
 5385 0c3e EB0B0000 		.long	.LASF164
 5386 0c42 18       		.byte	0x18
 5387 0c43 FA       		.byte	0xfa
 5388 0c44 03       		.byte	0x3
 5389 0c45 150C0000 		.long	0xc15
 5390 0c49 1D       		.uleb128 0x1d
 5391 0c4a FB050000 		.long	.LASF165
 5392 0c4e 54       		.byte	0x54
 5393 0c4f 18       		.byte	0x18
 5394 0c50 0101     		.value	0x101
 5395 0c52 10       		.byte	0x10
 5396 0c53 740C0000 		.long	0xc74
 5397 0c57 08       		.uleb128 0x8
 5398 0c58 0C030000 		.long	.LASF156
 5399 0c5c 18       		.byte	0x18
 5400 0c5d 0501     		.value	0x105
 5401 0c5f 19       		.byte	0x19
 5402 0c60 4E0B0000 		.long	0xb4e
 5403 0c64 00       		.byte	0
 5404 0c65 08       		.uleb128 0x8
 5405 0c66 D30A0000 		.long	.LASF166
 5406 0c6a 18       		.byte	0x18
 5407 0c6b 0901     		.value	0x109
 5408 0c6d 19       		.byte	0x19
 5409 0c6e 530A0000 		.long	0xa53
 5410 0c72 10       		.byte	0x10
 5411 0c73 00       		.byte	0
 5412 0c74 24       		.uleb128 0x24
 5413 0c75 04020000 		.long	.LASF167
 5414 0c79 18       		.byte	0x18
 5415 0c7a 0A01     		.value	0x10a
 5416 0c7c 490C0000 		.long	0xc49
 5417 0c80 1D       		.uleb128 0x1d
 5418 0c81 65060000 		.long	.LASF168
 5419 0c85 60       		.byte	0x60
 5420 0c86 18       		.byte	0x18
 5421 0c87 1101     		.value	0x111
 5422 0c89 10       		.byte	0x10
 5423 0c8a AB0C0000 		.long	0xcab
 5424 0c8e 08       		.uleb128 0x8
 5425 0c8f 0C030000 		.long	.LASF156
 5426 0c93 18       		.byte	0x18
 5427 0c94 1501     		.value	0x115
 5428 0c96 19       		.byte	0x19
 5429 0c97 4E0B0000 		.long	0xb4e
 5430 0c9b 00       		.byte	0
 5431 0c9c 08       		.uleb128 0x8
 5432 0c9d 14030000 		.long	.LASF169
 5433 0ca1 18       		.byte	0x18
 5434 0ca2 1901     		.value	0x119
 5435 0ca4 19       		.byte	0x19
GAS LISTING /tmp/ccoiMs3n.s 			page 100


 5436 0ca5 F80A0000 		.long	0xaf8
 5437 0ca9 10       		.byte	0x10
 5438 0caa 00       		.byte	0
 5439 0cab 24       		.uleb128 0x24
 5440 0cac 100A0000 		.long	.LASF170
 5441 0cb0 18       		.byte	0x18
 5442 0cb1 1A01     		.value	0x11a
 5443 0cb3 800C0000 		.long	0xc80
 5444 0cb7 1D       		.uleb128 0x1d
 5445 0cb8 D2010000 		.long	.LASF171
 5446 0cbc 48       		.byte	0x48
 5447 0cbd 18       		.byte	0x18
 5448 0cbe 2001     		.value	0x120
 5449 0cc0 10       		.byte	0x10
 5450 0cc1 440D0000 		.long	0xd44
 5451 0cc5 2A       		.uleb128 0x2a
 5452 0cc6 6D747800 		.string	"mtx"
 5453 0cca 18       		.byte	0x18
 5454 0ccb 2501     		.value	0x125
 5455 0ccd 19       		.byte	0x19
 5456 0cce AE070000 		.long	0x7ae
 5457 0cd2 00       		.byte	0
 5458 0cd3 08       		.uleb128 0x8
 5459 0cd4 33010000 		.long	.LASF172
 5460 0cd8 18       		.byte	0x18
 5461 0cd9 2C01     		.value	0x12c
 5462 0cdb 19       		.byte	0x19
 5463 0cdc 7A0B0000 		.long	0xb7a
 5464 0ce0 10       		.byte	0x10
 5465 0ce1 08       		.uleb128 0x8
 5466 0ce2 C1050000 		.long	.LASF173
 5467 0ce6 18       		.byte	0x18
 5468 0ce7 3001     		.value	0x130
 5469 0ce9 19       		.byte	0x19
 5470 0cea EF090000 		.long	0x9ef
 5471 0cee 14       		.byte	0x14
 5472 0cef 08       		.uleb128 0x8
 5473 0cf0 B8060000 		.long	.LASF174
 5474 0cf4 18       		.byte	0x18
 5475 0cf5 3501     		.value	0x135
 5476 0cf7 19       		.byte	0x19
 5477 0cf8 7A0B0000 		.long	0xb7a
 5478 0cfc 24       		.byte	0x24
 5479 0cfd 08       		.uleb128 0x8
 5480 0cfe 3C0C0000 		.long	.LASF175
 5481 0d02 18       		.byte	0x18
 5482 0d03 3B01     		.value	0x13b
 5483 0d05 19       		.byte	0x19
 5484 0d06 7A0B0000 		.long	0xb7a
 5485 0d0a 28       		.byte	0x28
 5486 0d0b 08       		.uleb128 0x8
 5487 0d0c 94040000 		.long	.LASF176
 5488 0d10 18       		.byte	0x18
 5489 0d11 3F01     		.value	0x13f
 5490 0d13 19       		.byte	0x19
 5491 0d14 EF090000 		.long	0x9ef
 5492 0d18 2C       		.byte	0x2c
GAS LISTING /tmp/ccoiMs3n.s 			page 101


 5493 0d19 08       		.uleb128 0x8
 5494 0d1a CA0A0000 		.long	.LASF177
 5495 0d1e 18       		.byte	0x18
 5496 0d1f 4501     		.value	0x145
 5497 0d21 19       		.byte	0x19
 5498 0d22 7A0B0000 		.long	0xb7a
 5499 0d26 3C       		.byte	0x3c
 5500 0d27 08       		.uleb128 0x8
 5501 0d28 50000000 		.long	.LASF178
 5502 0d2c 18       		.byte	0x18
 5503 0d2d 4B01     		.value	0x14b
 5504 0d2f 19       		.byte	0x19
 5505 0d30 7A0B0000 		.long	0xb7a
 5506 0d34 40       		.byte	0x40
 5507 0d35 08       		.uleb128 0x8
 5508 0d36 56040000 		.long	.LASF179
 5509 0d3a 18       		.byte	0x18
 5510 0d3b 5101     		.value	0x151
 5511 0d3d 19       		.byte	0x19
 5512 0d3e 7A0B0000 		.long	0xb7a
 5513 0d42 44       		.byte	0x44
 5514 0d43 00       		.byte	0
 5515 0d44 24       		.uleb128 0x24
 5516 0d45 22040000 		.long	.LASF180
 5517 0d49 18       		.byte	0x18
 5518 0d4a 5301     		.value	0x153
 5519 0d4c B70C0000 		.long	0xcb7
 5520 0d50 38       		.uleb128 0x38
 5521 0d51 F6070000 		.long	.LASF196
 5522 0d55 18       		.byte	0x18
 5523 0d56 5E01     		.value	0x15e
 5524 0d58 1A       		.byte	0x1a
 5525 0d59 440D0000 		.long	0xd44
 5526 0d5d 39       		.uleb128 0x39
 5527 0d5e 500D0000 		.long	0xd50
 5528 0d62 02       		.byte	0x2
 5529 0d63 48       		.byte	0x48
 5530 0d64 13       		.byte	0x13
 5531 0d65 05       		.uleb128 0x5
 5532 0d66 03       		.byte	0x3
 5533 0d67 00000000 		.long	ch_factory
 5534 0d6b 14       		.uleb128 0x14
 5535 0d6c 71060000 		.long	.LASF181
 5536 0d70 17       		.byte	0x17
 5537 0d71 88       		.byte	0x88
 5538 0d72 860D0000 		.long	0xd86
 5539 0d76 06       		.uleb128 0x6
 5540 0d77 860D0000 		.long	0xd86
 5541 0d7b 06       		.uleb128 0x6
 5542 0d7c 7D040000 		.long	0x47d
 5543 0d80 06       		.uleb128 0x6
 5544 0d81 26000000 		.long	0x26
 5545 0d85 00       		.byte	0
 5546 0d86 07       		.uleb128 0x7
 5547 0d87 F80A0000 		.long	0xaf8
 5548 0d8b 14       		.uleb128 0x14
 5549 0d8c F9090000 		.long	.LASF182
GAS LISTING /tmp/ccoiMs3n.s 			page 102


 5550 0d90 03       		.byte	0x3
 5551 0d91 A3       		.byte	0xa3
 5552 0d92 A60D0000 		.long	0xda6
 5553 0d96 06       		.uleb128 0x6
 5554 0d97 A60D0000 		.long	0xda6
 5555 0d9b 06       		.uleb128 0x6
 5556 0d9c CC000000 		.long	0xcc
 5557 0da0 06       		.uleb128 0x6
 5558 0da1 26000000 		.long	0x26
 5559 0da5 00       		.byte	0
 5560 0da6 07       		.uleb128 0x7
 5561 0da7 1F0A0000 		.long	0xa1f
 5562 0dab 14       		.uleb128 0x14
 5563 0dac B80B0000 		.long	.LASF183
 5564 0db0 03       		.byte	0x3
 5565 0db1 9F       		.byte	0x9f
 5566 0db2 C60D0000 		.long	0xdc6
 5567 0db6 06       		.uleb128 0x6
 5568 0db7 A60D0000 		.long	0xda6
 5569 0dbb 06       		.uleb128 0x6
 5570 0dbc 26000000 		.long	0x26
 5571 0dc0 06       		.uleb128 0x6
 5572 0dc1 32000000 		.long	0x32
 5573 0dc5 00       		.byte	0
 5574 0dc6 14       		.uleb128 0x14
 5575 0dc7 A0050000 		.long	.LASF184
 5576 0dcb 15       		.byte	0x15
 5577 0dcc 6C       		.byte	0x6c
 5578 0dcd E10D0000 		.long	0xde1
 5579 0dd1 06       		.uleb128 0x6
 5580 0dd2 E10D0000 		.long	0xde1
 5581 0dd6 06       		.uleb128 0x6
 5582 0dd7 5F080000 		.long	0x85f
 5583 0ddb 06       		.uleb128 0x6
 5584 0ddc 26000000 		.long	0x26
 5585 0de0 00       		.byte	0
 5586 0de1 07       		.uleb128 0x7
 5587 0de2 64080000 		.long	0x864
 5588 0de6 14       		.uleb128 0x14
 5589 0de7 BA0A0000 		.long	.LASF185
 5590 0deb 12       		.byte	0x12
 5591 0dec 5B       		.byte	0x5b
 5592 0ded FC0D0000 		.long	0xdfc
 5593 0df1 06       		.uleb128 0x6
 5594 0df2 FC0D0000 		.long	0xdfc
 5595 0df6 06       		.uleb128 0x6
 5596 0df7 50010000 		.long	0x150
 5597 0dfb 00       		.byte	0
 5598 0dfc 07       		.uleb128 0x7
 5599 0dfd A2070000 		.long	0x7a2
 5600 0e01 14       		.uleb128 0x14
 5601 0e02 CA050000 		.long	.LASF186
 5602 0e06 16       		.byte	0x16
 5603 0e07 A2       		.byte	0xa2
 5604 0e08 120E0000 		.long	0xe12
 5605 0e0c 06       		.uleb128 0x6
 5606 0e0d CC000000 		.long	0xcc
GAS LISTING /tmp/ccoiMs3n.s 			page 103


 5607 0e11 00       		.byte	0
 5608 0e12 26       		.uleb128 0x26
 5609 0e13 32070000 		.long	.LASF188
 5610 0e17 16       		.byte	0x16
 5611 0e18 A1       		.byte	0xa1
 5612 0e19 09       		.byte	0x9
 5613 0e1a CC000000 		.long	0xcc
 5614 0e1e 320E0000 		.long	0xe32
 5615 0e22 06       		.uleb128 0x6
 5616 0e23 8C090000 		.long	0x98c
 5617 0e27 06       		.uleb128 0x6
 5618 0e28 26000000 		.long	0x26
 5619 0e2c 06       		.uleb128 0x6
 5620 0e2d 32000000 		.long	0x32
 5621 0e31 00       		.byte	0
 5622 0e32 14       		.uleb128 0x14
 5623 0e33 A3040000 		.long	.LASF187
 5624 0e37 03       		.byte	0x3
 5625 0e38 9D       		.byte	0x9d
 5626 0e39 480E0000 		.long	0xe48
 5627 0e3d 06       		.uleb128 0x6
 5628 0e3e 480E0000 		.long	0xe48
 5629 0e42 06       		.uleb128 0x6
 5630 0e43 CC000000 		.long	0xcc
 5631 0e47 00       		.byte	0
 5632 0e48 07       		.uleb128 0x7
 5633 0e49 EF090000 		.long	0x9ef
 5634 0e4d 26       		.uleb128 0x26
 5635 0e4e 5A000000 		.long	.LASF189
 5636 0e52 19       		.byte	0x19
 5637 0e53 9F       		.byte	0x9f
 5638 0e54 0C       		.byte	0xc
 5639 0e55 40000000 		.long	0x40
 5640 0e59 6D0E0000 		.long	0xe6d
 5641 0e5d 06       		.uleb128 0x6
 5642 0e5e 47000000 		.long	0x47
 5643 0e62 06       		.uleb128 0x6
 5644 0e63 47000000 		.long	0x47
 5645 0e67 06       		.uleb128 0x6
 5646 0e68 26000000 		.long	0x26
 5647 0e6c 00       		.byte	0
 5648 0e6d 26       		.uleb128 0x26
 5649 0e6e 55090000 		.long	.LASF190
 5650 0e72 03       		.byte	0x3
 5651 0e73 9B       		.byte	0x9b
 5652 0e74 09       		.byte	0x9
 5653 0e75 CC000000 		.long	0xcc
 5654 0e79 830E0000 		.long	0xe83
 5655 0e7d 06       		.uleb128 0x6
 5656 0e7e 480E0000 		.long	0xe48
 5657 0e82 00       		.byte	0
 5658 0e83 14       		.uleb128 0x14
 5659 0e84 AF050000 		.long	.LASF191
 5660 0e88 13       		.byte	0x13
 5661 0e89 6C       		.byte	0x6c
 5662 0e8a 940E0000 		.long	0xe94
 5663 0e8e 06       		.uleb128 0x6
GAS LISTING /tmp/ccoiMs3n.s 			page 104


 5664 0e8f BA070000 		.long	0x7ba
 5665 0e93 00       		.byte	0
 5666 0e94 14       		.uleb128 0x14
 5667 0e95 46000000 		.long	.LASF192
 5668 0e99 13       		.byte	0x13
 5669 0e9a 68       		.byte	0x68
 5670 0e9b A50E0000 		.long	0xea5
 5671 0e9f 06       		.uleb128 0x6
 5672 0ea0 BA070000 		.long	0x7ba
 5673 0ea4 00       		.byte	0
 5674 0ea5 14       		.uleb128 0x14
 5675 0ea6 38020000 		.long	.LASF193
 5676 0eaa 03       		.byte	0x3
 5677 0eab 96       		.byte	0x96
 5678 0eac C50E0000 		.long	0xec5
 5679 0eb0 06       		.uleb128 0x6
 5680 0eb1 480E0000 		.long	0xe48
 5681 0eb5 06       		.uleb128 0x6
 5682 0eb6 26000000 		.long	0x26
 5683 0eba 06       		.uleb128 0x6
 5684 0ebb 32000000 		.long	0x32
 5685 0ebf 06       		.uleb128 0x6
 5686 0ec0 70080000 		.long	0x870
 5687 0ec4 00       		.byte	0
 5688 0ec5 26       		.uleb128 0x26
 5689 0ec6 53050000 		.long	.LASF194
 5690 0eca 01       		.byte	0x1
 5691 0ecb 7D       		.byte	0x7d
 5692 0ecc 09       		.byte	0x9
 5693 0ecd CC000000 		.long	0xcc
 5694 0ed1 E50E0000 		.long	0xee5
 5695 0ed5 06       		.uleb128 0x6
 5696 0ed6 26000000 		.long	0x26
 5697 0eda 06       		.uleb128 0x6
 5698 0edb 32000000 		.long	0x32
 5699 0edf 06       		.uleb128 0x6
 5700 0ee0 26000000 		.long	0x26
 5701 0ee4 00       		.byte	0
 5702 0ee5 14       		.uleb128 0x14
 5703 0ee6 B8020000 		.long	.LASF195
 5704 0eea 13       		.byte	0x13
 5705 0eeb 66       		.byte	0x66
 5706 0eec F60E0000 		.long	0xef6
 5707 0ef0 06       		.uleb128 0x6
 5708 0ef1 BA070000 		.long	0x7ba
 5709 0ef5 00       		.byte	0
 5710 0ef6 0D       		.uleb128 0xd
 5711 0ef7 0F060000 		.long	.LASF197
 5712 0efb 7703     		.value	0x377
 5713 0efd 08       		.byte	0x8
 5714 0efe 5C010000 		.long	0x15c
 5715 0f02 00000000 		.long	.LFB244
 5716 0f06 77000000 		.long	.LFE244-.LFB244
 5717 0f0a 01       		.uleb128 0x1
 5718 0f0b 9C       		.byte	0x9c
 5719 0f0c 14100000 		.long	0x1014
 5720 0f10 19       		.uleb128 0x19
GAS LISTING /tmp/ccoiMs3n.s 			page 105


 5721 0f11 64707000 		.string	"dpp"
 5722 0f15 7703     		.value	0x377
 5723 0f17 29       		.byte	0x29
 5724 0f18 14100000 		.long	0x1014
 5725 0f1c 02       		.uleb128 0x2
 5726 0f1d 91       		.byte	0x91
 5727 0f1e 00       		.sleb128 0
 5728 0f1f 12       		.uleb128 0x12
 5729 0f20 46010000 		.long	.LASF38
 5730 0f24 7803     		.value	0x378
 5731 0f26 0A       		.byte	0xa
 5732 0f27 5C010000 		.long	0x15c
 5733 0f2b 10000000 		.long	.LLST208
 5734 0f2f 0C000000 		.long	.LVUS208
 5735 0f33 0C       		.uleb128 0xc
 5736 0f34 A2240000 		.long	0x24a2
 5737 0f38 22000000 		.long	.LBI296
 5738 0f3c 01       		.byte	.LVU884
 5739 0f3d B3010000 		.long	.LLRL209
 5740 0f41 7C03     		.value	0x37c
 5741 0f43 0A       		.byte	0xa
 5742 0f44 01100000 		.long	0x1001
 5743 0f48 01       		.uleb128 0x1
 5744 0f49 BD240000 		.long	0x24bd
 5745 0f4d 24000000 		.long	.LLST210
 5746 0f51 20000000 		.long	.LVUS210
 5747 0f55 01       		.uleb128 0x1
 5748 0f56 B1240000 		.long	0x24b1
 5749 0f5a 42000000 		.long	.LLST211
 5750 0f5e 3E000000 		.long	.LVUS211
 5751 0f62 09       		.uleb128 0x9
 5752 0f63 B3010000 		.long	.LLRL209
 5753 0f67 05       		.uleb128 0x5
 5754 0f68 C9240000 		.long	0x24c9
 5755 0f6c 54000000 		.long	.LLST212
 5756 0f70 52000000 		.long	.LVUS212
 5757 0f74 05       		.uleb128 0x5
 5758 0f75 D4240000 		.long	0x24d4
 5759 0f79 61000000 		.long	.LLST213
 5760 0f7d 5D000000 		.long	.LVUS213
 5761 0f81 18       		.uleb128 0x18
 5762 0f82 64250000 		.long	0x2564
 5763 0f86 22000000 		.long	.LBI298
 5764 0f8a 08       		.byte	.LVU891
 5765 0f8b 22000000 		.long	.LBB298
 5766 0f8f 1A000000 		.long	.LBE298-.LBB298
 5767 0f93 B5       		.byte	0xb5
 5768 0f94 0A       		.byte	0xa
 5769 0f95 C10F0000 		.long	0xfc1
 5770 0f99 01       		.uleb128 0x1
 5771 0f9a 7F250000 		.long	0x257f
 5772 0f9e 73000000 		.long	.LLST214
 5773 0fa2 71000000 		.long	.LVUS214
 5774 0fa6 01       		.uleb128 0x1
 5775 0fa7 73250000 		.long	0x2573
 5776 0fab 83000000 		.long	.LLST215
 5777 0faf 81000000 		.long	.LVUS215
GAS LISTING /tmp/ccoiMs3n.s 			page 106


 5778 0fb3 05       		.uleb128 0x5
 5779 0fb4 8B250000 		.long	0x258b
 5780 0fb8 94000000 		.long	.LLST216
 5781 0fbc 8C000000 		.long	.LVUS216
 5782 0fc0 00       		.byte	0
 5783 0fc1 1A       		.uleb128 0x1a
 5784 0fc2 3D250000 		.long	0x253d
 5785 0fc6 65000000 		.long	.LBI300
 5786 0fca 01       		.byte	.LVU919
 5787 0fcb BF010000 		.long	.LLRL217
 5788 0fcf BC       		.byte	0xbc
 5789 0fd0 1A       		.byte	0x1a
 5790 0fd1 F60F0000 		.long	0xff6
 5791 0fd5 01       		.uleb128 0x1
 5792 0fd6 4C250000 		.long	0x254c
 5793 0fda B5000000 		.long	.LLST218
 5794 0fde B3000000 		.long	.LVUS218
 5795 0fe2 09       		.uleb128 0x9
 5796 0fe3 BF010000 		.long	.LLRL217
 5797 0fe7 05       		.uleb128 0x5
 5798 0fe8 58250000 		.long	0x2558
 5799 0fec C0000000 		.long	.LLST219
 5800 0ff0 BE000000 		.long	.LVUS219
 5801 0ff4 00       		.byte	0
 5802 0ff5 00       		.byte	0
 5803 0ff6 02       		.uleb128 0x2
 5804 0ff7 72000000 		.long	.LVL267
 5805 0ffb 010E0000 		.long	0xe01
 5806 0fff 00       		.byte	0
 5807 1000 00       		.byte	0
 5808 1001 02       		.uleb128 0x2
 5809 1002 22000000 		.long	.LVL256
 5810 1006 940E0000 		.long	0xe94
 5811 100a 02       		.uleb128 0x2
 5812 100b 47000000 		.long	.LVL261
 5813 100f 830E0000 		.long	0xe83
 5814 1013 00       		.byte	0
 5815 1014 07       		.uleb128 0x7
 5816 1015 AB0C0000 		.long	0xcab
 5817 1019 0D       		.uleb128 0xd
 5818 101a 80050000 		.long	.LASF198
 5819 101e 5E03     		.value	0x35e
 5820 1020 0D       		.byte	0xd
 5821 1021 14100000 		.long	0x1014
 5822 1025 00000000 		.long	.LFB243
 5823 1029 84000000 		.long	.LFE243-.LFB243
 5824 102d 01       		.uleb128 0x1
 5825 102e 9C       		.byte	0x9c
 5826 102f F4100000 		.long	0x10f4
 5827 1033 0E       		.uleb128 0xe
 5828 1034 8C090000 		.long	.LASF39
 5829 1038 5E03     		.value	0x35e
 5830 103a 2B       		.byte	0x2b
 5831 103b 47000000 		.long	0x47
 5832 103f 02       		.uleb128 0x2
 5833 1040 91       		.byte	0x91
 5834 1041 00       		.sleb128 0
GAS LISTING /tmp/ccoiMs3n.s 			page 107


 5835 1042 15       		.uleb128 0x15
 5836 1043 64707000 		.string	"dpp"
 5837 1047 5F03     		.value	0x35f
 5838 1049 0F       		.byte	0xf
 5839 104a 14100000 		.long	0x1014
 5840 104e CD000000 		.long	.LLST199
 5841 1052 C9000000 		.long	.LVUS199
 5842 1056 0C       		.uleb128 0xc
 5843 1057 82230000 		.long	0x2382
 5844 105b 28000000 		.long	.LBI282
 5845 105f 01       		.byte	.LVU846
 5846 1060 9B010000 		.long	.LLRL200
 5847 1064 6303     		.value	0x363
 5848 1066 17       		.byte	0x17
 5849 1067 E1100000 		.long	0x10e1
 5850 106b 01       		.uleb128 0x1
 5851 106c A1230000 		.long	0x23a1
 5852 1070 E1000000 		.long	.LLST201
 5853 1074 DD000000 		.long	.LVUS201
 5854 1078 01       		.uleb128 0x1
 5855 1079 94230000 		.long	0x2394
 5856 107d FF000000 		.long	.LLST202
 5857 1081 FB000000 		.long	.LVUS202
 5858 1085 09       		.uleb128 0x9
 5859 1086 9B010000 		.long	.LLRL200
 5860 108a 05       		.uleb128 0x5
 5861 108b AE230000 		.long	0x23ae
 5862 108f 11010000 		.long	.LLST203
 5863 1093 0F010000 		.long	.LVUS203
 5864 1097 1B       		.uleb128 0x1b
 5865 1098 97250000 		.long	0x2597
 5866 109c 28000000 		.long	.LBI284
 5867 10a0 07       		.byte	.LVU852
 5868 10a1 A7010000 		.long	.LLRL204
 5869 10a5 0D01     		.value	0x10d
 5870 10a7 09       		.byte	0x9
 5871 10a8 01       		.uleb128 0x1
 5872 10a9 B2250000 		.long	0x25b2
 5873 10ad 1E010000 		.long	.LLST205
 5874 10b1 1A010000 		.long	.LVUS205
 5875 10b5 01       		.uleb128 0x1
 5876 10b6 A6250000 		.long	0x25a6
 5877 10ba 3C010000 		.long	.LLST206
 5878 10be 38010000 		.long	.LVUS206
 5879 10c2 09       		.uleb128 0x9
 5880 10c3 A7010000 		.long	.LLRL204
 5881 10c7 05       		.uleb128 0x5
 5882 10c8 BE250000 		.long	0x25be
 5883 10cc 50010000 		.long	.LLST207
 5884 10d0 4C010000 		.long	.LVUS207
 5885 10d4 02       		.uleb128 0x2
 5886 10d5 56000000 		.long	.LVL248
 5887 10d9 4D0E0000 		.long	0xe4d
 5888 10dd 00       		.byte	0
 5889 10de 00       		.byte	0
 5890 10df 00       		.byte	0
 5891 10e0 00       		.byte	0
GAS LISTING /tmp/ccoiMs3n.s 			page 108


 5892 10e1 02       		.uleb128 0x2
 5893 10e2 28000000 		.long	.LVL245
 5894 10e6 940E0000 		.long	0xe94
 5895 10ea 02       		.uleb128 0x2
 5896 10eb 71000000 		.long	.LVL251
 5897 10ef 830E0000 		.long	0xe83
 5898 10f3 00       		.byte	0
 5899 10f4 0D       		.uleb128 0xd
 5900 10f5 DD090000 		.long	.LASF199
 5901 10f9 3D03     		.value	0x33d
 5902 10fb 0D       		.byte	0xd
 5903 10fc 14100000 		.long	0x1014
 5904 1100 00000000 		.long	.LFB242
 5905 1104 6B000000 		.long	.LFE242-.LFB242
 5906 1108 01       		.uleb128 0x1
 5907 1109 9C       		.byte	0x9c
 5908 110a 81110000 		.long	0x1181
 5909 110e 0E       		.uleb128 0xe
 5910 110f 8C090000 		.long	.LASF39
 5911 1113 3D03     		.value	0x33d
 5912 1115 2D       		.byte	0x2d
 5913 1116 47000000 		.long	0x47
 5914 111a 02       		.uleb128 0x2
 5915 111b 91       		.byte	0x91
 5916 111c 00       		.sleb128 0
 5917 111d 0E       		.uleb128 0xe
 5918 111e 52060000 		.long	.LASF120
 5919 1122 3D03     		.value	0x33d
 5920 1124 3A       		.byte	0x3a
 5921 1125 26000000 		.long	0x26
 5922 1129 02       		.uleb128 0x2
 5923 112a 91       		.byte	0x91
 5924 112b 04       		.sleb128 4
 5925 112c 15       		.uleb128 0x15
 5926 112d 64707000 		.string	"dpp"
 5927 1131 3E03     		.value	0x33e
 5928 1133 0F       		.byte	0xf
 5929 1134 14100000 		.long	0x1014
 5930 1138 66010000 		.long	.LLST198
 5931 113c 60010000 		.long	.LVUS198
 5932 1140 02       		.uleb128 0x2
 5933 1141 22000000 		.long	.LVL237
 5934 1145 940E0000 		.long	0xe94
 5935 1149 27       		.uleb128 0x27
 5936 114a 3B000000 		.long	.LVL238
 5937 114e E9240000 		.long	0x24e9
 5938 1152 6E110000 		.long	0x116e
 5939 1156 13       		.uleb128 0x13
 5940 1157 01       		.uleb128 0x1
 5941 1158 50       		.byte	0x50
 5942 1159 03       		.uleb128 0x3
 5943 115a 91       		.byte	0x91
 5944 115b 00       		.sleb128 0
 5945 115c 06       		.byte	0x6
 5946 115d 13       		.uleb128 0x13
 5947 115e 01       		.uleb128 0x1
 5948 115f 52       		.byte	0x52
GAS LISTING /tmp/ccoiMs3n.s 			page 109


 5949 1160 05       		.uleb128 0x5
 5950 1161 03       		.byte	0x3
 5951 1162 44000000 		.long	ch_factory+68
 5952 1166 13       		.uleb128 0x13
 5953 1167 01       		.uleb128 0x1
 5954 1168 51       		.byte	0x51
 5955 1169 03       		.uleb128 0x3
 5956 116a 75       		.byte	0x75
 5957 116b E000     		.sleb128 96
 5958 116d 00       		.byte	0
 5959 116e 02       		.uleb128 0x2
 5960 116f 55000000 		.long	.LVL241
 5961 1173 6B0D0000 		.long	0xd6b
 5962 1177 02       		.uleb128 0x2
 5963 1178 61000000 		.long	.LVL242
 5964 117c 830E0000 		.long	0xe83
 5965 1180 00       		.byte	0
 5966 1181 0D       		.uleb128 0xd
 5967 1182 CD000000 		.long	.LASF200
 5968 1186 1E03     		.value	0x31e
 5969 1188 08       		.byte	0x8
 5970 1189 5C010000 		.long	0x15c
 5971 118d 00000000 		.long	.LFB241
 5972 1191 77000000 		.long	.LFE241-.LFB241
 5973 1195 01       		.uleb128 0x1
 5974 1196 9C       		.byte	0x9c
 5975 1197 9F120000 		.long	0x129f
 5976 119b 0E       		.uleb128 0xe
 5977 119c FF0B0000 		.long	.LASF201
 5978 11a0 1E03     		.value	0x31e
 5979 11a2 38       		.byte	0x38
 5980 11a3 9F120000 		.long	0x129f
 5981 11a7 02       		.uleb128 0x2
 5982 11a8 91       		.byte	0x91
 5983 11a9 00       		.sleb128 0
 5984 11aa 12       		.uleb128 0x12
 5985 11ab 46010000 		.long	.LASF38
 5986 11af 1F03     		.value	0x31f
 5987 11b1 0A       		.byte	0xa
 5988 11b2 5C010000 		.long	0x15c
 5989 11b6 7F010000 		.long	.LLST186
 5990 11ba 7B010000 		.long	.LVUS186
 5991 11be 0C       		.uleb128 0xc
 5992 11bf A2240000 		.long	0x24a2
 5993 11c3 22000000 		.long	.LBI268
 5994 11c7 01       		.byte	.LVU775
 5995 11c8 83010000 		.long	.LLRL187
 5996 11cc 2303     		.value	0x323
 5997 11ce 0A       		.byte	0xa
 5998 11cf 8C120000 		.long	0x128c
 5999 11d3 01       		.uleb128 0x1
 6000 11d4 BD240000 		.long	0x24bd
 6001 11d8 93010000 		.long	.LLST188
 6002 11dc 8F010000 		.long	.LVUS188
 6003 11e0 01       		.uleb128 0x1
 6004 11e1 B1240000 		.long	0x24b1
 6005 11e5 B1010000 		.long	.LLST189
GAS LISTING /tmp/ccoiMs3n.s 			page 110


 6006 11e9 AD010000 		.long	.LVUS189
 6007 11ed 09       		.uleb128 0x9
 6008 11ee 83010000 		.long	.LLRL187
 6009 11f2 05       		.uleb128 0x5
 6010 11f3 C9240000 		.long	0x24c9
 6011 11f7 C3010000 		.long	.LLST190
 6012 11fb C1010000 		.long	.LVUS190
 6013 11ff 05       		.uleb128 0x5
 6014 1200 D4240000 		.long	0x24d4
 6015 1204 D0010000 		.long	.LLST191
 6016 1208 CC010000 		.long	.LVUS191
 6017 120c 18       		.uleb128 0x18
 6018 120d 64250000 		.long	0x2564
 6019 1211 22000000 		.long	.LBI270
 6020 1215 08       		.byte	.LVU782
 6021 1216 22000000 		.long	.LBB270
 6022 121a 1A000000 		.long	.LBE270-.LBB270
 6023 121e B5       		.byte	0xb5
 6024 121f 0A       		.byte	0xa
 6025 1220 4C120000 		.long	0x124c
 6026 1224 01       		.uleb128 0x1
 6027 1225 7F250000 		.long	0x257f
 6028 1229 E2010000 		.long	.LLST192
 6029 122d E0010000 		.long	.LVUS192
 6030 1231 01       		.uleb128 0x1
 6031 1232 73250000 		.long	0x2573
 6032 1236 F2010000 		.long	.LLST193
 6033 123a F0010000 		.long	.LVUS193
 6034 123e 05       		.uleb128 0x5
 6035 123f 8B250000 		.long	0x258b
 6036 1243 03020000 		.long	.LLST194
 6037 1247 FB010000 		.long	.LVUS194
 6038 124b 00       		.byte	0
 6039 124c 1A       		.uleb128 0x1a
 6040 124d 3D250000 		.long	0x253d
 6041 1251 65000000 		.long	.LBI272
 6042 1255 01       		.byte	.LVU810
 6043 1256 8F010000 		.long	.LLRL195
 6044 125a BC       		.byte	0xbc
 6045 125b 1A       		.byte	0x1a
 6046 125c 81120000 		.long	0x1281
 6047 1260 01       		.uleb128 0x1
 6048 1261 4C250000 		.long	0x254c
 6049 1265 24020000 		.long	.LLST196
 6050 1269 22020000 		.long	.LVUS196
 6051 126d 09       		.uleb128 0x9
 6052 126e 8F010000 		.long	.LLRL195
 6053 1272 05       		.uleb128 0x5
 6054 1273 58250000 		.long	0x2558
 6055 1277 2F020000 		.long	.LLST197
 6056 127b 2D020000 		.long	.LVUS197
 6057 127f 00       		.byte	0
 6058 1280 00       		.byte	0
 6059 1281 02       		.uleb128 0x2
 6060 1282 72000000 		.long	.LVL235
 6061 1286 010E0000 		.long	0xe01
 6062 128a 00       		.byte	0
GAS LISTING /tmp/ccoiMs3n.s 			page 111


 6063 128b 00       		.byte	0
 6064 128c 02       		.uleb128 0x2
 6065 128d 22000000 		.long	.LVL224
 6066 1291 940E0000 		.long	0xe94
 6067 1295 02       		.uleb128 0x2
 6068 1296 47000000 		.long	.LVL229
 6069 129a 830E0000 		.long	0xe83
 6070 129e 00       		.byte	0
 6071 129f 07       		.uleb128 0x7
 6072 12a0 740C0000 		.long	0xc74
 6073 12a4 0D       		.uleb128 0xd
 6074 12a5 BF080000 		.long	.LASF202
 6075 12a9 0503     		.value	0x305
 6076 12ab 15       		.byte	0x15
 6077 12ac 9F120000 		.long	0x129f
 6078 12b0 00000000 		.long	.LFB240
 6079 12b4 84000000 		.long	.LFE240-.LFB240
 6080 12b8 01       		.uleb128 0x1
 6081 12b9 9C       		.byte	0x9c
 6082 12ba 7F130000 		.long	0x137f
 6083 12be 0E       		.uleb128 0xe
 6084 12bf 8C090000 		.long	.LASF39
 6085 12c3 0503     		.value	0x305
 6086 12c5 3A       		.byte	0x3a
 6087 12c6 47000000 		.long	0x47
 6088 12ca 02       		.uleb128 0x2
 6089 12cb 91       		.byte	0x91
 6090 12cc 00       		.sleb128 0
 6091 12cd 12       		.uleb128 0x12
 6092 12ce FF0B0000 		.long	.LASF201
 6093 12d2 0603     		.value	0x306
 6094 12d4 17       		.byte	0x17
 6095 12d5 9F120000 		.long	0x129f
 6096 12d9 3C020000 		.long	.LLST177
 6097 12dd 38020000 		.long	.LVUS177
 6098 12e1 0C       		.uleb128 0xc
 6099 12e2 82230000 		.long	0x2382
 6100 12e6 28000000 		.long	.LBI254
 6101 12ea 01       		.byte	.LVU737
 6102 12eb 6B010000 		.long	.LLRL178
 6103 12ef 0A03     		.value	0x30a
 6104 12f1 20       		.byte	0x20
 6105 12f2 6C130000 		.long	0x136c
 6106 12f6 01       		.uleb128 0x1
 6107 12f7 A1230000 		.long	0x23a1
 6108 12fb 50020000 		.long	.LLST179
 6109 12ff 4C020000 		.long	.LVUS179
 6110 1303 01       		.uleb128 0x1
 6111 1304 94230000 		.long	0x2394
 6112 1308 6E020000 		.long	.LLST180
 6113 130c 6A020000 		.long	.LVUS180
 6114 1310 09       		.uleb128 0x9
 6115 1311 6B010000 		.long	.LLRL178
 6116 1315 05       		.uleb128 0x5
 6117 1316 AE230000 		.long	0x23ae
 6118 131a 80020000 		.long	.LLST181
 6119 131e 7E020000 		.long	.LVUS181
GAS LISTING /tmp/ccoiMs3n.s 			page 112


 6120 1322 1B       		.uleb128 0x1b
 6121 1323 97250000 		.long	0x2597
 6122 1327 28000000 		.long	.LBI256
 6123 132b 07       		.byte	.LVU743
 6124 132c 77010000 		.long	.LLRL182
 6125 1330 0D01     		.value	0x10d
 6126 1332 09       		.byte	0x9
 6127 1333 01       		.uleb128 0x1
 6128 1334 B2250000 		.long	0x25b2
 6129 1338 8D020000 		.long	.LLST183
 6130 133c 89020000 		.long	.LVUS183
 6131 1340 01       		.uleb128 0x1
 6132 1341 A6250000 		.long	0x25a6
 6133 1345 AB020000 		.long	.LLST184
 6134 1349 A7020000 		.long	.LVUS184
 6135 134d 09       		.uleb128 0x9
 6136 134e 77010000 		.long	.LLRL182
 6137 1352 05       		.uleb128 0x5
 6138 1353 BE250000 		.long	0x25be
 6139 1357 BF020000 		.long	.LLST185
 6140 135b BB020000 		.long	.LVUS185
 6141 135f 02       		.uleb128 0x2
 6142 1360 56000000 		.long	.LVL216
 6143 1364 4D0E0000 		.long	0xe4d
 6144 1368 00       		.byte	0
 6145 1369 00       		.byte	0
 6146 136a 00       		.byte	0
 6147 136b 00       		.byte	0
 6148 136c 02       		.uleb128 0x2
 6149 136d 28000000 		.long	.LVL213
 6150 1371 940E0000 		.long	0xe94
 6151 1375 02       		.uleb128 0x2
 6152 1376 71000000 		.long	.LVL219
 6153 137a 830E0000 		.long	0xe83
 6154 137e 00       		.byte	0
 6155 137f 0D       		.uleb128 0xd
 6156 1380 50010000 		.long	.LASF203
 6157 1384 D502     		.value	0x2d5
 6158 1386 15       		.byte	0x15
 6159 1387 9F120000 		.long	0x129f
 6160 138b 00000000 		.long	.LFB239
 6161 138f C9000000 		.long	.LFE239-.LFB239
 6162 1393 01       		.uleb128 0x1
 6163 1394 9C       		.byte	0x9c
 6164 1395 0D150000 		.long	0x150d
 6165 1399 0E       		.uleb128 0xe
 6166 139a 8C090000 		.long	.LASF39
 6167 139e D502     		.value	0x2d5
 6168 13a0 3C       		.byte	0x3c
 6169 13a1 47000000 		.long	0x47
 6170 13a5 02       		.uleb128 0x2
 6171 13a6 91       		.byte	0x91
 6172 13a7 00       		.sleb128 0
 6173 13a8 3A       		.uleb128 0x3a
 6174 13a9 C8020000 		.long	.LASF235
 6175 13ad 02       		.byte	0x2
 6176 13ae D602     		.value	0x2d6
GAS LISTING /tmp/ccoiMs3n.s 			page 113


 6177 13b0 37       		.byte	0x37
 6178 13b1 26000000 		.long	0x26
 6179 13b5 D9020000 		.long	.LLST164
 6180 13b9 CF020000 		.long	.LVUS164
 6181 13bd 0E       		.uleb128 0xe
 6182 13be 46060000 		.long	.LASF204
 6183 13c2 D702     		.value	0x2d7
 6184 13c4 37       		.byte	0x37
 6185 13c5 26000000 		.long	0x26
 6186 13c9 02       		.uleb128 0x2
 6187 13ca 91       		.byte	0x91
 6188 13cb 08       		.sleb128 8
 6189 13cc 0E       		.uleb128 0xe
 6190 13cd EA060000 		.long	.LASF205
 6191 13d1 D802     		.value	0x2d8
 6192 13d3 39       		.byte	0x39
 6193 13d4 32000000 		.long	0x32
 6194 13d8 02       		.uleb128 0x2
 6195 13d9 91       		.byte	0x91
 6196 13da 0C       		.sleb128 12
 6197 13db 12       		.uleb128 0x12
 6198 13dc 48090000 		.long	.LASF206
 6199 13e0 D902     		.value	0x2d9
 6200 13e2 0A       		.byte	0xa
 6201 13e3 26000000 		.long	0x26
 6202 13e7 1F030000 		.long	.LLST165
 6203 13eb 19030000 		.long	.LVUS165
 6204 13ef 12       		.uleb128 0x12
 6205 13f0 9D040000 		.long	.LASF207
 6206 13f4 D902     		.value	0x2d9
 6207 13f6 11       		.byte	0x11
 6208 13f7 26000000 		.long	0x26
 6209 13fb 5F030000 		.long	.LLST166
 6210 13ff 55030000 		.long	.LVUS166
 6211 1403 12       		.uleb128 0x12
 6212 1404 FF0B0000 		.long	.LASF201
 6213 1408 DA02     		.value	0x2da
 6214 140a 17       		.byte	0x17
 6215 140b 9F120000 		.long	0x129f
 6216 140f B4030000 		.long	.LLST167
 6217 1413 B0030000 		.long	.LVUS167
 6218 1417 3B       		.uleb128 0x3b
 6219 1418 60000000 		.long	.LBB241
 6220 141c 54000000 		.long	.LBE241-.LBB241
 6221 1420 CE140000 		.long	0x14ce
 6222 1424 12       		.uleb128 0x12
 6223 1425 11090000 		.long	.LASF208
 6224 1429 EA02     		.value	0x2ea
 6225 142b 0C       		.byte	0xc
 6226 142c 5F080000 		.long	0x85f
 6227 1430 C9030000 		.long	.LLST168
 6228 1434 C5030000 		.long	.LVUS168
 6229 1438 12       		.uleb128 0x12
 6230 1439 450C0000 		.long	.LASF209
 6231 143d EB02     		.value	0x2eb
 6232 143f 0E       		.byte	0xe
 6233 1440 7D040000 		.long	0x47d
GAS LISTING /tmp/ccoiMs3n.s 			page 114


 6234 1444 E3030000 		.long	.LLST169
 6235 1448 E1030000 		.long	.LVUS169
 6236 144c 1B       		.uleb128 0x1b
 6237 144d 18260000 		.long	0x2618
 6238 1451 60000000 		.long	.LBI242
 6239 1455 03       		.byte	.LVU709
 6240 1456 59010000 		.long	.LLRL170
 6241 145a EE02     		.value	0x2ee
 6242 145c 05       		.byte	0x5
 6243 145d 01       		.uleb128 0x1
 6244 145e 61260000 		.long	0x2661
 6245 1462 F1030000 		.long	.LLST171
 6246 1466 ED030000 		.long	.LVUS171
 6247 146a 01       		.uleb128 0x1
 6248 146b 55260000 		.long	0x2655
 6249 146f 0B040000 		.long	.LLST172
 6250 1473 09040000 		.long	.LVUS172
 6251 1477 01       		.uleb128 0x1
 6252 1478 49260000 		.long	0x2649
 6253 147c 17040000 		.long	.LLST173
 6254 1480 15040000 		.long	.LVUS173
 6255 1484 01       		.uleb128 0x1
 6256 1485 3D260000 		.long	0x263d
 6257 1489 22040000 		.long	.LLST174
 6258 148d 20040000 		.long	.LVUS174
 6259 1491 01       		.uleb128 0x1
 6260 1492 31260000 		.long	0x2631
 6261 1496 2E040000 		.long	.LLST175
 6262 149a 2C040000 		.long	.LVUS175
 6263 149e 01       		.uleb128 0x1
 6264 149f 25260000 		.long	0x2625
 6265 14a3 3C040000 		.long	.LLST176
 6266 14a7 38040000 		.long	.LVUS176
 6267 14ab 09       		.uleb128 0x9
 6268 14ac 59010000 		.long	.LLRL170
 6269 14b0 02       		.uleb128 0x2
 6270 14b1 7C000000 		.long	.LVL205
 6271 14b5 AB0D0000 		.long	0xdab
 6272 14b9 02       		.uleb128 0x2
 6273 14ba 8D000000 		.long	.LVL206
 6274 14be 8B0D0000 		.long	0xd8b
 6275 14c2 02       		.uleb128 0x2
 6276 14c3 A9000000 		.long	.LVL208
 6277 14c7 C60D0000 		.long	0xdc6
 6278 14cb 00       		.byte	0
 6279 14cc 00       		.byte	0
 6280 14cd 00       		.byte	0
 6281 14ce 02       		.uleb128 0x2
 6282 14cf 22000000 		.long	.LVL196
 6283 14d3 940E0000 		.long	0xe94
 6284 14d7 27       		.uleb128 0x27
 6285 14d8 59000000 		.long	.LVL201
 6286 14dc E9240000 		.long	0x24e9
 6287 14e0 03150000 		.long	0x1503
 6288 14e4 13       		.uleb128 0x13
 6289 14e5 01       		.uleb128 0x1
 6290 14e6 50       		.byte	0x50
GAS LISTING /tmp/ccoiMs3n.s 			page 115


 6291 14e7 03       		.uleb128 0x3
 6292 14e8 91       		.byte	0x91
 6293 14e9 00       		.sleb128 0
 6294 14ea 06       		.byte	0x6
 6295 14eb 13       		.uleb128 0x13
 6296 14ec 01       		.uleb128 0x1
 6297 14ed 52       		.byte	0x52
 6298 14ee 05       		.uleb128 0x5
 6299 14ef 03       		.byte	0x3
 6300 14f0 40000000 		.long	ch_factory+64
 6301 14f4 13       		.uleb128 0x13
 6302 14f5 01       		.uleb128 0x1
 6303 14f6 51       		.byte	0x51
 6304 14f7 0A       		.uleb128 0xa
 6305 14f8 91       		.byte	0x91
 6306 14f9 54       		.sleb128 -44
 6307 14fa 06       		.byte	0x6
 6308 14fb 91       		.byte	0x91
 6309 14fc 08       		.sleb128 8
 6310 14fd 06       		.byte	0x6
 6311 14fe 1E       		.byte	0x1e
 6312 14ff 76       		.byte	0x76
 6313 1500 00       		.sleb128 0
 6314 1501 22       		.byte	0x22
 6315 1502 00       		.byte	0
 6316 1503 02       		.uleb128 0x2
 6317 1504 BD000000 		.long	.LVL210
 6318 1508 830E0000 		.long	0xe83
 6319 150c 00       		.byte	0
 6320 150d 0D       		.uleb128 0xd
 6321 150e A20A0000 		.long	.LASF210
 6322 1512 B402     		.value	0x2b4
 6323 1514 08       		.byte	0x8
 6324 1515 5C010000 		.long	0x15c
 6325 1519 00000000 		.long	.LFB238
 6326 151d 77000000 		.long	.LFE238-.LFB238
 6327 1521 01       		.uleb128 0x1
 6328 1522 9C       		.byte	0x9c
 6329 1523 2B160000 		.long	0x162b
 6330 1527 19       		.uleb128 0x19
 6331 1528 646D7000 		.string	"dmp"
 6332 152c B402     		.value	0x2b4
 6333 152e 2F       		.byte	0x2f
 6334 152f 2B160000 		.long	0x162b
 6335 1533 02       		.uleb128 0x2
 6336 1534 91       		.byte	0x91
 6337 1535 00       		.sleb128 0
 6338 1536 12       		.uleb128 0x12
 6339 1537 46010000 		.long	.LASF38
 6340 153b B502     		.value	0x2b5
 6341 153d 0A       		.byte	0xa
 6342 153e 5C010000 		.long	0x15c
 6343 1542 52040000 		.long	.LLST152
 6344 1546 4E040000 		.long	.LVUS152
 6345 154a 0C       		.uleb128 0xc
 6346 154b A2240000 		.long	0x24a2
 6347 154f 22000000 		.long	.LBI228
GAS LISTING /tmp/ccoiMs3n.s 			page 116


 6348 1553 01       		.byte	.LVU634
 6349 1554 41010000 		.long	.LLRL153
 6350 1558 B902     		.value	0x2b9
 6351 155a 0A       		.byte	0xa
 6352 155b 18160000 		.long	0x1618
 6353 155f 01       		.uleb128 0x1
 6354 1560 BD240000 		.long	0x24bd
 6355 1564 66040000 		.long	.LLST154
 6356 1568 62040000 		.long	.LVUS154
 6357 156c 01       		.uleb128 0x1
 6358 156d B1240000 		.long	0x24b1
 6359 1571 84040000 		.long	.LLST155
 6360 1575 80040000 		.long	.LVUS155
 6361 1579 09       		.uleb128 0x9
 6362 157a 41010000 		.long	.LLRL153
 6363 157e 05       		.uleb128 0x5
 6364 157f C9240000 		.long	0x24c9
 6365 1583 96040000 		.long	.LLST156
 6366 1587 94040000 		.long	.LVUS156
 6367 158b 05       		.uleb128 0x5
 6368 158c D4240000 		.long	0x24d4
 6369 1590 A3040000 		.long	.LLST157
 6370 1594 9F040000 		.long	.LVUS157
 6371 1598 18       		.uleb128 0x18
 6372 1599 64250000 		.long	0x2564
 6373 159d 22000000 		.long	.LBI230
 6374 15a1 08       		.byte	.LVU641
 6375 15a2 22000000 		.long	.LBB230
 6376 15a6 1A000000 		.long	.LBE230-.LBB230
 6377 15aa B5       		.byte	0xb5
 6378 15ab 0A       		.byte	0xa
 6379 15ac D8150000 		.long	0x15d8
 6380 15b0 01       		.uleb128 0x1
 6381 15b1 7F250000 		.long	0x257f
 6382 15b5 B5040000 		.long	.LLST158
 6383 15b9 B3040000 		.long	.LVUS158
 6384 15bd 01       		.uleb128 0x1
 6385 15be 73250000 		.long	0x2573
 6386 15c2 C5040000 		.long	.LLST159
 6387 15c6 C3040000 		.long	.LVUS159
 6388 15ca 05       		.uleb128 0x5
 6389 15cb 8B250000 		.long	0x258b
 6390 15cf D6040000 		.long	.LLST160
 6391 15d3 CE040000 		.long	.LVUS160
 6392 15d7 00       		.byte	0
 6393 15d8 1A       		.uleb128 0x1a
 6394 15d9 3D250000 		.long	0x253d
 6395 15dd 65000000 		.long	.LBI232
 6396 15e1 01       		.byte	.LVU669
 6397 15e2 4D010000 		.long	.LLRL161
 6398 15e6 BC       		.byte	0xbc
 6399 15e7 1A       		.byte	0x1a
 6400 15e8 0D160000 		.long	0x160d
 6401 15ec 01       		.uleb128 0x1
 6402 15ed 4C250000 		.long	0x254c
 6403 15f1 F7040000 		.long	.LLST162
 6404 15f5 F5040000 		.long	.LVUS162
GAS LISTING /tmp/ccoiMs3n.s 			page 117


 6405 15f9 09       		.uleb128 0x9
 6406 15fa 4D010000 		.long	.LLRL161
 6407 15fe 05       		.uleb128 0x5
 6408 15ff 58250000 		.long	0x2558
 6409 1603 02050000 		.long	.LLST163
 6410 1607 00050000 		.long	.LVUS163
 6411 160b 00       		.byte	0
 6412 160c 00       		.byte	0
 6413 160d 02       		.uleb128 0x2
 6414 160e 72000000 		.long	.LVL194
 6415 1612 010E0000 		.long	0xe01
 6416 1616 00       		.byte	0
 6417 1617 00       		.byte	0
 6418 1618 02       		.uleb128 0x2
 6419 1619 22000000 		.long	.LVL183
 6420 161d 940E0000 		.long	0xe94
 6421 1621 02       		.uleb128 0x2
 6422 1622 47000000 		.long	.LVL188
 6423 1626 830E0000 		.long	0xe83
 6424 162a 00       		.byte	0
 6425 162b 07       		.uleb128 0x7
 6426 162c 3D0C0000 		.long	0xc3d
 6427 1630 0D       		.uleb128 0xd
 6428 1631 4A070000 		.long	.LASF211
 6429 1635 9B02     		.value	0x29b
 6430 1637 10       		.byte	0x10
 6431 1638 2B160000 		.long	0x162b
 6432 163c 00000000 		.long	.LFB237
 6433 1640 84000000 		.long	.LFE237-.LFB237
 6434 1644 01       		.uleb128 0x1
 6435 1645 9C       		.byte	0x9c
 6436 1646 0B170000 		.long	0x170b
 6437 164a 0E       		.uleb128 0xe
 6438 164b 8C090000 		.long	.LASF39
 6439 164f 9B02     		.value	0x29b
 6440 1651 31       		.byte	0x31
 6441 1652 47000000 		.long	0x47
 6442 1656 02       		.uleb128 0x2
 6443 1657 91       		.byte	0x91
 6444 1658 00       		.sleb128 0
 6445 1659 15       		.uleb128 0x15
 6446 165a 646D7000 		.string	"dmp"
 6447 165e 9C02     		.value	0x29c
 6448 1660 12       		.byte	0x12
 6449 1661 2B160000 		.long	0x162b
 6450 1665 0F050000 		.long	.LLST143
 6451 1669 0B050000 		.long	.LVUS143
 6452 166d 0C       		.uleb128 0xc
 6453 166e 82230000 		.long	0x2382
 6454 1672 28000000 		.long	.LBI214
 6455 1676 01       		.byte	.LVU596
 6456 1677 29010000 		.long	.LLRL144
 6457 167b A002     		.value	0x2a0
 6458 167d 1A       		.byte	0x1a
 6459 167e F8160000 		.long	0x16f8
 6460 1682 01       		.uleb128 0x1
 6461 1683 A1230000 		.long	0x23a1
GAS LISTING /tmp/ccoiMs3n.s 			page 118


 6462 1687 23050000 		.long	.LLST145
 6463 168b 1F050000 		.long	.LVUS145
 6464 168f 01       		.uleb128 0x1
 6465 1690 94230000 		.long	0x2394
 6466 1694 41050000 		.long	.LLST146
 6467 1698 3D050000 		.long	.LVUS146
 6468 169c 09       		.uleb128 0x9
 6469 169d 29010000 		.long	.LLRL144
 6470 16a1 05       		.uleb128 0x5
 6471 16a2 AE230000 		.long	0x23ae
 6472 16a6 53050000 		.long	.LLST147
 6473 16aa 51050000 		.long	.LVUS147
 6474 16ae 1B       		.uleb128 0x1b
 6475 16af 97250000 		.long	0x2597
 6476 16b3 28000000 		.long	.LBI216
 6477 16b7 07       		.byte	.LVU602
 6478 16b8 35010000 		.long	.LLRL148
 6479 16bc 0D01     		.value	0x10d
 6480 16be 09       		.byte	0x9
 6481 16bf 01       		.uleb128 0x1
 6482 16c0 B2250000 		.long	0x25b2
 6483 16c4 60050000 		.long	.LLST149
 6484 16c8 5C050000 		.long	.LVUS149
 6485 16cc 01       		.uleb128 0x1
 6486 16cd A6250000 		.long	0x25a6
 6487 16d1 7E050000 		.long	.LLST150
 6488 16d5 7A050000 		.long	.LVUS150
 6489 16d9 09       		.uleb128 0x9
 6490 16da 35010000 		.long	.LLRL148
 6491 16de 05       		.uleb128 0x5
 6492 16df BE250000 		.long	0x25be
 6493 16e3 92050000 		.long	.LLST151
 6494 16e7 8E050000 		.long	.LVUS151
 6495 16eb 02       		.uleb128 0x2
 6496 16ec 56000000 		.long	.LVL175
 6497 16f0 4D0E0000 		.long	0xe4d
 6498 16f4 00       		.byte	0
 6499 16f5 00       		.byte	0
 6500 16f6 00       		.byte	0
 6501 16f7 00       		.byte	0
 6502 16f8 02       		.uleb128 0x2
 6503 16f9 28000000 		.long	.LVL172
 6504 16fd 940E0000 		.long	0xe94
 6505 1701 02       		.uleb128 0x2
 6506 1702 71000000 		.long	.LVL178
 6507 1706 830E0000 		.long	0xe83
 6508 170a 00       		.byte	0
 6509 170b 0D       		.uleb128 0xd
 6510 170c 370B0000 		.long	.LASF212
 6511 1710 7A02     		.value	0x27a
 6512 1712 10       		.byte	0x10
 6513 1713 2B160000 		.long	0x162b
 6514 1717 00000000 		.long	.LFB236
 6515 171b 6F000000 		.long	.LFE236-.LFB236
 6516 171f 01       		.uleb128 0x1
 6517 1720 9C       		.byte	0x9c
 6518 1721 99170000 		.long	0x1799
GAS LISTING /tmp/ccoiMs3n.s 			page 119


 6519 1725 0E       		.uleb128 0xe
 6520 1726 8C090000 		.long	.LASF39
 6521 172a 7A02     		.value	0x27a
 6522 172c 33       		.byte	0x33
 6523 172d 47000000 		.long	0x47
 6524 1731 02       		.uleb128 0x2
 6525 1732 91       		.byte	0x91
 6526 1733 00       		.sleb128 0
 6527 1734 19       		.uleb128 0x19
 6528 1735 6E00     		.string	"n"
 6529 1737 7A02     		.value	0x27a
 6530 1739 40       		.byte	0x40
 6531 173a 26000000 		.long	0x26
 6532 173e 02       		.uleb128 0x2
 6533 173f 91       		.byte	0x91
 6534 1740 04       		.sleb128 4
 6535 1741 15       		.uleb128 0x15
 6536 1742 646D7000 		.string	"dmp"
 6537 1746 7B02     		.value	0x27b
 6538 1748 12       		.byte	0x12
 6539 1749 2B160000 		.long	0x162b
 6540 174d A8050000 		.long	.LLST142
 6541 1751 A2050000 		.long	.LVUS142
 6542 1755 02       		.uleb128 0x2
 6543 1756 22000000 		.long	.LVL164
 6544 175a 940E0000 		.long	0xe94
 6545 175e 27       		.uleb128 0x27
 6546 175f 3F000000 		.long	.LVL165
 6547 1763 E9240000 		.long	0x24e9
 6548 1767 86170000 		.long	0x1786
 6549 176b 13       		.uleb128 0x13
 6550 176c 01       		.uleb128 0x1
 6551 176d 50       		.byte	0x50
 6552 176e 03       		.uleb128 0x3
 6553 176f 91       		.byte	0x91
 6554 1770 00       		.sleb128 0
 6555 1771 06       		.byte	0x6
 6556 1772 13       		.uleb128 0x13
 6557 1773 01       		.uleb128 0x1
 6558 1774 52       		.byte	0x52
 6559 1775 05       		.uleb128 0x5
 6560 1776 03       		.byte	0x3
 6561 1777 3C000000 		.long	ch_factory+60
 6562 177b 13       		.uleb128 0x13
 6563 177c 01       		.uleb128 0x1
 6564 177d 51       		.byte	0x51
 6565 177e 06       		.uleb128 0x6
 6566 177f 75       		.byte	0x75
 6567 1780 00       		.sleb128 0
 6568 1781 32       		.byte	0x32
 6569 1782 24       		.byte	0x24
 6570 1783 23       		.byte	0x23
 6571 1784 38       		.uleb128 0x38
 6572 1785 00       		.byte	0
 6573 1786 02       		.uleb128 0x2
 6574 1787 59000000 		.long	.LVL168
 6575 178b C60D0000 		.long	0xdc6
GAS LISTING /tmp/ccoiMs3n.s 			page 120


 6576 178f 02       		.uleb128 0x2
 6577 1790 65000000 		.long	.LVL169
 6578 1794 830E0000 		.long	0xe83
 6579 1798 00       		.byte	0
 6580 1799 0D       		.uleb128 0xd
 6581 179a 19030000 		.long	.LASF213
 6582 179e 5B02     		.value	0x25b
 6583 17a0 08       		.byte	0x8
 6584 17a1 5C010000 		.long	0x15c
 6585 17a5 00000000 		.long	.LFB235
 6586 17a9 7B000000 		.long	.LFE235-.LFB235
 6587 17ad 01       		.uleb128 0x1
 6588 17ae 9C       		.byte	0x9c
 6589 17af C4180000 		.long	0x18c4
 6590 17b3 19       		.uleb128 0x19
 6591 17b4 64737000 		.string	"dsp"
 6592 17b8 5B02     		.value	0x25b
 6593 17ba 33       		.byte	0x33
 6594 17bb C4180000 		.long	0x18c4
 6595 17bf 02       		.uleb128 0x2
 6596 17c0 91       		.byte	0x91
 6597 17c1 00       		.sleb128 0
 6598 17c2 12       		.uleb128 0x12
 6599 17c3 46010000 		.long	.LASF38
 6600 17c7 5C02     		.value	0x25c
 6601 17c9 0A       		.byte	0xa
 6602 17ca 5C010000 		.long	0x15c
 6603 17ce C1050000 		.long	.LLST129
 6604 17d2 BD050000 		.long	.LVUS129
 6605 17d6 0C       		.uleb128 0xc
 6606 17d7 DF230000 		.long	0x23df
 6607 17db 22000000 		.long	.LBI200
 6608 17df 01       		.byte	.LVU525
 6609 17e0 11010000 		.long	.LLRL130
 6610 17e4 6002     		.value	0x260
 6611 17e6 0A       		.byte	0xa
 6612 17e7 B1180000 		.long	0x18b1
 6613 17eb 01       		.uleb128 0x1
 6614 17ec 06240000 		.long	0x2406
 6615 17f0 D5050000 		.long	.LLST131
 6616 17f4 D1050000 		.long	.LVUS131
 6617 17f8 01       		.uleb128 0x1
 6618 17f9 FA230000 		.long	0x23fa
 6619 17fd F3050000 		.long	.LLST132
 6620 1801 EF050000 		.long	.LVUS132
 6621 1805 01       		.uleb128 0x1
 6622 1806 EE230000 		.long	0x23ee
 6623 180a 11060000 		.long	.LLST133
 6624 180e 0D060000 		.long	.LVUS133
 6625 1812 09       		.uleb128 0x9
 6626 1813 11010000 		.long	.LLRL130
 6627 1817 05       		.uleb128 0x5
 6628 1818 11240000 		.long	0x2411
 6629 181c 23060000 		.long	.LLST134
 6630 1820 21060000 		.long	.LVUS134
 6631 1824 05       		.uleb128 0x5
 6632 1825 1C240000 		.long	0x241c
GAS LISTING /tmp/ccoiMs3n.s 			page 121


 6633 1829 30060000 		.long	.LLST135
 6634 182d 2C060000 		.long	.LVUS135
 6635 1831 18       		.uleb128 0x18
 6636 1832 64250000 		.long	0x2564
 6637 1836 22000000 		.long	.LBI202
 6638 183a 08       		.byte	.LVU532
 6639 183b 22000000 		.long	.LBB202
 6640 183f 1A000000 		.long	.LBE202-.LBB202
 6641 1843 F2       		.byte	0xf2
 6642 1844 0A       		.byte	0xa
 6643 1845 71180000 		.long	0x1871
 6644 1849 01       		.uleb128 0x1
 6645 184a 7F250000 		.long	0x257f
 6646 184e 42060000 		.long	.LLST136
 6647 1852 40060000 		.long	.LVUS136
 6648 1856 01       		.uleb128 0x1
 6649 1857 73250000 		.long	0x2573
 6650 185b 52060000 		.long	.LLST137
 6651 185f 50060000 		.long	.LVUS137
 6652 1863 05       		.uleb128 0x5
 6653 1864 8B250000 		.long	0x258b
 6654 1868 63060000 		.long	.LLST138
 6655 186c 5B060000 		.long	.LVUS138
 6656 1870 00       		.byte	0
 6657 1871 1A       		.uleb128 0x1a
 6658 1872 3D250000 		.long	0x253d
 6659 1876 65000000 		.long	.LBI204
 6660 187a 01       		.byte	.LVU560
 6661 187b 1D010000 		.long	.LLRL139
 6662 187f F9       		.byte	0xf9
 6663 1880 1E       		.byte	0x1e
 6664 1881 A6180000 		.long	0x18a6
 6665 1885 01       		.uleb128 0x1
 6666 1886 4C250000 		.long	0x254c
 6667 188a 84060000 		.long	.LLST140
 6668 188e 82060000 		.long	.LVUS140
 6669 1892 09       		.uleb128 0x9
 6670 1893 1D010000 		.long	.LLRL139
 6671 1897 05       		.uleb128 0x5
 6672 1898 58250000 		.long	0x2558
 6673 189c 8F060000 		.long	.LLST141
 6674 18a0 8D060000 		.long	.LVUS141
 6675 18a4 00       		.byte	0
 6676 18a5 00       		.byte	0
 6677 18a6 02       		.uleb128 0x2
 6678 18a7 76000000 		.long	.LVL162
 6679 18ab 320E0000 		.long	0xe32
 6680 18af 00       		.byte	0
 6681 18b0 00       		.byte	0
 6682 18b1 02       		.uleb128 0x2
 6683 18b2 22000000 		.long	.LVL151
 6684 18b6 940E0000 		.long	0xe94
 6685 18ba 02       		.uleb128 0x2
 6686 18bb 47000000 		.long	.LVL156
 6687 18bf 830E0000 		.long	0xe83
 6688 18c3 00       		.byte	0
 6689 18c4 07       		.uleb128 0x7
GAS LISTING /tmp/ccoiMs3n.s 			page 122


 6690 18c5 090C0000 		.long	0xc09
 6691 18c9 0D       		.uleb128 0xd
 6692 18ca 24060000 		.long	.LASF214
 6693 18ce 4202     		.value	0x242
 6694 18d0 12       		.byte	0x12
 6695 18d1 C4180000 		.long	0x18c4
 6696 18d5 00000000 		.long	.LFB234
 6697 18d9 84000000 		.long	.LFE234-.LFB234
 6698 18dd 01       		.uleb128 0x1
 6699 18de 9C       		.byte	0x9c
 6700 18df A4190000 		.long	0x19a4
 6701 18e3 0E       		.uleb128 0xe
 6702 18e4 8C090000 		.long	.LASF39
 6703 18e8 4202     		.value	0x242
 6704 18ea 35       		.byte	0x35
 6705 18eb 47000000 		.long	0x47
 6706 18ef 02       		.uleb128 0x2
 6707 18f0 91       		.byte	0x91
 6708 18f1 00       		.sleb128 0
 6709 18f2 15       		.uleb128 0x15
 6710 18f3 64737000 		.string	"dsp"
 6711 18f7 4302     		.value	0x243
 6712 18f9 14       		.byte	0x14
 6713 18fa C4180000 		.long	0x18c4
 6714 18fe 9C060000 		.long	.LLST120
 6715 1902 98060000 		.long	.LVUS120
 6716 1906 0C       		.uleb128 0xc
 6717 1907 82230000 		.long	0x2382
 6718 190b 28000000 		.long	.LBI186
 6719 190f 01       		.byte	.LVU487
 6720 1910 F9000000 		.long	.LLRL121
 6721 1914 4702     		.value	0x247
 6722 1916 1C       		.byte	0x1c
 6723 1917 91190000 		.long	0x1991
 6724 191b 01       		.uleb128 0x1
 6725 191c A1230000 		.long	0x23a1
 6726 1920 B0060000 		.long	.LLST122
 6727 1924 AC060000 		.long	.LVUS122
 6728 1928 01       		.uleb128 0x1
 6729 1929 94230000 		.long	0x2394
 6730 192d CE060000 		.long	.LLST123
 6731 1931 CA060000 		.long	.LVUS123
 6732 1935 09       		.uleb128 0x9
 6733 1936 F9000000 		.long	.LLRL121
 6734 193a 05       		.uleb128 0x5
 6735 193b AE230000 		.long	0x23ae
 6736 193f E0060000 		.long	.LLST124
 6737 1943 DE060000 		.long	.LVUS124
 6738 1947 1B       		.uleb128 0x1b
 6739 1948 97250000 		.long	0x2597
 6740 194c 28000000 		.long	.LBI188
 6741 1950 07       		.byte	.LVU493
 6742 1951 05010000 		.long	.LLRL125
 6743 1955 0D01     		.value	0x10d
 6744 1957 09       		.byte	0x9
 6745 1958 01       		.uleb128 0x1
 6746 1959 B2250000 		.long	0x25b2
GAS LISTING /tmp/ccoiMs3n.s 			page 123


 6747 195d ED060000 		.long	.LLST126
 6748 1961 E9060000 		.long	.LVUS126
 6749 1965 01       		.uleb128 0x1
 6750 1966 A6250000 		.long	0x25a6
 6751 196a 0B070000 		.long	.LLST127
 6752 196e 07070000 		.long	.LVUS127
 6753 1972 09       		.uleb128 0x9
 6754 1973 05010000 		.long	.LLRL125
 6755 1977 05       		.uleb128 0x5
 6756 1978 BE250000 		.long	0x25be
 6757 197c 1F070000 		.long	.LLST128
 6758 1980 1B070000 		.long	.LVUS128
 6759 1984 02       		.uleb128 0x2
 6760 1985 56000000 		.long	.LVL143
 6761 1989 4D0E0000 		.long	0xe4d
 6762 198d 00       		.byte	0
 6763 198e 00       		.byte	0
 6764 198f 00       		.byte	0
 6765 1990 00       		.byte	0
 6766 1991 02       		.uleb128 0x2
 6767 1992 28000000 		.long	.LVL140
 6768 1996 940E0000 		.long	0xe94
 6769 199a 02       		.uleb128 0x2
 6770 199b 71000000 		.long	.LVL146
 6771 199f 830E0000 		.long	0xe83
 6772 19a3 00       		.byte	0
 6773 19a4 0D       		.uleb128 0xd
 6774 19a5 97070000 		.long	.LASF215
 6775 19a9 2302     		.value	0x223
 6776 19ab 12       		.byte	0x12
 6777 19ac C4180000 		.long	0x18c4
 6778 19b0 00000000 		.long	.LFB233
 6779 19b4 E7000000 		.long	.LFE233-.LFB233
 6780 19b8 01       		.uleb128 0x1
 6781 19b9 9C       		.byte	0x9c
 6782 19ba 3D1B0000 		.long	0x1b3d
 6783 19be 0E       		.uleb128 0xe
 6784 19bf 8C090000 		.long	.LASF39
 6785 19c3 2302     		.value	0x223
 6786 19c5 37       		.byte	0x37
 6787 19c6 47000000 		.long	0x47
 6788 19ca 02       		.uleb128 0x2
 6789 19cb 91       		.byte	0x91
 6790 19cc 00       		.sleb128 0
 6791 19cd 19       		.uleb128 0x19
 6792 19ce 6E00     		.string	"n"
 6793 19d0 2302     		.value	0x223
 6794 19d2 43       		.byte	0x43
 6795 19d3 50010000 		.long	0x150
 6796 19d7 02       		.uleb128 0x2
 6797 19d8 91       		.byte	0x91
 6798 19d9 04       		.sleb128 4
 6799 19da 15       		.uleb128 0x15
 6800 19db 64737000 		.string	"dsp"
 6801 19df 2402     		.value	0x224
 6802 19e1 14       		.byte	0x14
 6803 19e2 C4180000 		.long	0x18c4
GAS LISTING /tmp/ccoiMs3n.s 			page 124


 6804 19e6 31070000 		.long	.LLST102
 6805 19ea 2F070000 		.long	.LVUS102
 6806 19ee 0C       		.uleb128 0xc
 6807 19ef 46240000 		.long	0x2446
 6808 19f3 28000000 		.long	.LBI164
 6809 19f7 01       		.byte	.LVU422
 6810 19f8 E4000000 		.long	.LLRL103
 6811 19fc 2802     		.value	0x228
 6812 19fe 1C       		.byte	0x1c
 6813 19ff 211B0000 		.long	0x1b21
 6814 1a03 01       		.uleb128 0x1
 6815 1a04 6D240000 		.long	0x246d
 6816 1a08 3E070000 		.long	.LLST104
 6817 1a0c 3A070000 		.long	.LVUS104
 6818 1a10 01       		.uleb128 0x1
 6819 1a11 61240000 		.long	0x2461
 6820 1a15 5D070000 		.long	.LLST105
 6821 1a19 59070000 		.long	.LVUS105
 6822 1a1d 01       		.uleb128 0x1
 6823 1a1e 55240000 		.long	0x2455
 6824 1a22 7C070000 		.long	.LLST106
 6825 1a26 78070000 		.long	.LVUS106
 6826 1a2a 09       		.uleb128 0x9
 6827 1a2b E4000000 		.long	.LLRL103
 6828 1a2f 05       		.uleb128 0x5
 6829 1a30 78240000 		.long	0x2478
 6830 1a34 8F070000 		.long	.LLST107
 6831 1a38 8D070000 		.long	.LVUS107
 6832 1a3c 18       		.uleb128 0x18
 6833 1a3d 97250000 		.long	0x2597
 6834 1a41 28000000 		.long	.LBI166
 6835 1a45 07       		.byte	.LVU428
 6836 1a46 28000000 		.long	.LBB166
 6837 1a4a 35000000 		.long	.LBE166-.LBB166
 6838 1a4e D3       		.byte	0xd3
 6839 1a4f 09       		.byte	0x9
 6840 1a50 851A0000 		.long	0x1a85
 6841 1a54 01       		.uleb128 0x1
 6842 1a55 B2250000 		.long	0x25b2
 6843 1a59 9A070000 		.long	.LLST108
 6844 1a5d 98070000 		.long	.LVUS108
 6845 1a61 01       		.uleb128 0x1
 6846 1a62 A6250000 		.long	0x25a6
 6847 1a66 AA070000 		.long	.LLST109
 6848 1a6a A8070000 		.long	.LVUS109
 6849 1a6e 05       		.uleb128 0x5
 6850 1a6f BE250000 		.long	0x25be
 6851 1a73 B5070000 		.long	.LLST110
 6852 1a77 B3070000 		.long	.LVUS110
 6853 1a7b 02       		.uleb128 0x2
 6854 1a7c 56000000 		.long	.LVL123
 6855 1a80 4D0E0000 		.long	0xe4d
 6856 1a84 00       		.byte	0
 6857 1a85 2B       		.uleb128 0x2b
 6858 1a86 46240000 		.long	0x2446
 6859 1a8a 80000000 		.long	.LBI168
 6860 1a8e 00       		.byte	.LVU447
GAS LISTING /tmp/ccoiMs3n.s 			page 125


 6861 1a8f EA000000 		.long	.LLRL111
 6862 1a93 CB       		.byte	0xcb
 6863 1a94 01       		.uleb128 0x1
 6864 1a95 6D240000 		.long	0x246d
 6865 1a99 C0070000 		.long	.LLST112
 6866 1a9d BE070000 		.long	.LVUS112
 6867 1aa1 01       		.uleb128 0x1
 6868 1aa2 61240000 		.long	0x2461
 6869 1aa6 D0070000 		.long	.LLST113
 6870 1aaa CE070000 		.long	.LVUS113
 6871 1aae 01       		.uleb128 0x1
 6872 1aaf 55240000 		.long	0x2455
 6873 1ab3 E0070000 		.long	.LLST114
 6874 1ab7 DE070000 		.long	.LVUS114
 6875 1abb 09       		.uleb128 0x9
 6876 1abc EA000000 		.long	.LLRL111
 6877 1ac0 05       		.uleb128 0x5
 6878 1ac1 78240000 		.long	0x2478
 6879 1ac5 ED070000 		.long	.LLST115
 6880 1ac9 E9070000 		.long	.LVUS115
 6881 1acd 2C       		.uleb128 0x2c
 6882 1ace E2250000 		.long	0x25e2
 6883 1ad2 A0000000 		.long	.LBB170
 6884 1ad6 1A000000 		.long	.LBE170-.LBB170
 6885 1ada DF       		.byte	0xdf
 6886 1adb 141B0000 		.long	0x1b14
 6887 1adf 01       		.uleb128 0x1
 6888 1ae0 FA250000 		.long	0x25fa
 6889 1ae4 03080000 		.long	.LLST116
 6890 1ae8 FD070000 		.long	.LVUS116
 6891 1aec 01       		.uleb128 0x1
 6892 1aed EF250000 		.long	0x25ef
 6893 1af1 33080000 		.long	.LLST117
 6894 1af5 2D080000 		.long	.LVUS117
 6895 1af9 05       		.uleb128 0x5
 6896 1afa 05260000 		.long	0x2605
 6897 1afe 5F080000 		.long	.LLST118
 6898 1b02 59080000 		.long	.LVUS118
 6899 1b06 05       		.uleb128 0x5
 6900 1b07 0E260000 		.long	0x260e
 6901 1b0b 86080000 		.long	.LLST119
 6902 1b0f 80080000 		.long	.LVUS119
 6903 1b13 00       		.byte	0
 6904 1b14 02       		.uleb128 0x2
 6905 1b15 8F000000 		.long	.LVL129
 6906 1b19 6D0E0000 		.long	0xe6d
 6907 1b1d 00       		.byte	0
 6908 1b1e 00       		.byte	0
 6909 1b1f 00       		.byte	0
 6910 1b20 00       		.byte	0
 6911 1b21 02       		.uleb128 0x2
 6912 1b22 28000000 		.long	.LVL120
 6913 1b26 940E0000 		.long	0xe94
 6914 1b2a 02       		.uleb128 0x2
 6915 1b2b 6F000000 		.long	.LVL127
 6916 1b2f 830E0000 		.long	0xe83
 6917 1b33 02       		.uleb128 0x2
GAS LISTING /tmp/ccoiMs3n.s 			page 126


 6918 1b34 DF000000 		.long	.LVL138
 6919 1b38 E60D0000 		.long	0xde6
 6920 1b3c 00       		.byte	0
 6921 1b3d 0D       		.uleb128 0xd
 6922 1b3e 1B0C0000 		.long	.LASF216
 6923 1b42 0602     		.value	0x206
 6924 1b44 08       		.byte	0x8
 6925 1b45 5C010000 		.long	0x15c
 6926 1b49 00000000 		.long	.LFB232
 6927 1b4d 77000000 		.long	.LFE232-.LFB232
 6928 1b51 01       		.uleb128 0x1
 6929 1b52 9C       		.byte	0x9c
 6930 1b53 5B1C0000 		.long	0x1c5b
 6931 1b57 19       		.uleb128 0x19
 6932 1b58 64627000 		.string	"dbp"
 6933 1b5c 0602     		.value	0x206
 6934 1b5e 2D       		.byte	0x2d
 6935 1b5f 5B1C0000 		.long	0x1c5b
 6936 1b63 02       		.uleb128 0x2
 6937 1b64 91       		.byte	0x91
 6938 1b65 00       		.sleb128 0
 6939 1b66 12       		.uleb128 0x12
 6940 1b67 46010000 		.long	.LASF38
 6941 1b6b 0702     		.value	0x207
 6942 1b6d 0A       		.byte	0xa
 6943 1b6e 5C010000 		.long	0x15c
 6944 1b72 AB080000 		.long	.LLST90
 6945 1b76 A7080000 		.long	.LVUS90
 6946 1b7a 0C       		.uleb128 0xc
 6947 1b7b A2240000 		.long	0x24a2
 6948 1b7f 22000000 		.long	.LBI146
 6949 1b83 01       		.byte	.LVU370
 6950 1b84 CC000000 		.long	.LLRL91
 6951 1b88 0B02     		.value	0x20b
 6952 1b8a 0A       		.byte	0xa
 6953 1b8b 481C0000 		.long	0x1c48
 6954 1b8f 01       		.uleb128 0x1
 6955 1b90 BD240000 		.long	0x24bd
 6956 1b94 BF080000 		.long	.LLST92
 6957 1b98 BB080000 		.long	.LVUS92
 6958 1b9c 01       		.uleb128 0x1
 6959 1b9d B1240000 		.long	0x24b1
 6960 1ba1 DD080000 		.long	.LLST93
 6961 1ba5 D9080000 		.long	.LVUS93
 6962 1ba9 09       		.uleb128 0x9
 6963 1baa CC000000 		.long	.LLRL91
 6964 1bae 05       		.uleb128 0x5
 6965 1baf C9240000 		.long	0x24c9
 6966 1bb3 EF080000 		.long	.LLST94
 6967 1bb7 ED080000 		.long	.LVUS94
 6968 1bbb 05       		.uleb128 0x5
 6969 1bbc D4240000 		.long	0x24d4
 6970 1bc0 FC080000 		.long	.LLST95
 6971 1bc4 F8080000 		.long	.LVUS95
 6972 1bc8 18       		.uleb128 0x18
 6973 1bc9 64250000 		.long	0x2564
 6974 1bcd 22000000 		.long	.LBI148
GAS LISTING /tmp/ccoiMs3n.s 			page 127


 6975 1bd1 08       		.byte	.LVU377
 6976 1bd2 22000000 		.long	.LBB148
 6977 1bd6 1A000000 		.long	.LBE148-.LBB148
 6978 1bda B5       		.byte	0xb5
 6979 1bdb 0A       		.byte	0xa
 6980 1bdc 081C0000 		.long	0x1c08
 6981 1be0 01       		.uleb128 0x1
 6982 1be1 7F250000 		.long	0x257f
 6983 1be5 0E090000 		.long	.LLST96
 6984 1be9 0C090000 		.long	.LVUS96
 6985 1bed 01       		.uleb128 0x1
 6986 1bee 73250000 		.long	0x2573
 6987 1bf2 1E090000 		.long	.LLST97
 6988 1bf6 1C090000 		.long	.LVUS97
 6989 1bfa 05       		.uleb128 0x5
 6990 1bfb 8B250000 		.long	0x258b
 6991 1bff 2F090000 		.long	.LLST98
 6992 1c03 27090000 		.long	.LVUS98
 6993 1c07 00       		.byte	0
 6994 1c08 1A       		.uleb128 0x1a
 6995 1c09 3D250000 		.long	0x253d
 6996 1c0d 65000000 		.long	.LBI150
 6997 1c11 01       		.byte	.LVU405
 6998 1c12 D8000000 		.long	.LLRL99
 6999 1c16 BC       		.byte	0xbc
 7000 1c17 1A       		.byte	0x1a
 7001 1c18 3D1C0000 		.long	0x1c3d
 7002 1c1c 01       		.uleb128 0x1
 7003 1c1d 4C250000 		.long	0x254c
 7004 1c21 50090000 		.long	.LLST100
 7005 1c25 4E090000 		.long	.LVUS100
 7006 1c29 09       		.uleb128 0x9
 7007 1c2a D8000000 		.long	.LLRL99
 7008 1c2e 05       		.uleb128 0x5
 7009 1c2f 58250000 		.long	0x2558
 7010 1c33 5B090000 		.long	.LLST101
 7011 1c37 59090000 		.long	.LVUS101
 7012 1c3b 00       		.byte	0
 7013 1c3c 00       		.byte	0
 7014 1c3d 02       		.uleb128 0x2
 7015 1c3e 72000000 		.long	.LVL118
 7016 1c42 010E0000 		.long	0xe01
 7017 1c46 00       		.byte	0
 7018 1c47 00       		.byte	0
 7019 1c48 02       		.uleb128 0x2
 7020 1c49 22000000 		.long	.LVL107
 7021 1c4d 940E0000 		.long	0xe94
 7022 1c51 02       		.uleb128 0x2
 7023 1c52 47000000 		.long	.LVL112
 7024 1c56 830E0000 		.long	0xe83
 7025 1c5a 00       		.byte	0
 7026 1c5b 07       		.uleb128 0x7
 7027 1c5c D50B0000 		.long	0xbd5
 7028 1c60 0D       		.uleb128 0xd
 7029 1c61 1E090000 		.long	.LASF217
 7030 1c65 ED01     		.value	0x1ed
 7031 1c67 0F       		.byte	0xf
GAS LISTING /tmp/ccoiMs3n.s 			page 128


 7032 1c68 5B1C0000 		.long	0x1c5b
 7033 1c6c 00000000 		.long	.LFB231
 7034 1c70 84000000 		.long	.LFE231-.LFB231
 7035 1c74 01       		.uleb128 0x1
 7036 1c75 9C       		.byte	0x9c
 7037 1c76 3B1D0000 		.long	0x1d3b
 7038 1c7a 0E       		.uleb128 0xe
 7039 1c7b 8C090000 		.long	.LASF39
 7040 1c7f ED01     		.value	0x1ed
 7041 1c81 2F       		.byte	0x2f
 7042 1c82 47000000 		.long	0x47
 7043 1c86 02       		.uleb128 0x2
 7044 1c87 91       		.byte	0x91
 7045 1c88 00       		.sleb128 0
 7046 1c89 15       		.uleb128 0x15
 7047 1c8a 64627000 		.string	"dbp"
 7048 1c8e EE01     		.value	0x1ee
 7049 1c90 11       		.byte	0x11
 7050 1c91 5B1C0000 		.long	0x1c5b
 7051 1c95 68090000 		.long	.LLST81
 7052 1c99 64090000 		.long	.LVUS81
 7053 1c9d 0C       		.uleb128 0xc
 7054 1c9e 82230000 		.long	0x2382
 7055 1ca2 28000000 		.long	.LBI132
 7056 1ca6 01       		.byte	.LVU332
 7057 1ca7 B4000000 		.long	.LLRL82
 7058 1cab F201     		.value	0x1f2
 7059 1cad 19       		.byte	0x19
 7060 1cae 281D0000 		.long	0x1d28
 7061 1cb2 01       		.uleb128 0x1
 7062 1cb3 A1230000 		.long	0x23a1
 7063 1cb7 7C090000 		.long	.LLST83
 7064 1cbb 78090000 		.long	.LVUS83
 7065 1cbf 01       		.uleb128 0x1
 7066 1cc0 94230000 		.long	0x2394
 7067 1cc4 9A090000 		.long	.LLST84
 7068 1cc8 96090000 		.long	.LVUS84
 7069 1ccc 09       		.uleb128 0x9
 7070 1ccd B4000000 		.long	.LLRL82
 7071 1cd1 05       		.uleb128 0x5
 7072 1cd2 AE230000 		.long	0x23ae
 7073 1cd6 AC090000 		.long	.LLST85
 7074 1cda AA090000 		.long	.LVUS85
 7075 1cde 1B       		.uleb128 0x1b
 7076 1cdf 97250000 		.long	0x2597
 7077 1ce3 28000000 		.long	.LBI134
 7078 1ce7 07       		.byte	.LVU338
 7079 1ce8 C0000000 		.long	.LLRL86
 7080 1cec 0D01     		.value	0x10d
 7081 1cee 09       		.byte	0x9
 7082 1cef 01       		.uleb128 0x1
 7083 1cf0 B2250000 		.long	0x25b2
 7084 1cf4 B9090000 		.long	.LLST87
 7085 1cf8 B5090000 		.long	.LVUS87
 7086 1cfc 01       		.uleb128 0x1
 7087 1cfd A6250000 		.long	0x25a6
 7088 1d01 D7090000 		.long	.LLST88
GAS LISTING /tmp/ccoiMs3n.s 			page 129


 7089 1d05 D3090000 		.long	.LVUS88
 7090 1d09 09       		.uleb128 0x9
 7091 1d0a C0000000 		.long	.LLRL86
 7092 1d0e 05       		.uleb128 0x5
 7093 1d0f BE250000 		.long	0x25be
 7094 1d13 EB090000 		.long	.LLST89
 7095 1d17 E7090000 		.long	.LVUS89
 7096 1d1b 02       		.uleb128 0x2
 7097 1d1c 56000000 		.long	.LVL99
 7098 1d20 4D0E0000 		.long	0xe4d
 7099 1d24 00       		.byte	0
 7100 1d25 00       		.byte	0
 7101 1d26 00       		.byte	0
 7102 1d27 00       		.byte	0
 7103 1d28 02       		.uleb128 0x2
 7104 1d29 28000000 		.long	.LVL96
 7105 1d2d 940E0000 		.long	0xe94
 7106 1d31 02       		.uleb128 0x2
 7107 1d32 71000000 		.long	.LVL102
 7108 1d36 830E0000 		.long	0xe83
 7109 1d3a 00       		.byte	0
 7110 1d3b 0D       		.uleb128 0xd
 7111 1d3c DB070000 		.long	.LASF218
 7112 1d40 CD01     		.value	0x1cd
 7113 1d42 0F       		.byte	0xf
 7114 1d43 5B1C0000 		.long	0x1c5b
 7115 1d47 00000000 		.long	.LFB230
 7116 1d4b 69000000 		.long	.LFE230-.LFB230
 7117 1d4f 01       		.uleb128 0x1
 7118 1d50 9C       		.byte	0x9c
 7119 1d51 041E0000 		.long	0x1e04
 7120 1d55 0E       		.uleb128 0xe
 7121 1d56 8C090000 		.long	.LASF39
 7122 1d5a CD01     		.value	0x1cd
 7123 1d5c 31       		.byte	0x31
 7124 1d5d 47000000 		.long	0x47
 7125 1d61 02       		.uleb128 0x2
 7126 1d62 91       		.byte	0x91
 7127 1d63 00       		.sleb128 0
 7128 1d64 0E       		.uleb128 0xe
 7129 1d65 52060000 		.long	.LASF120
 7130 1d69 CD01     		.value	0x1cd
 7131 1d6b 3E       		.byte	0x3e
 7132 1d6c 26000000 		.long	0x26
 7133 1d70 02       		.uleb128 0x2
 7134 1d71 91       		.byte	0x91
 7135 1d72 04       		.sleb128 4
 7136 1d73 15       		.uleb128 0x15
 7137 1d74 64627000 		.string	"dbp"
 7138 1d78 CE01     		.value	0x1ce
 7139 1d7a 11       		.byte	0x11
 7140 1d7b 5B1C0000 		.long	0x1c5b
 7141 1d7f 010A0000 		.long	.LLST76
 7142 1d83 FB090000 		.long	.LVUS76
 7143 1d87 0C       		.uleb128 0xc
 7144 1d88 ED260000 		.long	0x26ed
 7145 1d8c 44000000 		.long	.LBI124
GAS LISTING /tmp/ccoiMs3n.s 			page 130


 7146 1d90 01       		.byte	.LVU314
 7147 1d91 A8000000 		.long	.LLRL77
 7148 1d95 D801     		.value	0x1d8
 7149 1d97 05       		.byte	0x5
 7150 1d98 CD1D0000 		.long	0x1dcd
 7151 1d9c 01       		.uleb128 0x1
 7152 1d9d 16270000 		.long	0x2716
 7153 1da1 180A0000 		.long	.LLST78
 7154 1da5 160A0000 		.long	.LVUS78
 7155 1da9 01       		.uleb128 0x1
 7156 1daa 0A270000 		.long	0x270a
 7157 1dae 230A0000 		.long	.LLST79
 7158 1db2 210A0000 		.long	.LVUS79
 7159 1db6 01       		.uleb128 0x1
 7160 1db7 FE260000 		.long	0x26fe
 7161 1dbb 330A0000 		.long	.LLST80
 7162 1dbf 2D0A0000 		.long	.LVUS80
 7163 1dc3 02       		.uleb128 0x2
 7164 1dc4 53000000 		.long	.LVL91
 7165 1dc8 65280000 		.long	0x2865
 7166 1dcc 00       		.byte	0
 7167 1dcd 02       		.uleb128 0x2
 7168 1dce 22000000 		.long	.LVL86
 7169 1dd2 940E0000 		.long	0xe94
 7170 1dd6 27       		.uleb128 0x27
 7171 1dd7 3B000000 		.long	.LVL87
 7172 1ddb E9240000 		.long	0x24e9
 7173 1ddf FA1D0000 		.long	0x1dfa
 7174 1de3 13       		.uleb128 0x13
 7175 1de4 01       		.uleb128 0x1
 7176 1de5 50       		.byte	0x50
 7177 1de6 03       		.uleb128 0x3
 7178 1de7 91       		.byte	0x91
 7179 1de8 00       		.sleb128 0
 7180 1de9 06       		.byte	0x6
 7181 1dea 13       		.uleb128 0x13
 7182 1deb 01       		.uleb128 0x1
 7183 1dec 52       		.byte	0x52
 7184 1ded 05       		.uleb128 0x5
 7185 1dee 03       		.byte	0x3
 7186 1def 24000000 		.long	ch_factory+36
 7187 1df3 13       		.uleb128 0x13
 7188 1df4 01       		.uleb128 0x1
 7189 1df5 51       		.byte	0x51
 7190 1df6 02       		.uleb128 0x2
 7191 1df7 75       		.byte	0x75
 7192 1df8 10       		.sleb128 16
 7193 1df9 00       		.byte	0
 7194 1dfa 02       		.uleb128 0x2
 7195 1dfb 5F000000 		.long	.LVL93
 7196 1dff 830E0000 		.long	0xe83
 7197 1e03 00       		.byte	0
 7198 1e04 0D       		.uleb128 0xd
 7199 1e05 EB020000 		.long	.LASF219
 7200 1e09 AE01     		.value	0x1ae
 7201 1e0b 08       		.byte	0x8
 7202 1e0c 5C010000 		.long	0x15c
GAS LISTING /tmp/ccoiMs3n.s 			page 131


 7203 1e10 00000000 		.long	.LFB229
 7204 1e14 7B000000 		.long	.LFE229-.LFB229
 7205 1e18 01       		.uleb128 0x1
 7206 1e19 9C       		.byte	0x9c
 7207 1e1a 2F1F0000 		.long	0x1f2f
 7208 1e1e 19       		.uleb128 0x19
 7209 1e1f 726F7000 		.string	"rop"
 7210 1e23 AE01     		.value	0x1ae
 7211 1e25 34       		.byte	0x34
 7212 1e26 2F1F0000 		.long	0x1f2f
 7213 1e2a 02       		.uleb128 0x2
 7214 1e2b 91       		.byte	0x91
 7215 1e2c 00       		.sleb128 0
 7216 1e2d 12       		.uleb128 0x12
 7217 1e2e 46010000 		.long	.LASF38
 7218 1e32 AF01     		.value	0x1af
 7219 1e34 0A       		.byte	0xa
 7220 1e35 5C010000 		.long	0x15c
 7221 1e39 500A0000 		.long	.LLST63
 7222 1e3d 4C0A0000 		.long	.LVUS63
 7223 1e41 0C       		.uleb128 0xc
 7224 1e42 DF230000 		.long	0x23df
 7225 1e46 22000000 		.long	.LBI114
 7226 1e4a 01       		.byte	.LVU256
 7227 1e4b 90000000 		.long	.LLRL64
 7228 1e4f B301     		.value	0x1b3
 7229 1e51 0A       		.byte	0xa
 7230 1e52 1C1F0000 		.long	0x1f1c
 7231 1e56 01       		.uleb128 0x1
 7232 1e57 06240000 		.long	0x2406
 7233 1e5b 640A0000 		.long	.LLST65
 7234 1e5f 600A0000 		.long	.LVUS65
 7235 1e63 01       		.uleb128 0x1
 7236 1e64 FA230000 		.long	0x23fa
 7237 1e68 820A0000 		.long	.LLST66
 7238 1e6c 7E0A0000 		.long	.LVUS66
 7239 1e70 01       		.uleb128 0x1
 7240 1e71 EE230000 		.long	0x23ee
 7241 1e75 A00A0000 		.long	.LLST67
 7242 1e79 9C0A0000 		.long	.LVUS67
 7243 1e7d 09       		.uleb128 0x9
 7244 1e7e 90000000 		.long	.LLRL64
 7245 1e82 05       		.uleb128 0x5
 7246 1e83 11240000 		.long	0x2411
 7247 1e87 B20A0000 		.long	.LLST68
 7248 1e8b B00A0000 		.long	.LVUS68
 7249 1e8f 05       		.uleb128 0x5
 7250 1e90 1C240000 		.long	0x241c
 7251 1e94 BF0A0000 		.long	.LLST69
 7252 1e98 BB0A0000 		.long	.LVUS69
 7253 1e9c 18       		.uleb128 0x18
 7254 1e9d 64250000 		.long	0x2564
 7255 1ea1 22000000 		.long	.LBI116
 7256 1ea5 08       		.byte	.LVU263
 7257 1ea6 22000000 		.long	.LBB116
 7258 1eaa 1A000000 		.long	.LBE116-.LBB116
 7259 1eae F2       		.byte	0xf2
GAS LISTING /tmp/ccoiMs3n.s 			page 132


 7260 1eaf 0A       		.byte	0xa
 7261 1eb0 DC1E0000 		.long	0x1edc
 7262 1eb4 01       		.uleb128 0x1
 7263 1eb5 7F250000 		.long	0x257f
 7264 1eb9 D10A0000 		.long	.LLST70
 7265 1ebd CF0A0000 		.long	.LVUS70
 7266 1ec1 01       		.uleb128 0x1
 7267 1ec2 73250000 		.long	0x2573
 7268 1ec6 E10A0000 		.long	.LLST71
 7269 1eca DF0A0000 		.long	.LVUS71
 7270 1ece 05       		.uleb128 0x5
 7271 1ecf 8B250000 		.long	0x258b
 7272 1ed3 F20A0000 		.long	.LLST72
 7273 1ed7 EA0A0000 		.long	.LVUS72
 7274 1edb 00       		.byte	0
 7275 1edc 1A       		.uleb128 0x1a
 7276 1edd 3D250000 		.long	0x253d
 7277 1ee1 65000000 		.long	.LBI118
 7278 1ee5 01       		.byte	.LVU291
 7279 1ee6 9C000000 		.long	.LLRL73
 7280 1eea F9       		.byte	0xf9
 7281 1eeb 1E       		.byte	0x1e
 7282 1eec 111F0000 		.long	0x1f11
 7283 1ef0 01       		.uleb128 0x1
 7284 1ef1 4C250000 		.long	0x254c
 7285 1ef5 130B0000 		.long	.LLST74
 7286 1ef9 110B0000 		.long	.LVUS74
 7287 1efd 09       		.uleb128 0x9
 7288 1efe 9C000000 		.long	.LLRL73
 7289 1f02 05       		.uleb128 0x5
 7290 1f03 58250000 		.long	0x2558
 7291 1f07 1E0B0000 		.long	.LLST75
 7292 1f0b 1C0B0000 		.long	.LVUS75
 7293 1f0f 00       		.byte	0
 7294 1f10 00       		.byte	0
 7295 1f11 02       		.uleb128 0x2
 7296 1f12 76000000 		.long	.LVL84
 7297 1f16 320E0000 		.long	0xe32
 7298 1f1a 00       		.byte	0
 7299 1f1b 00       		.byte	0
 7300 1f1c 02       		.uleb128 0x2
 7301 1f1d 22000000 		.long	.LVL73
 7302 1f21 940E0000 		.long	0xe94
 7303 1f25 02       		.uleb128 0x2
 7304 1f26 47000000 		.long	.LVL78
 7305 1f2a 830E0000 		.long	0xe83
 7306 1f2e 00       		.byte	0
 7307 1f2f 07       		.uleb128 0x7
 7308 1f30 AE0B0000 		.long	0xbae
 7309 1f34 0D       		.uleb128 0xd
 7310 1f35 F9040000 		.long	.LASF220
 7311 1f39 8901     		.value	0x189
 7312 1f3b 16       		.byte	0x16
 7313 1f3c 2F1F0000 		.long	0x1f2f
 7314 1f40 00000000 		.long	.LFB228
 7315 1f44 80000000 		.long	.LFE228-.LFB228
 7316 1f48 01       		.uleb128 0x1
GAS LISTING /tmp/ccoiMs3n.s 			page 133


 7317 1f49 9C       		.byte	0x9c
 7318 1f4a 8D1F0000 		.long	0x1f8d
 7319 1f4e 0E       		.uleb128 0xe
 7320 1f4f 17020000 		.long	.LASF157
 7321 1f53 8901     		.value	0x189
 7322 1f55 39       		.byte	0x39
 7323 1f56 CC000000 		.long	0xcc
 7324 1f5a 02       		.uleb128 0x2
 7325 1f5b 91       		.byte	0x91
 7326 1f5c 00       		.sleb128 0
 7327 1f5d 15       		.uleb128 0x15
 7328 1f5e 726F7000 		.string	"rop"
 7329 1f62 8A01     		.value	0x18a
 7330 1f64 18       		.byte	0x18
 7331 1f65 2F1F0000 		.long	0x1f2f
 7332 1f69 2D0B0000 		.long	.LLST62
 7333 1f6d 270B0000 		.long	.LVUS62
 7334 1f71 02       		.uleb128 0x2
 7335 1f72 28000000 		.long	.LVL65
 7336 1f76 940E0000 		.long	0xe94
 7337 1f7a 02       		.uleb128 0x2
 7338 1f7b 58000000 		.long	.LVL67
 7339 1f7f 830E0000 		.long	0xe83
 7340 1f83 02       		.uleb128 0x2
 7341 1f84 73000000 		.long	.LVL71
 7342 1f88 830E0000 		.long	0xe83
 7343 1f8c 00       		.byte	0
 7344 1f8d 0D       		.uleb128 0xd
 7345 1f8e 1D000000 		.long	.LASF221
 7346 1f92 7001     		.value	0x170
 7347 1f94 16       		.byte	0x16
 7348 1f95 2F1F0000 		.long	0x1f2f
 7349 1f99 00000000 		.long	.LFB227
 7350 1f9d 84000000 		.long	.LFE227-.LFB227
 7351 1fa1 01       		.uleb128 0x1
 7352 1fa2 9C       		.byte	0x9c
 7353 1fa3 68200000 		.long	0x2068
 7354 1fa7 0E       		.uleb128 0xe
 7355 1fa8 8C090000 		.long	.LASF39
 7356 1fac 7001     		.value	0x170
 7357 1fae 36       		.byte	0x36
 7358 1faf 47000000 		.long	0x47
 7359 1fb3 02       		.uleb128 0x2
 7360 1fb4 91       		.byte	0x91
 7361 1fb5 00       		.sleb128 0
 7362 1fb6 15       		.uleb128 0x15
 7363 1fb7 726F7000 		.string	"rop"
 7364 1fbb 7101     		.value	0x171
 7365 1fbd 18       		.byte	0x18
 7366 1fbe 2F1F0000 		.long	0x1f2f
 7367 1fc2 460B0000 		.long	.LLST53
 7368 1fc6 420B0000 		.long	.LVUS53
 7369 1fca 0C       		.uleb128 0xc
 7370 1fcb 82230000 		.long	0x2382
 7371 1fcf 28000000 		.long	.LBI100
 7372 1fd3 01       		.byte	.LVU191
 7373 1fd4 78000000 		.long	.LLRL54
GAS LISTING /tmp/ccoiMs3n.s 			page 134


 7374 1fd8 7501     		.value	0x175
 7375 1fda 20       		.byte	0x20
 7376 1fdb 55200000 		.long	0x2055
 7377 1fdf 01       		.uleb128 0x1
 7378 1fe0 A1230000 		.long	0x23a1
 7379 1fe4 5A0B0000 		.long	.LLST55
 7380 1fe8 560B0000 		.long	.LVUS55
 7381 1fec 01       		.uleb128 0x1
 7382 1fed 94230000 		.long	0x2394
 7383 1ff1 780B0000 		.long	.LLST56
 7384 1ff5 740B0000 		.long	.LVUS56
 7385 1ff9 09       		.uleb128 0x9
 7386 1ffa 78000000 		.long	.LLRL54
 7387 1ffe 05       		.uleb128 0x5
 7388 1fff AE230000 		.long	0x23ae
 7389 2003 8A0B0000 		.long	.LLST57
 7390 2007 880B0000 		.long	.LVUS57
 7391 200b 1B       		.uleb128 0x1b
 7392 200c 97250000 		.long	0x2597
 7393 2010 28000000 		.long	.LBI102
 7394 2014 07       		.byte	.LVU197
 7395 2015 84000000 		.long	.LLRL58
 7396 2019 0D01     		.value	0x10d
 7397 201b 09       		.byte	0x9
 7398 201c 01       		.uleb128 0x1
 7399 201d B2250000 		.long	0x25b2
 7400 2021 970B0000 		.long	.LLST59
 7401 2025 930B0000 		.long	.LVUS59
 7402 2029 01       		.uleb128 0x1
 7403 202a A6250000 		.long	0x25a6
 7404 202e B50B0000 		.long	.LLST60
 7405 2032 B10B0000 		.long	.LVUS60
 7406 2036 09       		.uleb128 0x9
 7407 2037 84000000 		.long	.LLRL58
 7408 203b 05       		.uleb128 0x5
 7409 203c BE250000 		.long	0x25be
 7410 2040 C90B0000 		.long	.LLST61
 7411 2044 C50B0000 		.long	.LVUS61
 7412 2048 02       		.uleb128 0x2
 7413 2049 56000000 		.long	.LVL56
 7414 204d 4D0E0000 		.long	0xe4d
 7415 2051 00       		.byte	0
 7416 2052 00       		.byte	0
 7417 2053 00       		.byte	0
 7418 2054 00       		.byte	0
 7419 2055 02       		.uleb128 0x2
 7420 2056 28000000 		.long	.LVL53
 7421 205a 940E0000 		.long	0xe94
 7422 205e 02       		.uleb128 0x2
 7423 205f 71000000 		.long	.LVL59
 7424 2063 830E0000 		.long	0xe83
 7425 2067 00       		.byte	0
 7426 2068 0D       		.uleb128 0xd
 7427 2069 86030000 		.long	.LASF222
 7428 206d 5001     		.value	0x150
 7429 206f 16       		.byte	0x16
 7430 2070 2F1F0000 		.long	0x1f2f
GAS LISTING /tmp/ccoiMs3n.s 			page 135


 7431 2074 00000000 		.long	.LFB226
 7432 2078 D8000000 		.long	.LFE226-.LFB226
 7433 207c 01       		.uleb128 0x1
 7434 207d 9C       		.byte	0x9c
 7435 207e FA210000 		.long	0x21fa
 7436 2082 0E       		.uleb128 0xe
 7437 2083 8C090000 		.long	.LASF39
 7438 2087 5001     		.value	0x150
 7439 2089 3A       		.byte	0x3a
 7440 208a 47000000 		.long	0x47
 7441 208e 02       		.uleb128 0x2
 7442 208f 91       		.byte	0x91
 7443 2090 00       		.sleb128 0
 7444 2091 0E       		.uleb128 0xe
 7445 2092 17020000 		.long	.LASF157
 7446 2096 5101     		.value	0x151
 7447 2098 34       		.byte	0x34
 7448 2099 CC000000 		.long	0xcc
 7449 209d 02       		.uleb128 0x2
 7450 209e 91       		.byte	0x91
 7451 209f 04       		.sleb128 4
 7452 20a0 15       		.uleb128 0x15
 7453 20a1 726F7000 		.string	"rop"
 7454 20a5 5201     		.value	0x152
 7455 20a7 18       		.byte	0x18
 7456 20a8 2F1F0000 		.long	0x1f2f
 7457 20ac DB0B0000 		.long	.LLST35
 7458 20b0 D90B0000 		.long	.LVUS35
 7459 20b4 0C       		.uleb128 0xc
 7460 20b5 46240000 		.long	0x2446
 7461 20b9 28000000 		.long	.LBI82
 7462 20bd 01       		.byte	.LVU126
 7463 20be 66000000 		.long	.LLRL36
 7464 20c2 5601     		.value	0x156
 7465 20c4 20       		.byte	0x20
 7466 20c5 E7210000 		.long	0x21e7
 7467 20c9 01       		.uleb128 0x1
 7468 20ca 6D240000 		.long	0x246d
 7469 20ce E80B0000 		.long	.LLST37
 7470 20d2 E40B0000 		.long	.LVUS37
 7471 20d6 01       		.uleb128 0x1
 7472 20d7 61240000 		.long	0x2461
 7473 20db 070C0000 		.long	.LLST38
 7474 20df 030C0000 		.long	.LVUS38
 7475 20e3 01       		.uleb128 0x1
 7476 20e4 55240000 		.long	0x2455
 7477 20e8 260C0000 		.long	.LLST39
 7478 20ec 220C0000 		.long	.LVUS39
 7479 20f0 09       		.uleb128 0x9
 7480 20f1 66000000 		.long	.LLRL36
 7481 20f5 05       		.uleb128 0x5
 7482 20f6 78240000 		.long	0x2478
 7483 20fa 390C0000 		.long	.LLST40
 7484 20fe 370C0000 		.long	.LVUS40
 7485 2102 18       		.uleb128 0x18
 7486 2103 97250000 		.long	0x2597
 7487 2107 28000000 		.long	.LBI84
GAS LISTING /tmp/ccoiMs3n.s 			page 136


 7488 210b 07       		.byte	.LVU132
 7489 210c 28000000 		.long	.LBB84
 7490 2110 35000000 		.long	.LBE84-.LBB84
 7491 2114 D3       		.byte	0xd3
 7492 2115 09       		.byte	0x9
 7493 2116 4B210000 		.long	0x214b
 7494 211a 01       		.uleb128 0x1
 7495 211b B2250000 		.long	0x25b2
 7496 211f 440C0000 		.long	.LLST41
 7497 2123 420C0000 		.long	.LVUS41
 7498 2127 01       		.uleb128 0x1
 7499 2128 A6250000 		.long	0x25a6
 7500 212c 540C0000 		.long	.LLST42
 7501 2130 520C0000 		.long	.LVUS42
 7502 2134 05       		.uleb128 0x5
 7503 2135 BE250000 		.long	0x25be
 7504 2139 5F0C0000 		.long	.LLST43
 7505 213d 5D0C0000 		.long	.LVUS43
 7506 2141 02       		.uleb128 0x2
 7507 2142 56000000 		.long	.LVL37
 7508 2146 4D0E0000 		.long	0xe4d
 7509 214a 00       		.byte	0
 7510 214b 2B       		.uleb128 0x2b
 7511 214c 46240000 		.long	0x2446
 7512 2150 80000000 		.long	.LBI86
 7513 2154 00       		.byte	.LVU151
 7514 2155 6C000000 		.long	.LLRL44
 7515 2159 CB       		.byte	0xcb
 7516 215a 01       		.uleb128 0x1
 7517 215b 6D240000 		.long	0x246d
 7518 215f 6A0C0000 		.long	.LLST45
 7519 2163 680C0000 		.long	.LVUS45
 7520 2167 01       		.uleb128 0x1
 7521 2168 61240000 		.long	0x2461
 7522 216c 7A0C0000 		.long	.LLST46
 7523 2170 780C0000 		.long	.LVUS46
 7524 2174 01       		.uleb128 0x1
 7525 2175 55240000 		.long	0x2455
 7526 2179 8A0C0000 		.long	.LLST47
 7527 217d 880C0000 		.long	.LVUS47
 7528 2181 09       		.uleb128 0x9
 7529 2182 6C000000 		.long	.LLRL44
 7530 2186 05       		.uleb128 0x5
 7531 2187 78240000 		.long	0x2478
 7532 218b 970C0000 		.long	.LLST48
 7533 218f 930C0000 		.long	.LVUS48
 7534 2193 2C       		.uleb128 0x2c
 7535 2194 E2250000 		.long	0x25e2
 7536 2198 A0000000 		.long	.LBB88
 7537 219c 1A000000 		.long	.LBE88-.LBB88
 7538 21a0 DF       		.byte	0xdf
 7539 21a1 DA210000 		.long	0x21da
 7540 21a5 01       		.uleb128 0x1
 7541 21a6 FA250000 		.long	0x25fa
 7542 21aa AD0C0000 		.long	.LLST49
 7543 21ae A70C0000 		.long	.LVUS49
 7544 21b2 01       		.uleb128 0x1
GAS LISTING /tmp/ccoiMs3n.s 			page 137


 7545 21b3 EF250000 		.long	0x25ef
 7546 21b7 DD0C0000 		.long	.LLST50
 7547 21bb D70C0000 		.long	.LVUS50
 7548 21bf 05       		.uleb128 0x5
 7549 21c0 05260000 		.long	0x2605
 7550 21c4 090D0000 		.long	.LLST51
 7551 21c8 030D0000 		.long	.LVUS51
 7552 21cc 05       		.uleb128 0x5
 7553 21cd 0E260000 		.long	0x260e
 7554 21d1 300D0000 		.long	.LLST52
 7555 21d5 2A0D0000 		.long	.LVUS52
 7556 21d9 00       		.byte	0
 7557 21da 02       		.uleb128 0x2
 7558 21db 8F000000 		.long	.LVL43
 7559 21df 6D0E0000 		.long	0xe6d
 7560 21e3 00       		.byte	0
 7561 21e4 00       		.byte	0
 7562 21e5 00       		.byte	0
 7563 21e6 00       		.byte	0
 7564 21e7 02       		.uleb128 0x2
 7565 21e8 28000000 		.long	.LVL34
 7566 21ec 940E0000 		.long	0xe94
 7567 21f0 02       		.uleb128 0x2
 7568 21f1 6F000000 		.long	.LVL41
 7569 21f5 830E0000 		.long	0xe83
 7570 21f9 00       		.byte	0
 7571 21fa 3C       		.uleb128 0x3c
 7572 21fb 23070000 		.long	.LASF243
 7573 21ff 02       		.byte	0x2
 7574 2200 1F01     		.value	0x11f
 7575 2202 06       		.byte	0x6
 7576 2203 00000000 		.long	.LFB225
 7577 2207 7F000000 		.long	.LFE225-.LFB225
 7578 220b 01       		.uleb128 0x1
 7579 220c 9C       		.byte	0x9c
 7580 220d 82230000 		.long	0x2382
 7581 2211 0C       		.uleb128 0xc
 7582 2212 7C260000 		.long	0x267c
 7583 2216 2D000000 		.long	.LBI46
 7584 221a 02       		.byte	.LVU82
 7585 221b 27000000 		.long	.LLRL18
 7586 221f 2901     		.value	0x129
 7587 2221 03       		.byte	0x3
 7588 2222 57220000 		.long	0x2257
 7589 2226 01       		.uleb128 0x1
 7590 2227 A0260000 		.long	0x26a0
 7591 222b 530D0000 		.long	.LLST19
 7592 222f 510D0000 		.long	.LVUS19
 7593 2233 01       		.uleb128 0x1
 7594 2234 94260000 		.long	0x2694
 7595 2238 630D0000 		.long	.LLST20
 7596 223c 610D0000 		.long	.LVUS20
 7597 2240 01       		.uleb128 0x1
 7598 2241 89260000 		.long	0x2689
 7599 2245 6F0D0000 		.long	.LLST21
 7600 2249 6D0D0000 		.long	.LVUS21
 7601 224d 02       		.uleb128 0x2
GAS LISTING /tmp/ccoiMs3n.s 			page 138


 7602 224e 3A000000 		.long	.LVL26
 7603 2252 A50E0000 		.long	0xea5
 7604 2256 00       		.byte	0
 7605 2257 0C       		.uleb128 0xc
 7606 2258 C8250000 		.long	0x25c8
 7607 225c 23000000 		.long	.LBI50
 7608 2260 01       		.byte	.LVU75
 7609 2261 36000000 		.long	.LLRL22
 7610 2265 2801     		.value	0x128
 7611 2267 03       		.byte	0x3
 7612 2268 7A220000 		.long	0x227a
 7613 226c 01       		.uleb128 0x1
 7614 226d D5250000 		.long	0x25d5
 7615 2271 7F0D0000 		.long	.LLST23
 7616 2275 7D0D0000 		.long	.LVUS23
 7617 2279 00       		.byte	0
 7618 227a 0C       		.uleb128 0xc
 7619 227b C8250000 		.long	0x25c8
 7620 227f 3A000000 		.long	.LBI56
 7621 2283 02       		.byte	.LVU86
 7622 2284 42000000 		.long	.LLRL24
 7623 2288 2E01     		.value	0x12e
 7624 228a 03       		.byte	0x3
 7625 228b 9D220000 		.long	0x229d
 7626 228f 01       		.uleb128 0x1
 7627 2290 D5250000 		.long	0x25d5
 7628 2294 8F0D0000 		.long	.LLST25
 7629 2298 8D0D0000 		.long	.LVUS25
 7630 229c 00       		.byte	0
 7631 229d 0C       		.uleb128 0xc
 7632 229e 7C260000 		.long	0x267c
 7633 22a2 4F000000 		.long	.LBI59
 7634 22a6 02       		.byte	.LVU98
 7635 22a7 4E000000 		.long	.LLRL26
 7636 22ab 3201     		.value	0x132
 7637 22ad 03       		.byte	0x3
 7638 22ae E3220000 		.long	0x22e3
 7639 22b2 01       		.uleb128 0x1
 7640 22b3 A0260000 		.long	0x26a0
 7641 22b7 9F0D0000 		.long	.LLST27
 7642 22bb 9D0D0000 		.long	.LVUS27
 7643 22bf 01       		.uleb128 0x1
 7644 22c0 94260000 		.long	0x2694
 7645 22c4 AF0D0000 		.long	.LLST28
 7646 22c8 AD0D0000 		.long	.LVUS28
 7647 22cc 01       		.uleb128 0x1
 7648 22cd 89260000 		.long	0x2689
 7649 22d1 BB0D0000 		.long	.LLST29
 7650 22d5 B90D0000 		.long	.LVUS29
 7651 22d9 02       		.uleb128 0x2
 7652 22da 5D000000 		.long	.LVL29
 7653 22de A50E0000 		.long	0xea5
 7654 22e2 00       		.byte	0
 7655 22e3 2D       		.uleb128 0x2d
 7656 22e4 C8250000 		.long	0x25c8
 7657 22e8 46000000 		.long	.LBI63
 7658 22ec 02       		.byte	.LVU93
GAS LISTING /tmp/ccoiMs3n.s 			page 139


 7659 22ed 46000000 		.long	.LBB63
 7660 22f1 09000000 		.long	.LBE63-.LBB63
 7661 22f5 3101     		.value	0x131
 7662 22f7 09230000 		.long	0x2309
 7663 22fb 01       		.uleb128 0x1
 7664 22fc D5250000 		.long	0x25d5
 7665 2300 CB0D0000 		.long	.LLST30
 7666 2304 C90D0000 		.long	.LVUS30
 7667 2308 00       		.byte	0
 7668 2309 0C       		.uleb128 0xc
 7669 230a C8250000 		.long	0x25c8
 7670 230e 5D000000 		.long	.LBI66
 7671 2312 02       		.byte	.LVU102
 7672 2313 5A000000 		.long	.LLRL31
 7673 2317 3701     		.value	0x137
 7674 2319 03       		.byte	0x3
 7675 231a 2C230000 		.long	0x232c
 7676 231e 01       		.uleb128 0x1
 7677 231f D5250000 		.long	0x25d5
 7678 2323 DB0D0000 		.long	.LLST32
 7679 2327 D90D0000 		.long	.LVUS32
 7680 232b 00       		.byte	0
 7681 232c 2D       		.uleb128 0x2d
 7682 232d C8250000 		.long	0x25c8
 7683 2331 69000000 		.long	.LBI70
 7684 2335 02       		.byte	.LVU109
 7685 2336 69000000 		.long	.LBB70
 7686 233a 09000000 		.long	.LBE70-.LBB70
 7687 233e 3A01     		.value	0x13a
 7688 2340 52230000 		.long	0x2352
 7689 2344 01       		.uleb128 0x1
 7690 2345 D5250000 		.long	0x25d5
 7691 2349 EB0D0000 		.long	.LLST33
 7692 234d E90D0000 		.long	.LVUS33
 7693 2351 00       		.byte	0
 7694 2352 2D       		.uleb128 0x2d
 7695 2353 C8250000 		.long	0x25c8
 7696 2357 72000000 		.long	.LBI72
 7697 235b 02       		.byte	.LVU114
 7698 235c 72000000 		.long	.LBB72
 7699 2360 09000000 		.long	.LBE72-.LBB72
 7700 2364 3D01     		.value	0x13d
 7701 2366 78230000 		.long	0x2378
 7702 236a 01       		.uleb128 0x1
 7703 236b D5250000 		.long	0x25d5
 7704 236f FB0D0000 		.long	.LLST34
 7705 2373 F90D0000 		.long	.LVUS34
 7706 2377 00       		.byte	0
 7707 2378 02       		.uleb128 0x2
 7708 2379 23000000 		.long	.LVL24
 7709 237d E50E0000 		.long	0xee5
 7710 2381 00       		.byte	0
 7711 2382 3D       		.uleb128 0x3d
 7712 2383 CB060000 		.long	.LASF223
 7713 2387 02       		.byte	0x2
 7714 2388 0701     		.value	0x107
 7715 238a 17       		.byte	0x17
GAS LISTING /tmp/ccoiMs3n.s 			page 140


 7716 238b 750B0000 		.long	0xb75
 7717 238f 01       		.byte	0x1
 7718 2390 C5230000 		.long	0x23c5
 7719 2394 3E       		.uleb128 0x3e
 7720 2395 8C090000 		.long	.LASF39
 7721 2399 02       		.byte	0x2
 7722 239a 0701     		.value	0x107
 7723 239c 33       		.byte	0x33
 7724 239d 47000000 		.long	0x47
 7725 23a1 3F       		.uleb128 0x3f
 7726 23a2 646C7000 		.string	"dlp"
 7727 23a6 02       		.byte	0x2
 7728 23a7 0701     		.value	0x107
 7729 23a9 45       		.byte	0x45
 7730 23aa C5230000 		.long	0x23c5
 7731 23ae 40       		.uleb128 0x40
 7732 23af 64657000 		.string	"dep"
 7733 23b3 02       		.byte	0x2
 7734 23b4 0801     		.value	0x108
 7735 23b6 12       		.byte	0x12
 7736 23b7 750B0000 		.long	0xb75
 7737 23bb 1E       		.uleb128 0x1e
 7738 23bc 7B070000 		.long	.LASF225
 7739 23c0 DA230000 		.long	0x23da
 7740 23c4 00       		.byte	0
 7741 23c5 07       		.uleb128 0x7
 7742 23c6 7A0B0000 		.long	0xb7a
 7743 23ca 21       		.uleb128 0x21
 7744 23cb 58000000 		.long	0x58
 7745 23cf DA230000 		.long	0x23da
 7746 23d3 22       		.uleb128 0x22
 7747 23d4 32000000 		.long	0x32
 7748 23d8 0F       		.byte	0xf
 7749 23d9 00       		.byte	0
 7750 23da 20       		.uleb128 0x20
 7751 23db CA230000 		.long	0x23ca
 7752 23df 1C       		.uleb128 0x1c
 7753 23e0 F2000000 		.long	.LASF224
 7754 23e4 E9       		.byte	0xe9
 7755 23e5 0F       		.byte	0xf
 7756 23e6 5C010000 		.long	0x15c
 7757 23ea 31240000 		.long	0x2431
 7758 23ee 10       		.uleb128 0x10
 7759 23ef 64657000 		.string	"dep"
 7760 23f3 02       		.byte	0x2
 7761 23f4 E9       		.byte	0xe9
 7762 23f5 36       		.byte	0x36
 7763 23f6 750B0000 		.long	0xb75
 7764 23fa 10       		.uleb128 0x10
 7765 23fb 646C7000 		.string	"dlp"
 7766 23ff 02       		.byte	0x2
 7767 2400 EA       		.byte	0xea
 7768 2401 33       		.byte	0x33
 7769 2402 C5230000 		.long	0x23c5
 7770 2406 10       		.uleb128 0x10
 7771 2407 6D7000   		.string	"mp"
 7772 240a 02       		.byte	0x2
GAS LISTING /tmp/ccoiMs3n.s 			page 141


 7773 240b EB       		.byte	0xeb
 7774 240c 36       		.byte	0x36
 7775 240d 480E0000 		.long	0xe48
 7776 2411 1F       		.uleb128 0x1f
 7777 2412 BC010000 		.long	.LASF73
 7778 2416 EC       		.byte	0xec
 7779 2417 12       		.byte	0x12
 7780 2418 750B0000 		.long	0xb75
 7781 241c 1F       		.uleb128 0x1f
 7782 241d 46010000 		.long	.LASF38
 7783 2421 ED       		.byte	0xed
 7784 2422 0A       		.byte	0xa
 7785 2423 5C010000 		.long	0x15c
 7786 2427 1E       		.uleb128 0x1e
 7787 2428 7B070000 		.long	.LASF225
 7788 242c 41240000 		.long	0x2441
 7789 2430 00       		.byte	0
 7790 2431 21       		.uleb128 0x21
 7791 2432 58000000 		.long	0x58
 7792 2436 41240000 		.long	0x2441
 7793 243a 22       		.uleb128 0x22
 7794 243b 32000000 		.long	0x32
 7795 243f 17       		.byte	0x17
 7796 2440 00       		.byte	0
 7797 2441 20       		.uleb128 0x20
 7798 2442 31240000 		.long	0x2431
 7799 2446 1C       		.uleb128 0x1c
 7800 2447 FE030000 		.long	.LASF226
 7801 244b CB       		.byte	0xcb
 7802 244c 17       		.byte	0x17
 7803 244d 750B0000 		.long	0xb75
 7804 2451 8D240000 		.long	0x248d
 7805 2455 0F       		.uleb128 0xf
 7806 2456 8C090000 		.long	.LASF39
 7807 245a 02       		.byte	0x2
 7808 245b CB       		.byte	0xcb
 7809 245c 3A       		.byte	0x3a
 7810 245d 47000000 		.long	0x47
 7811 2461 10       		.uleb128 0x10
 7812 2462 646C7000 		.string	"dlp"
 7813 2466 02       		.byte	0x2
 7814 2467 CC       		.byte	0xcc
 7815 2468 3A       		.byte	0x3a
 7816 2469 C5230000 		.long	0x23c5
 7817 246d 10       		.uleb128 0x10
 7818 246e 6D7000   		.string	"mp"
 7819 2471 02       		.byte	0x2
 7820 2472 CD       		.byte	0xcd
 7821 2473 3D       		.byte	0x3d
 7822 2474 480E0000 		.long	0xe48
 7823 2478 25       		.uleb128 0x25
 7824 2479 64657000 		.string	"dep"
 7825 247d CE       		.byte	0xce
 7826 247e 12       		.byte	0x12
 7827 247f 750B0000 		.long	0xb75
 7828 2483 1E       		.uleb128 0x1e
 7829 2484 7B070000 		.long	.LASF225
GAS LISTING /tmp/ccoiMs3n.s 			page 142


 7830 2488 9D240000 		.long	0x249d
 7831 248c 00       		.byte	0
 7832 248d 21       		.uleb128 0x21
 7833 248e 58000000 		.long	0x58
 7834 2492 9D240000 		.long	0x249d
 7835 2496 22       		.uleb128 0x22
 7836 2497 32000000 		.long	0x32
 7837 249b 16       		.byte	0x16
 7838 249c 00       		.byte	0
 7839 249d 20       		.uleb128 0x20
 7840 249e 8D240000 		.long	0x248d
 7841 24a2 1C       		.uleb128 0x1c
 7842 24a3 E3050000 		.long	.LASF227
 7843 24a7 AD       		.byte	0xad
 7844 24a8 0F       		.byte	0xf
 7845 24a9 5C010000 		.long	0x15c
 7846 24ad E9240000 		.long	0x24e9
 7847 24b1 10       		.uleb128 0x10
 7848 24b2 64657000 		.string	"dep"
 7849 24b6 02       		.byte	0x2
 7850 24b7 AD       		.byte	0xad
 7851 24b8 36       		.byte	0x36
 7852 24b9 750B0000 		.long	0xb75
 7853 24bd 10       		.uleb128 0x10
 7854 24be 646C7000 		.string	"dlp"
 7855 24c2 02       		.byte	0x2
 7856 24c3 AE       		.byte	0xae
 7857 24c4 33       		.byte	0x33
 7858 24c5 C5230000 		.long	0x23c5
 7859 24c9 1F       		.uleb128 0x1f
 7860 24ca BC010000 		.long	.LASF73
 7861 24ce AF       		.byte	0xaf
 7862 24cf 12       		.byte	0x12
 7863 24d0 750B0000 		.long	0xb75
 7864 24d4 1F       		.uleb128 0x1f
 7865 24d5 46010000 		.long	.LASF38
 7866 24d9 B0       		.byte	0xb0
 7867 24da 0A       		.byte	0xa
 7868 24db 5C010000 		.long	0x15c
 7869 24df 1E       		.uleb128 0x1e
 7870 24e0 7B070000 		.long	.LASF225
 7871 24e4 41240000 		.long	0x2441
 7872 24e8 00       		.byte	0
 7873 24e9 1C       		.uleb128 0x1c
 7874 24ea 030B0000 		.long	.LASF228
 7875 24ee 8E       		.byte	0x8e
 7876 24ef 17       		.byte	0x17
 7877 24f0 750B0000 		.long	0xb75
 7878 24f4 3D250000 		.long	0x253d
 7879 24f8 0F       		.uleb128 0xf
 7880 24f9 8C090000 		.long	.LASF39
 7881 24fd 02       		.byte	0x2
 7882 24fe 8E       		.byte	0x8e
 7883 24ff 3A       		.byte	0x3a
 7884 2500 47000000 		.long	0x47
 7885 2504 10       		.uleb128 0x10
 7886 2505 646C7000 		.string	"dlp"
GAS LISTING /tmp/ccoiMs3n.s 			page 143


 7887 2509 02       		.byte	0x2
 7888 250a 8F       		.byte	0x8f
 7889 250b 3A       		.byte	0x3a
 7890 250c C5230000 		.long	0x23c5
 7891 2510 0F       		.uleb128 0xf
 7892 2511 52060000 		.long	.LASF120
 7893 2515 02       		.byte	0x2
 7894 2516 90       		.byte	0x90
 7895 2517 35       		.byte	0x35
 7896 2518 26000000 		.long	0x26
 7897 251c 0F       		.uleb128 0xf
 7898 251d F90B0000 		.long	.LASF141
 7899 2521 02       		.byte	0x2
 7900 2522 91       		.byte	0x91
 7901 2523 37       		.byte	0x37
 7902 2524 32000000 		.long	0x32
 7903 2528 25       		.uleb128 0x25
 7904 2529 64657000 		.string	"dep"
 7905 252d 92       		.byte	0x92
 7906 252e 12       		.byte	0x12
 7907 252f 750B0000 		.long	0xb75
 7908 2533 1E       		.uleb128 0x1e
 7909 2534 7B070000 		.long	.LASF225
 7910 2538 9D240000 		.long	0x249d
 7911 253c 00       		.byte	0
 7912 253d 1C       		.uleb128 0x1c
 7913 253e 64070000 		.long	.LASF229
 7914 2542 85       		.byte	0x85
 7915 2543 17       		.byte	0x17
 7916 2544 750B0000 		.long	0xb75
 7917 2548 64250000 		.long	0x2564
 7918 254c 0F       		.uleb128 0xf
 7919 254d BC010000 		.long	.LASF73
 7920 2551 02       		.byte	0x2
 7921 2552 85       		.byte	0x85
 7922 2553 36       		.byte	0x36
 7923 2554 750B0000 		.long	0xb75
 7924 2558 1F       		.uleb128 0x1f
 7925 2559 0C030000 		.long	.LASF156
 7926 255d 86       		.byte	0x86
 7927 255e 12       		.byte	0x12
 7928 255f 750B0000 		.long	0xb75
 7929 2563 00       		.byte	0
 7930 2564 1C       		.uleb128 0x1c
 7931 2565 84070000 		.long	.LASF230
 7932 2569 74       		.byte	0x74
 7933 256a 17       		.byte	0x17
 7934 256b 750B0000 		.long	0xb75
 7935 256f 97250000 		.long	0x2597
 7936 2573 0F       		.uleb128 0xf
 7937 2574 0C030000 		.long	.LASF156
 7938 2578 02       		.byte	0x2
 7939 2579 74       		.byte	0x74
 7940 257a 39       		.byte	0x39
 7941 257b 750B0000 		.long	0xb75
 7942 257f 10       		.uleb128 0x10
 7943 2580 646C7000 		.string	"dlp"
GAS LISTING /tmp/ccoiMs3n.s 			page 144


 7944 2584 02       		.byte	0x2
 7945 2585 75       		.byte	0x75
 7946 2586 33       		.byte	0x33
 7947 2587 C5230000 		.long	0x23c5
 7948 258b 1F       		.uleb128 0x1f
 7949 258c BC010000 		.long	.LASF73
 7950 2590 76       		.byte	0x76
 7951 2591 12       		.byte	0x12
 7952 2592 750B0000 		.long	0xb75
 7953 2596 00       		.byte	0
 7954 2597 1C       		.uleb128 0x1c
 7955 2598 D80A0000 		.long	.LASF231
 7956 259c 67       		.byte	0x67
 7957 259d 17       		.byte	0x17
 7958 259e 750B0000 		.long	0xb75
 7959 25a2 C8250000 		.long	0x25c8
 7960 25a6 0F       		.uleb128 0xf
 7961 25a7 8C090000 		.long	.LASF39
 7962 25ab 02       		.byte	0x2
 7963 25ac 67       		.byte	0x67
 7964 25ad 31       		.byte	0x31
 7965 25ae 47000000 		.long	0x47
 7966 25b2 10       		.uleb128 0x10
 7967 25b3 646C7000 		.string	"dlp"
 7968 25b7 02       		.byte	0x2
 7969 25b8 67       		.byte	0x67
 7970 25b9 43       		.byte	0x43
 7971 25ba C5230000 		.long	0x23c5
 7972 25be 25       		.uleb128 0x25
 7973 25bf 7000     		.string	"p"
 7974 25c1 68       		.byte	0x68
 7975 25c2 12       		.byte	0x12
 7976 25c3 750B0000 		.long	0xb75
 7977 25c7 00       		.byte	0
 7978 25c8 28       		.uleb128 0x28
 7979 25c9 DD020000 		.long	.LASF232
 7980 25cd 02       		.byte	0x2
 7981 25ce 62       		.byte	0x62
 7982 25cf 14       		.byte	0x14
 7983 25d0 03       		.byte	0x3
 7984 25d1 E2250000 		.long	0x25e2
 7985 25d5 10       		.uleb128 0x10
 7986 25d6 646C7000 		.string	"dlp"
 7987 25da 02       		.byte	0x2
 7988 25db 62       		.byte	0x62
 7989 25dc 2E       		.byte	0x2e
 7990 25dd C5230000 		.long	0x23c5
 7991 25e1 00       		.byte	0
 7992 25e2 28       		.uleb128 0x28
 7993 25e3 76050000 		.long	.LASF233
 7994 25e7 02       		.byte	0x2
 7995 25e8 56       		.byte	0x56
 7996 25e9 0D       		.byte	0xd
 7997 25ea 01       		.byte	0x1
 7998 25eb 18260000 		.long	0x2618
 7999 25ef 10       		.uleb128 0x10
 8000 25f0 737000   		.string	"sp"
GAS LISTING /tmp/ccoiMs3n.s 			page 145


 8001 25f3 02       		.byte	0x2
 8002 25f4 56       		.byte	0x56
 8003 25f5 23       		.byte	0x23
 8004 25f6 47000000 		.long	0x47
 8005 25fa 10       		.uleb128 0x10
 8006 25fb 647000   		.string	"dp"
 8007 25fe 02       		.byte	0x2
 8008 25ff 56       		.byte	0x56
 8009 2600 2D       		.byte	0x2d
 8010 2601 CE000000 		.long	0xce
 8011 2605 25       		.uleb128 0x25
 8012 2606 6900     		.string	"i"
 8013 2608 57       		.byte	0x57
 8014 2609 0C       		.byte	0xc
 8015 260a 32000000 		.long	0x32
 8016 260e 25       		.uleb128 0x25
 8017 260f 6300     		.string	"c"
 8018 2611 58       		.byte	0x58
 8019 2612 08       		.byte	0x8
 8020 2613 51000000 		.long	0x51
 8021 2617 00       		.byte	0
 8022 2618 28       		.uleb128 0x28
 8023 2619 E6030000 		.long	.LASF234
 8024 261d 05       		.byte	0x5
 8025 261e 80       		.byte	0x80
 8026 261f 14       		.byte	0x14
 8027 2620 03       		.byte	0x3
 8028 2621 77260000 		.long	0x2677
 8029 2625 10       		.uleb128 0x10
 8030 2626 6F667000 		.string	"ofp"
 8031 262a 05       		.byte	0x5
 8032 262b 80       		.byte	0x80
 8033 262c 3C       		.byte	0x3c
 8034 262d 77260000 		.long	0x2677
 8035 2631 0F       		.uleb128 0xf
 8036 2632 C8020000 		.long	.LASF235
 8037 2636 05       		.byte	0x5
 8038 2637 80       		.byte	0x80
 8039 2638 48       		.byte	0x48
 8040 2639 26000000 		.long	0x26
 8041 263d 0F       		.uleb128 0xf
 8042 263e 46060000 		.long	.LASF204
 8043 2642 05       		.byte	0x5
 8044 2643 81       		.byte	0x81
 8045 2644 33       		.byte	0x33
 8046 2645 26000000 		.long	0x26
 8047 2649 0F       		.uleb128 0xf
 8048 264a EA060000 		.long	.LASF205
 8049 264e 05       		.byte	0x5
 8050 264f 81       		.byte	0x81
 8051 2650 42       		.byte	0x42
 8052 2651 32000000 		.long	0x32
 8053 2655 0F       		.uleb128 0xf
 8054 2656 450C0000 		.long	.LASF209
 8055 265a 05       		.byte	0x5
 8056 265b 82       		.byte	0x82
 8057 265c 32       		.byte	0x32
GAS LISTING /tmp/ccoiMs3n.s 			page 146


 8058 265d CC000000 		.long	0xcc
 8059 2661 0F       		.uleb128 0xf
 8060 2662 11090000 		.long	.LASF208
 8061 2666 05       		.byte	0x5
 8062 2667 82       		.byte	0x82
 8063 2668 41       		.byte	0x41
 8064 2669 5F080000 		.long	0x85f
 8065 266d 1E       		.uleb128 0x1e
 8066 266e 7B070000 		.long	.LASF225
 8067 2672 41240000 		.long	0x2441
 8068 2676 00       		.byte	0
 8069 2677 07       		.uleb128 0x7
 8070 2678 530A0000 		.long	0xa53
 8071 267c 28       		.uleb128 0x28
 8072 267d 00000000 		.long	.LASF236
 8073 2681 03       		.byte	0x3
 8074 2682 BF       		.byte	0xbf
 8075 2683 14       		.byte	0x14
 8076 2684 03       		.byte	0x3
 8077 2685 AD260000 		.long	0x26ad
 8078 2689 10       		.uleb128 0x10
 8079 268a 6D7000   		.string	"mp"
 8080 268d 03       		.byte	0x3
 8081 268e BF       		.byte	0xbf
 8082 268f 34       		.byte	0x34
 8083 2690 480E0000 		.long	0xe48
 8084 2694 0F       		.uleb128 0xf
 8085 2695 52060000 		.long	.LASF120
 8086 2699 03       		.byte	0x3
 8087 269a C0       		.byte	0xc0
 8088 269b 2C       		.byte	0x2c
 8089 269c 26000000 		.long	0x26
 8090 26a0 0F       		.uleb128 0xf
 8091 26a1 FF080000 		.long	.LASF131
 8092 26a5 03       		.byte	0x3
 8093 26a6 C1       		.byte	0xc1
 8094 26a7 32       		.byte	0x32
 8095 26a8 70080000 		.long	0x870
 8096 26ac 00       		.byte	0
 8097 26ad 41       		.uleb128 0x41
 8098 26ae 89000000 		.long	.LASF244
 8099 26b2 01       		.byte	0x1
 8100 26b3 96       		.byte	0x96
 8101 26b4 15       		.byte	0x15
 8102 26b5 CC000000 		.long	0xcc
 8103 26b9 00000000 		.long	.LFB148
 8104 26bd 23000000 		.long	.LFE148-.LFB148
 8105 26c1 01       		.uleb128 0x1
 8106 26c2 9C       		.byte	0x9c
 8107 26c3 ED260000 		.long	0x26ed
 8108 26c7 2F       		.uleb128 0x2f
 8109 26c8 52060000 		.long	.LASF120
 8110 26cc 96       		.byte	0x96
 8111 26cd 30       		.byte	0x30
 8112 26ce 26000000 		.long	0x26
 8113 26d2 02       		.uleb128 0x2
 8114 26d3 91       		.byte	0x91
GAS LISTING /tmp/ccoiMs3n.s 			page 147


 8115 26d4 00       		.sleb128 0
 8116 26d5 2F       		.uleb128 0x2f
 8117 26d6 F90B0000 		.long	.LASF141
 8118 26da 96       		.byte	0x96
 8119 26db 3F       		.byte	0x3f
 8120 26dc 32000000 		.long	0x32
 8121 26e0 02       		.uleb128 0x2
 8122 26e1 91       		.byte	0x91
 8123 26e2 04       		.sleb128 4
 8124 26e3 02       		.uleb128 0x2
 8125 26e4 1E000000 		.long	.LVL1
 8126 26e8 C50E0000 		.long	0xec5
 8127 26ec 00       		.byte	0
 8128 26ed 42       		.uleb128 0x42
 8129 26ee 4B060000 		.long	.LASF245
 8130 26f2 04       		.byte	0x4
 8131 26f3 39       		.byte	0x39
 8132 26f4 01       		.byte	0x1
 8133 26f5 CC000000 		.long	0xcc
 8134 26f9 03       		.byte	0x3
 8135 26fa 23270000 		.long	0x2723
 8136 26fe 0F       		.uleb128 0xf
 8137 26ff 4B030000 		.long	.LASF237
 8138 2703 04       		.byte	0x4
 8139 2704 39       		.byte	0x39
 8140 2705 01       		.byte	0x1
 8141 2706 CC000000 		.long	0xcc
 8142 270a 0F       		.uleb128 0xf
 8143 270b 5F070000 		.long	.LASF238
 8144 270f 04       		.byte	0x4
 8145 2710 39       		.byte	0x39
 8146 2711 01       		.byte	0x1
 8147 2712 40000000 		.long	0x40
 8148 2716 0F       		.uleb128 0xf
 8149 2717 6B010000 		.long	.LASF239
 8150 271b 04       		.byte	0x4
 8151 271c 39       		.byte	0x39
 8152 271d 01       		.byte	0x1
 8153 271e 26000000 		.long	0x26
 8154 2722 00       		.byte	0
 8155 2723 43       		.uleb128 0x43
 8156 2724 E9240000 		.long	0x24e9
 8157 2728 00000000 		.long	.LFB220
 8158 272c A9000000 		.long	.LFE220-.LFB220
 8159 2730 01       		.uleb128 0x1
 8160 2731 9C       		.byte	0x9c
 8161 2732 65280000 		.long	0x2865
 8162 2736 01       		.uleb128 0x1
 8163 2737 F8240000 		.long	0x24f8
 8164 273b 130E0000 		.long	.LLST0
 8165 273f 090E0000 		.long	.LVUS0
 8166 2743 01       		.uleb128 0x1
 8167 2744 04250000 		.long	0x2504
 8168 2748 450E0000 		.long	.LLST1
 8169 274c 3B0E0000 		.long	.LVUS1
 8170 2750 01       		.uleb128 0x1
 8171 2751 10250000 		.long	0x2510
GAS LISTING /tmp/ccoiMs3n.s 			page 148


 8172 2755 710E0000 		.long	.LLST2
 8173 2759 6D0E0000 		.long	.LVUS2
 8174 275d 44       		.uleb128 0x44
 8175 275e 1C250000 		.long	0x251c
 8176 2762 02       		.uleb128 0x2
 8177 2763 91       		.byte	0x91
 8178 2764 00       		.sleb128 0
 8179 2765 05       		.uleb128 0x5
 8180 2766 28250000 		.long	0x2528
 8181 276a 850E0000 		.long	.LLST3
 8182 276e 830E0000 		.long	.LVUS3
 8183 2772 1A       		.uleb128 0x1a
 8184 2773 97250000 		.long	0x2597
 8185 2777 07000000 		.long	.LBI34
 8186 277b 00       		.byte	.LVU12
 8187 277c 0C000000 		.long	.LLRL4
 8188 2780 97       		.byte	0x97
 8189 2781 09       		.byte	0x9
 8190 2782 BD270000 		.long	0x27bd
 8191 2786 01       		.uleb128 0x1
 8192 2787 B2250000 		.long	0x25b2
 8193 278b 920E0000 		.long	.LLST5
 8194 278f 8E0E0000 		.long	.LVUS5
 8195 2793 01       		.uleb128 0x1
 8196 2794 A6250000 		.long	0x25a6
 8197 2798 A60E0000 		.long	.LLST6
 8198 279c A20E0000 		.long	.LVUS6
 8199 27a0 09       		.uleb128 0x9
 8200 27a1 0C000000 		.long	.LLRL4
 8201 27a5 05       		.uleb128 0x5
 8202 27a6 BE250000 		.long	0x25be
 8203 27aa B80E0000 		.long	.LLST7
 8204 27ae B60E0000 		.long	.LVUS7
 8205 27b2 02       		.uleb128 0x2
 8206 27b3 3E000000 		.long	.LVL7
 8207 27b7 4D0E0000 		.long	0xe4d
 8208 27bb 00       		.byte	0
 8209 27bc 00       		.byte	0
 8210 27bd 2B       		.uleb128 0x2b
 8211 27be E9240000 		.long	0x24e9
 8212 27c2 58000000 		.long	.LBI40
 8213 27c6 00       		.byte	.LVU35
 8214 27c7 1B000000 		.long	.LLRL8
 8215 27cb 8E       		.byte	0x8e
 8216 27cc 01       		.uleb128 0x1
 8217 27cd 1C250000 		.long	0x251c
 8218 27d1 C30E0000 		.long	.LLST9
 8219 27d5 C10E0000 		.long	.LVUS9
 8220 27d9 01       		.uleb128 0x1
 8221 27da 10250000 		.long	0x2510
 8222 27de CF0E0000 		.long	.LLST10
 8223 27e2 CD0E0000 		.long	.LVUS10
 8224 27e6 01       		.uleb128 0x1
 8225 27e7 04250000 		.long	0x2504
 8226 27eb DB0E0000 		.long	.LLST11
 8227 27ef D90E0000 		.long	.LVUS11
 8228 27f3 01       		.uleb128 0x1
GAS LISTING /tmp/ccoiMs3n.s 			page 149


 8229 27f4 F8240000 		.long	0x24f8
 8230 27f8 E60E0000 		.long	.LLST12
 8231 27fc E40E0000 		.long	.LVUS12
 8232 2800 09       		.uleb128 0x9
 8233 2801 1B000000 		.long	.LLRL8
 8234 2805 05       		.uleb128 0x5
 8235 2806 28250000 		.long	0x2528
 8236 280a F30E0000 		.long	.LLST13
 8237 280e EF0E0000 		.long	.LVUS13
 8238 2812 2C       		.uleb128 0x2c
 8239 2813 E2250000 		.long	0x25e2
 8240 2817 78000000 		.long	.LBB42
 8241 281b 1A000000 		.long	.LBE42-.LBB42
 8242 281f A3       		.byte	0xa3
 8243 2820 59280000 		.long	0x2859
 8244 2824 01       		.uleb128 0x1
 8245 2825 FA250000 		.long	0x25fa
 8246 2829 090F0000 		.long	.LLST14
 8247 282d 030F0000 		.long	.LVUS14
 8248 2831 01       		.uleb128 0x1
 8249 2832 EF250000 		.long	0x25ef
 8250 2836 390F0000 		.long	.LLST15
 8251 283a 330F0000 		.long	.LVUS15
 8252 283e 05       		.uleb128 0x5
 8253 283f 05260000 		.long	0x2605
 8254 2843 650F0000 		.long	.LLST16
 8255 2847 5F0F0000 		.long	.LVUS16
 8256 284b 05       		.uleb128 0x5
 8257 284c 0E260000 		.long	0x260e
 8258 2850 8C0F0000 		.long	.LLST17
 8259 2854 860F0000 		.long	.LVUS17
 8260 2858 00       		.byte	0
 8261 2859 02       		.uleb128 0x2
 8262 285a 6A000000 		.long	.LVL13
 8263 285e 120E0000 		.long	0xe12
 8264 2862 00       		.byte	0
 8265 2863 00       		.byte	0
 8266 2864 00       		.byte	0
 8267 2865 45       		.uleb128 0x45
 8268 2866 4B060000 		.long	.LASF245
 8269 286a 91090000 		.long	.LASF246
 8270 286e 1A       		.byte	0x1a
 8271 286f 00       		.byte	0
 8272 2870 00       		.byte	0
 8273              		.section	.debug_abbrev,"",@progbits
 8274              	.Ldebug_abbrev0:
 8275 0000 01       		.uleb128 0x1
 8276 0001 05       		.uleb128 0x5
 8277 0002 00       		.byte	0
 8278 0003 31       		.uleb128 0x31
 8279 0004 13       		.uleb128 0x13
 8280 0005 02       		.uleb128 0x2
 8281 0006 17       		.uleb128 0x17
 8282 0007 B742     		.uleb128 0x2137
 8283 0009 17       		.uleb128 0x17
 8284 000a 00       		.byte	0
 8285 000b 00       		.byte	0
GAS LISTING /tmp/ccoiMs3n.s 			page 150


 8286 000c 02       		.uleb128 0x2
 8287 000d 48       		.uleb128 0x48
 8288 000e 00       		.byte	0
 8289 000f 7D       		.uleb128 0x7d
 8290 0010 01       		.uleb128 0x1
 8291 0011 7F       		.uleb128 0x7f
 8292 0012 13       		.uleb128 0x13
 8293 0013 00       		.byte	0
 8294 0014 00       		.byte	0
 8295 0015 03       		.uleb128 0x3
 8296 0016 0D       		.uleb128 0xd
 8297 0017 00       		.byte	0
 8298 0018 03       		.uleb128 0x3
 8299 0019 0E       		.uleb128 0xe
 8300 001a 3A       		.uleb128 0x3a
 8301 001b 0B       		.uleb128 0xb
 8302 001c 3B       		.uleb128 0x3b
 8303 001d 0B       		.uleb128 0xb
 8304 001e 39       		.uleb128 0x39
 8305 001f 0B       		.uleb128 0xb
 8306 0020 49       		.uleb128 0x49
 8307 0021 13       		.uleb128 0x13
 8308 0022 38       		.uleb128 0x38
 8309 0023 0B       		.uleb128 0xb
 8310 0024 00       		.byte	0
 8311 0025 00       		.byte	0
 8312 0026 04       		.uleb128 0x4
 8313 0027 16       		.uleb128 0x16
 8314 0028 00       		.byte	0
 8315 0029 03       		.uleb128 0x3
 8316 002a 0E       		.uleb128 0xe
 8317 002b 3A       		.uleb128 0x3a
 8318 002c 0B       		.uleb128 0xb
 8319 002d 3B       		.uleb128 0x3b
 8320 002e 0B       		.uleb128 0xb
 8321 002f 39       		.uleb128 0x39
 8322 0030 0B       		.uleb128 0xb
 8323 0031 49       		.uleb128 0x49
 8324 0032 13       		.uleb128 0x13
 8325 0033 00       		.byte	0
 8326 0034 00       		.byte	0
 8327 0035 05       		.uleb128 0x5
 8328 0036 34       		.uleb128 0x34
 8329 0037 00       		.byte	0
 8330 0038 31       		.uleb128 0x31
 8331 0039 13       		.uleb128 0x13
 8332 003a 02       		.uleb128 0x2
 8333 003b 17       		.uleb128 0x17
 8334 003c B742     		.uleb128 0x2137
 8335 003e 17       		.uleb128 0x17
 8336 003f 00       		.byte	0
 8337 0040 00       		.byte	0
 8338 0041 06       		.uleb128 0x6
 8339 0042 05       		.uleb128 0x5
 8340 0043 00       		.byte	0
 8341 0044 49       		.uleb128 0x49
 8342 0045 13       		.uleb128 0x13
GAS LISTING /tmp/ccoiMs3n.s 			page 151


 8343 0046 00       		.byte	0
 8344 0047 00       		.byte	0
 8345 0048 07       		.uleb128 0x7
 8346 0049 0F       		.uleb128 0xf
 8347 004a 00       		.byte	0
 8348 004b 0B       		.uleb128 0xb
 8349 004c 21       		.uleb128 0x21
 8350 004d 04       		.sleb128 4
 8351 004e 49       		.uleb128 0x49
 8352 004f 13       		.uleb128 0x13
 8353 0050 00       		.byte	0
 8354 0051 00       		.byte	0
 8355 0052 08       		.uleb128 0x8
 8356 0053 0D       		.uleb128 0xd
 8357 0054 00       		.byte	0
 8358 0055 03       		.uleb128 0x3
 8359 0056 0E       		.uleb128 0xe
 8360 0057 3A       		.uleb128 0x3a
 8361 0058 0B       		.uleb128 0xb
 8362 0059 3B       		.uleb128 0x3b
 8363 005a 05       		.uleb128 0x5
 8364 005b 39       		.uleb128 0x39
 8365 005c 0B       		.uleb128 0xb
 8366 005d 49       		.uleb128 0x49
 8367 005e 13       		.uleb128 0x13
 8368 005f 38       		.uleb128 0x38
 8369 0060 0B       		.uleb128 0xb
 8370 0061 00       		.byte	0
 8371 0062 00       		.byte	0
 8372 0063 09       		.uleb128 0x9
 8373 0064 0B       		.uleb128 0xb
 8374 0065 01       		.byte	0x1
 8375 0066 55       		.uleb128 0x55
 8376 0067 17       		.uleb128 0x17
 8377 0068 00       		.byte	0
 8378 0069 00       		.byte	0
 8379 006a 0A       		.uleb128 0xa
 8380 006b 13       		.uleb128 0x13
 8381 006c 01       		.byte	0x1
 8382 006d 03       		.uleb128 0x3
 8383 006e 0E       		.uleb128 0xe
 8384 006f 0B       		.uleb128 0xb
 8385 0070 0B       		.uleb128 0xb
 8386 0071 3A       		.uleb128 0x3a
 8387 0072 0B       		.uleb128 0xb
 8388 0073 3B       		.uleb128 0x3b
 8389 0074 0B       		.uleb128 0xb
 8390 0075 39       		.uleb128 0x39
 8391 0076 0B       		.uleb128 0xb
 8392 0077 01       		.uleb128 0x1
 8393 0078 13       		.uleb128 0x13
 8394 0079 00       		.byte	0
 8395 007a 00       		.byte	0
 8396 007b 0B       		.uleb128 0xb
 8397 007c 0D       		.uleb128 0xd
 8398 007d 00       		.byte	0
 8399 007e 03       		.uleb128 0x3
GAS LISTING /tmp/ccoiMs3n.s 			page 152


 8400 007f 08       		.uleb128 0x8
 8401 0080 3A       		.uleb128 0x3a
 8402 0081 0B       		.uleb128 0xb
 8403 0082 3B       		.uleb128 0x3b
 8404 0083 0B       		.uleb128 0xb
 8405 0084 39       		.uleb128 0x39
 8406 0085 0B       		.uleb128 0xb
 8407 0086 49       		.uleb128 0x49
 8408 0087 13       		.uleb128 0x13
 8409 0088 38       		.uleb128 0x38
 8410 0089 0B       		.uleb128 0xb
 8411 008a 00       		.byte	0
 8412 008b 00       		.byte	0
 8413 008c 0C       		.uleb128 0xc
 8414 008d 1D       		.uleb128 0x1d
 8415 008e 01       		.byte	0x1
 8416 008f 31       		.uleb128 0x31
 8417 0090 13       		.uleb128 0x13
 8418 0091 52       		.uleb128 0x52
 8419 0092 01       		.uleb128 0x1
 8420 0093 B842     		.uleb128 0x2138
 8421 0095 0B       		.uleb128 0xb
 8422 0096 55       		.uleb128 0x55
 8423 0097 17       		.uleb128 0x17
 8424 0098 58       		.uleb128 0x58
 8425 0099 21       		.uleb128 0x21
 8426 009a 02       		.sleb128 2
 8427 009b 59       		.uleb128 0x59
 8428 009c 05       		.uleb128 0x5
 8429 009d 57       		.uleb128 0x57
 8430 009e 0B       		.uleb128 0xb
 8431 009f 01       		.uleb128 0x1
 8432 00a0 13       		.uleb128 0x13
 8433 00a1 00       		.byte	0
 8434 00a2 00       		.byte	0
 8435 00a3 0D       		.uleb128 0xd
 8436 00a4 2E       		.uleb128 0x2e
 8437 00a5 01       		.byte	0x1
 8438 00a6 3F       		.uleb128 0x3f
 8439 00a7 19       		.uleb128 0x19
 8440 00a8 03       		.uleb128 0x3
 8441 00a9 0E       		.uleb128 0xe
 8442 00aa 3A       		.uleb128 0x3a
 8443 00ab 21       		.uleb128 0x21
 8444 00ac 02       		.sleb128 2
 8445 00ad 3B       		.uleb128 0x3b
 8446 00ae 05       		.uleb128 0x5
 8447 00af 39       		.uleb128 0x39
 8448 00b0 0B       		.uleb128 0xb
 8449 00b1 27       		.uleb128 0x27
 8450 00b2 19       		.uleb128 0x19
 8451 00b3 49       		.uleb128 0x49
 8452 00b4 13       		.uleb128 0x13
 8453 00b5 11       		.uleb128 0x11
 8454 00b6 01       		.uleb128 0x1
 8455 00b7 12       		.uleb128 0x12
 8456 00b8 06       		.uleb128 0x6
GAS LISTING /tmp/ccoiMs3n.s 			page 153


 8457 00b9 40       		.uleb128 0x40
 8458 00ba 18       		.uleb128 0x18
 8459 00bb 7A       		.uleb128 0x7a
 8460 00bc 19       		.uleb128 0x19
 8461 00bd 01       		.uleb128 0x1
 8462 00be 13       		.uleb128 0x13
 8463 00bf 00       		.byte	0
 8464 00c0 00       		.byte	0
 8465 00c1 0E       		.uleb128 0xe
 8466 00c2 05       		.uleb128 0x5
 8467 00c3 00       		.byte	0
 8468 00c4 03       		.uleb128 0x3
 8469 00c5 0E       		.uleb128 0xe
 8470 00c6 3A       		.uleb128 0x3a
 8471 00c7 21       		.uleb128 0x21
 8472 00c8 02       		.sleb128 2
 8473 00c9 3B       		.uleb128 0x3b
 8474 00ca 05       		.uleb128 0x5
 8475 00cb 39       		.uleb128 0x39
 8476 00cc 0B       		.uleb128 0xb
 8477 00cd 49       		.uleb128 0x49
 8478 00ce 13       		.uleb128 0x13
 8479 00cf 02       		.uleb128 0x2
 8480 00d0 18       		.uleb128 0x18
 8481 00d1 00       		.byte	0
 8482 00d2 00       		.byte	0
 8483 00d3 0F       		.uleb128 0xf
 8484 00d4 05       		.uleb128 0x5
 8485 00d5 00       		.byte	0
 8486 00d6 03       		.uleb128 0x3
 8487 00d7 0E       		.uleb128 0xe
 8488 00d8 3A       		.uleb128 0x3a
 8489 00d9 0B       		.uleb128 0xb
 8490 00da 3B       		.uleb128 0x3b
 8491 00db 0B       		.uleb128 0xb
 8492 00dc 39       		.uleb128 0x39
 8493 00dd 0B       		.uleb128 0xb
 8494 00de 49       		.uleb128 0x49
 8495 00df 13       		.uleb128 0x13
 8496 00e0 00       		.byte	0
 8497 00e1 00       		.byte	0
 8498 00e2 10       		.uleb128 0x10
 8499 00e3 05       		.uleb128 0x5
 8500 00e4 00       		.byte	0
 8501 00e5 03       		.uleb128 0x3
 8502 00e6 08       		.uleb128 0x8
 8503 00e7 3A       		.uleb128 0x3a
 8504 00e8 0B       		.uleb128 0xb
 8505 00e9 3B       		.uleb128 0x3b
 8506 00ea 0B       		.uleb128 0xb
 8507 00eb 39       		.uleb128 0x39
 8508 00ec 0B       		.uleb128 0xb
 8509 00ed 49       		.uleb128 0x49
 8510 00ee 13       		.uleb128 0x13
 8511 00ef 00       		.byte	0
 8512 00f0 00       		.byte	0
 8513 00f1 11       		.uleb128 0x11
GAS LISTING /tmp/ccoiMs3n.s 			page 154


 8514 00f2 24       		.uleb128 0x24
 8515 00f3 00       		.byte	0
 8516 00f4 0B       		.uleb128 0xb
 8517 00f5 0B       		.uleb128 0xb
 8518 00f6 3E       		.uleb128 0x3e
 8519 00f7 0B       		.uleb128 0xb
 8520 00f8 03       		.uleb128 0x3
 8521 00f9 0E       		.uleb128 0xe
 8522 00fa 00       		.byte	0
 8523 00fb 00       		.byte	0
 8524 00fc 12       		.uleb128 0x12
 8525 00fd 34       		.uleb128 0x34
 8526 00fe 00       		.byte	0
 8527 00ff 03       		.uleb128 0x3
 8528 0100 0E       		.uleb128 0xe
 8529 0101 3A       		.uleb128 0x3a
 8530 0102 21       		.uleb128 0x21
 8531 0103 02       		.sleb128 2
 8532 0104 3B       		.uleb128 0x3b
 8533 0105 05       		.uleb128 0x5
 8534 0106 39       		.uleb128 0x39
 8535 0107 0B       		.uleb128 0xb
 8536 0108 49       		.uleb128 0x49
 8537 0109 13       		.uleb128 0x13
 8538 010a 02       		.uleb128 0x2
 8539 010b 17       		.uleb128 0x17
 8540 010c B742     		.uleb128 0x2137
 8541 010e 17       		.uleb128 0x17
 8542 010f 00       		.byte	0
 8543 0110 00       		.byte	0
 8544 0111 13       		.uleb128 0x13
 8545 0112 49       		.uleb128 0x49
 8546 0113 00       		.byte	0
 8547 0114 02       		.uleb128 0x2
 8548 0115 18       		.uleb128 0x18
 8549 0116 7E       		.uleb128 0x7e
 8550 0117 18       		.uleb128 0x18
 8551 0118 00       		.byte	0
 8552 0119 00       		.byte	0
 8553 011a 14       		.uleb128 0x14
 8554 011b 2E       		.uleb128 0x2e
 8555 011c 01       		.byte	0x1
 8556 011d 3F       		.uleb128 0x3f
 8557 011e 19       		.uleb128 0x19
 8558 011f 03       		.uleb128 0x3
 8559 0120 0E       		.uleb128 0xe
 8560 0121 3A       		.uleb128 0x3a
 8561 0122 0B       		.uleb128 0xb
 8562 0123 3B       		.uleb128 0x3b
 8563 0124 0B       		.uleb128 0xb
 8564 0125 39       		.uleb128 0x39
 8565 0126 21       		.uleb128 0x21
 8566 0127 08       		.sleb128 8
 8567 0128 27       		.uleb128 0x27
 8568 0129 19       		.uleb128 0x19
 8569 012a 3C       		.uleb128 0x3c
 8570 012b 19       		.uleb128 0x19
GAS LISTING /tmp/ccoiMs3n.s 			page 155


 8571 012c 01       		.uleb128 0x1
 8572 012d 13       		.uleb128 0x13
 8573 012e 00       		.byte	0
 8574 012f 00       		.byte	0
 8575 0130 15       		.uleb128 0x15
 8576 0131 34       		.uleb128 0x34
 8577 0132 00       		.byte	0
 8578 0133 03       		.uleb128 0x3
 8579 0134 08       		.uleb128 0x8
 8580 0135 3A       		.uleb128 0x3a
 8581 0136 21       		.uleb128 0x21
 8582 0137 02       		.sleb128 2
 8583 0138 3B       		.uleb128 0x3b
 8584 0139 05       		.uleb128 0x5
 8585 013a 39       		.uleb128 0x39
 8586 013b 0B       		.uleb128 0xb
 8587 013c 49       		.uleb128 0x49
 8588 013d 13       		.uleb128 0x13
 8589 013e 02       		.uleb128 0x2
 8590 013f 17       		.uleb128 0x17
 8591 0140 B742     		.uleb128 0x2137
 8592 0142 17       		.uleb128 0x17
 8593 0143 00       		.byte	0
 8594 0144 00       		.byte	0
 8595 0145 16       		.uleb128 0x16
 8596 0146 13       		.uleb128 0x13
 8597 0147 01       		.byte	0x1
 8598 0148 0B       		.uleb128 0xb
 8599 0149 0B       		.uleb128 0xb
 8600 014a 3A       		.uleb128 0x3a
 8601 014b 0B       		.uleb128 0xb
 8602 014c 3B       		.uleb128 0x3b
 8603 014d 0B       		.uleb128 0xb
 8604 014e 39       		.uleb128 0x39
 8605 014f 0B       		.uleb128 0xb
 8606 0150 01       		.uleb128 0x1
 8607 0151 13       		.uleb128 0x13
 8608 0152 00       		.byte	0
 8609 0153 00       		.byte	0
 8610 0154 17       		.uleb128 0x17
 8611 0155 0D       		.uleb128 0xd
 8612 0156 00       		.byte	0
 8613 0157 03       		.uleb128 0x3
 8614 0158 0E       		.uleb128 0xe
 8615 0159 3A       		.uleb128 0x3a
 8616 015a 21       		.uleb128 0x21
 8617 015b 0C       		.sleb128 12
 8618 015c 3B       		.uleb128 0x3b
 8619 015d 05       		.uleb128 0x5
 8620 015e 39       		.uleb128 0x39
 8621 015f 0B       		.uleb128 0xb
 8622 0160 49       		.uleb128 0x49
 8623 0161 13       		.uleb128 0x13
 8624 0162 00       		.byte	0
 8625 0163 00       		.byte	0
 8626 0164 18       		.uleb128 0x18
 8627 0165 1D       		.uleb128 0x1d
GAS LISTING /tmp/ccoiMs3n.s 			page 156


 8628 0166 01       		.byte	0x1
 8629 0167 31       		.uleb128 0x31
 8630 0168 13       		.uleb128 0x13
 8631 0169 52       		.uleb128 0x52
 8632 016a 01       		.uleb128 0x1
 8633 016b B842     		.uleb128 0x2138
 8634 016d 0B       		.uleb128 0xb
 8635 016e 11       		.uleb128 0x11
 8636 016f 01       		.uleb128 0x1
 8637 0170 12       		.uleb128 0x12
 8638 0171 06       		.uleb128 0x6
 8639 0172 58       		.uleb128 0x58
 8640 0173 21       		.uleb128 0x21
 8641 0174 02       		.sleb128 2
 8642 0175 59       		.uleb128 0x59
 8643 0176 0B       		.uleb128 0xb
 8644 0177 57       		.uleb128 0x57
 8645 0178 0B       		.uleb128 0xb
 8646 0179 01       		.uleb128 0x1
 8647 017a 13       		.uleb128 0x13
 8648 017b 00       		.byte	0
 8649 017c 00       		.byte	0
 8650 017d 19       		.uleb128 0x19
 8651 017e 05       		.uleb128 0x5
 8652 017f 00       		.byte	0
 8653 0180 03       		.uleb128 0x3
 8654 0181 08       		.uleb128 0x8
 8655 0182 3A       		.uleb128 0x3a
 8656 0183 21       		.uleb128 0x21
 8657 0184 02       		.sleb128 2
 8658 0185 3B       		.uleb128 0x3b
 8659 0186 05       		.uleb128 0x5
 8660 0187 39       		.uleb128 0x39
 8661 0188 0B       		.uleb128 0xb
 8662 0189 49       		.uleb128 0x49
 8663 018a 13       		.uleb128 0x13
 8664 018b 02       		.uleb128 0x2
 8665 018c 18       		.uleb128 0x18
 8666 018d 00       		.byte	0
 8667 018e 00       		.byte	0
 8668 018f 1A       		.uleb128 0x1a
 8669 0190 1D       		.uleb128 0x1d
 8670 0191 01       		.byte	0x1
 8671 0192 31       		.uleb128 0x31
 8672 0193 13       		.uleb128 0x13
 8673 0194 52       		.uleb128 0x52
 8674 0195 01       		.uleb128 0x1
 8675 0196 B842     		.uleb128 0x2138
 8676 0198 0B       		.uleb128 0xb
 8677 0199 55       		.uleb128 0x55
 8678 019a 17       		.uleb128 0x17
 8679 019b 58       		.uleb128 0x58
 8680 019c 21       		.uleb128 0x21
 8681 019d 02       		.sleb128 2
 8682 019e 59       		.uleb128 0x59
 8683 019f 0B       		.uleb128 0xb
 8684 01a0 57       		.uleb128 0x57
GAS LISTING /tmp/ccoiMs3n.s 			page 157


 8685 01a1 0B       		.uleb128 0xb
 8686 01a2 01       		.uleb128 0x1
 8687 01a3 13       		.uleb128 0x13
 8688 01a4 00       		.byte	0
 8689 01a5 00       		.byte	0
 8690 01a6 1B       		.uleb128 0x1b
 8691 01a7 1D       		.uleb128 0x1d
 8692 01a8 01       		.byte	0x1
 8693 01a9 31       		.uleb128 0x31
 8694 01aa 13       		.uleb128 0x13
 8695 01ab 52       		.uleb128 0x52
 8696 01ac 01       		.uleb128 0x1
 8697 01ad B842     		.uleb128 0x2138
 8698 01af 0B       		.uleb128 0xb
 8699 01b0 55       		.uleb128 0x55
 8700 01b1 17       		.uleb128 0x17
 8701 01b2 58       		.uleb128 0x58
 8702 01b3 21       		.uleb128 0x21
 8703 01b4 02       		.sleb128 2
 8704 01b5 59       		.uleb128 0x59
 8705 01b6 05       		.uleb128 0x5
 8706 01b7 57       		.uleb128 0x57
 8707 01b8 0B       		.uleb128 0xb
 8708 01b9 00       		.byte	0
 8709 01ba 00       		.byte	0
 8710 01bb 1C       		.uleb128 0x1c
 8711 01bc 2E       		.uleb128 0x2e
 8712 01bd 01       		.byte	0x1
 8713 01be 03       		.uleb128 0x3
 8714 01bf 0E       		.uleb128 0xe
 8715 01c0 3A       		.uleb128 0x3a
 8716 01c1 21       		.uleb128 0x21
 8717 01c2 02       		.sleb128 2
 8718 01c3 3B       		.uleb128 0x3b
 8719 01c4 0B       		.uleb128 0xb
 8720 01c5 39       		.uleb128 0x39
 8721 01c6 0B       		.uleb128 0xb
 8722 01c7 27       		.uleb128 0x27
 8723 01c8 19       		.uleb128 0x19
 8724 01c9 49       		.uleb128 0x49
 8725 01ca 13       		.uleb128 0x13
 8726 01cb 20       		.uleb128 0x20
 8727 01cc 21       		.uleb128 0x21
 8728 01cd 01       		.sleb128 1
 8729 01ce 01       		.uleb128 0x1
 8730 01cf 13       		.uleb128 0x13
 8731 01d0 00       		.byte	0
 8732 01d1 00       		.byte	0
 8733 01d2 1D       		.uleb128 0x1d
 8734 01d3 13       		.uleb128 0x13
 8735 01d4 01       		.byte	0x1
 8736 01d5 03       		.uleb128 0x3
 8737 01d6 0E       		.uleb128 0xe
 8738 01d7 0B       		.uleb128 0xb
 8739 01d8 0B       		.uleb128 0xb
 8740 01d9 3A       		.uleb128 0x3a
 8741 01da 0B       		.uleb128 0xb
GAS LISTING /tmp/ccoiMs3n.s 			page 158


 8742 01db 3B       		.uleb128 0x3b
 8743 01dc 05       		.uleb128 0x5
 8744 01dd 39       		.uleb128 0x39
 8745 01de 0B       		.uleb128 0xb
 8746 01df 01       		.uleb128 0x1
 8747 01e0 13       		.uleb128 0x13
 8748 01e1 00       		.byte	0
 8749 01e2 00       		.byte	0
 8750 01e3 1E       		.uleb128 0x1e
 8751 01e4 34       		.uleb128 0x34
 8752 01e5 00       		.byte	0
 8753 01e6 03       		.uleb128 0x3
 8754 01e7 0E       		.uleb128 0xe
 8755 01e8 49       		.uleb128 0x49
 8756 01e9 13       		.uleb128 0x13
 8757 01ea 34       		.uleb128 0x34
 8758 01eb 19       		.uleb128 0x19
 8759 01ec 00       		.byte	0
 8760 01ed 00       		.byte	0
 8761 01ee 1F       		.uleb128 0x1f
 8762 01ef 34       		.uleb128 0x34
 8763 01f0 00       		.byte	0
 8764 01f1 03       		.uleb128 0x3
 8765 01f2 0E       		.uleb128 0xe
 8766 01f3 3A       		.uleb128 0x3a
 8767 01f4 21       		.uleb128 0x21
 8768 01f5 02       		.sleb128 2
 8769 01f6 3B       		.uleb128 0x3b
 8770 01f7 0B       		.uleb128 0xb
 8771 01f8 39       		.uleb128 0x39
 8772 01f9 0B       		.uleb128 0xb
 8773 01fa 49       		.uleb128 0x49
 8774 01fb 13       		.uleb128 0x13
 8775 01fc 00       		.byte	0
 8776 01fd 00       		.byte	0
 8777 01fe 20       		.uleb128 0x20
 8778 01ff 26       		.uleb128 0x26
 8779 0200 00       		.byte	0
 8780 0201 49       		.uleb128 0x49
 8781 0202 13       		.uleb128 0x13
 8782 0203 00       		.byte	0
 8783 0204 00       		.byte	0
 8784 0205 21       		.uleb128 0x21
 8785 0206 01       		.uleb128 0x1
 8786 0207 01       		.byte	0x1
 8787 0208 49       		.uleb128 0x49
 8788 0209 13       		.uleb128 0x13
 8789 020a 01       		.uleb128 0x1
 8790 020b 13       		.uleb128 0x13
 8791 020c 00       		.byte	0
 8792 020d 00       		.byte	0
 8793 020e 22       		.uleb128 0x22
 8794 020f 21       		.uleb128 0x21
 8795 0210 00       		.byte	0
 8796 0211 49       		.uleb128 0x49
 8797 0212 13       		.uleb128 0x13
 8798 0213 2F       		.uleb128 0x2f
GAS LISTING /tmp/ccoiMs3n.s 			page 159


 8799 0214 0B       		.uleb128 0xb
 8800 0215 00       		.byte	0
 8801 0216 00       		.byte	0
 8802 0217 23       		.uleb128 0x23
 8803 0218 0D       		.uleb128 0xd
 8804 0219 00       		.byte	0
 8805 021a 03       		.uleb128 0x3
 8806 021b 0E       		.uleb128 0xe
 8807 021c 3A       		.uleb128 0x3a
 8808 021d 0B       		.uleb128 0xb
 8809 021e 3B       		.uleb128 0x3b
 8810 021f 0B       		.uleb128 0xb
 8811 0220 39       		.uleb128 0x39
 8812 0221 0B       		.uleb128 0xb
 8813 0222 49       		.uleb128 0x49
 8814 0223 13       		.uleb128 0x13
 8815 0224 00       		.byte	0
 8816 0225 00       		.byte	0
 8817 0226 24       		.uleb128 0x24
 8818 0227 16       		.uleb128 0x16
 8819 0228 00       		.byte	0
 8820 0229 03       		.uleb128 0x3
 8821 022a 0E       		.uleb128 0xe
 8822 022b 3A       		.uleb128 0x3a
 8823 022c 0B       		.uleb128 0xb
 8824 022d 3B       		.uleb128 0x3b
 8825 022e 05       		.uleb128 0x5
 8826 022f 39       		.uleb128 0x39
 8827 0230 21       		.uleb128 0x21
 8828 0231 03       		.sleb128 3
 8829 0232 49       		.uleb128 0x49
 8830 0233 13       		.uleb128 0x13
 8831 0234 00       		.byte	0
 8832 0235 00       		.byte	0
 8833 0236 25       		.uleb128 0x25
 8834 0237 34       		.uleb128 0x34
 8835 0238 00       		.byte	0
 8836 0239 03       		.uleb128 0x3
 8837 023a 08       		.uleb128 0x8
 8838 023b 3A       		.uleb128 0x3a
 8839 023c 21       		.uleb128 0x21
 8840 023d 02       		.sleb128 2
 8841 023e 3B       		.uleb128 0x3b
 8842 023f 0B       		.uleb128 0xb
 8843 0240 39       		.uleb128 0x39
 8844 0241 0B       		.uleb128 0xb
 8845 0242 49       		.uleb128 0x49
 8846 0243 13       		.uleb128 0x13
 8847 0244 00       		.byte	0
 8848 0245 00       		.byte	0
 8849 0246 26       		.uleb128 0x26
 8850 0247 2E       		.uleb128 0x2e
 8851 0248 01       		.byte	0x1
 8852 0249 3F       		.uleb128 0x3f
 8853 024a 19       		.uleb128 0x19
 8854 024b 03       		.uleb128 0x3
 8855 024c 0E       		.uleb128 0xe
GAS LISTING /tmp/ccoiMs3n.s 			page 160


 8856 024d 3A       		.uleb128 0x3a
 8857 024e 0B       		.uleb128 0xb
 8858 024f 3B       		.uleb128 0x3b
 8859 0250 0B       		.uleb128 0xb
 8860 0251 39       		.uleb128 0x39
 8861 0252 0B       		.uleb128 0xb
 8862 0253 27       		.uleb128 0x27
 8863 0254 19       		.uleb128 0x19
 8864 0255 49       		.uleb128 0x49
 8865 0256 13       		.uleb128 0x13
 8866 0257 3C       		.uleb128 0x3c
 8867 0258 19       		.uleb128 0x19
 8868 0259 01       		.uleb128 0x1
 8869 025a 13       		.uleb128 0x13
 8870 025b 00       		.byte	0
 8871 025c 00       		.byte	0
 8872 025d 27       		.uleb128 0x27
 8873 025e 48       		.uleb128 0x48
 8874 025f 01       		.byte	0x1
 8875 0260 7D       		.uleb128 0x7d
 8876 0261 01       		.uleb128 0x1
 8877 0262 7F       		.uleb128 0x7f
 8878 0263 13       		.uleb128 0x13
 8879 0264 01       		.uleb128 0x1
 8880 0265 13       		.uleb128 0x13
 8881 0266 00       		.byte	0
 8882 0267 00       		.byte	0
 8883 0268 28       		.uleb128 0x28
 8884 0269 2E       		.uleb128 0x2e
 8885 026a 01       		.byte	0x1
 8886 026b 03       		.uleb128 0x3
 8887 026c 0E       		.uleb128 0xe
 8888 026d 3A       		.uleb128 0x3a
 8889 026e 0B       		.uleb128 0xb
 8890 026f 3B       		.uleb128 0x3b
 8891 0270 0B       		.uleb128 0xb
 8892 0271 39       		.uleb128 0x39
 8893 0272 0B       		.uleb128 0xb
 8894 0273 27       		.uleb128 0x27
 8895 0274 19       		.uleb128 0x19
 8896 0275 20       		.uleb128 0x20
 8897 0276 0B       		.uleb128 0xb
 8898 0277 01       		.uleb128 0x1
 8899 0278 13       		.uleb128 0x13
 8900 0279 00       		.byte	0
 8901 027a 00       		.byte	0
 8902 027b 29       		.uleb128 0x29
 8903 027c 35       		.uleb128 0x35
 8904 027d 00       		.byte	0
 8905 027e 49       		.uleb128 0x49
 8906 027f 13       		.uleb128 0x13
 8907 0280 00       		.byte	0
 8908 0281 00       		.byte	0
 8909 0282 2A       		.uleb128 0x2a
 8910 0283 0D       		.uleb128 0xd
 8911 0284 00       		.byte	0
 8912 0285 03       		.uleb128 0x3
GAS LISTING /tmp/ccoiMs3n.s 			page 161


 8913 0286 08       		.uleb128 0x8
 8914 0287 3A       		.uleb128 0x3a
 8915 0288 0B       		.uleb128 0xb
 8916 0289 3B       		.uleb128 0x3b
 8917 028a 05       		.uleb128 0x5
 8918 028b 39       		.uleb128 0x39
 8919 028c 0B       		.uleb128 0xb
 8920 028d 49       		.uleb128 0x49
 8921 028e 13       		.uleb128 0x13
 8922 028f 38       		.uleb128 0x38
 8923 0290 0B       		.uleb128 0xb
 8924 0291 00       		.byte	0
 8925 0292 00       		.byte	0
 8926 0293 2B       		.uleb128 0x2b
 8927 0294 1D       		.uleb128 0x1d
 8928 0295 01       		.byte	0x1
 8929 0296 31       		.uleb128 0x31
 8930 0297 13       		.uleb128 0x13
 8931 0298 52       		.uleb128 0x52
 8932 0299 01       		.uleb128 0x1
 8933 029a B842     		.uleb128 0x2138
 8934 029c 0B       		.uleb128 0xb
 8935 029d 55       		.uleb128 0x55
 8936 029e 17       		.uleb128 0x17
 8937 029f 58       		.uleb128 0x58
 8938 02a0 21       		.uleb128 0x21
 8939 02a1 02       		.sleb128 2
 8940 02a2 59       		.uleb128 0x59
 8941 02a3 0B       		.uleb128 0xb
 8942 02a4 57       		.uleb128 0x57
 8943 02a5 21       		.uleb128 0x21
 8944 02a6 17       		.sleb128 23
 8945 02a7 00       		.byte	0
 8946 02a8 00       		.byte	0
 8947 02a9 2C       		.uleb128 0x2c
 8948 02aa 1D       		.uleb128 0x1d
 8949 02ab 01       		.byte	0x1
 8950 02ac 31       		.uleb128 0x31
 8951 02ad 13       		.uleb128 0x13
 8952 02ae 11       		.uleb128 0x11
 8953 02af 01       		.uleb128 0x1
 8954 02b0 12       		.uleb128 0x12
 8955 02b1 06       		.uleb128 0x6
 8956 02b2 58       		.uleb128 0x58
 8957 02b3 21       		.uleb128 0x21
 8958 02b4 02       		.sleb128 2
 8959 02b5 59       		.uleb128 0x59
 8960 02b6 0B       		.uleb128 0xb
 8961 02b7 57       		.uleb128 0x57
 8962 02b8 21       		.uleb128 0x21
 8963 02b9 03       		.sleb128 3
 8964 02ba 01       		.uleb128 0x1
 8965 02bb 13       		.uleb128 0x13
 8966 02bc 00       		.byte	0
 8967 02bd 00       		.byte	0
 8968 02be 2D       		.uleb128 0x2d
 8969 02bf 1D       		.uleb128 0x1d
GAS LISTING /tmp/ccoiMs3n.s 			page 162


 8970 02c0 01       		.byte	0x1
 8971 02c1 31       		.uleb128 0x31
 8972 02c2 13       		.uleb128 0x13
 8973 02c3 52       		.uleb128 0x52
 8974 02c4 01       		.uleb128 0x1
 8975 02c5 B842     		.uleb128 0x2138
 8976 02c7 0B       		.uleb128 0xb
 8977 02c8 11       		.uleb128 0x11
 8978 02c9 01       		.uleb128 0x1
 8979 02ca 12       		.uleb128 0x12
 8980 02cb 06       		.uleb128 0x6
 8981 02cc 58       		.uleb128 0x58
 8982 02cd 21       		.uleb128 0x21
 8983 02ce 02       		.sleb128 2
 8984 02cf 59       		.uleb128 0x59
 8985 02d0 05       		.uleb128 0x5
 8986 02d1 57       		.uleb128 0x57
 8987 02d2 21       		.uleb128 0x21
 8988 02d3 03       		.sleb128 3
 8989 02d4 01       		.uleb128 0x1
 8990 02d5 13       		.uleb128 0x13
 8991 02d6 00       		.byte	0
 8992 02d7 00       		.byte	0
 8993 02d8 2E       		.uleb128 0x2e
 8994 02d9 15       		.uleb128 0x15
 8995 02da 01       		.byte	0x1
 8996 02db 27       		.uleb128 0x27
 8997 02dc 19       		.uleb128 0x19
 8998 02dd 49       		.uleb128 0x49
 8999 02de 13       		.uleb128 0x13
 9000 02df 01       		.uleb128 0x1
 9001 02e0 13       		.uleb128 0x13
 9002 02e1 00       		.byte	0
 9003 02e2 00       		.byte	0
 9004 02e3 2F       		.uleb128 0x2f
 9005 02e4 05       		.uleb128 0x5
 9006 02e5 00       		.byte	0
 9007 02e6 03       		.uleb128 0x3
 9008 02e7 0E       		.uleb128 0xe
 9009 02e8 3A       		.uleb128 0x3a
 9010 02e9 21       		.uleb128 0x21
 9011 02ea 01       		.sleb128 1
 9012 02eb 3B       		.uleb128 0x3b
 9013 02ec 0B       		.uleb128 0xb
 9014 02ed 39       		.uleb128 0x39
 9015 02ee 0B       		.uleb128 0xb
 9016 02ef 49       		.uleb128 0x49
 9017 02f0 13       		.uleb128 0x13
 9018 02f1 02       		.uleb128 0x2
 9019 02f2 18       		.uleb128 0x18
 9020 02f3 00       		.byte	0
 9021 02f4 00       		.byte	0
 9022 02f5 30       		.uleb128 0x30
 9023 02f6 11       		.uleb128 0x11
 9024 02f7 01       		.byte	0x1
 9025 02f8 25       		.uleb128 0x25
 9026 02f9 0E       		.uleb128 0xe
GAS LISTING /tmp/ccoiMs3n.s 			page 163


 9027 02fa 13       		.uleb128 0x13
 9028 02fb 0B       		.uleb128 0xb
 9029 02fc 03       		.uleb128 0x3
 9030 02fd 1F       		.uleb128 0x1f
 9031 02fe 1B       		.uleb128 0x1b
 9032 02ff 1F       		.uleb128 0x1f
 9033 0300 55       		.uleb128 0x55
 9034 0301 17       		.uleb128 0x17
 9035 0302 11       		.uleb128 0x11
 9036 0303 01       		.uleb128 0x1
 9037 0304 10       		.uleb128 0x10
 9038 0305 17       		.uleb128 0x17
 9039 0306 00       		.byte	0
 9040 0307 00       		.byte	0
 9041 0308 31       		.uleb128 0x31
 9042 0309 24       		.uleb128 0x24
 9043 030a 00       		.byte	0
 9044 030b 0B       		.uleb128 0xb
 9045 030c 0B       		.uleb128 0xb
 9046 030d 3E       		.uleb128 0x3e
 9047 030e 0B       		.uleb128 0xb
 9048 030f 03       		.uleb128 0x3
 9049 0310 08       		.uleb128 0x8
 9050 0311 00       		.byte	0
 9051 0312 00       		.byte	0
 9052 0313 32       		.uleb128 0x32
 9053 0314 0F       		.uleb128 0xf
 9054 0315 00       		.byte	0
 9055 0316 0B       		.uleb128 0xb
 9056 0317 0B       		.uleb128 0xb
 9057 0318 00       		.byte	0
 9058 0319 00       		.byte	0
 9059 031a 33       		.uleb128 0x33
 9060 031b 16       		.uleb128 0x16
 9061 031c 00       		.byte	0
 9062 031d 03       		.uleb128 0x3
 9063 031e 0E       		.uleb128 0xe
 9064 031f 3A       		.uleb128 0x3a
 9065 0320 0B       		.uleb128 0xb
 9066 0321 3B       		.uleb128 0x3b
 9067 0322 0B       		.uleb128 0xb
 9068 0323 39       		.uleb128 0x39
 9069 0324 0B       		.uleb128 0xb
 9070 0325 49       		.uleb128 0x49
 9071 0326 13       		.uleb128 0x13
 9072 0327 8801     		.uleb128 0x88
 9073 0329 0B       		.uleb128 0xb
 9074 032a 00       		.byte	0
 9075 032b 00       		.byte	0
 9076 032c 34       		.uleb128 0x34
 9077 032d 15       		.uleb128 0x15
 9078 032e 01       		.byte	0x1
 9079 032f 27       		.uleb128 0x27
 9080 0330 19       		.uleb128 0x19
 9081 0331 01       		.uleb128 0x1
 9082 0332 13       		.uleb128 0x13
 9083 0333 00       		.byte	0
GAS LISTING /tmp/ccoiMs3n.s 			page 164


 9084 0334 00       		.byte	0
 9085 0335 35       		.uleb128 0x35
 9086 0336 17       		.uleb128 0x17
 9087 0337 01       		.byte	0x1
 9088 0338 0B       		.uleb128 0xb
 9089 0339 0B       		.uleb128 0xb
 9090 033a 3A       		.uleb128 0x3a
 9091 033b 0B       		.uleb128 0xb
 9092 033c 3B       		.uleb128 0x3b
 9093 033d 0B       		.uleb128 0xb
 9094 033e 39       		.uleb128 0x39
 9095 033f 0B       		.uleb128 0xb
 9096 0340 01       		.uleb128 0x1
 9097 0341 13       		.uleb128 0x13
 9098 0342 00       		.byte	0
 9099 0343 00       		.byte	0
 9100 0344 36       		.uleb128 0x36
 9101 0345 17       		.uleb128 0x17
 9102 0346 01       		.byte	0x1
 9103 0347 0B       		.uleb128 0xb
 9104 0348 0B       		.uleb128 0xb
 9105 0349 3A       		.uleb128 0x3a
 9106 034a 0B       		.uleb128 0xb
 9107 034b 3B       		.uleb128 0x3b
 9108 034c 05       		.uleb128 0x5
 9109 034d 39       		.uleb128 0x39
 9110 034e 0B       		.uleb128 0xb
 9111 034f 01       		.uleb128 0x1
 9112 0350 13       		.uleb128 0x13
 9113 0351 00       		.byte	0
 9114 0352 00       		.byte	0
 9115 0353 37       		.uleb128 0x37
 9116 0354 17       		.uleb128 0x17
 9117 0355 01       		.byte	0x1
 9118 0356 03       		.uleb128 0x3
 9119 0357 0E       		.uleb128 0xe
 9120 0358 0B       		.uleb128 0xb
 9121 0359 0B       		.uleb128 0xb
 9122 035a 3A       		.uleb128 0x3a
 9123 035b 0B       		.uleb128 0xb
 9124 035c 3B       		.uleb128 0x3b
 9125 035d 0B       		.uleb128 0xb
 9126 035e 39       		.uleb128 0x39
 9127 035f 0B       		.uleb128 0xb
 9128 0360 01       		.uleb128 0x1
 9129 0361 13       		.uleb128 0x13
 9130 0362 00       		.byte	0
 9131 0363 00       		.byte	0
 9132 0364 38       		.uleb128 0x38
 9133 0365 34       		.uleb128 0x34
 9134 0366 00       		.byte	0
 9135 0367 03       		.uleb128 0x3
 9136 0368 0E       		.uleb128 0xe
 9137 0369 3A       		.uleb128 0x3a
 9138 036a 0B       		.uleb128 0xb
 9139 036b 3B       		.uleb128 0x3b
 9140 036c 05       		.uleb128 0x5
GAS LISTING /tmp/ccoiMs3n.s 			page 165


 9141 036d 39       		.uleb128 0x39
 9142 036e 0B       		.uleb128 0xb
 9143 036f 49       		.uleb128 0x49
 9144 0370 13       		.uleb128 0x13
 9145 0371 3F       		.uleb128 0x3f
 9146 0372 19       		.uleb128 0x19
 9147 0373 3C       		.uleb128 0x3c
 9148 0374 19       		.uleb128 0x19
 9149 0375 00       		.byte	0
 9150 0376 00       		.byte	0
 9151 0377 39       		.uleb128 0x39
 9152 0378 34       		.uleb128 0x34
 9153 0379 00       		.byte	0
 9154 037a 47       		.uleb128 0x47
 9155 037b 13       		.uleb128 0x13
 9156 037c 3A       		.uleb128 0x3a
 9157 037d 0B       		.uleb128 0xb
 9158 037e 3B       		.uleb128 0x3b
 9159 037f 0B       		.uleb128 0xb
 9160 0380 39       		.uleb128 0x39
 9161 0381 0B       		.uleb128 0xb
 9162 0382 02       		.uleb128 0x2
 9163 0383 18       		.uleb128 0x18
 9164 0384 00       		.byte	0
 9165 0385 00       		.byte	0
 9166 0386 3A       		.uleb128 0x3a
 9167 0387 05       		.uleb128 0x5
 9168 0388 00       		.byte	0
 9169 0389 03       		.uleb128 0x3
 9170 038a 0E       		.uleb128 0xe
 9171 038b 3A       		.uleb128 0x3a
 9172 038c 0B       		.uleb128 0xb
 9173 038d 3B       		.uleb128 0x3b
 9174 038e 05       		.uleb128 0x5
 9175 038f 39       		.uleb128 0x39
 9176 0390 0B       		.uleb128 0xb
 9177 0391 49       		.uleb128 0x49
 9178 0392 13       		.uleb128 0x13
 9179 0393 02       		.uleb128 0x2
 9180 0394 17       		.uleb128 0x17
 9181 0395 B742     		.uleb128 0x2137
 9182 0397 17       		.uleb128 0x17
 9183 0398 00       		.byte	0
 9184 0399 00       		.byte	0
 9185 039a 3B       		.uleb128 0x3b
 9186 039b 0B       		.uleb128 0xb
 9187 039c 01       		.byte	0x1
 9188 039d 11       		.uleb128 0x11
 9189 039e 01       		.uleb128 0x1
 9190 039f 12       		.uleb128 0x12
 9191 03a0 06       		.uleb128 0x6
 9192 03a1 01       		.uleb128 0x1
 9193 03a2 13       		.uleb128 0x13
 9194 03a3 00       		.byte	0
 9195 03a4 00       		.byte	0
 9196 03a5 3C       		.uleb128 0x3c
 9197 03a6 2E       		.uleb128 0x2e
GAS LISTING /tmp/ccoiMs3n.s 			page 166


 9198 03a7 01       		.byte	0x1
 9199 03a8 3F       		.uleb128 0x3f
 9200 03a9 19       		.uleb128 0x19
 9201 03aa 03       		.uleb128 0x3
 9202 03ab 0E       		.uleb128 0xe
 9203 03ac 3A       		.uleb128 0x3a
 9204 03ad 0B       		.uleb128 0xb
 9205 03ae 3B       		.uleb128 0x3b
 9206 03af 05       		.uleb128 0x5
 9207 03b0 39       		.uleb128 0x39
 9208 03b1 0B       		.uleb128 0xb
 9209 03b2 27       		.uleb128 0x27
 9210 03b3 19       		.uleb128 0x19
 9211 03b4 11       		.uleb128 0x11
 9212 03b5 01       		.uleb128 0x1
 9213 03b6 12       		.uleb128 0x12
 9214 03b7 06       		.uleb128 0x6
 9215 03b8 40       		.uleb128 0x40
 9216 03b9 18       		.uleb128 0x18
 9217 03ba 7A       		.uleb128 0x7a
 9218 03bb 19       		.uleb128 0x19
 9219 03bc 01       		.uleb128 0x1
 9220 03bd 13       		.uleb128 0x13
 9221 03be 00       		.byte	0
 9222 03bf 00       		.byte	0
 9223 03c0 3D       		.uleb128 0x3d
 9224 03c1 2E       		.uleb128 0x2e
 9225 03c2 01       		.byte	0x1
 9226 03c3 03       		.uleb128 0x3
 9227 03c4 0E       		.uleb128 0xe
 9228 03c5 3A       		.uleb128 0x3a
 9229 03c6 0B       		.uleb128 0xb
 9230 03c7 3B       		.uleb128 0x3b
 9231 03c8 05       		.uleb128 0x5
 9232 03c9 39       		.uleb128 0x39
 9233 03ca 0B       		.uleb128 0xb
 9234 03cb 27       		.uleb128 0x27
 9235 03cc 19       		.uleb128 0x19
 9236 03cd 49       		.uleb128 0x49
 9237 03ce 13       		.uleb128 0x13
 9238 03cf 20       		.uleb128 0x20
 9239 03d0 0B       		.uleb128 0xb
 9240 03d1 01       		.uleb128 0x1
 9241 03d2 13       		.uleb128 0x13
 9242 03d3 00       		.byte	0
 9243 03d4 00       		.byte	0
 9244 03d5 3E       		.uleb128 0x3e
 9245 03d6 05       		.uleb128 0x5
 9246 03d7 00       		.byte	0
 9247 03d8 03       		.uleb128 0x3
 9248 03d9 0E       		.uleb128 0xe
 9249 03da 3A       		.uleb128 0x3a
 9250 03db 0B       		.uleb128 0xb
 9251 03dc 3B       		.uleb128 0x3b
 9252 03dd 05       		.uleb128 0x5
 9253 03de 39       		.uleb128 0x39
 9254 03df 0B       		.uleb128 0xb
GAS LISTING /tmp/ccoiMs3n.s 			page 167


 9255 03e0 49       		.uleb128 0x49
 9256 03e1 13       		.uleb128 0x13
 9257 03e2 00       		.byte	0
 9258 03e3 00       		.byte	0
 9259 03e4 3F       		.uleb128 0x3f
 9260 03e5 05       		.uleb128 0x5
 9261 03e6 00       		.byte	0
 9262 03e7 03       		.uleb128 0x3
 9263 03e8 08       		.uleb128 0x8
 9264 03e9 3A       		.uleb128 0x3a
 9265 03ea 0B       		.uleb128 0xb
 9266 03eb 3B       		.uleb128 0x3b
 9267 03ec 05       		.uleb128 0x5
 9268 03ed 39       		.uleb128 0x39
 9269 03ee 0B       		.uleb128 0xb
 9270 03ef 49       		.uleb128 0x49
 9271 03f0 13       		.uleb128 0x13
 9272 03f1 00       		.byte	0
 9273 03f2 00       		.byte	0
 9274 03f3 40       		.uleb128 0x40
 9275 03f4 34       		.uleb128 0x34
 9276 03f5 00       		.byte	0
 9277 03f6 03       		.uleb128 0x3
 9278 03f7 08       		.uleb128 0x8
 9279 03f8 3A       		.uleb128 0x3a
 9280 03f9 0B       		.uleb128 0xb
 9281 03fa 3B       		.uleb128 0x3b
 9282 03fb 05       		.uleb128 0x5
 9283 03fc 39       		.uleb128 0x39
 9284 03fd 0B       		.uleb128 0xb
 9285 03fe 49       		.uleb128 0x49
 9286 03ff 13       		.uleb128 0x13
 9287 0400 00       		.byte	0
 9288 0401 00       		.byte	0
 9289 0402 41       		.uleb128 0x41
 9290 0403 2E       		.uleb128 0x2e
 9291 0404 01       		.byte	0x1
 9292 0405 03       		.uleb128 0x3
 9293 0406 0E       		.uleb128 0xe
 9294 0407 3A       		.uleb128 0x3a
 9295 0408 0B       		.uleb128 0xb
 9296 0409 3B       		.uleb128 0x3b
 9297 040a 0B       		.uleb128 0xb
 9298 040b 39       		.uleb128 0x39
 9299 040c 0B       		.uleb128 0xb
 9300 040d 27       		.uleb128 0x27
 9301 040e 19       		.uleb128 0x19
 9302 040f 49       		.uleb128 0x49
 9303 0410 13       		.uleb128 0x13
 9304 0411 11       		.uleb128 0x11
 9305 0412 01       		.uleb128 0x1
 9306 0413 12       		.uleb128 0x12
 9307 0414 06       		.uleb128 0x6
 9308 0415 40       		.uleb128 0x40
 9309 0416 18       		.uleb128 0x18
 9310 0417 7A       		.uleb128 0x7a
 9311 0418 19       		.uleb128 0x19
GAS LISTING /tmp/ccoiMs3n.s 			page 168


 9312 0419 01       		.uleb128 0x1
 9313 041a 13       		.uleb128 0x13
 9314 041b 00       		.byte	0
 9315 041c 00       		.byte	0
 9316 041d 42       		.uleb128 0x42
 9317 041e 2E       		.uleb128 0x2e
 9318 041f 01       		.byte	0x1
 9319 0420 3F       		.uleb128 0x3f
 9320 0421 19       		.uleb128 0x19
 9321 0422 03       		.uleb128 0x3
 9322 0423 0E       		.uleb128 0xe
 9323 0424 3A       		.uleb128 0x3a
 9324 0425 0B       		.uleb128 0xb
 9325 0426 3B       		.uleb128 0x3b
 9326 0427 0B       		.uleb128 0xb
 9327 0428 39       		.uleb128 0x39
 9328 0429 0B       		.uleb128 0xb
 9329 042a 27       		.uleb128 0x27
 9330 042b 19       		.uleb128 0x19
 9331 042c 49       		.uleb128 0x49
 9332 042d 13       		.uleb128 0x13
 9333 042e 20       		.uleb128 0x20
 9334 042f 0B       		.uleb128 0xb
 9335 0430 34       		.uleb128 0x34
 9336 0431 19       		.uleb128 0x19
 9337 0432 01       		.uleb128 0x1
 9338 0433 13       		.uleb128 0x13
 9339 0434 00       		.byte	0
 9340 0435 00       		.byte	0
 9341 0436 43       		.uleb128 0x43
 9342 0437 2E       		.uleb128 0x2e
 9343 0438 01       		.byte	0x1
 9344 0439 31       		.uleb128 0x31
 9345 043a 13       		.uleb128 0x13
 9346 043b 11       		.uleb128 0x11
 9347 043c 01       		.uleb128 0x1
 9348 043d 12       		.uleb128 0x12
 9349 043e 06       		.uleb128 0x6
 9350 043f 40       		.uleb128 0x40
 9351 0440 18       		.uleb128 0x18
 9352 0441 7A       		.uleb128 0x7a
 9353 0442 19       		.uleb128 0x19
 9354 0443 01       		.uleb128 0x1
 9355 0444 13       		.uleb128 0x13
 9356 0445 00       		.byte	0
 9357 0446 00       		.byte	0
 9358 0447 44       		.uleb128 0x44
 9359 0448 05       		.uleb128 0x5
 9360 0449 00       		.byte	0
 9361 044a 31       		.uleb128 0x31
 9362 044b 13       		.uleb128 0x13
 9363 044c 02       		.uleb128 0x2
 9364 044d 18       		.uleb128 0x18
 9365 044e 00       		.byte	0
 9366 044f 00       		.byte	0
 9367 0450 45       		.uleb128 0x45
 9368 0451 2E       		.uleb128 0x2e
GAS LISTING /tmp/ccoiMs3n.s 			page 169


 9369 0452 00       		.byte	0
 9370 0453 3F       		.uleb128 0x3f
 9371 0454 19       		.uleb128 0x19
 9372 0455 3C       		.uleb128 0x3c
 9373 0456 19       		.uleb128 0x19
 9374 0457 6E       		.uleb128 0x6e
 9375 0458 0E       		.uleb128 0xe
 9376 0459 03       		.uleb128 0x3
 9377 045a 0E       		.uleb128 0xe
 9378 045b 3A       		.uleb128 0x3a
 9379 045c 0B       		.uleb128 0xb
 9380 045d 3B       		.uleb128 0x3b
 9381 045e 0B       		.uleb128 0xb
 9382 045f 00       		.byte	0
 9383 0460 00       		.byte	0
 9384 0461 00       		.byte	0
 9385              		.section	.debug_loclists,"",@progbits
 9386 0000 A90F0000 		.long	.Ldebug_loc3-.Ldebug_loc2
 9387              	.Ldebug_loc2:
 9388 0004 0500     		.value	0x5
 9389 0006 04       		.byte	0x4
 9390 0007 00       		.byte	0
 9391 0008 00000000 		.long	0
 9392              	.Ldebug_loc0:
 9393              	.LVUS208:
 9394 000c 01       		.uleb128 .LVU904
 9395 000d 00       		.uleb128 .LVU908
 9396 000e 00       		.uleb128 .LVU908
 9397 000f 00       		.uleb128 .LVU909
 9398              	.LLST208:
 9399 0010 06       		.byte	0x6
 9400 0011 3E000000 		.long	.LVL260
 9401 0015 04       		.byte	0x4
 9402 0016 00       		.uleb128 .LVL260-.LVL260
 9403 0017 12       		.uleb128 .LVL262-.LVL260
 9404 0018 01       		.uleb128 0x1
 9405 0019 55       		.byte	0x55
 9406 001a 04       		.byte	0x4
 9407 001b 12       		.uleb128 .LVL262-.LVL260
 9408 001c 13       		.uleb128 .LVL263-.LVL260
 9409 001d 01       		.uleb128 0x1
 9410 001e 50       		.byte	0x50
 9411 001f 00       		.byte	0
 9412              	.LVUS210:
 9413 0020 01       		.uleb128 .LVU884
 9414 0021 01       		.uleb128 .LVU904
 9415 0022 00       		.uleb128 .LVU909
 9416 0023 00       		.uleb128 0
 9417              	.LLST210:
 9418 0024 06       		.byte	0x6
 9419 0025 22000000 		.long	.LVL256
 9420 0029 04       		.byte	0x4
 9421 002a 00       		.uleb128 .LVL256-.LVL256
 9422 002b 1C       		.uleb128 .LVL260-.LVL256
 9423 002c 06       		.uleb128 0x6
 9424 002d 03       		.byte	0x3
 9425 002e 44000000 		.long	ch_factory+68
GAS LISTING /tmp/ccoiMs3n.s 			page 170


 9426 0032 9F       		.byte	0x9f
 9427 0033 04       		.byte	0x4
 9428 0034 2F       		.uleb128 .LVL263-.LVL256
 9429 0035 55       		.uleb128 .LFE244-.LVL256
 9430 0036 06       		.uleb128 0x6
 9431 0037 03       		.byte	0x3
 9432 0038 44000000 		.long	ch_factory+68
 9433 003c 9F       		.byte	0x9f
 9434 003d 00       		.byte	0
 9435              	.LVUS211:
 9436 003e 01       		.uleb128 .LVU884
 9437 003f 01       		.uleb128 .LVU904
 9438 0040 00       		.uleb128 .LVU909
 9439 0041 00       		.uleb128 0
 9440              	.LLST211:
 9441 0042 06       		.byte	0x6
 9442 0043 22000000 		.long	.LVL256
 9443 0047 04       		.byte	0x4
 9444 0048 00       		.uleb128 .LVL256-.LVL256
 9445 0049 1C       		.uleb128 .LVL260-.LVL256
 9446 004a 01       		.uleb128 0x1
 9447 004b 56       		.byte	0x56
 9448 004c 04       		.byte	0x4
 9449 004d 2F       		.uleb128 .LVL263-.LVL256
 9450 004e 55       		.uleb128 .LFE244-.LVL256
 9451 004f 01       		.uleb128 0x1
 9452 0050 56       		.byte	0x56
 9453 0051 00       		.byte	0
 9454              	.LVUS212:
 9455 0052 00       		.uleb128 .LVU909
 9456 0053 00       		.uleb128 .LVU928
 9457              	.LLST212:
 9458 0054 08       		.byte	0x8
 9459 0055 51000000 		.long	.LVL263
 9460 0059 20       		.uleb128 .LVL267-1-.LVL263
 9461 005a 01       		.uleb128 0x1
 9462 005b 51       		.byte	0x51
 9463 005c 00       		.byte	0
 9464              	.LVUS213:
 9465 005d 00       		.uleb128 .LVU903
 9466 005e 01       		.uleb128 .LVU904
 9467 005f 00       		.uleb128 .LVU916
 9468 0060 00       		.uleb128 0
 9469              	.LLST213:
 9470 0061 06       		.byte	0x6
 9471 0062 3E000000 		.long	.LVL260
 9472 0066 04       		.byte	0x4
 9473 0067 00       		.uleb128 .LVL260-.LVL260
 9474 0068 00       		.uleb128 .LVL260-.LVL260
 9475 0069 01       		.uleb128 0x1
 9476 006a 55       		.byte	0x55
 9477 006b 04       		.byte	0x4
 9478 006c 23       		.uleb128 .LVL264-.LVL260
 9479 006d 39       		.uleb128 .LFE244-.LVL260
 9480 006e 01       		.uleb128 0x1
 9481 006f 55       		.byte	0x55
 9482 0070 00       		.byte	0
GAS LISTING /tmp/ccoiMs3n.s 			page 171


 9483              	.LVUS214:
 9484 0071 08       		.uleb128 .LVU891
 9485 0072 00       		.uleb128 .LVU903
 9486              	.LLST214:
 9487 0073 08       		.byte	0x8
 9488 0074 22000000 		.long	.LVL256
 9489 0078 1C       		.uleb128 .LVL260-.LVL256
 9490 0079 06       		.uleb128 0x6
 9491 007a 03       		.byte	0x3
 9492 007b 44000000 		.long	ch_factory+68
 9493 007f 9F       		.byte	0x9f
 9494 0080 00       		.byte	0
 9495              	.LVUS215:
 9496 0081 08       		.uleb128 .LVU891
 9497 0082 00       		.uleb128 .LVU903
 9498              	.LLST215:
 9499 0083 08       		.byte	0x8
 9500 0084 22000000 		.long	.LVL256
 9501 0088 1C       		.uleb128 .LVL260-.LVL256
 9502 0089 01       		.uleb128 0x1
 9503 008a 56       		.byte	0x56
 9504 008b 00       		.byte	0
 9505              	.LVUS216:
 9506 008c 0A       		.uleb128 .LVU893
 9507 008d 00       		.uleb128 .LVU897
 9508 008e 00       		.uleb128 .LVU897
 9509 008f 00       		.uleb128 .LVU899
 9510 0090 00       		.uleb128 .LVU899
 9511 0091 00       		.uleb128 .LVU901
 9512 0092 00       		.uleb128 .LVU901
 9513 0093 00       		.uleb128 .LVU903
 9514              	.LLST216:
 9515 0094 06       		.byte	0x6
 9516 0095 22000000 		.long	.LVL256
 9517 0099 04       		.byte	0x4
 9518 009a 00       		.uleb128 .LVL256-.LVL256
 9519 009b 0E       		.uleb128 .LVL257-.LVL256
 9520 009c 06       		.uleb128 0x6
 9521 009d 03       		.byte	0x3
 9522 009e 44000000 		.long	ch_factory+68
 9523 00a2 9F       		.byte	0x9f
 9524 00a3 04       		.byte	0x4
 9525 00a4 0E       		.uleb128 .LVL257-.LVL256
 9526 00a5 12       		.uleb128 .LVL258-.LVL256
 9527 00a6 01       		.uleb128 0x1
 9528 00a7 51       		.byte	0x51
 9529 00a8 04       		.byte	0x4
 9530 00a9 12       		.uleb128 .LVL258-.LVL256
 9531 00aa 16       		.uleb128 .LVL259-.LVL256
 9532 00ab 01       		.uleb128 0x1
 9533 00ac 50       		.byte	0x50
 9534 00ad 04       		.byte	0x4
 9535 00ae 16       		.uleb128 .LVL259-.LVL256
 9536 00af 1C       		.uleb128 .LVL260-.LVL256
 9537 00b0 01       		.uleb128 0x1
 9538 00b1 51       		.byte	0x51
 9539 00b2 00       		.byte	0
GAS LISTING /tmp/ccoiMs3n.s 			page 172


 9540              	.LVUS218:
 9541 00b3 01       		.uleb128 .LVU919
 9542 00b4 01       		.uleb128 .LVU926
 9543              	.LLST218:
 9544 00b5 08       		.byte	0x8
 9545 00b6 65000000 		.long	.LVL265
 9546 00ba 07       		.uleb128 .LVL266-.LVL265
 9547 00bb 01       		.uleb128 0x1
 9548 00bc 51       		.byte	0x51
 9549 00bd 00       		.byte	0
 9550              	.LVUS219:
 9551 00be 03       		.uleb128 .LVU921
 9552 00bf 01       		.uleb128 .LVU926
 9553              	.LLST219:
 9554 00c0 08       		.byte	0x8
 9555 00c1 65000000 		.long	.LVL265
 9556 00c5 07       		.uleb128 .LVL266-.LVL265
 9557 00c6 01       		.uleb128 0x1
 9558 00c7 56       		.byte	0x56
 9559 00c8 00       		.byte	0
 9560              	.LVUS199:
 9561 00c9 01       		.uleb128 .LVU870
 9562 00ca 00       		.uleb128 .LVU874
 9563 00cb 00       		.uleb128 .LVU874
 9564 00cc 00       		.uleb128 .LVU875
 9565              	.LLST199:
 9566 00cd 06       		.byte	0x6
 9567 00ce 65000000 		.long	.LVL250
 9568 00d2 04       		.byte	0x4
 9569 00d3 00       		.uleb128 .LVL250-.LVL250
 9570 00d4 15       		.uleb128 .LVL252-.LVL250
 9571 00d5 01       		.uleb128 0x1
 9572 00d6 55       		.byte	0x55
 9573 00d7 04       		.byte	0x4
 9574 00d8 15       		.uleb128 .LVL252-.LVL250
 9575 00d9 16       		.uleb128 .LVL253-.LVL250
 9576 00da 01       		.uleb128 0x1
 9577 00db 50       		.byte	0x50
 9578 00dc 00       		.byte	0
 9579              	.LVUS201:
 9580 00dd 01       		.uleb128 .LVU846
 9581 00de 01       		.uleb128 .LVU870
 9582 00df 00       		.uleb128 .LVU875
 9583 00e0 00       		.uleb128 0
 9584              	.LLST201:
 9585 00e1 06       		.byte	0x6
 9586 00e2 28000000 		.long	.LVL245
 9587 00e6 04       		.byte	0x4
 9588 00e7 00       		.uleb128 .LVL245-.LVL245
 9589 00e8 3D       		.uleb128 .LVL250-.LVL245
 9590 00e9 06       		.uleb128 0x6
 9591 00ea 03       		.byte	0x3
 9592 00eb 44000000 		.long	ch_factory+68
 9593 00ef 9F       		.byte	0x9f
 9594 00f0 04       		.byte	0x4
 9595 00f1 53       		.uleb128 .LVL253-.LVL245
 9596 00f2 5C       		.uleb128 .LFE243-.LVL245
GAS LISTING /tmp/ccoiMs3n.s 			page 173


 9597 00f3 06       		.uleb128 0x6
 9598 00f4 03       		.byte	0x3
 9599 00f5 44000000 		.long	ch_factory+68
 9600 00f9 9F       		.byte	0x9f
 9601 00fa 00       		.byte	0
 9602              	.LVUS202:
 9603 00fb 01       		.uleb128 .LVU846
 9604 00fc 01       		.uleb128 .LVU870
 9605 00fd 00       		.uleb128 .LVU875
 9606 00fe 00       		.uleb128 0
 9607              	.LLST202:
 9608 00ff 06       		.byte	0x6
 9609 0100 28000000 		.long	.LVL245
 9610 0104 04       		.byte	0x4
 9611 0105 00       		.uleb128 .LVL245-.LVL245
 9612 0106 3D       		.uleb128 .LVL250-.LVL245
 9613 0107 01       		.uleb128 0x1
 9614 0108 56       		.byte	0x56
 9615 0109 04       		.byte	0x4
 9616 010a 53       		.uleb128 .LVL253-.LVL245
 9617 010b 5C       		.uleb128 .LFE243-.LVL245
 9618 010c 01       		.uleb128 0x1
 9619 010d 56       		.byte	0x56
 9620 010e 00       		.byte	0
 9621              	.LVUS203:
 9622 010f 01       		.uleb128 .LVU864
 9623 0110 00       		.uleb128 .LVU869
 9624              	.LLST203:
 9625 0111 08       		.byte	0x8
 9626 0112 5D000000 		.long	.LVL249
 9627 0116 08       		.uleb128 .LVL250-.LVL249
 9628 0117 01       		.uleb128 0x1
 9629 0118 55       		.byte	0x55
 9630 0119 00       		.byte	0
 9631              	.LVUS205:
 9632 011a 07       		.uleb128 .LVU852
 9633 011b 01       		.uleb128 .LVU864
 9634 011c 00       		.uleb128 .LVU875
 9635 011d 00       		.uleb128 0
 9636              	.LLST205:
 9637 011e 06       		.byte	0x6
 9638 011f 28000000 		.long	.LVL245
 9639 0123 04       		.byte	0x4
 9640 0124 00       		.uleb128 .LVL245-.LVL245
 9641 0125 35       		.uleb128 .LVL249-.LVL245
 9642 0126 06       		.uleb128 0x6
 9643 0127 03       		.byte	0x3
 9644 0128 44000000 		.long	ch_factory+68
 9645 012c 9F       		.byte	0x9f
 9646 012d 04       		.byte	0x4
 9647 012e 53       		.uleb128 .LVL253-.LVL245
 9648 012f 5C       		.uleb128 .LFE243-.LVL245
 9649 0130 06       		.uleb128 0x6
 9650 0131 03       		.byte	0x3
 9651 0132 44000000 		.long	ch_factory+68
 9652 0136 9F       		.byte	0x9f
 9653 0137 00       		.byte	0
GAS LISTING /tmp/ccoiMs3n.s 			page 174


 9654              	.LVUS206:
 9655 0138 07       		.uleb128 .LVU852
 9656 0139 01       		.uleb128 .LVU864
 9657 013a 00       		.uleb128 .LVU875
 9658 013b 00       		.uleb128 0
 9659              	.LLST206:
 9660 013c 06       		.byte	0x6
 9661 013d 28000000 		.long	.LVL245
 9662 0141 04       		.byte	0x4
 9663 0142 00       		.uleb128 .LVL245-.LVL245
 9664 0143 35       		.uleb128 .LVL249-.LVL245
 9665 0144 01       		.uleb128 0x1
 9666 0145 56       		.byte	0x56
 9667 0146 04       		.byte	0x4
 9668 0147 53       		.uleb128 .LVL253-.LVL245
 9669 0148 5C       		.uleb128 .LFE243-.LVL245
 9670 0149 01       		.uleb128 0x1
 9671 014a 56       		.byte	0x56
 9672 014b 00       		.byte	0
 9673              	.LVUS207:
 9674 014c 00       		.uleb128 .LVU855
 9675 014d 01       		.uleb128 .LVU864
 9676 014e 00       		.uleb128 .LVU875
 9677 014f 00       		.uleb128 .LVU876
 9678              	.LLST207:
 9679 0150 06       		.byte	0x6
 9680 0151 2E000000 		.long	.LVL246
 9681 0155 04       		.byte	0x4
 9682 0156 00       		.uleb128 .LVL246-.LVL246
 9683 0157 2F       		.uleb128 .LVL249-.LVL246
 9684 0158 01       		.uleb128 0x1
 9685 0159 55       		.byte	0x55
 9686 015a 04       		.byte	0x4
 9687 015b 4D       		.uleb128 .LVL253-.LVL246
 9688 015c 54       		.uleb128 .LVL254-.LVL246
 9689 015d 01       		.uleb128 0x1
 9690 015e 55       		.byte	0x55
 9691 015f 00       		.byte	0
 9692              	.LVUS198:
 9693 0160 00       		.uleb128 .LVU830
 9694 0161 00       		.uleb128 .LVU834
 9695 0162 00       		.uleb128 .LVU834
 9696 0163 00       		.uleb128 .LVU838
 9697 0164 00       		.uleb128 .LVU838
 9698 0165 00       		.uleb128 0
 9699              	.LLST198:
 9700 0166 06       		.byte	0x6
 9701 0167 40000000 		.long	.LVL239
 9702 016b 04       		.byte	0x4
 9703 016c 00       		.uleb128 .LVL239-.LVL239
 9704 016d 0A       		.uleb128 .LVL240-.LVL239
 9705 016e 01       		.uleb128 0x1
 9706 016f 50       		.byte	0x50
 9707 0170 04       		.byte	0x4
 9708 0171 0A       		.uleb128 .LVL240-.LVL239
 9709 0172 28       		.uleb128 .LVL243-.LVL239
 9710 0173 01       		.uleb128 0x1
GAS LISTING /tmp/ccoiMs3n.s 			page 175


 9711 0174 56       		.byte	0x56
 9712 0175 04       		.byte	0x4
 9713 0176 28       		.uleb128 .LVL243-.LVL239
 9714 0177 2B       		.uleb128 .LFE242-.LVL239
 9715 0178 01       		.uleb128 0x1
 9716 0179 50       		.byte	0x50
 9717 017a 00       		.byte	0
 9718              	.LVUS186:
 9719 017b 01       		.uleb128 .LVU795
 9720 017c 00       		.uleb128 .LVU799
 9721 017d 00       		.uleb128 .LVU799
 9722 017e 00       		.uleb128 .LVU800
 9723              	.LLST186:
 9724 017f 06       		.byte	0x6
 9725 0180 3E000000 		.long	.LVL228
 9726 0184 04       		.byte	0x4
 9727 0185 00       		.uleb128 .LVL228-.LVL228
 9728 0186 12       		.uleb128 .LVL230-.LVL228
 9729 0187 01       		.uleb128 0x1
 9730 0188 55       		.byte	0x55
 9731 0189 04       		.byte	0x4
 9732 018a 12       		.uleb128 .LVL230-.LVL228
 9733 018b 13       		.uleb128 .LVL231-.LVL228
 9734 018c 01       		.uleb128 0x1
 9735 018d 50       		.byte	0x50
 9736 018e 00       		.byte	0
 9737              	.LVUS188:
 9738 018f 01       		.uleb128 .LVU775
 9739 0190 01       		.uleb128 .LVU795
 9740 0191 00       		.uleb128 .LVU800
 9741 0192 00       		.uleb128 0
 9742              	.LLST188:
 9743 0193 06       		.byte	0x6
 9744 0194 22000000 		.long	.LVL224
 9745 0198 04       		.byte	0x4
 9746 0199 00       		.uleb128 .LVL224-.LVL224
 9747 019a 1C       		.uleb128 .LVL228-.LVL224
 9748 019b 06       		.uleb128 0x6
 9749 019c 03       		.byte	0x3
 9750 019d 40000000 		.long	ch_factory+64
 9751 01a1 9F       		.byte	0x9f
 9752 01a2 04       		.byte	0x4
 9753 01a3 2F       		.uleb128 .LVL231-.LVL224
 9754 01a4 55       		.uleb128 .LFE241-.LVL224
 9755 01a5 06       		.uleb128 0x6
 9756 01a6 03       		.byte	0x3
 9757 01a7 40000000 		.long	ch_factory+64
 9758 01ab 9F       		.byte	0x9f
 9759 01ac 00       		.byte	0
 9760              	.LVUS189:
 9761 01ad 01       		.uleb128 .LVU775
 9762 01ae 01       		.uleb128 .LVU795
 9763 01af 00       		.uleb128 .LVU800
 9764 01b0 00       		.uleb128 0
 9765              	.LLST189:
 9766 01b1 06       		.byte	0x6
 9767 01b2 22000000 		.long	.LVL224
GAS LISTING /tmp/ccoiMs3n.s 			page 176


 9768 01b6 04       		.byte	0x4
 9769 01b7 00       		.uleb128 .LVL224-.LVL224
 9770 01b8 1C       		.uleb128 .LVL228-.LVL224
 9771 01b9 01       		.uleb128 0x1
 9772 01ba 56       		.byte	0x56
 9773 01bb 04       		.byte	0x4
 9774 01bc 2F       		.uleb128 .LVL231-.LVL224
 9775 01bd 55       		.uleb128 .LFE241-.LVL224
 9776 01be 01       		.uleb128 0x1
 9777 01bf 56       		.byte	0x56
 9778 01c0 00       		.byte	0
 9779              	.LVUS190:
 9780 01c1 00       		.uleb128 .LVU800
 9781 01c2 00       		.uleb128 .LVU819
 9782              	.LLST190:
 9783 01c3 08       		.byte	0x8
 9784 01c4 51000000 		.long	.LVL231
 9785 01c8 20       		.uleb128 .LVL235-1-.LVL231
 9786 01c9 01       		.uleb128 0x1
 9787 01ca 51       		.byte	0x51
 9788 01cb 00       		.byte	0
 9789              	.LVUS191:
 9790 01cc 00       		.uleb128 .LVU794
 9791 01cd 01       		.uleb128 .LVU795
 9792 01ce 00       		.uleb128 .LVU807
 9793 01cf 00       		.uleb128 0
 9794              	.LLST191:
 9795 01d0 06       		.byte	0x6
 9796 01d1 3E000000 		.long	.LVL228
 9797 01d5 04       		.byte	0x4
 9798 01d6 00       		.uleb128 .LVL228-.LVL228
 9799 01d7 00       		.uleb128 .LVL228-.LVL228
 9800 01d8 01       		.uleb128 0x1
 9801 01d9 55       		.byte	0x55
 9802 01da 04       		.byte	0x4
 9803 01db 23       		.uleb128 .LVL232-.LVL228
 9804 01dc 39       		.uleb128 .LFE241-.LVL228
 9805 01dd 01       		.uleb128 0x1
 9806 01de 55       		.byte	0x55
 9807 01df 00       		.byte	0
 9808              	.LVUS192:
 9809 01e0 08       		.uleb128 .LVU782
 9810 01e1 00       		.uleb128 .LVU794
 9811              	.LLST192:
 9812 01e2 08       		.byte	0x8
 9813 01e3 22000000 		.long	.LVL224
 9814 01e7 1C       		.uleb128 .LVL228-.LVL224
 9815 01e8 06       		.uleb128 0x6
 9816 01e9 03       		.byte	0x3
 9817 01ea 40000000 		.long	ch_factory+64
 9818 01ee 9F       		.byte	0x9f
 9819 01ef 00       		.byte	0
 9820              	.LVUS193:
 9821 01f0 08       		.uleb128 .LVU782
 9822 01f1 00       		.uleb128 .LVU794
 9823              	.LLST193:
 9824 01f2 08       		.byte	0x8
GAS LISTING /tmp/ccoiMs3n.s 			page 177


 9825 01f3 22000000 		.long	.LVL224
 9826 01f7 1C       		.uleb128 .LVL228-.LVL224
 9827 01f8 01       		.uleb128 0x1
 9828 01f9 56       		.byte	0x56
 9829 01fa 00       		.byte	0
 9830              	.LVUS194:
 9831 01fb 0A       		.uleb128 .LVU784
 9832 01fc 00       		.uleb128 .LVU788
 9833 01fd 00       		.uleb128 .LVU788
 9834 01fe 00       		.uleb128 .LVU790
 9835 01ff 00       		.uleb128 .LVU790
 9836 0200 00       		.uleb128 .LVU792
 9837 0201 00       		.uleb128 .LVU792
 9838 0202 00       		.uleb128 .LVU794
 9839              	.LLST194:
 9840 0203 06       		.byte	0x6
 9841 0204 22000000 		.long	.LVL224
 9842 0208 04       		.byte	0x4
 9843 0209 00       		.uleb128 .LVL224-.LVL224
 9844 020a 0E       		.uleb128 .LVL225-.LVL224
 9845 020b 06       		.uleb128 0x6
 9846 020c 03       		.byte	0x3
 9847 020d 40000000 		.long	ch_factory+64
 9848 0211 9F       		.byte	0x9f
 9849 0212 04       		.byte	0x4
 9850 0213 0E       		.uleb128 .LVL225-.LVL224
 9851 0214 12       		.uleb128 .LVL226-.LVL224
 9852 0215 01       		.uleb128 0x1
 9853 0216 51       		.byte	0x51
 9854 0217 04       		.byte	0x4
 9855 0218 12       		.uleb128 .LVL226-.LVL224
 9856 0219 16       		.uleb128 .LVL227-.LVL224
 9857 021a 01       		.uleb128 0x1
 9858 021b 50       		.byte	0x50
 9859 021c 04       		.byte	0x4
 9860 021d 16       		.uleb128 .LVL227-.LVL224
 9861 021e 1C       		.uleb128 .LVL228-.LVL224
 9862 021f 01       		.uleb128 0x1
 9863 0220 51       		.byte	0x51
 9864 0221 00       		.byte	0
 9865              	.LVUS196:
 9866 0222 01       		.uleb128 .LVU810
 9867 0223 01       		.uleb128 .LVU817
 9868              	.LLST196:
 9869 0224 08       		.byte	0x8
 9870 0225 65000000 		.long	.LVL233
 9871 0229 07       		.uleb128 .LVL234-.LVL233
 9872 022a 01       		.uleb128 0x1
 9873 022b 51       		.byte	0x51
 9874 022c 00       		.byte	0
 9875              	.LVUS197:
 9876 022d 03       		.uleb128 .LVU812
 9877 022e 01       		.uleb128 .LVU817
 9878              	.LLST197:
 9879 022f 08       		.byte	0x8
 9880 0230 65000000 		.long	.LVL233
 9881 0234 07       		.uleb128 .LVL234-.LVL233
GAS LISTING /tmp/ccoiMs3n.s 			page 178


 9882 0235 01       		.uleb128 0x1
 9883 0236 56       		.byte	0x56
 9884 0237 00       		.byte	0
 9885              	.LVUS177:
 9886 0238 01       		.uleb128 .LVU761
 9887 0239 00       		.uleb128 .LVU765
 9888 023a 00       		.uleb128 .LVU765
 9889 023b 00       		.uleb128 .LVU766
 9890              	.LLST177:
 9891 023c 06       		.byte	0x6
 9892 023d 65000000 		.long	.LVL218
 9893 0241 04       		.byte	0x4
 9894 0242 00       		.uleb128 .LVL218-.LVL218
 9895 0243 15       		.uleb128 .LVL220-.LVL218
 9896 0244 01       		.uleb128 0x1
 9897 0245 55       		.byte	0x55
 9898 0246 04       		.byte	0x4
 9899 0247 15       		.uleb128 .LVL220-.LVL218
 9900 0248 16       		.uleb128 .LVL221-.LVL218
 9901 0249 01       		.uleb128 0x1
 9902 024a 50       		.byte	0x50
 9903 024b 00       		.byte	0
 9904              	.LVUS179:
 9905 024c 01       		.uleb128 .LVU737
 9906 024d 01       		.uleb128 .LVU761
 9907 024e 00       		.uleb128 .LVU766
 9908 024f 00       		.uleb128 0
 9909              	.LLST179:
 9910 0250 06       		.byte	0x6
 9911 0251 28000000 		.long	.LVL213
 9912 0255 04       		.byte	0x4
 9913 0256 00       		.uleb128 .LVL213-.LVL213
 9914 0257 3D       		.uleb128 .LVL218-.LVL213
 9915 0258 06       		.uleb128 0x6
 9916 0259 03       		.byte	0x3
 9917 025a 40000000 		.long	ch_factory+64
 9918 025e 9F       		.byte	0x9f
 9919 025f 04       		.byte	0x4
 9920 0260 53       		.uleb128 .LVL221-.LVL213
 9921 0261 5C       		.uleb128 .LFE240-.LVL213
 9922 0262 06       		.uleb128 0x6
 9923 0263 03       		.byte	0x3
 9924 0264 40000000 		.long	ch_factory+64
 9925 0268 9F       		.byte	0x9f
 9926 0269 00       		.byte	0
 9927              	.LVUS180:
 9928 026a 01       		.uleb128 .LVU737
 9929 026b 01       		.uleb128 .LVU761
 9930 026c 00       		.uleb128 .LVU766
 9931 026d 00       		.uleb128 0
 9932              	.LLST180:
 9933 026e 06       		.byte	0x6
 9934 026f 28000000 		.long	.LVL213
 9935 0273 04       		.byte	0x4
 9936 0274 00       		.uleb128 .LVL213-.LVL213
 9937 0275 3D       		.uleb128 .LVL218-.LVL213
 9938 0276 01       		.uleb128 0x1
GAS LISTING /tmp/ccoiMs3n.s 			page 179


 9939 0277 56       		.byte	0x56
 9940 0278 04       		.byte	0x4
 9941 0279 53       		.uleb128 .LVL221-.LVL213
 9942 027a 5C       		.uleb128 .LFE240-.LVL213
 9943 027b 01       		.uleb128 0x1
 9944 027c 56       		.byte	0x56
 9945 027d 00       		.byte	0
 9946              	.LVUS181:
 9947 027e 01       		.uleb128 .LVU755
 9948 027f 00       		.uleb128 .LVU760
 9949              	.LLST181:
 9950 0280 08       		.byte	0x8
 9951 0281 5D000000 		.long	.LVL217
 9952 0285 08       		.uleb128 .LVL218-.LVL217
 9953 0286 01       		.uleb128 0x1
 9954 0287 55       		.byte	0x55
 9955 0288 00       		.byte	0
 9956              	.LVUS183:
 9957 0289 07       		.uleb128 .LVU743
 9958 028a 01       		.uleb128 .LVU755
 9959 028b 00       		.uleb128 .LVU766
 9960 028c 00       		.uleb128 0
 9961              	.LLST183:
 9962 028d 06       		.byte	0x6
 9963 028e 28000000 		.long	.LVL213
 9964 0292 04       		.byte	0x4
 9965 0293 00       		.uleb128 .LVL213-.LVL213
 9966 0294 35       		.uleb128 .LVL217-.LVL213
 9967 0295 06       		.uleb128 0x6
 9968 0296 03       		.byte	0x3
 9969 0297 40000000 		.long	ch_factory+64
 9970 029b 9F       		.byte	0x9f
 9971 029c 04       		.byte	0x4
 9972 029d 53       		.uleb128 .LVL221-.LVL213
 9973 029e 5C       		.uleb128 .LFE240-.LVL213
 9974 029f 06       		.uleb128 0x6
 9975 02a0 03       		.byte	0x3
 9976 02a1 40000000 		.long	ch_factory+64
 9977 02a5 9F       		.byte	0x9f
 9978 02a6 00       		.byte	0
 9979              	.LVUS184:
 9980 02a7 07       		.uleb128 .LVU743
 9981 02a8 01       		.uleb128 .LVU755
 9982 02a9 00       		.uleb128 .LVU766
 9983 02aa 00       		.uleb128 0
 9984              	.LLST184:
 9985 02ab 06       		.byte	0x6
 9986 02ac 28000000 		.long	.LVL213
 9987 02b0 04       		.byte	0x4
 9988 02b1 00       		.uleb128 .LVL213-.LVL213
 9989 02b2 35       		.uleb128 .LVL217-.LVL213
 9990 02b3 01       		.uleb128 0x1
 9991 02b4 56       		.byte	0x56
 9992 02b5 04       		.byte	0x4
 9993 02b6 53       		.uleb128 .LVL221-.LVL213
 9994 02b7 5C       		.uleb128 .LFE240-.LVL213
 9995 02b8 01       		.uleb128 0x1
GAS LISTING /tmp/ccoiMs3n.s 			page 180


 9996 02b9 56       		.byte	0x56
 9997 02ba 00       		.byte	0
 9998              	.LVUS185:
 9999 02bb 00       		.uleb128 .LVU746
 10000 02bc 01       		.uleb128 .LVU755
 10001 02bd 00       		.uleb128 .LVU766
 10002 02be 00       		.uleb128 .LVU767
 10003              	.LLST185:
 10004 02bf 06       		.byte	0x6
 10005 02c0 2E000000 		.long	.LVL214
 10006 02c4 04       		.byte	0x4
 10007 02c5 00       		.uleb128 .LVL214-.LVL214
 10008 02c6 2F       		.uleb128 .LVL217-.LVL214
 10009 02c7 01       		.uleb128 0x1
 10010 02c8 55       		.byte	0x55
 10011 02c9 04       		.byte	0x4
 10012 02ca 4D       		.uleb128 .LVL221-.LVL214
 10013 02cb 54       		.uleb128 .LVL222-.LVL214
 10014 02cc 01       		.uleb128 0x1
 10015 02cd 55       		.byte	0x55
 10016 02ce 00       		.byte	0
 10017              	.LVUS164:
 10018 02cf 00       		.uleb128 0
 10019 02d0 00       		.uleb128 .LVU696
 10020 02d1 00       		.uleb128 .LVU696
 10021 02d2 00       		.uleb128 .LVU702
 10022 02d3 00       		.uleb128 .LVU702
 10023 02d4 00       		.uleb128 .LVU723
 10024 02d5 00       		.uleb128 .LVU723
 10025 02d6 00       		.uleb128 .LVU729
 10026 02d7 00       		.uleb128 .LVU729
 10027 02d8 00       		.uleb128 0
 10028              	.LLST164:
 10029 02d9 06       		.byte	0x6
 10030 02da 00000000 		.long	.LVL195
 10031 02de 04       		.byte	0x4
 10032 02df 00       		.uleb128 .LVL195-.LVL195
 10033 02e0 43       		.uleb128 .LVL197-.LVL195
 10034 02e1 02       		.uleb128 0x2
 10035 02e2 91       		.byte	0x91
 10036 02e3 04       		.sleb128 4
 10037 02e4 04       		.byte	0x4
 10038 02e5 43       		.uleb128 .LVL197-.LVL195
 10039 02e6 52       		.uleb128 .LVL199-.LVL195
 10040 02e7 01       		.uleb128 0x1
 10041 02e8 51       		.byte	0x51
 10042 02e9 04       		.byte	0x4
 10043 02ea 52       		.uleb128 .LVL199-.LVL195
 10044 02eb A301     		.uleb128 .LVL207-.LVL195
 10045 02ed 02       		.uleb128 0x2
 10046 02ee 91       		.byte	0x91
 10047 02ef 54       		.sleb128 -44
 10048 02f0 04       		.byte	0x4
 10049 02f1 A301     		.uleb128 .LVL207-.LVL195
 10050 02f3 C701     		.uleb128 .LVL211-.LVL195
 10051 02f5 0D       		.uleb128 0xd
 10052 02f6 91       		.byte	0x91
GAS LISTING /tmp/ccoiMs3n.s 			page 181


 10053 02f7 04       		.sleb128 4
 10054 02f8 06       		.byte	0x6
 10055 02f9 77       		.byte	0x77
 10056 02fa 00       		.sleb128 0
 10057 02fb 22       		.byte	0x22
 10058 02fc 31       		.byte	0x31
 10059 02fd 1C       		.byte	0x1c
 10060 02fe 77       		.byte	0x77
 10061 02ff 00       		.sleb128 0
 10062 0300 1F       		.byte	0x1f
 10063 0301 1A       		.byte	0x1a
 10064 0302 9F       		.byte	0x9f
 10065 0303 04       		.byte	0x4
 10066 0304 C701     		.uleb128 .LVL211-.LVL195
 10067 0306 C901     		.uleb128 .LFE239-.LVL195
 10068 0308 0F       		.uleb128 0xf
 10069 0309 91       		.byte	0x91
 10070 030a 04       		.sleb128 4
 10071 030b 06       		.byte	0x6
 10072 030c 91       		.byte	0x91
 10073 030d 0C       		.sleb128 12
 10074 030e 06       		.byte	0x6
 10075 030f 22       		.byte	0x22
 10076 0310 31       		.byte	0x31
 10077 0311 1C       		.byte	0x1c
 10078 0312 91       		.byte	0x91
 10079 0313 0C       		.sleb128 12
 10080 0314 06       		.byte	0x6
 10081 0315 1F       		.byte	0x1f
 10082 0316 1A       		.byte	0x1a
 10083 0317 9F       		.byte	0x9f
 10084 0318 00       		.byte	0
 10085              	.LVUS165:
 10086 0319 00       		.uleb128 .LVU698
 10087 031a 00       		.uleb128 .LVU716
 10088 031b 00       		.uleb128 .LVU716
 10089 031c 00       		.uleb128 .LVU729
 10090 031d 00       		.uleb128 .LVU729
 10091 031e 00       		.uleb128 0
 10092              	.LLST165:
 10093 031f 06       		.byte	0x6
 10094 0320 45000000 		.long	.LVL198
 10095 0324 04       		.byte	0x4
 10096 0325 00       		.uleb128 .LVL198-.LVL198
 10097 0326 25       		.uleb128 .LVL203-.LVL198
 10098 0327 01       		.uleb128 0x1
 10099 0328 56       		.byte	0x56
 10100 0329 04       		.byte	0x4
 10101 032a 25       		.uleb128 .LVL203-.LVL198
 10102 032b 8201     		.uleb128 .LVL211-.LVL198
 10103 032d 0F       		.uleb128 0xf
 10104 032e 91       		.byte	0x91
 10105 032f 08       		.sleb128 8
 10106 0330 06       		.byte	0x6
 10107 0331 32       		.byte	0x32
 10108 0332 24       		.byte	0x24
 10109 0333 77       		.byte	0x77
GAS LISTING /tmp/ccoiMs3n.s 			page 182


 10110 0334 00       		.sleb128 0
 10111 0335 22       		.byte	0x22
 10112 0336 23       		.byte	0x23
 10113 0337 53       		.uleb128 0x53
 10114 0338 77       		.byte	0x77
 10115 0339 00       		.sleb128 0
 10116 033a 1F       		.byte	0x1f
 10117 033b 1A       		.byte	0x1a
 10118 033c 9F       		.byte	0x9f
 10119 033d 04       		.byte	0x4
 10120 033e 8201     		.uleb128 .LVL211-.LVL198
 10121 0340 8401     		.uleb128 .LFE239-.LVL198
 10122 0342 11       		.uleb128 0x11
 10123 0343 91       		.byte	0x91
 10124 0344 08       		.sleb128 8
 10125 0345 06       		.byte	0x6
 10126 0346 32       		.byte	0x32
 10127 0347 24       		.byte	0x24
 10128 0348 91       		.byte	0x91
 10129 0349 0C       		.sleb128 12
 10130 034a 06       		.byte	0x6
 10131 034b 22       		.byte	0x22
 10132 034c 23       		.byte	0x23
 10133 034d 53       		.uleb128 0x53
 10134 034e 91       		.byte	0x91
 10135 034f 0C       		.sleb128 12
 10136 0350 06       		.byte	0x6
 10137 0351 1F       		.byte	0x1f
 10138 0352 1A       		.byte	0x1a
 10139 0353 9F       		.byte	0x9f
 10140 0354 00       		.byte	0
 10141              	.LVUS166:
 10142 0355 01       		.uleb128 .LVU699
 10143 0356 00       		.uleb128 .LVU702
 10144 0357 00       		.uleb128 .LVU702
 10145 0358 00       		.uleb128 .LVU703
 10146 0359 00       		.uleb128 .LVU703
 10147 035a 00       		.uleb128 .LVU723
 10148 035b 00       		.uleb128 .LVU723
 10149 035c 00       		.uleb128 .LVU729
 10150 035d 00       		.uleb128 .LVU729
 10151 035e 00       		.uleb128 0
 10152              	.LLST166:
 10153 035f 06       		.byte	0x6
 10154 0360 45000000 		.long	.LVL198
 10155 0364 04       		.byte	0x4
 10156 0365 00       		.uleb128 .LVL198-.LVL198
 10157 0366 0D       		.uleb128 .LVL199-.LVL198
 10158 0367 07       		.uleb128 0x7
 10159 0368 71       		.byte	0x71
 10160 0369 00       		.sleb128 0
 10161 036a 91       		.byte	0x91
 10162 036b 08       		.sleb128 8
 10163 036c 06       		.byte	0x6
 10164 036d 1E       		.byte	0x1e
 10165 036e 9F       		.byte	0x9f
 10166 036f 04       		.byte	0x4
GAS LISTING /tmp/ccoiMs3n.s 			page 183


 10167 0370 0D       		.uleb128 .LVL199-.LVL198
 10168 0371 0F       		.uleb128 .LVL200-.LVL198
 10169 0372 01       		.uleb128 0x1
 10170 0373 51       		.byte	0x51
 10171 0374 04       		.byte	0x4
 10172 0375 0F       		.uleb128 .LVL200-.LVL198
 10173 0376 5E       		.uleb128 .LVL207-.LVL198
 10174 0377 08       		.uleb128 0x8
 10175 0378 91       		.byte	0x91
 10176 0379 54       		.sleb128 -44
 10177 037a 06       		.byte	0x6
 10178 037b 91       		.byte	0x91
 10179 037c 08       		.sleb128 8
 10180 037d 06       		.byte	0x6
 10181 037e 1E       		.byte	0x1e
 10182 037f 9F       		.byte	0x9f
 10183 0380 04       		.byte	0x4
 10184 0381 5E       		.uleb128 .LVL207-.LVL198
 10185 0382 8201     		.uleb128 .LVL211-.LVL198
 10186 0384 11       		.uleb128 0x11
 10187 0385 91       		.byte	0x91
 10188 0386 04       		.sleb128 4
 10189 0387 06       		.byte	0x6
 10190 0388 77       		.byte	0x77
 10191 0389 00       		.sleb128 0
 10192 038a 22       		.byte	0x22
 10193 038b 31       		.byte	0x31
 10194 038c 1C       		.byte	0x1c
 10195 038d 77       		.byte	0x77
 10196 038e 00       		.sleb128 0
 10197 038f 1F       		.byte	0x1f
 10198 0390 1A       		.byte	0x1a
 10199 0391 91       		.byte	0x91
 10200 0392 08       		.sleb128 8
 10201 0393 06       		.byte	0x6
 10202 0394 1E       		.byte	0x1e
 10203 0395 9F       		.byte	0x9f
 10204 0396 04       		.byte	0x4
 10205 0397 8201     		.uleb128 .LVL211-.LVL198
 10206 0399 8401     		.uleb128 .LFE239-.LVL198
 10207 039b 13       		.uleb128 0x13
 10208 039c 91       		.byte	0x91
 10209 039d 04       		.sleb128 4
 10210 039e 06       		.byte	0x6
 10211 039f 91       		.byte	0x91
 10212 03a0 0C       		.sleb128 12
 10213 03a1 06       		.byte	0x6
 10214 03a2 22       		.byte	0x22
 10215 03a3 31       		.byte	0x31
 10216 03a4 1C       		.byte	0x1c
 10217 03a5 91       		.byte	0x91
 10218 03a6 0C       		.sleb128 12
 10219 03a7 06       		.byte	0x6
 10220 03a8 1F       		.byte	0x1f
 10221 03a9 1A       		.byte	0x1a
 10222 03aa 91       		.byte	0x91
 10223 03ab 08       		.sleb128 8
GAS LISTING /tmp/ccoiMs3n.s 			page 184


 10224 03ac 06       		.byte	0x6
 10225 03ad 1E       		.byte	0x1e
 10226 03ae 9F       		.byte	0x9f
 10227 03af 00       		.byte	0
 10228              	.LVUS167:
 10229 03b0 00       		.uleb128 .LVU704
 10230 03b1 00       		.uleb128 .LVU719
 10231 03b2 00       		.uleb128 .LVU719
 10232 03b3 00       		.uleb128 .LVU725
 10233              	.LLST167:
 10234 03b4 06       		.byte	0x6
 10235 03b5 59000000 		.long	.LVL201
 10236 03b9 04       		.byte	0x4
 10237 03ba 00       		.uleb128 .LVL201-.LVL201
 10238 03bb 22       		.uleb128 .LVL205-1-.LVL201
 10239 03bc 01       		.uleb128 0x1
 10240 03bd 50       		.byte	0x50
 10241 03be 04       		.byte	0x4
 10242 03bf 22       		.uleb128 .LVL205-1-.LVL201
 10243 03c0 57       		.uleb128 .LVL209-.LVL201
 10244 03c1 02       		.uleb128 0x2
 10245 03c2 91       		.byte	0x91
 10246 03c3 5C       		.sleb128 -36
 10247 03c4 00       		.byte	0
 10248              	.LVUS168:
 10249 03c5 01       		.uleb128 .LVU707
 10250 03c6 00       		.uleb128 .LVU719
 10251 03c7 00       		.uleb128 .LVU719
 10252 03c8 00       		.uleb128 .LVU725
 10253              	.LLST168:
 10254 03c9 06       		.byte	0x6
 10255 03ca 60000000 		.long	.LVL202
 10256 03ce 04       		.byte	0x4
 10257 03cf 00       		.uleb128 .LVL202-.LVL202
 10258 03d0 1B       		.uleb128 .LVL205-1-.LVL202
 10259 03d1 04       		.uleb128 0x4
 10260 03d2 70       		.byte	0x70
 10261 03d3 D400     		.sleb128 84
 10262 03d5 9F       		.byte	0x9f
 10263 03d6 04       		.byte	0x4
 10264 03d7 1B       		.uleb128 .LVL205-1-.LVL202
 10265 03d8 50       		.uleb128 .LVL209-.LVL202
 10266 03d9 06       		.uleb128 0x6
 10267 03da 91       		.byte	0x91
 10268 03db 5C       		.sleb128 -36
 10269 03dc 06       		.byte	0x6
 10270 03dd 23       		.byte	0x23
 10271 03de 54       		.uleb128 0x54
 10272 03df 9F       		.byte	0x9f
 10273 03e0 00       		.byte	0
 10274              	.LVUS169:
 10275 03e1 02       		.uleb128 .LVU708
 10276 03e2 00       		.uleb128 .LVU718
 10277              	.LLST169:
 10278 03e3 08       		.byte	0x8
 10279 03e4 60000000 		.long	.LVL202
 10280 03e8 11       		.uleb128 .LVL204-.LVL202
GAS LISTING /tmp/ccoiMs3n.s 			page 185


 10281 03e9 02       		.uleb128 0x2
 10282 03ea 91       		.byte	0x91
 10283 03eb 58       		.sleb128 -40
 10284 03ec 00       		.byte	0
 10285              	.LVUS171:
 10286 03ed 03       		.uleb128 .LVU709
 10287 03ee 00       		.uleb128 .LVU719
 10288 03ef 00       		.uleb128 .LVU719
 10289 03f0 00       		.uleb128 .LVU725
 10290              	.LLST171:
 10291 03f1 06       		.byte	0x6
 10292 03f2 60000000 		.long	.LVL202
 10293 03f6 04       		.byte	0x4
 10294 03f7 00       		.uleb128 .LVL202-.LVL202
 10295 03f8 1B       		.uleb128 .LVL205-1-.LVL202
 10296 03f9 04       		.uleb128 0x4
 10297 03fa 70       		.byte	0x70
 10298 03fb D400     		.sleb128 84
 10299 03fd 9F       		.byte	0x9f
 10300 03fe 04       		.byte	0x4
 10301 03ff 1B       		.uleb128 .LVL205-1-.LVL202
 10302 0400 50       		.uleb128 .LVL209-.LVL202
 10303 0401 06       		.uleb128 0x6
 10304 0402 91       		.byte	0x91
 10305 0403 5C       		.sleb128 -36
 10306 0404 06       		.byte	0x6
 10307 0405 23       		.byte	0x23
 10308 0406 54       		.uleb128 0x54
 10309 0407 9F       		.byte	0x9f
 10310 0408 00       		.byte	0
 10311              	.LVUS172:
 10312 0409 03       		.uleb128 .LVU709
 10313 040a 00       		.uleb128 .LVU718
 10314              	.LLST172:
 10315 040b 08       		.byte	0x8
 10316 040c 60000000 		.long	.LVL202
 10317 0410 11       		.uleb128 .LVL204-.LVL202
 10318 0411 02       		.uleb128 0x2
 10319 0412 91       		.byte	0x91
 10320 0413 58       		.sleb128 -40
 10321 0414 00       		.byte	0
 10322              	.LVUS173:
 10323 0415 03       		.uleb128 .LVU709
 10324 0416 00       		.uleb128 .LVU725
 10325              	.LLST173:
 10326 0417 08       		.byte	0x8
 10327 0418 60000000 		.long	.LVL202
 10328 041c 50       		.uleb128 .LVL209-.LVL202
 10329 041d 01       		.uleb128 0x1
 10330 041e 57       		.byte	0x57
 10331 041f 00       		.byte	0
 10332              	.LVUS174:
 10333 0420 03       		.uleb128 .LVU709
 10334 0421 00       		.uleb128 .LVU725
 10335              	.LLST174:
 10336 0422 08       		.byte	0x8
 10337 0423 60000000 		.long	.LVL202
GAS LISTING /tmp/ccoiMs3n.s 			page 186


 10338 0427 50       		.uleb128 .LVL209-.LVL202
 10339 0428 02       		.uleb128 0x2
 10340 0429 91       		.byte	0x91
 10341 042a 08       		.sleb128 8
 10342 042b 00       		.byte	0
 10343              	.LVUS175:
 10344 042c 03       		.uleb128 .LVU709
 10345 042d 00       		.uleb128 .LVU723
 10346              	.LLST175:
 10347 042e 08       		.byte	0x8
 10348 042f 60000000 		.long	.LVL202
 10349 0433 43       		.uleb128 .LVL207-.LVL202
 10350 0434 02       		.uleb128 0x2
 10351 0435 91       		.byte	0x91
 10352 0436 54       		.sleb128 -44
 10353 0437 00       		.byte	0
 10354              	.LVUS176:
 10355 0438 03       		.uleb128 .LVU709
 10356 0439 00       		.uleb128 .LVU716
 10357 043a 00       		.uleb128 .LVU716
 10358 043b 00       		.uleb128 .LVU725
 10359              	.LLST176:
 10360 043c 06       		.byte	0x6
 10361 043d 60000000 		.long	.LVL202
 10362 0441 04       		.byte	0x4
 10363 0442 00       		.uleb128 .LVL202-.LVL202
 10364 0443 0A       		.uleb128 .LVL203-.LVL202
 10365 0444 03       		.uleb128 0x3
 10366 0445 70       		.byte	0x70
 10367 0446 10       		.sleb128 16
 10368 0447 9F       		.byte	0x9f
 10369 0448 04       		.byte	0x4
 10370 0449 0A       		.uleb128 .LVL203-.LVL202
 10371 044a 50       		.uleb128 .LVL209-.LVL202
 10372 044b 01       		.uleb128 0x1
 10373 044c 56       		.byte	0x56
 10374 044d 00       		.byte	0
 10375              	.LVUS152:
 10376 044e 01       		.uleb128 .LVU654
 10377 044f 00       		.uleb128 .LVU658
 10378 0450 00       		.uleb128 .LVU658
 10379 0451 00       		.uleb128 .LVU659
 10380              	.LLST152:
 10381 0452 06       		.byte	0x6
 10382 0453 3E000000 		.long	.LVL187
 10383 0457 04       		.byte	0x4
 10384 0458 00       		.uleb128 .LVL187-.LVL187
 10385 0459 12       		.uleb128 .LVL189-.LVL187
 10386 045a 01       		.uleb128 0x1
 10387 045b 55       		.byte	0x55
 10388 045c 04       		.byte	0x4
 10389 045d 12       		.uleb128 .LVL189-.LVL187
 10390 045e 13       		.uleb128 .LVL190-.LVL187
 10391 045f 01       		.uleb128 0x1
 10392 0460 50       		.byte	0x50
 10393 0461 00       		.byte	0
 10394              	.LVUS154:
GAS LISTING /tmp/ccoiMs3n.s 			page 187


 10395 0462 01       		.uleb128 .LVU634
 10396 0463 01       		.uleb128 .LVU654
 10397 0464 00       		.uleb128 .LVU659
 10398 0465 00       		.uleb128 0
 10399              	.LLST154:
 10400 0466 06       		.byte	0x6
 10401 0467 22000000 		.long	.LVL183
 10402 046b 04       		.byte	0x4
 10403 046c 00       		.uleb128 .LVL183-.LVL183
 10404 046d 1C       		.uleb128 .LVL187-.LVL183
 10405 046e 06       		.uleb128 0x6
 10406 046f 03       		.byte	0x3
 10407 0470 3C000000 		.long	ch_factory+60
 10408 0474 9F       		.byte	0x9f
 10409 0475 04       		.byte	0x4
 10410 0476 2F       		.uleb128 .LVL190-.LVL183
 10411 0477 55       		.uleb128 .LFE238-.LVL183
 10412 0478 06       		.uleb128 0x6
 10413 0479 03       		.byte	0x3
 10414 047a 3C000000 		.long	ch_factory+60
 10415 047e 9F       		.byte	0x9f
 10416 047f 00       		.byte	0
 10417              	.LVUS155:
 10418 0480 01       		.uleb128 .LVU634
 10419 0481 01       		.uleb128 .LVU654
 10420 0482 00       		.uleb128 .LVU659
 10421 0483 00       		.uleb128 0
 10422              	.LLST155:
 10423 0484 06       		.byte	0x6
 10424 0485 22000000 		.long	.LVL183
 10425 0489 04       		.byte	0x4
 10426 048a 00       		.uleb128 .LVL183-.LVL183
 10427 048b 1C       		.uleb128 .LVL187-.LVL183
 10428 048c 01       		.uleb128 0x1
 10429 048d 56       		.byte	0x56
 10430 048e 04       		.byte	0x4
 10431 048f 2F       		.uleb128 .LVL190-.LVL183
 10432 0490 55       		.uleb128 .LFE238-.LVL183
 10433 0491 01       		.uleb128 0x1
 10434 0492 56       		.byte	0x56
 10435 0493 00       		.byte	0
 10436              	.LVUS156:
 10437 0494 00       		.uleb128 .LVU659
 10438 0495 00       		.uleb128 .LVU678
 10439              	.LLST156:
 10440 0496 08       		.byte	0x8
 10441 0497 51000000 		.long	.LVL190
 10442 049b 20       		.uleb128 .LVL194-1-.LVL190
 10443 049c 01       		.uleb128 0x1
 10444 049d 51       		.byte	0x51
 10445 049e 00       		.byte	0
 10446              	.LVUS157:
 10447 049f 00       		.uleb128 .LVU653
 10448 04a0 01       		.uleb128 .LVU654
 10449 04a1 00       		.uleb128 .LVU666
 10450 04a2 00       		.uleb128 0
 10451              	.LLST157:
GAS LISTING /tmp/ccoiMs3n.s 			page 188


 10452 04a3 06       		.byte	0x6
 10453 04a4 3E000000 		.long	.LVL187
 10454 04a8 04       		.byte	0x4
 10455 04a9 00       		.uleb128 .LVL187-.LVL187
 10456 04aa 00       		.uleb128 .LVL187-.LVL187
 10457 04ab 01       		.uleb128 0x1
 10458 04ac 55       		.byte	0x55
 10459 04ad 04       		.byte	0x4
 10460 04ae 23       		.uleb128 .LVL191-.LVL187
 10461 04af 39       		.uleb128 .LFE238-.LVL187
 10462 04b0 01       		.uleb128 0x1
 10463 04b1 55       		.byte	0x55
 10464 04b2 00       		.byte	0
 10465              	.LVUS158:
 10466 04b3 08       		.uleb128 .LVU641
 10467 04b4 00       		.uleb128 .LVU653
 10468              	.LLST158:
 10469 04b5 08       		.byte	0x8
 10470 04b6 22000000 		.long	.LVL183
 10471 04ba 1C       		.uleb128 .LVL187-.LVL183
 10472 04bb 06       		.uleb128 0x6
 10473 04bc 03       		.byte	0x3
 10474 04bd 3C000000 		.long	ch_factory+60
 10475 04c1 9F       		.byte	0x9f
 10476 04c2 00       		.byte	0
 10477              	.LVUS159:
 10478 04c3 08       		.uleb128 .LVU641
 10479 04c4 00       		.uleb128 .LVU653
 10480              	.LLST159:
 10481 04c5 08       		.byte	0x8
 10482 04c6 22000000 		.long	.LVL183
 10483 04ca 1C       		.uleb128 .LVL187-.LVL183
 10484 04cb 01       		.uleb128 0x1
 10485 04cc 56       		.byte	0x56
 10486 04cd 00       		.byte	0
 10487              	.LVUS160:
 10488 04ce 0A       		.uleb128 .LVU643
 10489 04cf 00       		.uleb128 .LVU647
 10490 04d0 00       		.uleb128 .LVU647
 10491 04d1 00       		.uleb128 .LVU649
 10492 04d2 00       		.uleb128 .LVU649
 10493 04d3 00       		.uleb128 .LVU651
 10494 04d4 00       		.uleb128 .LVU651
 10495 04d5 00       		.uleb128 .LVU653
 10496              	.LLST160:
 10497 04d6 06       		.byte	0x6
 10498 04d7 22000000 		.long	.LVL183
 10499 04db 04       		.byte	0x4
 10500 04dc 00       		.uleb128 .LVL183-.LVL183
 10501 04dd 0E       		.uleb128 .LVL184-.LVL183
 10502 04de 06       		.uleb128 0x6
 10503 04df 03       		.byte	0x3
 10504 04e0 3C000000 		.long	ch_factory+60
 10505 04e4 9F       		.byte	0x9f
 10506 04e5 04       		.byte	0x4
 10507 04e6 0E       		.uleb128 .LVL184-.LVL183
 10508 04e7 12       		.uleb128 .LVL185-.LVL183
GAS LISTING /tmp/ccoiMs3n.s 			page 189


 10509 04e8 01       		.uleb128 0x1
 10510 04e9 51       		.byte	0x51
 10511 04ea 04       		.byte	0x4
 10512 04eb 12       		.uleb128 .LVL185-.LVL183
 10513 04ec 16       		.uleb128 .LVL186-.LVL183
 10514 04ed 01       		.uleb128 0x1
 10515 04ee 50       		.byte	0x50
 10516 04ef 04       		.byte	0x4
 10517 04f0 16       		.uleb128 .LVL186-.LVL183
 10518 04f1 1C       		.uleb128 .LVL187-.LVL183
 10519 04f2 01       		.uleb128 0x1
 10520 04f3 51       		.byte	0x51
 10521 04f4 00       		.byte	0
 10522              	.LVUS162:
 10523 04f5 01       		.uleb128 .LVU669
 10524 04f6 01       		.uleb128 .LVU676
 10525              	.LLST162:
 10526 04f7 08       		.byte	0x8
 10527 04f8 65000000 		.long	.LVL192
 10528 04fc 07       		.uleb128 .LVL193-.LVL192
 10529 04fd 01       		.uleb128 0x1
 10530 04fe 51       		.byte	0x51
 10531 04ff 00       		.byte	0
 10532              	.LVUS163:
 10533 0500 03       		.uleb128 .LVU671
 10534 0501 01       		.uleb128 .LVU676
 10535              	.LLST163:
 10536 0502 08       		.byte	0x8
 10537 0503 65000000 		.long	.LVL192
 10538 0507 07       		.uleb128 .LVL193-.LVL192
 10539 0508 01       		.uleb128 0x1
 10540 0509 56       		.byte	0x56
 10541 050a 00       		.byte	0
 10542              	.LVUS143:
 10543 050b 01       		.uleb128 .LVU620
 10544 050c 00       		.uleb128 .LVU624
 10545 050d 00       		.uleb128 .LVU624
 10546 050e 00       		.uleb128 .LVU625
 10547              	.LLST143:
 10548 050f 06       		.byte	0x6
 10549 0510 65000000 		.long	.LVL177
 10550 0514 04       		.byte	0x4
 10551 0515 00       		.uleb128 .LVL177-.LVL177
 10552 0516 15       		.uleb128 .LVL179-.LVL177
 10553 0517 01       		.uleb128 0x1
 10554 0518 55       		.byte	0x55
 10555 0519 04       		.byte	0x4
 10556 051a 15       		.uleb128 .LVL179-.LVL177
 10557 051b 16       		.uleb128 .LVL180-.LVL177
 10558 051c 01       		.uleb128 0x1
 10559 051d 50       		.byte	0x50
 10560 051e 00       		.byte	0
 10561              	.LVUS145:
 10562 051f 01       		.uleb128 .LVU596
 10563 0520 01       		.uleb128 .LVU620
 10564 0521 00       		.uleb128 .LVU625
 10565 0522 00       		.uleb128 0
GAS LISTING /tmp/ccoiMs3n.s 			page 190


 10566              	.LLST145:
 10567 0523 06       		.byte	0x6
 10568 0524 28000000 		.long	.LVL172
 10569 0528 04       		.byte	0x4
 10570 0529 00       		.uleb128 .LVL172-.LVL172
 10571 052a 3D       		.uleb128 .LVL177-.LVL172
 10572 052b 06       		.uleb128 0x6
 10573 052c 03       		.byte	0x3
 10574 052d 3C000000 		.long	ch_factory+60
 10575 0531 9F       		.byte	0x9f
 10576 0532 04       		.byte	0x4
 10577 0533 53       		.uleb128 .LVL180-.LVL172
 10578 0534 5C       		.uleb128 .LFE237-.LVL172
 10579 0535 06       		.uleb128 0x6
 10580 0536 03       		.byte	0x3
 10581 0537 3C000000 		.long	ch_factory+60
 10582 053b 9F       		.byte	0x9f
 10583 053c 00       		.byte	0
 10584              	.LVUS146:
 10585 053d 01       		.uleb128 .LVU596
 10586 053e 01       		.uleb128 .LVU620
 10587 053f 00       		.uleb128 .LVU625
 10588 0540 00       		.uleb128 0
 10589              	.LLST146:
 10590 0541 06       		.byte	0x6
 10591 0542 28000000 		.long	.LVL172
 10592 0546 04       		.byte	0x4
 10593 0547 00       		.uleb128 .LVL172-.LVL172
 10594 0548 3D       		.uleb128 .LVL177-.LVL172
 10595 0549 01       		.uleb128 0x1
 10596 054a 56       		.byte	0x56
 10597 054b 04       		.byte	0x4
 10598 054c 53       		.uleb128 .LVL180-.LVL172
 10599 054d 5C       		.uleb128 .LFE237-.LVL172
 10600 054e 01       		.uleb128 0x1
 10601 054f 56       		.byte	0x56
 10602 0550 00       		.byte	0
 10603              	.LVUS147:
 10604 0551 01       		.uleb128 .LVU614
 10605 0552 00       		.uleb128 .LVU619
 10606              	.LLST147:
 10607 0553 08       		.byte	0x8
 10608 0554 5D000000 		.long	.LVL176
 10609 0558 08       		.uleb128 .LVL177-.LVL176
 10610 0559 01       		.uleb128 0x1
 10611 055a 55       		.byte	0x55
 10612 055b 00       		.byte	0
 10613              	.LVUS149:
 10614 055c 07       		.uleb128 .LVU602
 10615 055d 01       		.uleb128 .LVU614
 10616 055e 00       		.uleb128 .LVU625
 10617 055f 00       		.uleb128 0
 10618              	.LLST149:
 10619 0560 06       		.byte	0x6
 10620 0561 28000000 		.long	.LVL172
 10621 0565 04       		.byte	0x4
 10622 0566 00       		.uleb128 .LVL172-.LVL172
GAS LISTING /tmp/ccoiMs3n.s 			page 191


 10623 0567 35       		.uleb128 .LVL176-.LVL172
 10624 0568 06       		.uleb128 0x6
 10625 0569 03       		.byte	0x3
 10626 056a 3C000000 		.long	ch_factory+60
 10627 056e 9F       		.byte	0x9f
 10628 056f 04       		.byte	0x4
 10629 0570 53       		.uleb128 .LVL180-.LVL172
 10630 0571 5C       		.uleb128 .LFE237-.LVL172
 10631 0572 06       		.uleb128 0x6
 10632 0573 03       		.byte	0x3
 10633 0574 3C000000 		.long	ch_factory+60
 10634 0578 9F       		.byte	0x9f
 10635 0579 00       		.byte	0
 10636              	.LVUS150:
 10637 057a 07       		.uleb128 .LVU602
 10638 057b 01       		.uleb128 .LVU614
 10639 057c 00       		.uleb128 .LVU625
 10640 057d 00       		.uleb128 0
 10641              	.LLST150:
 10642 057e 06       		.byte	0x6
 10643 057f 28000000 		.long	.LVL172
 10644 0583 04       		.byte	0x4
 10645 0584 00       		.uleb128 .LVL172-.LVL172
 10646 0585 35       		.uleb128 .LVL176-.LVL172
 10647 0586 01       		.uleb128 0x1
 10648 0587 56       		.byte	0x56
 10649 0588 04       		.byte	0x4
 10650 0589 53       		.uleb128 .LVL180-.LVL172
 10651 058a 5C       		.uleb128 .LFE237-.LVL172
 10652 058b 01       		.uleb128 0x1
 10653 058c 56       		.byte	0x56
 10654 058d 00       		.byte	0
 10655              	.LVUS151:
 10656 058e 00       		.uleb128 .LVU605
 10657 058f 01       		.uleb128 .LVU614
 10658 0590 00       		.uleb128 .LVU625
 10659 0591 00       		.uleb128 .LVU626
 10660              	.LLST151:
 10661 0592 06       		.byte	0x6
 10662 0593 2E000000 		.long	.LVL173
 10663 0597 04       		.byte	0x4
 10664 0598 00       		.uleb128 .LVL173-.LVL173
 10665 0599 2F       		.uleb128 .LVL176-.LVL173
 10666 059a 01       		.uleb128 0x1
 10667 059b 55       		.byte	0x55
 10668 059c 04       		.byte	0x4
 10669 059d 4D       		.uleb128 .LVL180-.LVL173
 10670 059e 54       		.uleb128 .LVL181-.LVL173
 10671 059f 01       		.uleb128 0x1
 10672 05a0 55       		.byte	0x55
 10673 05a1 00       		.byte	0
 10674              	.LVUS142:
 10675 05a2 00       		.uleb128 .LVU580
 10676 05a3 00       		.uleb128 .LVU584
 10677 05a4 00       		.uleb128 .LVU584
 10678 05a5 00       		.uleb128 .LVU588
 10679 05a6 00       		.uleb128 .LVU588
GAS LISTING /tmp/ccoiMs3n.s 			page 192


 10680 05a7 00       		.uleb128 0
 10681              	.LLST142:
 10682 05a8 06       		.byte	0x6
 10683 05a9 44000000 		.long	.LVL166
 10684 05ad 04       		.byte	0x4
 10685 05ae 00       		.uleb128 .LVL166-.LVL166
 10686 05af 0A       		.uleb128 .LVL167-.LVL166
 10687 05b0 01       		.uleb128 0x1
 10688 05b1 50       		.byte	0x50
 10689 05b2 04       		.byte	0x4
 10690 05b3 0A       		.uleb128 .LVL167-.LVL166
 10691 05b4 28       		.uleb128 .LVL170-.LVL166
 10692 05b5 01       		.uleb128 0x1
 10693 05b6 56       		.byte	0x56
 10694 05b7 04       		.byte	0x4
 10695 05b8 28       		.uleb128 .LVL170-.LVL166
 10696 05b9 2B       		.uleb128 .LFE236-.LVL166
 10697 05ba 01       		.uleb128 0x1
 10698 05bb 50       		.byte	0x50
 10699 05bc 00       		.byte	0
 10700              	.LVUS129:
 10701 05bd 01       		.uleb128 .LVU545
 10702 05be 00       		.uleb128 .LVU549
 10703 05bf 00       		.uleb128 .LVU549
 10704 05c0 00       		.uleb128 .LVU550
 10705              	.LLST129:
 10706 05c1 06       		.byte	0x6
 10707 05c2 3E000000 		.long	.LVL155
 10708 05c6 04       		.byte	0x4
 10709 05c7 00       		.uleb128 .LVL155-.LVL155
 10710 05c8 12       		.uleb128 .LVL157-.LVL155
 10711 05c9 01       		.uleb128 0x1
 10712 05ca 55       		.byte	0x55
 10713 05cb 04       		.byte	0x4
 10714 05cc 12       		.uleb128 .LVL157-.LVL155
 10715 05cd 13       		.uleb128 .LVL158-.LVL155
 10716 05ce 01       		.uleb128 0x1
 10717 05cf 50       		.byte	0x50
 10718 05d0 00       		.byte	0
 10719              	.LVUS131:
 10720 05d1 01       		.uleb128 .LVU525
 10721 05d2 01       		.uleb128 .LVU545
 10722 05d3 00       		.uleb128 .LVU550
 10723 05d4 00       		.uleb128 0
 10724              	.LLST131:
 10725 05d5 06       		.byte	0x6
 10726 05d6 22000000 		.long	.LVL151
 10727 05da 04       		.byte	0x4
 10728 05db 00       		.uleb128 .LVL151-.LVL151
 10729 05dc 1C       		.uleb128 .LVL155-.LVL151
 10730 05dd 06       		.uleb128 0x6
 10731 05de 03       		.byte	0x3
 10732 05df 2C000000 		.long	ch_factory+44
 10733 05e3 9F       		.byte	0x9f
 10734 05e4 04       		.byte	0x4
 10735 05e5 2F       		.uleb128 .LVL158-.LVL151
 10736 05e6 59       		.uleb128 .LFE235-.LVL151
GAS LISTING /tmp/ccoiMs3n.s 			page 193


 10737 05e7 06       		.uleb128 0x6
 10738 05e8 03       		.byte	0x3
 10739 05e9 2C000000 		.long	ch_factory+44
 10740 05ed 9F       		.byte	0x9f
 10741 05ee 00       		.byte	0
 10742              	.LVUS132:
 10743 05ef 01       		.uleb128 .LVU525
 10744 05f0 01       		.uleb128 .LVU545
 10745 05f1 00       		.uleb128 .LVU550
 10746 05f2 00       		.uleb128 0
 10747              	.LLST132:
 10748 05f3 06       		.byte	0x6
 10749 05f4 22000000 		.long	.LVL151
 10750 05f8 04       		.byte	0x4
 10751 05f9 00       		.uleb128 .LVL151-.LVL151
 10752 05fa 1C       		.uleb128 .LVL155-.LVL151
 10753 05fb 06       		.uleb128 0x6
 10754 05fc 03       		.byte	0x3
 10755 05fd 28000000 		.long	ch_factory+40
 10756 0601 9F       		.byte	0x9f
 10757 0602 04       		.byte	0x4
 10758 0603 2F       		.uleb128 .LVL158-.LVL151
 10759 0604 59       		.uleb128 .LFE235-.LVL151
 10760 0605 06       		.uleb128 0x6
 10761 0606 03       		.byte	0x3
 10762 0607 28000000 		.long	ch_factory+40
 10763 060b 9F       		.byte	0x9f
 10764 060c 00       		.byte	0
 10765              	.LVUS133:
 10766 060d 01       		.uleb128 .LVU525
 10767 060e 01       		.uleb128 .LVU545
 10768 060f 00       		.uleb128 .LVU550
 10769 0610 00       		.uleb128 0
 10770              	.LLST133:
 10771 0611 06       		.byte	0x6
 10772 0612 22000000 		.long	.LVL151
 10773 0616 04       		.byte	0x4
 10774 0617 00       		.uleb128 .LVL151-.LVL151
 10775 0618 1C       		.uleb128 .LVL155-.LVL151
 10776 0619 01       		.uleb128 0x1
 10777 061a 56       		.byte	0x56
 10778 061b 04       		.byte	0x4
 10779 061c 2F       		.uleb128 .LVL158-.LVL151
 10780 061d 59       		.uleb128 .LFE235-.LVL151
 10781 061e 01       		.uleb128 0x1
 10782 061f 56       		.byte	0x56
 10783 0620 00       		.byte	0
 10784              	.LVUS134:
 10785 0621 00       		.uleb128 .LVU550
 10786 0622 00       		.uleb128 .LVU569
 10787              	.LLST134:
 10788 0623 08       		.byte	0x8
 10789 0624 51000000 		.long	.LVL158
 10790 0628 24       		.uleb128 .LVL162-1-.LVL158
 10791 0629 01       		.uleb128 0x1
 10792 062a 51       		.byte	0x51
 10793 062b 00       		.byte	0
GAS LISTING /tmp/ccoiMs3n.s 			page 194


 10794              	.LVUS135:
 10795 062c 00       		.uleb128 .LVU544
 10796 062d 01       		.uleb128 .LVU545
 10797 062e 00       		.uleb128 .LVU557
 10798 062f 00       		.uleb128 0
 10799              	.LLST135:
 10800 0630 06       		.byte	0x6
 10801 0631 3E000000 		.long	.LVL155
 10802 0635 04       		.byte	0x4
 10803 0636 00       		.uleb128 .LVL155-.LVL155
 10804 0637 00       		.uleb128 .LVL155-.LVL155
 10805 0638 01       		.uleb128 0x1
 10806 0639 55       		.byte	0x55
 10807 063a 04       		.byte	0x4
 10808 063b 23       		.uleb128 .LVL159-.LVL155
 10809 063c 3D       		.uleb128 .LFE235-.LVL155
 10810 063d 01       		.uleb128 0x1
 10811 063e 55       		.byte	0x55
 10812 063f 00       		.byte	0
 10813              	.LVUS136:
 10814 0640 08       		.uleb128 .LVU532
 10815 0641 00       		.uleb128 .LVU544
 10816              	.LLST136:
 10817 0642 08       		.byte	0x8
 10818 0643 22000000 		.long	.LVL151
 10819 0647 1C       		.uleb128 .LVL155-.LVL151
 10820 0648 06       		.uleb128 0x6
 10821 0649 03       		.byte	0x3
 10822 064a 28000000 		.long	ch_factory+40
 10823 064e 9F       		.byte	0x9f
 10824 064f 00       		.byte	0
 10825              	.LVUS137:
 10826 0650 08       		.uleb128 .LVU532
 10827 0651 00       		.uleb128 .LVU544
 10828              	.LLST137:
 10829 0652 08       		.byte	0x8
 10830 0653 22000000 		.long	.LVL151
 10831 0657 1C       		.uleb128 .LVL155-.LVL151
 10832 0658 01       		.uleb128 0x1
 10833 0659 56       		.byte	0x56
 10834 065a 00       		.byte	0
 10835              	.LVUS138:
 10836 065b 0A       		.uleb128 .LVU534
 10837 065c 00       		.uleb128 .LVU538
 10838 065d 00       		.uleb128 .LVU538
 10839 065e 00       		.uleb128 .LVU540
 10840 065f 00       		.uleb128 .LVU540
 10841 0660 00       		.uleb128 .LVU542
 10842 0661 00       		.uleb128 .LVU542
 10843 0662 00       		.uleb128 .LVU544
 10844              	.LLST138:
 10845 0663 06       		.byte	0x6
 10846 0664 22000000 		.long	.LVL151
 10847 0668 04       		.byte	0x4
 10848 0669 00       		.uleb128 .LVL151-.LVL151
 10849 066a 0E       		.uleb128 .LVL152-.LVL151
 10850 066b 06       		.uleb128 0x6
GAS LISTING /tmp/ccoiMs3n.s 			page 195


 10851 066c 03       		.byte	0x3
 10852 066d 28000000 		.long	ch_factory+40
 10853 0671 9F       		.byte	0x9f
 10854 0672 04       		.byte	0x4
 10855 0673 0E       		.uleb128 .LVL152-.LVL151
 10856 0674 12       		.uleb128 .LVL153-.LVL151
 10857 0675 01       		.uleb128 0x1
 10858 0676 51       		.byte	0x51
 10859 0677 04       		.byte	0x4
 10860 0678 12       		.uleb128 .LVL153-.LVL151
 10861 0679 16       		.uleb128 .LVL154-.LVL151
 10862 067a 01       		.uleb128 0x1
 10863 067b 50       		.byte	0x50
 10864 067c 04       		.byte	0x4
 10865 067d 16       		.uleb128 .LVL154-.LVL151
 10866 067e 1C       		.uleb128 .LVL155-.LVL151
 10867 067f 01       		.uleb128 0x1
 10868 0680 51       		.byte	0x51
 10869 0681 00       		.byte	0
 10870              	.LVUS140:
 10871 0682 01       		.uleb128 .LVU560
 10872 0683 01       		.uleb128 .LVU567
 10873              	.LLST140:
 10874 0684 08       		.byte	0x8
 10875 0685 65000000 		.long	.LVL160
 10876 0689 07       		.uleb128 .LVL161-.LVL160
 10877 068a 01       		.uleb128 0x1
 10878 068b 51       		.byte	0x51
 10879 068c 00       		.byte	0
 10880              	.LVUS141:
 10881 068d 03       		.uleb128 .LVU562
 10882 068e 01       		.uleb128 .LVU567
 10883              	.LLST141:
 10884 068f 08       		.byte	0x8
 10885 0690 65000000 		.long	.LVL160
 10886 0694 07       		.uleb128 .LVL161-.LVL160
 10887 0695 01       		.uleb128 0x1
 10888 0696 56       		.byte	0x56
 10889 0697 00       		.byte	0
 10890              	.LVUS120:
 10891 0698 01       		.uleb128 .LVU511
 10892 0699 00       		.uleb128 .LVU515
 10893 069a 00       		.uleb128 .LVU515
 10894 069b 00       		.uleb128 .LVU516
 10895              	.LLST120:
 10896 069c 06       		.byte	0x6
 10897 069d 65000000 		.long	.LVL145
 10898 06a1 04       		.byte	0x4
 10899 06a2 00       		.uleb128 .LVL145-.LVL145
 10900 06a3 15       		.uleb128 .LVL147-.LVL145
 10901 06a4 01       		.uleb128 0x1
 10902 06a5 55       		.byte	0x55
 10903 06a6 04       		.byte	0x4
 10904 06a7 15       		.uleb128 .LVL147-.LVL145
 10905 06a8 16       		.uleb128 .LVL148-.LVL145
 10906 06a9 01       		.uleb128 0x1
 10907 06aa 50       		.byte	0x50
GAS LISTING /tmp/ccoiMs3n.s 			page 196


 10908 06ab 00       		.byte	0
 10909              	.LVUS122:
 10910 06ac 01       		.uleb128 .LVU487
 10911 06ad 01       		.uleb128 .LVU511
 10912 06ae 00       		.uleb128 .LVU516
 10913 06af 00       		.uleb128 0
 10914              	.LLST122:
 10915 06b0 06       		.byte	0x6
 10916 06b1 28000000 		.long	.LVL140
 10917 06b5 04       		.byte	0x4
 10918 06b6 00       		.uleb128 .LVL140-.LVL140
 10919 06b7 3D       		.uleb128 .LVL145-.LVL140
 10920 06b8 06       		.uleb128 0x6
 10921 06b9 03       		.byte	0x3
 10922 06ba 28000000 		.long	ch_factory+40
 10923 06be 9F       		.byte	0x9f
 10924 06bf 04       		.byte	0x4
 10925 06c0 53       		.uleb128 .LVL148-.LVL140
 10926 06c1 5C       		.uleb128 .LFE234-.LVL140
 10927 06c2 06       		.uleb128 0x6
 10928 06c3 03       		.byte	0x3
 10929 06c4 28000000 		.long	ch_factory+40
 10930 06c8 9F       		.byte	0x9f
 10931 06c9 00       		.byte	0
 10932              	.LVUS123:
 10933 06ca 01       		.uleb128 .LVU487
 10934 06cb 01       		.uleb128 .LVU511
 10935 06cc 00       		.uleb128 .LVU516
 10936 06cd 00       		.uleb128 0
 10937              	.LLST123:
 10938 06ce 06       		.byte	0x6
 10939 06cf 28000000 		.long	.LVL140
 10940 06d3 04       		.byte	0x4
 10941 06d4 00       		.uleb128 .LVL140-.LVL140
 10942 06d5 3D       		.uleb128 .LVL145-.LVL140
 10943 06d6 01       		.uleb128 0x1
 10944 06d7 56       		.byte	0x56
 10945 06d8 04       		.byte	0x4
 10946 06d9 53       		.uleb128 .LVL148-.LVL140
 10947 06da 5C       		.uleb128 .LFE234-.LVL140
 10948 06db 01       		.uleb128 0x1
 10949 06dc 56       		.byte	0x56
 10950 06dd 00       		.byte	0
 10951              	.LVUS124:
 10952 06de 01       		.uleb128 .LVU505
 10953 06df 00       		.uleb128 .LVU510
 10954              	.LLST124:
 10955 06e0 08       		.byte	0x8
 10956 06e1 5D000000 		.long	.LVL144
 10957 06e5 08       		.uleb128 .LVL145-.LVL144
 10958 06e6 01       		.uleb128 0x1
 10959 06e7 55       		.byte	0x55
 10960 06e8 00       		.byte	0
 10961              	.LVUS126:
 10962 06e9 07       		.uleb128 .LVU493
 10963 06ea 01       		.uleb128 .LVU505
 10964 06eb 00       		.uleb128 .LVU516
GAS LISTING /tmp/ccoiMs3n.s 			page 197


 10965 06ec 00       		.uleb128 0
 10966              	.LLST126:
 10967 06ed 06       		.byte	0x6
 10968 06ee 28000000 		.long	.LVL140
 10969 06f2 04       		.byte	0x4
 10970 06f3 00       		.uleb128 .LVL140-.LVL140
 10971 06f4 35       		.uleb128 .LVL144-.LVL140
 10972 06f5 06       		.uleb128 0x6
 10973 06f6 03       		.byte	0x3
 10974 06f7 28000000 		.long	ch_factory+40
 10975 06fb 9F       		.byte	0x9f
 10976 06fc 04       		.byte	0x4
 10977 06fd 53       		.uleb128 .LVL148-.LVL140
 10978 06fe 5C       		.uleb128 .LFE234-.LVL140
 10979 06ff 06       		.uleb128 0x6
 10980 0700 03       		.byte	0x3
 10981 0701 28000000 		.long	ch_factory+40
 10982 0705 9F       		.byte	0x9f
 10983 0706 00       		.byte	0
 10984              	.LVUS127:
 10985 0707 07       		.uleb128 .LVU493
 10986 0708 01       		.uleb128 .LVU505
 10987 0709 00       		.uleb128 .LVU516
 10988 070a 00       		.uleb128 0
 10989              	.LLST127:
 10990 070b 06       		.byte	0x6
 10991 070c 28000000 		.long	.LVL140
 10992 0710 04       		.byte	0x4
 10993 0711 00       		.uleb128 .LVL140-.LVL140
 10994 0712 35       		.uleb128 .LVL144-.LVL140
 10995 0713 01       		.uleb128 0x1
 10996 0714 56       		.byte	0x56
 10997 0715 04       		.byte	0x4
 10998 0716 53       		.uleb128 .LVL148-.LVL140
 10999 0717 5C       		.uleb128 .LFE234-.LVL140
 11000 0718 01       		.uleb128 0x1
 11001 0719 56       		.byte	0x56
 11002 071a 00       		.byte	0
 11003              	.LVUS128:
 11004 071b 00       		.uleb128 .LVU496
 11005 071c 01       		.uleb128 .LVU505
 11006 071d 00       		.uleb128 .LVU516
 11007 071e 00       		.uleb128 .LVU517
 11008              	.LLST128:
 11009 071f 06       		.byte	0x6
 11010 0720 2E000000 		.long	.LVL141
 11011 0724 04       		.byte	0x4
 11012 0725 00       		.uleb128 .LVL141-.LVL141
 11013 0726 2F       		.uleb128 .LVL144-.LVL141
 11014 0727 01       		.uleb128 0x1
 11015 0728 55       		.byte	0x55
 11016 0729 04       		.byte	0x4
 11017 072a 4D       		.uleb128 .LVL148-.LVL141
 11018 072b 54       		.uleb128 .LVL149-.LVL141
 11019 072c 01       		.uleb128 0x1
 11020 072d 55       		.byte	0x55
 11021 072e 00       		.byte	0
GAS LISTING /tmp/ccoiMs3n.s 			page 198


 11022              	.LVUS102:
 11023 072f 01       		.uleb128 .LVU477
 11024 0730 00       		.uleb128 0
 11025              	.LLST102:
 11026 0731 08       		.byte	0x8
 11027 0732 DA000000 		.long	.LVL137
 11028 0736 0D       		.uleb128 .LFE233-.LVL137
 11029 0737 01       		.uleb128 0x1
 11030 0738 57       		.byte	0x57
 11031 0739 00       		.byte	0
 11032              	.LVUS104:
 11033 073a 01       		.uleb128 .LVU422
 11034 073b 00       		.uleb128 .LVU443
 11035 073c 00       		.uleb128 .LVU447
 11036 073d 01       		.uleb128 .LVU477
 11037              	.LLST104:
 11038 073e 06       		.byte	0x6
 11039 073f 28000000 		.long	.LVL120
 11040 0743 04       		.byte	0x4
 11041 0744 00       		.uleb128 .LVL120-.LVL120
 11042 0745 3B       		.uleb128 .LVL126-.LVL120
 11043 0746 06       		.uleb128 0x6
 11044 0747 03       		.byte	0x3
 11045 0748 2C000000 		.long	ch_factory+44
 11046 074c 9F       		.byte	0x9f
 11047 074d 04       		.byte	0x4
 11048 074e 51       		.uleb128 .LVL128-.LVL120
 11049 074f B201     		.uleb128 .LVL137-.LVL120
 11050 0751 06       		.uleb128 0x6
 11051 0752 03       		.byte	0x3
 11052 0753 2C000000 		.long	ch_factory+44
 11053 0757 9F       		.byte	0x9f
 11054 0758 00       		.byte	0
 11055              	.LVUS105:
 11056 0759 01       		.uleb128 .LVU422
 11057 075a 00       		.uleb128 .LVU443
 11058 075b 00       		.uleb128 .LVU447
 11059 075c 01       		.uleb128 .LVU477
 11060              	.LLST105:
 11061 075d 06       		.byte	0x6
 11062 075e 28000000 		.long	.LVL120
 11063 0762 04       		.byte	0x4
 11064 0763 00       		.uleb128 .LVL120-.LVL120
 11065 0764 3B       		.uleb128 .LVL126-.LVL120
 11066 0765 06       		.uleb128 0x6
 11067 0766 03       		.byte	0x3
 11068 0767 28000000 		.long	ch_factory+40
 11069 076b 9F       		.byte	0x9f
 11070 076c 04       		.byte	0x4
 11071 076d 51       		.uleb128 .LVL128-.LVL120
 11072 076e B201     		.uleb128 .LVL137-.LVL120
 11073 0770 06       		.uleb128 0x6
 11074 0771 03       		.byte	0x3
 11075 0772 28000000 		.long	ch_factory+40
 11076 0776 9F       		.byte	0x9f
 11077 0777 00       		.byte	0
 11078              	.LVUS106:
GAS LISTING /tmp/ccoiMs3n.s 			page 199


 11079 0778 01       		.uleb128 .LVU422
 11080 0779 00       		.uleb128 .LVU443
 11081 077a 00       		.uleb128 .LVU447
 11082 077b 01       		.uleb128 .LVU477
 11083              	.LLST106:
 11084 077c 06       		.byte	0x6
 11085 077d 28000000 		.long	.LVL120
 11086 0781 04       		.byte	0x4
 11087 0782 00       		.uleb128 .LVL120-.LVL120
 11088 0783 3B       		.uleb128 .LVL126-.LVL120
 11089 0784 01       		.uleb128 0x1
 11090 0785 56       		.byte	0x56
 11091 0786 04       		.byte	0x4
 11092 0787 51       		.uleb128 .LVL128-.LVL120
 11093 0788 B201     		.uleb128 .LVL137-.LVL120
 11094 078a 01       		.uleb128 0x1
 11095 078b 56       		.byte	0x56
 11096 078c 00       		.byte	0
 11097              	.LVUS107:
 11098 078d 00       		.uleb128 .LVU439
 11099 078e 00       		.uleb128 .LVU442
 11100              	.LLST107:
 11101 078f 08       		.byte	0x8
 11102 0790 5D000000 		.long	.LVL124
 11103 0794 04       		.uleb128 .LVL125-.LVL124
 11104 0795 01       		.uleb128 0x1
 11105 0796 55       		.byte	0x55
 11106 0797 00       		.byte	0
 11107              	.LVUS108:
 11108 0798 07       		.uleb128 .LVU428
 11109 0799 00       		.uleb128 .LVU439
 11110              	.LLST108:
 11111 079a 08       		.byte	0x8
 11112 079b 28000000 		.long	.LVL120
 11113 079f 35       		.uleb128 .LVL124-.LVL120
 11114 07a0 06       		.uleb128 0x6
 11115 07a1 03       		.byte	0x3
 11116 07a2 28000000 		.long	ch_factory+40
 11117 07a6 9F       		.byte	0x9f
 11118 07a7 00       		.byte	0
 11119              	.LVUS109:
 11120 07a8 07       		.uleb128 .LVU428
 11121 07a9 00       		.uleb128 .LVU439
 11122              	.LLST109:
 11123 07aa 08       		.byte	0x8
 11124 07ab 28000000 		.long	.LVL120
 11125 07af 35       		.uleb128 .LVL124-.LVL120
 11126 07b0 01       		.uleb128 0x1
 11127 07b1 56       		.byte	0x56
 11128 07b2 00       		.byte	0
 11129              	.LVUS110:
 11130 07b3 00       		.uleb128 .LVU431
 11131 07b4 00       		.uleb128 .LVU439
 11132              	.LLST110:
 11133 07b5 08       		.byte	0x8
 11134 07b6 2E000000 		.long	.LVL121
 11135 07ba 2F       		.uleb128 .LVL124-.LVL121
GAS LISTING /tmp/ccoiMs3n.s 			page 200


 11136 07bb 01       		.uleb128 0x1
 11137 07bc 55       		.byte	0x55
 11138 07bd 00       		.byte	0
 11139              	.LVUS112:
 11140 07be 00       		.uleb128 .LVU447
 11141 07bf 01       		.uleb128 .LVU477
 11142              	.LLST112:
 11143 07c0 08       		.byte	0x8
 11144 07c1 79000000 		.long	.LVL128
 11145 07c5 61       		.uleb128 .LVL137-.LVL128
 11146 07c6 06       		.uleb128 0x6
 11147 07c7 03       		.byte	0x3
 11148 07c8 2C000000 		.long	ch_factory+44
 11149 07cc 9F       		.byte	0x9f
 11150 07cd 00       		.byte	0
 11151              	.LVUS113:
 11152 07ce 00       		.uleb128 .LVU447
 11153 07cf 01       		.uleb128 .LVU477
 11154              	.LLST113:
 11155 07d0 08       		.byte	0x8
 11156 07d1 79000000 		.long	.LVL128
 11157 07d5 61       		.uleb128 .LVL137-.LVL128
 11158 07d6 06       		.uleb128 0x6
 11159 07d7 03       		.byte	0x3
 11160 07d8 28000000 		.long	ch_factory+40
 11161 07dc 9F       		.byte	0x9f
 11162 07dd 00       		.byte	0
 11163              	.LVUS114:
 11164 07de 00       		.uleb128 .LVU447
 11165 07df 01       		.uleb128 .LVU477
 11166              	.LLST114:
 11167 07e0 08       		.byte	0x8
 11168 07e1 79000000 		.long	.LVL128
 11169 07e5 61       		.uleb128 .LVL137-.LVL128
 11170 07e6 01       		.uleb128 0x1
 11171 07e7 56       		.byte	0x56
 11172 07e8 00       		.byte	0
 11173              	.LVUS115:
 11174 07e9 00       		.uleb128 .LVU452
 11175 07ea 00       		.uleb128 .LVU454
 11176 07eb 00       		.uleb128 .LVU454
 11177 07ec 01       		.uleb128 .LVU477
 11178              	.LLST115:
 11179 07ed 06       		.byte	0x6
 11180 07ee 94000000 		.long	.LVL130
 11181 07f2 04       		.byte	0x4
 11182 07f3 00       		.uleb128 .LVL130-.LVL130
 11183 07f4 06       		.uleb128 .LVL131-.LVL130
 11184 07f5 01       		.uleb128 0x1
 11185 07f6 50       		.byte	0x50
 11186 07f7 04       		.byte	0x4
 11187 07f8 06       		.uleb128 .LVL131-.LVL130
 11188 07f9 46       		.uleb128 .LVL137-.LVL130
 11189 07fa 01       		.uleb128 0x1
 11190 07fb 57       		.byte	0x57
 11191 07fc 00       		.byte	0
 11192              	.LVUS116:
GAS LISTING /tmp/ccoiMs3n.s 			page 201


 11193 07fd 00       		.uleb128 .LVU454
 11194 07fe 01       		.uleb128 .LVU458
 11195 07ff 01       		.uleb128 .LVU458
 11196 0800 00       		.uleb128 .LVU465
 11197 0801 00       		.uleb128 .LVU465
 11198 0802 00       		.uleb128 .LVU466
 11199              	.LLST116:
 11200 0803 06       		.byte	0x6
 11201 0804 9A000000 		.long	.LVL131
 11202 0808 04       		.byte	0x4
 11203 0809 00       		.uleb128 .LVL131-.LVL131
 11204 080a 0A       		.uleb128 .LVL132-.LVL131
 11205 080b 08       		.uleb128 0x8
 11206 080c 77       		.byte	0x77
 11207 080d 00       		.sleb128 0
 11208 080e 70       		.byte	0x70
 11209 080f 00       		.sleb128 0
 11210 0810 22       		.byte	0x22
 11211 0811 23       		.byte	0x23
 11212 0812 08       		.uleb128 0x8
 11213 0813 9F       		.byte	0x9f
 11214 0814 04       		.byte	0x4
 11215 0815 0A       		.uleb128 .LVL132-.LVL131
 11216 0816 1C       		.uleb128 .LVL135-.LVL131
 11217 0817 08       		.uleb128 0x8
 11218 0818 77       		.byte	0x77
 11219 0819 00       		.sleb128 0
 11220 081a 70       		.byte	0x70
 11221 081b 00       		.sleb128 0
 11222 081c 22       		.byte	0x22
 11223 081d 23       		.byte	0x23
 11224 081e 09       		.uleb128 0x9
 11225 081f 9F       		.byte	0x9f
 11226 0820 04       		.byte	0x4
 11227 0821 1C       		.uleb128 .LVL135-.LVL131
 11228 0822 20       		.uleb128 .LVL136-.LVL131
 11229 0823 08       		.uleb128 0x8
 11230 0824 77       		.byte	0x77
 11231 0825 00       		.sleb128 0
 11232 0826 70       		.byte	0x70
 11233 0827 00       		.sleb128 0
 11234 0828 22       		.byte	0x22
 11235 0829 23       		.byte	0x23
 11236 082a 08       		.uleb128 0x8
 11237 082b 9F       		.byte	0x9f
 11238 082c 00       		.byte	0
 11239              	.LVUS117:
 11240 082d 00       		.uleb128 .LVU454
 11241 082e 02       		.uleb128 .LVU456
 11242 082f 02       		.uleb128 .LVU456
 11243 0830 00       		.uleb128 .LVU465
 11244 0831 00       		.uleb128 .LVU465
 11245 0832 00       		.uleb128 .LVU466
 11246              	.LLST117:
 11247 0833 06       		.byte	0x6
 11248 0834 9A000000 		.long	.LVL131
 11249 0838 04       		.byte	0x4
GAS LISTING /tmp/ccoiMs3n.s 			page 202


 11250 0839 00       		.uleb128 .LVL131-.LVL131
 11251 083a 00       		.uleb128 .LVL131-.LVL131
 11252 083b 06       		.uleb128 0x6
 11253 083c 76       		.byte	0x76
 11254 083d 00       		.sleb128 0
 11255 083e 70       		.byte	0x70
 11256 083f 00       		.sleb128 0
 11257 0840 22       		.byte	0x22
 11258 0841 9F       		.byte	0x9f
 11259 0842 04       		.byte	0x4
 11260 0843 00       		.uleb128 .LVL131-.LVL131
 11261 0844 1C       		.uleb128 .LVL135-.LVL131
 11262 0845 08       		.uleb128 0x8
 11263 0846 76       		.byte	0x76
 11264 0847 00       		.sleb128 0
 11265 0848 70       		.byte	0x70
 11266 0849 00       		.sleb128 0
 11267 084a 22       		.byte	0x22
 11268 084b 23       		.byte	0x23
 11269 084c 01       		.uleb128 0x1
 11270 084d 9F       		.byte	0x9f
 11271 084e 04       		.byte	0x4
 11272 084f 1C       		.uleb128 .LVL135-.LVL131
 11273 0850 20       		.uleb128 .LVL136-.LVL131
 11274 0851 06       		.uleb128 0x6
 11275 0852 76       		.byte	0x76
 11276 0853 00       		.sleb128 0
 11277 0854 70       		.byte	0x70
 11278 0855 00       		.sleb128 0
 11279 0856 22       		.byte	0x22
 11280 0857 9F       		.byte	0x9f
 11281 0858 00       		.byte	0
 11282              	.LVUS118:
 11283 0859 00       		.uleb128 .LVU454
 11284 085a 01       		.uleb128 .LVU461
 11285 085b 01       		.uleb128 .LVU461
 11286 085c 00       		.uleb128 .LVU465
 11287 085d 00       		.uleb128 .LVU465
 11288 085e 00       		.uleb128 .LVU466
 11289              	.LLST118:
 11290 085f 06       		.byte	0x6
 11291 0860 9A000000 		.long	.LVL131
 11292 0864 04       		.byte	0x4
 11293 0865 00       		.uleb128 .LVL131-.LVL131
 11294 0866 10       		.uleb128 .LVL133-.LVL131
 11295 0867 05       		.uleb128 0x5
 11296 0868 38       		.byte	0x38
 11297 0869 70       		.byte	0x70
 11298 086a 00       		.sleb128 0
 11299 086b 1C       		.byte	0x1c
 11300 086c 9F       		.byte	0x9f
 11301 086d 04       		.byte	0x4
 11302 086e 10       		.uleb128 .LVL133-.LVL131
 11303 086f 1C       		.uleb128 .LVL135-.LVL131
 11304 0870 05       		.uleb128 0x5
 11305 0871 37       		.byte	0x37
 11306 0872 70       		.byte	0x70
GAS LISTING /tmp/ccoiMs3n.s 			page 203


 11307 0873 00       		.sleb128 0
 11308 0874 1C       		.byte	0x1c
 11309 0875 9F       		.byte	0x9f
 11310 0876 04       		.byte	0x4
 11311 0877 1C       		.uleb128 .LVL135-.LVL131
 11312 0878 20       		.uleb128 .LVL136-.LVL131
 11313 0879 05       		.uleb128 0x5
 11314 087a 38       		.byte	0x38
 11315 087b 70       		.byte	0x70
 11316 087c 00       		.sleb128 0
 11317 087d 1C       		.byte	0x1c
 11318 087e 9F       		.byte	0x9f
 11319 087f 00       		.byte	0
 11320              	.LVUS119:
 11321 0880 00       		.uleb128 .LVU457
 11322 0881 00       		.uleb128 .LVU464
 11323 0882 00       		.uleb128 .LVU464
 11324 0883 00       		.uleb128 .LVU465
 11325 0884 00       		.uleb128 .LVU465
 11326 0885 00       		.uleb128 .LVU466
 11327              	.LLST119:
 11328 0886 06       		.byte	0x6
 11329 0887 A4000000 		.long	.LVL132
 11330 088b 04       		.byte	0x4
 11331 088c 00       		.uleb128 .LVL132-.LVL132
 11332 088d 0F       		.uleb128 .LVL134-.LVL132
 11333 088e 01       		.uleb128 0x1
 11334 088f 52       		.byte	0x52
 11335 0890 04       		.byte	0x4
 11336 0891 0F       		.uleb128 .LVL134-.LVL132
 11337 0892 12       		.uleb128 .LVL135-.LVL132
 11338 0893 07       		.uleb128 0x7
 11339 0894 77       		.byte	0x77
 11340 0895 00       		.sleb128 0
 11341 0896 70       		.byte	0x70
 11342 0897 00       		.sleb128 0
 11343 0898 22       		.byte	0x22
 11344 0899 23       		.byte	0x23
 11345 089a 08       		.uleb128 0x8
 11346 089b 04       		.byte	0x4
 11347 089c 12       		.uleb128 .LVL135-.LVL132
 11348 089d 16       		.uleb128 .LVL136-.LVL132
 11349 089e 07       		.uleb128 0x7
 11350 089f 77       		.byte	0x77
 11351 08a0 00       		.sleb128 0
 11352 08a1 70       		.byte	0x70
 11353 08a2 00       		.sleb128 0
 11354 08a3 22       		.byte	0x22
 11355 08a4 23       		.byte	0x23
 11356 08a5 07       		.uleb128 0x7
 11357 08a6 00       		.byte	0
 11358              	.LVUS90:
 11359 08a7 01       		.uleb128 .LVU390
 11360 08a8 00       		.uleb128 .LVU394
 11361 08a9 00       		.uleb128 .LVU394
 11362 08aa 00       		.uleb128 .LVU395
 11363              	.LLST90:
GAS LISTING /tmp/ccoiMs3n.s 			page 204


 11364 08ab 06       		.byte	0x6
 11365 08ac 3E000000 		.long	.LVL111
 11366 08b0 04       		.byte	0x4
 11367 08b1 00       		.uleb128 .LVL111-.LVL111
 11368 08b2 12       		.uleb128 .LVL113-.LVL111
 11369 08b3 01       		.uleb128 0x1
 11370 08b4 55       		.byte	0x55
 11371 08b5 04       		.byte	0x4
 11372 08b6 12       		.uleb128 .LVL113-.LVL111
 11373 08b7 13       		.uleb128 .LVL114-.LVL111
 11374 08b8 01       		.uleb128 0x1
 11375 08b9 50       		.byte	0x50
 11376 08ba 00       		.byte	0
 11377              	.LVUS92:
 11378 08bb 01       		.uleb128 .LVU370
 11379 08bc 01       		.uleb128 .LVU390
 11380 08bd 00       		.uleb128 .LVU395
 11381 08be 00       		.uleb128 0
 11382              	.LLST92:
 11383 08bf 06       		.byte	0x6
 11384 08c0 22000000 		.long	.LVL107
 11385 08c4 04       		.byte	0x4
 11386 08c5 00       		.uleb128 .LVL107-.LVL107
 11387 08c6 1C       		.uleb128 .LVL111-.LVL107
 11388 08c7 06       		.uleb128 0x6
 11389 08c8 03       		.byte	0x3
 11390 08c9 24000000 		.long	ch_factory+36
 11391 08cd 9F       		.byte	0x9f
 11392 08ce 04       		.byte	0x4
 11393 08cf 2F       		.uleb128 .LVL114-.LVL107
 11394 08d0 55       		.uleb128 .LFE232-.LVL107
 11395 08d1 06       		.uleb128 0x6
 11396 08d2 03       		.byte	0x3
 11397 08d3 24000000 		.long	ch_factory+36
 11398 08d7 9F       		.byte	0x9f
 11399 08d8 00       		.byte	0
 11400              	.LVUS93:
 11401 08d9 01       		.uleb128 .LVU370
 11402 08da 01       		.uleb128 .LVU390
 11403 08db 00       		.uleb128 .LVU395
 11404 08dc 00       		.uleb128 0
 11405              	.LLST93:
 11406 08dd 06       		.byte	0x6
 11407 08de 22000000 		.long	.LVL107
 11408 08e2 04       		.byte	0x4
 11409 08e3 00       		.uleb128 .LVL107-.LVL107
 11410 08e4 1C       		.uleb128 .LVL111-.LVL107
 11411 08e5 01       		.uleb128 0x1
 11412 08e6 56       		.byte	0x56
 11413 08e7 04       		.byte	0x4
 11414 08e8 2F       		.uleb128 .LVL114-.LVL107
 11415 08e9 55       		.uleb128 .LFE232-.LVL107
 11416 08ea 01       		.uleb128 0x1
 11417 08eb 56       		.byte	0x56
 11418 08ec 00       		.byte	0
 11419              	.LVUS94:
 11420 08ed 00       		.uleb128 .LVU395
GAS LISTING /tmp/ccoiMs3n.s 			page 205


 11421 08ee 00       		.uleb128 .LVU414
 11422              	.LLST94:
 11423 08ef 08       		.byte	0x8
 11424 08f0 51000000 		.long	.LVL114
 11425 08f4 20       		.uleb128 .LVL118-1-.LVL114
 11426 08f5 01       		.uleb128 0x1
 11427 08f6 51       		.byte	0x51
 11428 08f7 00       		.byte	0
 11429              	.LVUS95:
 11430 08f8 00       		.uleb128 .LVU389
 11431 08f9 01       		.uleb128 .LVU390
 11432 08fa 00       		.uleb128 .LVU402
 11433 08fb 00       		.uleb128 0
 11434              	.LLST95:
 11435 08fc 06       		.byte	0x6
 11436 08fd 3E000000 		.long	.LVL111
 11437 0901 04       		.byte	0x4
 11438 0902 00       		.uleb128 .LVL111-.LVL111
 11439 0903 00       		.uleb128 .LVL111-.LVL111
 11440 0904 01       		.uleb128 0x1
 11441 0905 55       		.byte	0x55
 11442 0906 04       		.byte	0x4
 11443 0907 23       		.uleb128 .LVL115-.LVL111
 11444 0908 39       		.uleb128 .LFE232-.LVL111
 11445 0909 01       		.uleb128 0x1
 11446 090a 55       		.byte	0x55
 11447 090b 00       		.byte	0
 11448              	.LVUS96:
 11449 090c 08       		.uleb128 .LVU377
 11450 090d 00       		.uleb128 .LVU389
 11451              	.LLST96:
 11452 090e 08       		.byte	0x8
 11453 090f 22000000 		.long	.LVL107
 11454 0913 1C       		.uleb128 .LVL111-.LVL107
 11455 0914 06       		.uleb128 0x6
 11456 0915 03       		.byte	0x3
 11457 0916 24000000 		.long	ch_factory+36
 11458 091a 9F       		.byte	0x9f
 11459 091b 00       		.byte	0
 11460              	.LVUS97:
 11461 091c 08       		.uleb128 .LVU377
 11462 091d 00       		.uleb128 .LVU389
 11463              	.LLST97:
 11464 091e 08       		.byte	0x8
 11465 091f 22000000 		.long	.LVL107
 11466 0923 1C       		.uleb128 .LVL111-.LVL107
 11467 0924 01       		.uleb128 0x1
 11468 0925 56       		.byte	0x56
 11469 0926 00       		.byte	0
 11470              	.LVUS98:
 11471 0927 0A       		.uleb128 .LVU379
 11472 0928 00       		.uleb128 .LVU383
 11473 0929 00       		.uleb128 .LVU383
 11474 092a 00       		.uleb128 .LVU385
 11475 092b 00       		.uleb128 .LVU385
 11476 092c 00       		.uleb128 .LVU387
 11477 092d 00       		.uleb128 .LVU387
GAS LISTING /tmp/ccoiMs3n.s 			page 206


 11478 092e 00       		.uleb128 .LVU389
 11479              	.LLST98:
 11480 092f 06       		.byte	0x6
 11481 0930 22000000 		.long	.LVL107
 11482 0934 04       		.byte	0x4
 11483 0935 00       		.uleb128 .LVL107-.LVL107
 11484 0936 0E       		.uleb128 .LVL108-.LVL107
 11485 0937 06       		.uleb128 0x6
 11486 0938 03       		.byte	0x3
 11487 0939 24000000 		.long	ch_factory+36
 11488 093d 9F       		.byte	0x9f
 11489 093e 04       		.byte	0x4
 11490 093f 0E       		.uleb128 .LVL108-.LVL107
 11491 0940 12       		.uleb128 .LVL109-.LVL107
 11492 0941 01       		.uleb128 0x1
 11493 0942 51       		.byte	0x51
 11494 0943 04       		.byte	0x4
 11495 0944 12       		.uleb128 .LVL109-.LVL107
 11496 0945 16       		.uleb128 .LVL110-.LVL107
 11497 0946 01       		.uleb128 0x1
 11498 0947 50       		.byte	0x50
 11499 0948 04       		.byte	0x4
 11500 0949 16       		.uleb128 .LVL110-.LVL107
 11501 094a 1C       		.uleb128 .LVL111-.LVL107
 11502 094b 01       		.uleb128 0x1
 11503 094c 51       		.byte	0x51
 11504 094d 00       		.byte	0
 11505              	.LVUS100:
 11506 094e 01       		.uleb128 .LVU405
 11507 094f 01       		.uleb128 .LVU412
 11508              	.LLST100:
 11509 0950 08       		.byte	0x8
 11510 0951 65000000 		.long	.LVL116
 11511 0955 07       		.uleb128 .LVL117-.LVL116
 11512 0956 01       		.uleb128 0x1
 11513 0957 51       		.byte	0x51
 11514 0958 00       		.byte	0
 11515              	.LVUS101:
 11516 0959 03       		.uleb128 .LVU407
 11517 095a 01       		.uleb128 .LVU412
 11518              	.LLST101:
 11519 095b 08       		.byte	0x8
 11520 095c 65000000 		.long	.LVL116
 11521 0960 07       		.uleb128 .LVL117-.LVL116
 11522 0961 01       		.uleb128 0x1
 11523 0962 56       		.byte	0x56
 11524 0963 00       		.byte	0
 11525              	.LVUS81:
 11526 0964 01       		.uleb128 .LVU356
 11527 0965 00       		.uleb128 .LVU360
 11528 0966 00       		.uleb128 .LVU360
 11529 0967 00       		.uleb128 .LVU361
 11530              	.LLST81:
 11531 0968 06       		.byte	0x6
 11532 0969 65000000 		.long	.LVL101
 11533 096d 04       		.byte	0x4
 11534 096e 00       		.uleb128 .LVL101-.LVL101
GAS LISTING /tmp/ccoiMs3n.s 			page 207


 11535 096f 15       		.uleb128 .LVL103-.LVL101
 11536 0970 01       		.uleb128 0x1
 11537 0971 55       		.byte	0x55
 11538 0972 04       		.byte	0x4
 11539 0973 15       		.uleb128 .LVL103-.LVL101
 11540 0974 16       		.uleb128 .LVL104-.LVL101
 11541 0975 01       		.uleb128 0x1
 11542 0976 50       		.byte	0x50
 11543 0977 00       		.byte	0
 11544              	.LVUS83:
 11545 0978 01       		.uleb128 .LVU332
 11546 0979 01       		.uleb128 .LVU356
 11547 097a 00       		.uleb128 .LVU361
 11548 097b 00       		.uleb128 0
 11549              	.LLST83:
 11550 097c 06       		.byte	0x6
 11551 097d 28000000 		.long	.LVL96
 11552 0981 04       		.byte	0x4
 11553 0982 00       		.uleb128 .LVL96-.LVL96
 11554 0983 3D       		.uleb128 .LVL101-.LVL96
 11555 0984 06       		.uleb128 0x6
 11556 0985 03       		.byte	0x3
 11557 0986 24000000 		.long	ch_factory+36
 11558 098a 9F       		.byte	0x9f
 11559 098b 04       		.byte	0x4
 11560 098c 53       		.uleb128 .LVL104-.LVL96
 11561 098d 5C       		.uleb128 .LFE231-.LVL96
 11562 098e 06       		.uleb128 0x6
 11563 098f 03       		.byte	0x3
 11564 0990 24000000 		.long	ch_factory+36
 11565 0994 9F       		.byte	0x9f
 11566 0995 00       		.byte	0
 11567              	.LVUS84:
 11568 0996 01       		.uleb128 .LVU332
 11569 0997 01       		.uleb128 .LVU356
 11570 0998 00       		.uleb128 .LVU361
 11571 0999 00       		.uleb128 0
 11572              	.LLST84:
 11573 099a 06       		.byte	0x6
 11574 099b 28000000 		.long	.LVL96
 11575 099f 04       		.byte	0x4
 11576 09a0 00       		.uleb128 .LVL96-.LVL96
 11577 09a1 3D       		.uleb128 .LVL101-.LVL96
 11578 09a2 01       		.uleb128 0x1
 11579 09a3 56       		.byte	0x56
 11580 09a4 04       		.byte	0x4
 11581 09a5 53       		.uleb128 .LVL104-.LVL96
 11582 09a6 5C       		.uleb128 .LFE231-.LVL96
 11583 09a7 01       		.uleb128 0x1
 11584 09a8 56       		.byte	0x56
 11585 09a9 00       		.byte	0
 11586              	.LVUS85:
 11587 09aa 01       		.uleb128 .LVU350
 11588 09ab 00       		.uleb128 .LVU355
 11589              	.LLST85:
 11590 09ac 08       		.byte	0x8
 11591 09ad 5D000000 		.long	.LVL100
GAS LISTING /tmp/ccoiMs3n.s 			page 208


 11592 09b1 08       		.uleb128 .LVL101-.LVL100
 11593 09b2 01       		.uleb128 0x1
 11594 09b3 55       		.byte	0x55
 11595 09b4 00       		.byte	0
 11596              	.LVUS87:
 11597 09b5 07       		.uleb128 .LVU338
 11598 09b6 01       		.uleb128 .LVU350
 11599 09b7 00       		.uleb128 .LVU361
 11600 09b8 00       		.uleb128 0
 11601              	.LLST87:
 11602 09b9 06       		.byte	0x6
 11603 09ba 28000000 		.long	.LVL96
 11604 09be 04       		.byte	0x4
 11605 09bf 00       		.uleb128 .LVL96-.LVL96
 11606 09c0 35       		.uleb128 .LVL100-.LVL96
 11607 09c1 06       		.uleb128 0x6
 11608 09c2 03       		.byte	0x3
 11609 09c3 24000000 		.long	ch_factory+36
 11610 09c7 9F       		.byte	0x9f
 11611 09c8 04       		.byte	0x4
 11612 09c9 53       		.uleb128 .LVL104-.LVL96
 11613 09ca 5C       		.uleb128 .LFE231-.LVL96
 11614 09cb 06       		.uleb128 0x6
 11615 09cc 03       		.byte	0x3
 11616 09cd 24000000 		.long	ch_factory+36
 11617 09d1 9F       		.byte	0x9f
 11618 09d2 00       		.byte	0
 11619              	.LVUS88:
 11620 09d3 07       		.uleb128 .LVU338
 11621 09d4 01       		.uleb128 .LVU350
 11622 09d5 00       		.uleb128 .LVU361
 11623 09d6 00       		.uleb128 0
 11624              	.LLST88:
 11625 09d7 06       		.byte	0x6
 11626 09d8 28000000 		.long	.LVL96
 11627 09dc 04       		.byte	0x4
 11628 09dd 00       		.uleb128 .LVL96-.LVL96
 11629 09de 35       		.uleb128 .LVL100-.LVL96
 11630 09df 01       		.uleb128 0x1
 11631 09e0 56       		.byte	0x56
 11632 09e1 04       		.byte	0x4
 11633 09e2 53       		.uleb128 .LVL104-.LVL96
 11634 09e3 5C       		.uleb128 .LFE231-.LVL96
 11635 09e4 01       		.uleb128 0x1
 11636 09e5 56       		.byte	0x56
 11637 09e6 00       		.byte	0
 11638              	.LVUS89:
 11639 09e7 00       		.uleb128 .LVU341
 11640 09e8 01       		.uleb128 .LVU350
 11641 09e9 00       		.uleb128 .LVU361
 11642 09ea 00       		.uleb128 .LVU362
 11643              	.LLST89:
 11644 09eb 06       		.byte	0x6
 11645 09ec 2E000000 		.long	.LVL97
 11646 09f0 04       		.byte	0x4
 11647 09f1 00       		.uleb128 .LVL97-.LVL97
 11648 09f2 2F       		.uleb128 .LVL100-.LVL97
GAS LISTING /tmp/ccoiMs3n.s 			page 209


 11649 09f3 01       		.uleb128 0x1
 11650 09f4 55       		.byte	0x55
 11651 09f5 04       		.byte	0x4
 11652 09f6 4D       		.uleb128 .LVL104-.LVL97
 11653 09f7 54       		.uleb128 .LVL105-.LVL97
 11654 09f8 01       		.uleb128 0x1
 11655 09f9 55       		.byte	0x55
 11656 09fa 00       		.byte	0
 11657              	.LVUS76:
 11658 09fb 00       		.uleb128 .LVU311
 11659 09fc 00       		.uleb128 .LVU318
 11660 09fd 00       		.uleb128 .LVU318
 11661 09fe 00       		.uleb128 .LVU324
 11662 09ff 00       		.uleb128 .LVU324
 11663 0a00 00       		.uleb128 0
 11664              	.LLST76:
 11665 0a01 06       		.byte	0x6
 11666 0a02 40000000 		.long	.LVL88
 11667 0a06 04       		.byte	0x4
 11668 0a07 00       		.uleb128 .LVL88-.LVL88
 11669 0a08 0A       		.uleb128 .LVL90-.LVL88
 11670 0a09 01       		.uleb128 0x1
 11671 0a0a 50       		.byte	0x50
 11672 0a0b 04       		.byte	0x4
 11673 0a0c 0A       		.uleb128 .LVL90-.LVL88
 11674 0a0d 26       		.uleb128 .LVL94-.LVL88
 11675 0a0e 01       		.uleb128 0x1
 11676 0a0f 56       		.byte	0x56
 11677 0a10 04       		.byte	0x4
 11678 0a11 26       		.uleb128 .LVL94-.LVL88
 11679 0a12 29       		.uleb128 .LFE230-.LVL88
 11680 0a13 01       		.uleb128 0x1
 11681 0a14 50       		.byte	0x50
 11682 0a15 00       		.byte	0
 11683              	.LVUS78:
 11684 0a16 01       		.uleb128 .LVU314
 11685 0a17 00       		.uleb128 .LVU320
 11686              	.LLST78:
 11687 0a18 08       		.byte	0x8
 11688 0a19 44000000 		.long	.LVL89
 11689 0a1d 12       		.uleb128 .LVL92-.LVL89
 11690 0a1e 01       		.uleb128 0x1
 11691 0a1f 55       		.byte	0x55
 11692 0a20 00       		.byte	0
 11693              	.LVUS79:
 11694 0a21 01       		.uleb128 .LVU314
 11695 0a22 00       		.uleb128 .LVU320
 11696              	.LLST79:
 11697 0a23 08       		.byte	0x8
 11698 0a24 44000000 		.long	.LVL89
 11699 0a28 12       		.uleb128 .LVL92-.LVL89
 11700 0a29 02       		.uleb128 0x2
 11701 0a2a 30       		.byte	0x30
 11702 0a2b 9F       		.byte	0x9f
 11703 0a2c 00       		.byte	0
 11704              	.LVUS80:
 11705 0a2d 01       		.uleb128 .LVU314
GAS LISTING /tmp/ccoiMs3n.s 			page 210


 11706 0a2e 00       		.uleb128 .LVU318
 11707 0a2f 00       		.uleb128 .LVU318
 11708 0a30 00       		.uleb128 .LVU319
 11709 0a31 00       		.uleb128 .LVU319
 11710 0a32 00       		.uleb128 .LVU320
 11711              	.LLST80:
 11712 0a33 06       		.byte	0x6
 11713 0a34 44000000 		.long	.LVL89
 11714 0a38 04       		.byte	0x4
 11715 0a39 00       		.uleb128 .LVL89-.LVL89
 11716 0a3a 06       		.uleb128 .LVL90-.LVL89
 11717 0a3b 03       		.uleb128 0x3
 11718 0a3c 70       		.byte	0x70
 11719 0a3d 10       		.sleb128 16
 11720 0a3e 9F       		.byte	0x9f
 11721 0a3f 04       		.byte	0x4
 11722 0a40 06       		.uleb128 .LVL90-.LVL89
 11723 0a41 0E       		.uleb128 .LVL91-1-.LVL89
 11724 0a42 01       		.uleb128 0x1
 11725 0a43 50       		.byte	0x50
 11726 0a44 04       		.byte	0x4
 11727 0a45 0E       		.uleb128 .LVL91-1-.LVL89
 11728 0a46 12       		.uleb128 .LVL92-.LVL89
 11729 0a47 03       		.uleb128 0x3
 11730 0a48 76       		.byte	0x76
 11731 0a49 10       		.sleb128 16
 11732 0a4a 9F       		.byte	0x9f
 11733 0a4b 00       		.byte	0
 11734              	.LVUS63:
 11735 0a4c 01       		.uleb128 .LVU276
 11736 0a4d 00       		.uleb128 .LVU280
 11737 0a4e 00       		.uleb128 .LVU280
 11738 0a4f 00       		.uleb128 .LVU281
 11739              	.LLST63:
 11740 0a50 06       		.byte	0x6
 11741 0a51 3E000000 		.long	.LVL77
 11742 0a55 04       		.byte	0x4
 11743 0a56 00       		.uleb128 .LVL77-.LVL77
 11744 0a57 12       		.uleb128 .LVL79-.LVL77
 11745 0a58 01       		.uleb128 0x1
 11746 0a59 55       		.byte	0x55
 11747 0a5a 04       		.byte	0x4
 11748 0a5b 12       		.uleb128 .LVL79-.LVL77
 11749 0a5c 13       		.uleb128 .LVL80-.LVL77
 11750 0a5d 01       		.uleb128 0x1
 11751 0a5e 50       		.byte	0x50
 11752 0a5f 00       		.byte	0
 11753              	.LVUS65:
 11754 0a60 01       		.uleb128 .LVU256
 11755 0a61 01       		.uleb128 .LVU276
 11756 0a62 00       		.uleb128 .LVU281
 11757 0a63 00       		.uleb128 0
 11758              	.LLST65:
 11759 0a64 06       		.byte	0x6
 11760 0a65 22000000 		.long	.LVL73
 11761 0a69 04       		.byte	0x4
 11762 0a6a 00       		.uleb128 .LVL73-.LVL73
GAS LISTING /tmp/ccoiMs3n.s 			page 211


 11763 0a6b 1C       		.uleb128 .LVL77-.LVL73
 11764 0a6c 06       		.uleb128 0x6
 11765 0a6d 03       		.byte	0x3
 11766 0a6e 14000000 		.long	ch_factory+20
 11767 0a72 9F       		.byte	0x9f
 11768 0a73 04       		.byte	0x4
 11769 0a74 2F       		.uleb128 .LVL80-.LVL73
 11770 0a75 59       		.uleb128 .LFE229-.LVL73
 11771 0a76 06       		.uleb128 0x6
 11772 0a77 03       		.byte	0x3
 11773 0a78 14000000 		.long	ch_factory+20
 11774 0a7c 9F       		.byte	0x9f
 11775 0a7d 00       		.byte	0
 11776              	.LVUS66:
 11777 0a7e 01       		.uleb128 .LVU256
 11778 0a7f 01       		.uleb128 .LVU276
 11779 0a80 00       		.uleb128 .LVU281
 11780 0a81 00       		.uleb128 0
 11781              	.LLST66:
 11782 0a82 06       		.byte	0x6
 11783 0a83 22000000 		.long	.LVL73
 11784 0a87 04       		.byte	0x4
 11785 0a88 00       		.uleb128 .LVL73-.LVL73
 11786 0a89 1C       		.uleb128 .LVL77-.LVL73
 11787 0a8a 06       		.uleb128 0x6
 11788 0a8b 03       		.byte	0x3
 11789 0a8c 10000000 		.long	ch_factory+16
 11790 0a90 9F       		.byte	0x9f
 11791 0a91 04       		.byte	0x4
 11792 0a92 2F       		.uleb128 .LVL80-.LVL73
 11793 0a93 59       		.uleb128 .LFE229-.LVL73
 11794 0a94 06       		.uleb128 0x6
 11795 0a95 03       		.byte	0x3
 11796 0a96 10000000 		.long	ch_factory+16
 11797 0a9a 9F       		.byte	0x9f
 11798 0a9b 00       		.byte	0
 11799              	.LVUS67:
 11800 0a9c 01       		.uleb128 .LVU256
 11801 0a9d 01       		.uleb128 .LVU276
 11802 0a9e 00       		.uleb128 .LVU281
 11803 0a9f 00       		.uleb128 0
 11804              	.LLST67:
 11805 0aa0 06       		.byte	0x6
 11806 0aa1 22000000 		.long	.LVL73
 11807 0aa5 04       		.byte	0x4
 11808 0aa6 00       		.uleb128 .LVL73-.LVL73
 11809 0aa7 1C       		.uleb128 .LVL77-.LVL73
 11810 0aa8 01       		.uleb128 0x1
 11811 0aa9 56       		.byte	0x56
 11812 0aaa 04       		.byte	0x4
 11813 0aab 2F       		.uleb128 .LVL80-.LVL73
 11814 0aac 59       		.uleb128 .LFE229-.LVL73
 11815 0aad 01       		.uleb128 0x1
 11816 0aae 56       		.byte	0x56
 11817 0aaf 00       		.byte	0
 11818              	.LVUS68:
 11819 0ab0 00       		.uleb128 .LVU281
GAS LISTING /tmp/ccoiMs3n.s 			page 212


 11820 0ab1 00       		.uleb128 .LVU300
 11821              	.LLST68:
 11822 0ab2 08       		.byte	0x8
 11823 0ab3 51000000 		.long	.LVL80
 11824 0ab7 24       		.uleb128 .LVL84-1-.LVL80
 11825 0ab8 01       		.uleb128 0x1
 11826 0ab9 51       		.byte	0x51
 11827 0aba 00       		.byte	0
 11828              	.LVUS69:
 11829 0abb 00       		.uleb128 .LVU275
 11830 0abc 01       		.uleb128 .LVU276
 11831 0abd 00       		.uleb128 .LVU288
 11832 0abe 00       		.uleb128 0
 11833              	.LLST69:
 11834 0abf 06       		.byte	0x6
 11835 0ac0 3E000000 		.long	.LVL77
 11836 0ac4 04       		.byte	0x4
 11837 0ac5 00       		.uleb128 .LVL77-.LVL77
 11838 0ac6 00       		.uleb128 .LVL77-.LVL77
 11839 0ac7 01       		.uleb128 0x1
 11840 0ac8 55       		.byte	0x55
 11841 0ac9 04       		.byte	0x4
 11842 0aca 23       		.uleb128 .LVL81-.LVL77
 11843 0acb 3D       		.uleb128 .LFE229-.LVL77
 11844 0acc 01       		.uleb128 0x1
 11845 0acd 55       		.byte	0x55
 11846 0ace 00       		.byte	0
 11847              	.LVUS70:
 11848 0acf 08       		.uleb128 .LVU263
 11849 0ad0 00       		.uleb128 .LVU275
 11850              	.LLST70:
 11851 0ad1 08       		.byte	0x8
 11852 0ad2 22000000 		.long	.LVL73
 11853 0ad6 1C       		.uleb128 .LVL77-.LVL73
 11854 0ad7 06       		.uleb128 0x6
 11855 0ad8 03       		.byte	0x3
 11856 0ad9 10000000 		.long	ch_factory+16
 11857 0add 9F       		.byte	0x9f
 11858 0ade 00       		.byte	0
 11859              	.LVUS71:
 11860 0adf 08       		.uleb128 .LVU263
 11861 0ae0 00       		.uleb128 .LVU275
 11862              	.LLST71:
 11863 0ae1 08       		.byte	0x8
 11864 0ae2 22000000 		.long	.LVL73
 11865 0ae6 1C       		.uleb128 .LVL77-.LVL73
 11866 0ae7 01       		.uleb128 0x1
 11867 0ae8 56       		.byte	0x56
 11868 0ae9 00       		.byte	0
 11869              	.LVUS72:
 11870 0aea 0A       		.uleb128 .LVU265
 11871 0aeb 00       		.uleb128 .LVU269
 11872 0aec 00       		.uleb128 .LVU269
 11873 0aed 00       		.uleb128 .LVU271
 11874 0aee 00       		.uleb128 .LVU271
 11875 0aef 00       		.uleb128 .LVU273
 11876 0af0 00       		.uleb128 .LVU273
GAS LISTING /tmp/ccoiMs3n.s 			page 213


 11877 0af1 00       		.uleb128 .LVU275
 11878              	.LLST72:
 11879 0af2 06       		.byte	0x6
 11880 0af3 22000000 		.long	.LVL73
 11881 0af7 04       		.byte	0x4
 11882 0af8 00       		.uleb128 .LVL73-.LVL73
 11883 0af9 0E       		.uleb128 .LVL74-.LVL73
 11884 0afa 06       		.uleb128 0x6
 11885 0afb 03       		.byte	0x3
 11886 0afc 10000000 		.long	ch_factory+16
 11887 0b00 9F       		.byte	0x9f
 11888 0b01 04       		.byte	0x4
 11889 0b02 0E       		.uleb128 .LVL74-.LVL73
 11890 0b03 12       		.uleb128 .LVL75-.LVL73
 11891 0b04 01       		.uleb128 0x1
 11892 0b05 51       		.byte	0x51
 11893 0b06 04       		.byte	0x4
 11894 0b07 12       		.uleb128 .LVL75-.LVL73
 11895 0b08 16       		.uleb128 .LVL76-.LVL73
 11896 0b09 01       		.uleb128 0x1
 11897 0b0a 50       		.byte	0x50
 11898 0b0b 04       		.byte	0x4
 11899 0b0c 16       		.uleb128 .LVL76-.LVL73
 11900 0b0d 1C       		.uleb128 .LVL77-.LVL73
 11901 0b0e 01       		.uleb128 0x1
 11902 0b0f 51       		.byte	0x51
 11903 0b10 00       		.byte	0
 11904              	.LVUS74:
 11905 0b11 01       		.uleb128 .LVU291
 11906 0b12 01       		.uleb128 .LVU298
 11907              	.LLST74:
 11908 0b13 08       		.byte	0x8
 11909 0b14 65000000 		.long	.LVL82
 11910 0b18 07       		.uleb128 .LVL83-.LVL82
 11911 0b19 01       		.uleb128 0x1
 11912 0b1a 51       		.byte	0x51
 11913 0b1b 00       		.byte	0
 11914              	.LVUS75:
 11915 0b1c 03       		.uleb128 .LVU293
 11916 0b1d 01       		.uleb128 .LVU298
 11917              	.LLST75:
 11918 0b1e 08       		.byte	0x8
 11919 0b1f 65000000 		.long	.LVL82
 11920 0b23 07       		.uleb128 .LVL83-.LVL82
 11921 0b24 01       		.uleb128 0x1
 11922 0b25 56       		.byte	0x56
 11923 0b26 00       		.byte	0
 11924              	.LVUS62:
 11925 0b27 00       		.uleb128 .LVU228
 11926 0b28 00       		.uleb128 .LVU242
 11927 0b29 00       		.uleb128 .LVU242
 11928 0b2a 00       		.uleb128 .LVU243
 11929 0b2b 00       		.uleb128 .LVU243
 11930 0b2c 00       		.uleb128 .LVU245
 11931              	.LLST62:
 11932 0b2d 06       		.byte	0x6
 11933 0b2e 22000000 		.long	.LVL64
GAS LISTING /tmp/ccoiMs3n.s 			page 214


 11934 0b32 04       		.byte	0x4
 11935 0b33 00       		.uleb128 .LVL64-.LVL64
 11936 0b34 40       		.uleb128 .LVL68-.LVL64
 11937 0b35 01       		.uleb128 0x1
 11938 0b36 56       		.byte	0x56
 11939 0b37 04       		.byte	0x4
 11940 0b38 40       		.uleb128 .LVL68-.LVL64
 11941 0b39 43       		.uleb128 .LVL69-.LVL64
 11942 0b3a 01       		.uleb128 0x1
 11943 0b3b 50       		.byte	0x50
 11944 0b3c 04       		.byte	0x4
 11945 0b3d 43       		.uleb128 .LVL69-.LVL64
 11946 0b3e 4B       		.uleb128 .LVL70-.LVL64
 11947 0b3f 01       		.uleb128 0x1
 11948 0b40 56       		.byte	0x56
 11949 0b41 00       		.byte	0
 11950              	.LVUS53:
 11951 0b42 01       		.uleb128 .LVU215
 11952 0b43 00       		.uleb128 .LVU219
 11953 0b44 00       		.uleb128 .LVU219
 11954 0b45 00       		.uleb128 .LVU220
 11955              	.LLST53:
 11956 0b46 06       		.byte	0x6
 11957 0b47 65000000 		.long	.LVL58
 11958 0b4b 04       		.byte	0x4
 11959 0b4c 00       		.uleb128 .LVL58-.LVL58
 11960 0b4d 15       		.uleb128 .LVL60-.LVL58
 11961 0b4e 01       		.uleb128 0x1
 11962 0b4f 55       		.byte	0x55
 11963 0b50 04       		.byte	0x4
 11964 0b51 15       		.uleb128 .LVL60-.LVL58
 11965 0b52 16       		.uleb128 .LVL61-.LVL58
 11966 0b53 01       		.uleb128 0x1
 11967 0b54 50       		.byte	0x50
 11968 0b55 00       		.byte	0
 11969              	.LVUS55:
 11970 0b56 01       		.uleb128 .LVU191
 11971 0b57 01       		.uleb128 .LVU215
 11972 0b58 00       		.uleb128 .LVU220
 11973 0b59 00       		.uleb128 0
 11974              	.LLST55:
 11975 0b5a 06       		.byte	0x6
 11976 0b5b 28000000 		.long	.LVL53
 11977 0b5f 04       		.byte	0x4
 11978 0b60 00       		.uleb128 .LVL53-.LVL53
 11979 0b61 3D       		.uleb128 .LVL58-.LVL53
 11980 0b62 06       		.uleb128 0x6
 11981 0b63 03       		.byte	0x3
 11982 0b64 10000000 		.long	ch_factory+16
 11983 0b68 9F       		.byte	0x9f
 11984 0b69 04       		.byte	0x4
 11985 0b6a 53       		.uleb128 .LVL61-.LVL53
 11986 0b6b 5C       		.uleb128 .LFE227-.LVL53
 11987 0b6c 06       		.uleb128 0x6
 11988 0b6d 03       		.byte	0x3
 11989 0b6e 10000000 		.long	ch_factory+16
 11990 0b72 9F       		.byte	0x9f
GAS LISTING /tmp/ccoiMs3n.s 			page 215


 11991 0b73 00       		.byte	0
 11992              	.LVUS56:
 11993 0b74 01       		.uleb128 .LVU191
 11994 0b75 01       		.uleb128 .LVU215
 11995 0b76 00       		.uleb128 .LVU220
 11996 0b77 00       		.uleb128 0
 11997              	.LLST56:
 11998 0b78 06       		.byte	0x6
 11999 0b79 28000000 		.long	.LVL53
 12000 0b7d 04       		.byte	0x4
 12001 0b7e 00       		.uleb128 .LVL53-.LVL53
 12002 0b7f 3D       		.uleb128 .LVL58-.LVL53
 12003 0b80 01       		.uleb128 0x1
 12004 0b81 56       		.byte	0x56
 12005 0b82 04       		.byte	0x4
 12006 0b83 53       		.uleb128 .LVL61-.LVL53
 12007 0b84 5C       		.uleb128 .LFE227-.LVL53
 12008 0b85 01       		.uleb128 0x1
 12009 0b86 56       		.byte	0x56
 12010 0b87 00       		.byte	0
 12011              	.LVUS57:
 12012 0b88 01       		.uleb128 .LVU209
 12013 0b89 00       		.uleb128 .LVU214
 12014              	.LLST57:
 12015 0b8a 08       		.byte	0x8
 12016 0b8b 5D000000 		.long	.LVL57
 12017 0b8f 08       		.uleb128 .LVL58-.LVL57
 12018 0b90 01       		.uleb128 0x1
 12019 0b91 55       		.byte	0x55
 12020 0b92 00       		.byte	0
 12021              	.LVUS59:
 12022 0b93 07       		.uleb128 .LVU197
 12023 0b94 01       		.uleb128 .LVU209
 12024 0b95 00       		.uleb128 .LVU220
 12025 0b96 00       		.uleb128 0
 12026              	.LLST59:
 12027 0b97 06       		.byte	0x6
 12028 0b98 28000000 		.long	.LVL53
 12029 0b9c 04       		.byte	0x4
 12030 0b9d 00       		.uleb128 .LVL53-.LVL53
 12031 0b9e 35       		.uleb128 .LVL57-.LVL53
 12032 0b9f 06       		.uleb128 0x6
 12033 0ba0 03       		.byte	0x3
 12034 0ba1 10000000 		.long	ch_factory+16
 12035 0ba5 9F       		.byte	0x9f
 12036 0ba6 04       		.byte	0x4
 12037 0ba7 53       		.uleb128 .LVL61-.LVL53
 12038 0ba8 5C       		.uleb128 .LFE227-.LVL53
 12039 0ba9 06       		.uleb128 0x6
 12040 0baa 03       		.byte	0x3
 12041 0bab 10000000 		.long	ch_factory+16
 12042 0baf 9F       		.byte	0x9f
 12043 0bb0 00       		.byte	0
 12044              	.LVUS60:
 12045 0bb1 07       		.uleb128 .LVU197
 12046 0bb2 01       		.uleb128 .LVU209
 12047 0bb3 00       		.uleb128 .LVU220
GAS LISTING /tmp/ccoiMs3n.s 			page 216


 12048 0bb4 00       		.uleb128 0
 12049              	.LLST60:
 12050 0bb5 06       		.byte	0x6
 12051 0bb6 28000000 		.long	.LVL53
 12052 0bba 04       		.byte	0x4
 12053 0bbb 00       		.uleb128 .LVL53-.LVL53
 12054 0bbc 35       		.uleb128 .LVL57-.LVL53
 12055 0bbd 01       		.uleb128 0x1
 12056 0bbe 56       		.byte	0x56
 12057 0bbf 04       		.byte	0x4
 12058 0bc0 53       		.uleb128 .LVL61-.LVL53
 12059 0bc1 5C       		.uleb128 .LFE227-.LVL53
 12060 0bc2 01       		.uleb128 0x1
 12061 0bc3 56       		.byte	0x56
 12062 0bc4 00       		.byte	0
 12063              	.LVUS61:
 12064 0bc5 00       		.uleb128 .LVU200
 12065 0bc6 01       		.uleb128 .LVU209
 12066 0bc7 00       		.uleb128 .LVU220
 12067 0bc8 00       		.uleb128 .LVU221
 12068              	.LLST61:
 12069 0bc9 06       		.byte	0x6
 12070 0bca 2E000000 		.long	.LVL54
 12071 0bce 04       		.byte	0x4
 12072 0bcf 00       		.uleb128 .LVL54-.LVL54
 12073 0bd0 2F       		.uleb128 .LVL57-.LVL54
 12074 0bd1 01       		.uleb128 0x1
 12075 0bd2 55       		.byte	0x55
 12076 0bd3 04       		.byte	0x4
 12077 0bd4 4D       		.uleb128 .LVL61-.LVL54
 12078 0bd5 54       		.uleb128 .LVL62-.LVL54
 12079 0bd6 01       		.uleb128 0x1
 12080 0bd7 55       		.byte	0x55
 12081 0bd8 00       		.byte	0
 12082              	.LVUS35:
 12083 0bd9 01       		.uleb128 .LVU180
 12084 0bda 00       		.uleb128 0
 12085              	.LLST35:
 12086 0bdb 08       		.byte	0x8
 12087 0bdc D3000000 		.long	.LVL51
 12088 0be0 05       		.uleb128 .LFE226-.LVL51
 12089 0be1 01       		.uleb128 0x1
 12090 0be2 57       		.byte	0x57
 12091 0be3 00       		.byte	0
 12092              	.LVUS37:
 12093 0be4 01       		.uleb128 .LVU126
 12094 0be5 00       		.uleb128 .LVU147
 12095 0be6 00       		.uleb128 .LVU151
 12096 0be7 01       		.uleb128 .LVU180
 12097              	.LLST37:
 12098 0be8 06       		.byte	0x6
 12099 0be9 28000000 		.long	.LVL34
 12100 0bed 04       		.byte	0x4
 12101 0bee 00       		.uleb128 .LVL34-.LVL34
 12102 0bef 3B       		.uleb128 .LVL40-.LVL34
 12103 0bf0 06       		.uleb128 0x6
 12104 0bf1 03       		.byte	0x3
GAS LISTING /tmp/ccoiMs3n.s 			page 217


 12105 0bf2 14000000 		.long	ch_factory+20
 12106 0bf6 9F       		.byte	0x9f
 12107 0bf7 04       		.byte	0x4
 12108 0bf8 51       		.uleb128 .LVL42-.LVL34
 12109 0bf9 AB01     		.uleb128 .LVL51-.LVL34
 12110 0bfb 06       		.uleb128 0x6
 12111 0bfc 03       		.byte	0x3
 12112 0bfd 14000000 		.long	ch_factory+20
 12113 0c01 9F       		.byte	0x9f
 12114 0c02 00       		.byte	0
 12115              	.LVUS38:
 12116 0c03 01       		.uleb128 .LVU126
 12117 0c04 00       		.uleb128 .LVU147
 12118 0c05 00       		.uleb128 .LVU151
 12119 0c06 01       		.uleb128 .LVU180
 12120              	.LLST38:
 12121 0c07 06       		.byte	0x6
 12122 0c08 28000000 		.long	.LVL34
 12123 0c0c 04       		.byte	0x4
 12124 0c0d 00       		.uleb128 .LVL34-.LVL34
 12125 0c0e 3B       		.uleb128 .LVL40-.LVL34
 12126 0c0f 06       		.uleb128 0x6
 12127 0c10 03       		.byte	0x3
 12128 0c11 10000000 		.long	ch_factory+16
 12129 0c15 9F       		.byte	0x9f
 12130 0c16 04       		.byte	0x4
 12131 0c17 51       		.uleb128 .LVL42-.LVL34
 12132 0c18 AB01     		.uleb128 .LVL51-.LVL34
 12133 0c1a 06       		.uleb128 0x6
 12134 0c1b 03       		.byte	0x3
 12135 0c1c 10000000 		.long	ch_factory+16
 12136 0c20 9F       		.byte	0x9f
 12137 0c21 00       		.byte	0
 12138              	.LVUS39:
 12139 0c22 01       		.uleb128 .LVU126
 12140 0c23 00       		.uleb128 .LVU147
 12141 0c24 00       		.uleb128 .LVU151
 12142 0c25 01       		.uleb128 .LVU180
 12143              	.LLST39:
 12144 0c26 06       		.byte	0x6
 12145 0c27 28000000 		.long	.LVL34
 12146 0c2b 04       		.byte	0x4
 12147 0c2c 00       		.uleb128 .LVL34-.LVL34
 12148 0c2d 3B       		.uleb128 .LVL40-.LVL34
 12149 0c2e 01       		.uleb128 0x1
 12150 0c2f 56       		.byte	0x56
 12151 0c30 04       		.byte	0x4
 12152 0c31 51       		.uleb128 .LVL42-.LVL34
 12153 0c32 AB01     		.uleb128 .LVL51-.LVL34
 12154 0c34 01       		.uleb128 0x1
 12155 0c35 56       		.byte	0x56
 12156 0c36 00       		.byte	0
 12157              	.LVUS40:
 12158 0c37 00       		.uleb128 .LVU143
 12159 0c38 00       		.uleb128 .LVU146
 12160              	.LLST40:
 12161 0c39 08       		.byte	0x8
GAS LISTING /tmp/ccoiMs3n.s 			page 218


 12162 0c3a 5D000000 		.long	.LVL38
 12163 0c3e 04       		.uleb128 .LVL39-.LVL38
 12164 0c3f 01       		.uleb128 0x1
 12165 0c40 55       		.byte	0x55
 12166 0c41 00       		.byte	0
 12167              	.LVUS41:
 12168 0c42 07       		.uleb128 .LVU132
 12169 0c43 00       		.uleb128 .LVU143
 12170              	.LLST41:
 12171 0c44 08       		.byte	0x8
 12172 0c45 28000000 		.long	.LVL34
 12173 0c49 35       		.uleb128 .LVL38-.LVL34
 12174 0c4a 06       		.uleb128 0x6
 12175 0c4b 03       		.byte	0x3
 12176 0c4c 10000000 		.long	ch_factory+16
 12177 0c50 9F       		.byte	0x9f
 12178 0c51 00       		.byte	0
 12179              	.LVUS42:
 12180 0c52 07       		.uleb128 .LVU132
 12181 0c53 00       		.uleb128 .LVU143
 12182              	.LLST42:
 12183 0c54 08       		.byte	0x8
 12184 0c55 28000000 		.long	.LVL34
 12185 0c59 35       		.uleb128 .LVL38-.LVL34
 12186 0c5a 01       		.uleb128 0x1
 12187 0c5b 56       		.byte	0x56
 12188 0c5c 00       		.byte	0
 12189              	.LVUS43:
 12190 0c5d 00       		.uleb128 .LVU135
 12191 0c5e 00       		.uleb128 .LVU143
 12192              	.LLST43:
 12193 0c5f 08       		.byte	0x8
 12194 0c60 2E000000 		.long	.LVL35
 12195 0c64 2F       		.uleb128 .LVL38-.LVL35
 12196 0c65 01       		.uleb128 0x1
 12197 0c66 55       		.byte	0x55
 12198 0c67 00       		.byte	0
 12199              	.LVUS45:
 12200 0c68 00       		.uleb128 .LVU151
 12201 0c69 01       		.uleb128 .LVU180
 12202              	.LLST45:
 12203 0c6a 08       		.byte	0x8
 12204 0c6b 79000000 		.long	.LVL42
 12205 0c6f 5A       		.uleb128 .LVL51-.LVL42
 12206 0c70 06       		.uleb128 0x6
 12207 0c71 03       		.byte	0x3
 12208 0c72 14000000 		.long	ch_factory+20
 12209 0c76 9F       		.byte	0x9f
 12210 0c77 00       		.byte	0
 12211              	.LVUS46:
 12212 0c78 00       		.uleb128 .LVU151
 12213 0c79 01       		.uleb128 .LVU180
 12214              	.LLST46:
 12215 0c7a 08       		.byte	0x8
 12216 0c7b 79000000 		.long	.LVL42
 12217 0c7f 5A       		.uleb128 .LVL51-.LVL42
 12218 0c80 06       		.uleb128 0x6
GAS LISTING /tmp/ccoiMs3n.s 			page 219


 12219 0c81 03       		.byte	0x3
 12220 0c82 10000000 		.long	ch_factory+16
 12221 0c86 9F       		.byte	0x9f
 12222 0c87 00       		.byte	0
 12223              	.LVUS47:
 12224 0c88 00       		.uleb128 .LVU151
 12225 0c89 01       		.uleb128 .LVU180
 12226              	.LLST47:
 12227 0c8a 08       		.byte	0x8
 12228 0c8b 79000000 		.long	.LVL42
 12229 0c8f 5A       		.uleb128 .LVL51-.LVL42
 12230 0c90 01       		.uleb128 0x1
 12231 0c91 56       		.byte	0x56
 12232 0c92 00       		.byte	0
 12233              	.LVUS48:
 12234 0c93 00       		.uleb128 .LVU156
 12235 0c94 00       		.uleb128 .LVU158
 12236 0c95 00       		.uleb128 .LVU158
 12237 0c96 01       		.uleb128 .LVU180
 12238              	.LLST48:
 12239 0c97 06       		.byte	0x6
 12240 0c98 94000000 		.long	.LVL44
 12241 0c9c 04       		.byte	0x4
 12242 0c9d 00       		.uleb128 .LVL44-.LVL44
 12243 0c9e 06       		.uleb128 .LVL45-.LVL44
 12244 0c9f 01       		.uleb128 0x1
 12245 0ca0 50       		.byte	0x50
 12246 0ca1 04       		.byte	0x4
 12247 0ca2 06       		.uleb128 .LVL45-.LVL44
 12248 0ca3 3F       		.uleb128 .LVL51-.LVL44
 12249 0ca4 01       		.uleb128 0x1
 12250 0ca5 57       		.byte	0x57
 12251 0ca6 00       		.byte	0
 12252              	.LVUS49:
 12253 0ca7 00       		.uleb128 .LVU158
 12254 0ca8 01       		.uleb128 .LVU162
 12255 0ca9 01       		.uleb128 .LVU162
 12256 0caa 00       		.uleb128 .LVU169
 12257 0cab 00       		.uleb128 .LVU169
 12258 0cac 00       		.uleb128 .LVU170
 12259              	.LLST49:
 12260 0cad 06       		.byte	0x6
 12261 0cae 9A000000 		.long	.LVL45
 12262 0cb2 04       		.byte	0x4
 12263 0cb3 00       		.uleb128 .LVL45-.LVL45
 12264 0cb4 0A       		.uleb128 .LVL46-.LVL45
 12265 0cb5 08       		.uleb128 0x8
 12266 0cb6 77       		.byte	0x77
 12267 0cb7 00       		.sleb128 0
 12268 0cb8 70       		.byte	0x70
 12269 0cb9 00       		.sleb128 0
 12270 0cba 22       		.byte	0x22
 12271 0cbb 23       		.byte	0x23
 12272 0cbc 08       		.uleb128 0x8
 12273 0cbd 9F       		.byte	0x9f
 12274 0cbe 04       		.byte	0x4
 12275 0cbf 0A       		.uleb128 .LVL46-.LVL45
GAS LISTING /tmp/ccoiMs3n.s 			page 220


 12276 0cc0 1C       		.uleb128 .LVL49-.LVL45
 12277 0cc1 08       		.uleb128 0x8
 12278 0cc2 77       		.byte	0x77
 12279 0cc3 00       		.sleb128 0
 12280 0cc4 70       		.byte	0x70
 12281 0cc5 00       		.sleb128 0
 12282 0cc6 22       		.byte	0x22
 12283 0cc7 23       		.byte	0x23
 12284 0cc8 09       		.uleb128 0x9
 12285 0cc9 9F       		.byte	0x9f
 12286 0cca 04       		.byte	0x4
 12287 0ccb 1C       		.uleb128 .LVL49-.LVL45
 12288 0ccc 20       		.uleb128 .LVL50-.LVL45
 12289 0ccd 08       		.uleb128 0x8
 12290 0cce 77       		.byte	0x77
 12291 0ccf 00       		.sleb128 0
 12292 0cd0 70       		.byte	0x70
 12293 0cd1 00       		.sleb128 0
 12294 0cd2 22       		.byte	0x22
 12295 0cd3 23       		.byte	0x23
 12296 0cd4 08       		.uleb128 0x8
 12297 0cd5 9F       		.byte	0x9f
 12298 0cd6 00       		.byte	0
 12299              	.LVUS50:
 12300 0cd7 00       		.uleb128 .LVU158
 12301 0cd8 02       		.uleb128 .LVU160
 12302 0cd9 02       		.uleb128 .LVU160
 12303 0cda 00       		.uleb128 .LVU169
 12304 0cdb 00       		.uleb128 .LVU169
 12305 0cdc 00       		.uleb128 .LVU170
 12306              	.LLST50:
 12307 0cdd 06       		.byte	0x6
 12308 0cde 9A000000 		.long	.LVL45
 12309 0ce2 04       		.byte	0x4
 12310 0ce3 00       		.uleb128 .LVL45-.LVL45
 12311 0ce4 00       		.uleb128 .LVL45-.LVL45
 12312 0ce5 06       		.uleb128 0x6
 12313 0ce6 76       		.byte	0x76
 12314 0ce7 00       		.sleb128 0
 12315 0ce8 70       		.byte	0x70
 12316 0ce9 00       		.sleb128 0
 12317 0cea 22       		.byte	0x22
 12318 0ceb 9F       		.byte	0x9f
 12319 0cec 04       		.byte	0x4
 12320 0ced 00       		.uleb128 .LVL45-.LVL45
 12321 0cee 1C       		.uleb128 .LVL49-.LVL45
 12322 0cef 08       		.uleb128 0x8
 12323 0cf0 76       		.byte	0x76
 12324 0cf1 00       		.sleb128 0
 12325 0cf2 70       		.byte	0x70
 12326 0cf3 00       		.sleb128 0
 12327 0cf4 22       		.byte	0x22
 12328 0cf5 23       		.byte	0x23
 12329 0cf6 01       		.uleb128 0x1
 12330 0cf7 9F       		.byte	0x9f
 12331 0cf8 04       		.byte	0x4
 12332 0cf9 1C       		.uleb128 .LVL49-.LVL45
GAS LISTING /tmp/ccoiMs3n.s 			page 221


 12333 0cfa 20       		.uleb128 .LVL50-.LVL45
 12334 0cfb 06       		.uleb128 0x6
 12335 0cfc 76       		.byte	0x76
 12336 0cfd 00       		.sleb128 0
 12337 0cfe 70       		.byte	0x70
 12338 0cff 00       		.sleb128 0
 12339 0d00 22       		.byte	0x22
 12340 0d01 9F       		.byte	0x9f
 12341 0d02 00       		.byte	0
 12342              	.LVUS51:
 12343 0d03 00       		.uleb128 .LVU158
 12344 0d04 01       		.uleb128 .LVU165
 12345 0d05 01       		.uleb128 .LVU165
 12346 0d06 00       		.uleb128 .LVU169
 12347 0d07 00       		.uleb128 .LVU169
 12348 0d08 00       		.uleb128 .LVU170
 12349              	.LLST51:
 12350 0d09 06       		.byte	0x6
 12351 0d0a 9A000000 		.long	.LVL45
 12352 0d0e 04       		.byte	0x4
 12353 0d0f 00       		.uleb128 .LVL45-.LVL45
 12354 0d10 10       		.uleb128 .LVL47-.LVL45
 12355 0d11 05       		.uleb128 0x5
 12356 0d12 38       		.byte	0x38
 12357 0d13 70       		.byte	0x70
 12358 0d14 00       		.sleb128 0
 12359 0d15 1C       		.byte	0x1c
 12360 0d16 9F       		.byte	0x9f
 12361 0d17 04       		.byte	0x4
 12362 0d18 10       		.uleb128 .LVL47-.LVL45
 12363 0d19 1C       		.uleb128 .LVL49-.LVL45
 12364 0d1a 05       		.uleb128 0x5
 12365 0d1b 37       		.byte	0x37
 12366 0d1c 70       		.byte	0x70
 12367 0d1d 00       		.sleb128 0
 12368 0d1e 1C       		.byte	0x1c
 12369 0d1f 9F       		.byte	0x9f
 12370 0d20 04       		.byte	0x4
 12371 0d21 1C       		.uleb128 .LVL49-.LVL45
 12372 0d22 20       		.uleb128 .LVL50-.LVL45
 12373 0d23 05       		.uleb128 0x5
 12374 0d24 38       		.byte	0x38
 12375 0d25 70       		.byte	0x70
 12376 0d26 00       		.sleb128 0
 12377 0d27 1C       		.byte	0x1c
 12378 0d28 9F       		.byte	0x9f
 12379 0d29 00       		.byte	0
 12380              	.LVUS52:
 12381 0d2a 00       		.uleb128 .LVU161
 12382 0d2b 00       		.uleb128 .LVU168
 12383 0d2c 00       		.uleb128 .LVU168
 12384 0d2d 00       		.uleb128 .LVU169
 12385 0d2e 00       		.uleb128 .LVU169
 12386 0d2f 00       		.uleb128 .LVU170
 12387              	.LLST52:
 12388 0d30 06       		.byte	0x6
 12389 0d31 A4000000 		.long	.LVL46
GAS LISTING /tmp/ccoiMs3n.s 			page 222


 12390 0d35 04       		.byte	0x4
 12391 0d36 00       		.uleb128 .LVL46-.LVL46
 12392 0d37 0F       		.uleb128 .LVL48-.LVL46
 12393 0d38 01       		.uleb128 0x1
 12394 0d39 52       		.byte	0x52
 12395 0d3a 04       		.byte	0x4
 12396 0d3b 0F       		.uleb128 .LVL48-.LVL46
 12397 0d3c 12       		.uleb128 .LVL49-.LVL46
 12398 0d3d 07       		.uleb128 0x7
 12399 0d3e 77       		.byte	0x77
 12400 0d3f 00       		.sleb128 0
 12401 0d40 70       		.byte	0x70
 12402 0d41 00       		.sleb128 0
 12403 0d42 22       		.byte	0x22
 12404 0d43 23       		.byte	0x23
 12405 0d44 08       		.uleb128 0x8
 12406 0d45 04       		.byte	0x4
 12407 0d46 12       		.uleb128 .LVL49-.LVL46
 12408 0d47 16       		.uleb128 .LVL50-.LVL46
 12409 0d48 07       		.uleb128 0x7
 12410 0d49 77       		.byte	0x77
 12411 0d4a 00       		.sleb128 0
 12412 0d4b 70       		.byte	0x70
 12413 0d4c 00       		.sleb128 0
 12414 0d4d 22       		.byte	0x22
 12415 0d4e 23       		.byte	0x23
 12416 0d4f 07       		.uleb128 0x7
 12417 0d50 00       		.byte	0
 12418              	.LVUS19:
 12419 0d51 02       		.uleb128 .LVU82
 12420 0d52 00       		.uleb128 .LVU84
 12421              	.LLST19:
 12422 0d53 08       		.byte	0x8
 12423 0d54 2D000000 		.long	.LVL25
 12424 0d58 0D       		.uleb128 .LVL26-.LVL25
 12425 0d59 06       		.uleb128 0x6
 12426 0d5a 03       		.byte	0x3
 12427 0d5b 00000000 		.long	chCoreAllocAlignedI
 12428 0d5f 9F       		.byte	0x9f
 12429 0d60 00       		.byte	0
 12430              	.LVUS20:
 12431 0d61 02       		.uleb128 .LVU82
 12432 0d62 00       		.uleb128 .LVU84
 12433              	.LLST20:
 12434 0d63 08       		.byte	0x8
 12435 0d64 2D000000 		.long	.LVL25
 12436 0d68 0D       		.uleb128 .LVL26-.LVL25
 12437 0d69 02       		.uleb128 0x2
 12438 0d6a 44       		.byte	0x44
 12439 0d6b 9F       		.byte	0x9f
 12440 0d6c 00       		.byte	0
 12441              	.LVUS21:
 12442 0d6d 02       		.uleb128 .LVU82
 12443 0d6e 00       		.uleb128 .LVU84
 12444              	.LLST21:
 12445 0d6f 08       		.byte	0x8
 12446 0d70 2D000000 		.long	.LVL25
GAS LISTING /tmp/ccoiMs3n.s 			page 223


 12447 0d74 0D       		.uleb128 .LVL26-.LVL25
 12448 0d75 06       		.uleb128 0x6
 12449 0d76 03       		.byte	0x3
 12450 0d77 14000000 		.long	ch_factory+20
 12451 0d7b 9F       		.byte	0x9f
 12452 0d7c 00       		.byte	0
 12453              	.LVUS23:
 12454 0d7d 01       		.uleb128 .LVU75
 12455 0d7e 00       		.uleb128 .LVU80
 12456              	.LLST23:
 12457 0d7f 08       		.byte	0x8
 12458 0d80 23000000 		.long	.LVL24
 12459 0d84 0A       		.uleb128 .LVL25-.LVL24
 12460 0d85 06       		.uleb128 0x6
 12461 0d86 03       		.byte	0x3
 12462 0d87 10000000 		.long	ch_factory+16
 12463 0d8b 9F       		.byte	0x9f
 12464 0d8c 00       		.byte	0
 12465              	.LVUS25:
 12466 0d8d 02       		.uleb128 .LVU86
 12467 0d8e 00       		.uleb128 .LVU91
 12468              	.LLST25:
 12469 0d8f 08       		.byte	0x8
 12470 0d90 3A000000 		.long	.LVL26
 12471 0d94 0C       		.uleb128 .LVL27-.LVL26
 12472 0d95 06       		.uleb128 0x6
 12473 0d96 03       		.byte	0x3
 12474 0d97 24000000 		.long	ch_factory+36
 12475 0d9b 9F       		.byte	0x9f
 12476 0d9c 00       		.byte	0
 12477              	.LVUS27:
 12478 0d9d 02       		.uleb128 .LVU98
 12479 0d9e 00       		.uleb128 .LVU100
 12480              	.LLST27:
 12481 0d9f 08       		.byte	0x8
 12482 0da0 4F000000 		.long	.LVL28
 12483 0da4 0E       		.uleb128 .LVL29-.LVL28
 12484 0da5 06       		.uleb128 0x6
 12485 0da6 03       		.byte	0x3
 12486 0da7 00000000 		.long	chCoreAllocAlignedI
 12487 0dab 9F       		.byte	0x9f
 12488 0dac 00       		.byte	0
 12489              	.LVUS28:
 12490 0dad 02       		.uleb128 .LVU98
 12491 0dae 00       		.uleb128 .LVU100
 12492              	.LLST28:
 12493 0daf 08       		.byte	0x8
 12494 0db0 4F000000 		.long	.LVL28
 12495 0db4 0E       		.uleb128 .LVL29-.LVL28
 12496 0db5 02       		.uleb128 0x2
 12497 0db6 4C       		.byte	0x4c
 12498 0db7 9F       		.byte	0x9f
 12499 0db8 00       		.byte	0
 12500              	.LVUS29:
 12501 0db9 02       		.uleb128 .LVU98
 12502 0dba 00       		.uleb128 .LVU100
 12503              	.LLST29:
GAS LISTING /tmp/ccoiMs3n.s 			page 224


 12504 0dbb 08       		.byte	0x8
 12505 0dbc 4F000000 		.long	.LVL28
 12506 0dc0 0E       		.uleb128 .LVL29-.LVL28
 12507 0dc1 06       		.uleb128 0x6
 12508 0dc2 03       		.byte	0x3
 12509 0dc3 2C000000 		.long	ch_factory+44
 12510 0dc7 9F       		.byte	0x9f
 12511 0dc8 00       		.byte	0
 12512              	.LVUS30:
 12513 0dc9 02       		.uleb128 .LVU93
 12514 0dca 00       		.uleb128 .LVU96
 12515              	.LLST30:
 12516 0dcb 08       		.byte	0x8
 12517 0dcc 46000000 		.long	.LVL27
 12518 0dd0 09       		.uleb128 .LVL28-.LVL27
 12519 0dd1 06       		.uleb128 0x6
 12520 0dd2 03       		.byte	0x3
 12521 0dd3 28000000 		.long	ch_factory+40
 12522 0dd7 9F       		.byte	0x9f
 12523 0dd8 00       		.byte	0
 12524              	.LVUS32:
 12525 0dd9 02       		.uleb128 .LVU102
 12526 0dda 00       		.uleb128 .LVU107
 12527              	.LLST32:
 12528 0ddb 08       		.byte	0x8
 12529 0ddc 5D000000 		.long	.LVL29
 12530 0de0 0C       		.uleb128 .LVL30-.LVL29
 12531 0de1 06       		.uleb128 0x6
 12532 0de2 03       		.byte	0x3
 12533 0de3 3C000000 		.long	ch_factory+60
 12534 0de7 9F       		.byte	0x9f
 12535 0de8 00       		.byte	0
 12536              	.LVUS33:
 12537 0de9 02       		.uleb128 .LVU109
 12538 0dea 00       		.uleb128 .LVU112
 12539              	.LLST33:
 12540 0deb 08       		.byte	0x8
 12541 0dec 69000000 		.long	.LVL30
 12542 0df0 09       		.uleb128 .LVL31-.LVL30
 12543 0df1 06       		.uleb128 0x6
 12544 0df2 03       		.byte	0x3
 12545 0df3 40000000 		.long	ch_factory+64
 12546 0df7 9F       		.byte	0x9f
 12547 0df8 00       		.byte	0
 12548              	.LVUS34:
 12549 0df9 02       		.uleb128 .LVU114
 12550 0dfa 00       		.uleb128 .LVU117
 12551              	.LLST34:
 12552 0dfb 08       		.byte	0x8
 12553 0dfc 72000000 		.long	.LVL31
 12554 0e00 09       		.uleb128 .LVL32-.LVL31
 12555 0e01 06       		.uleb128 0x6
 12556 0e02 03       		.byte	0x3
 12557 0e03 44000000 		.long	ch_factory+68
 12558 0e07 9F       		.byte	0x9f
 12559 0e08 00       		.byte	0
 12560              	.LVUS0:
GAS LISTING /tmp/ccoiMs3n.s 			page 225


 12561 0e09 00       		.uleb128 0
 12562 0e0a 00       		.uleb128 .LVU20
 12563 0e0b 00       		.uleb128 .LVU20
 12564 0e0c 00       		.uleb128 .LVU33
 12565 0e0d 00       		.uleb128 .LVU33
 12566 0e0e 00       		.uleb128 .LVU35
 12567 0e0f 00       		.uleb128 .LVU35
 12568 0e10 00       		.uleb128 .LVU66
 12569 0e11 00       		.uleb128 .LVU66
 12570 0e12 00       		.uleb128 0
 12571              	.LLST0:
 12572 0e13 06       		.byte	0x6
 12573 0e14 00000000 		.long	.LVL2
 12574 0e18 04       		.byte	0x4
 12575 0e19 00       		.uleb128 .LVL2-.LVL2
 12576 0e1a 22       		.uleb128 .LVL5-.LVL2
 12577 0e1b 01       		.uleb128 0x1
 12578 0e1c 50       		.byte	0x50
 12579 0e1d 04       		.byte	0x4
 12580 0e1e 22       		.uleb128 .LVL5-.LVL2
 12581 0e1f 52       		.uleb128 .LVL10-.LVL2
 12582 0e20 01       		.uleb128 0x1
 12583 0e21 56       		.byte	0x56
 12584 0e22 04       		.byte	0x4
 12585 0e23 52       		.uleb128 .LVL10-.LVL2
 12586 0e24 55       		.uleb128 .LVL12-.LVL2
 12587 0e25 04       		.uleb128 0x4
 12588 0e26 A3       		.byte	0xa3
 12589 0e27 01       		.uleb128 0x1
 12590 0e28 50       		.byte	0x50
 12591 0e29 9F       		.byte	0x9f
 12592 0e2a 04       		.byte	0x4
 12593 0e2b 55       		.uleb128 .LVL12-.LVL2
 12594 0e2c A601     		.uleb128 .LVL22-.LVL2
 12595 0e2e 01       		.uleb128 0x1
 12596 0e2f 56       		.byte	0x56
 12597 0e30 04       		.byte	0x4
 12598 0e31 A601     		.uleb128 .LVL22-.LVL2
 12599 0e33 A901     		.uleb128 .LFE220-.LVL2
 12600 0e35 04       		.uleb128 0x4
 12601 0e36 A3       		.byte	0xa3
 12602 0e37 01       		.uleb128 0x1
 12603 0e38 50       		.byte	0x50
 12604 0e39 9F       		.byte	0x9f
 12605 0e3a 00       		.byte	0
 12606              	.LVUS1:
 12607 0e3b 00       		.uleb128 0
 12608 0e3c 00       		.uleb128 .LVU20
 12609 0e3d 00       		.uleb128 .LVU20
 12610 0e3e 00       		.uleb128 .LVU34
 12611 0e3f 00       		.uleb128 .LVU34
 12612 0e40 00       		.uleb128 .LVU35
 12613 0e41 00       		.uleb128 .LVU35
 12614 0e42 00       		.uleb128 .LVU67
 12615 0e43 00       		.uleb128 .LVU67
 12616 0e44 00       		.uleb128 0
 12617              	.LLST1:
GAS LISTING /tmp/ccoiMs3n.s 			page 226


 12618 0e45 06       		.byte	0x6
 12619 0e46 00000000 		.long	.LVL2
 12620 0e4a 04       		.byte	0x4
 12621 0e4b 00       		.uleb128 .LVL2-.LVL2
 12622 0e4c 22       		.uleb128 .LVL5-.LVL2
 12623 0e4d 01       		.uleb128 0x1
 12624 0e4e 52       		.byte	0x52
 12625 0e4f 04       		.byte	0x4
 12626 0e50 22       		.uleb128 .LVL5-.LVL2
 12627 0e51 53       		.uleb128 .LVL11-.LVL2
 12628 0e52 01       		.uleb128 0x1
 12629 0e53 57       		.byte	0x57
 12630 0e54 04       		.byte	0x4
 12631 0e55 53       		.uleb128 .LVL11-.LVL2
 12632 0e56 55       		.uleb128 .LVL12-.LVL2
 12633 0e57 04       		.uleb128 0x4
 12634 0e58 A3       		.byte	0xa3
 12635 0e59 01       		.uleb128 0x1
 12636 0e5a 52       		.byte	0x52
 12637 0e5b 9F       		.byte	0x9f
 12638 0e5c 04       		.byte	0x4
 12639 0e5d 55       		.uleb128 .LVL12-.LVL2
 12640 0e5e A701     		.uleb128 .LVL23-.LVL2
 12641 0e60 01       		.uleb128 0x1
 12642 0e61 57       		.byte	0x57
 12643 0e62 04       		.byte	0x4
 12644 0e63 A701     		.uleb128 .LVL23-.LVL2
 12645 0e65 A901     		.uleb128 .LFE220-.LVL2
 12646 0e67 04       		.uleb128 0x4
 12647 0e68 A3       		.byte	0xa3
 12648 0e69 01       		.uleb128 0x1
 12649 0e6a 52       		.byte	0x52
 12650 0e6b 9F       		.byte	0x9f
 12651 0e6c 00       		.byte	0
 12652              	.LVUS2:
 12653 0e6d 00       		.uleb128 0
 12654 0e6e 00       		.uleb128 .LVU20
 12655 0e6f 00       		.uleb128 .LVU20
 12656 0e70 00       		.uleb128 0
 12657              	.LLST2:
 12658 0e71 06       		.byte	0x6
 12659 0e72 00000000 		.long	.LVL2
 12660 0e76 04       		.byte	0x4
 12661 0e77 00       		.uleb128 .LVL2-.LVL2
 12662 0e78 22       		.uleb128 .LVL5-.LVL2
 12663 0e79 01       		.uleb128 0x1
 12664 0e7a 51       		.byte	0x51
 12665 0e7b 04       		.byte	0x4
 12666 0e7c 22       		.uleb128 .LVL5-.LVL2
 12667 0e7d A901     		.uleb128 .LFE220-.LVL2
 12668 0e7f 02       		.uleb128 0x2
 12669 0e80 91       		.byte	0x91
 12670 0e81 5C       		.sleb128 -36
 12671 0e82 00       		.byte	0
 12672              	.LVUS3:
 12673 0e83 01       		.uleb128 .LVU27
 12674 0e84 00       		.uleb128 .LVU30
GAS LISTING /tmp/ccoiMs3n.s 			page 227


 12675              	.LLST3:
 12676 0e85 08       		.byte	0x8
 12677 0e86 45000000 		.long	.LVL8
 12678 0e8a 04       		.uleb128 .LVL9-.LVL8
 12679 0e8b 01       		.uleb128 0x1
 12680 0e8c 55       		.byte	0x55
 12681 0e8d 00       		.byte	0
 12682              	.LVUS5:
 12683 0e8e 00       		.uleb128 .LVU12
 12684 0e8f 00       		.uleb128 .LVU20
 12685 0e90 00       		.uleb128 .LVU20
 12686 0e91 01       		.uleb128 .LVU27
 12687              	.LLST5:
 12688 0e92 06       		.byte	0x6
 12689 0e93 07000000 		.long	.LVL3
 12690 0e97 04       		.byte	0x4
 12691 0e98 00       		.uleb128 .LVL3-.LVL3
 12692 0e99 1B       		.uleb128 .LVL5-.LVL3
 12693 0e9a 01       		.uleb128 0x1
 12694 0e9b 52       		.byte	0x52
 12695 0e9c 04       		.byte	0x4
 12696 0e9d 1B       		.uleb128 .LVL5-.LVL3
 12697 0e9e 3E       		.uleb128 .LVL8-.LVL3
 12698 0e9f 01       		.uleb128 0x1
 12699 0ea0 57       		.byte	0x57
 12700 0ea1 00       		.byte	0
 12701              	.LVUS6:
 12702 0ea2 00       		.uleb128 .LVU12
 12703 0ea3 00       		.uleb128 .LVU20
 12704 0ea4 00       		.uleb128 .LVU20
 12705 0ea5 01       		.uleb128 .LVU27
 12706              	.LLST6:
 12707 0ea6 06       		.byte	0x6
 12708 0ea7 07000000 		.long	.LVL3
 12709 0eab 04       		.byte	0x4
 12710 0eac 00       		.uleb128 .LVL3-.LVL3
 12711 0ead 1B       		.uleb128 .LVL5-.LVL3
 12712 0eae 01       		.uleb128 0x1
 12713 0eaf 50       		.byte	0x50
 12714 0eb0 04       		.byte	0x4
 12715 0eb1 1B       		.uleb128 .LVL5-.LVL3
 12716 0eb2 3E       		.uleb128 .LVL8-.LVL3
 12717 0eb3 01       		.uleb128 0x1
 12718 0eb4 56       		.byte	0x56
 12719 0eb5 00       		.byte	0
 12720              	.LVUS7:
 12721 0eb6 00       		.uleb128 .LVU16
 12722 0eb7 01       		.uleb128 .LVU27
 12723              	.LLST7:
 12724 0eb8 08       		.byte	0x8
 12725 0eb9 18000000 		.long	.LVL4
 12726 0ebd 2D       		.uleb128 .LVL8-.LVL4
 12727 0ebe 01       		.uleb128 0x1
 12728 0ebf 55       		.byte	0x55
 12729 0ec0 00       		.byte	0
 12730              	.LVUS9:
 12731 0ec1 00       		.uleb128 .LVU35
GAS LISTING /tmp/ccoiMs3n.s 			page 228


 12732 0ec2 01       		.uleb128 .LVU64
 12733              	.LLST9:
 12734 0ec3 08       		.byte	0x8
 12735 0ec4 55000000 		.long	.LVL12
 12736 0ec8 4C       		.uleb128 .LVL21-.LVL12
 12737 0ec9 02       		.uleb128 0x2
 12738 0eca 91       		.byte	0x91
 12739 0ecb 00       		.sleb128 0
 12740 0ecc 00       		.byte	0
 12741              	.LVUS10:
 12742 0ecd 00       		.uleb128 .LVU35
 12743 0ece 01       		.uleb128 .LVU64
 12744              	.LLST10:
 12745 0ecf 08       		.byte	0x8
 12746 0ed0 55000000 		.long	.LVL12
 12747 0ed4 4C       		.uleb128 .LVL21-.LVL12
 12748 0ed5 02       		.uleb128 0x2
 12749 0ed6 91       		.byte	0x91
 12750 0ed7 5C       		.sleb128 -36
 12751 0ed8 00       		.byte	0
 12752              	.LVUS11:
 12753 0ed9 00       		.uleb128 .LVU35
 12754 0eda 01       		.uleb128 .LVU64
 12755              	.LLST11:
 12756 0edb 08       		.byte	0x8
 12757 0edc 55000000 		.long	.LVL12
 12758 0ee0 4C       		.uleb128 .LVL21-.LVL12
 12759 0ee1 01       		.uleb128 0x1
 12760 0ee2 57       		.byte	0x57
 12761 0ee3 00       		.byte	0
 12762              	.LVUS12:
 12763 0ee4 00       		.uleb128 .LVU35
 12764 0ee5 01       		.uleb128 .LVU64
 12765              	.LLST12:
 12766 0ee6 08       		.byte	0x8
 12767 0ee7 55000000 		.long	.LVL12
 12768 0eeb 4C       		.uleb128 .LVL21-.LVL12
 12769 0eec 01       		.uleb128 0x1
 12770 0eed 56       		.byte	0x56
 12771 0eee 00       		.byte	0
 12772              	.LVUS13:
 12773 0eef 00       		.uleb128 .LVU40
 12774 0ef0 00       		.uleb128 .LVU42
 12775 0ef1 00       		.uleb128 .LVU42
 12776 0ef2 01       		.uleb128 .LVU64
 12777              	.LLST13:
 12778 0ef3 06       		.byte	0x6
 12779 0ef4 6F000000 		.long	.LVL14
 12780 0ef8 04       		.byte	0x4
 12781 0ef9 00       		.uleb128 .LVL14-.LVL14
 12782 0efa 06       		.uleb128 .LVL15-.LVL14
 12783 0efb 01       		.uleb128 0x1
 12784 0efc 50       		.byte	0x50
 12785 0efd 04       		.byte	0x4
 12786 0efe 06       		.uleb128 .LVL15-.LVL14
 12787 0eff 32       		.uleb128 .LVL21-.LVL14
 12788 0f00 01       		.uleb128 0x1
GAS LISTING /tmp/ccoiMs3n.s 			page 229


 12789 0f01 51       		.byte	0x51
 12790 0f02 00       		.byte	0
 12791              	.LVUS14:
 12792 0f03 00       		.uleb128 .LVU42
 12793 0f04 01       		.uleb128 .LVU46
 12794 0f05 01       		.uleb128 .LVU46
 12795 0f06 00       		.uleb128 .LVU53
 12796 0f07 00       		.uleb128 .LVU53
 12797 0f08 00       		.uleb128 .LVU54
 12798              	.LLST14:
 12799 0f09 06       		.byte	0x6
 12800 0f0a 75000000 		.long	.LVL15
 12801 0f0e 04       		.byte	0x4
 12802 0f0f 00       		.uleb128 .LVL15-.LVL15
 12803 0f10 07       		.uleb128 .LVL16-.LVL15
 12804 0f11 08       		.uleb128 0x8
 12805 0f12 71       		.byte	0x71
 12806 0f13 00       		.sleb128 0
 12807 0f14 70       		.byte	0x70
 12808 0f15 00       		.sleb128 0
 12809 0f16 22       		.byte	0x22
 12810 0f17 23       		.byte	0x23
 12811 0f18 08       		.uleb128 0x8
 12812 0f19 9F       		.byte	0x9f
 12813 0f1a 04       		.byte	0x4
 12814 0f1b 07       		.uleb128 .LVL16-.LVL15
 12815 0f1c 19       		.uleb128 .LVL19-.LVL15
 12816 0f1d 08       		.uleb128 0x8
 12817 0f1e 71       		.byte	0x71
 12818 0f1f 00       		.sleb128 0
 12819 0f20 70       		.byte	0x70
 12820 0f21 00       		.sleb128 0
 12821 0f22 22       		.byte	0x22
 12822 0f23 23       		.byte	0x23
 12823 0f24 09       		.uleb128 0x9
 12824 0f25 9F       		.byte	0x9f
 12825 0f26 04       		.byte	0x4
 12826 0f27 19       		.uleb128 .LVL19-.LVL15
 12827 0f28 1D       		.uleb128 .LVL20-.LVL15
 12828 0f29 08       		.uleb128 0x8
 12829 0f2a 71       		.byte	0x71
 12830 0f2b 00       		.sleb128 0
 12831 0f2c 70       		.byte	0x70
 12832 0f2d 00       		.sleb128 0
 12833 0f2e 22       		.byte	0x22
 12834 0f2f 23       		.byte	0x23
 12835 0f30 08       		.uleb128 0x8
 12836 0f31 9F       		.byte	0x9f
 12837 0f32 00       		.byte	0
 12838              	.LVUS15:
 12839 0f33 00       		.uleb128 .LVU42
 12840 0f34 02       		.uleb128 .LVU44
 12841 0f35 02       		.uleb128 .LVU44
 12842 0f36 00       		.uleb128 .LVU53
 12843 0f37 00       		.uleb128 .LVU53
 12844 0f38 00       		.uleb128 .LVU54
 12845              	.LLST15:
GAS LISTING /tmp/ccoiMs3n.s 			page 230


 12846 0f39 06       		.byte	0x6
 12847 0f3a 75000000 		.long	.LVL15
 12848 0f3e 04       		.byte	0x4
 12849 0f3f 00       		.uleb128 .LVL15-.LVL15
 12850 0f40 00       		.uleb128 .LVL15-.LVL15
 12851 0f41 06       		.uleb128 0x6
 12852 0f42 76       		.byte	0x76
 12853 0f43 00       		.sleb128 0
 12854 0f44 70       		.byte	0x70
 12855 0f45 00       		.sleb128 0
 12856 0f46 22       		.byte	0x22
 12857 0f47 9F       		.byte	0x9f
 12858 0f48 04       		.byte	0x4
 12859 0f49 00       		.uleb128 .LVL15-.LVL15
 12860 0f4a 19       		.uleb128 .LVL19-.LVL15
 12861 0f4b 08       		.uleb128 0x8
 12862 0f4c 76       		.byte	0x76
 12863 0f4d 00       		.sleb128 0
 12864 0f4e 70       		.byte	0x70
 12865 0f4f 00       		.sleb128 0
 12866 0f50 22       		.byte	0x22
 12867 0f51 23       		.byte	0x23
 12868 0f52 01       		.uleb128 0x1
 12869 0f53 9F       		.byte	0x9f
 12870 0f54 04       		.byte	0x4
 12871 0f55 19       		.uleb128 .LVL19-.LVL15
 12872 0f56 1D       		.uleb128 .LVL20-.LVL15
 12873 0f57 06       		.uleb128 0x6
 12874 0f58 76       		.byte	0x76
 12875 0f59 00       		.sleb128 0
 12876 0f5a 70       		.byte	0x70
 12877 0f5b 00       		.sleb128 0
 12878 0f5c 22       		.byte	0x22
 12879 0f5d 9F       		.byte	0x9f
 12880 0f5e 00       		.byte	0
 12881              	.LVUS16:
 12882 0f5f 00       		.uleb128 .LVU42
 12883 0f60 01       		.uleb128 .LVU49
 12884 0f61 01       		.uleb128 .LVU49
 12885 0f62 00       		.uleb128 .LVU53
 12886 0f63 00       		.uleb128 .LVU53
 12887 0f64 00       		.uleb128 .LVU54
 12888              	.LLST16:
 12889 0f65 06       		.byte	0x6
 12890 0f66 75000000 		.long	.LVL15
 12891 0f6a 04       		.byte	0x4
 12892 0f6b 00       		.uleb128 .LVL15-.LVL15
 12893 0f6c 0D       		.uleb128 .LVL17-.LVL15
 12894 0f6d 05       		.uleb128 0x5
 12895 0f6e 38       		.byte	0x38
 12896 0f6f 70       		.byte	0x70
 12897 0f70 00       		.sleb128 0
 12898 0f71 1C       		.byte	0x1c
 12899 0f72 9F       		.byte	0x9f
 12900 0f73 04       		.byte	0x4
 12901 0f74 0D       		.uleb128 .LVL17-.LVL15
 12902 0f75 19       		.uleb128 .LVL19-.LVL15
GAS LISTING /tmp/ccoiMs3n.s 			page 231


 12903 0f76 05       		.uleb128 0x5
 12904 0f77 37       		.byte	0x37
 12905 0f78 70       		.byte	0x70
 12906 0f79 00       		.sleb128 0
 12907 0f7a 1C       		.byte	0x1c
 12908 0f7b 9F       		.byte	0x9f
 12909 0f7c 04       		.byte	0x4
 12910 0f7d 19       		.uleb128 .LVL19-.LVL15
 12911 0f7e 1D       		.uleb128 .LVL20-.LVL15
 12912 0f7f 05       		.uleb128 0x5
 12913 0f80 38       		.byte	0x38
 12914 0f81 70       		.byte	0x70
 12915 0f82 00       		.sleb128 0
 12916 0f83 1C       		.byte	0x1c
 12917 0f84 9F       		.byte	0x9f
 12918 0f85 00       		.byte	0
 12919              	.LVUS17:
 12920 0f86 00       		.uleb128 .LVU45
 12921 0f87 00       		.uleb128 .LVU52
 12922 0f88 00       		.uleb128 .LVU52
 12923 0f89 00       		.uleb128 .LVU53
 12924 0f8a 00       		.uleb128 .LVU53
 12925 0f8b 00       		.uleb128 .LVU54
 12926              	.LLST17:
 12927 0f8c 06       		.byte	0x6
 12928 0f8d 7C000000 		.long	.LVL16
 12929 0f91 04       		.byte	0x4
 12930 0f92 00       		.uleb128 .LVL16-.LVL16
 12931 0f93 0F       		.uleb128 .LVL18-.LVL16
 12932 0f94 01       		.uleb128 0x1
 12933 0f95 52       		.byte	0x52
 12934 0f96 04       		.byte	0x4
 12935 0f97 0F       		.uleb128 .LVL18-.LVL16
 12936 0f98 12       		.uleb128 .LVL19-.LVL16
 12937 0f99 07       		.uleb128 0x7
 12938 0f9a 71       		.byte	0x71
 12939 0f9b 00       		.sleb128 0
 12940 0f9c 70       		.byte	0x70
 12941 0f9d 00       		.sleb128 0
 12942 0f9e 22       		.byte	0x22
 12943 0f9f 23       		.byte	0x23
 12944 0fa0 08       		.uleb128 0x8
 12945 0fa1 04       		.byte	0x4
 12946 0fa2 12       		.uleb128 .LVL19-.LVL16
 12947 0fa3 16       		.uleb128 .LVL20-.LVL16
 12948 0fa4 07       		.uleb128 0x7
 12949 0fa5 71       		.byte	0x71
 12950 0fa6 00       		.sleb128 0
 12951 0fa7 70       		.byte	0x70
 12952 0fa8 00       		.sleb128 0
 12953 0fa9 22       		.byte	0x22
 12954 0faa 23       		.byte	0x23
 12955 0fab 07       		.uleb128 0x7
 12956 0fac 00       		.byte	0
 12957              	.Ldebug_loc3:
 12958              		.section	.debug_aranges,"",@progbits
 12959 0000 C4000000 		.long	0xc4
GAS LISTING /tmp/ccoiMs3n.s 			page 232


 12960 0004 0200     		.value	0x2
 12961 0006 00000000 		.long	.Ldebug_info0
 12962 000a 04       		.byte	0x4
 12963 000b 00       		.byte	0
 12964 000c 0000     		.value	0
 12965 000e 0000     		.value	0
 12966 0010 00000000 		.long	.LFB148
 12967 0014 23000000 		.long	.LFE148-.LFB148
 12968 0018 00000000 		.long	.LFB220
 12969 001c A9000000 		.long	.LFE220-.LFB220
 12970 0020 00000000 		.long	.LFB225
 12971 0024 7F000000 		.long	.LFE225-.LFB225
 12972 0028 00000000 		.long	.LFB226
 12973 002c D8000000 		.long	.LFE226-.LFB226
 12974 0030 00000000 		.long	.LFB227
 12975 0034 84000000 		.long	.LFE227-.LFB227
 12976 0038 00000000 		.long	.LFB228
 12977 003c 80000000 		.long	.LFE228-.LFB228
 12978 0040 00000000 		.long	.LFB229
 12979 0044 7B000000 		.long	.LFE229-.LFB229
 12980 0048 00000000 		.long	.LFB230
 12981 004c 69000000 		.long	.LFE230-.LFB230
 12982 0050 00000000 		.long	.LFB231
 12983 0054 84000000 		.long	.LFE231-.LFB231
 12984 0058 00000000 		.long	.LFB232
 12985 005c 77000000 		.long	.LFE232-.LFB232
 12986 0060 00000000 		.long	.LFB233
 12987 0064 E7000000 		.long	.LFE233-.LFB233
 12988 0068 00000000 		.long	.LFB234
 12989 006c 84000000 		.long	.LFE234-.LFB234
 12990 0070 00000000 		.long	.LFB235
 12991 0074 7B000000 		.long	.LFE235-.LFB235
 12992 0078 00000000 		.long	.LFB236
 12993 007c 6F000000 		.long	.LFE236-.LFB236
 12994 0080 00000000 		.long	.LFB237
 12995 0084 84000000 		.long	.LFE237-.LFB237
 12996 0088 00000000 		.long	.LFB238
 12997 008c 77000000 		.long	.LFE238-.LFB238
 12998 0090 00000000 		.long	.LFB239
 12999 0094 C9000000 		.long	.LFE239-.LFB239
 13000 0098 00000000 		.long	.LFB240
 13001 009c 84000000 		.long	.LFE240-.LFB240
 13002 00a0 00000000 		.long	.LFB241
 13003 00a4 77000000 		.long	.LFE241-.LFB241
 13004 00a8 00000000 		.long	.LFB242
 13005 00ac 6B000000 		.long	.LFE242-.LFB242
 13006 00b0 00000000 		.long	.LFB243
 13007 00b4 84000000 		.long	.LFE243-.LFB243
 13008 00b8 00000000 		.long	.LFB244
 13009 00bc 77000000 		.long	.LFE244-.LFB244
 13010 00c0 00000000 		.long	0
 13011 00c4 00000000 		.long	0
 13012              		.section	.debug_rnglists,"",@progbits
 13013              	.Ldebug_ranges0:
 13014 0000 57020000 		.long	.Ldebug_ranges3-.Ldebug_ranges2
 13015              	.Ldebug_ranges2:
 13016 0004 0500     		.value	0x5
GAS LISTING /tmp/ccoiMs3n.s 			page 233


 13017 0006 04       		.byte	0x4
 13018 0007 00       		.byte	0
 13019 0008 00000000 		.long	0
 13020              	.LLRL4:
 13021 000c 05       		.byte	0x5
 13022 000d 07000000 		.long	.LBB34
 13023 0011 04       		.byte	0x4
 13024 0012 00       		.uleb128 .LBB34-.LBB34
 13025 0013 00       		.uleb128 .LBE34-.LBB34
 13026 0014 04       		.byte	0x4
 13027 0015 0F       		.uleb128 .LBB38-.LBB34
 13028 0016 11       		.uleb128 .LBE38-.LBB34
 13029 0017 04       		.byte	0x4
 13030 0018 15       		.uleb128 .LBB39-.LBB34
 13031 0019 3E       		.uleb128 .LBE39-.LBB34
 13032 001a 00       		.byte	0
 13033              	.LLRL8:
 13034 001b 05       		.byte	0x5
 13035 001c 58000000 		.long	.LBB40
 13036 0020 04       		.byte	0x4
 13037 0021 00       		.uleb128 .LBB40-.LBB40
 13038 0022 45       		.uleb128 .LBE40-.LBB40
 13039 0023 04       		.byte	0x4
 13040 0024 47       		.uleb128 .LBB45-.LBB40
 13041 0025 49       		.uleb128 .LBE45-.LBB40
 13042 0026 00       		.byte	0
 13043              	.LLRL18:
 13044 0027 05       		.byte	0x5
 13045 0028 17000000 		.long	.LBB46
 13046 002c 04       		.byte	0x4
 13047 002d 00       		.uleb128 .LBB46-.LBB46
 13048 002e 06       		.uleb128 .LBE46-.LBB46
 13049 002f 04       		.byte	0x4
 13050 0030 0F       		.uleb128 .LBB53-.LBB46
 13051 0031 10       		.uleb128 .LBE53-.LBB46
 13052 0032 04       		.byte	0x4
 13053 0033 16       		.uleb128 .LBB55-.LBB46
 13054 0034 23       		.uleb128 .LBE55-.LBB46
 13055 0035 00       		.byte	0
 13056              	.LLRL22:
 13057 0036 05       		.byte	0x5
 13058 0037 23000000 		.long	.LBB50
 13059 003b 04       		.byte	0x4
 13060 003c 00       		.uleb128 .LBB50-.LBB50
 13061 003d 03       		.uleb128 .LBE50-.LBB50
 13062 003e 04       		.byte	0x4
 13063 003f 04       		.uleb128 .LBB54-.LBB50
 13064 0040 0A       		.uleb128 .LBE54-.LBB50
 13065 0041 00       		.byte	0
 13066              	.LLRL24:
 13067 0042 05       		.byte	0x5
 13068 0043 3A000000 		.long	.LBB56
 13069 0047 04       		.byte	0x4
 13070 0048 00       		.uleb128 .LBB56-.LBB56
 13071 0049 03       		.uleb128 .LBE56-.LBB56
 13072 004a 04       		.byte	0x4
 13073 004b 06       		.uleb128 .LBB62-.LBB56
GAS LISTING /tmp/ccoiMs3n.s 			page 234


 13074 004c 0C       		.uleb128 .LBE62-.LBB56
 13075 004d 00       		.byte	0
 13076              	.LLRL26:
 13077 004e 05       		.byte	0x5
 13078 004f 3D000000 		.long	.LBB59
 13079 0053 04       		.byte	0x4
 13080 0054 00       		.uleb128 .LBB59-.LBB59
 13081 0055 03       		.uleb128 .LBE59-.LBB59
 13082 0056 04       		.byte	0x4
 13083 0057 12       		.uleb128 .LBB65-.LBB59
 13084 0058 20       		.uleb128 .LBE65-.LBB59
 13085 0059 00       		.byte	0
 13086              	.LLRL31:
 13087 005a 05       		.byte	0x5
 13088 005b 5D000000 		.long	.LBB66
 13089 005f 04       		.byte	0x4
 13090 0060 00       		.uleb128 .LBB66-.LBB66
 13091 0061 03       		.uleb128 .LBE66-.LBB66
 13092 0062 04       		.byte	0x4
 13093 0063 06       		.uleb128 .LBB69-.LBB66
 13094 0064 0C       		.uleb128 .LBE69-.LBB66
 13095 0065 00       		.byte	0
 13096              	.LLRL36:
 13097 0066 07       		.byte	0x7
 13098 0067 28000000 		.long	.LBB82
 13099 006b 3B       		.uleb128 .LBE82-.LBB82
 13100              	.LLRL44:
 13101 006c 05       		.byte	0x5
 13102 006d 80000000 		.long	.LBB94
 13103 0071 04       		.byte	0x4
 13104 0072 00       		.uleb128 .LBB94-.LBB94
 13105 0073 49       		.uleb128 .LBE94-.LBB94
 13106 0074 04       		.byte	0x4
 13107 0075 4D       		.uleb128 .LBB95-.LBB94
 13108 0076 53       		.uleb128 .LBE95-.LBB94
 13109 0077 00       		.byte	0
 13110              	.LLRL54:
 13111 0078 05       		.byte	0x5
 13112 0079 28000000 		.long	.LBB100
 13113 007d 04       		.byte	0x4
 13114 007e 00       		.uleb128 .LBB100-.LBB100
 13115 007f 3D       		.uleb128 .LBE100-.LBB100
 13116 0080 04       		.byte	0x4
 13117 0081 58       		.uleb128 .LBB107-.LBB100
 13118 0082 5C       		.uleb128 .LBE107-.LBB100
 13119 0083 00       		.byte	0
 13120              	.LLRL58:
 13121 0084 05       		.byte	0x5
 13122 0085 28000000 		.long	.LBB102
 13123 0089 04       		.byte	0x4
 13124 008a 00       		.uleb128 .LBB102-.LBB102
 13125 008b 35       		.uleb128 .LBE102-.LBB102
 13126 008c 04       		.byte	0x4
 13127 008d 58       		.uleb128 .LBB105-.LBB102
 13128 008e 5C       		.uleb128 .LBE105-.LBB102
 13129 008f 00       		.byte	0
 13130              	.LLRL64:
GAS LISTING /tmp/ccoiMs3n.s 			page 235


 13131 0090 05       		.byte	0x5
 13132 0091 22000000 		.long	.LBB114
 13133 0095 04       		.byte	0x4
 13134 0096 00       		.uleb128 .LBB114-.LBB114
 13135 0097 1C       		.uleb128 .LBE114-.LBB114
 13136 0098 04       		.byte	0x4
 13137 0099 36       		.uleb128 .LBB123-.LBB114
 13138 009a 59       		.uleb128 .LBE123-.LBB114
 13139 009b 00       		.byte	0
 13140              	.LLRL73:
 13141 009c 05       		.byte	0x5
 13142 009d 65000000 		.long	.LBB118
 13143 00a1 04       		.byte	0x4
 13144 00a2 00       		.uleb128 .LBB118-.LBB118
 13145 00a3 02       		.uleb128 .LBE118-.LBB118
 13146 00a4 04       		.byte	0x4
 13147 00a5 05       		.uleb128 .LBB121-.LBB118
 13148 00a6 07       		.uleb128 .LBE121-.LBB118
 13149 00a7 00       		.byte	0
 13150              	.LLRL77:
 13151 00a8 05       		.byte	0x5
 13152 00a9 44000000 		.long	.LBB124
 13153 00ad 04       		.byte	0x4
 13154 00ae 00       		.uleb128 .LBB124-.LBB124
 13155 00af 03       		.uleb128 .LBE124-.LBB124
 13156 00b0 04       		.byte	0x4
 13157 00b1 06       		.uleb128 .LBB127-.LBB124
 13158 00b2 12       		.uleb128 .LBE127-.LBB124
 13159 00b3 00       		.byte	0
 13160              	.LLRL82:
 13161 00b4 05       		.byte	0x5
 13162 00b5 28000000 		.long	.LBB132
 13163 00b9 04       		.byte	0x4
 13164 00ba 00       		.uleb128 .LBB132-.LBB132
 13165 00bb 3D       		.uleb128 .LBE132-.LBB132
 13166 00bc 04       		.byte	0x4
 13167 00bd 58       		.uleb128 .LBB139-.LBB132
 13168 00be 5C       		.uleb128 .LBE139-.LBB132
 13169 00bf 00       		.byte	0
 13170              	.LLRL86:
 13171 00c0 05       		.byte	0x5
 13172 00c1 28000000 		.long	.LBB134
 13173 00c5 04       		.byte	0x4
 13174 00c6 00       		.uleb128 .LBB134-.LBB134
 13175 00c7 35       		.uleb128 .LBE134-.LBB134
 13176 00c8 04       		.byte	0x4
 13177 00c9 58       		.uleb128 .LBB137-.LBB134
 13178 00ca 5C       		.uleb128 .LBE137-.LBB134
 13179 00cb 00       		.byte	0
 13180              	.LLRL91:
 13181 00cc 05       		.byte	0x5
 13182 00cd 22000000 		.long	.LBB146
 13183 00d1 04       		.byte	0x4
 13184 00d2 00       		.uleb128 .LBB146-.LBB146
 13185 00d3 1C       		.uleb128 .LBE146-.LBB146
 13186 00d4 04       		.byte	0x4
 13187 00d5 36       		.uleb128 .LBB155-.LBB146
GAS LISTING /tmp/ccoiMs3n.s 			page 236


 13188 00d6 55       		.uleb128 .LBE155-.LBB146
 13189 00d7 00       		.byte	0
 13190              	.LLRL99:
 13191 00d8 05       		.byte	0x5
 13192 00d9 65000000 		.long	.LBB150
 13193 00dd 04       		.byte	0x4
 13194 00de 00       		.uleb128 .LBB150-.LBB150
 13195 00df 02       		.uleb128 .LBE150-.LBB150
 13196 00e0 04       		.byte	0x4
 13197 00e1 05       		.uleb128 .LBB153-.LBB150
 13198 00e2 07       		.uleb128 .LBE153-.LBB150
 13199 00e3 00       		.byte	0
 13200              	.LLRL103:
 13201 00e4 07       		.byte	0x7
 13202 00e5 28000000 		.long	.LBB164
 13203 00e9 3B       		.uleb128 .LBE164-.LBB164
 13204              	.LLRL111:
 13205 00ea 05       		.byte	0x5
 13206 00eb 80000000 		.long	.LBB179
 13207 00ef 04       		.byte	0x4
 13208 00f0 00       		.uleb128 .LBB179-.LBB179
 13209 00f1 40       		.uleb128 .LBE179-.LBB179
 13210 00f2 04       		.byte	0x4
 13211 00f3 43       		.uleb128 .LBB180-.LBB179
 13212 00f4 4C       		.uleb128 .LBE180-.LBB179
 13213 00f5 04       		.byte	0x4
 13214 00f6 54       		.uleb128 .LBB181-.LBB179
 13215 00f7 5A       		.uleb128 .LBE181-.LBB179
 13216 00f8 00       		.byte	0
 13217              	.LLRL121:
 13218 00f9 05       		.byte	0x5
 13219 00fa 28000000 		.long	.LBB186
 13220 00fe 04       		.byte	0x4
 13221 00ff 00       		.uleb128 .LBB186-.LBB186
 13222 0100 3D       		.uleb128 .LBE186-.LBB186
 13223 0101 04       		.byte	0x4
 13224 0102 58       		.uleb128 .LBB193-.LBB186
 13225 0103 5C       		.uleb128 .LBE193-.LBB186
 13226 0104 00       		.byte	0
 13227              	.LLRL125:
 13228 0105 05       		.byte	0x5
 13229 0106 28000000 		.long	.LBB188
 13230 010a 04       		.byte	0x4
 13231 010b 00       		.uleb128 .LBB188-.LBB188
 13232 010c 35       		.uleb128 .LBE188-.LBB188
 13233 010d 04       		.byte	0x4
 13234 010e 58       		.uleb128 .LBB191-.LBB188
 13235 010f 5C       		.uleb128 .LBE191-.LBB188
 13236 0110 00       		.byte	0
 13237              	.LLRL130:
 13238 0111 05       		.byte	0x5
 13239 0112 22000000 		.long	.LBB200
 13240 0116 04       		.byte	0x4
 13241 0117 00       		.uleb128 .LBB200-.LBB200
 13242 0118 1C       		.uleb128 .LBE200-.LBB200
 13243 0119 04       		.byte	0x4
 13244 011a 36       		.uleb128 .LBB209-.LBB200
GAS LISTING /tmp/ccoiMs3n.s 			page 237


 13245 011b 59       		.uleb128 .LBE209-.LBB200
 13246 011c 00       		.byte	0
 13247              	.LLRL139:
 13248 011d 05       		.byte	0x5
 13249 011e 65000000 		.long	.LBB204
 13250 0122 04       		.byte	0x4
 13251 0123 00       		.uleb128 .LBB204-.LBB204
 13252 0124 02       		.uleb128 .LBE204-.LBB204
 13253 0125 04       		.byte	0x4
 13254 0126 05       		.uleb128 .LBB207-.LBB204
 13255 0127 07       		.uleb128 .LBE207-.LBB204
 13256 0128 00       		.byte	0
 13257              	.LLRL144:
 13258 0129 05       		.byte	0x5
 13259 012a 28000000 		.long	.LBB214
 13260 012e 04       		.byte	0x4
 13261 012f 00       		.uleb128 .LBB214-.LBB214
 13262 0130 3D       		.uleb128 .LBE214-.LBB214
 13263 0131 04       		.byte	0x4
 13264 0132 58       		.uleb128 .LBB221-.LBB214
 13265 0133 5C       		.uleb128 .LBE221-.LBB214
 13266 0134 00       		.byte	0
 13267              	.LLRL148:
 13268 0135 05       		.byte	0x5
 13269 0136 28000000 		.long	.LBB216
 13270 013a 04       		.byte	0x4
 13271 013b 00       		.uleb128 .LBB216-.LBB216
 13272 013c 35       		.uleb128 .LBE216-.LBB216
 13273 013d 04       		.byte	0x4
 13274 013e 58       		.uleb128 .LBB219-.LBB216
 13275 013f 5C       		.uleb128 .LBE219-.LBB216
 13276 0140 00       		.byte	0
 13277              	.LLRL153:
 13278 0141 05       		.byte	0x5
 13279 0142 22000000 		.long	.LBB228
 13280 0146 04       		.byte	0x4
 13281 0147 00       		.uleb128 .LBB228-.LBB228
 13282 0148 1C       		.uleb128 .LBE228-.LBB228
 13283 0149 04       		.byte	0x4
 13284 014a 36       		.uleb128 .LBB237-.LBB228
 13285 014b 55       		.uleb128 .LBE237-.LBB228
 13286 014c 00       		.byte	0
 13287              	.LLRL161:
 13288 014d 05       		.byte	0x5
 13289 014e 65000000 		.long	.LBB232
 13290 0152 04       		.byte	0x4
 13291 0153 00       		.uleb128 .LBB232-.LBB232
 13292 0154 02       		.uleb128 .LBE232-.LBB232
 13293 0155 04       		.byte	0x4
 13294 0156 05       		.uleb128 .LBB235-.LBB232
 13295 0157 07       		.uleb128 .LBE235-.LBB232
 13296 0158 00       		.byte	0
 13297              	.LLRL170:
 13298 0159 05       		.byte	0x5
 13299 015a 60000000 		.long	.LBB242
 13300 015e 04       		.byte	0x4
 13301 015f 00       		.uleb128 .LBB242-.LBB242
GAS LISTING /tmp/ccoiMs3n.s 			page 238


 13302 0160 00       		.uleb128 .LBE242-.LBB242
 13303 0161 04       		.byte	0x4
 13304 0162 03       		.uleb128 .LBB247-.LBB242
 13305 0163 0D       		.uleb128 .LBE247-.LBB242
 13306 0164 04       		.byte	0x4
 13307 0165 11       		.uleb128 .LBB248-.LBB242
 13308 0166 34       		.uleb128 .LBE248-.LBB242
 13309 0167 04       		.byte	0x4
 13310 0168 3B       		.uleb128 .LBB249-.LBB242
 13311 0169 54       		.uleb128 .LBE249-.LBB242
 13312 016a 00       		.byte	0
 13313              	.LLRL178:
 13314 016b 05       		.byte	0x5
 13315 016c 28000000 		.long	.LBB254
 13316 0170 04       		.byte	0x4
 13317 0171 00       		.uleb128 .LBB254-.LBB254
 13318 0172 3D       		.uleb128 .LBE254-.LBB254
 13319 0173 04       		.byte	0x4
 13320 0174 58       		.uleb128 .LBB261-.LBB254
 13321 0175 5C       		.uleb128 .LBE261-.LBB254
 13322 0176 00       		.byte	0
 13323              	.LLRL182:
 13324 0177 05       		.byte	0x5
 13325 0178 28000000 		.long	.LBB256
 13326 017c 04       		.byte	0x4
 13327 017d 00       		.uleb128 .LBB256-.LBB256
 13328 017e 35       		.uleb128 .LBE256-.LBB256
 13329 017f 04       		.byte	0x4
 13330 0180 58       		.uleb128 .LBB259-.LBB256
 13331 0181 5C       		.uleb128 .LBE259-.LBB256
 13332 0182 00       		.byte	0
 13333              	.LLRL187:
 13334 0183 05       		.byte	0x5
 13335 0184 22000000 		.long	.LBB268
 13336 0188 04       		.byte	0x4
 13337 0189 00       		.uleb128 .LBB268-.LBB268
 13338 018a 1C       		.uleb128 .LBE268-.LBB268
 13339 018b 04       		.byte	0x4
 13340 018c 36       		.uleb128 .LBB277-.LBB268
 13341 018d 55       		.uleb128 .LBE277-.LBB268
 13342 018e 00       		.byte	0
 13343              	.LLRL195:
 13344 018f 05       		.byte	0x5
 13345 0190 65000000 		.long	.LBB272
 13346 0194 04       		.byte	0x4
 13347 0195 00       		.uleb128 .LBB272-.LBB272
 13348 0196 02       		.uleb128 .LBE272-.LBB272
 13349 0197 04       		.byte	0x4
 13350 0198 05       		.uleb128 .LBB275-.LBB272
 13351 0199 07       		.uleb128 .LBE275-.LBB272
 13352 019a 00       		.byte	0
 13353              	.LLRL200:
 13354 019b 05       		.byte	0x5
 13355 019c 28000000 		.long	.LBB282
 13356 01a0 04       		.byte	0x4
 13357 01a1 00       		.uleb128 .LBB282-.LBB282
 13358 01a2 3D       		.uleb128 .LBE282-.LBB282
GAS LISTING /tmp/ccoiMs3n.s 			page 239


 13359 01a3 04       		.byte	0x4
 13360 01a4 58       		.uleb128 .LBB289-.LBB282
 13361 01a5 5C       		.uleb128 .LBE289-.LBB282
 13362 01a6 00       		.byte	0
 13363              	.LLRL204:
 13364 01a7 05       		.byte	0x5
 13365 01a8 28000000 		.long	.LBB284
 13366 01ac 04       		.byte	0x4
 13367 01ad 00       		.uleb128 .LBB284-.LBB284
 13368 01ae 35       		.uleb128 .LBE284-.LBB284
 13369 01af 04       		.byte	0x4
 13370 01b0 58       		.uleb128 .LBB287-.LBB284
 13371 01b1 5C       		.uleb128 .LBE287-.LBB284
 13372 01b2 00       		.byte	0
 13373              	.LLRL209:
 13374 01b3 05       		.byte	0x5
 13375 01b4 22000000 		.long	.LBB296
 13376 01b8 04       		.byte	0x4
 13377 01b9 00       		.uleb128 .LBB296-.LBB296
 13378 01ba 1C       		.uleb128 .LBE296-.LBB296
 13379 01bb 04       		.byte	0x4
 13380 01bc 36       		.uleb128 .LBB305-.LBB296
 13381 01bd 55       		.uleb128 .LBE305-.LBB296
 13382 01be 00       		.byte	0
 13383              	.LLRL217:
 13384 01bf 05       		.byte	0x5
 13385 01c0 65000000 		.long	.LBB300
 13386 01c4 04       		.byte	0x4
 13387 01c5 00       		.uleb128 .LBB300-.LBB300
 13388 01c6 02       		.uleb128 .LBE300-.LBB300
 13389 01c7 04       		.byte	0x4
 13390 01c8 05       		.uleb128 .LBB303-.LBB300
 13391 01c9 07       		.uleb128 .LBE303-.LBB300
 13392 01ca 00       		.byte	0
 13393              	.LLRL220:
 13394 01cb 07       		.byte	0x7
 13395 01cc 00000000 		.long	.LFB148
 13396 01d0 23       		.uleb128 .LFE148-.LFB148
 13397 01d1 07       		.byte	0x7
 13398 01d2 00000000 		.long	.LFB220
 13399 01d6 A901     		.uleb128 .LFE220-.LFB220
 13400 01d8 07       		.byte	0x7
 13401 01d9 00000000 		.long	.LFB225
 13402 01dd 7F       		.uleb128 .LFE225-.LFB225
 13403 01de 07       		.byte	0x7
 13404 01df 00000000 		.long	.LFB226
 13405 01e3 D801     		.uleb128 .LFE226-.LFB226
 13406 01e5 07       		.byte	0x7
 13407 01e6 00000000 		.long	.LFB227
 13408 01ea 8401     		.uleb128 .LFE227-.LFB227
 13409 01ec 07       		.byte	0x7
 13410 01ed 00000000 		.long	.LFB228
 13411 01f1 8001     		.uleb128 .LFE228-.LFB228
 13412 01f3 07       		.byte	0x7
 13413 01f4 00000000 		.long	.LFB229
 13414 01f8 7B       		.uleb128 .LFE229-.LFB229
 13415 01f9 07       		.byte	0x7
GAS LISTING /tmp/ccoiMs3n.s 			page 240


 13416 01fa 00000000 		.long	.LFB230
 13417 01fe 69       		.uleb128 .LFE230-.LFB230
 13418 01ff 07       		.byte	0x7
 13419 0200 00000000 		.long	.LFB231
 13420 0204 8401     		.uleb128 .LFE231-.LFB231
 13421 0206 07       		.byte	0x7
 13422 0207 00000000 		.long	.LFB232
 13423 020b 77       		.uleb128 .LFE232-.LFB232
 13424 020c 07       		.byte	0x7
 13425 020d 00000000 		.long	.LFB233
 13426 0211 E701     		.uleb128 .LFE233-.LFB233
 13427 0213 07       		.byte	0x7
 13428 0214 00000000 		.long	.LFB234
 13429 0218 8401     		.uleb128 .LFE234-.LFB234
 13430 021a 07       		.byte	0x7
 13431 021b 00000000 		.long	.LFB235
 13432 021f 7B       		.uleb128 .LFE235-.LFB235
 13433 0220 07       		.byte	0x7
 13434 0221 00000000 		.long	.LFB236
 13435 0225 6F       		.uleb128 .LFE236-.LFB236
 13436 0226 07       		.byte	0x7
 13437 0227 00000000 		.long	.LFB237
 13438 022b 8401     		.uleb128 .LFE237-.LFB237
 13439 022d 07       		.byte	0x7
 13440 022e 00000000 		.long	.LFB238
 13441 0232 77       		.uleb128 .LFE238-.LFB238
 13442 0233 07       		.byte	0x7
 13443 0234 00000000 		.long	.LFB239
 13444 0238 C901     		.uleb128 .LFE239-.LFB239
 13445 023a 07       		.byte	0x7
 13446 023b 00000000 		.long	.LFB240
 13447 023f 8401     		.uleb128 .LFE240-.LFB240
 13448 0241 07       		.byte	0x7
 13449 0242 00000000 		.long	.LFB241
 13450 0246 77       		.uleb128 .LFE241-.LFB241
 13451 0247 07       		.byte	0x7
 13452 0248 00000000 		.long	.LFB242
 13453 024c 6B       		.uleb128 .LFE242-.LFB242
 13454 024d 07       		.byte	0x7
 13455 024e 00000000 		.long	.LFB243
 13456 0252 8401     		.uleb128 .LFE243-.LFB243
 13457 0254 07       		.byte	0x7
 13458 0255 00000000 		.long	.LFB244
 13459 0259 77       		.uleb128 .LFE244-.LFB244
 13460 025a 00       		.byte	0
 13461              	.Ldebug_ranges3:
 13462              		.section	.debug_line,"",@progbits
 13463              	.Ldebug_line0:
 13464 0000 810E0000 		.section	.debug_str,"MS",@progbits,1
 13464      05000400 
 13464      C7000000 
 13464      010101FB 
 13464      0E0D0001 
 13465              	.LASF236:
 13466 0000 6368506F 		.string	"chPoolObjectInit"
 13466      6F6C4F62 
 13466      6A656374 
GAS LISTING /tmp/ccoiMs3n.s 			page 241


 13466      496E6974 
 13466      00
 13467              	.LASF112:
 13468 0011 63737461 		.string	"cstack_base"
 13468      636B5F62 
 13468      61736500 
 13469              	.LASF221:
 13470 001d 63684661 		.string	"chFactoryFindObject"
 13470      63746F72 
 13470      7946696E 
 13470      644F626A 
 13470      65637400 
 13471              	.LASF104:
 13472 0031 77746D74 		.string	"wtmtxp"
 13472      787000
 13473              	.LASF142:
 13474 0038 6D656D6F 		.string	"memory_pool_t"
 13474      72795F70 
 13474      6F6F6C5F 
 13474      7400
 13475              	.LASF192:
 13476 0046 63684D74 		.string	"chMtxLock"
 13476      784C6F63 
 13476      6B00
 13477              	.LASF178:
 13478 0050 6669666F 		.string	"fifo_list"
 13478      5F6C6973 
 13478      7400
 13479              	.LASF189:
 13480 005a 7374726E 		.string	"strncmp"
 13480      636D7000 
 13481              	.LASF41:
 13482 0062 64697370 		.string	"dispose"
 13482      6F736500 
 13483              	.LASF154:
 13484 006a 64796E5F 		.string	"dyn_list_t"
 13484      6C697374 
 13484      5F7400
 13485              	.LASF89:
 13486 0075 63685F72 		.string	"ch_registry"
 13486      65676973 
 13486      74727900 
 13487              	.LASF86:
 13488 0081 73797374 		.string	"systime"
 13488      696D6500 
 13489              	.LASF244:
 13490 0089 6368436F 		.string	"chCoreAllocAlignedI"
 13490      7265416C 
 13490      6C6F6341 
 13490      6C69676E 
 13490      65644900 
 13491              	.LASF37:
 13492 009d 666C6167 		.string	"flags"
 13492      7300
 13493              	.LASF66:
 13494 00a3 73797374 		.string	"systime_t"
 13494      696D655F 
GAS LISTING /tmp/ccoiMs3n.s 			page 242


 13494      7400
 13495              	.LASF47:
 13496 00ad 7265616C 		.string	"realprio"
 13496      7072696F 
 13496      00
 13497              	.LASF122:
 13498 00b6 62756666 		.string	"buffer"
 13498      657200
 13499              	.LASF162:
 13500 00bd 64796E5F 		.string	"dyn_semaphore_t"
 13500      73656D61 
 13500      70686F72 
 13500      655F7400 
 13501              	.LASF200:
 13502 00cd 63684661 		.string	"chFactoryReleaseObjectsFIFO"
 13502      63746F72 
 13502      7952656C 
 13502      65617365 
 13502      4F626A65 
 13503              	.LASF45:
 13504 00e9 6570656E 		.string	"epending"
 13504      64696E67 
 13504      00
 13505              	.LASF224:
 13506 00f2 64796E5F 		.string	"dyn_release_object_pool"
 13506      72656C65 
 13506      6173655F 
 13506      6F626A65 
 13506      63745F70 
 13507              	.LASF2:
 13508 010a 756E7369 		.string	"unsigned int"
 13508      676E6564 
 13508      20696E74 
 13508      00
 13509              	.LASF70:
 13510 0117 6E657874 		.string	"next"
 13510      00
 13511              	.LASF148:
 13512 011c 776D7478 		.string	"wmtx"
 13512      00
 13513              	.LASF8:
 13514 0121 5F466C6F 		.string	"_Float128"
 13514      61743132 
 13514      3800
 13515              	.LASF54:
 13516 012b 636F7265 		.string	"core_id"
 13516      5F696400 
 13517              	.LASF172:
 13518 0133 6F626A5F 		.string	"obj_list"
 13518      6C697374 
 13518      00
 13519              	.LASF15:
 13520 013c 5F5F696E 		.string	"__int32_t"
 13520      7433325F 
 13520      7400
 13521              	.LASF38:
 13522 0146 72656673 		.string	"refs"
GAS LISTING /tmp/ccoiMs3n.s 			page 243


 13522      00
 13523              	.LASF138:
 13524 014b 68656170 		.string	"heap"
 13524      00
 13525              	.LASF203:
 13526 0150 63684661 		.string	"chFactoryCreateObjectsFIFO"
 13526      63746F72 
 13526      79437265 
 13526      6174654F 
 13526      626A6563 
 13527              	.LASF239:
 13528 016b 5F5F6C65 		.string	"__len"
 13528      6E00
 13529              	.LASF100:
 13530 0171 77746F62 		.string	"wtobjp"
 13530      6A7000
 13531              	.LASF52:
 13532 0178 76746C69 		.string	"vtlist"
 13532      737400
 13533              	.LASF82:
 13534 017f 706F7274 		.string	"port_context"
 13534      5F636F6E 
 13534      74657874 
 13534      00
 13535              	.LASF108:
 13536 018c 63685F72 		.string	"ch_ready_list"
 13536      65616479 
 13536      5F6C6973 
 13536      7400
 13537              	.LASF69:
 13538 019a 63685F6C 		.string	"ch_list"
 13538      69737400 
 13539              	.LASF107:
 13540 01a2 63685F6D 		.string	"ch_mutex"
 13540      75746578 
 13540      00
 13541              	.LASF87:
 13542 01ab 6C617374 		.string	"laststamp"
 13542      7374616D 
 13542      7000
 13543              	.LASF105:
 13544 01b5 65776D61 		.string	"ewmask"
 13544      736B00
 13545              	.LASF73:
 13546 01bc 70726576 		.string	"prev"
 13546      00
 13547              	.LASF93:
 13548 01c1 63685F74 		.string	"ch_threads_queue"
 13548      68726561 
 13548      64735F71 
 13548      75657565 
 13548      00
 13549              	.LASF171:
 13550 01d2 63685F6F 		.string	"ch_objects_factory"
 13550      626A6563 
 13550      74735F66 
 13550      6163746F 
GAS LISTING /tmp/ccoiMs3n.s 			page 244


 13550      727900
 13551              	.LASF63:
 13552 01e5 63685F73 		.string	"ch_system_debug"
 13552      79737465 
 13552      6D5F6465 
 13552      62756700 
 13553              	.LASF163:
 13554 01f5 63685F64 		.string	"ch_dyn_mailbox"
 13554      796E5F6D 
 13554      61696C62 
 13554      6F7800
 13555              	.LASF167:
 13556 0204 64796E5F 		.string	"dyn_objects_fifo_t"
 13556      6F626A65 
 13556      6374735F 
 13556      6669666F 
 13556      5F7400
 13557              	.LASF157:
 13558 0217 6F626A70 		.string	"objp"
 13558      00
 13559              	.LASF96:
 13560 021c 6C697374 		.string	"list"
 13560      00
 13561              	.LASF78:
 13562 0221 63685F64 		.string	"ch_delta_list"
 13562      656C7461 
 13562      5F6C6973 
 13562      7400
 13563              	.LASF21:
 13564 022f 75696E74 		.string	"uint32_t"
 13564      33325F74 
 13564      00
 13565              	.LASF193:
 13566 0238 6368506F 		.string	"chPoolObjectInitAligned"
 13566      6F6C4F62 
 13566      6A656374 
 13566      496E6974 
 13566      416C6967 
 13567              	.LASF102:
 13568 0250 73656E74 		.string	"sentmsg"
 13568      6D736700 
 13569              	.LASF28:
 13570 0258 6576656E 		.string	"eventmask_t"
 13570      746D6173 
 13570      6B5F7400 
 13571              	.LASF106:
 13572 0264 63685F73 		.string	"ch_semaphore"
 13572      656D6170 
 13572      686F7265 
 13572      00
 13573              	.LASF26:
 13574 0271 74707269 		.string	"tprio_t"
 13574      6F5F7400 
 13575              	.LASF119:
 13576 0279 62617365 		.string	"base"
 13576      00
 13577              	.LASF129:
GAS LISTING /tmp/ccoiMs3n.s 			page 245


 13578 027e 6D656D6F 		.string	"memory_heap_t"
 13578      72795F68 
 13578      6561705F 
 13578      7400
 13579              	.LASF116:
 13580 028c 6F735F69 		.string	"os_instance_config_t"
 13580      6E737461 
 13580      6E63655F 
 13580      636F6E66 
 13580      69675F74 
 13581              	.LASF18:
 13582 02a1 6C6F6E67 		.string	"long long unsigned int"
 13582      206C6F6E 
 13582      6720756E 
 13582      7369676E 
 13582      65642069 
 13583              	.LASF195:
 13584 02b8 63684D74 		.string	"chMtxObjectInit"
 13584      784F626A 
 13584      65637449 
 13584      6E697400 
 13585              	.LASF235:
 13586 02c8 6F626A73 		.string	"objsize"
 13586      697A6500 
 13587              	.LASF97:
 13588 02d0 70717565 		.string	"pqueue"
 13588      756500
 13589              	.LASF29:
 13590 02d7 636E745F 		.string	"cnt_t"
 13590      7400
 13591              	.LASF232:
 13592 02dd 64796E5F 		.string	"dyn_list_init"
 13592      6C697374 
 13592      5F696E69 
 13592      7400
 13593              	.LASF219:
 13594 02eb 63684661 		.string	"chFactoryReleaseObject"
 13594      63746F72 
 13594      7952656C 
 13594      65617365 
 13594      4F626A65 
 13595              	.LASF241:
 13596 0302 73746B6C 		.string	"stkline_t"
 13596      696E655F 
 13596      7400
 13597              	.LASF156:
 13598 030c 656C656D 		.string	"element"
 13598      656E7400 
 13599              	.LASF169:
 13600 0314 70697065 		.string	"pipe"
 13600      00
 13601              	.LASF213:
 13602 0319 63684661 		.string	"chFactoryReleaseSemaphore"
 13602      63746F72 
 13602      7952656C 
 13602      65617365 
 13602      53656D61 
GAS LISTING /tmp/ccoiMs3n.s 			page 246


 13603              	.LASF123:
 13604 0333 77727074 		.string	"wrptr"
 13604      7200
 13605              	.LASF33:
 13606 0339 6F776E65 		.string	"owner"
 13606      7200
 13607              	.LASF117:
 13608 033f 73656D61 		.string	"semaphore_t"
 13608      70686F72 
 13608      655F7400 
 13609              	.LASF237:
 13610 034b 5F5F6465 		.string	"__dest"
 13610      737400
 13611              	.LASF94:
 13612 0352 74687265 		.string	"threads_queue_t"
 13612      6164735F 
 13612      71756575 
 13612      655F7400 
 13613              	.LASF46:
 13614 0362 6D74786C 		.string	"mtxlist"
 13614      69737400 
 13615              	.LASF84:
 13616 036a 63685F76 		.string	"ch_virtual_timers_list"
 13616      69727475 
 13616      616C5F74 
 13616      696D6572 
 13616      735F6C69 
 13617              	.LASF55:
 13618 0381 72666375 		.string	"rfcu"
 13618      00
 13619              	.LASF222:
 13620 0386 63684661 		.string	"chFactoryRegisterObject"
 13620      63746F72 
 13620      79526567 
 13620      69737465 
 13620      724F626A 
 13621              	.LASF136:
 13622 039e 75736564 		.string	"used"
 13622      00
 13623              	.LASF32:
 13624 03a3 74687265 		.string	"thread_t"
 13624      61645F74 
 13624      00
 13625              	.LASF242:
 13626 03ac 68656170 		.string	"heap_header"
 13626      5F686561 
 13626      64657200 
 13627              	.LASF12:
 13628 03b8 73697A65 		.string	"size_t"
 13628      5F7400
 13629              	.LASF98:
 13630 03bf 7264796D 		.string	"rdymsg"
 13630      736700
 13631              	.LASF140:
 13632 03c6 6F626A65 		.string	"object_size"
 13632      63745F73 
 13632      697A6500 
GAS LISTING /tmp/ccoiMs3n.s 			page 247


 13633              	.LASF74:
 13634 03d2 63685F70 		.string	"ch_priority_queue_t"
 13634      72696F72 
 13634      6974795F 
 13634      71756575 
 13634      655F7400 
 13635              	.LASF234:
 13636 03e6 63684669 		.string	"chFifoObjectInitAligned"
 13636      666F4F62 
 13636      6A656374 
 13636      496E6974 
 13636      416C6967 
 13637              	.LASF226:
 13638 03fe 64796E5F 		.string	"dyn_create_object_pool"
 13638      63726561 
 13638      74655F6F 
 13638      626A6563 
 13638      745F706F 
 13639              	.LASF83:
 13640 0415 5F426F6F 		.string	"_Bool"
 13640      6C00
 13641              	.LASF42:
 13642 041b 6F626A65 		.string	"object"
 13642      637400
 13643              	.LASF180:
 13644 0422 6F626A65 		.string	"objects_factory_t"
 13644      6374735F 
 13644      66616374 
 13644      6F72795F 
 13644      7400
 13645              	.LASF126:
 13646 0434 6D61696C 		.string	"mailbox_t"
 13646      626F785F 
 13646      7400
 13647              	.LASF60:
 13648 043e 63685F72 		.string	"ch_rfcu"
 13648      66637500 
 13649              	.LASF135:
 13650 0446 66726565 		.string	"free"
 13650      00
 13651              	.LASF17:
 13652 044b 5F5F7569 		.string	"__uint64_t"
 13652      6E743634 
 13652      5F7400
 13653              	.LASF179:
 13654 0456 70697065 		.string	"pipe_list"
 13654      5F6C6973 
 13654      7400
 13655              	.LASF153:
 13656 0460 63685F64 		.string	"ch_dyn_list"
 13656      796E5F6C 
 13656      69737400 
 13657              	.LASF50:
 13658 046c 63685F6F 		.string	"ch_os_instance"
 13658      735F696E 
 13658      7374616E 
 13658      636500
GAS LISTING /tmp/ccoiMs3n.s 			page 248


 13659              	.LASF143:
 13660 047b 706F6F6C 		.string	"pool"
 13660      00
 13661              	.LASF76:
 13662 0480 7072696F 		.string	"prio"
 13662      00
 13663              	.LASF146:
 13664 0485 6F626A65 		.string	"objects_fifo_t"
 13664      6374735F 
 13664      6669666F 
 13664      5F7400
 13665              	.LASF176:
 13666 0494 73656D5F 		.string	"sem_pool"
 13666      706F6F6C 
 13666      00
 13667              	.LASF207:
 13668 049d 73697A65 		.string	"size2"
 13668      3200
 13669              	.LASF187:
 13670 04a3 6368506F 		.string	"chPoolFree"
 13670      6F6C4672 
 13670      656500
 13671              	.LASF4:
 13672 04ae 63686172 		.string	"char"
 13672      00
 13673              	.LASF77:
 13674 04b3 63685F64 		.string	"ch_delta_list_t"
 13674      656C7461 
 13674      5F6C6973 
 13674      745F7400 
 13675              	.LASF59:
 13676 04c3 72666375 		.string	"rfcu_mask_t"
 13676      5F6D6173 
 13676      6B5F7400 
 13677              	.LASF92:
 13678 04cf 74687265 		.string	"thread_reference_t"
 13678      61645F72 
 13678      65666572 
 13678      656E6365 
 13678      5F7400
 13679              	.LASF34:
 13680 04e2 77616261 		.string	"wabase"
 13680      736500
 13681              	.LASF24:
 13682 04e9 74737461 		.string	"tstate_t"
 13682      74655F74 
 13682      00
 13683              	.LASF40:
 13684 04f2 72717565 		.string	"rqueue"
 13684      756500
 13685              	.LASF220:
 13686 04f9 63684661 		.string	"chFactoryFindObjectByPointer"
 13686      63746F72 
 13686      7946696E 
 13686      644F626A 
 13686      65637442 
 13687              	.LASF20:
GAS LISTING /tmp/ccoiMs3n.s 			page 249


 13688 0516 75696E74 		.string	"uint8_t"
 13688      385F7400 
 13689              	.LASF151:
 13690 051e 63685F64 		.string	"ch_dyn_element"
 13690      796E5F65 
 13690      6C656D65 
 13690      6E7400
 13691              	.LASF44:
 13692 052d 6D736771 		.string	"msgqueue"
 13692      75657565 
 13692      00
 13693              	.LASF49:
 13694 0536 63685F74 		.string	"ch_thread"
 13694      68726561 
 13694      6400
 13695              	.LASF137:
 13696 0540 70616765 		.string	"pages"
 13696      7300
 13697              	.LASF160:
 13698 0546 64796E5F 		.string	"dyn_buffer_t"
 13698      62756666 
 13698      65725F74 
 13698      00
 13699              	.LASF194:
 13700 0553 6368436F 		.string	"chCoreAllocFromTopI"
 13700      7265416C 
 13700      6C6F6346 
 13700      726F6D54 
 13700      6F704900 
 13701              	.LASF65:
 13702 0567 73797374 		.string	"system_debug_t"
 13702      656D5F64 
 13702      65627567 
 13702      5F7400
 13703              	.LASF233:
 13704 0576 636F7079 		.string	"copy_name"
 13704      5F6E616D 
 13704      6500
 13705              	.LASF198:
 13706 0580 63684661 		.string	"chFactoryFindPipe"
 13706      63746F72 
 13706      7946696E 
 13706      64506970 
 13706      6500
 13707              	.LASF6:
 13708 0592 6C6F6E67 		.string	"long long int"
 13708      206C6F6E 
 13708      6720696E 
 13708      7400
 13709              	.LASF184:
 13710 05a0 63684D42 		.string	"chMBObjectInit"
 13710      4F626A65 
 13710      6374496E 
 13710      697400
 13711              	.LASF191:
 13712 05af 63684D74 		.string	"chMtxUnlock"
 13712      78556E6C 
GAS LISTING /tmp/ccoiMs3n.s 			page 250


 13712      6F636B00 
 13713              	.LASF27:
 13714 05bb 6D73675F 		.string	"msg_t"
 13714      7400
 13715              	.LASF173:
 13716 05c1 6F626A5F 		.string	"obj_pool"
 13716      706F6F6C 
 13716      00
 13717              	.LASF186:
 13718 05ca 63684865 		.string	"chHeapFree"
 13718      61704672 
 13718      656500
 13719              	.LASF159:
 13720 05d5 63685F64 		.string	"ch_dyn_object"
 13720      796E5F6F 
 13720      626A6563 
 13720      7400
 13721              	.LASF227:
 13722 05e3 64796E5F 		.string	"dyn_release_object_heap"
 13722      72656C65 
 13722      6173655F 
 13722      6F626A65 
 13722      63745F68 
 13723              	.LASF165:
 13724 05fb 63685F64 		.string	"ch_dyn_objects_fifo"
 13724      796E5F6F 
 13724      626A6563 
 13724      74735F66 
 13724      69666F00 
 13725              	.LASF197:
 13726 060f 63684661 		.string	"chFactoryReleasePipe"
 13726      63746F72 
 13726      7952656C 
 13726      65617365 
 13726      50697065 
 13727              	.LASF214:
 13728 0624 63684661 		.string	"chFactoryFindSemaphore"
 13728      63746F72 
 13728      7946696E 
 13728      6453656D 
 13728      6170686F 
 13729              	.LASF91:
 13730 063b 72656769 		.string	"registry_t"
 13730      73747279 
 13730      5F7400
 13731              	.LASF204:
 13732 0646 6F626A6E 		.string	"objn"
 13732      00
 13733              	.LASF245:
 13734 064b 6D656D73 		.string	"memset"
 13734      657400
 13735              	.LASF120:
 13736 0652 73697A65 		.string	"size"
 13736      00
 13737              	.LASF115:
 13738 0657 69646C65 		.string	"idlestack_end"
 13738      73746163 
GAS LISTING /tmp/ccoiMs3n.s 			page 251


 13738      6B5F656E 
 13738      6400
 13739              	.LASF168:
 13740 0665 63685F64 		.string	"ch_dyn_pipe"
 13740      796E5F70 
 13740      69706500 
 13741              	.LASF181:
 13742 0671 63685069 		.string	"chPipeObjectInit"
 13742      70654F62 
 13742      6A656374 
 13742      496E6974 
 13742      00
 13743              	.LASF61:
 13744 0682 6D61736B 		.string	"mask"
 13744      00
 13745              	.LASF133:
 13746 0687 68656164 		.string	"header"
 13746      657200
 13747              	.LASF95:
 13748 068e 74687265 		.string	"thread_dispose_t"
 13748      61645F64 
 13748      6973706F 
 13748      73655F74 
 13748      00
 13749              	.LASF67:
 13750 069f 73797369 		.string	"sysinterval_t"
 13750      6E746572 
 13750      76616C5F 
 13750      7400
 13751              	.LASF71:
 13752 06ad 63685F71 		.string	"ch_queue_t"
 13752      75657565 
 13752      5F7400
 13753              	.LASF174:
 13754 06b8 6275665F 		.string	"buf_list"
 13754      6C697374 
 13754      00
 13755              	.LASF64:
 13756 06c1 70616E69 		.string	"panic_msg"
 13756      635F6D73 
 13756      6700
 13757              	.LASF223:
 13758 06cb 64796E5F 		.string	"dyn_find_object"
 13758      66696E64 
 13758      5F6F626A 
 13758      65637400 
 13759              	.LASF114:
 13760 06db 69646C65 		.string	"idlestack_base"
 13760      73746163 
 13760      6B5F6261 
 13760      736500
 13761              	.LASF205:
 13762 06ea 6F626A61 		.string	"objalign"
 13762      6C69676E 
 13762      00
 13763              	.LASF23:
 13764 06f3 746D6F64 		.string	"tmode_t"
GAS LISTING /tmp/ccoiMs3n.s 			page 252


 13764      655F7400 
 13765              	.LASF30:
 13766 06fb 75636E74 		.string	"ucnt_t"
 13766      5F7400
 13767              	.LASF57:
 13768 0702 69646C65 		.string	"idlethread"
 13768      74687265 
 13768      616400
 13769              	.LASF7:
 13770 070d 6C6F6E67 		.string	"long double"
 13770      20646F75 
 13770      626C6500 
 13771              	.LASF68:
 13772 0719 63685F6C 		.string	"ch_list_t"
 13772      6973745F 
 13772      7400
 13773              	.LASF243:
 13774 0723 5F5F6661 		.string	"__factory_init"
 13774      63746F72 
 13774      795F696E 
 13774      697400
 13775              	.LASF188:
 13776 0732 63684865 		.string	"chHeapAllocAligned"
 13776      6170416C 
 13776      6C6F6341 
 13776      6C69676E 
 13776      656400
 13777              	.LASF147:
 13778 0745 636D7478 		.string	"cmtx"
 13778      00
 13779              	.LASF211:
 13780 074a 63684661 		.string	"chFactoryFindMailbox"
 13780      63746F72 
 13780      7946696E 
 13780      644D6169 
 13780      6C626F78 
 13781              	.LASF238:
 13782 075f 5F5F6368 		.string	"__ch"
 13782      00
 13783              	.LASF229:
 13784 0764 64796E5F 		.string	"dyn_list_unlink"
 13784      6C697374 
 13784      5F756E6C 
 13784      696E6B00 
 13785              	.LASF56:
 13786 0774 636F6E66 		.string	"config"
 13786      696700
 13787              	.LASF225:
 13788 077b 5F5F6675 		.string	"__func__"
 13788      6E635F5F 
 13788      00
 13789              	.LASF230:
 13790 0784 64796E5F 		.string	"dyn_list_find_prev"
 13790      6C697374 
 13790      5F66696E 
 13790      645F7072 
 13790      657600
GAS LISTING /tmp/ccoiMs3n.s 			page 253


 13791              	.LASF215:
 13792 0797 63684661 		.string	"chFactoryCreateSemaphore"
 13792      63746F72 
 13792      79437265 
 13792      61746553 
 13792      656D6170 
 13793              	.LASF14:
 13794 07b0 73686F72 		.string	"short int"
 13794      7420696E 
 13794      7400
 13795              	.LASF130:
 13796 07ba 6D656D6F 		.string	"memory_heap"
 13796      72795F68 
 13796      65617000 
 13797              	.LASF5:
 13798 07c6 6C6F6E67 		.string	"long int"
 13798      20696E74 
 13798      00
 13799              	.LASF81:
 13800 07cf 706F7274 		.string	"port_intctx"
 13800      5F696E74 
 13800      63747800 
 13801              	.LASF218:
 13802 07db 63684661 		.string	"chFactoryCreateBuffer"
 13802      63746F72 
 13802      79437265 
 13802      61746542 
 13802      75666665 
 13803              	.LASF132:
 13804 07f1 61726561 		.string	"area"
 13804      00
 13805              	.LASF196:
 13806 07f6 63685F66 		.string	"ch_factory"
 13806      6163746F 
 13806      727900
 13807              	.LASF240:
 13808 0801 474E5520 		.string	"GNU C17 11.4.0 -m32 -mtune=generic -march=i686 -ggdb -O2 -ffunction-sections -fdata-secti
 13808      43313720 
 13808      31312E34 
 13808      2E30202D 
 13808      6D333220 
 13809              	.LASF35:
 13810 08b9 7761656E 		.string	"waend"
 13810      6400
 13811              	.LASF202:
 13812 08bf 63684661 		.string	"chFactoryFindObjectsFIFO"
 13812      63746F72 
 13812      7946696E 
 13812      644F626A 
 13812      65637473 
 13813              	.LASF113:
 13814 08d8 63737461 		.string	"cstack_end"
 13814      636B5F65 
 13814      6E6400
 13815              	.LASF111:
 13816 08e3 63685F6F 		.string	"ch_os_instance_config"
 13816      735F696E 
GAS LISTING /tmp/ccoiMs3n.s 			page 254


 13816      7374616E 
 13816      63655F63 
 13816      6F6E6669 
 13817              	.LASF85:
 13818 08f9 646C6973 		.string	"dlist"
 13818      7400
 13819              	.LASF131:
 13820 08ff 70726F76 		.string	"provider"
 13820      69646572 
 13820      00
 13821              	.LASF22:
 13822 0908 75696E74 		.string	"uint64_t"
 13822      36345F74 
 13822      00
 13823              	.LASF208:
 13824 0911 6D736762 		.string	"msgbuf"
 13824      756600
 13825              	.LASF51:
 13826 0918 726C6973 		.string	"rlist"
 13826      7400
 13827              	.LASF217:
 13828 091e 63684661 		.string	"chFactoryFindBuffer"
 13828      63746F72 
 13828      7946696E 
 13828      64427566 
 13828      66657200 
 13829              	.LASF145:
 13830 0932 63685F6F 		.string	"ch_objects_fifo"
 13830      626A6563 
 13830      74735F66 
 13830      69666F00 
 13831              	.LASF125:
 13832 0942 72657365 		.string	"reset"
 13832      7400
 13833              	.LASF206:
 13834 0948 73697A65 		.string	"size1"
 13834      3100
 13835              	.LASF150:
 13836 094e 70697065 		.string	"pipe_t"
 13836      5F7400
 13837              	.LASF190:
 13838 0955 6368506F 		.string	"chPoolAlloc"
 13838      6F6C416C 
 13838      6C6F6300 
 13839              	.LASF13:
 13840 0961 5F5F7569 		.string	"__uint8_t"
 13840      6E74385F 
 13840      7400
 13841              	.LASF158:
 13842 096b 72656769 		.string	"registered_object_t"
 13842      73746572 
 13842      65645F6F 
 13842      626A6563 
 13842      745F7400 
 13843              	.LASF127:
 13844 097f 6D656D67 		.string	"memgetfunc_t"
 13844      65746675 
GAS LISTING /tmp/ccoiMs3n.s 			page 255


 13844      6E635F74 
 13844      00
 13845              	.LASF39:
 13846 098c 6E616D65 		.string	"name"
 13846      00
 13847              	.LASF246:
 13848 0991 5F5F6275 		.string	"__builtin_memset"
 13848      696C7469 
 13848      6E5F6D65 
 13848      6D736574 
 13848      00
 13849              	.LASF25:
 13850 09a2 74726566 		.string	"trefs_t"
 13850      735F7400 
 13851              	.LASF10:
 13852 09aa 6C6F6E67 		.string	"long unsigned int"
 13852      20756E73 
 13852      69676E65 
 13852      6420696E 
 13852      7400
 13853              	.LASF110:
 13854 09bc 72656164 		.string	"ready_list_t"
 13854      795F6C69 
 13854      73745F74 
 13854      00
 13855              	.LASF121:
 13856 09c9 6D656D6F 		.string	"memory_area_t"
 13856      72795F61 
 13856      7265615F 
 13856      7400
 13857              	.LASF90:
 13858 09d7 71756575 		.string	"queue"
 13858      6500
 13859              	.LASF199:
 13860 09dd 63684661 		.string	"chFactoryCreatePipe"
 13860      63746F72 
 13860      79437265 
 13860      61746550 
 13860      69706500 
 13861              	.LASF19:
 13862 09f1 696E7433 		.string	"int32_t"
 13862      325F7400 
 13863              	.LASF182:
 13864 09f9 63684775 		.string	"chGuardedPoolLoadArray"
 13864      61726465 
 13864      64506F6F 
 13864      6C4C6F61 
 13864      64417272 
 13865              	.LASF170:
 13866 0a10 64796E5F 		.string	"dyn_pipe_t"
 13866      70697065 
 13866      5F7400
 13867              	.LASF62:
 13868 0a1b 72666375 		.string	"rfcu_t"
 13868      5F7400
 13869              	.LASF103:
 13870 0a22 77747365 		.string	"wtsemp"
GAS LISTING /tmp/ccoiMs3n.s 			page 256


 13870      6D7000
 13871              	.LASF75:
 13872 0a29 63685F70 		.string	"ch_priority_queue"
 13872      72696F72 
 13872      6974795F 
 13872      71756575 
 13872      6500
 13873              	.LASF161:
 13874 0a3b 63685F64 		.string	"ch_dyn_semaphore"
 13874      796E5F73 
 13874      656D6170 
 13874      686F7265 
 13874      00
 13875              	.LASF72:
 13876 0a4c 63685F71 		.string	"ch_queue"
 13876      75657565 
 13876      00
 13877              	.LASF118:
 13878 0a55 6D757465 		.string	"mutex_t"
 13878      785F7400 
 13879              	.LASF9:
 13880 0a5d 756E7369 		.string	"unsigned char"
 13880      676E6564 
 13880      20636861 
 13880      7200
 13881              	.LASF16:
 13882 0a6b 5F5F7569 		.string	"__uint32_t"
 13882      6E743332 
 13882      5F7400
 13883              	.LASF43:
 13884 0a76 77616974 		.string	"waiting"
 13884      696E6700 
 13885              	.LASF88:
 13886 0a7e 76697274 		.string	"virtual_timers_list_t"
 13886      75616C5F 
 13886      74696D65 
 13886      72735F6C 
 13886      6973745F 
 13887              	.LASF152:
 13888 0a94 64796E5F 		.string	"dyn_element_t"
 13888      656C656D 
 13888      656E745F 
 13888      7400
 13889              	.LASF210:
 13890 0aa2 63684661 		.string	"chFactoryReleaseMailbox"
 13890      63746F72 
 13890      7952656C 
 13890      65617365 
 13890      4D61696C 
 13891              	.LASF185:
 13892 0aba 63685365 		.string	"chSemObjectInit"
 13892      6D4F626A 
 13892      65637449 
 13892      6E697400 
 13893              	.LASF177:
 13894 0aca 6D62785F 		.string	"mbx_list"
 13894      6C697374 
GAS LISTING /tmp/ccoiMs3n.s 			page 257


 13894      00
 13895              	.LASF166:
 13896 0ad3 6669666F 		.string	"fifo"
 13896      00
 13897              	.LASF231:
 13898 0ad8 64796E5F 		.string	"dyn_list_find"
 13898      6C697374 
 13898      5F66696E 
 13898      6400
 13899              	.LASF58:
 13900 0ae6 6D61696E 		.string	"mainthread"
 13900      74687265 
 13900      616400
 13901              	.LASF36:
 13902 0af1 73746174 		.string	"state"
 13902      6500
 13903              	.LASF139:
 13904 0af7 706F6F6C 		.string	"pool_header"
 13904      5F686561 
 13904      64657200 
 13905              	.LASF228:
 13906 0b03 64796E5F 		.string	"dyn_create_object_heap"
 13906      63726561 
 13906      74655F6F 
 13906      626A6563 
 13906      745F6865 
 13907              	.LASF48:
 13908 0b1a 6F735F69 		.string	"os_instance_t"
 13908      6E737461 
 13908      6E63655F 
 13908      7400
 13909              	.LASF80:
 13910 0b28 72656778 		.string	"regx86"
 13910      383600
 13911              	.LASF53:
 13912 0b2f 7265676C 		.string	"reglist"
 13912      69737400 
 13913              	.LASF212:
 13914 0b37 63684661 		.string	"chFactoryCreateMailbox"
 13914      63746F72 
 13914      79437265 
 13914      6174654D 
 13914      61696C62 
 13915              	.LASF101:
 13916 0b4e 77747472 		.string	"wttrp"
 13916      7000
 13917              	.LASF144:
 13918 0b54 67756172 		.string	"guarded_memory_pool_t"
 13918      6465645F 
 13918      6D656D6F 
 13918      72795F70 
 13918      6F6F6C5F 
 13919              	.LASF155:
 13920 0b6a 63685F72 		.string	"ch_registered_static_object"
 13920      65676973 
 13920      74657265 
 13920      645F7374 
GAS LISTING /tmp/ccoiMs3n.s 			page 258


 13920      61746963 
 13921              	.LASF11:
 13922 0b86 7369676E 		.string	"signed char"
 13922      65642063 
 13922      68617200 
 13923              	.LASF79:
 13924 0b92 64656C74 		.string	"delta"
 13924      6100
 13925              	.LASF3:
 13926 0b98 73686F72 		.string	"short unsigned int"
 13926      7420756E 
 13926      7369676E 
 13926      65642069 
 13926      6E7400
 13927              	.LASF109:
 13928 0bab 63757272 		.string	"current"
 13928      656E7400 
 13929              	.LASF149:
 13930 0bb3 726D7478 		.string	"rmtx"
 13930      00
 13931              	.LASF183:
 13932 0bb8 63684775 		.string	"chGuardedPoolObjectInitAligned"
 13932      61726465 
 13932      64506F6F 
 13932      6C4F626A 
 13932      65637449 
 13933              	.LASF128:
 13934 0bd7 6D656D67 		.string	"memgetfunc2_t"
 13934      65746675 
 13934      6E63325F 
 13934      7400
 13935              	.LASF124:
 13936 0be5 72647074 		.string	"rdptr"
 13936      7200
 13937              	.LASF164:
 13938 0beb 64796E5F 		.string	"dyn_mailbox_t"
 13938      6D61696C 
 13938      626F785F 
 13938      7400
 13939              	.LASF141:
 13940 0bf9 616C6967 		.string	"align"
 13940      6E00
 13941              	.LASF201:
 13942 0bff 646F6670 		.string	"dofp"
 13942      00
 13943              	.LASF99:
 13944 0c04 65786974 		.string	"exitcode"
 13944      636F6465 
 13944      00
 13945              	.LASF134:
 13946 0c0d 68656170 		.string	"heap_header_t"
 13946      5F686561 
 13946      6465725F 
 13946      7400
 13947              	.LASF216:
 13948 0c1b 63684661 		.string	"chFactoryReleaseBuffer"
 13948      63746F72 
GAS LISTING /tmp/ccoiMs3n.s 			page 259


 13948      7952656C 
 13948      65617365 
 13948      42756666 
 13949              	.LASF31:
 13950 0c32 636F7265 		.string	"core_id_t"
 13950      5F69645F 
 13950      7400
 13951              	.LASF175:
 13952 0c3c 73656D5F 		.string	"sem_list"
 13952      6C697374 
 13952      00
 13953              	.LASF209:
 13954 0c45 6F626A62 		.string	"objbuf"
 13954      756600
 13955              		.section	.debug_line_str,"MS",@progbits,1
 13956              	.LASF1:
 13957 0000 2F686F6D 		.string	"/home/alex/ChibiOS/demos/various/LAB2_VARIANT3"
 13957      652F616C 
 13957      65782F43 
 13957      68696269 
 13957      4F532F64 
 13958              	.LASF0:
 13959 002f 2E2E2F2E 		.string	"../../../os/oslib/src/chfactory.c"
 13959      2E2F2E2E 
 13959      2F6F732F 
 13959      6F736C69 
 13959      622F7372 
 13960              		.ident	"GCC: (Ubuntu 11.4.0-1ubuntu1~22.04) 11.4.0"
 13961 0051 2F686F6D 		.section	.note.GNU-stack,"",@progbits
 13961      652F616C 
 13961      65782F43 
 13961      68696269 
 13961      4F532F64 
GAS LISTING /tmp/ccoiMs3n.s 			page 260


DEFINED SYMBOLS
                            *ABS*:0000000000000000 chfactory.c
     /tmp/ccoiMs3n.s:8      .text.chCoreAllocAlignedI:0000000000000000 chCoreAllocAlignedI
     /tmp/ccoiMs3n.s:3722   .text.__x86.get_pc_thunk.bx:0000000000000000 __x86.get_pc_thunk.bx
     /tmp/ccoiMs3n.s:45     .text.dyn_create_object_heap:0000000000000000 dyn_create_object_heap
     /tmp/ccoiMs3n.s:283    .text.__factory_init:0000000000000000 __factory_init
     /tmp/ccoiMs3n.s:3716   .bss.ch_factory:0000000000000000 ch_factory
     /tmp/ccoiMs3n.s:482    .text.chFactoryRegisterObject:0000000000000000 chFactoryRegisterObject
     /tmp/ccoiMs3n.s:724    .text.chFactoryFindObject:0000000000000000 chFactoryFindObject
     /tmp/ccoiMs3n.s:888    .text.chFactoryFindObjectByPointer:0000000000000000 chFactoryFindObjectByPointer
     /tmp/ccoiMs3n.s:1025   .text.chFactoryReleaseObject:0000000000000000 chFactoryReleaseObject
     /tmp/ccoiMs3n.s:1208   .text.chFactoryCreateBuffer:0000000000000000 chFactoryCreateBuffer
     /tmp/ccoiMs3n.s:1327   .text.chFactoryFindBuffer:0000000000000000 chFactoryFindBuffer
     /tmp/ccoiMs3n.s:1491   .text.chFactoryReleaseBuffer:0000000000000000 chFactoryReleaseBuffer
     /tmp/ccoiMs3n.s:1671   .text.chFactoryCreateSemaphore:0000000000000000 chFactoryCreateSemaphore
     /tmp/ccoiMs3n.s:1930   .text.chFactoryFindSemaphore:0000000000000000 chFactoryFindSemaphore
     /tmp/ccoiMs3n.s:2094   .text.chFactoryReleaseSemaphore:0000000000000000 chFactoryReleaseSemaphore
     /tmp/ccoiMs3n.s:2277   .text.chFactoryCreateMailbox:0000000000000000 chFactoryCreateMailbox
     /tmp/ccoiMs3n.s:2380   .text.chFactoryFindMailbox:0000000000000000 chFactoryFindMailbox
     /tmp/ccoiMs3n.s:2544   .text.chFactoryReleaseMailbox:0000000000000000 chFactoryReleaseMailbox
     /tmp/ccoiMs3n.s:2724   .text.chFactoryCreateObjectsFIFO:0000000000000000 chFactoryCreateObjectsFIFO
     /tmp/ccoiMs3n.s:2924   .text.chFactoryFindObjectsFIFO:0000000000000000 chFactoryFindObjectsFIFO
     /tmp/ccoiMs3n.s:3088   .text.chFactoryReleaseObjectsFIFO:0000000000000000 chFactoryReleaseObjectsFIFO
     /tmp/ccoiMs3n.s:3268   .text.chFactoryCreatePipe:0000000000000000 chFactoryCreatePipe
     /tmp/ccoiMs3n.s:3371   .text.chFactoryFindPipe:0000000000000000 chFactoryFindPipe
     /tmp/ccoiMs3n.s:3535   .text.chFactoryReleasePipe:0000000000000000 chFactoryReleasePipe

UNDEFINED SYMBOLS
_GLOBAL_OFFSET_TABLE_
chCoreAllocFromTopI
strncmp
chHeapAllocAligned
chMtxObjectInit
chPoolObjectInitAligned
chMtxLock
chMtxUnlock
chPoolAlloc
chPoolFree
memset
chHeapFree
chSemObjectInit
chMBObjectInit
chGuardedPoolObjectInitAligned
chGuardedPoolLoadArray
chPipeObjectInit
