GAS LISTING /tmp/cctFPqVW.s 			page 1


   1              		.file	"chthreads.c"
   2              		.text
   3              	.Ltext0:
   4              		.file 0 "/home/alex/ChibiOS/demos/various/LAB2_VARIANT3" "../../../os/rt/src/chthreads.c"
   5              		.section	.text.chThdObjectInit,"ax",@progbits
   6              		.p2align 4
   7              		.globl	chThdObjectInit
   8              		.type	chThdObjectInit, @function
   9              	chThdObjectInit:
  10              	.LVL0:
  11              	.LFB215:
  12              		.file 1 "../../../os/rt/src/chthreads.c"
  13              		.loc 1 117 59 view -0
  14              		.cfi_startproc
  15              		.loc 1 119 3 view .LVU1
  16              		.loc 1 119 3 view .LVU2
  17              		.loc 1 119 3 view .LVU3
  18              		.loc 1 120 3 view .LVU4
  19              		.loc 1 120 3 view .LVU5
  20              		.loc 1 120 3 view .LVU6
  21              		.loc 1 123 3 view .LVU7
  22              		.loc 1 117 59 is_stmt 0 view .LVU8
  23 0000 56       		pushl	%esi
  24              		.cfi_def_cfa_offset 8
  25              		.cfi_offset 6, -8
  26 0001 E8FCFFFF 		call	__x86.get_pc_thunk.si
  26      FF
  27 0006 81C60200 		addl	$_GLOBAL_OFFSET_TABLE_, %esi
  27      0000
  28 000c 53       		pushl	%ebx
  29              		.cfi_def_cfa_offset 12
  30              		.cfi_offset 3, -12
  31              		.loc 1 117 59 view .LVU9
  32 000d 8B542410 		movl	16(%esp), %edx
  33 0011 8B44240C 		movl	12(%esp), %eax
  34              		.loc 1 123 14 view .LVU10
  35 0015 8B4A04   		movl	4(%edx), %ecx
  36              		.loc 1 127 30 view .LVU11
  37 0018 8B5A0C   		movl	12(%edx), %ebx
  38              		.loc 1 123 14 view .LVU12
  39 001b 894814   		movl	%ecx, 20(%eax)
  40              		.loc 1 124 3 is_stmt 1 view .LVU13
  41              		.loc 1 124 14 is_stmt 0 view .LVU14
  42 001e 8B4A08   		movl	8(%edx), %ecx
  43              		.loc 1 127 25 view .LVU15
  44 0021 895808   		movl	%ebx, 8(%eax)
  45              		.loc 1 124 14 view .LVU16
  46 0024 894818   		movl	%ecx, 24(%eax)
  47              		.loc 1 127 3 is_stmt 1 view .LVU17
  48              		.loc 1 128 3 view .LVU18
  49              		.loc 1 129 3 view .LVU19
  50              		.loc 1 128 25 is_stmt 0 view .LVU20
  51 0027 B9020000 		movl	$2, %ecx
  51      00
  52 002c 6689481C 		movw	%cx, 28(%eax)
  53              		.loc 1 130 3 is_stmt 1 view .LVU21
  54              		.loc 1 130 10 is_stmt 0 view .LVU22
GAS LISTING /tmp/cctFPqVW.s 			page 2


  55 0030 8B4A18   		movl	24(%edx), %ecx
  56              		.loc 1 130 6 view .LVU23
  57 0033 85C9     		testl	%ecx, %ecx
  58 0035 7441     		je	.L6
  59              	.L2:
  60              		.loc 1 165 25 view .LVU24
  61 0037 C6401E01 		movb	$1, 30(%eax)
  62              		.loc 1 166 25 view .LVU25
  63 003b 8B12     		movl	(%edx), %edx
  64 003d 894810   		movl	%ecx, 16(%eax)
  65              		.loc 1 137 3 is_stmt 1 view .LVU26
  66              		.loc 1 144 3 is_stmt 0 view .LVU27
  67 0040 8D4838   		leal	56(%eax), %ecx
  68              		.loc 1 166 25 view .LVU28
  69 0043 895020   		movl	%edx, 32(%eax)
  70              		.loc 1 171 3 view .LVU29
  71 0046 8D503C   		leal	60(%eax), %edx
  72              		.loc 1 137 25 view .LVU30
  73 0049 C7402C00 		movl	$0, 44(%eax)
  73      000000
  74              		.loc 1 138 3 is_stmt 1 view .LVU31
  75              		.loc 1 138 25 is_stmt 0 view .LVU32
  76 0050 C7403000 		movl	$0, 48(%eax)
  76      000000
  77              		.loc 1 144 3 is_stmt 1 view .LVU33
  78              	.LVL1:
  79              	.LBB233:
  80              	.LBI233:
  81              		.file 2 "../../../os/rt/include/chlists.h"
  82              		.loc 2 213 20 view .LVU34
  83              	.LBB234:
  84              		.loc 2 215 3 view .LVU35
  85              	.LBE234:
  86              	.LBE233:
  87              		.loc 1 144 3 is_stmt 0 view .LVU36
  88 0057 894838   		movl	%ecx, 56(%eax)
  89              	.LVL2:
  90              		.loc 1 149 3 is_stmt 1 view .LVU37
  91              		.loc 1 149 25 is_stmt 0 view .LVU38
  92 005a 89584C   		movl	%ebx, 76(%eax)
  93              		.loc 1 150 3 is_stmt 1 view .LVU39
  94              		.loc 1 150 25 is_stmt 0 view .LVU40
  95 005d C7404800 		movl	$0, 72(%eax)
  95      000000
  96              		.loc 1 155 3 is_stmt 1 view .LVU41
  97              		.loc 1 155 25 is_stmt 0 view .LVU42
  98 0064 C7404400 		movl	$0, 68(%eax)
  98      000000
  99              		.loc 1 165 3 is_stmt 1 view .LVU43
 100              		.loc 1 166 3 view .LVU44
 101              		.loc 1 171 3 view .LVU45
 102              	.LVL3:
 103              	.LBB235:
 104              	.LBI235:
 105              		.loc 2 282 20 view .LVU46
 106              	.LBB236:
 107              		.loc 2 284 3 view .LVU47
GAS LISTING /tmp/cctFPqVW.s 			page 3


 108              		.loc 2 284 12 is_stmt 0 view .LVU48
 109 006b 89503C   		movl	%edx, 60(%eax)
 110              		.loc 2 285 3 is_stmt 1 view .LVU49
 111              		.loc 2 285 12 is_stmt 0 view .LVU50
 112 006e 895040   		movl	%edx, 64(%eax)
 113              	.LVL4:
 114              		.loc 2 285 12 view .LVU51
 115              	.LBE236:
 116              	.LBE235:
 117              		.loc 1 180 3 is_stmt 1 view .LVU52
 118              		.loc 1 180 30 view .LVU53
 119              		.loc 1 182 3 view .LVU54
 120              		.loc 1 183 1 is_stmt 0 view .LVU55
 121 0071 5B       		popl	%ebx
 122              		.cfi_remember_state
 123              		.cfi_restore 3
 124              		.cfi_def_cfa_offset 8
 125 0072 5E       		popl	%esi
 126              		.cfi_restore 6
 127              		.cfi_def_cfa_offset 4
 128 0073 C3       		ret
 129              	.LVL5:
 130              		.p2align 4,,10
 131 0074 8D742600 		.p2align 3
 132              	.L6:
 133              		.cfi_restore_state
 134              		.loc 1 134 25 view .LVU56
 135 0078 8B8E0000 		movl	ch0@GOT(%esi), %ecx
 135      0000
 136 007e EBB7     		jmp	.L2
 137              		.cfi_endproc
 138              	.LFE215:
 139              		.size	chThdObjectInit, .-chThdObjectInit
 140              		.section	.text.chThdObjectDispose,"ax",@progbits
 141              		.p2align 4
 142              		.globl	chThdObjectDispose
 143              		.type	chThdObjectDispose, @function
 144              	chThdObjectDispose:
 145              	.LVL6:
 146              	.LFB216:
 147              		.loc 1 200 39 is_stmt 1 view -0
 148              		.cfi_startproc
 149              		.loc 1 202 3 view .LVU58
 150              		.loc 1 202 3 view .LVU59
 151              		.loc 1 202 3 view .LVU60
 152              		.loc 1 205 3 view .LVU61
 153              		.loc 1 205 3 view .LVU62
 154              		.loc 1 205 3 view .LVU63
 155              		.loc 1 208 3 view .LVU64
 156              		.loc 1 208 3 view .LVU65
 157              		.loc 1 208 3 view .LVU66
 158              		.loc 1 211 3 view .LVU67
 159              		.loc 1 211 3 view .LVU68
 160              		.loc 1 211 3 view .LVU69
 161              		.loc 1 217 1 is_stmt 0 view .LVU70
 162 0000 C3       		ret
 163              		.cfi_endproc
GAS LISTING /tmp/cctFPqVW.s 			page 4


 164              	.LFE216:
 165              		.size	chThdObjectDispose, .-chThdObjectDispose
 166              		.section	.text.chThdSpawnSuspendedI,"ax",@progbits
 167              		.p2align 4
 168              		.globl	chThdSpawnSuspendedI
 169              		.type	chThdSpawnSuspendedI, @function
 170              	chThdSpawnSuspendedI:
 171              	.LVL7:
 172              	.LFB217:
 173              		.loc 1 239 64 is_stmt 1 view -0
 174              		.cfi_startproc
 175              		.loc 1 241 3 view .LVU72
 176              		.loc 1 241 3 view .LVU73
 177              		.loc 1 241 3 view .LVU74
 178              		.loc 1 242 3 view .LVU75
 179              		.loc 1 242 3 view .LVU76
 180              		.loc 1 242 3 view .LVU77
 181              		.loc 1 245 3 view .LVU78
 182              		.loc 1 245 3 view .LVU79
 183              		.loc 1 245 3 view .LVU80
 184              		.loc 1 252 3 view .LVU81
 185              		.loc 1 239 64 is_stmt 0 view .LVU82
 186 0000 55       		pushl	%ebp
 187              		.cfi_def_cfa_offset 8
 188              		.cfi_offset 5, -8
 189 0001 57       		pushl	%edi
 190              		.cfi_def_cfa_offset 12
 191              		.cfi_offset 7, -12
 192 0002 56       		pushl	%esi
 193              		.cfi_def_cfa_offset 16
 194              		.cfi_offset 6, -16
 195              	.LBB246:
 196              	.LBB247:
 197              		.loc 1 128 25 view .LVU83
 198 0003 BE020000 		movl	$2, %esi
 198      00
 199              	.LBE247:
 200              	.LBE246:
 201              		.loc 1 239 64 view .LVU84
 202 0008 53       		pushl	%ebx
 203              		.cfi_def_cfa_offset 20
 204              		.cfi_offset 3, -20
 205              		.loc 1 239 64 view .LVU85
 206 0009 8B4C2418 		movl	24(%esp), %ecx
 207 000d E8FCFFFF 		call	__x86.get_pc_thunk.bx
 207      FF
 208 0012 81C30200 		addl	$_GLOBAL_OFFSET_TABLE_, %ebx
 208      0000
 209 0018 8B442414 		movl	20(%esp), %eax
 210              	.LVL8:
 211              	.LBB257:
 212              	.LBI246:
 213              		.loc 1 116 11 is_stmt 1 view .LVU86
 214              	.LBB254:
 215              		.loc 1 119 3 view .LVU87
 216              		.loc 1 119 3 view .LVU88
 217              		.loc 1 119 3 view .LVU89
GAS LISTING /tmp/cctFPqVW.s 			page 5


 218              		.loc 1 120 3 view .LVU90
 219              		.loc 1 120 3 view .LVU91
 220              		.loc 1 120 3 view .LVU92
 221              		.loc 1 123 3 view .LVU93
 222              		.loc 1 123 14 is_stmt 0 view .LVU94
 223 001c 8B5104   		movl	4(%ecx), %edx
 224              		.loc 1 127 30 view .LVU95
 225 001f 8B790C   		movl	12(%ecx), %edi
 226              		.loc 1 123 14 view .LVU96
 227 0022 895014   		movl	%edx, 20(%eax)
 228              		.loc 1 124 3 is_stmt 1 view .LVU97
 229              		.loc 1 124 27 is_stmt 0 view .LVU98
 230 0025 8B5108   		movl	8(%ecx), %edx
 231              		.loc 1 128 25 view .LVU99
 232 0028 6689701C 		movw	%si, 28(%eax)
 233              		.loc 1 130 10 view .LVU100
 234 002c 8B7118   		movl	24(%ecx), %esi
 235              		.loc 1 124 14 view .LVU101
 236 002f 895018   		movl	%edx, 24(%eax)
 237              		.loc 1 127 3 is_stmt 1 view .LVU102
 238              		.loc 1 127 25 is_stmt 0 view .LVU103
 239 0032 897808   		movl	%edi, 8(%eax)
 240              		.loc 1 128 3 is_stmt 1 view .LVU104
 241              		.loc 1 129 3 view .LVU105
 242              		.loc 1 130 3 view .LVU106
 243              		.loc 1 130 6 is_stmt 0 view .LVU107
 244 0035 85F6     		testl	%esi, %esi
 245 0037 0F84A300 		je	.L12
 245      0000
 246              	.L9:
 247 003d 897010   		movl	%esi, 16(%eax)
 248              		.loc 1 137 3 is_stmt 1 view .LVU108
 249              		.loc 1 144 3 is_stmt 0 view .LVU109
 250 0040 8D7038   		leal	56(%eax), %esi
 251              		.loc 1 165 25 view .LVU110
 252 0043 C6401E01 		movb	$1, 30(%eax)
 253              		.loc 1 144 3 view .LVU111
 254 0047 897038   		movl	%esi, 56(%eax)
 255              		.loc 1 166 25 view .LVU112
 256 004a 8B31     		movl	(%ecx), %esi
 257              		.loc 1 149 25 view .LVU113
 258 004c 89784C   		movl	%edi, 76(%eax)
 259              		.loc 1 166 25 view .LVU114
 260 004f 897020   		movl	%esi, 32(%eax)
 261              		.loc 1 171 3 view .LVU115
 262 0052 8D703C   		leal	60(%eax), %esi
 263              	.LBB248:
 264              	.LBB249:
 265              		.loc 2 285 12 view .LVU116
 266 0055 897040   		movl	%esi, 64(%eax)
 267              		.loc 2 284 12 view .LVU117
 268 0058 89703C   		movl	%esi, 60(%eax)
 269              	.LBE249:
 270              	.LBE248:
 271              	.LBE254:
 272              	.LBE257:
 273              	.LBB258:
GAS LISTING /tmp/cctFPqVW.s 			page 6


 274              		.loc 1 255 3 view .LVU118
 275 005b 8D72FC   		leal	-4(%edx), %esi
 276 005e 83EA0C   		subl	$12, %edx
 277              	.LBE258:
 278              	.LBB259:
 279              	.LBB255:
 280              		.loc 1 137 25 view .LVU119
 281 0061 C7402C00 		movl	$0, 44(%eax)
 281      000000
 282              		.loc 1 138 3 is_stmt 1 view .LVU120
 283              		.loc 1 138 25 is_stmt 0 view .LVU121
 284 0068 C7403000 		movl	$0, 48(%eax)
 284      000000
 285              		.loc 1 144 3 is_stmt 1 view .LVU122
 286              	.LVL9:
 287              	.LBB251:
 288              	.LBI251:
 289              		.loc 2 213 20 view .LVU123
 290              	.LBB252:
 291              		.loc 2 215 3 view .LVU124
 292              		.loc 2 215 3 is_stmt 0 view .LVU125
 293              	.LBE252:
 294              	.LBE251:
 295              		.loc 1 149 3 is_stmt 1 view .LVU126
 296              		.loc 1 150 3 view .LVU127
 297              		.loc 1 150 25 is_stmt 0 view .LVU128
 298 006f C7404800 		movl	$0, 72(%eax)
 298      000000
 299              		.loc 1 155 3 is_stmt 1 view .LVU129
 300              		.loc 1 155 25 is_stmt 0 view .LVU130
 301 0076 C7404400 		movl	$0, 68(%eax)
 301      000000
 302              		.loc 1 165 3 is_stmt 1 view .LVU131
 303              		.loc 1 166 3 view .LVU132
 304              		.loc 1 171 3 view .LVU133
 305              	.LBB253:
 306              	.LBI248:
 307              		.loc 2 282 20 view .LVU134
 308              	.LBB250:
 309              		.loc 2 284 3 view .LVU135
 310              		.loc 2 285 3 view .LVU136
 311              	.LBE250:
 312              	.LBE253:
 313              		.loc 1 180 3 view .LVU137
 314              		.loc 1 180 30 view .LVU138
 315              		.loc 1 182 3 view .LVU139
 316              	.LVL10:
 317              		.loc 1 182 3 is_stmt 0 view .LVU140
 318              	.LBE255:
 319              	.LBE259:
 320              	.LBB260:
 321              		.loc 1 255 3 is_stmt 1 view .LVU141
 322              		.loc 1 255 3 view .LVU142
 323              		.loc 1 255 3 view .LVU143
 324              		.loc 1 255 3 view .LVU144
 325 007d C7420800 		movl	$0, 8(%edx)
 325      000000
GAS LISTING /tmp/cctFPqVW.s 			page 7


 326              		.loc 1 255 3 view .LVU145
 327              		.loc 1 255 3 view .LVU146
 328              	.LVL11:
 329              		.loc 1 255 3 view .LVU147
 330 0084 8B6914   		movl	20(%ecx), %ebp
 331 0087 83E2F0   		andl	$-16, %edx
 332              	.LVL12:
 333              		.loc 1 255 3 view .LVU148
 334              		.loc 1 255 3 view .LVU149
 335              		.loc 1 255 3 view .LVU150
 336 008a 83EA18   		subl	$24, %edx
 337              	.LVL13:
 338              		.loc 1 255 3 is_stmt 0 view .LVU151
 339 008d 896A1C   		movl	%ebp, 28(%edx)
 340              		.loc 1 255 3 is_stmt 1 view .LVU152
 341              		.loc 1 255 3 view .LVU153
 342              		.loc 1 255 3 view .LVU154
 343              	.LVL14:
 344              		.loc 1 255 3 view .LVU155
 345 0090 8B4910   		movl	16(%ecx), %ecx
 346 0093 C7421400 		movl	$0, 20(%edx)
 346      000000
 347 009a 894A18   		movl	%ecx, 24(%edx)
 348              		.loc 1 255 3 view .LVU156
 349              		.loc 1 255 3 view .LVU157
 350              		.loc 1 255 3 view .LVU158
 351              	.LVL15:
 352              		.loc 1 255 3 view .LVU159
 353              		.loc 1 255 3 view .LVU160
 354              		.loc 1 255 3 view .LVU161
 355              		.loc 1 255 3 view .LVU162
 356 009d 8B8B0000 		movl	_port_thread_start@GOT(%ebx), %ecx
 356      0000
 357 00a3 C7020000 		movl	$0, (%edx)
 357      0000
 358 00a9 894A10   		movl	%ecx, 16(%edx)
 359              		.loc 1 255 3 view .LVU163
 360              		.loc 1 255 3 view .LVU164
 361              	.LBE260:
 362              		.loc 1 259 3 is_stmt 0 view .LVU165
 363 00ac 8D4824   		leal	36(%eax), %ecx
 364              	.LBB261:
 365              		.loc 1 255 3 view .LVU166
 366 00af C7420400 		movl	$0, 4(%edx)
 366      000000
 367              		.loc 1 255 3 is_stmt 1 view .LVU167
 368 00b6 C7420800 		movl	$0, 8(%edx)
 368      000000
 369              		.loc 1 255 3 view .LVU168
 370 00bd 89720C   		movl	%esi, 12(%edx)
 371              		.loc 1 255 3 view .LVU169
 372 00c0 89500C   		movl	%edx, 12(%eax)
 373              	.LBE261:
 374              		.loc 1 255 70 view .LVU170
 375              		.loc 1 259 3 view .LVU171
 376 00c3 8B5010   		movl	16(%eax), %edx
 377              	.LVL16:
GAS LISTING /tmp/cctFPqVW.s 			page 8


 378              	.LBB262:
 379              	.LBI262:
 380              		.loc 2 322 20 view .LVU172
 381              	.LBB263:
 382              		.loc 2 324 3 view .LVU173
 383              	.LBE263:
 384              	.LBE262:
 385              		.loc 1 259 3 is_stmt 0 view .LVU174
 386 00c6 8D5A28   		leal	40(%edx), %ebx
 387              	.LVL17:
 388              		.loc 1 259 3 view .LVU175
 389 00c9 895824   		movl	%ebx, 36(%eax)
 390              	.LBB265:
 391              	.LBB264:
 392              		.loc 2 325 3 is_stmt 1 view .LVU176
 393              		.loc 2 325 21 is_stmt 0 view .LVU177
 394 00cc 8B5A2C   		movl	44(%edx), %ebx
 395              	.LVL18:
 396              		.loc 2 325 17 view .LVU178
 397 00cf 895828   		movl	%ebx, 40(%eax)
 398              		.loc 2 326 3 is_stmt 1 view .LVU179
 399              		.loc 2 326 17 is_stmt 0 view .LVU180
 400 00d2 890B     		movl	%ecx, (%ebx)
 401              	.LVL19:
 402              		.loc 2 327 3 is_stmt 1 view .LVU181
 403              		.loc 2 327 17 is_stmt 0 view .LVU182
 404 00d4 894A2C   		movl	%ecx, 44(%edx)
 405              	.LVL20:
 406              		.loc 2 327 17 view .LVU183
 407              	.LBE264:
 408              	.LBE265:
 409              		.loc 1 262 3 is_stmt 1 view .LVU184
 410              		.loc 1 263 1 is_stmt 0 view .LVU185
 411 00d7 5B       		popl	%ebx
 412              		.cfi_remember_state
 413              		.cfi_restore 3
 414              		.cfi_def_cfa_offset 16
 415 00d8 5E       		popl	%esi
 416              		.cfi_restore 6
 417              		.cfi_def_cfa_offset 12
 418              	.LVL21:
 419              		.loc 1 263 1 view .LVU186
 420 00d9 5F       		popl	%edi
 421              		.cfi_restore 7
 422              		.cfi_def_cfa_offset 8
 423 00da 5D       		popl	%ebp
 424              		.cfi_restore 5
 425              		.cfi_def_cfa_offset 4
 426 00db C3       		ret
 427              	.LVL22:
 428 00dc 8D742600 		.p2align 4,,10
 429              		.p2align 3
 430              	.L12:
 431              		.cfi_restore_state
 432              	.LBB266:
 433              	.LBB256:
 434              		.loc 1 134 25 view .LVU187
GAS LISTING /tmp/cctFPqVW.s 			page 9


 435 00e0 8BB30000 		movl	ch0@GOT(%ebx), %esi
 435      0000
 436 00e6 E952FFFF 		jmp	.L9
 436      FF
 437              	.LBE256:
 438              	.LBE266:
 439              		.cfi_endproc
 440              	.LFE217:
 441              		.size	chThdSpawnSuspendedI, .-chThdSpawnSuspendedI
 442              		.section	.text.chThdSpawnSuspended,"ax",@progbits
 443              		.p2align 4
 444              		.globl	chThdSpawnSuspended
 445              		.type	chThdSpawnSuspended, @function
 446              	chThdSpawnSuspended:
 447              	.LVL23:
 448              	.LFB218:
 449              		.loc 1 282 63 is_stmt 1 view -0
 450              		.cfi_startproc
 451              		.loc 1 285 3 view .LVU189
 452              		.loc 1 285 3 view .LVU190
 453              		.loc 1 285 3 view .LVU191
 454              		.loc 1 289 17 view .LVU192
 455              		.loc 1 291 3 view .LVU193
 456              		.loc 1 292 3 view .LVU194
 457              		.loc 1 282 63 is_stmt 0 view .LVU195
 458 0000 53       		pushl	%ebx
 459              		.cfi_def_cfa_offset 8
 460              		.cfi_offset 3, -8
 461 0001 E8FCFFFF 		call	__x86.get_pc_thunk.bx
 461      FF
 462 0006 81C30200 		addl	$_GLOBAL_OFFSET_TABLE_, %ebx
 462      0000
 463              		.loc 1 292 8 view .LVU196
 464 000c FF74240C 		pushl	12(%esp)
 465              		.cfi_def_cfa_offset 12
 466 0010 FF74240C 		pushl	12(%esp)
 467              		.cfi_def_cfa_offset 16
 468 0014 E8FCFFFF 		call	chThdSpawnSuspendedI
 468      FF
 469              	.LVL24:
 470              		.loc 1 293 3 is_stmt 1 view .LVU197
 471              	.LBB267:
 472              	.LBI267:
 473              		.file 3 "../../../os/rt/include/chsys.h"
 474              		.loc 3 421 20 view .LVU198
 475              	.LBB268:
 476              		.loc 3 423 23 view .LVU199
 477              		.loc 3 424 34 view .LVU200
 478              		.loc 3 430 3 view .LVU201
 479              		.loc 3 430 3 view .LVU202
 480              		.loc 3 430 3 view .LVU203
 481              		.loc 3 434 3 view .LVU204
 482              	.LBB269:
 483              	.LBI269:
 484              		.file 4 "../../../os/common/ports/SIMIA32/chcore.h"
 485              		.loc 4 370 20 view .LVU205
 486              	.LBB270:
GAS LISTING /tmp/cctFPqVW.s 			page 10


 487              		.loc 4 372 3 view .LVU206
 488              		.loc 4 372 16 is_stmt 0 view .LVU207
 489 0019 8B930000 		movl	port_irq_sts@GOT(%ebx), %edx
 489      0000
 490 001f C7020000 		movl	$0, (%edx)
 490      0000
 491              	.LBE270:
 492              	.LBE269:
 493              	.LBE268:
 494              	.LBE267:
 495              		.loc 1 295 3 is_stmt 1 view .LVU208
 496              		.loc 1 295 10 is_stmt 0 view .LVU209
 497 0025 5A       		popl	%edx
 498              		.cfi_def_cfa_offset 12
 499 0026 59       		popl	%ecx
 500              		.cfi_def_cfa_offset 8
 501              		.loc 1 296 1 view .LVU210
 502 0027 5B       		popl	%ebx
 503              		.cfi_restore 3
 504              		.cfi_def_cfa_offset 4
 505 0028 C3       		ret
 506              		.cfi_endproc
 507              	.LFE218:
 508              		.size	chThdSpawnSuspended, .-chThdSpawnSuspended
 509              		.section	.text.chThdSpawnRunningI,"ax",@progbits
 510              		.p2align 4
 511              		.globl	chThdSpawnRunningI
 512              		.type	chThdSpawnRunningI, @function
 513              	chThdSpawnRunningI:
 514              	.LVL25:
 515              	.LFB219:
 516              		.loc 1 315 76 is_stmt 1 view -0
 517              		.cfi_startproc
 518              		.loc 1 317 3 view .LVU212
 519              		.loc 1 315 76 is_stmt 0 view .LVU213
 520 0000 53       		pushl	%ebx
 521              		.cfi_def_cfa_offset 8
 522              		.cfi_offset 3, -8
 523 0001 E8FCFFFF 		call	__x86.get_pc_thunk.bx
 523      FF
 524 0006 81C30200 		addl	$_GLOBAL_OFFSET_TABLE_, %ebx
 524      0000
 525 000c 83EC08   		subl	$8, %esp
 526              		.cfi_def_cfa_offset 16
 527              		.loc 1 317 10 view .LVU214
 528 000f FF742414 		pushl	20(%esp)
 529              		.cfi_def_cfa_offset 20
 530 0013 FF742414 		pushl	20(%esp)
 531              		.cfi_def_cfa_offset 24
 532 0017 E8FCFFFF 		call	chThdSpawnSuspendedI
 532      FF
 533              	.LVL26:
 534 001c 83EC04   		subl	$4, %esp
 535              		.cfi_def_cfa_offset 28
 536 001f 50       		pushl	%eax
 537              		.cfi_def_cfa_offset 32
 538 0020 E8FCFFFF 		call	chSchReadyI@PLT
GAS LISTING /tmp/cctFPqVW.s 			page 11


 538      FF
 539              	.LVL27:
 540              		.loc 1 318 1 view .LVU215
 541 0025 83C418   		addl	$24, %esp
 542              		.cfi_def_cfa_offset 8
 543 0028 5B       		popl	%ebx
 544              		.cfi_restore 3
 545              		.cfi_def_cfa_offset 4
 546 0029 C3       		ret
 547              		.cfi_endproc
 548              	.LFE219:
 549              		.size	chThdSpawnRunningI, .-chThdSpawnRunningI
 550              		.section	.text.chThdSpawnRunning,"ax",@progbits
 551              		.p2align 4
 552              		.globl	chThdSpawnRunning
 553              		.type	chThdSpawnRunning, @function
 554              	chThdSpawnRunning:
 555              	.LVL28:
 556              	.LFB220:
 557              		.loc 1 334 75 is_stmt 1 view -0
 558              		.cfi_startproc
 559              		.loc 1 338 3 view .LVU217
 560              		.loc 1 338 3 view .LVU218
 561              		.loc 1 338 3 view .LVU219
 562              		.loc 1 342 17 view .LVU220
 563              		.loc 1 344 3 view .LVU221
 564              	.LBB271:
 565              	.LBI271:
 566              		.loc 3 407 20 view .LVU222
 567              		.loc 3 409 3 view .LVU223
 568              	.LBB272:
 569              	.LBI272:
 570              		.loc 4 361 20 view .LVU224
 571              	.LBB273:
 572              		.loc 4 363 3 view .LVU225
 573              	.LBE273:
 574              	.LBE272:
 575              	.LBE271:
 576              		.loc 1 334 75 is_stmt 0 view .LVU226
 577 0000 57       		pushl	%edi
 578              		.cfi_def_cfa_offset 8
 579              		.cfi_offset 7, -8
 580 0001 56       		pushl	%esi
 581              		.cfi_def_cfa_offset 12
 582              		.cfi_offset 6, -12
 583 0002 53       		pushl	%ebx
 584              		.cfi_def_cfa_offset 16
 585              		.cfi_offset 3, -16
 586 0003 E8FCFFFF 		call	__x86.get_pc_thunk.bx
 586      FF
 587 0008 81C30200 		addl	$_GLOBAL_OFFSET_TABLE_, %ebx
 587      0000
 588              		.loc 1 345 8 view .LVU227
 589 000e FF742414 		pushl	20(%esp)
 590              		.cfi_def_cfa_offset 20
 591 0012 FF742414 		pushl	20(%esp)
 592              		.cfi_def_cfa_offset 24
GAS LISTING /tmp/cctFPqVW.s 			page 12


 593              	.LBB276:
 594              	.LBB275:
 595              	.LBB274:
 596              		.loc 4 363 16 view .LVU228
 597 0016 8BBB0000 		movl	port_irq_sts@GOT(%ebx), %edi
 597      0000
 598 001c C7070100 		movl	$1, (%edi)
 598      0000
 599              	.LBE274:
 600              	.LBE275:
 601              		.loc 3 410 35 is_stmt 1 view .LVU229
 602              		.loc 3 411 21 view .LVU230
 603              	.LBE276:
 604              		.loc 1 345 3 view .LVU231
 605              		.loc 1 345 8 is_stmt 0 view .LVU232
 606 0022 E8FCFFFF 		call	chThdSpawnSuspendedI
 606      FF
 607              	.LVL29:
 608              		.loc 1 346 3 view .LVU233
 609 0027 6A00     		pushl	$0
 610              		.cfi_def_cfa_offset 28
 611 0029 50       		pushl	%eax
 612              		.cfi_def_cfa_offset 32
 613              		.loc 1 345 8 view .LVU234
 614 002a 89C6     		movl	%eax, %esi
 615              	.LVL30:
 616              		.loc 1 346 3 is_stmt 1 view .LVU235
 617 002c E8FCFFFF 		call	chSchWakeupS@PLT
 617      FF
 618              	.LVL31:
 619              		.loc 1 347 3 view .LVU236
 620              	.LBB277:
 621              	.LBI277:
 622              		.loc 3 421 20 view .LVU237
 623              	.LBB278:
 624              		.loc 3 423 23 view .LVU238
 625              		.loc 3 424 34 view .LVU239
 626              		.loc 3 430 3 view .LVU240
 627              		.loc 3 430 3 view .LVU241
 628              		.loc 3 430 3 view .LVU242
 629              		.loc 3 434 3 view .LVU243
 630              	.LBB279:
 631              	.LBI279:
 632              		.loc 4 370 20 view .LVU244
 633              	.LBB280:
 634              		.loc 4 372 3 view .LVU245
 635              	.LBE280:
 636              	.LBE279:
 637              	.LBE278:
 638              	.LBE277:
 639              		.loc 1 349 10 is_stmt 0 view .LVU246
 640 0031 83C410   		addl	$16, %esp
 641              		.cfi_def_cfa_offset 16
 642              		.loc 1 350 1 view .LVU247
 643 0034 89F0     		movl	%esi, %eax
 644              	.LBB284:
 645              	.LBB283:
GAS LISTING /tmp/cctFPqVW.s 			page 13


 646              	.LBB282:
 647              	.LBB281:
 648              		.loc 4 372 16 view .LVU248
 649 0036 C7070000 		movl	$0, (%edi)
 649      0000
 650              	.LBE281:
 651              	.LBE282:
 652              	.LBE283:
 653              	.LBE284:
 654              		.loc 1 349 3 is_stmt 1 view .LVU249
 655              		.loc 1 350 1 is_stmt 0 view .LVU250
 656 003c 5B       		popl	%ebx
 657              		.cfi_restore 3
 658              		.cfi_def_cfa_offset 12
 659 003d 5E       		popl	%esi
 660              		.cfi_restore 6
 661              		.cfi_def_cfa_offset 8
 662              	.LVL32:
 663              		.loc 1 350 1 view .LVU251
 664 003e 5F       		popl	%edi
 665              		.cfi_restore 7
 666              		.cfi_def_cfa_offset 4
 667 003f C3       		ret
 668              		.cfi_endproc
 669              	.LFE220:
 670              		.size	chThdSpawnRunning, .-chThdSpawnRunning
 671              		.section	.text.chThdCreateSuspendedI,"ax",@progbits
 672              		.p2align 4
 673              		.globl	chThdCreateSuspendedI
 674              		.type	chThdCreateSuspendedI, @function
 675              	chThdCreateSuspendedI:
 676              	.LVL33:
 677              	.LFB221:
 678              		.loc 1 372 65 is_stmt 1 view -0
 679              		.cfi_startproc
 680              		.loc 1 373 3 view .LVU253
 681              		.loc 1 374 3 view .LVU254
 682              		.loc 1 376 21 view .LVU255
 683              		.loc 1 379 3 view .LVU256
 684              		.loc 1 379 3 view .LVU257
 685              		.loc 1 379 3 view .LVU258
 686              		.loc 1 384 3 view .LVU259
 687              		.loc 1 384 3 view .LVU260
 688              		.loc 1 384 3 view .LVU261
 689              		.loc 1 390 3 view .LVU262
 690              		.loc 1 372 65 is_stmt 0 view .LVU263
 691 0000 55       		pushl	%ebp
 692              		.cfi_def_cfa_offset 8
 693              		.cfi_offset 5, -8
 694 0001 57       		pushl	%edi
 695              		.cfi_def_cfa_offset 12
 696              		.cfi_offset 7, -12
 697 0002 E8FCFFFF 		call	__x86.get_pc_thunk.di
 697      FF
 698 0007 81C70200 		addl	$_GLOBAL_OFFSET_TABLE_, %edi
 698      0000
 699 000d 56       		pushl	%esi
GAS LISTING /tmp/cctFPqVW.s 			page 14


 700              		.cfi_def_cfa_offset 16
 701              		.cfi_offset 6, -16
 702 000e 53       		pushl	%ebx
 703              		.cfi_def_cfa_offset 20
 704              		.cfi_offset 3, -20
 705 000f 83EC08   		subl	$8, %esp
 706              		.cfi_def_cfa_offset 28
 707              		.loc 1 372 65 view .LVU264
 708 0012 8B5C241C 		movl	28(%esp), %ebx
 709              	.LVL34:
 710              		.loc 1 391 3 is_stmt 1 view .LVU265
 711              		.loc 1 391 27 is_stmt 0 view .LVU266
 712 0016 8B4308   		movl	8(%ebx), %eax
 713              	.LBB294:
 714              	.LBB295:
 715              		.loc 1 123 14 view .LVU267
 716 0019 8B5304   		movl	4(%ebx), %edx
 717              	.LBE295:
 718              	.LBE294:
 719              		.loc 1 391 11 view .LVU268
 720 001c 8D48B0   		leal	-80(%eax), %ecx
 721              	.LBB309:
 722              	.LBB302:
 723              		.loc 1 123 14 view .LVU269
 724 001f 8950C4   		movl	%edx, -60(%eax)
 725              		.loc 1 127 30 view .LVU270
 726 0022 8B530C   		movl	12(%ebx), %edx
 727              	.LBE302:
 728              	.LBE309:
 729              		.loc 1 391 11 view .LVU271
 730 0025 894C2404 		movl	%ecx, 4(%esp)
 731              	.LVL35:
 732              		.loc 1 393 3 is_stmt 1 view .LVU272
 733              		.loc 1 393 3 view .LVU273
 734              		.loc 1 393 3 view .LVU274
 735              		.loc 1 397 3 view .LVU275
 736              	.LBB310:
 737              	.LBI294:
 738              		.loc 1 116 11 view .LVU276
 739              	.LBB303:
 740              		.loc 1 119 3 view .LVU277
 741              		.loc 1 119 3 view .LVU278
 742              		.loc 1 119 3 view .LVU279
 743              		.loc 1 120 3 view .LVU280
 744              		.loc 1 120 3 view .LVU281
 745              		.loc 1 120 3 view .LVU282
 746              		.loc 1 123 3 view .LVU283
 747              		.loc 1 124 3 view .LVU284
 748              		.loc 1 128 25 is_stmt 0 view .LVU285
 749 0029 C640CC02 		movb	$2, -52(%eax)
 750              	.LVL36:
 751              		.loc 1 129 25 view .LVU286
 752 002d C640CD00 		movb	$0, -51(%eax)
 753              		.loc 1 130 10 view .LVU287
 754 0031 8B4B18   		movl	24(%ebx), %ecx
 755              	.LVL37:
 756              		.loc 1 124 14 view .LVU288
GAS LISTING /tmp/cctFPqVW.s 			page 15


 757 0034 8940C8   		movl	%eax, -56(%eax)
 758              		.loc 1 127 3 is_stmt 1 view .LVU289
 759              		.loc 1 127 25 is_stmt 0 view .LVU290
 760 0037 8950B8   		movl	%edx, -72(%eax)
 761              		.loc 1 128 3 is_stmt 1 view .LVU291
 762              		.loc 1 129 3 view .LVU292
 763              		.loc 1 130 3 view .LVU293
 764              		.loc 1 130 6 is_stmt 0 view .LVU294
 765 003a 85C9     		testl	%ecx, %ecx
 766 003c 0F84AE00 		je	.L23
 766      0000
 767              	.L20:
 768              		.loc 1 144 3 view .LVU295
 769 0042 8D70E8   		leal	-24(%eax), %esi
 770              		.loc 1 165 25 view .LVU296
 771 0045 C640CE01 		movb	$1, -50(%eax)
 772              		.loc 1 144 3 view .LVU297
 773 0049 8970E8   		movl	%esi, -24(%eax)
 774              	.LBE303:
 775              	.LBE310:
 776              	.LBB311:
 777              		.loc 1 400 3 view .LVU298
 778 004c 8D70AC   		leal	-84(%eax), %esi
 779              	.LBE311:
 780              	.LBB312:
 781              	.LBB304:
 782              		.loc 1 149 25 view .LVU299
 783 004f 8950FC   		movl	%edx, -4(%eax)
 784              		.loc 1 166 25 view .LVU300
 785 0052 8B13     		movl	(%ebx), %edx
 786              	.LBE304:
 787              	.LBE312:
 788              	.LBB313:
 789              		.loc 1 400 3 view .LVU301
 790 0054 893424   		movl	%esi, (%esp)
 791 0057 8D70A4   		leal	-92(%eax), %esi
 792 005a C740AC00 		movl	$0, -84(%eax)
 792      000000
 793 0061 8B6B14   		movl	20(%ebx), %ebp
 794 0064 83E6F0   		andl	$-16, %esi
 795              	.LBE313:
 796              	.LBB314:
 797              	.LBB305:
 798              		.loc 1 166 25 view .LVU302
 799 0067 8950D0   		movl	%edx, -48(%eax)
 800              		.loc 1 171 3 view .LVU303
 801 006a 8D50EC   		leal	-20(%eax), %edx
 802              	.LBE305:
 803              	.LBE314:
 804              	.LBB315:
 805              		.loc 1 400 3 view .LVU304
 806 006d 83EE18   		subl	$24, %esi
 807              	.LBE315:
 808              	.LBB316:
 809              	.LBB306:
 810              	.LBB296:
 811              	.LBB297:
GAS LISTING /tmp/cctFPqVW.s 			page 16


 812              		.loc 2 285 12 view .LVU305
 813 0070 8950F0   		movl	%edx, -16(%eax)
 814              		.loc 2 284 12 view .LVU306
 815 0073 8950EC   		movl	%edx, -20(%eax)
 816              	.LBE297:
 817              	.LBE296:
 818              	.LBE306:
 819              	.LBE316:
 820              		.loc 1 403 3 view .LVU307
 821 0076 8D50D4   		leal	-44(%eax), %edx
 822 0079 8948C0   		movl	%ecx, -64(%eax)
 823              	.LBB317:
 824              	.LBB307:
 825              		.loc 1 137 3 is_stmt 1 view .LVU308
 826              		.loc 1 137 25 is_stmt 0 view .LVU309
 827 007c C740DC00 		movl	$0, -36(%eax)
 827      000000
 828              		.loc 1 138 3 is_stmt 1 view .LVU310
 829              		.loc 1 138 25 is_stmt 0 view .LVU311
 830 0083 C740E000 		movl	$0, -32(%eax)
 830      000000
 831              		.loc 1 144 3 is_stmt 1 view .LVU312
 832              	.LVL38:
 833              	.LBB299:
 834              	.LBI299:
 835              		.loc 2 213 20 view .LVU313
 836              	.LBB300:
 837              		.loc 2 215 3 view .LVU314
 838              		.loc 2 215 3 is_stmt 0 view .LVU315
 839              	.LBE300:
 840              	.LBE299:
 841              		.loc 1 149 3 is_stmt 1 view .LVU316
 842              		.loc 1 150 3 view .LVU317
 843              		.loc 1 150 25 is_stmt 0 view .LVU318
 844 008a C740F800 		movl	$0, -8(%eax)
 844      000000
 845              		.loc 1 155 3 is_stmt 1 view .LVU319
 846              		.loc 1 155 25 is_stmt 0 view .LVU320
 847 0091 C740F400 		movl	$0, -12(%eax)
 847      000000
 848              		.loc 1 165 3 is_stmt 1 view .LVU321
 849              		.loc 1 166 3 view .LVU322
 850              		.loc 1 171 3 view .LVU323
 851              	.LBB301:
 852              	.LBI296:
 853              		.loc 2 282 20 view .LVU324
 854              	.LBB298:
 855              		.loc 2 284 3 view .LVU325
 856              		.loc 2 285 3 view .LVU326
 857              	.LBE298:
 858              	.LBE301:
 859              		.loc 1 180 3 view .LVU327
 860              		.loc 1 180 30 view .LVU328
 861              		.loc 1 182 3 view .LVU329
 862              	.LVL39:
 863              		.loc 1 182 3 is_stmt 0 view .LVU330
 864              	.LBE307:
GAS LISTING /tmp/cctFPqVW.s 			page 17


 865              	.LBE317:
 866              	.LBB318:
 867              		.loc 1 400 3 is_stmt 1 view .LVU331
 868              		.loc 1 400 3 view .LVU332
 869              		.loc 1 400 3 view .LVU333
 870              		.loc 1 400 3 view .LVU334
 871              		.loc 1 400 3 view .LVU335
 872              		.loc 1 400 3 view .LVU336
 873              		.loc 1 400 3 view .LVU337
 874              		.loc 1 400 3 view .LVU338
 875              		.loc 1 400 3 view .LVU339
 876              		.loc 1 400 3 view .LVU340
 877 0098 896E1C   		movl	%ebp, 28(%esi)
 878              		.loc 1 400 3 view .LVU341
 879              		.loc 1 400 3 view .LVU342
 880              		.loc 1 400 3 view .LVU343
 881              		.loc 1 400 3 view .LVU344
 882 009b 8B5B10   		movl	16(%ebx), %ebx
 883 009e C7461400 		movl	$0, 20(%esi)
 883      000000
 884 00a5 895E18   		movl	%ebx, 24(%esi)
 885              		.loc 1 400 3 view .LVU345
 886              		.loc 1 400 3 view .LVU346
 887              		.loc 1 400 3 view .LVU347
 888              		.loc 1 400 3 view .LVU348
 889              		.loc 1 400 3 view .LVU349
 890              		.loc 1 400 3 view .LVU350
 891              		.loc 1 400 3 view .LVU351
 892 00a8 8B9F0000 		movl	_port_thread_start@GOT(%edi), %ebx
 892      0000
 893 00ae 8B3C24   		movl	(%esp), %edi
 894 00b1 C7060000 		movl	$0, (%esi)
 894      0000
 895 00b7 895E10   		movl	%ebx, 16(%esi)
 896              		.loc 1 400 3 view .LVU352
 897              		.loc 1 400 3 view .LVU353
 898              	.LBE318:
 899              		.loc 1 403 3 is_stmt 0 view .LVU354
 900 00ba 8D5928   		leal	40(%ecx), %ebx
 901              	.LBB319:
 902              		.loc 1 400 3 view .LVU355
 903 00bd 897E0C   		movl	%edi, 12(%esi)
 904 00c0 C7460400 		movl	$0, 4(%esi)
 904      000000
 905              		.loc 1 400 3 is_stmt 1 view .LVU356
 906 00c7 C7460800 		movl	$0, 8(%esi)
 906      000000
 907              		.loc 1 400 3 view .LVU357
 908              		.loc 1 400 3 view .LVU358
 909              	.LBE319:
 910              		.loc 1 403 3 is_stmt 0 view .LVU359
 911 00ce 8958D4   		movl	%ebx, -44(%eax)
 912              	.LBB320:
 913              	.LBB321:
 914              		.loc 2 325 21 view .LVU360
 915 00d1 8B592C   		movl	44(%ecx), %ebx
 916              	.LBE321:
GAS LISTING /tmp/cctFPqVW.s 			page 18


 917              	.LBE320:
 918              	.LBB323:
 919              		.loc 1 400 3 view .LVU361
 920 00d4 8970BC   		movl	%esi, -68(%eax)
 921              	.LBE323:
 922              		.loc 1 400 60 is_stmt 1 view .LVU362
 923              		.loc 1 403 3 view .LVU363
 924              	.LVL40:
 925              	.LBB324:
 926              	.LBI320:
 927              		.loc 2 322 20 view .LVU364
 928              	.LBB322:
 929              		.loc 2 324 3 view .LVU365
 930              		.loc 2 325 3 view .LVU366
 931              		.loc 2 325 17 is_stmt 0 view .LVU367
 932 00d7 8958D8   		movl	%ebx, -40(%eax)
 933              		.loc 2 326 3 is_stmt 1 view .LVU368
 934              		.loc 2 326 17 is_stmt 0 view .LVU369
 935 00da 8913     		movl	%edx, (%ebx)
 936              	.LVL41:
 937              		.loc 2 327 3 is_stmt 1 view .LVU370
 938              		.loc 2 327 17 is_stmt 0 view .LVU371
 939 00dc 89512C   		movl	%edx, 44(%ecx)
 940              	.LVL42:
 941              		.loc 2 327 17 view .LVU372
 942              	.LBE322:
 943              	.LBE324:
 944              		.loc 1 406 3 is_stmt 1 view .LVU373
 945              		.loc 1 407 1 is_stmt 0 view .LVU374
 946 00df 8B442404 		movl	4(%esp), %eax
 947              	.LVL43:
 948              		.loc 1 407 1 view .LVU375
 949 00e3 83C408   		addl	$8, %esp
 950              		.cfi_remember_state
 951              		.cfi_def_cfa_offset 20
 952 00e6 5B       		popl	%ebx
 953              		.cfi_restore 3
 954              		.cfi_def_cfa_offset 16
 955 00e7 5E       		popl	%esi
 956              		.cfi_restore 6
 957              		.cfi_def_cfa_offset 12
 958 00e8 5F       		popl	%edi
 959              		.cfi_restore 7
 960              		.cfi_def_cfa_offset 8
 961 00e9 5D       		popl	%ebp
 962              		.cfi_restore 5
 963              		.cfi_def_cfa_offset 4
 964 00ea C3       		ret
 965              	.LVL44:
 966 00eb 8D742600 		.p2align 4,,10
 966      90
 967              		.p2align 3
 968              	.L23:
 969              		.cfi_restore_state
 970              	.LBB325:
 971              	.LBB308:
 972              		.loc 1 134 25 view .LVU376
GAS LISTING /tmp/cctFPqVW.s 			page 19


 973 00f0 8B8F0000 		movl	ch0@GOT(%edi), %ecx
 973      0000
 974 00f6 E947FFFF 		jmp	.L20
 974      FF
 975              	.LBE308:
 976              	.LBE325:
 977              		.cfi_endproc
 978              	.LFE221:
 979              		.size	chThdCreateSuspendedI, .-chThdCreateSuspendedI
 980              		.section	.text.chThdCreateSuspended,"ax",@progbits
 981              		.p2align 4
 982              		.globl	chThdCreateSuspended
 983              		.type	chThdCreateSuspended, @function
 984              	chThdCreateSuspended:
 985              	.LVL45:
 986              	.LFB222:
 987              		.loc 1 426 64 is_stmt 1 view -0
 988              		.cfi_startproc
 989              		.loc 1 427 3 view .LVU378
 990              		.loc 1 430 3 view .LVU379
 991              		.loc 1 430 3 view .LVU380
 992              		.loc 1 430 3 view .LVU381
 993              		.loc 1 438 3 view .LVU382
 994              		.loc 1 439 3 view .LVU383
 995              		.loc 1 426 64 is_stmt 0 view .LVU384
 996 0000 53       		pushl	%ebx
 997              		.cfi_def_cfa_offset 8
 998              		.cfi_offset 3, -8
 999 0001 E8FCFFFF 		call	__x86.get_pc_thunk.bx
 999      FF
 1000 0006 81C30200 		addl	$_GLOBAL_OFFSET_TABLE_, %ebx
 1000      0000
 1001              		.loc 1 439 8 view .LVU385
 1002 000c FF742408 		pushl	8(%esp)
 1003              		.cfi_def_cfa_offset 12
 1004 0010 E8FCFFFF 		call	chThdCreateSuspendedI
 1004      FF
 1005              	.LVL46:
 1006              		.loc 1 440 3 is_stmt 1 view .LVU386
 1007              	.LBB326:
 1008              	.LBI326:
 1009              		.loc 3 421 20 view .LVU387
 1010              	.LBB327:
 1011              		.loc 3 423 23 view .LVU388
 1012              		.loc 3 424 34 view .LVU389
 1013              		.loc 3 430 3 view .LVU390
 1014              		.loc 3 430 3 view .LVU391
 1015              		.loc 3 430 3 view .LVU392
 1016              		.loc 3 434 3 view .LVU393
 1017              	.LBB328:
 1018              	.LBI328:
 1019              		.loc 4 370 20 view .LVU394
 1020              	.LBB329:
 1021              		.loc 4 372 3 view .LVU395
 1022              		.loc 4 372 16 is_stmt 0 view .LVU396
 1023 0015 8B930000 		movl	port_irq_sts@GOT(%ebx), %edx
 1023      0000
GAS LISTING /tmp/cctFPqVW.s 			page 20


 1024 001b C7020000 		movl	$0, (%edx)
 1024      0000
 1025              	.LBE329:
 1026              	.LBE328:
 1027              	.LBE327:
 1028              	.LBE326:
 1029              		.loc 1 442 3 is_stmt 1 view .LVU397
 1030              		.loc 1 442 10 is_stmt 0 view .LVU398
 1031 0021 5A       		popl	%edx
 1032              		.cfi_def_cfa_offset 8
 1033              		.loc 1 443 1 view .LVU399
 1034 0022 5B       		popl	%ebx
 1035              		.cfi_restore 3
 1036              		.cfi_def_cfa_offset 4
 1037 0023 C3       		ret
 1038              		.cfi_endproc
 1039              	.LFE222:
 1040              		.size	chThdCreateSuspended, .-chThdCreateSuspended
 1041              		.section	.text.chThdCreateI,"ax",@progbits
 1042              		.p2align 4
 1043              		.globl	chThdCreateI
 1044              		.type	chThdCreateI, @function
 1045              	chThdCreateI:
 1046              	.LVL47:
 1047              	.LFB223:
 1048              		.loc 1 463 56 is_stmt 1 view -0
 1049              		.cfi_startproc
 1050              		.loc 1 465 3 view .LVU401
 1051              		.loc 1 463 56 is_stmt 0 view .LVU402
 1052 0000 53       		pushl	%ebx
 1053              		.cfi_def_cfa_offset 8
 1054              		.cfi_offset 3, -8
 1055 0001 E8FCFFFF 		call	__x86.get_pc_thunk.bx
 1055      FF
 1056 0006 81C30200 		addl	$_GLOBAL_OFFSET_TABLE_, %ebx
 1056      0000
 1057 000c 83EC08   		subl	$8, %esp
 1058              		.cfi_def_cfa_offset 16
 1059              		.loc 1 465 10 view .LVU403
 1060 000f FF742410 		pushl	16(%esp)
 1061              		.cfi_def_cfa_offset 20
 1062 0013 E8FCFFFF 		call	chThdCreateSuspendedI
 1062      FF
 1063              	.LVL48:
 1064 0018 83EC08   		subl	$8, %esp
 1065              		.cfi_def_cfa_offset 28
 1066 001b 50       		pushl	%eax
 1067              		.cfi_def_cfa_offset 32
 1068 001c E8FCFFFF 		call	chSchReadyI@PLT
 1068      FF
 1069              	.LVL49:
 1070              		.loc 1 466 1 view .LVU404
 1071 0021 83C418   		addl	$24, %esp
 1072              		.cfi_def_cfa_offset 8
 1073 0024 5B       		popl	%ebx
 1074              		.cfi_restore 3
 1075              		.cfi_def_cfa_offset 4
GAS LISTING /tmp/cctFPqVW.s 			page 21


 1076 0025 C3       		ret
 1077              		.cfi_endproc
 1078              	.LFE223:
 1079              		.size	chThdCreateI, .-chThdCreateI
 1080              		.section	.text.chThdCreate,"ax",@progbits
 1081              		.p2align 4
 1082              		.globl	chThdCreate
 1083              		.type	chThdCreate, @function
 1084              	chThdCreate:
 1085              	.LVL50:
 1086              	.LFB224:
 1087              		.loc 1 481 55 is_stmt 1 view -0
 1088              		.cfi_startproc
 1089              		.loc 1 482 3 view .LVU406
 1090              		.loc 1 486 3 view .LVU407
 1091              		.loc 1 486 3 view .LVU408
 1092              		.loc 1 486 3 view .LVU409
 1093              		.loc 1 494 3 view .LVU410
 1094              	.LBB330:
 1095              	.LBI330:
 1096              		.loc 3 407 20 view .LVU411
 1097              		.loc 3 409 3 view .LVU412
 1098              	.LBB331:
 1099              	.LBI331:
 1100              		.loc 4 361 20 view .LVU413
 1101              	.LBB332:
 1102              		.loc 4 363 3 view .LVU414
 1103              	.LBE332:
 1104              	.LBE331:
 1105              	.LBE330:
 1106              		.loc 1 481 55 is_stmt 0 view .LVU415
 1107 0000 57       		pushl	%edi
 1108              		.cfi_def_cfa_offset 8
 1109              		.cfi_offset 7, -8
 1110 0001 56       		pushl	%esi
 1111              		.cfi_def_cfa_offset 12
 1112              		.cfi_offset 6, -12
 1113 0002 53       		pushl	%ebx
 1114              		.cfi_def_cfa_offset 16
 1115              		.cfi_offset 3, -16
 1116 0003 E8FCFFFF 		call	__x86.get_pc_thunk.bx
 1116      FF
 1117 0008 81C30200 		addl	$_GLOBAL_OFFSET_TABLE_, %ebx
 1117      0000
 1118              		.loc 1 495 8 view .LVU416
 1119 000e FF742410 		pushl	16(%esp)
 1120              		.cfi_def_cfa_offset 20
 1121              	.LBB335:
 1122              	.LBB334:
 1123              	.LBB333:
 1124              		.loc 4 363 16 view .LVU417
 1125 0012 8BBB0000 		movl	port_irq_sts@GOT(%ebx), %edi
 1125      0000
 1126 0018 C7070100 		movl	$1, (%edi)
 1126      0000
 1127              	.LBE333:
 1128              	.LBE334:
GAS LISTING /tmp/cctFPqVW.s 			page 22


 1129              		.loc 3 410 35 is_stmt 1 view .LVU418
 1130              		.loc 3 411 21 view .LVU419
 1131              	.LBE335:
 1132              		.loc 1 495 3 view .LVU420
 1133              		.loc 1 495 8 is_stmt 0 view .LVU421
 1134 001e E8FCFFFF 		call	chThdCreateSuspendedI
 1134      FF
 1135              	.LVL51:
 1136              		.loc 1 496 3 view .LVU422
 1137 0023 83EC04   		subl	$4, %esp
 1138              		.cfi_def_cfa_offset 24
 1139 0026 6A00     		pushl	$0
 1140              		.cfi_def_cfa_offset 28
 1141              		.loc 1 495 8 view .LVU423
 1142 0028 89C6     		movl	%eax, %esi
 1143              	.LVL52:
 1144              		.loc 1 496 3 is_stmt 1 view .LVU424
 1145 002a 50       		pushl	%eax
 1146              		.cfi_def_cfa_offset 32
 1147 002b E8FCFFFF 		call	chSchWakeupS@PLT
 1147      FF
 1148              	.LVL53:
 1149              		.loc 1 497 3 view .LVU425
 1150              	.LBB336:
 1151              	.LBI336:
 1152              		.loc 3 421 20 view .LVU426
 1153              	.LBB337:
 1154              		.loc 3 423 23 view .LVU427
 1155              		.loc 3 424 34 view .LVU428
 1156              		.loc 3 430 3 view .LVU429
 1157              		.loc 3 430 3 view .LVU430
 1158              		.loc 3 430 3 view .LVU431
 1159              		.loc 3 434 3 view .LVU432
 1160              	.LBB338:
 1161              	.LBI338:
 1162              		.loc 4 370 20 view .LVU433
 1163              	.LBB339:
 1164              		.loc 4 372 3 view .LVU434
 1165              	.LBE339:
 1166              	.LBE338:
 1167              	.LBE337:
 1168              	.LBE336:
 1169              		.loc 1 499 10 is_stmt 0 view .LVU435
 1170 0030 83C410   		addl	$16, %esp
 1171              		.cfi_def_cfa_offset 16
 1172              		.loc 1 500 1 view .LVU436
 1173 0033 89F0     		movl	%esi, %eax
 1174              	.LBB343:
 1175              	.LBB342:
 1176              	.LBB341:
 1177              	.LBB340:
 1178              		.loc 4 372 16 view .LVU437
 1179 0035 C7070000 		movl	$0, (%edi)
 1179      0000
 1180              	.LBE340:
 1181              	.LBE341:
 1182              	.LBE342:
GAS LISTING /tmp/cctFPqVW.s 			page 23


 1183              	.LBE343:
 1184              		.loc 1 499 3 is_stmt 1 view .LVU438
 1185              		.loc 1 500 1 is_stmt 0 view .LVU439
 1186 003b 5B       		popl	%ebx
 1187              		.cfi_restore 3
 1188              		.cfi_def_cfa_offset 12
 1189 003c 5E       		popl	%esi
 1190              		.cfi_restore 6
 1191              		.cfi_def_cfa_offset 8
 1192              	.LVL54:
 1193              		.loc 1 500 1 view .LVU440
 1194 003d 5F       		popl	%edi
 1195              		.cfi_restore 7
 1196              		.cfi_def_cfa_offset 4
 1197 003e C3       		ret
 1198              		.cfi_endproc
 1199              	.LFE224:
 1200              		.size	chThdCreate, .-chThdCreate
 1201              		.section	.rodata.chThdCreateStatic.str1.1,"aMS",@progbits,1
 1202              	.LC0:
 1203 0000 6E6F6E61 		.string	"noname"
 1203      6D6500
 1204              		.section	.text.chThdCreateStatic,"ax",@progbits
 1205              		.p2align 4
 1206              		.globl	chThdCreateStatic
 1207              		.type	chThdCreateStatic, @function
 1208              	chThdCreateStatic:
 1209              	.LVL55:
 1210              	.LFB225:
 1211              		.loc 1 523 68 is_stmt 1 view -0
 1212              		.cfi_startproc
 1213              		.loc 1 524 3 view .LVU442
 1214              		.loc 1 525 3 view .LVU443
 1215              		.loc 1 528 3 view .LVU444
 1216              		.loc 1 528 3 view .LVU445
 1217              		.loc 1 528 3 view .LVU446
 1218              		.loc 1 532 3 view .LVU447
 1219              		.loc 1 532 3 view .LVU448
 1220              		.loc 1 532 3 view .LVU449
 1221              		.loc 1 537 3 view .LVU450
 1222              		.loc 1 537 3 view .LVU451
 1223              		.loc 1 537 3 view .LVU452
 1224              		.loc 1 542 3 view .LVU453
 1225              		.loc 1 523 68 is_stmt 0 view .LVU454
 1226 0000 55       		pushl	%ebp
 1227              		.cfi_def_cfa_offset 8
 1228              		.cfi_offset 5, -8
 1229 0001 57       		pushl	%edi
 1230              		.cfi_def_cfa_offset 12
 1231              		.cfi_offset 7, -12
 1232 0002 56       		pushl	%esi
 1233              		.cfi_def_cfa_offset 16
 1234              		.cfi_offset 6, -16
 1235 0003 53       		pushl	%ebx
 1236              		.cfi_def_cfa_offset 20
 1237              		.cfi_offset 3, -20
 1238 0004 E8FCFFFF 		call	__x86.get_pc_thunk.bx
GAS LISTING /tmp/cctFPqVW.s 			page 24


 1238      FF
 1239 0009 81C30200 		addl	$_GLOBAL_OFFSET_TABLE_, %ebx
 1239      0000
 1240 000f 83EC14   		subl	$20, %esp
 1241              		.cfi_def_cfa_offset 40
 1242              		.loc 1 523 68 view .LVU455
 1243 0012 8B4C2428 		movl	40(%esp), %ecx
 1244              		.loc 1 542 8 view .LVU456
 1245 0016 8B44242C 		movl	44(%esp), %eax
 1246              		.loc 1 523 68 view .LVU457
 1247 001a 8B542430 		movl	48(%esp), %edx
 1248              	.LBB360:
 1249              		.loc 1 563 3 view .LVU458
 1250 001e 8B6C2438 		movl	56(%esp), %ebp
 1251              	.LBE360:
 1252              		.loc 1 542 8 view .LVU459
 1253 0022 01C8     		addl	%ecx, %eax
 1254              	.LVL56:
 1255              		.loc 1 548 3 is_stmt 1 view .LVU460
 1256              		.loc 1 549 3 view .LVU461
 1257              	.LBB361:
 1258              	.LBB362:
 1259              		.loc 1 123 14 is_stmt 0 view .LVU462
 1260 0024 8948C4   		movl	%ecx, -60(%eax)
 1261              		.loc 1 131 25 view .LVU463
 1262 0027 8B8B0000 		movl	ch0@GOT(%ebx), %ecx
 1262      0000
 1263              	.LVL57:
 1264              		.loc 1 131 25 view .LVU464
 1265              	.LBE362:
 1266              	.LBE361:
 1267              	.LBB373:
 1268              		.loc 1 563 3 view .LVU465
 1269 002d 8D78AC   		leal	-84(%eax), %edi
 1270              	.LBE373:
 1271              		.loc 1 549 11 view .LVU466
 1272 0030 8D70B0   		leal	-80(%eax), %esi
 1273              	.LVL58:
 1274              		.loc 1 550 3 is_stmt 1 view .LVU467
 1275              		.loc 1 550 3 view .LVU468
 1276              		.loc 1 550 3 view .LVU469
 1277              		.loc 1 559 3 view .LVU470
 1278              		.loc 1 560 3 view .LVU471
 1279              	.LBB374:
 1280              	.LBI361:
 1281              		.loc 1 116 11 view .LVU472
 1282              	.LBB369:
 1283              		.loc 1 119 3 view .LVU473
 1284              		.loc 1 119 3 view .LVU474
 1285              		.loc 1 119 3 view .LVU475
 1286              		.loc 1 120 3 view .LVU476
 1287              		.loc 1 120 3 view .LVU477
 1288              		.loc 1 120 3 view .LVU478
 1289              		.loc 1 123 3 view .LVU479
 1290              		.loc 1 124 3 view .LVU480
 1291              		.loc 1 127 25 is_stmt 0 view .LVU481
 1292 0033 8950B8   		movl	%edx, -72(%eax)
GAS LISTING /tmp/cctFPqVW.s 			page 25


 1293              		.loc 1 131 25 view .LVU482
 1294 0036 8948C0   		movl	%ecx, -64(%eax)
 1295              		.loc 1 144 3 view .LVU483
 1296 0039 8D48E8   		leal	-24(%eax), %ecx
 1297 003c 8948E8   		movl	%ecx, -24(%eax)
 1298              	.LBE369:
 1299              	.LBE374:
 1300              	.LBB375:
 1301              		.loc 1 563 3 view .LVU484
 1302 003f 8D48A4   		leal	-92(%eax), %ecx
 1303              	.LBE375:
 1304              	.LBB376:
 1305              	.LBB370:
 1306              		.loc 1 149 25 view .LVU485
 1307 0042 8950FC   		movl	%edx, -4(%eax)
 1308              		.loc 1 166 25 view .LVU486
 1309 0045 8D930000 		leal	.LC0@GOTOFF(%ebx), %edx
 1309      0000
 1310              	.LBE370:
 1311              	.LBE376:
 1312              	.LBB377:
 1313              		.loc 1 563 3 view .LVU487
 1314 004b 83E1F0   		andl	$-16, %ecx
 1315              	.LBE377:
 1316              	.LBB378:
 1317              	.LBB371:
 1318              		.loc 1 166 25 view .LVU488
 1319 004e 8950D0   		movl	%edx, -48(%eax)
 1320              		.loc 1 171 3 view .LVU489
 1321 0051 8D50EC   		leal	-20(%eax), %edx
 1322              	.LBE371:
 1323              	.LBE378:
 1324              	.LBB379:
 1325              		.loc 1 563 3 view .LVU490
 1326 0054 83E918   		subl	$24, %ecx
 1327              	.LBE379:
 1328              	.LBB380:
 1329              	.LBB372:
 1330              	.LBB363:
 1331              	.LBB364:
 1332              		.loc 2 284 12 view .LVU491
 1333 0057 8950EC   		movl	%edx, -20(%eax)
 1334              		.loc 2 285 12 view .LVU492
 1335 005a 8950F0   		movl	%edx, -16(%eax)
 1336              	.LBE364:
 1337              	.LBE363:
 1338              		.loc 1 124 14 view .LVU493
 1339 005d 8940C8   		movl	%eax, -56(%eax)
 1340              		.loc 1 127 3 is_stmt 1 view .LVU494
 1341              		.loc 1 128 3 view .LVU495
 1342              		.loc 1 128 25 is_stmt 0 view .LVU496
 1343 0060 C640CC02 		movb	$2, -52(%eax)
 1344              		.loc 1 129 3 is_stmt 1 view .LVU497
 1345              		.loc 1 129 25 is_stmt 0 view .LVU498
 1346 0064 C640CD00 		movb	$0, -51(%eax)
 1347              		.loc 1 130 3 is_stmt 1 view .LVU499
 1348              		.loc 1 131 5 view .LVU500
GAS LISTING /tmp/cctFPqVW.s 			page 26


 1349              		.loc 1 137 3 view .LVU501
 1350              		.loc 1 137 25 is_stmt 0 view .LVU502
 1351 0068 C740DC00 		movl	$0, -36(%eax)
 1351      000000
 1352              		.loc 1 138 3 is_stmt 1 view .LVU503
 1353              		.loc 1 138 25 is_stmt 0 view .LVU504
 1354 006f C740E000 		movl	$0, -32(%eax)
 1354      000000
 1355              		.loc 1 144 3 is_stmt 1 view .LVU505
 1356              	.LVL59:
 1357              	.LBB366:
 1358              	.LBI366:
 1359              		.loc 2 213 20 view .LVU506
 1360              	.LBB367:
 1361              		.loc 2 215 3 view .LVU507
 1362              		.loc 2 215 3 is_stmt 0 view .LVU508
 1363              	.LBE367:
 1364              	.LBE366:
 1365              		.loc 1 149 3 is_stmt 1 view .LVU509
 1366              		.loc 1 150 3 view .LVU510
 1367              		.loc 1 150 25 is_stmt 0 view .LVU511
 1368 0076 C740F800 		movl	$0, -8(%eax)
 1368      000000
 1369              		.loc 1 155 3 is_stmt 1 view .LVU512
 1370              		.loc 1 155 25 is_stmt 0 view .LVU513
 1371 007d C740F400 		movl	$0, -12(%eax)
 1371      000000
 1372              		.loc 1 165 3 is_stmt 1 view .LVU514
 1373              		.loc 1 165 25 is_stmt 0 view .LVU515
 1374 0084 C640CE01 		movb	$1, -50(%eax)
 1375              		.loc 1 166 3 is_stmt 1 view .LVU516
 1376              		.loc 1 171 3 view .LVU517
 1377              	.LVL60:
 1378              	.LBB368:
 1379              	.LBI363:
 1380              		.loc 2 282 20 view .LVU518
 1381              	.LBB365:
 1382              		.loc 2 284 3 view .LVU519
 1383              		.loc 2 285 3 view .LVU520
 1384              		.loc 2 285 3 is_stmt 0 view .LVU521
 1385              	.LBE365:
 1386              	.LBE368:
 1387              		.loc 1 180 3 is_stmt 1 view .LVU522
 1388              		.loc 1 180 30 view .LVU523
 1389              		.loc 1 182 3 view .LVU524
 1390              		.loc 1 182 3 is_stmt 0 view .LVU525
 1391              	.LBE372:
 1392              	.LBE380:
 1393              	.LBB381:
 1394              		.loc 1 563 3 is_stmt 1 view .LVU526
 1395              		.loc 1 563 3 view .LVU527
 1396              		.loc 1 563 3 view .LVU528
 1397              		.loc 1 563 3 view .LVU529
 1398 0088 C740AC00 		movl	$0, -84(%eax)
 1398      000000
 1399              		.loc 1 563 3 view .LVU530
 1400              		.loc 1 563 3 view .LVU531
GAS LISTING /tmp/cctFPqVW.s 			page 27


 1401              	.LVL61:
 1402              		.loc 1 563 3 view .LVU532
 1403              		.loc 1 563 3 view .LVU533
 1404              		.loc 1 563 3 view .LVU534
 1405              		.loc 1 563 3 view .LVU535
 1406 008f 89691C   		movl	%ebp, 28(%ecx)
 1407              		.loc 1 563 3 view .LVU536
 1408              		.loc 1 563 3 view .LVU537
 1409              		.loc 1 563 3 view .LVU538
 1410              		.loc 1 563 3 view .LVU539
 1411 0092 8B6C2434 		movl	52(%esp), %ebp
 1412 0096 C7411400 		movl	$0, 20(%ecx)
 1412      000000
 1413 009d 896918   		movl	%ebp, 24(%ecx)
 1414              		.loc 1 563 3 view .LVU540
 1415              		.loc 1 563 3 view .LVU541
 1416              		.loc 1 563 3 view .LVU542
 1417              		.loc 1 563 3 view .LVU543
 1418              		.loc 1 563 3 view .LVU544
 1419              		.loc 1 563 3 view .LVU545
 1420              		.loc 1 563 3 view .LVU546
 1421 00a0 8BAB0000 		movl	_port_thread_start@GOT(%ebx), %ebp
 1421      0000
 1422 00a6 896910   		movl	%ebp, 16(%ecx)
 1423              		.loc 1 563 3 view .LVU547
 1424              	.LBE381:
 1425              		.loc 1 568 3 is_stmt 0 view .LVU548
 1426 00a9 8B50C0   		movl	-64(%eax), %edx
 1427              	.LBB382:
 1428              		.loc 1 563 3 view .LVU549
 1429 00ac 89790C   		movl	%edi, 12(%ecx)
 1430              	.LBE382:
 1431              	.LBB383:
 1432              	.LBB384:
 1433              	.LBB385:
 1434              		.loc 4 363 16 view .LVU550
 1435 00af 8BBB0000 		movl	port_irq_sts@GOT(%ebx), %edi
 1435      0000
 1436              	.LVL62:
 1437              		.loc 4 363 16 view .LVU551
 1438              	.LBE385:
 1439              	.LBE384:
 1440              	.LBE383:
 1441              		.loc 1 568 3 view .LVU552
 1442 00b5 8D6A28   		leal	40(%edx), %ebp
 1443              	.LBB390:
 1444              		.loc 1 563 3 view .LVU553
 1445 00b8 C7010000 		movl	$0, (%ecx)
 1445      0000
 1446              		.loc 1 563 3 is_stmt 1 view .LVU554
 1447 00be C7410400 		movl	$0, 4(%ecx)
 1447      000000
 1448              		.loc 1 563 3 view .LVU555
 1449 00c5 C7410800 		movl	$0, 8(%ecx)
 1449      000000
 1450              		.loc 1 563 3 view .LVU556
 1451              		.loc 1 563 3 view .LVU557
GAS LISTING /tmp/cctFPqVW.s 			page 28


 1452 00cc 8948BC   		movl	%ecx, -68(%eax)
 1453              	.LBE390:
 1454              		.loc 1 563 47 view .LVU558
 1455              		.loc 1 565 3 view .LVU559
 1456              	.LBB391:
 1457              	.LBI383:
 1458              		.loc 3 407 20 view .LVU560
 1459              		.loc 3 409 3 view .LVU561
 1460              	.LBB388:
 1461              	.LBI384:
 1462              		.loc 4 361 20 view .LVU562
 1463              	.LBB386:
 1464              		.loc 4 363 3 view .LVU563
 1465              	.LBE386:
 1466              	.LBE388:
 1467              	.LBE391:
 1468              		.loc 1 568 3 is_stmt 0 view .LVU564
 1469 00cf 8D48D4   		leal	-44(%eax), %ecx
 1470              	.LVL63:
 1471              	.LBB392:
 1472              	.LBB389:
 1473              	.LBB387:
 1474              		.loc 4 363 16 view .LVU565
 1475 00d2 C7070100 		movl	$1, (%edi)
 1475      0000
 1476              	.LBE387:
 1477              	.LBE389:
 1478              		.loc 3 410 35 is_stmt 1 view .LVU566
 1479              		.loc 3 411 21 view .LVU567
 1480              	.LBE392:
 1481              		.loc 1 568 3 view .LVU568
 1482              	.LVL64:
 1483              	.LBB393:
 1484              	.LBI393:
 1485              		.loc 2 322 20 view .LVU569
 1486              	.LBB394:
 1487              		.loc 2 324 3 view .LVU570
 1488              	.LBE394:
 1489              	.LBE393:
 1490              		.loc 1 568 3 is_stmt 0 view .LVU571
 1491 00d8 8968D4   		movl	%ebp, -44(%eax)
 1492              	.LBB396:
 1493              	.LBB395:
 1494              		.loc 2 325 3 is_stmt 1 view .LVU572
 1495              		.loc 2 325 21 is_stmt 0 view .LVU573
 1496 00db 8B6A2C   		movl	44(%edx), %ebp
 1497              	.LVL65:
 1498              		.loc 2 325 17 view .LVU574
 1499 00de 8968D8   		movl	%ebp, -40(%eax)
 1500              		.loc 2 326 3 is_stmt 1 view .LVU575
 1501              		.loc 2 326 17 is_stmt 0 view .LVU576
 1502 00e1 894D00   		movl	%ecx, 0(%ebp)
 1503              	.LVL66:
 1504              		.loc 2 327 3 is_stmt 1 view .LVU577
 1505              		.loc 2 327 17 is_stmt 0 view .LVU578
 1506 00e4 894A2C   		movl	%ecx, 44(%edx)
 1507              	.LVL67:
GAS LISTING /tmp/cctFPqVW.s 			page 29


 1508              		.loc 2 327 17 view .LVU579
 1509              	.LBE395:
 1510              	.LBE396:
 1511              		.loc 1 572 3 is_stmt 1 view .LVU580
 1512 00e7 6A00     		pushl	$0
 1513              		.cfi_def_cfa_offset 44
 1514 00e9 56       		pushl	%esi
 1515              		.cfi_def_cfa_offset 48
 1516              	.LVL68:
 1517              		.loc 1 572 3 is_stmt 0 view .LVU581
 1518 00ea E8FCFFFF 		call	chSchWakeupS@PLT
 1518      FF
 1519              	.LVL69:
 1520              		.loc 1 573 3 is_stmt 1 view .LVU582
 1521              	.LBB397:
 1522              	.LBI397:
 1523              		.loc 3 421 20 view .LVU583
 1524              	.LBB398:
 1525              		.loc 3 423 23 view .LVU584
 1526              		.loc 3 424 34 view .LVU585
 1527              		.loc 3 430 3 view .LVU586
 1528              		.loc 3 430 3 view .LVU587
 1529              		.loc 3 430 3 view .LVU588
 1530              		.loc 3 434 3 view .LVU589
 1531              	.LBB399:
 1532              	.LBI399:
 1533              		.loc 4 370 20 view .LVU590
 1534              	.LBB400:
 1535              		.loc 4 372 3 view .LVU591
 1536              		.loc 4 372 16 is_stmt 0 view .LVU592
 1537 00ef C7070000 		movl	$0, (%edi)
 1537      0000
 1538              	.LBE400:
 1539              	.LBE399:
 1540              	.LBE398:
 1541              	.LBE397:
 1542              		.loc 1 575 3 is_stmt 1 view .LVU593
 1543              		.loc 1 576 1 is_stmt 0 view .LVU594
 1544 00f5 83C41C   		addl	$28, %esp
 1545              		.cfi_def_cfa_offset 20
 1546 00f8 89F0     		movl	%esi, %eax
 1547 00fa 5B       		popl	%ebx
 1548              		.cfi_restore 3
 1549              		.cfi_def_cfa_offset 16
 1550 00fb 5E       		popl	%esi
 1551              		.cfi_restore 6
 1552              		.cfi_def_cfa_offset 12
 1553              	.LVL70:
 1554              		.loc 1 576 1 view .LVU595
 1555 00fc 5F       		popl	%edi
 1556              		.cfi_restore 7
 1557              		.cfi_def_cfa_offset 8
 1558 00fd 5D       		popl	%ebp
 1559              		.cfi_restore 5
 1560              		.cfi_def_cfa_offset 4
 1561 00fe C3       		ret
 1562              		.cfi_endproc
GAS LISTING /tmp/cctFPqVW.s 			page 30


 1563              	.LFE225:
 1564              		.size	chThdCreateStatic, .-chThdCreateStatic
 1565              		.section	.text.chThdStart,"ax",@progbits
 1566              		.p2align 4
 1567              		.globl	chThdStart
 1568              		.type	chThdStart, @function
 1569              	chThdStart:
 1570              	.LVL71:
 1571              	.LFB226:
 1572              		.loc 1 586 36 is_stmt 1 view -0
 1573              		.cfi_startproc
 1574              		.loc 1 588 3 view .LVU597
 1575              	.LBB401:
 1576              	.LBI401:
 1577              		.loc 3 407 20 view .LVU598
 1578              		.loc 3 409 3 view .LVU599
 1579              	.LBB402:
 1580              	.LBI402:
 1581              		.loc 4 361 20 view .LVU600
 1582              	.LBB403:
 1583              		.loc 4 363 3 view .LVU601
 1584              	.LBE403:
 1585              	.LBE402:
 1586              	.LBE401:
 1587              		.loc 1 586 36 is_stmt 0 view .LVU602
 1588 0000 57       		pushl	%edi
 1589              		.cfi_def_cfa_offset 8
 1590              		.cfi_offset 7, -8
 1591 0001 56       		pushl	%esi
 1592              		.cfi_def_cfa_offset 12
 1593              		.cfi_offset 6, -12
 1594 0002 53       		pushl	%ebx
 1595              		.cfi_def_cfa_offset 16
 1596              		.cfi_offset 3, -16
 1597              		.loc 1 586 36 view .LVU603
 1598 0003 8B742410 		movl	16(%esp), %esi
 1599 0007 E8FCFFFF 		call	__x86.get_pc_thunk.bx
 1599      FF
 1600 000c 81C30200 		addl	$_GLOBAL_OFFSET_TABLE_, %ebx
 1600      0000
 1601              		.loc 1 590 3 view .LVU604
 1602 0012 83EC08   		subl	$8, %esp
 1603              		.cfi_def_cfa_offset 24
 1604 0015 6A00     		pushl	$0
 1605              		.cfi_def_cfa_offset 28
 1606 0017 56       		pushl	%esi
 1607              		.cfi_def_cfa_offset 32
 1608              	.LBB406:
 1609              	.LBB405:
 1610              	.LBB404:
 1611              		.loc 4 363 16 view .LVU605
 1612 0018 8BBB0000 		movl	port_irq_sts@GOT(%ebx), %edi
 1612      0000
 1613 001e C7070100 		movl	$1, (%edi)
 1613      0000
 1614              	.LBE404:
 1615              	.LBE405:
GAS LISTING /tmp/cctFPqVW.s 			page 31


 1616              		.loc 3 410 35 is_stmt 1 view .LVU606
 1617              		.loc 3 411 21 view .LVU607
 1618              	.LBE406:
 1619              		.loc 1 589 3 view .LVU608
 1620              		.loc 1 589 3 view .LVU609
 1621              		.loc 1 589 3 view .LVU610
 1622              		.loc 1 590 3 view .LVU611
 1623 0024 E8FCFFFF 		call	chSchWakeupS@PLT
 1623      FF
 1624              	.LVL72:
 1625              		.loc 1 591 3 view .LVU612
 1626              	.LBB407:
 1627              	.LBI407:
 1628              		.loc 3 421 20 view .LVU613
 1629              	.LBB408:
 1630              		.loc 3 423 23 view .LVU614
 1631              		.loc 3 424 34 view .LVU615
 1632              		.loc 3 430 3 view .LVU616
 1633              		.loc 3 430 3 view .LVU617
 1634              		.loc 3 430 3 view .LVU618
 1635              		.loc 3 434 3 view .LVU619
 1636              	.LBB409:
 1637              	.LBI409:
 1638              		.loc 4 370 20 view .LVU620
 1639              	.LBB410:
 1640              		.loc 4 372 3 view .LVU621
 1641              	.LBE410:
 1642              	.LBE409:
 1643              	.LBE408:
 1644              	.LBE407:
 1645              		.loc 1 593 10 is_stmt 0 view .LVU622
 1646 0029 83C410   		addl	$16, %esp
 1647              		.cfi_def_cfa_offset 16
 1648              		.loc 1 594 1 view .LVU623
 1649 002c 89F0     		movl	%esi, %eax
 1650              	.LBB414:
 1651              	.LBB413:
 1652              	.LBB412:
 1653              	.LBB411:
 1654              		.loc 4 372 16 view .LVU624
 1655 002e C7070000 		movl	$0, (%edi)
 1655      0000
 1656              	.LBE411:
 1657              	.LBE412:
 1658              	.LBE413:
 1659              	.LBE414:
 1660              		.loc 1 593 3 is_stmt 1 view .LVU625
 1661              		.loc 1 594 1 is_stmt 0 view .LVU626
 1662 0034 5B       		popl	%ebx
 1663              		.cfi_restore 3
 1664              		.cfi_def_cfa_offset 12
 1665 0035 5E       		popl	%esi
 1666              		.cfi_restore 6
 1667              		.cfi_def_cfa_offset 8
 1668 0036 5F       		popl	%edi
 1669              		.cfi_restore 7
 1670              		.cfi_def_cfa_offset 4
GAS LISTING /tmp/cctFPqVW.s 			page 32


 1671 0037 C3       		ret
 1672              		.cfi_endproc
 1673              	.LFE226:
 1674              		.size	chThdStart, .-chThdStart
 1675              		.section	.text.chThdAddRef,"ax",@progbits
 1676              		.p2align 4
 1677              		.globl	chThdAddRef
 1678              		.type	chThdAddRef, @function
 1679              	chThdAddRef:
 1680              	.LVL73:
 1681              	.LFB227:
 1682              		.loc 1 608 37 is_stmt 1 view -0
 1683              		.cfi_startproc
 1684              		.loc 1 610 3 view .LVU628
 1685              		.loc 1 611 3 view .LVU629
 1686              		.loc 1 611 3 view .LVU630
 1687              		.loc 1 611 3 view .LVU631
 1688              		.loc 1 612 3 view .LVU632
 1689 0000 E8FCFFFF 		call	__x86.get_pc_thunk.dx
 1689      FF
 1690 0005 81C20200 		addl	$_GLOBAL_OFFSET_TABLE_, %edx
 1690      0000
 1691              		.loc 1 608 37 is_stmt 0 view .LVU633
 1692 000b 8B442404 		movl	4(%esp), %eax
 1693              		.loc 1 612 11 view .LVU634
 1694 000f 80401E01 		addb	$1, 30(%eax)
 1695              		.loc 1 613 3 is_stmt 1 view .LVU635
 1696              	.LBB415:
 1697              	.LBI415:
 1698              		.loc 3 421 20 view .LVU636
 1699              	.LBB416:
 1700              		.loc 3 423 23 view .LVU637
 1701              		.loc 3 424 34 view .LVU638
 1702              		.loc 3 430 3 view .LVU639
 1703              		.loc 3 430 3 view .LVU640
 1704              		.loc 3 430 3 view .LVU641
 1705              		.loc 3 434 3 view .LVU642
 1706              	.LBB417:
 1707              	.LBI417:
 1708              		.loc 4 370 20 view .LVU643
 1709              	.LBB418:
 1710              		.loc 4 372 3 view .LVU644
 1711              		.loc 4 372 16 is_stmt 0 view .LVU645
 1712 0013 8B920000 		movl	port_irq_sts@GOT(%edx), %edx
 1712      0000
 1713 0019 C7020000 		movl	$0, (%edx)
 1713      0000
 1714              	.LBE418:
 1715              	.LBE417:
 1716              	.LBE416:
 1717              	.LBE415:
 1718              		.loc 1 615 3 is_stmt 1 view .LVU646
 1719              		.loc 1 616 1 is_stmt 0 view .LVU647
 1720 001f C3       		ret
 1721              		.cfi_endproc
 1722              	.LFE227:
 1723              		.size	chThdAddRef, .-chThdAddRef
GAS LISTING /tmp/cctFPqVW.s 			page 33


 1724              		.section	.text.chThdRelease,"ax",@progbits
 1725              		.p2align 4
 1726              		.globl	chThdRelease
 1727              		.type	chThdRelease, @function
 1728              	chThdRelease:
 1729              	.LVL74:
 1730              	.LFB228:
 1731              		.loc 1 634 33 is_stmt 1 view -0
 1732              		.cfi_startproc
 1733              		.loc 1 636 3 view .LVU649
 1734              		.loc 1 637 3 view .LVU650
 1735              		.loc 1 637 3 view .LVU651
 1736              		.loc 1 637 3 view .LVU652
 1737              		.loc 1 638 3 view .LVU653
 1738 0000 E8FCFFFF 		call	__x86.get_pc_thunk.cx
 1738      FF
 1739 0005 81C10200 		addl	$_GLOBAL_OFFSET_TABLE_, %ecx
 1739      0000
 1740              		.loc 1 634 33 is_stmt 0 view .LVU654
 1741 000b 53       		pushl	%ebx
 1742              		.cfi_def_cfa_offset 8
 1743              		.cfi_offset 3, -8
 1744              		.loc 1 634 33 view .LVU655
 1745 000c 8B442408 		movl	8(%esp), %eax
 1746              		.loc 1 638 11 view .LVU656
 1747 0010 80681E01 		subb	$1, 30(%eax)
 1748              		.loc 1 643 3 is_stmt 1 view .LVU657
 1749              		.loc 1 643 32 is_stmt 0 view .LVU658
 1750 0014 8B501C   		movl	28(%eax), %edx
 1751 0017 81E2FF00 		andl	$16711935, %edx
 1751      FF00
 1752              		.loc 1 643 6 view .LVU659
 1753 001d 83FA0F   		cmpl	$15, %edx
 1754 0020 740E     		je	.L42
 1755              		.loc 1 658 3 is_stmt 1 view .LVU660
 1756              	.LBB442:
 1757              	.LBI442:
 1758              		.loc 3 421 20 view .LVU661
 1759              	.LBB443:
 1760              		.loc 3 423 23 view .LVU662
 1761              		.loc 3 424 34 view .LVU663
 1762              		.loc 3 430 3 view .LVU664
 1763              		.loc 3 430 3 view .LVU665
 1764              		.loc 3 430 3 view .LVU666
 1765              		.loc 3 434 3 view .LVU667
 1766              	.LBB444:
 1767              	.LBI444:
 1768              		.loc 4 370 20 view .LVU668
 1769              	.LBB445:
 1770              		.loc 4 372 3 view .LVU669
 1771              		.loc 4 372 16 is_stmt 0 view .LVU670
 1772 0022 8B810000 		movl	port_irq_sts@GOT(%ecx), %eax
 1772      0000
 1773 0028 C7000000 		movl	$0, (%eax)
 1773      0000
 1774              	.L35:
 1775              	.LBE445:
GAS LISTING /tmp/cctFPqVW.s 			page 34


 1776              	.LBE444:
 1777              	.LBE443:
 1778              	.LBE442:
 1779              		.loc 1 659 1 view .LVU671
 1780 002e 5B       		popl	%ebx
 1781              		.cfi_remember_state
 1782              		.cfi_restore 3
 1783              		.cfi_def_cfa_offset 4
 1784 002f C3       		ret
 1785              	.LVL75:
 1786              		.p2align 4,,10
 1787              		.p2align 3
 1788              	.L42:
 1789              		.cfi_restore_state
 1790              	.LBB446:
 1791              	.LBI446:
 1792              		.loc 1 634 6 is_stmt 1 view .LVU672
 1793              	.LBB447:
 1794              		.loc 1 646 5 view .LVU673
 1795              	.LBB448:
 1796              	.LBI448:
 1797              		.loc 2 378 27 view .LVU674
 1798              	.LBB449:
 1799              		.loc 2 380 3 view .LVU675
 1800              		.loc 2 380 20 is_stmt 0 view .LVU676
 1801 0030 8B5024   		movl	36(%eax), %edx
 1802              		.loc 2 380 4 view .LVU677
 1803 0033 8B5828   		movl	40(%eax), %ebx
 1804              		.loc 2 380 17 view .LVU678
 1805 0036 8913     		movl	%edx, (%ebx)
 1806              		.loc 2 381 3 is_stmt 1 view .LVU679
 1807              		.loc 2 381 17 is_stmt 0 view .LVU680
 1808 0038 895A04   		movl	%ebx, 4(%edx)
 1809              		.loc 2 383 3 is_stmt 1 view .LVU681
 1810              	.LVL76:
 1811              		.loc 2 383 3 is_stmt 0 view .LVU682
 1812              	.LBE449:
 1813              	.LBE448:
 1814              		.loc 1 647 5 is_stmt 1 view .LVU683
 1815              	.LBB450:
 1816              	.LBI450:
 1817              		.loc 3 421 20 view .LVU684
 1818              	.LBB451:
 1819              		.loc 3 423 23 view .LVU685
 1820              		.loc 3 424 34 view .LVU686
 1821              		.loc 3 430 3 view .LVU687
 1822              		.loc 3 430 3 view .LVU688
 1823              		.loc 3 430 3 view .LVU689
 1824              		.loc 3 434 3 view .LVU690
 1825              	.LBB452:
 1826              	.LBI452:
 1827              		.loc 4 370 20 view .LVU691
 1828              	.LBB453:
 1829              		.loc 4 372 3 view .LVU692
 1830              		.loc 4 372 16 is_stmt 0 view .LVU693
 1831 003b 8B910000 		movl	port_irq_sts@GOT(%ecx), %edx
 1831      0000
GAS LISTING /tmp/cctFPqVW.s 			page 35


 1832 0041 C7020000 		movl	$0, (%edx)
 1832      0000
 1833              	.LBE453:
 1834              	.LBE452:
 1835              	.LBE451:
 1836              	.LBE450:
 1837              		.loc 1 651 5 is_stmt 1 view .LVU694
 1838              		.loc 1 651 11 is_stmt 0 view .LVU695
 1839 0047 8B502C   		movl	44(%eax), %edx
 1840              		.loc 1 651 8 view .LVU696
 1841 004a 85D2     		testl	%edx, %edx
 1842 004c 74E0     		je	.L35
 1843              		.loc 1 652 7 is_stmt 1 view .LVU697
 1844 004e 89442408 		movl	%eax, 8(%esp)
 1845              	.LBE447:
 1846              	.LBE446:
 1847              		.loc 1 659 1 is_stmt 0 view .LVU698
 1848 0052 5B       		popl	%ebx
 1849              		.cfi_restore 3
 1850              		.cfi_def_cfa_offset 4
 1851              	.LBB455:
 1852              	.LBB454:
 1853              		.loc 1 652 7 view .LVU699
 1854 0053 FFE2     		jmp	*%edx
 1855              	.LVL77:
 1856              		.loc 1 652 7 view .LVU700
 1857              	.LBE454:
 1858              	.LBE455:
 1859              		.cfi_endproc
 1860              	.LFE228:
 1861              		.size	chThdRelease, .-chThdRelease
 1862              		.section	.text.chThdExitS,"ax",@progbits
 1863              		.p2align 4
 1864              		.globl	chThdExitS
 1865              		.type	chThdExitS, @function
 1866              	chThdExitS:
 1867              	.LVL78:
 1868              	.LFB230:
 1869              		.loc 1 700 28 is_stmt 1 view -0
 1870              		.cfi_startproc
 1871              		.loc 1 701 3 view .LVU702
 1872              	.LBB456:
 1873              	.LBI456:
 1874              		.file 5 "../../../os/rt/include/chthreads.h"
 1875              		.loc 5 527 25 view .LVU703
 1876              	.LBB457:
 1877              		.loc 5 529 3 view .LVU704
 1878              	.LBE457:
 1879              	.LBE456:
 1880              		.loc 1 700 28 is_stmt 0 view .LVU705
 1881 0000 57       		pushl	%edi
 1882              		.cfi_def_cfa_offset 8
 1883              		.cfi_offset 7, -8
 1884 0001 56       		pushl	%esi
 1885              		.cfi_def_cfa_offset 12
 1886              		.cfi_offset 6, -12
 1887 0002 53       		pushl	%ebx
GAS LISTING /tmp/cctFPqVW.s 			page 36


 1888              		.cfi_def_cfa_offset 16
 1889              		.cfi_offset 3, -16
 1890 0003 E8FCFFFF 		call	__x86.get_pc_thunk.bx
 1890      FF
 1891 0008 81C30200 		addl	$_GLOBAL_OFFSET_TABLE_, %ebx
 1891      0000
 1892              	.LBB459:
 1893              	.LBB458:
 1894              		.loc 5 529 10 view .LVU706
 1895 000e 8B830000 		movl	ch0@GOT(%ebx), %eax
 1895      0000
 1896 0014 8B700C   		movl	12(%eax), %esi
 1897              	.LVL79:
 1898              		.loc 5 529 10 view .LVU707
 1899              	.LBE458:
 1900              	.LBE459:
 1901              		.loc 1 704 3 is_stmt 1 view .LVU708
 1902              		.loc 1 704 22 is_stmt 0 view .LVU709
 1903 0017 8B442410 		movl	16(%esp), %eax
 1904 001b 894634   		movl	%eax, 52(%esi)
 1905              		.loc 1 707 3 is_stmt 1 view .LVU710
 1906              		.loc 1 707 34 view .LVU711
 1907              		.loc 1 711 3 view .LVU712
 1908              		.loc 1 711 10 view .LVU713
 1909              	.LBB460:
 1910              	.LBB461:
 1911              		.loc 2 241 19 is_stmt 0 view .LVU714
 1912 001e 8B4638   		movl	56(%esi), %eax
 1913              	.LBE461:
 1914              	.LBE460:
 1915              		.loc 1 711 10 view .LVU715
 1916 0021 8D7E38   		leal	56(%esi), %edi
 1917              	.LVL80:
 1918              	.LBB464:
 1919              	.LBI460:
 1920              		.loc 2 239 20 is_stmt 1 view .LVU716
 1921              	.LBB462:
 1922              		.loc 2 241 3 view .LVU717
 1923              		.loc 2 241 3 is_stmt 0 view .LVU718
 1924              	.LBE462:
 1925              	.LBE464:
 1926              		.loc 1 711 10 view .LVU719
 1927 0024 39F8     		cmpl	%edi, %eax
 1928 0026 7420     		je	.L44
 1929 0028 8DB42600 		.p2align 4,,10
 1929      00000090 
 1930              		.p2align 3
 1931              	.L45:
 1932              		.loc 1 712 5 is_stmt 1 view .LVU720
 1933              	.LVL81:
 1934              	.LBB465:
 1935              	.LBI465:
 1936              		.loc 2 267 26 view .LVU721
 1937              	.LBB466:
 1938              		.loc 2 269 3 view .LVU722
 1939              		.loc 2 270 3 view .LVU723
 1940              		.loc 2 270 15 is_stmt 0 view .LVU724
GAS LISTING /tmp/cctFPqVW.s 			page 37


 1941 0030 8B10     		movl	(%eax), %edx
 1942              	.LBE466:
 1943              	.LBE465:
 1944              		.loc 1 712 12 view .LVU725
 1945 0032 83EC0C   		subl	$12, %esp
 1946              		.cfi_def_cfa_offset 28
 1947              	.LBB468:
 1948              	.LBB467:
 1949              		.loc 2 270 12 view .LVU726
 1950 0035 895638   		movl	%edx, 56(%esi)
 1951              		.loc 2 272 3 is_stmt 1 view .LVU727
 1952              	.LVL82:
 1953              		.loc 2 272 3 is_stmt 0 view .LVU728
 1954              	.LBE467:
 1955              	.LBE468:
 1956              		.loc 1 712 12 view .LVU729
 1957 0038 50       		pushl	%eax
 1958              		.cfi_def_cfa_offset 32
 1959 0039 E8FCFFFF 		call	chSchReadyI@PLT
 1959      FF
 1960              	.LVL83:
 1961              		.loc 1 711 10 is_stmt 1 view .LVU730
 1962              	.LBB469:
 1963              		.loc 2 239 20 view .LVU731
 1964              	.LBB463:
 1965              		.loc 2 241 3 view .LVU732
 1966              		.loc 2 241 19 is_stmt 0 view .LVU733
 1967 003e 8B4638   		movl	56(%esi), %eax
 1968              	.LVL84:
 1969              		.loc 2 241 19 view .LVU734
 1970              	.LBE463:
 1971              	.LBE469:
 1972              		.loc 1 711 10 view .LVU735
 1973 0041 83C410   		addl	$16, %esp
 1974              		.cfi_def_cfa_offset 16
 1975 0044 39F8     		cmpl	%edi, %eax
 1976 0046 75E8     		jne	.L45
 1977              	.L44:
 1978              		.loc 1 717 3 is_stmt 1 view .LVU736
 1979              		.loc 1 717 6 is_stmt 0 view .LVU737
 1980 0048 807E1E00 		cmpb	$0, 30(%esi)
 1981 004c 7507     		jne	.L46
 1982              		.loc 1 721 5 is_stmt 1 view .LVU738
 1983              		.loc 1 721 8 is_stmt 0 view .LVU739
 1984 004e 8B462C   		movl	44(%esi), %eax
 1985 0051 85C0     		testl	%eax, %eax
 1986 0053 741B     		je	.L49
 1987              	.L46:
 1988              		.loc 1 731 3 is_stmt 1 view .LVU740
 1989 0055 83EC0C   		subl	$12, %esp
 1990              		.cfi_def_cfa_offset 28
 1991 0058 6A0F     		pushl	$15
 1992              		.cfi_def_cfa_offset 32
 1993 005a E8FCFFFF 		call	chSchGoSleepS@PLT
 1993      FF
 1994              	.LVL85:
 1995              		.loc 1 734 3 view .LVU741
GAS LISTING /tmp/cctFPqVW.s 			page 38


 1996              		.loc 1 734 3 view .LVU742
 1997              		.loc 1 734 3 view .LVU743
 1998              		.loc 1 735 1 is_stmt 0 view .LVU744
 1999 005f 83C410   		addl	$16, %esp
 2000              		.cfi_def_cfa_offset 16
 2001 0062 5B       		popl	%ebx
 2002              		.cfi_remember_state
 2003              		.cfi_restore 3
 2004              		.cfi_def_cfa_offset 12
 2005 0063 5E       		popl	%esi
 2006              		.cfi_restore 6
 2007              		.cfi_def_cfa_offset 8
 2008              	.LVL86:
 2009              		.loc 1 735 1 view .LVU745
 2010 0064 5F       		popl	%edi
 2011              		.cfi_restore 7
 2012              		.cfi_def_cfa_offset 4
 2013              	.LVL87:
 2014              		.loc 1 735 1 view .LVU746
 2015 0065 C3       		ret
 2016              	.LVL88:
 2017 0066 8DB42600 		.p2align 4,,10
 2017      0000008D 
 2017      7600
 2018              		.p2align 3
 2019              	.L49:
 2020              		.cfi_restore_state
 2021              		.loc 1 722 7 is_stmt 1 view .LVU747
 2022              	.LBB470:
 2023              	.LBI470:
 2024              		.loc 2 378 27 view .LVU748
 2025              	.LBB471:
 2026              		.loc 2 380 3 view .LVU749
 2027              		.loc 2 380 4 is_stmt 0 view .LVU750
 2028 0070 8B5628   		movl	40(%esi), %edx
 2029              		.loc 2 380 20 view .LVU751
 2030 0073 8B4624   		movl	36(%esi), %eax
 2031              		.loc 2 380 17 view .LVU752
 2032 0076 8902     		movl	%eax, (%edx)
 2033              		.loc 2 381 3 is_stmt 1 view .LVU753
 2034              		.loc 2 381 17 is_stmt 0 view .LVU754
 2035 0078 895004   		movl	%edx, 4(%eax)
 2036              		.loc 2 383 3 is_stmt 1 view .LVU755
 2037              		.loc 2 383 10 is_stmt 0 view .LVU756
 2038 007b EBD8     		jmp	.L46
 2039              	.LBE471:
 2040              	.LBE470:
 2041              		.cfi_endproc
 2042              	.LFE230:
 2043              		.size	chThdExitS, .-chThdExitS
 2044              		.section	.text.chThdExit,"ax",@progbits
 2045              		.p2align 4
 2046              		.globl	chThdExit
 2047              		.type	chThdExit, @function
 2048              	chThdExit:
 2049              	.LVL89:
 2050              	.LFB229:
GAS LISTING /tmp/cctFPqVW.s 			page 39


 2051              		.loc 1 676 27 is_stmt 1 view -0
 2052              		.cfi_startproc
 2053              		.loc 1 678 3 view .LVU758
 2054              	.LBB472:
 2055              	.LBI472:
 2056              		.loc 3 407 20 view .LVU759
 2057              		.loc 3 409 3 view .LVU760
 2058              	.LBB473:
 2059              	.LBI473:
 2060              		.loc 4 361 20 view .LVU761
 2061              	.LBB474:
 2062              		.loc 4 363 3 view .LVU762
 2063 0000 E8FCFFFF 		call	__x86.get_pc_thunk.ax
 2063      FF
 2064 0005 05010000 		addl	$_GLOBAL_OFFSET_TABLE_, %eax
 2064      00
 2065              		.loc 4 363 16 is_stmt 0 view .LVU763
 2066 000a 8B800000 		movl	port_irq_sts@GOT(%eax), %eax
 2066      0000
 2067 0010 C7000100 		movl	$1, (%eax)
 2067      0000
 2068              	.LBE474:
 2069              	.LBE473:
 2070              		.loc 3 410 35 is_stmt 1 view .LVU764
 2071              		.loc 3 411 21 view .LVU765
 2072              	.LBE472:
 2073              		.loc 1 679 3 view .LVU766
 2074 0016 E9FCFFFF 		jmp	chThdExitS
 2074      FF
 2075              	.LVL90:
 2076              		.cfi_endproc
 2077              	.LFE229:
 2078              		.size	chThdExit, .-chThdExit
 2079              		.section	.text.chThdWait,"ax",@progbits
 2080              		.p2align 4
 2081              		.globl	chThdWait
 2082              		.type	chThdWait, @function
 2083              	chThdWait:
 2084              	.LVL91:
 2085              	.LFB231:
 2086              		.loc 1 757 31 view -0
 2087              		.cfi_startproc
 2088              		.loc 1 758 3 view .LVU768
 2089              	.LBB507:
 2090              	.LBI507:
 2091              		.loc 5 527 25 view .LVU769
 2092              	.LBB508:
 2093              		.loc 5 529 3 view .LVU770
 2094              	.LBE508:
 2095              	.LBE507:
 2096              		.loc 1 757 31 is_stmt 0 view .LVU771
 2097 0000 57       		pushl	%edi
 2098              		.cfi_def_cfa_offset 8
 2099              		.cfi_offset 7, -8
 2100 0001 56       		pushl	%esi
 2101              		.cfi_def_cfa_offset 12
 2102              		.cfi_offset 6, -12
GAS LISTING /tmp/cctFPqVW.s 			page 40


 2103 0002 53       		pushl	%ebx
 2104              		.cfi_def_cfa_offset 16
 2105              		.cfi_offset 3, -16
 2106              		.loc 1 757 31 view .LVU772
 2107 0003 8B742410 		movl	16(%esp), %esi
 2108 0007 E8FCFFFF 		call	__x86.get_pc_thunk.bx
 2108      FF
 2109 000c 81C30200 		addl	$_GLOBAL_OFFSET_TABLE_, %ebx
 2109      0000
 2110              		.loc 1 769 6 view .LVU773
 2111 0012 807E1C0F 		cmpb	$15, 28(%esi)
 2112              	.LBB511:
 2113              	.LBB509:
 2114              		.loc 5 529 10 view .LVU774
 2115 0016 8B830000 		movl	ch0@GOT(%ebx), %eax
 2115      0000
 2116              	.LBE509:
 2117              	.LBE511:
 2118              	.LBB512:
 2119              	.LBB513:
 2120              	.LBB514:
 2121              		.loc 4 363 16 view .LVU775
 2122 001c 8BBB0000 		movl	port_irq_sts@GOT(%ebx), %edi
 2122      0000
 2123              	.LBE514:
 2124              	.LBE513:
 2125              	.LBE512:
 2126              	.LBB517:
 2127              	.LBB510:
 2128              		.loc 5 529 10 view .LVU776
 2129 0022 8B400C   		movl	12(%eax), %eax
 2130              	.LVL92:
 2131              		.loc 5 529 10 view .LVU777
 2132              	.LBE510:
 2133              	.LBE517:
 2134              		.loc 1 759 3 is_stmt 1 view .LVU778
 2135              		.loc 1 761 3 view .LVU779
 2136              		.loc 1 761 3 view .LVU780
 2137              		.loc 1 761 3 view .LVU781
 2138              		.loc 1 763 3 view .LVU782
 2139              	.LBB518:
 2140              	.LBI512:
 2141              		.loc 3 407 20 view .LVU783
 2142              		.loc 3 409 3 view .LVU784
 2143              	.LBB516:
 2144              	.LBI513:
 2145              		.loc 4 361 20 view .LVU785
 2146              	.LBB515:
 2147              		.loc 4 363 3 view .LVU786
 2148              		.loc 4 363 16 is_stmt 0 view .LVU787
 2149 0025 C7070100 		movl	$1, (%edi)
 2149      0000
 2150              	.LBE515:
 2151              	.LBE516:
 2152              		.loc 3 410 35 is_stmt 1 view .LVU788
 2153              		.loc 3 411 21 view .LVU789
 2154              	.LBE518:
GAS LISTING /tmp/cctFPqVW.s 			page 41


 2155              		.loc 1 764 3 view .LVU790
 2156              		.loc 1 764 3 view .LVU791
 2157              		.loc 1 764 3 view .LVU792
 2158              		.loc 1 766 3 view .LVU793
 2159              		.loc 1 766 3 view .LVU794
 2160              		.loc 1 766 3 view .LVU795
 2161              		.loc 1 769 3 view .LVU796
 2162              		.loc 1 769 6 is_stmt 0 view .LVU797
 2163 002b 7415     		je	.L52
 2164              		.loc 1 770 5 is_stmt 1 view .LVU798
 2165              	.LVL93:
 2166              	.LBB519:
 2167              	.LBI519:
 2168              		.loc 2 252 20 view .LVU799
 2169              	.LBB520:
 2170              		.loc 2 254 3 view .LVU800
 2171              		.loc 2 254 15 is_stmt 0 view .LVU801
 2172 002d 8B5638   		movl	56(%esi), %edx
 2173              	.LBE520:
 2174              	.LBE519:
 2175              		.loc 1 771 5 view .LVU802
 2176 0030 83EC0C   		subl	$12, %esp
 2177              		.cfi_def_cfa_offset 28
 2178              	.LBB522:
 2179              	.LBB521:
 2180              		.loc 2 254 11 view .LVU803
 2181 0033 8910     		movl	%edx, (%eax)
 2182              		.loc 2 255 3 is_stmt 1 view .LVU804
 2183              		.loc 2 255 12 is_stmt 0 view .LVU805
 2184 0035 894638   		movl	%eax, 56(%esi)
 2185              	.LVL94:
 2186              		.loc 2 255 12 view .LVU806
 2187              	.LBE521:
 2188              	.LBE522:
 2189              		.loc 1 771 5 is_stmt 1 view .LVU807
 2190 0038 6A09     		pushl	$9
 2191              		.cfi_def_cfa_offset 32
 2192 003a E8FCFFFF 		call	chSchGoSleepS@PLT
 2192      FF
 2193              	.LVL95:
 2194              		.loc 1 771 5 is_stmt 0 view .LVU808
 2195 003f 83C410   		addl	$16, %esp
 2196              		.cfi_def_cfa_offset 16
 2197              	.L52:
 2198              		.loc 1 773 3 is_stmt 1 view .LVU809
 2199              	.LBB523:
 2200              	.LBB524:
 2201              		.loc 1 638 11 is_stmt 0 view .LVU810
 2202 0042 806E1E01 		subb	$1, 30(%esi)
 2203              		.loc 1 643 32 view .LVU811
 2204 0046 8B461C   		movl	28(%esi), %eax
 2205              	.LBE524:
 2206              	.LBE523:
 2207              	.LBB542:
 2208              	.LBB543:
 2209              	.LBB544:
 2210              	.LBB545:
GAS LISTING /tmp/cctFPqVW.s 			page 42


 2211              		.loc 4 372 16 view .LVU812
 2212 0049 C7070000 		movl	$0, (%edi)
 2212      0000
 2213              	.LBE545:
 2214              	.LBE544:
 2215              	.LBE543:
 2216              	.LBE542:
 2217              		.loc 1 773 7 view .LVU813
 2218 004f 8B5E34   		movl	52(%esi), %ebx
 2219              	.LVL96:
 2220              		.loc 1 774 3 is_stmt 1 view .LVU814
 2221              	.LBB549:
 2222              	.LBI542:
 2223              		.loc 3 421 20 view .LVU815
 2224              	.LBB548:
 2225              		.loc 3 423 23 view .LVU816
 2226              		.loc 3 424 34 view .LVU817
 2227              		.loc 3 430 3 view .LVU818
 2228              		.loc 3 430 3 view .LVU819
 2229              		.loc 3 430 3 view .LVU820
 2230              		.loc 3 434 3 view .LVU821
 2231              	.LBB547:
 2232              	.LBI544:
 2233              		.loc 4 370 20 view .LVU822
 2234              	.LBB546:
 2235              		.loc 4 372 3 view .LVU823
 2236              	.LBE546:
 2237              	.LBE547:
 2238              	.LBE548:
 2239              	.LBE549:
 2240              		.loc 1 778 3 view .LVU824
 2241              	.LBB550:
 2242              	.LBI523:
 2243              		.loc 1 634 6 view .LVU825
 2244              	.LBB539:
 2245              		.loc 1 636 3 view .LVU826
 2246              		.loc 1 637 3 view .LVU827
 2247              		.loc 1 637 3 view .LVU828
 2248              		.loc 1 637 3 view .LVU829
 2249              		.loc 1 638 3 view .LVU830
 2250              		.loc 1 643 3 view .LVU831
 2251              		.loc 1 643 32 is_stmt 0 view .LVU832
 2252 0052 25FF00FF 		andl	$16711935, %eax
 2252      00
 2253              		.loc 1 643 6 view .LVU833
 2254 0057 83F80F   		cmpl	$15, %eax
 2255 005a 740C     		je	.L60
 2256              	.L51:
 2257              		.loc 1 643 6 view .LVU834
 2258              	.LBE539:
 2259              	.LBE550:
 2260              		.loc 1 782 1 view .LVU835
 2261 005c 89D8     		movl	%ebx, %eax
 2262 005e 5B       		popl	%ebx
 2263              		.cfi_remember_state
 2264              		.cfi_restore 3
 2265              		.cfi_def_cfa_offset 12
GAS LISTING /tmp/cctFPqVW.s 			page 43


 2266              	.LVL97:
 2267              		.loc 1 782 1 view .LVU836
 2268 005f 5E       		popl	%esi
 2269              		.cfi_restore 6
 2270              		.cfi_def_cfa_offset 8
 2271 0060 5F       		popl	%edi
 2272              		.cfi_restore 7
 2273              		.cfi_def_cfa_offset 4
 2274 0061 C3       		ret
 2275              	.LVL98:
 2276              		.p2align 4,,10
 2277 0062 8DB60000 		.p2align 3
 2277      0000
 2278              	.L60:
 2279              		.cfi_restore_state
 2280              	.LBB551:
 2281              	.LBB540:
 2282              	.LBB525:
 2283              	.LBI525:
 2284              		.loc 1 634 6 is_stmt 1 view .LVU837
 2285              	.LBB526:
 2286              		.loc 1 646 5 view .LVU838
 2287              	.LBB527:
 2288              	.LBI527:
 2289              		.loc 2 378 27 view .LVU839
 2290              	.LBB528:
 2291              		.loc 2 380 3 view .LVU840
 2292              		.loc 2 380 20 is_stmt 0 view .LVU841
 2293 0068 8B4624   		movl	36(%esi), %eax
 2294              		.loc 2 380 4 view .LVU842
 2295 006b 8B5628   		movl	40(%esi), %edx
 2296              		.loc 2 380 17 view .LVU843
 2297 006e 8902     		movl	%eax, (%edx)
 2298              		.loc 2 381 3 is_stmt 1 view .LVU844
 2299              		.loc 2 381 17 is_stmt 0 view .LVU845
 2300 0070 895004   		movl	%edx, 4(%eax)
 2301              		.loc 2 383 3 is_stmt 1 view .LVU846
 2302              	.LVL99:
 2303              		.loc 2 383 3 is_stmt 0 view .LVU847
 2304              	.LBE528:
 2305              	.LBE527:
 2306              		.loc 1 647 5 is_stmt 1 view .LVU848
 2307              	.LBB529:
 2308              	.LBI529:
 2309              		.loc 3 421 20 view .LVU849
 2310              	.LBB530:
 2311              		.loc 3 423 23 view .LVU850
 2312              		.loc 3 424 34 view .LVU851
 2313              		.loc 3 430 3 view .LVU852
 2314              		.loc 3 430 3 view .LVU853
 2315              		.loc 3 430 3 view .LVU854
 2316              		.loc 3 434 3 view .LVU855
 2317              	.LBB531:
 2318              	.LBI531:
 2319              		.loc 4 370 20 view .LVU856
 2320              	.LBB532:
 2321              		.loc 4 372 3 view .LVU857
GAS LISTING /tmp/cctFPqVW.s 			page 44


 2322              	.LBE532:
 2323              	.LBE531:
 2324              	.LBE530:
 2325              	.LBE529:
 2326              		.loc 1 651 11 is_stmt 0 view .LVU858
 2327 0073 8B462C   		movl	44(%esi), %eax
 2328              	.LBB536:
 2329              	.LBB535:
 2330              	.LBB534:
 2331              	.LBB533:
 2332              		.loc 4 372 16 view .LVU859
 2333 0076 C7070000 		movl	$0, (%edi)
 2333      0000
 2334              	.LBE533:
 2335              	.LBE534:
 2336              	.LBE535:
 2337              	.LBE536:
 2338              		.loc 1 651 5 is_stmt 1 view .LVU860
 2339              		.loc 1 651 8 is_stmt 0 view .LVU861
 2340 007c 85C0     		testl	%eax, %eax
 2341 007e 74DC     		je	.L51
 2342              		.loc 1 652 7 is_stmt 1 view .LVU862
 2343 0080 83EC0C   		subl	$12, %esp
 2344              		.cfi_def_cfa_offset 28
 2345 0083 56       		pushl	%esi
 2346              		.cfi_def_cfa_offset 32
 2347 0084 FFD0     		call	*%eax
 2348              	.LVL100:
 2349              	.LBE526:
 2350              	.LBE525:
 2351              	.LBE540:
 2352              	.LBE551:
 2353              		.loc 1 782 1 is_stmt 0 view .LVU863
 2354 0086 89D8     		movl	%ebx, %eax
 2355              	.LBB552:
 2356              	.LBB541:
 2357              	.LBB538:
 2358              	.LBB537:
 2359              		.loc 1 652 7 view .LVU864
 2360 0088 83C410   		addl	$16, %esp
 2361              		.cfi_def_cfa_offset 16
 2362              	.LVL101:
 2363              		.loc 1 652 7 view .LVU865
 2364              	.LBE537:
 2365              	.LBE538:
 2366              	.LBE541:
 2367              	.LBE552:
 2368              		.loc 1 781 3 is_stmt 1 view .LVU866
 2369              		.loc 1 782 1 is_stmt 0 view .LVU867
 2370 008b 5B       		popl	%ebx
 2371              		.cfi_restore 3
 2372              		.cfi_def_cfa_offset 12
 2373              	.LVL102:
 2374              		.loc 1 782 1 view .LVU868
 2375 008c 5E       		popl	%esi
 2376              		.cfi_restore 6
 2377              		.cfi_def_cfa_offset 8
GAS LISTING /tmp/cctFPqVW.s 			page 45


 2378 008d 5F       		popl	%edi
 2379              		.cfi_restore 7
 2380              		.cfi_def_cfa_offset 4
 2381 008e C3       		ret
 2382              		.cfi_endproc
 2383              	.LFE231:
 2384              		.size	chThdWait, .-chThdWait
 2385              		.section	.text.chThdSetPriority,"ax",@progbits
 2386              		.p2align 4
 2387              		.globl	chThdSetPriority
 2388              		.type	chThdSetPriority, @function
 2389              	chThdSetPriority:
 2390              	.LVL103:
 2391              	.LFB232:
 2392              		.loc 1 797 43 is_stmt 1 view -0
 2393              		.cfi_startproc
 2394              		.loc 1 798 3 view .LVU870
 2395              	.LBB553:
 2396              	.LBI553:
 2397              		.loc 5 527 25 view .LVU871
 2398              	.LBB554:
 2399              		.loc 5 529 3 view .LVU872
 2400              	.LBE554:
 2401              	.LBE553:
 2402              		.loc 1 797 43 is_stmt 0 view .LVU873
 2403 0000 57       		pushl	%edi
 2404              		.cfi_def_cfa_offset 8
 2405              		.cfi_offset 7, -8
 2406 0001 56       		pushl	%esi
 2407              		.cfi_def_cfa_offset 12
 2408              		.cfi_offset 6, -12
 2409 0002 53       		pushl	%ebx
 2410              		.cfi_def_cfa_offset 16
 2411              		.cfi_offset 3, -16
 2412              		.loc 1 797 43 view .LVU874
 2413 0003 8B542410 		movl	16(%esp), %edx
 2414 0007 E8FCFFFF 		call	__x86.get_pc_thunk.bx
 2414      FF
 2415 000c 81C30200 		addl	$_GLOBAL_OFFSET_TABLE_, %ebx
 2415      0000
 2416              	.LBB557:
 2417              	.LBB555:
 2418              		.loc 5 529 10 view .LVU875
 2419 0012 8B830000 		movl	ch0@GOT(%ebx), %eax
 2419      0000
 2420              	.LBE555:
 2421              	.LBE557:
 2422              	.LBB558:
 2423              	.LBB559:
 2424              	.LBB560:
 2425              		.loc 4 363 16 view .LVU876
 2426 0018 8BB30000 		movl	port_irq_sts@GOT(%ebx), %esi
 2426      0000
 2427              	.LBE560:
 2428              	.LBE559:
 2429              	.LBE558:
 2430              	.LBB563:
GAS LISTING /tmp/cctFPqVW.s 			page 46


 2431              	.LBB556:
 2432              		.loc 5 529 10 view .LVU877
 2433 001e 8B400C   		movl	12(%eax), %eax
 2434              	.LVL104:
 2435              		.loc 5 529 10 view .LVU878
 2436              	.LBE556:
 2437              	.LBE563:
 2438              		.loc 1 799 3 is_stmt 1 view .LVU879
 2439              		.loc 1 801 3 view .LVU880
 2440              		.loc 1 801 3 view .LVU881
 2441              		.loc 1 801 3 view .LVU882
 2442              		.loc 1 803 3 view .LVU883
 2443              	.LBB564:
 2444              	.LBI558:
 2445              		.loc 3 407 20 view .LVU884
 2446              		.loc 3 409 3 view .LVU885
 2447              	.LBB562:
 2448              	.LBI559:
 2449              		.loc 4 361 20 view .LVU886
 2450              	.LBB561:
 2451              		.loc 4 363 3 view .LVU887
 2452              		.loc 4 363 16 is_stmt 0 view .LVU888
 2453 0021 C7060100 		movl	$1, (%esi)
 2453      0000
 2454              	.LBE561:
 2455              	.LBE562:
 2456              		.loc 3 410 35 is_stmt 1 view .LVU889
 2457              		.loc 3 411 21 view .LVU890
 2458              	.LBE564:
 2459              		.loc 1 805 3 view .LVU891
 2460              		.loc 1 806 26 is_stmt 0 view .LVU892
 2461 0027 8B4808   		movl	8(%eax), %ecx
 2462              		.loc 1 805 11 view .LVU893
 2463 002a 8B784C   		movl	76(%eax), %edi
 2464              	.LVL105:
 2465              		.loc 1 806 3 is_stmt 1 view .LVU894
 2466              		.loc 1 806 53 is_stmt 0 view .LVU895
 2467 002d 39D1     		cmpl	%edx, %ecx
 2468 002f 7204     		jb	.L64
 2469 0031 39F9     		cmpl	%edi, %ecx
 2470 0033 7503     		jne	.L62
 2471              	.L64:
 2472              		.loc 1 808 5 is_stmt 1 view .LVU896
 2473              		.loc 1 808 29 is_stmt 0 view .LVU897
 2474 0035 895008   		movl	%edx, 8(%eax)
 2475              	.LVL106:
 2476              	.L62:
 2477              		.loc 1 810 3 is_stmt 1 view .LVU898
 2478              		.loc 1 810 20 is_stmt 0 view .LVU899
 2479 0038 89504C   		movl	%edx, 76(%eax)
 2480              		.loc 1 815 3 is_stmt 1 view .LVU900
 2481 003b E8FCFFFF 		call	chSchRescheduleS@PLT
 2481      FF
 2482              	.LVL107:
 2483              		.loc 1 816 3 view .LVU901
 2484              	.LBB565:
 2485              	.LBI565:
GAS LISTING /tmp/cctFPqVW.s 			page 47


 2486              		.loc 3 421 20 view .LVU902
 2487              	.LBB566:
 2488              		.loc 3 423 23 view .LVU903
 2489              		.loc 3 424 34 view .LVU904
 2490              		.loc 3 430 3 view .LVU905
 2491              		.loc 3 430 3 view .LVU906
 2492              		.loc 3 430 3 view .LVU907
 2493              		.loc 3 434 3 view .LVU908
 2494              	.LBB567:
 2495              	.LBI567:
 2496              		.loc 4 370 20 view .LVU909
 2497              	.LBB568:
 2498              		.loc 4 372 3 view .LVU910
 2499              	.LBE568:
 2500              	.LBE567:
 2501              	.LBE566:
 2502              	.LBE565:
 2503              		.loc 1 819 1 is_stmt 0 view .LVU911
 2504 0040 89F8     		movl	%edi, %eax
 2505 0042 5B       		popl	%ebx
 2506              		.cfi_restore 3
 2507              		.cfi_def_cfa_offset 12
 2508              	.LBB572:
 2509              	.LBB571:
 2510              	.LBB570:
 2511              	.LBB569:
 2512              		.loc 4 372 16 view .LVU912
 2513 0043 C7060000 		movl	$0, (%esi)
 2513      0000
 2514              	.LBE569:
 2515              	.LBE570:
 2516              	.LBE571:
 2517              	.LBE572:
 2518              		.loc 1 818 3 is_stmt 1 view .LVU913
 2519              		.loc 1 819 1 is_stmt 0 view .LVU914
 2520 0049 5E       		popl	%esi
 2521              		.cfi_restore 6
 2522              		.cfi_def_cfa_offset 8
 2523 004a 5F       		popl	%edi
 2524              		.cfi_restore 7
 2525              		.cfi_def_cfa_offset 4
 2526              	.LVL108:
 2527              		.loc 1 819 1 view .LVU915
 2528 004b C3       		ret
 2529              		.cfi_endproc
 2530              	.LFE232:
 2531              		.size	chThdSetPriority, .-chThdSetPriority
 2532              		.section	.text.chThdTerminate,"ax",@progbits
 2533              		.p2align 4
 2534              		.globl	chThdTerminate
 2535              		.type	chThdTerminate, @function
 2536              	chThdTerminate:
 2537              	.LVL109:
 2538              	.LFB233:
 2539              		.loc 1 833 35 is_stmt 1 view -0
 2540              		.cfi_startproc
 2541              		.loc 1 835 3 view .LVU917
GAS LISTING /tmp/cctFPqVW.s 			page 48


 2542              		.loc 1 836 3 view .LVU918
 2543 0000 E8FCFFFF 		call	__x86.get_pc_thunk.dx
 2543      FF
 2544 0005 81C20200 		addl	$_GLOBAL_OFFSET_TABLE_, %edx
 2544      0000
 2545              		.loc 1 833 35 is_stmt 0 view .LVU919
 2546 000b 8B442404 		movl	4(%esp), %eax
 2547              		.loc 1 836 13 view .LVU920
 2548 000f 80481D80 		orb	$-128, 29(%eax)
 2549              		.loc 1 837 3 is_stmt 1 view .LVU921
 2550              	.LBB573:
 2551              	.LBI573:
 2552              		.loc 3 421 20 view .LVU922
 2553              	.LBB574:
 2554              		.loc 3 423 23 view .LVU923
 2555              		.loc 3 424 34 view .LVU924
 2556              		.loc 3 430 3 view .LVU925
 2557              		.loc 3 430 3 view .LVU926
 2558              		.loc 3 430 3 view .LVU927
 2559              		.loc 3 434 3 view .LVU928
 2560              	.LBB575:
 2561              	.LBI575:
 2562              		.loc 4 370 20 view .LVU929
 2563              	.LBB576:
 2564              		.loc 4 372 3 view .LVU930
 2565              		.loc 4 372 16 is_stmt 0 view .LVU931
 2566 0013 8B820000 		movl	port_irq_sts@GOT(%edx), %eax
 2566      0000
 2567 0019 C7000000 		movl	$0, (%eax)
 2567      0000
 2568              	.LBE576:
 2569              	.LBE575:
 2570              	.LBE574:
 2571              	.LBE573:
 2572              		.loc 1 838 1 view .LVU932
 2573 001f C3       		ret
 2574              		.cfi_endproc
 2575              	.LFE233:
 2576              		.size	chThdTerminate, .-chThdTerminate
 2577              		.section	.text.chThdSleep,"ax",@progbits
 2578              		.p2align 4
 2579              		.globl	chThdSleep
 2580              		.type	chThdSleep, @function
 2581              	chThdSleep:
 2582              	.LVL110:
 2583              	.LFB234:
 2584              		.loc 1 851 37 is_stmt 1 view -0
 2585              		.cfi_startproc
 2586              		.loc 1 853 3 view .LVU934
 2587              	.LBB577:
 2588              	.LBI577:
 2589              		.loc 3 407 20 view .LVU935
 2590              		.loc 3 409 3 view .LVU936
 2591              	.LBB578:
 2592              	.LBI578:
 2593              		.loc 4 361 20 view .LVU937
 2594              	.LBB579:
GAS LISTING /tmp/cctFPqVW.s 			page 49


 2595              		.loc 4 363 3 view .LVU938
 2596              	.LBE579:
 2597              	.LBE578:
 2598              	.LBE577:
 2599              		.loc 1 851 37 is_stmt 0 view .LVU939
 2600 0000 56       		pushl	%esi
 2601              		.cfi_def_cfa_offset 8
 2602              		.cfi_offset 6, -8
 2603 0001 53       		pushl	%ebx
 2604              		.cfi_def_cfa_offset 12
 2605              		.cfi_offset 3, -12
 2606 0002 E8FCFFFF 		call	__x86.get_pc_thunk.bx
 2606      FF
 2607 0007 81C30200 		addl	$_GLOBAL_OFFSET_TABLE_, %ebx
 2607      0000
 2608 000d 83EC0C   		subl	$12, %esp
 2609              		.cfi_def_cfa_offset 24
 2610              	.LBB582:
 2611              	.LBB583:
 2612              		.loc 5 633 10 view .LVU940
 2613 0010 FF742418 		pushl	24(%esp)
 2614              		.cfi_def_cfa_offset 28
 2615 0014 6A08     		pushl	$8
 2616              		.cfi_def_cfa_offset 32
 2617              	.LBE583:
 2618              	.LBE582:
 2619              	.LBB585:
 2620              	.LBB581:
 2621              	.LBB580:
 2622              		.loc 4 363 16 view .LVU941
 2623 0016 8BB30000 		movl	port_irq_sts@GOT(%ebx), %esi
 2623      0000
 2624 001c C7060100 		movl	$1, (%esi)
 2624      0000
 2625              	.LBE580:
 2626              	.LBE581:
 2627              		.loc 3 410 35 is_stmt 1 view .LVU942
 2628              		.loc 3 411 21 view .LVU943
 2629              	.LBE585:
 2630              		.loc 1 854 3 view .LVU944
 2631              	.LBB586:
 2632              	.LBI582:
 2633              		.loc 5 629 20 view .LVU945
 2634              	.LBB584:
 2635              		.loc 5 631 3 view .LVU946
 2636              		.loc 5 631 3 view .LVU947
 2637              		.loc 5 631 3 view .LVU948
 2638              		.loc 5 633 3 view .LVU949
 2639              		.loc 5 633 10 is_stmt 0 view .LVU950
 2640 0022 E8FCFFFF 		call	chSchGoSleepTimeoutS@PLT
 2640      FF
 2641              	.LVL111:
 2642              	.LBE584:
 2643              	.LBE586:
 2644              		.loc 1 855 3 is_stmt 1 view .LVU951
 2645              	.LBB587:
 2646              	.LBI587:
GAS LISTING /tmp/cctFPqVW.s 			page 50


 2647              		.loc 3 421 20 view .LVU952
 2648              	.LBB588:
 2649              		.loc 3 423 23 view .LVU953
 2650              		.loc 3 424 34 view .LVU954
 2651              		.loc 3 430 3 view .LVU955
 2652              		.loc 3 430 3 view .LVU956
 2653              		.loc 3 430 3 view .LVU957
 2654              		.loc 3 434 3 view .LVU958
 2655              	.LBB589:
 2656              	.LBI589:
 2657              		.loc 4 370 20 view .LVU959
 2658              	.LBB590:
 2659              		.loc 4 372 3 view .LVU960
 2660              		.loc 4 372 16 is_stmt 0 view .LVU961
 2661 0027 C7060000 		movl	$0, (%esi)
 2661      0000
 2662              	.LBE590:
 2663              	.LBE589:
 2664              	.LBE588:
 2665              	.LBE587:
 2666              		.loc 1 856 1 view .LVU962
 2667 002d 83C414   		addl	$20, %esp
 2668              		.cfi_def_cfa_offset 12
 2669 0030 5B       		popl	%ebx
 2670              		.cfi_restore 3
 2671              		.cfi_def_cfa_offset 8
 2672 0031 5E       		popl	%esi
 2673              		.cfi_restore 6
 2674              		.cfi_def_cfa_offset 4
 2675 0032 C3       		ret
 2676              		.cfi_endproc
 2677              	.LFE234:
 2678              		.size	chThdSleep, .-chThdSleep
 2679              		.section	.text.chThdSleepUntil,"ax",@progbits
 2680              		.p2align 4
 2681              		.globl	chThdSleepUntil
 2682              		.type	chThdSleepUntil, @function
 2683              	chThdSleepUntil:
 2684              	.LVL112:
 2685              	.LFB235:
 2686              		.loc 1 871 38 is_stmt 1 view -0
 2687              		.cfi_startproc
 2688              		.loc 1 872 3 view .LVU964
 2689              		.loc 1 874 3 view .LVU965
 2690              	.LBB591:
 2691              	.LBI591:
 2692              		.loc 3 407 20 view .LVU966
 2693              		.loc 3 409 3 view .LVU967
 2694              	.LBB592:
 2695              	.LBI592:
 2696              		.loc 4 361 20 view .LVU968
 2697              	.LBB593:
 2698              		.loc 4 363 3 view .LVU969
 2699              	.LBE593:
 2700              	.LBE592:
 2701              	.LBE591:
 2702              		.loc 1 871 38 is_stmt 0 view .LVU970
GAS LISTING /tmp/cctFPqVW.s 			page 51


 2703 0000 56       		pushl	%esi
 2704              		.cfi_def_cfa_offset 8
 2705              		.cfi_offset 6, -8
 2706 0001 53       		pushl	%ebx
 2707              		.cfi_def_cfa_offset 12
 2708              		.cfi_offset 3, -12
 2709 0002 E8FCFFFF 		call	__x86.get_pc_thunk.bx
 2709      FF
 2710 0007 81C30200 		addl	$_GLOBAL_OFFSET_TABLE_, %ebx
 2710      0000
 2711 000d 83EC04   		subl	$4, %esp
 2712              		.cfi_def_cfa_offset 16
 2713              	.LBB598:
 2714              	.LBB599:
 2715              		.file 6 "../../../os/rt/include/chvt.h"
 2716              		.loc 6 138 26 view .LVU971
 2717 0010 8B830000 		movl	ch0@GOT(%ebx), %eax
 2717      0000
 2718              	.LBE599:
 2719              	.LBE598:
 2720              	.LBB602:
 2721              	.LBB596:
 2722              	.LBB594:
 2723              		.loc 4 363 16 view .LVU972
 2724 0016 8BB30000 		movl	port_irq_sts@GOT(%ebx), %esi
 2724      0000
 2725              	.LBE594:
 2726              	.LBE596:
 2727              	.LBE602:
 2728              	.LBB603:
 2729              	.LBB600:
 2730              		.loc 6 138 26 view .LVU973
 2731 001c 8B501C   		movl	28(%eax), %edx
 2732              	.LBE600:
 2733              	.LBE603:
 2734              		.loc 1 876 6 view .LVU974
 2735 001f 8B442410 		movl	16(%esp), %eax
 2736              	.LBB604:
 2737              	.LBB597:
 2738              	.LBB595:
 2739              		.loc 4 363 16 view .LVU975
 2740 0023 C7060100 		movl	$1, (%esi)
 2740      0000
 2741              	.LBE595:
 2742              	.LBE597:
 2743              		.loc 3 410 35 is_stmt 1 view .LVU976
 2744              		.loc 3 411 21 view .LVU977
 2745              	.LBE604:
 2746              		.loc 1 875 3 view .LVU978
 2747              	.LBB605:
 2748              	.LBI598:
 2749              		.loc 6 135 25 view .LVU979
 2750              	.LBB601:
 2751              		.loc 6 138 3 view .LVU980
 2752              	.LVL113:
 2753              		.loc 6 138 3 is_stmt 0 view .LVU981
 2754              	.LBE601:
GAS LISTING /tmp/cctFPqVW.s 			page 52


 2755              	.LBE605:
 2756              	.LBB606:
 2757              	.LBI606:
 2758              		.file 7 "../../../os/rt/include/chtime.h"
 2759              		.loc 7 461 29 is_stmt 1 view .LVU982
 2760              	.LBB607:
 2761              		.loc 7 465 3 view .LVU983
 2762              		.loc 7 465 3 is_stmt 0 view .LVU984
 2763              	.LBE607:
 2764              	.LBE606:
 2765              		.loc 1 876 3 is_stmt 1 view .LVU985
 2766              		.loc 1 876 6 is_stmt 0 view .LVU986
 2767 0029 29D0     		subl	%edx, %eax
 2768              	.LVL114:
 2769              		.loc 1 876 6 view .LVU987
 2770 002b 7513     		jne	.L78
 2771              		.loc 1 879 3 is_stmt 1 view .LVU988
 2772              	.LBB608:
 2773              	.LBI608:
 2774              		.loc 3 421 20 view .LVU989
 2775              	.LBB609:
 2776              		.loc 3 423 23 view .LVU990
 2777              		.loc 3 424 34 view .LVU991
 2778              		.loc 3 430 3 view .LVU992
 2779              		.loc 3 430 3 view .LVU993
 2780              		.loc 3 430 3 view .LVU994
 2781              		.loc 3 434 3 view .LVU995
 2782              	.LBB610:
 2783              	.LBI610:
 2784              		.loc 4 370 20 view .LVU996
 2785              	.LBB611:
 2786              		.loc 4 372 3 view .LVU997
 2787              		.loc 4 372 16 is_stmt 0 view .LVU998
 2788 002d C7060000 		movl	$0, (%esi)
 2788      0000
 2789              	.LBE611:
 2790              	.LBE610:
 2791              	.LBE609:
 2792              	.LBE608:
 2793              		.loc 1 880 1 view .LVU999
 2794 0033 83C404   		addl	$4, %esp
 2795              		.cfi_remember_state
 2796              		.cfi_def_cfa_offset 12
 2797 0036 5B       		popl	%ebx
 2798              		.cfi_restore 3
 2799              		.cfi_def_cfa_offset 8
 2800 0037 5E       		popl	%esi
 2801              		.cfi_restore 6
 2802              		.cfi_def_cfa_offset 4
 2803 0038 C3       		ret
 2804 0039 8DB42600 		.p2align 4,,10
 2804      000000
 2805              		.p2align 3
 2806              	.L78:
 2807              		.cfi_restore_state
 2808              		.loc 1 877 5 is_stmt 1 view .LVU1000
 2809              	.LVL115:
GAS LISTING /tmp/cctFPqVW.s 			page 53


 2810              	.LBB615:
 2811              	.LBI615:
 2812              		.loc 5 629 20 view .LVU1001
 2813              	.LBB616:
 2814              		.loc 5 631 3 view .LVU1002
 2815              		.loc 5 631 3 view .LVU1003
 2816              		.loc 5 631 3 view .LVU1004
 2817              		.loc 5 633 3 view .LVU1005
 2818              		.loc 5 633 10 is_stmt 0 view .LVU1006
 2819 0040 83EC08   		subl	$8, %esp
 2820              		.cfi_def_cfa_offset 24
 2821 0043 50       		pushl	%eax
 2822              		.cfi_def_cfa_offset 28
 2823 0044 6A08     		pushl	$8
 2824              		.cfi_def_cfa_offset 32
 2825 0046 E8FCFFFF 		call	chSchGoSleepTimeoutS@PLT
 2825      FF
 2826              	.LVL116:
 2827              		.loc 5 634 1 view .LVU1007
 2828 004b 83C410   		addl	$16, %esp
 2829              		.cfi_def_cfa_offset 16
 2830              		.loc 5 634 1 view .LVU1008
 2831              	.LBE616:
 2832              	.LBE615:
 2833              		.loc 1 879 3 is_stmt 1 view .LVU1009
 2834              	.LBB617:
 2835              		.loc 3 421 20 view .LVU1010
 2836              	.LBB614:
 2837              		.loc 3 423 23 view .LVU1011
 2838              		.loc 3 424 34 view .LVU1012
 2839              		.loc 3 430 3 view .LVU1013
 2840              		.loc 3 430 3 view .LVU1014
 2841              		.loc 3 430 3 view .LVU1015
 2842              		.loc 3 434 3 view .LVU1016
 2843              	.LBB613:
 2844              		.loc 4 370 20 view .LVU1017
 2845              	.LBB612:
 2846              		.loc 4 372 3 view .LVU1018
 2847              		.loc 4 372 16 is_stmt 0 view .LVU1019
 2848 004e C7060000 		movl	$0, (%esi)
 2848      0000
 2849              	.LBE612:
 2850              	.LBE613:
 2851              	.LBE614:
 2852              	.LBE617:
 2853              		.loc 1 880 1 view .LVU1020
 2854 0054 83C404   		addl	$4, %esp
 2855              		.cfi_def_cfa_offset 12
 2856 0057 5B       		popl	%ebx
 2857              		.cfi_restore 3
 2858              		.cfi_def_cfa_offset 8
 2859 0058 5E       		popl	%esi
 2860              		.cfi_restore 6
 2861              		.cfi_def_cfa_offset 4
 2862 0059 C3       		ret
 2863              		.cfi_endproc
 2864              	.LFE235:
GAS LISTING /tmp/cctFPqVW.s 			page 54


 2865              		.size	chThdSleepUntil, .-chThdSleepUntil
 2866              		.section	.text.chThdSleepUntilWindowed,"ax",@progbits
 2867              		.p2align 4
 2868              		.globl	chThdSleepUntilWindowed
 2869              		.type	chThdSleepUntilWindowed, @function
 2870              	chThdSleepUntilWindowed:
 2871              	.LVL117:
 2872              	.LFB236:
 2873              		.loc 1 896 67 is_stmt 1 view -0
 2874              		.cfi_startproc
 2875              		.loc 1 897 3 view .LVU1022
 2876              		.loc 1 899 3 view .LVU1023
 2877              	.LBB618:
 2878              	.LBI618:
 2879              		.loc 3 407 20 view .LVU1024
 2880              		.loc 3 409 3 view .LVU1025
 2881              	.LBB619:
 2882              	.LBI619:
 2883              		.loc 4 361 20 view .LVU1026
 2884              	.LBB620:
 2885              		.loc 4 363 3 view .LVU1027
 2886              	.LBE620:
 2887              	.LBE619:
 2888              	.LBE618:
 2889              		.loc 1 896 67 is_stmt 0 view .LVU1028
 2890 0000 57       		pushl	%edi
 2891              		.cfi_def_cfa_offset 8
 2892              		.cfi_offset 7, -8
 2893 0001 56       		pushl	%esi
 2894              		.cfi_def_cfa_offset 12
 2895              		.cfi_offset 6, -12
 2896 0002 53       		pushl	%ebx
 2897              		.cfi_def_cfa_offset 16
 2898              		.cfi_offset 3, -16
 2899              		.loc 1 896 67 view .LVU1029
 2900 0003 8B742414 		movl	20(%esp), %esi
 2901 0007 E8FCFFFF 		call	__x86.get_pc_thunk.bx
 2901      FF
 2902 000c 81C30200 		addl	$_GLOBAL_OFFSET_TABLE_, %ebx
 2902      0000
 2903              	.LBB625:
 2904              	.LBB626:
 2905              		.loc 7 489 17 view .LVU1030
 2906 0012 89F1     		movl	%esi, %ecx
 2907 0014 2B4C2410 		subl	16(%esp), %ecx
 2908              	.LBE626:
 2909              	.LBE625:
 2910              	.LBB628:
 2911              	.LBB629:
 2912              		.loc 6 138 26 view .LVU1031
 2913 0018 8B830000 		movl	ch0@GOT(%ebx), %eax
 2913      0000
 2914              	.LBE629:
 2915              	.LBE628:
 2916              	.LBB632:
 2917              	.LBB623:
 2918              	.LBB621:
GAS LISTING /tmp/cctFPqVW.s 			page 55


 2919              		.loc 4 363 16 view .LVU1032
 2920 001e 8BBB0000 		movl	port_irq_sts@GOT(%ebx), %edi
 2920      0000
 2921              	.LBE621:
 2922              	.LBE623:
 2923              	.LBE632:
 2924              	.LBB633:
 2925              	.LBB630:
 2926              		.loc 6 138 26 view .LVU1033
 2927 0024 8B401C   		movl	28(%eax), %eax
 2928              	.LBE630:
 2929              	.LBE633:
 2930              	.LBB634:
 2931              	.LBB624:
 2932              	.LBB622:
 2933              		.loc 4 363 16 view .LVU1034
 2934 0027 C7070100 		movl	$1, (%edi)
 2934      0000
 2935              	.LBE622:
 2936              	.LBE624:
 2937              		.loc 3 410 35 is_stmt 1 view .LVU1035
 2938              		.loc 3 411 21 view .LVU1036
 2939              	.LBE634:
 2940              		.loc 1 900 3 view .LVU1037
 2941              	.LBB635:
 2942              	.LBI628:
 2943              		.loc 6 135 25 view .LVU1038
 2944              	.LBB631:
 2945              		.loc 6 138 3 view .LVU1039
 2946              	.LVL118:
 2947              		.loc 6 138 3 is_stmt 0 view .LVU1040
 2948              	.LBE631:
 2949              	.LBE635:
 2950              		.loc 1 901 3 is_stmt 1 view .LVU1041
 2951              	.LBB636:
 2952              	.LBI625:
 2953              		.loc 7 484 20 view .LVU1042
 2954              	.LBB627:
 2955              		.loc 7 488 3 view .LVU1043
 2956              		.loc 7 488 17 is_stmt 0 view .LVU1044
 2957 002d 89C2     		movl	%eax, %edx
 2958 002f 2B542410 		subl	16(%esp), %edx
 2959              	.LBE627:
 2960              	.LBE636:
 2961              		.loc 1 901 6 view .LVU1045
 2962 0033 39D1     		cmpl	%edx, %ecx
 2963 0035 7711     		ja	.L82
 2964              		.loc 1 904 3 is_stmt 1 view .LVU1046
 2965              	.LBB637:
 2966              	.LBI637:
 2967              		.loc 3 421 20 view .LVU1047
 2968              	.LBB638:
 2969              		.loc 3 423 23 view .LVU1048
 2970              		.loc 3 424 34 view .LVU1049
 2971              		.loc 3 430 3 view .LVU1050
 2972              		.loc 3 430 3 view .LVU1051
 2973              		.loc 3 430 3 view .LVU1052
GAS LISTING /tmp/cctFPqVW.s 			page 56


 2974              		.loc 3 434 3 view .LVU1053
 2975              	.LBB639:
 2976              	.LBI639:
 2977              		.loc 4 370 20 view .LVU1054
 2978              	.LBB640:
 2979              		.loc 4 372 3 view .LVU1055
 2980              	.LBE640:
 2981              	.LBE639:
 2982              	.LBE638:
 2983              	.LBE637:
 2984              		.loc 1 907 1 is_stmt 0 view .LVU1056
 2985 0037 89F0     		movl	%esi, %eax
 2986              	.LVL119:
 2987              		.loc 1 907 1 view .LVU1057
 2988 0039 5B       		popl	%ebx
 2989              		.cfi_remember_state
 2990              		.cfi_restore 3
 2991              		.cfi_def_cfa_offset 12
 2992 003a 5E       		popl	%esi
 2993              		.cfi_restore 6
 2994              		.cfi_def_cfa_offset 8
 2995              	.LBB650:
 2996              	.LBB647:
 2997              	.LBB644:
 2998              	.LBB641:
 2999              		.loc 4 372 16 view .LVU1058
 3000 003b C7070000 		movl	$0, (%edi)
 3000      0000
 3001              	.LBE641:
 3002              	.LBE644:
 3003              	.LBE647:
 3004              	.LBE650:
 3005              		.loc 1 906 3 is_stmt 1 view .LVU1059
 3006              		.loc 1 907 1 is_stmt 0 view .LVU1060
 3007 0041 5F       		popl	%edi
 3008              		.cfi_restore 7
 3009              		.cfi_def_cfa_offset 4
 3010 0042 C3       		ret
 3011              	.LVL120:
 3012              		.p2align 4,,10
 3013 0043 8D742600 		.p2align 3
 3013      90
 3014              	.L82:
 3015              		.cfi_restore_state
 3016              		.loc 1 902 5 is_stmt 1 view .LVU1061
 3017              	.LBB651:
 3018              	.LBI651:
 3019              		.loc 7 461 29 view .LVU1062
 3020              	.LBB652:
 3021              		.loc 7 465 3 view .LVU1063
 3022              		.loc 7 465 3 is_stmt 0 view .LVU1064
 3023              	.LBE652:
 3024              	.LBE651:
 3025              	.LBB655:
 3026              	.LBI655:
 3027              		.loc 5 629 20 is_stmt 1 view .LVU1065
 3028              	.LBB656:
GAS LISTING /tmp/cctFPqVW.s 			page 57


 3029              		.loc 5 631 3 view .LVU1066
 3030              		.loc 5 631 3 view .LVU1067
 3031              		.loc 5 631 3 view .LVU1068
 3032              		.loc 5 633 3 view .LVU1069
 3033              	.LBE656:
 3034              	.LBE655:
 3035              	.LBB659:
 3036              	.LBB653:
 3037              		.loc 7 465 10 is_stmt 0 view .LVU1070
 3038 0048 89F2     		movl	%esi, %edx
 3039              	.LBE653:
 3040              	.LBE659:
 3041              	.LBB660:
 3042              	.LBB657:
 3043              		.loc 5 633 10 view .LVU1071
 3044 004a 83EC08   		subl	$8, %esp
 3045              		.cfi_def_cfa_offset 24
 3046              	.LBE657:
 3047              	.LBE660:
 3048              	.LBB661:
 3049              	.LBB654:
 3050              		.loc 7 465 10 view .LVU1072
 3051 004d 29C2     		subl	%eax, %edx
 3052              	.LVL121:
 3053              		.loc 7 465 10 view .LVU1073
 3054              	.LBE654:
 3055              	.LBE661:
 3056              	.LBB662:
 3057              	.LBB658:
 3058              		.loc 5 633 10 view .LVU1074
 3059 004f 52       		pushl	%edx
 3060              		.cfi_def_cfa_offset 28
 3061 0050 6A08     		pushl	$8
 3062              		.cfi_def_cfa_offset 32
 3063 0052 E8FCFFFF 		call	chSchGoSleepTimeoutS@PLT
 3063      FF
 3064              	.LVL122:
 3065              		.loc 5 634 1 view .LVU1075
 3066 0057 83C410   		addl	$16, %esp
 3067              		.cfi_def_cfa_offset 16
 3068              		.loc 5 634 1 view .LVU1076
 3069              	.LBE658:
 3070              	.LBE662:
 3071              		.loc 1 904 3 is_stmt 1 view .LVU1077
 3072              	.LBB663:
 3073              		.loc 3 421 20 view .LVU1078
 3074              	.LBB648:
 3075              		.loc 3 423 23 view .LVU1079
 3076              		.loc 3 424 34 view .LVU1080
 3077              		.loc 3 430 3 view .LVU1081
 3078              		.loc 3 430 3 view .LVU1082
 3079              		.loc 3 430 3 view .LVU1083
 3080              		.loc 3 434 3 view .LVU1084
 3081              	.LBB645:
 3082              		.loc 4 370 20 view .LVU1085
 3083              	.LBB642:
 3084              		.loc 4 372 3 view .LVU1086
GAS LISTING /tmp/cctFPqVW.s 			page 58


 3085              	.LBE642:
 3086              	.LBE645:
 3087              	.LBE648:
 3088              	.LBE663:
 3089              		.loc 1 907 1 is_stmt 0 view .LVU1087
 3090 005a 89F0     		movl	%esi, %eax
 3091              	.LBB664:
 3092              	.LBB649:
 3093              	.LBB646:
 3094              	.LBB643:
 3095              		.loc 4 372 16 view .LVU1088
 3096 005c C7070000 		movl	$0, (%edi)
 3096      0000
 3097              	.LBE643:
 3098              	.LBE646:
 3099              	.LBE649:
 3100              	.LBE664:
 3101              		.loc 1 906 3 is_stmt 1 view .LVU1089
 3102              		.loc 1 907 1 is_stmt 0 view .LVU1090
 3103 0062 5B       		popl	%ebx
 3104              		.cfi_restore 3
 3105              		.cfi_def_cfa_offset 12
 3106 0063 5E       		popl	%esi
 3107              		.cfi_restore 6
 3108              		.cfi_def_cfa_offset 8
 3109              	.LVL123:
 3110              		.loc 1 907 1 view .LVU1091
 3111 0064 5F       		popl	%edi
 3112              		.cfi_restore 7
 3113              		.cfi_def_cfa_offset 4
 3114 0065 C3       		ret
 3115              		.cfi_endproc
 3116              	.LFE236:
 3117              		.size	chThdSleepUntilWindowed, .-chThdSleepUntilWindowed
 3118              		.section	.text.chThdYield,"ax",@progbits
 3119              		.p2align 4
 3120              		.globl	chThdYield
 3121              		.type	chThdYield, @function
 3122              	chThdYield:
 3123              	.LFB237:
 3124              		.loc 1 916 23 is_stmt 1 view -0
 3125              		.cfi_startproc
 3126              		.loc 1 918 3 view .LVU1093
 3127              	.LBB665:
 3128              	.LBI665:
 3129              		.loc 3 407 20 view .LVU1094
 3130              		.loc 3 409 3 view .LVU1095
 3131              	.LBB666:
 3132              	.LBI666:
 3133              		.loc 4 361 20 view .LVU1096
 3134              	.LBB667:
 3135              		.loc 4 363 3 view .LVU1097
 3136              	.LBE667:
 3137              	.LBE666:
 3138              	.LBE665:
 3139              		.loc 1 916 23 is_stmt 0 view .LVU1098
 3140 0000 56       		pushl	%esi
GAS LISTING /tmp/cctFPqVW.s 			page 59


 3141              		.cfi_def_cfa_offset 8
 3142              		.cfi_offset 6, -8
 3143 0001 53       		pushl	%ebx
 3144              		.cfi_def_cfa_offset 12
 3145              		.cfi_offset 3, -12
 3146 0002 E8FCFFFF 		call	__x86.get_pc_thunk.bx
 3146      FF
 3147 0007 81C30200 		addl	$_GLOBAL_OFFSET_TABLE_, %ebx
 3147      0000
 3148 000d 83EC04   		subl	$4, %esp
 3149              		.cfi_def_cfa_offset 16
 3150              	.LBB670:
 3151              	.LBB669:
 3152              	.LBB668:
 3153              		.loc 4 363 16 view .LVU1099
 3154 0010 8BB30000 		movl	port_irq_sts@GOT(%ebx), %esi
 3154      0000
 3155 0016 C7060100 		movl	$1, (%esi)
 3155      0000
 3156              	.LBE668:
 3157              	.LBE669:
 3158              		.loc 3 410 35 is_stmt 1 view .LVU1100
 3159              		.loc 3 411 21 view .LVU1101
 3160              	.LBE670:
 3161              		.loc 1 919 3 view .LVU1102
 3162 001c E8FCFFFF 		call	chSchDoYieldS@PLT
 3162      FF
 3163              	.LVL124:
 3164              		.loc 1 920 3 view .LVU1103
 3165              	.LBB671:
 3166              	.LBI671:
 3167              		.loc 3 421 20 view .LVU1104
 3168              	.LBB672:
 3169              		.loc 3 423 23 view .LVU1105
 3170              		.loc 3 424 34 view .LVU1106
 3171              		.loc 3 430 3 view .LVU1107
 3172              		.loc 3 430 3 view .LVU1108
 3173              		.loc 3 430 3 view .LVU1109
 3174              		.loc 3 434 3 view .LVU1110
 3175              	.LBB673:
 3176              	.LBI673:
 3177              		.loc 4 370 20 view .LVU1111
 3178              	.LBB674:
 3179              		.loc 4 372 3 view .LVU1112
 3180              		.loc 4 372 16 is_stmt 0 view .LVU1113
 3181 0021 C7060000 		movl	$0, (%esi)
 3181      0000
 3182              	.LBE674:
 3183              	.LBE673:
 3184              	.LBE672:
 3185              	.LBE671:
 3186              		.loc 1 921 1 view .LVU1114
 3187 0027 83C404   		addl	$4, %esp
 3188              		.cfi_def_cfa_offset 12
 3189 002a 5B       		popl	%ebx
 3190              		.cfi_restore 3
 3191              		.cfi_def_cfa_offset 8
GAS LISTING /tmp/cctFPqVW.s 			page 60


 3192 002b 5E       		popl	%esi
 3193              		.cfi_restore 6
 3194              		.cfi_def_cfa_offset 4
 3195 002c C3       		ret
 3196              		.cfi_endproc
 3197              	.LFE237:
 3198              		.size	chThdYield, .-chThdYield
 3199              		.section	.text.chThdSuspendS,"ax",@progbits
 3200              		.p2align 4
 3201              		.globl	chThdSuspendS
 3202              		.type	chThdSuspendS, @function
 3203              	chThdSuspendS:
 3204              	.LVL125:
 3205              	.LFB238:
 3206              		.loc 1 933 46 is_stmt 1 view -0
 3207              		.cfi_startproc
 3208              		.loc 1 934 3 view .LVU1116
 3209              	.LBB675:
 3210              	.LBI675:
 3211              		.loc 5 527 25 view .LVU1117
 3212              	.LBB676:
 3213              		.loc 5 529 3 view .LVU1118
 3214              	.LBE676:
 3215              	.LBE675:
 3216              		.loc 1 933 46 is_stmt 0 view .LVU1119
 3217 0000 56       		pushl	%esi
 3218              		.cfi_def_cfa_offset 8
 3219              		.cfi_offset 6, -8
 3220 0001 53       		pushl	%ebx
 3221              		.cfi_def_cfa_offset 12
 3222              		.cfi_offset 3, -12
 3223 0002 E8FCFFFF 		call	__x86.get_pc_thunk.bx
 3223      FF
 3224 0007 81C30200 		addl	$_GLOBAL_OFFSET_TABLE_, %ebx
 3224      0000
 3225 000d 83EC10   		subl	$16, %esp
 3226              		.cfi_def_cfa_offset 28
 3227              		.loc 1 933 46 view .LVU1120
 3228 0010 8B54241C 		movl	28(%esp), %edx
 3229              	.LBB678:
 3230              	.LBB677:
 3231              		.loc 5 529 10 view .LVU1121
 3232 0014 8BB30000 		movl	ch0@GOT(%ebx), %esi
 3232      0000
 3233 001a 8B460C   		movl	12(%esi), %eax
 3234              	.LVL126:
 3235              		.loc 5 529 10 view .LVU1122
 3236              	.LBE677:
 3237              	.LBE678:
 3238              		.loc 1 936 3 is_stmt 1 view .LVU1123
 3239              		.loc 1 936 3 view .LVU1124
 3240              		.loc 1 936 3 view .LVU1125
 3241              		.loc 1 938 3 view .LVU1126
 3242              		.loc 1 938 8 is_stmt 0 view .LVU1127
 3243 001d 8902     		movl	%eax, (%edx)
 3244              		.loc 1 939 3 is_stmt 1 view .LVU1128
 3245              		.loc 1 939 15 is_stmt 0 view .LVU1129
GAS LISTING /tmp/cctFPqVW.s 			page 61


 3246 001f 895034   		movl	%edx, 52(%eax)
 3247              		.loc 1 940 3 is_stmt 1 view .LVU1130
 3248 0022 6A03     		pushl	$3
 3249              		.cfi_def_cfa_offset 32
 3250 0024 E8FCFFFF 		call	chSchGoSleepS@PLT
 3250      FF
 3251              	.LVL127:
 3252              		.loc 1 942 3 view .LVU1131
 3253              	.LBB679:
 3254              	.LBI679:
 3255              		.loc 5 527 25 view .LVU1132
 3256              	.LBB680:
 3257              		.loc 5 529 3 view .LVU1133
 3258              	.LBE680:
 3259              	.LBE679:
 3260              		.loc 1 942 28 is_stmt 0 view .LVU1134
 3261 0029 8B460C   		movl	12(%esi), %eax
 3262 002c 8B4034   		movl	52(%eax), %eax
 3263              		.loc 1 943 1 view .LVU1135
 3264 002f 83C414   		addl	$20, %esp
 3265              		.cfi_def_cfa_offset 12
 3266 0032 5B       		popl	%ebx
 3267              		.cfi_restore 3
 3268              		.cfi_def_cfa_offset 8
 3269 0033 5E       		popl	%esi
 3270              		.cfi_restore 6
 3271              		.cfi_def_cfa_offset 4
 3272 0034 C3       		ret
 3273              		.cfi_endproc
 3274              	.LFE238:
 3275              		.size	chThdSuspendS, .-chThdSuspendS
 3276              		.section	.text.chThdSuspendTimeoutS,"ax",@progbits
 3277              		.p2align 4
 3278              		.globl	chThdSuspendTimeoutS
 3279              		.type	chThdSuspendTimeoutS, @function
 3280              	chThdSuspendTimeoutS:
 3281              	.LVL128:
 3282              	.LFB239:
 3283              		.loc 1 963 76 is_stmt 1 view -0
 3284              		.cfi_startproc
 3285              		.loc 1 964 3 view .LVU1137
 3286              	.LBB681:
 3287              	.LBI681:
 3288              		.loc 5 527 25 view .LVU1138
 3289              	.LBB682:
 3290              		.loc 5 529 3 view .LVU1139
 3291              	.LBE682:
 3292              	.LBE681:
 3293              		.loc 1 963 76 is_stmt 0 view .LVU1140
 3294 0000 53       		pushl	%ebx
 3295              		.cfi_def_cfa_offset 8
 3296              		.cfi_offset 3, -8
 3297 0001 E8FCFFFF 		call	__x86.get_pc_thunk.bx
 3297      FF
 3298 0006 81C30200 		addl	$_GLOBAL_OFFSET_TABLE_, %ebx
 3298      0000
 3299 000c 83EC08   		subl	$8, %esp
GAS LISTING /tmp/cctFPqVW.s 			page 62


 3300              		.cfi_def_cfa_offset 16
 3301              		.loc 1 963 76 view .LVU1141
 3302 000f 8B442414 		movl	20(%esp), %eax
 3303 0013 8B4C2410 		movl	16(%esp), %ecx
 3304              	.LBB684:
 3305              	.LBB683:
 3306              		.loc 5 529 10 view .LVU1142
 3307 0017 8B930000 		movl	ch0@GOT(%ebx), %edx
 3307      0000
 3308 001d 8B520C   		movl	12(%edx), %edx
 3309              	.LVL129:
 3310              		.loc 5 529 10 view .LVU1143
 3311              	.LBE683:
 3312              	.LBE684:
 3313              		.loc 1 966 3 is_stmt 1 view .LVU1144
 3314              		.loc 1 966 3 view .LVU1145
 3315              		.loc 1 966 3 view .LVU1146
 3316              		.loc 1 968 3 view .LVU1147
 3317              		.loc 1 968 6 is_stmt 0 view .LVU1148
 3318 0020 85C0     		testl	%eax, %eax
 3319 0022 741C     		je	.L89
 3320              		.loc 1 972 3 is_stmt 1 view .LVU1149
 3321              		.loc 1 975 10 is_stmt 0 view .LVU1150
 3322 0024 83EC08   		subl	$8, %esp
 3323              		.cfi_def_cfa_offset 24
 3324              		.loc 1 972 8 view .LVU1151
 3325 0027 8911     		movl	%edx, (%ecx)
 3326              		.loc 1 973 3 is_stmt 1 view .LVU1152
 3327              		.loc 1 973 15 is_stmt 0 view .LVU1153
 3328 0029 894A34   		movl	%ecx, 52(%edx)
 3329              		.loc 1 975 3 is_stmt 1 view .LVU1154
 3330              		.loc 1 975 10 is_stmt 0 view .LVU1155
 3331 002c 50       		pushl	%eax
 3332              		.cfi_def_cfa_offset 28
 3333 002d 6A03     		pushl	$3
 3334              		.cfi_def_cfa_offset 32
 3335 002f E8FCFFFF 		call	chSchGoSleepTimeoutS@PLT
 3335      FF
 3336              	.LVL130:
 3337              		.loc 1 975 10 view .LVU1156
 3338 0034 83C410   		addl	$16, %esp
 3339              		.cfi_def_cfa_offset 16
 3340              	.L87:
 3341              		.loc 1 976 1 view .LVU1157
 3342 0037 83C408   		addl	$8, %esp
 3343              		.cfi_remember_state
 3344              		.cfi_def_cfa_offset 8
 3345 003a 5B       		popl	%ebx
 3346              		.cfi_restore 3
 3347              		.cfi_def_cfa_offset 4
 3348 003b C3       		ret
 3349              	.LVL131:
 3350 003c 8D742600 		.p2align 4,,10
 3351              		.p2align 3
 3352              	.L89:
 3353              		.cfi_restore_state
 3354              		.loc 1 969 12 view .LVU1158
GAS LISTING /tmp/cctFPqVW.s 			page 63


 3355 0040 B8FFFFFF 		movl	$-1, %eax
 3355      FF
 3356 0045 EBF0     		jmp	.L87
 3357              		.cfi_endproc
 3358              	.LFE239:
 3359              		.size	chThdSuspendTimeoutS, .-chThdSuspendTimeoutS
 3360              		.section	.text.chThdResumeI,"ax",@progbits
 3361              		.p2align 4
 3362              		.globl	chThdResumeI
 3363              		.type	chThdResumeI, @function
 3364              	chThdResumeI:
 3365              	.LVL132:
 3366              	.LFB240:
 3367              		.loc 1 988 55 is_stmt 1 view -0
 3368              		.cfi_startproc
 3369              		.loc 1 990 3 view .LVU1160
 3370              		.loc 1 988 55 is_stmt 0 view .LVU1161
 3371 0000 53       		pushl	%ebx
 3372              		.cfi_def_cfa_offset 8
 3373              		.cfi_offset 3, -8
 3374 0001 E8FCFFFF 		call	__x86.get_pc_thunk.bx
 3374      FF
 3375 0006 81C30200 		addl	$_GLOBAL_OFFSET_TABLE_, %ebx
 3375      0000
 3376 000c 83EC08   		subl	$8, %esp
 3377              		.cfi_def_cfa_offset 16
 3378              		.loc 1 988 55 view .LVU1162
 3379 000f 8B542410 		movl	16(%esp), %edx
 3380              		.loc 1 990 7 view .LVU1163
 3381 0013 8B02     		movl	(%edx), %eax
 3382              		.loc 1 990 6 view .LVU1164
 3383 0015 85C0     		testl	%eax, %eax
 3384 0017 7419     		je	.L91
 3385              	.LBB685:
 3386              		.loc 1 991 5 is_stmt 1 view .LVU1165
 3387              	.LVL133:
 3388              		.loc 1 993 5 view .LVU1166
 3389              		.loc 1 993 5 view .LVU1167
 3390              		.loc 1 993 5 view .LVU1168
 3391              		.loc 1 995 5 view .LVU1169
 3392              		.loc 1 995 10 is_stmt 0 view .LVU1170
 3393 0019 C7020000 		movl	$0, (%edx)
 3393      0000
 3394              		.loc 1 996 5 is_stmt 1 view .LVU1171
 3395              		.loc 1 996 18 is_stmt 0 view .LVU1172
 3396 001f 8B542414 		movl	20(%esp), %edx
 3397              		.loc 1 997 12 view .LVU1173
 3398 0023 83EC0C   		subl	$12, %esp
 3399              		.cfi_def_cfa_offset 28
 3400              		.loc 1 996 18 view .LVU1174
 3401 0026 895034   		movl	%edx, 52(%eax)
 3402              		.loc 1 997 5 is_stmt 1 view .LVU1175
 3403              		.loc 1 997 12 is_stmt 0 view .LVU1176
 3404 0029 50       		pushl	%eax
 3405              		.cfi_def_cfa_offset 32
 3406 002a E8FCFFFF 		call	chSchReadyI@PLT
 3406      FF
GAS LISTING /tmp/cctFPqVW.s 			page 64


 3407              	.LVL134:
 3408              		.loc 1 997 12 view .LVU1177
 3409 002f 83C410   		addl	$16, %esp
 3410              		.cfi_def_cfa_offset 16
 3411              	.L91:
 3412              		.loc 1 997 12 view .LVU1178
 3413              	.LBE685:
 3414              		.loc 1 999 1 view .LVU1179
 3415 0032 83C408   		addl	$8, %esp
 3416              		.cfi_def_cfa_offset 8
 3417 0035 5B       		popl	%ebx
 3418              		.cfi_restore 3
 3419              		.cfi_def_cfa_offset 4
 3420 0036 C3       		ret
 3421              		.cfi_endproc
 3422              	.LFE240:
 3423              		.size	chThdResumeI, .-chThdResumeI
 3424              		.section	.text.chThdResumeS,"ax",@progbits
 3425              		.p2align 4
 3426              		.globl	chThdResumeS
 3427              		.type	chThdResumeS, @function
 3428              	chThdResumeS:
 3429              	.LVL135:
 3430              	.LFB241:
 3431              		.loc 1 1011 55 is_stmt 1 view -0
 3432              		.cfi_startproc
 3433              		.loc 1 1013 3 view .LVU1181
 3434              		.loc 1 1011 55 is_stmt 0 view .LVU1182
 3435 0000 53       		pushl	%ebx
 3436              		.cfi_def_cfa_offset 8
 3437              		.cfi_offset 3, -8
 3438 0001 E8FCFFFF 		call	__x86.get_pc_thunk.bx
 3438      FF
 3439 0006 81C30200 		addl	$_GLOBAL_OFFSET_TABLE_, %ebx
 3439      0000
 3440 000c 83EC08   		subl	$8, %esp
 3441              		.cfi_def_cfa_offset 16
 3442              		.loc 1 1011 55 view .LVU1183
 3443 000f 8B542410 		movl	16(%esp), %edx
 3444              		.loc 1 1013 7 view .LVU1184
 3445 0013 8B02     		movl	(%edx), %eax
 3446              		.loc 1 1013 6 view .LVU1185
 3447 0015 85C0     		testl	%eax, %eax
 3448 0017 7416     		je	.L97
 3449              	.LBB686:
 3450              		.loc 1 1014 5 is_stmt 1 view .LVU1186
 3451              	.LVL136:
 3452              		.loc 1 1016 5 view .LVU1187
 3453              		.loc 1 1016 5 view .LVU1188
 3454              		.loc 1 1016 5 view .LVU1189
 3455              		.loc 1 1018 5 view .LVU1190
 3456              		.loc 1 1019 5 is_stmt 0 view .LVU1191
 3457 0019 83EC08   		subl	$8, %esp
 3458              		.cfi_def_cfa_offset 24
 3459              		.loc 1 1018 10 view .LVU1192
 3460 001c C7020000 		movl	$0, (%edx)
 3460      0000
GAS LISTING /tmp/cctFPqVW.s 			page 65


 3461              		.loc 1 1019 5 is_stmt 1 view .LVU1193
 3462 0022 FF74241C 		pushl	28(%esp)
 3463              		.cfi_def_cfa_offset 28
 3464 0026 50       		pushl	%eax
 3465              		.cfi_def_cfa_offset 32
 3466 0027 E8FCFFFF 		call	chSchWakeupS@PLT
 3466      FF
 3467              	.LVL137:
 3468              		.loc 1 1019 5 is_stmt 0 view .LVU1194
 3469 002c 83C410   		addl	$16, %esp
 3470              		.cfi_def_cfa_offset 16
 3471              	.L97:
 3472              		.loc 1 1019 5 view .LVU1195
 3473              	.LBE686:
 3474              		.loc 1 1021 1 view .LVU1196
 3475 002f 83C408   		addl	$8, %esp
 3476              		.cfi_def_cfa_offset 8
 3477 0032 5B       		popl	%ebx
 3478              		.cfi_restore 3
 3479              		.cfi_def_cfa_offset 4
 3480 0033 C3       		ret
 3481              		.cfi_endproc
 3482              	.LFE241:
 3483              		.size	chThdResumeS, .-chThdResumeS
 3484              		.section	.text.chThdResume,"ax",@progbits
 3485              		.p2align 4
 3486              		.globl	chThdResume
 3487              		.type	chThdResume, @function
 3488              	chThdResume:
 3489              	.LVL138:
 3490              	.LFB242:
 3491              		.loc 1 1033 54 is_stmt 1 view -0
 3492              		.cfi_startproc
 3493              		.loc 1 1035 3 view .LVU1198
 3494              	.LBB687:
 3495              	.LBI687:
 3496              		.loc 3 407 20 view .LVU1199
 3497              		.loc 3 409 3 view .LVU1200
 3498              	.LBB688:
 3499              	.LBI688:
 3500              		.loc 4 361 20 view .LVU1201
 3501              	.LBB689:
 3502              		.loc 4 363 3 view .LVU1202
 3503              	.LBE689:
 3504              	.LBE688:
 3505              	.LBE687:
 3506              		.loc 1 1033 54 is_stmt 0 view .LVU1203
 3507 0000 56       		pushl	%esi
 3508              		.cfi_def_cfa_offset 8
 3509              		.cfi_offset 6, -8
 3510 0001 53       		pushl	%ebx
 3511              		.cfi_def_cfa_offset 12
 3512              		.cfi_offset 3, -12
 3513 0002 E8FCFFFF 		call	__x86.get_pc_thunk.bx
 3513      FF
 3514 0007 81C30200 		addl	$_GLOBAL_OFFSET_TABLE_, %ebx
 3514      0000
GAS LISTING /tmp/cctFPqVW.s 			page 66


 3515 000d 83EC04   		subl	$4, %esp
 3516              		.cfi_def_cfa_offset 16
 3517              		.loc 1 1033 54 view .LVU1204
 3518 0010 8B542410 		movl	16(%esp), %edx
 3519              	.LBB692:
 3520              	.LBB693:
 3521              		.loc 1 1013 7 view .LVU1205
 3522 0014 8B02     		movl	(%edx), %eax
 3523              	.LBE693:
 3524              	.LBE692:
 3525              	.LBB696:
 3526              	.LBB691:
 3527              	.LBB690:
 3528              		.loc 4 363 16 view .LVU1206
 3529 0016 8BB30000 		movl	port_irq_sts@GOT(%ebx), %esi
 3529      0000
 3530 001c C7060100 		movl	$1, (%esi)
 3530      0000
 3531              	.LBE690:
 3532              	.LBE691:
 3533              		.loc 3 410 35 is_stmt 1 view .LVU1207
 3534              		.loc 3 411 21 view .LVU1208
 3535              	.LBE696:
 3536              		.loc 1 1036 3 view .LVU1209
 3537              	.LVL139:
 3538              	.LBB697:
 3539              	.LBI692:
 3540              		.loc 1 1011 6 view .LVU1210
 3541              	.LBB695:
 3542              		.loc 1 1013 3 view .LVU1211
 3543              		.loc 1 1013 6 is_stmt 0 view .LVU1212
 3544 0022 85C0     		testl	%eax, %eax
 3545 0024 7416     		je	.L104
 3546              	.LBB694:
 3547              		.loc 1 1014 5 is_stmt 1 view .LVU1213
 3548              	.LVL140:
 3549              		.loc 1 1016 5 view .LVU1214
 3550              		.loc 1 1016 5 view .LVU1215
 3551              		.loc 1 1016 5 view .LVU1216
 3552              		.loc 1 1018 5 view .LVU1217
 3553              		.loc 1 1019 5 is_stmt 0 view .LVU1218
 3554 0026 83EC08   		subl	$8, %esp
 3555              		.cfi_def_cfa_offset 24
 3556              		.loc 1 1018 10 view .LVU1219
 3557 0029 C7020000 		movl	$0, (%edx)
 3557      0000
 3558              		.loc 1 1019 5 is_stmt 1 view .LVU1220
 3559 002f FF74241C 		pushl	28(%esp)
 3560              		.cfi_def_cfa_offset 28
 3561 0033 50       		pushl	%eax
 3562              		.cfi_def_cfa_offset 32
 3563 0034 E8FCFFFF 		call	chSchWakeupS@PLT
 3563      FF
 3564              	.LVL141:
 3565              		.loc 1 1019 5 is_stmt 0 view .LVU1221
 3566 0039 83C410   		addl	$16, %esp
 3567              		.cfi_def_cfa_offset 16
GAS LISTING /tmp/cctFPqVW.s 			page 67


 3568              	.L104:
 3569              	.LVL142:
 3570              		.loc 1 1019 5 view .LVU1222
 3571              	.LBE694:
 3572              	.LBE695:
 3573              	.LBE697:
 3574              		.loc 1 1037 3 is_stmt 1 view .LVU1223
 3575              	.LBB698:
 3576              	.LBI698:
 3577              		.loc 3 421 20 view .LVU1224
 3578              	.LBB699:
 3579              		.loc 3 423 23 view .LVU1225
 3580              		.loc 3 424 34 view .LVU1226
 3581              		.loc 3 430 3 view .LVU1227
 3582              		.loc 3 430 3 view .LVU1228
 3583              		.loc 3 430 3 view .LVU1229
 3584              		.loc 3 434 3 view .LVU1230
 3585              	.LBB700:
 3586              	.LBI700:
 3587              		.loc 4 370 20 view .LVU1231
 3588              	.LBB701:
 3589              		.loc 4 372 3 view .LVU1232
 3590              		.loc 4 372 16 is_stmt 0 view .LVU1233
 3591 003c C7060000 		movl	$0, (%esi)
 3591      0000
 3592              	.LBE701:
 3593              	.LBE700:
 3594              	.LBE699:
 3595              	.LBE698:
 3596              		.loc 1 1038 1 view .LVU1234
 3597 0042 83C404   		addl	$4, %esp
 3598              		.cfi_def_cfa_offset 12
 3599 0045 5B       		popl	%ebx
 3600              		.cfi_restore 3
 3601              		.cfi_def_cfa_offset 8
 3602 0046 5E       		popl	%esi
 3603              		.cfi_restore 6
 3604              		.cfi_def_cfa_offset 4
 3605 0047 C3       		ret
 3606              		.cfi_endproc
 3607              	.LFE242:
 3608              		.size	chThdResume, .-chThdResume
 3609              		.section	.text.chThdQueueObjectInit,"ax",@progbits
 3610              		.p2align 4
 3611              		.globl	chThdQueueObjectInit
 3612              		.type	chThdQueueObjectInit, @function
 3613              	chThdQueueObjectInit:
 3614              	.LVL143:
 3615              	.LFB243:
 3616              		.loc 1 1047 49 is_stmt 1 view -0
 3617              		.cfi_startproc
 3618              		.loc 1 1049 3 view .LVU1236
 3619              		.loc 1 1049 3 view .LVU1237
 3620              		.loc 1 1049 3 view .LVU1238
 3621              		.loc 1 1051 3 view .LVU1239
 3622              		.loc 1 1047 49 is_stmt 0 view .LVU1240
 3623 0000 8B442404 		movl	4(%esp), %eax
GAS LISTING /tmp/cctFPqVW.s 			page 68


 3624              	.LVL144:
 3625              	.LBB702:
 3626              	.LBI702:
 3627              		.loc 2 282 20 is_stmt 1 view .LVU1241
 3628              	.LBB703:
 3629              		.loc 2 284 3 view .LVU1242
 3630              		.loc 2 284 12 is_stmt 0 view .LVU1243
 3631 0004 8900     		movl	%eax, (%eax)
 3632              		.loc 2 285 3 is_stmt 1 view .LVU1244
 3633              		.loc 2 285 12 is_stmt 0 view .LVU1245
 3634 0006 894004   		movl	%eax, 4(%eax)
 3635              	.LVL145:
 3636              		.loc 2 285 12 view .LVU1246
 3637              	.LBE703:
 3638              	.LBE702:
 3639              		.loc 1 1052 1 view .LVU1247
 3640 0009 C3       		ret
 3641              		.cfi_endproc
 3642              	.LFE243:
 3643              		.size	chThdQueueObjectInit, .-chThdQueueObjectInit
 3644              		.section	.text.chThdQueueObjectDispose,"ax",@progbits
 3645              		.p2align 4
 3646              		.globl	chThdQueueObjectDispose
 3647              		.type	chThdQueueObjectDispose, @function
 3648              	chThdQueueObjectDispose:
 3649              	.LFB250:
 3650              		.cfi_startproc
 3651 0000 C3       		ret
 3652              		.cfi_endproc
 3653              	.LFE250:
 3654              		.size	chThdQueueObjectDispose, .-chThdQueueObjectDispose
 3655              		.section	.text.chThdEnqueueTimeoutS,"ax",@progbits
 3656              		.p2align 4
 3657              		.globl	chThdEnqueueTimeoutS
 3658              		.type	chThdEnqueueTimeoutS, @function
 3659              	chThdEnqueueTimeoutS:
 3660              	.LVL146:
 3661              	.LFB245:
 3662              		.loc 1 1102 73 is_stmt 1 view -0
 3663              		.cfi_startproc
 3664              		.loc 1 1103 3 view .LVU1249
 3665              	.LBB704:
 3666              	.LBI704:
 3667              		.loc 5 527 25 view .LVU1250
 3668              	.LBB705:
 3669              		.loc 5 529 3 view .LVU1251
 3670              	.LBE705:
 3671              	.LBE704:
 3672              		.loc 1 1102 73 is_stmt 0 view .LVU1252
 3673 0000 56       		pushl	%esi
 3674              		.cfi_def_cfa_offset 8
 3675              		.cfi_offset 6, -8
 3676 0001 53       		pushl	%ebx
 3677              		.cfi_def_cfa_offset 12
 3678              		.cfi_offset 3, -12
 3679 0002 E8FCFFFF 		call	__x86.get_pc_thunk.bx
 3679      FF
GAS LISTING /tmp/cctFPqVW.s 			page 69


 3680 0007 81C30200 		addl	$_GLOBAL_OFFSET_TABLE_, %ebx
 3680      0000
 3681 000d 83EC04   		subl	$4, %esp
 3682              		.cfi_def_cfa_offset 16
 3683              		.loc 1 1102 73 view .LVU1253
 3684 0010 8B4C2414 		movl	20(%esp), %ecx
 3685 0014 8B542410 		movl	16(%esp), %edx
 3686              	.LBB707:
 3687              	.LBB706:
 3688              		.loc 5 529 10 view .LVU1254
 3689 0018 8B830000 		movl	ch0@GOT(%ebx), %eax
 3689      0000
 3690 001e 8B400C   		movl	12(%eax), %eax
 3691              	.LVL147:
 3692              		.loc 5 529 10 view .LVU1255
 3693              	.LBE706:
 3694              	.LBE707:
 3695              		.loc 1 1105 3 is_stmt 1 view .LVU1256
 3696              		.loc 1 1105 6 is_stmt 0 view .LVU1257
 3697 0021 85C9     		testl	%ecx, %ecx
 3698 0023 742B     		je	.L113
 3699              		.loc 1 1109 3 is_stmt 1 view .LVU1258
 3700              	.LVL148:
 3701              	.LBB708:
 3702              	.LBI708:
 3703              		.loc 2 322 20 view .LVU1259
 3704              	.LBB709:
 3705              		.loc 2 324 3 view .LVU1260
 3706              		.loc 2 325 21 is_stmt 0 view .LVU1261
 3707 0025 8B7204   		movl	4(%edx), %esi
 3708              	.LBE709:
 3709              	.LBE708:
 3710              		.loc 1 1111 10 view .LVU1262
 3711 0028 83EC08   		subl	$8, %esp
 3712              		.cfi_def_cfa_offset 24
 3713              	.LBB711:
 3714              	.LBB710:
 3715              		.loc 2 324 17 view .LVU1263
 3716 002b 8910     		movl	%edx, (%eax)
 3717              		.loc 2 325 3 is_stmt 1 view .LVU1264
 3718              		.loc 2 325 17 is_stmt 0 view .LVU1265
 3719 002d 897004   		movl	%esi, 4(%eax)
 3720              		.loc 2 326 3 is_stmt 1 view .LVU1266
 3721              		.loc 2 326 17 is_stmt 0 view .LVU1267
 3722 0030 8906     		movl	%eax, (%esi)
 3723              		.loc 2 327 3 is_stmt 1 view .LVU1268
 3724              		.loc 2 327 17 is_stmt 0 view .LVU1269
 3725 0032 894204   		movl	%eax, 4(%edx)
 3726              	.LVL149:
 3727              		.loc 2 327 17 view .LVU1270
 3728              	.LBE710:
 3729              	.LBE711:
 3730              		.loc 1 1111 3 is_stmt 1 view .LVU1271
 3731              		.loc 1 1111 10 is_stmt 0 view .LVU1272
 3732 0035 51       		pushl	%ecx
 3733              		.cfi_def_cfa_offset 28
 3734 0036 6A04     		pushl	$4
GAS LISTING /tmp/cctFPqVW.s 			page 70


 3735              		.cfi_def_cfa_offset 32
 3736 0038 E8FCFFFF 		call	chSchGoSleepTimeoutS@PLT
 3736      FF
 3737              	.LVL150:
 3738              		.loc 1 1111 10 view .LVU1273
 3739 003d 83C410   		addl	$16, %esp
 3740              		.cfi_def_cfa_offset 16
 3741              	.L111:
 3742              		.loc 1 1112 1 view .LVU1274
 3743 0040 83C404   		addl	$4, %esp
 3744              		.cfi_remember_state
 3745              		.cfi_def_cfa_offset 12
 3746 0043 5B       		popl	%ebx
 3747              		.cfi_restore 3
 3748              		.cfi_def_cfa_offset 8
 3749 0044 5E       		popl	%esi
 3750              		.cfi_restore 6
 3751              		.cfi_def_cfa_offset 4
 3752 0045 C3       		ret
 3753              	.LVL151:
 3754 0046 8DB42600 		.p2align 4,,10
 3754      0000008D 
 3754      7600
 3755              		.p2align 3
 3756              	.L113:
 3757              		.cfi_restore_state
 3758              		.loc 1 1106 12 view .LVU1275
 3759 0050 B8FFFFFF 		movl	$-1, %eax
 3759      FF
 3760              	.LVL152:
 3761              		.loc 1 1106 12 view .LVU1276
 3762 0055 EBE9     		jmp	.L111
 3763              		.cfi_endproc
 3764              	.LFE245:
 3765              		.size	chThdEnqueueTimeoutS, .-chThdEnqueueTimeoutS
 3766              		.section	.text.chThdDequeueNextI,"ax",@progbits
 3767              		.p2align 4
 3768              		.globl	chThdDequeueNextI
 3769              		.type	chThdDequeueNextI, @function
 3770              	chThdDequeueNextI:
 3771              	.LVL153:
 3772              	.LFB246:
 3773              		.loc 1 1123 57 is_stmt 1 view -0
 3774              		.cfi_startproc
 3775              		.loc 1 1125 3 view .LVU1278
 3776              		.loc 1 1123 57 is_stmt 0 view .LVU1279
 3777 0000 53       		pushl	%ebx
 3778              		.cfi_def_cfa_offset 8
 3779              		.cfi_offset 3, -8
 3780 0001 E8FCFFFF 		call	__x86.get_pc_thunk.bx
 3780      FF
 3781 0006 81C30200 		addl	$_GLOBAL_OFFSET_TABLE_, %ebx
 3781      0000
 3782 000c 83EC08   		subl	$8, %esp
 3783              		.cfi_def_cfa_offset 16
 3784              		.loc 1 1123 57 view .LVU1280
 3785 000f 8B442410 		movl	16(%esp), %eax
GAS LISTING /tmp/cctFPqVW.s 			page 71


 3786              	.LVL154:
 3787              	.LBB712:
 3788              	.LBI712:
 3789              		.loc 2 309 20 is_stmt 1 view .LVU1281
 3790              	.LBB713:
 3791              		.loc 2 311 3 view .LVU1282
 3792              		.loc 2 311 19 is_stmt 0 view .LVU1283
 3793 0013 8B10     		movl	(%eax), %edx
 3794              	.LVL155:
 3795              		.loc 2 311 19 view .LVU1284
 3796              	.LBE713:
 3797              	.LBE712:
 3798              		.loc 1 1125 6 view .LVU1285
 3799 0015 39D0     		cmpl	%edx, %eax
 3800 0017 741A     		je	.L115
 3801              		.loc 1 1126 5 is_stmt 1 view .LVU1286
 3802              	.LVL156:
 3803              	.LBB714:
 3804              	.LBI714:
 3805              		.loc 5 664 20 view .LVU1287
 3806              	.LBB715:
 3807              		.loc 5 665 3 view .LVU1288
 3808              		.loc 5 667 3 view .LVU1289
 3809              		.loc 5 667 3 view .LVU1290
 3810              		.loc 5 667 3 view .LVU1291
 3811              		.loc 5 669 3 view .LVU1292
 3812              	.LBB716:
 3813              	.LBI716:
 3814              		.loc 2 340 27 view .LVU1293
 3815              	.LBB717:
 3816              		.loc 2 341 3 view .LVU1294
 3817              		.loc 2 343 3 view .LVU1295
 3818              		.loc 2 343 21 is_stmt 0 view .LVU1296
 3819 0019 8B0A     		movl	(%edx), %ecx
 3820              	.LBE717:
 3821              	.LBE716:
 3822              		.loc 5 674 10 view .LVU1297
 3823 001b 83EC0C   		subl	$12, %esp
 3824              		.cfi_def_cfa_offset 28
 3825              	.LBB719:
 3826              	.LBB718:
 3827              		.loc 2 343 18 view .LVU1298
 3828 001e 8908     		movl	%ecx, (%eax)
 3829              		.loc 2 344 3 is_stmt 1 view .LVU1299
 3830              		.loc 2 344 18 is_stmt 0 view .LVU1300
 3831 0020 894104   		movl	%eax, 4(%ecx)
 3832              		.loc 2 346 3 is_stmt 1 view .LVU1301
 3833              	.LVL157:
 3834              		.loc 2 346 3 is_stmt 0 view .LVU1302
 3835              	.LBE718:
 3836              	.LBE719:
 3837              		.loc 5 671 3 is_stmt 1 view .LVU1303
 3838              		.loc 5 671 3 view .LVU1304
 3839              		.loc 5 671 3 view .LVU1305
 3840              		.loc 5 673 3 view .LVU1306
 3841              		.loc 5 673 16 is_stmt 0 view .LVU1307
 3842 0023 8B442420 		movl	32(%esp), %eax
GAS LISTING /tmp/cctFPqVW.s 			page 72


 3843              	.LVL158:
 3844              		.loc 5 673 16 view .LVU1308
 3845 0027 894234   		movl	%eax, 52(%edx)
 3846              		.loc 5 674 3 is_stmt 1 view .LVU1309
 3847              		.loc 5 674 10 is_stmt 0 view .LVU1310
 3848 002a 52       		pushl	%edx
 3849              		.cfi_def_cfa_offset 32
 3850 002b E8FCFFFF 		call	chSchReadyI@PLT
 3850      FF
 3851              	.LVL159:
 3852              		.loc 5 675 1 view .LVU1311
 3853 0030 83C410   		addl	$16, %esp
 3854              		.cfi_def_cfa_offset 16
 3855              	.LVL160:
 3856              	.L115:
 3857              		.loc 5 675 1 view .LVU1312
 3858              	.LBE715:
 3859              	.LBE714:
 3860              		.loc 1 1128 1 view .LVU1313
 3861 0033 83C408   		addl	$8, %esp
 3862              		.cfi_def_cfa_offset 8
 3863 0036 5B       		popl	%ebx
 3864              		.cfi_restore 3
 3865              		.cfi_def_cfa_offset 4
 3866 0037 C3       		ret
 3867              		.cfi_endproc
 3868              	.LFE246:
 3869              		.size	chThdDequeueNextI, .-chThdDequeueNextI
 3870              		.section	.text.chThdDequeueAllI,"ax",@progbits
 3871              		.p2align 4
 3872              		.globl	chThdDequeueAllI
 3873              		.type	chThdDequeueAllI, @function
 3874              	chThdDequeueAllI:
 3875              	.LVL161:
 3876              	.LFB247:
 3877              		.loc 1 1138 56 is_stmt 1 view -0
 3878              		.cfi_startproc
 3879              		.loc 1 1140 3 view .LVU1315
 3880              		.loc 1 1140 10 view .LVU1316
 3881              		.loc 1 1138 56 is_stmt 0 view .LVU1317
 3882 0000 57       		pushl	%edi
 3883              		.cfi_def_cfa_offset 8
 3884              		.cfi_offset 7, -8
 3885 0001 56       		pushl	%esi
 3886              		.cfi_def_cfa_offset 12
 3887              		.cfi_offset 6, -12
 3888 0002 53       		pushl	%ebx
 3889              		.cfi_def_cfa_offset 16
 3890              		.cfi_offset 3, -16
 3891              		.loc 1 1138 56 view .LVU1318
 3892 0003 8B742410 		movl	16(%esp), %esi
 3893              	.LVL162:
 3894              	.LBB720:
 3895              	.LBI720:
 3896              		.loc 2 309 20 is_stmt 1 view .LVU1319
 3897              	.LBB721:
 3898              		.loc 2 311 3 view .LVU1320
GAS LISTING /tmp/cctFPqVW.s 			page 73


 3899 0007 E8FCFFFF 		call	__x86.get_pc_thunk.bx
 3899      FF
 3900 000c 81C30200 		addl	$_GLOBAL_OFFSET_TABLE_, %ebx
 3900      0000
 3901              	.LBE721:
 3902              	.LBE720:
 3903              		.loc 1 1138 56 is_stmt 0 view .LVU1321
 3904 0012 8B7C2414 		movl	20(%esp), %edi
 3905              	.LBB724:
 3906              	.LBB722:
 3907              		.loc 2 311 19 view .LVU1322
 3908 0016 8B06     		movl	(%esi), %eax
 3909              	.LVL163:
 3910              		.loc 2 311 19 view .LVU1323
 3911              	.LBE722:
 3912              	.LBE724:
 3913              		.loc 1 1140 10 view .LVU1324
 3914 0018 39F0     		cmpl	%esi, %eax
 3915 001a 7420     		je	.L118
 3916 001c 8D742600 		.p2align 4,,10
 3917              		.p2align 3
 3918              	.L120:
 3919              		.loc 1 1141 5 is_stmt 1 view .LVU1325
 3920              	.LVL164:
 3921              	.LBB725:
 3922              	.LBI725:
 3923              		.loc 5 664 20 view .LVU1326
 3924              	.LBB726:
 3925              		.loc 5 665 3 view .LVU1327
 3926              		.loc 5 667 3 view .LVU1328
 3927              		.loc 5 667 3 view .LVU1329
 3928              		.loc 5 667 3 view .LVU1330
 3929              		.loc 5 669 3 view .LVU1331
 3930              	.LBB727:
 3931              	.LBI727:
 3932              		.loc 2 340 27 view .LVU1332
 3933              	.LBB728:
 3934              		.loc 2 341 3 view .LVU1333
 3935              		.loc 2 343 3 view .LVU1334
 3936              		.loc 2 343 21 is_stmt 0 view .LVU1335
 3937 0020 8B10     		movl	(%eax), %edx
 3938              	.LBE728:
 3939              	.LBE727:
 3940              		.loc 5 674 10 view .LVU1336
 3941 0022 83EC0C   		subl	$12, %esp
 3942              		.cfi_def_cfa_offset 28
 3943              	.LBB730:
 3944              	.LBB729:
 3945              		.loc 2 343 18 view .LVU1337
 3946 0025 8916     		movl	%edx, (%esi)
 3947              		.loc 2 344 3 is_stmt 1 view .LVU1338
 3948              		.loc 2 344 18 is_stmt 0 view .LVU1339
 3949 0027 897204   		movl	%esi, 4(%edx)
 3950              		.loc 2 346 3 is_stmt 1 view .LVU1340
 3951              	.LVL165:
 3952              		.loc 2 346 3 is_stmt 0 view .LVU1341
 3953              	.LBE729:
GAS LISTING /tmp/cctFPqVW.s 			page 74


 3954              	.LBE730:
 3955              		.loc 5 671 3 is_stmt 1 view .LVU1342
 3956              		.loc 5 671 3 view .LVU1343
 3957              		.loc 5 671 3 view .LVU1344
 3958              		.loc 5 673 3 view .LVU1345
 3959              		.loc 5 673 16 is_stmt 0 view .LVU1346
 3960 002a 897834   		movl	%edi, 52(%eax)
 3961              		.loc 5 674 3 is_stmt 1 view .LVU1347
 3962              		.loc 5 674 10 is_stmt 0 view .LVU1348
 3963 002d 50       		pushl	%eax
 3964              		.cfi_def_cfa_offset 32
 3965 002e E8FCFFFF 		call	chSchReadyI@PLT
 3965      FF
 3966              	.LVL166:
 3967              		.loc 5 674 10 view .LVU1349
 3968              	.LBE726:
 3969              	.LBE725:
 3970              		.loc 1 1140 10 is_stmt 1 view .LVU1350
 3971              	.LBB731:
 3972              		.loc 2 309 20 view .LVU1351
 3973              	.LBB723:
 3974              		.loc 2 311 3 view .LVU1352
 3975              		.loc 2 311 19 is_stmt 0 view .LVU1353
 3976 0033 8B06     		movl	(%esi), %eax
 3977              	.LVL167:
 3978              		.loc 2 311 19 view .LVU1354
 3979              	.LBE723:
 3980              	.LBE731:
 3981              		.loc 1 1140 10 view .LVU1355
 3982 0035 83C410   		addl	$16, %esp
 3983              		.cfi_def_cfa_offset 16
 3984 0038 39F0     		cmpl	%esi, %eax
 3985 003a 75E4     		jne	.L120
 3986              	.L118:
 3987              		.loc 1 1143 1 view .LVU1356
 3988 003c 5B       		popl	%ebx
 3989              		.cfi_restore 3
 3990              		.cfi_def_cfa_offset 12
 3991 003d 5E       		popl	%esi
 3992              		.cfi_restore 6
 3993              		.cfi_def_cfa_offset 8
 3994 003e 5F       		popl	%edi
 3995              		.cfi_restore 7
 3996              		.cfi_def_cfa_offset 4
 3997 003f C3       		ret
 3998              		.cfi_endproc
 3999              	.LFE247:
 4000              		.size	chThdDequeueAllI, .-chThdDequeueAllI
 4001              		.section	.text.__x86.get_pc_thunk.ax,"axG",@progbits,__x86.get_pc_thunk.ax,comdat
 4002              		.globl	__x86.get_pc_thunk.ax
 4003              		.hidden	__x86.get_pc_thunk.ax
 4004              		.type	__x86.get_pc_thunk.ax, @function
 4005              	__x86.get_pc_thunk.ax:
 4006              	.LFB254:
 4007              		.cfi_startproc
 4008 0000 8B0424   		movl	(%esp), %eax
 4009 0003 C3       		ret
GAS LISTING /tmp/cctFPqVW.s 			page 75


 4010              		.cfi_endproc
 4011              	.LFE254:
 4012              		.section	.text.__x86.get_pc_thunk.dx,"axG",@progbits,__x86.get_pc_thunk.dx,comdat
 4013              		.globl	__x86.get_pc_thunk.dx
 4014              		.hidden	__x86.get_pc_thunk.dx
 4015              		.type	__x86.get_pc_thunk.dx, @function
 4016              	__x86.get_pc_thunk.dx:
 4017              	.LFB255:
 4018              		.cfi_startproc
 4019 0000 8B1424   		movl	(%esp), %edx
 4020 0003 C3       		ret
 4021              		.cfi_endproc
 4022              	.LFE255:
 4023              		.section	.text.__x86.get_pc_thunk.cx,"axG",@progbits,__x86.get_pc_thunk.cx,comdat
 4024              		.globl	__x86.get_pc_thunk.cx
 4025              		.hidden	__x86.get_pc_thunk.cx
 4026              		.type	__x86.get_pc_thunk.cx, @function
 4027              	__x86.get_pc_thunk.cx:
 4028              	.LFB256:
 4029              		.cfi_startproc
 4030 0000 8B0C24   		movl	(%esp), %ecx
 4031 0003 C3       		ret
 4032              		.cfi_endproc
 4033              	.LFE256:
 4034              		.section	.text.__x86.get_pc_thunk.bx,"axG",@progbits,__x86.get_pc_thunk.bx,comdat
 4035              		.globl	__x86.get_pc_thunk.bx
 4036              		.hidden	__x86.get_pc_thunk.bx
 4037              		.type	__x86.get_pc_thunk.bx, @function
 4038              	__x86.get_pc_thunk.bx:
 4039              	.LFB257:
 4040              		.cfi_startproc
 4041 0000 8B1C24   		movl	(%esp), %ebx
 4042 0003 C3       		ret
 4043              		.cfi_endproc
 4044              	.LFE257:
 4045              		.section	.text.__x86.get_pc_thunk.si,"axG",@progbits,__x86.get_pc_thunk.si,comdat
 4046              		.globl	__x86.get_pc_thunk.si
 4047              		.hidden	__x86.get_pc_thunk.si
 4048              		.type	__x86.get_pc_thunk.si, @function
 4049              	__x86.get_pc_thunk.si:
 4050              	.LFB258:
 4051              		.cfi_startproc
 4052 0000 8B3424   		movl	(%esp), %esi
 4053 0003 C3       		ret
 4054              		.cfi_endproc
 4055              	.LFE258:
 4056              		.section	.text.__x86.get_pc_thunk.di,"axG",@progbits,__x86.get_pc_thunk.di,comdat
 4057              		.globl	__x86.get_pc_thunk.di
 4058              		.hidden	__x86.get_pc_thunk.di
 4059              		.type	__x86.get_pc_thunk.di, @function
 4060              	__x86.get_pc_thunk.di:
 4061              	.LFB259:
 4062              		.cfi_startproc
 4063 0000 8B3C24   		movl	(%esp), %edi
 4064 0003 C3       		ret
 4065              		.cfi_endproc
 4066              	.LFE259:
GAS LISTING /tmp/cctFPqVW.s 			page 76


 4067              		.text
 4068              	.Letext0:
 4069              		.file 8 "/usr/lib/gcc/x86_64-linux-gnu/11/include/stddef.h"
 4070              		.file 9 "/usr/include/bits/types.h"
 4071              		.file 10 "/usr/include/bits/stdint-intn.h"
 4072              		.file 11 "/usr/include/bits/stdint-uintn.h"
 4073              		.file 12 "../../../os/common/ports/SIMIA32/compilers/GCC/chtypes.h"
 4074              		.file 13 "../../../os/rt/include/chearly.h"
 4075              		.file 14 "../../../os/rt/include/chobjects.h"
 4076              		.file 15 "../../../os/rt/include/chrfcu.h"
 4077              		.file 16 "../../../os/rt/include/chdebug.h"
 4078              		.file 17 "../../../os/rt/include/chsem.h"
 4079              		.file 18 "../../../os/rt/include/chmtx.h"
 4080              		.file 19 "../../../os/rt/include/chschd.h"
 4081              		.section	.debug_info,"",@progbits
 4082              	.Ldebug_info0:
 4083 0000 05230000 		.long	0x2305
 4084 0004 0500     		.value	0x5
 4085 0006 01       		.byte	0x1
 4086 0007 04       		.byte	0x4
 4087 0008 00000000 		.long	.Ldebug_abbrev0
 4088 000c 3B       		.uleb128 0x3b
 4089 000d 36060000 		.long	.LASF197
 4090 0011 1D       		.byte	0x1d
 4091 0012 00000000 		.long	.LASF0
 4092 0016 1F000000 		.long	.LASF1
 4093 001a 08030000 		.long	.LLRL146
 4094 001e 00000000 		.long	0
 4095 0022 00000000 		.long	.Ldebug_line0
 4096 0026 02       		.uleb128 0x2
 4097 0027 49030000 		.long	.LASF12
 4098 002b 08       		.byte	0x8
 4099 002c D1       		.byte	0xd1
 4100 002d 17       		.byte	0x17
 4101 002e 32000000 		.long	0x32
 4102 0032 13       		.uleb128 0x13
 4103 0033 04       		.byte	0x4
 4104 0034 07       		.byte	0x7
 4105 0035 A4000000 		.long	.LASF2
 4106 0039 13       		.uleb128 0x13
 4107 003a 02       		.byte	0x2
 4108 003b 07       		.byte	0x7
 4109 003c E9080000 		.long	.LASF3
 4110 0040 3C       		.uleb128 0x3c
 4111 0041 04       		.byte	0x4
 4112 0042 05       		.byte	0x5
 4113 0043 696E7400 		.string	"int"
 4114 0047 09       		.uleb128 0x9
 4115 0048 58000000 		.long	0x58
 4116 004c 26       		.uleb128 0x26
 4117 004d 47000000 		.long	0x47
 4118 0051 13       		.uleb128 0x13
 4119 0052 01       		.byte	0x1
 4120 0053 06       		.byte	0x6
 4121 0054 39040000 		.long	.LASF4
 4122 0058 0C       		.uleb128 0xc
 4123 0059 51000000 		.long	0x51
GAS LISTING /tmp/cctFPqVW.s 			page 77


 4124 005d 13       		.uleb128 0x13
 4125 005e 04       		.byte	0x4
 4126 005f 05       		.byte	0x5
 4127 0060 21060000 		.long	.LASF5
 4128 0064 13       		.uleb128 0x13
 4129 0065 08       		.byte	0x8
 4130 0066 05       		.byte	0x5
 4131 0067 D0040000 		.long	.LASF6
 4132 006b 13       		.uleb128 0x13
 4133 006c 0C       		.byte	0xc
 4134 006d 04       		.byte	0x4
 4135 006e CE050000 		.long	.LASF7
 4136 0072 13       		.uleb128 0x13
 4137 0073 10       		.byte	0x10
 4138 0074 04       		.byte	0x4
 4139 0075 B6000000 		.long	.LASF8
 4140 0079 13       		.uleb128 0x13
 4141 007a 01       		.byte	0x1
 4142 007b 08       		.byte	0x8
 4143 007c 2F080000 		.long	.LASF9
 4144 0080 13       		.uleb128 0x13
 4145 0081 04       		.byte	0x4
 4146 0082 07       		.byte	0x7
 4147 0083 8E070000 		.long	.LASF10
 4148 0087 13       		.uleb128 0x13
 4149 0088 01       		.byte	0x1
 4150 0089 06       		.byte	0x6
 4151 008a CA080000 		.long	.LASF11
 4152 008e 02       		.uleb128 0x2
 4153 008f 4F070000 		.long	.LASF13
 4154 0093 09       		.byte	0x9
 4155 0094 26       		.byte	0x26
 4156 0095 17       		.byte	0x17
 4157 0096 79000000 		.long	0x79
 4158 009a 13       		.uleb128 0x13
 4159 009b 02       		.byte	0x2
 4160 009c 05       		.byte	0x5
 4161 009d 17060000 		.long	.LASF14
 4162 00a1 02       		.uleb128 0x2
 4163 00a2 E4000000 		.long	.LASF15
 4164 00a6 09       		.byte	0x9
 4165 00a7 29       		.byte	0x29
 4166 00a8 14       		.byte	0x14
 4167 00a9 40000000 		.long	0x40
 4168 00ad 02       		.uleb128 0x2
 4169 00ae 3D080000 		.long	.LASF16
 4170 00b2 09       		.byte	0x9
 4171 00b3 2A       		.byte	0x2a
 4172 00b4 16       		.byte	0x16
 4173 00b5 32000000 		.long	0x32
 4174 00b9 02       		.uleb128 0x2
 4175 00ba B4030000 		.long	.LASF17
 4176 00be 09       		.byte	0x9
 4177 00bf 30       		.byte	0x30
 4178 00c0 2E       		.byte	0x2e
 4179 00c1 C5000000 		.long	0xc5
 4180 00c5 13       		.uleb128 0x13
GAS LISTING /tmp/cctFPqVW.s 			page 78


 4181 00c6 08       		.byte	0x8
 4182 00c7 07       		.byte	0x7
 4183 00c8 A0020000 		.long	.LASF18
 4184 00cc 3D       		.uleb128 0x3d
 4185 00cd 04       		.byte	0x4
 4186 00ce 02       		.uleb128 0x2
 4187 00cf C8070000 		.long	.LASF19
 4188 00d3 0A       		.byte	0xa
 4189 00d4 1A       		.byte	0x1a
 4190 00d5 13       		.byte	0x13
 4191 00d6 A1000000 		.long	0xa1
 4192 00da 02       		.uleb128 0x2
 4193 00db 90040000 		.long	.LASF20
 4194 00df 0B       		.byte	0xb
 4195 00e0 18       		.byte	0x18
 4196 00e1 13       		.byte	0x13
 4197 00e2 8E000000 		.long	0x8e
 4198 00e6 02       		.uleb128 0x2
 4199 00e7 04020000 		.long	.LASF21
 4200 00eb 0B       		.byte	0xb
 4201 00ec 1A       		.byte	0x1a
 4202 00ed 14       		.byte	0x14
 4203 00ee AD000000 		.long	0xad
 4204 00f2 02       		.uleb128 0x2
 4205 00f3 23070000 		.long	.LASF22
 4206 00f7 0B       		.byte	0xb
 4207 00f8 1B       		.byte	0x1b
 4208 00f9 14       		.byte	0x14
 4209 00fa B9000000 		.long	0xb9
 4210 00fe 26       		.uleb128 0x26
 4211 00ff F2000000 		.long	0xf2
 4212 0103 02       		.uleb128 0x2
 4213 0104 D3000000 		.long	.LASF23
 4214 0108 0C       		.byte	0xc
 4215 0109 37       		.byte	0x37
 4216 010a 1D       		.byte	0x1d
 4217 010b E6000000 		.long	0xe6
 4218 010f 02       		.uleb128 0x2
 4219 0110 B3050000 		.long	.LASF24
 4220 0114 0C       		.byte	0xc
 4221 0115 38       		.byte	0x38
 4222 0116 1D       		.byte	0x1d
 4223 0117 DA000000 		.long	0xda
 4224 011b 02       		.uleb128 0x2
 4225 011c 74040000 		.long	.LASF25
 4226 0120 0C       		.byte	0xc
 4227 0121 39       		.byte	0x39
 4228 0122 1D       		.byte	0x1d
 4229 0123 DA000000 		.long	0xda
 4230 0127 02       		.uleb128 0x2
 4231 0128 86070000 		.long	.LASF26
 4232 012c 0C       		.byte	0xc
 4233 012d 3A       		.byte	0x3a
 4234 012e 1D       		.byte	0x1d
 4235 012f DA000000 		.long	0xda
 4236 0133 02       		.uleb128 0x2
 4237 0134 66020000 		.long	.LASF27
GAS LISTING /tmp/cctFPqVW.s 			page 79


 4238 0138 0C       		.byte	0xc
 4239 0139 3C       		.byte	0x3c
 4240 013a 1D       		.byte	0x1d
 4241 013b E6000000 		.long	0xe6
 4242 013f 02       		.uleb128 0x2
 4243 0140 ED040000 		.long	.LASF28
 4244 0144 0C       		.byte	0xc
 4245 0145 3D       		.byte	0x3d
 4246 0146 1D       		.byte	0x1d
 4247 0147 CE000000 		.long	0xce
 4248 014b 02       		.uleb128 0x2
 4249 014c 39020000 		.long	.LASF29
 4250 0150 0C       		.byte	0xc
 4251 0151 3F       		.byte	0x3f
 4252 0152 1D       		.byte	0x1d
 4253 0153 E6000000 		.long	0xe6
 4254 0157 02       		.uleb128 0x2
 4255 0158 D7020000 		.long	.LASF30
 4256 015c 0C       		.byte	0xc
 4257 015d 41       		.byte	0x41
 4258 015e 1D       		.byte	0x1d
 4259 015f CE000000 		.long	0xce
 4260 0163 02       		.uleb128 0x2
 4261 0164 83090000 		.long	.LASF31
 4262 0168 0D       		.byte	0xd
 4263 0169 80       		.byte	0x80
 4264 016a 12       		.byte	0x12
 4265 016b 32000000 		.long	0x32
 4266 016f 02       		.uleb128 0x2
 4267 0170 40030000 		.long	.LASF32
 4268 0174 0D       		.byte	0xd
 4269 0175 85       		.byte	0x85
 4270 0176 1A       		.byte	0x1a
 4271 0177 7B010000 		.long	0x17b
 4272 017b 0F       		.uleb128 0xf
 4273 017c A7040000 		.long	.LASF49
 4274 0180 50       		.byte	0x50
 4275 0181 0E       		.byte	0xe
 4276 0182 A9       		.byte	0xa9
 4277 0183 08       		.byte	0x8
 4278 0184 70020000 		.long	0x270
 4279 0188 15       		.uleb128 0x15
 4280 0189 68647200 		.string	"hdr"
 4281 018d 0E       		.byte	0xe
 4282 018e BA       		.byte	0xba
 4283 018f 05       		.byte	0x5
 4284 0190 EB050000 		.long	0x5eb
 4285 0194 00       		.byte	0
 4286 0195 15       		.uleb128 0x15
 4287 0196 63747800 		.string	"ctx"
 4288 019a 0E       		.byte	0xe
 4289 019b BE       		.byte	0xbe
 4290 019c 21       		.byte	0x21
 4291 019d FC040000 		.long	0x4fc
 4292 01a1 0C       		.byte	0xc
 4293 01a2 03       		.uleb128 0x3
 4294 01a3 06030000 		.long	.LASF33
GAS LISTING /tmp/cctFPqVW.s 			page 80


 4295 01a7 0E       		.byte	0xe
 4296 01a8 C2       		.byte	0xc2
 4297 01a9 22       		.byte	0x22
 4298 01aa EA060000 		.long	0x6ea
 4299 01ae 10       		.byte	0x10
 4300 01af 03       		.uleb128 0x3
 4301 01b0 6D040000 		.long	.LASF34
 4302 01b4 0E       		.byte	0xe
 4303 01b5 C8       		.byte	0xc8
 4304 01b6 22       		.byte	0x22
 4305 01b7 EF060000 		.long	0x6ef
 4306 01bb 14       		.byte	0x14
 4307 01bc 03       		.uleb128 0x3
 4308 01bd EE060000 		.long	.LASF35
 4309 01c1 0E       		.byte	0xe
 4310 01c2 CD       		.byte	0xcd
 4311 01c3 21       		.byte	0x21
 4312 01c4 EF060000 		.long	0x6ef
 4313 01c8 18       		.byte	0x18
 4314 01c9 03       		.uleb128 0x3
 4315 01ca A1080000 		.long	.LASF36
 4316 01ce 0E       		.byte	0xe
 4317 01cf D1       		.byte	0xd1
 4318 01d0 21       		.byte	0x21
 4319 01d1 1B010000 		.long	0x11b
 4320 01d5 1C       		.byte	0x1c
 4321 01d6 03       		.uleb128 0x3
 4322 01d7 70000000 		.long	.LASF37
 4323 01db 0E       		.byte	0xe
 4324 01dc D5       		.byte	0xd5
 4325 01dd 21       		.byte	0x21
 4326 01de 0F010000 		.long	0x10f
 4327 01e2 1D       		.byte	0x1d
 4328 01e3 03       		.uleb128 0x3
 4329 01e4 EE000000 		.long	.LASF38
 4330 01e8 0E       		.byte	0xe
 4331 01e9 DA       		.byte	0xda
 4332 01ea 21       		.byte	0x21
 4333 01eb 27010000 		.long	0x127
 4334 01ef 1E       		.byte	0x1e
 4335 01f0 03       		.uleb128 0x3
 4336 01f1 59070000 		.long	.LASF39
 4337 01f5 0E       		.byte	0xe
 4338 01f6 DE       		.byte	0xde
 4339 01f7 22       		.byte	0x22
 4340 01f8 47000000 		.long	0x47
 4341 01fc 20       		.byte	0x20
 4342 01fd 03       		.uleb128 0x3
 4343 01fe 7D040000 		.long	.LASF40
 4344 0202 0E       		.byte	0xe
 4345 0203 E2       		.byte	0xe2
 4346 0204 21       		.byte	0x21
 4347 0205 A1030000 		.long	0x3a1
 4348 0209 24       		.byte	0x24
 4349 020a 03       		.uleb128 0x3
 4350 020b 47000000 		.long	.LASF41
 4351 020f 0E       		.byte	0xe
GAS LISTING /tmp/cctFPqVW.s 			page 81


 4352 0210 E8       		.byte	0xe8
 4353 0211 21       		.byte	0x21
 4354 0212 CF050000 		.long	0x5cf
 4355 0216 2C       		.byte	0x2c
 4356 0217 03       		.uleb128 0x3
 4357 0218 95030000 		.long	.LASF42
 4358 021c 0E       		.byte	0xe
 4359 021d EE       		.byte	0xee
 4360 021e 22       		.byte	0x22
 4361 021f CC000000 		.long	0xcc
 4362 0223 30       		.byte	0x30
 4363 0224 2D       		.uleb128 0x2d
 4364 0225 7500     		.string	"u"
 4365 0227 3F01     		.value	0x13f
 4366 0229 13060000 		.long	0x613
 4367 022d 34       		.byte	0x34
 4368 022e 0A       		.uleb128 0xa
 4369 022f 48080000 		.long	.LASF43
 4370 0233 4401     		.value	0x144
 4371 0235 21       		.byte	0x21
 4372 0236 75030000 		.long	0x375
 4373 023a 38       		.byte	0x38
 4374 023b 0A       		.uleb128 0xa
 4375 023c 98040000 		.long	.LASF44
 4376 0240 4A01     		.value	0x14a
 4377 0242 21       		.byte	0x21
 4378 0243 A1030000 		.long	0x3a1
 4379 0247 3C       		.byte	0x3c
 4380 0248 0A       		.uleb128 0xa
 4381 0249 9B000000 		.long	.LASF45
 4382 024d 5001     		.value	0x150
 4383 024f 21       		.byte	0x21
 4384 0250 4B010000 		.long	0x14b
 4385 0254 44       		.byte	0x44
 4386 0255 0A       		.uleb128 0xa
 4387 0256 1C030000 		.long	.LASF46
 4388 025a 5701     		.value	0x157
 4389 025c 22       		.byte	0x22
 4390 025d E5060000 		.long	0x6e5
 4391 0261 48       		.byte	0x48
 4392 0262 0A       		.uleb128 0xa
 4393 0263 80000000 		.long	.LASF47
 4394 0267 5B01     		.value	0x15b
 4395 0269 21       		.byte	0x21
 4396 026a 33010000 		.long	0x133
 4397 026e 4C       		.byte	0x4c
 4398 026f 00       		.byte	0
 4399 0270 02       		.uleb128 0x2
 4400 0271 A7080000 		.long	.LASF48
 4401 0275 0D       		.byte	0xd
 4402 0276 8A       		.byte	0x8a
 4403 0277 1F       		.byte	0x1f
 4404 0278 7C020000 		.long	0x27c
 4405 027c 27       		.uleb128 0x27
 4406 027d D7030000 		.long	.LASF50
 4407 0281 E0       		.byte	0xe0
 4408 0282 9701     		.value	0x197
GAS LISTING /tmp/cctFPqVW.s 			page 82


 4409 0284 08       		.byte	0x8
 4410 0285 FE020000 		.long	0x2fe
 4411 0289 0A       		.uleb128 0xa
 4412 028a 3E070000 		.long	.LASF51
 4413 028e 9B01     		.value	0x19b
 4414 0290 21       		.byte	0x21
 4415 0291 1C070000 		.long	0x71c
 4416 0295 00       		.byte	0
 4417 0296 0A       		.uleb128 0xa
 4418 0297 0D010000 		.long	.LASF52
 4419 029b 9F01     		.value	0x19f
 4420 029d 21       		.byte	0x21
 4421 029e 64050000 		.long	0x564
 4422 02a2 10       		.byte	0x10
 4423 02a3 0A       		.uleb128 0xa
 4424 02a4 BC080000 		.long	.LASF53
 4425 02a8 A601     		.value	0x1a6
 4426 02aa 21       		.byte	0x21
 4427 02ab 8B050000 		.long	0x58b
 4428 02af 28       		.byte	0x28
 4429 02b0 0A       		.uleb128 0xa
 4430 02b1 DC000000 		.long	.LASF54
 4431 02b5 AB01     		.value	0x1ab
 4432 02b7 21       		.byte	0x21
 4433 02b8 63010000 		.long	0x163
 4434 02bc 30       		.byte	0x30
 4435 02bd 0A       		.uleb128 0xa
 4436 02be 3B030000 		.long	.LASF55
 4437 02c2 B101     		.value	0x1b1
 4438 02c4 21       		.byte	0x21
 4439 02c5 25030000 		.long	0x325
 4440 02c9 34       		.byte	0x34
 4441 02ca 0A       		.uleb128 0xa
 4442 02cb 06060000 		.long	.LASF56
 4443 02cf B601     		.value	0x1b6
 4444 02d1 22       		.byte	0x22
 4445 02d2 86070000 		.long	0x786
 4446 02d6 38       		.byte	0x38
 4447 02d7 0A       		.uleb128 0xa
 4448 02d8 C3050000 		.long	.LASF57
 4449 02dc BA01     		.value	0x1ba
 4450 02de 21       		.byte	0x21
 4451 02df 6F010000 		.long	0x16f
 4452 02e3 3C       		.byte	0x3c
 4453 02e4 0A       		.uleb128 0xa
 4454 02e5 96080000 		.long	.LASF58
 4455 02e9 BF01     		.value	0x1bf
 4456 02eb 21       		.byte	0x21
 4457 02ec 6F010000 		.long	0x16f
 4458 02f0 8C       		.byte	0x8c
 4459 02f1 2D       		.uleb128 0x2d
 4460 02f2 64626700 		.string	"dbg"
 4461 02f6 C401     		.value	0x1c4
 4462 02f8 4C030000 		.long	0x34c
 4463 02fc DC       		.byte	0xdc
 4464 02fd 00       		.byte	0
 4465 02fe 02       		.uleb128 0x2
GAS LISTING /tmp/cctFPqVW.s 			page 83


 4466 02ff 4E040000 		.long	.LASF59
 4467 0303 0F       		.byte	0xf
 4468 0304 3F       		.byte	0x3f
 4469 0305 12       		.byte	0x12
 4470 0306 E6000000 		.long	0xe6
 4471 030a 0F       		.uleb128 0xf
 4472 030b AC030000 		.long	.LASF60
 4473 030f 04       		.byte	0x4
 4474 0310 0F       		.byte	0xf
 4475 0311 44       		.byte	0x44
 4476 0312 10       		.byte	0x10
 4477 0313 25030000 		.long	0x325
 4478 0317 03       		.uleb128 0x3
 4479 0318 2A050000 		.long	.LASF61
 4480 031c 0F       		.byte	0xf
 4481 031d 48       		.byte	0x48
 4482 031e 21       		.byte	0x21
 4483 031f FE020000 		.long	0x2fe
 4484 0323 00       		.byte	0
 4485 0324 00       		.byte	0
 4486 0325 02       		.uleb128 0x2
 4487 0326 D0070000 		.long	.LASF62
 4488 032a 0F       		.byte	0xf
 4489 032b 49       		.byte	0x49
 4490 032c 03       		.byte	0x3
 4491 032d 0A030000 		.long	0x30a
 4492 0331 0F       		.uleb128 0xf
 4493 0332 D4010000 		.long	.LASF63
 4494 0336 04       		.byte	0x4
 4495 0337 10       		.byte	0x10
 4496 0338 3E       		.byte	0x3e
 4497 0339 10       		.byte	0x10
 4498 033a 4C030000 		.long	0x34c
 4499 033e 03       		.uleb128 0x3
 4500 033f 7C050000 		.long	.LASF64
 4501 0343 10       		.byte	0x10
 4502 0344 46       		.byte	0x46
 4503 0345 24       		.byte	0x24
 4504 0346 4C000000 		.long	0x4c
 4505 034a 00       		.byte	0
 4506 034b 00       		.byte	0
 4507 034c 02       		.uleb128 0x2
 4508 034d BC040000 		.long	.LASF65
 4509 0351 10       		.byte	0x10
 4510 0352 51       		.byte	0x51
 4511 0353 03       		.byte	0x3
 4512 0354 31030000 		.long	0x331
 4513 0358 02       		.uleb128 0x2
 4514 0359 76000000 		.long	.LASF66
 4515 035d 07       		.byte	0x7
 4516 035e 6D       		.byte	0x6d
 4517 035f 12       		.byte	0x12
 4518 0360 E6000000 		.long	0xe6
 4519 0364 26       		.uleb128 0x26
 4520 0365 58030000 		.long	0x358
 4521 0369 02       		.uleb128 0x2
 4522 036a 63050000 		.long	.LASF67
GAS LISTING /tmp/cctFPqVW.s 			page 84


 4523 036e 07       		.byte	0x7
 4524 036f 79       		.byte	0x79
 4525 0370 12       		.byte	0x12
 4526 0371 E6000000 		.long	0xe6
 4527 0375 02       		.uleb128 0x2
 4528 0376 DA050000 		.long	.LASF68
 4529 037a 02       		.byte	0x2
 4530 037b 32       		.byte	0x32
 4531 037c 18       		.byte	0x18
 4532 037d 81030000 		.long	0x381
 4533 0381 0F       		.uleb128 0xf
 4534 0382 42010000 		.long	.LASF69
 4535 0386 04       		.byte	0x4
 4536 0387 02       		.byte	0x2
 4537 0388 38       		.byte	0x38
 4538 0389 08       		.byte	0x8
 4539 038a 9C030000 		.long	0x39c
 4540 038e 03       		.uleb128 0x3
 4541 038f B1000000 		.long	.LASF70
 4542 0393 02       		.byte	0x2
 4543 0394 39       		.byte	0x39
 4544 0395 1A       		.byte	0x1a
 4545 0396 9C030000 		.long	0x39c
 4546 039a 00       		.byte	0
 4547 039b 00       		.byte	0
 4548 039c 09       		.uleb128 0x9
 4549 039d 75030000 		.long	0x375
 4550 03a1 02       		.uleb128 0x2
 4551 03a2 71050000 		.long	.LASF71
 4552 03a6 02       		.byte	0x2
 4553 03a7 3F       		.byte	0x3f
 4554 03a8 19       		.byte	0x19
 4555 03a9 B2030000 		.long	0x3b2
 4556 03ad 0C       		.uleb128 0xc
 4557 03ae A1030000 		.long	0x3a1
 4558 03b2 0F       		.uleb128 0xf
 4559 03b3 FC070000 		.long	.LASF72
 4560 03b7 08       		.byte	0x8
 4561 03b8 02       		.byte	0x2
 4562 03b9 45       		.byte	0x45
 4563 03ba 08       		.byte	0x8
 4564 03bb DA030000 		.long	0x3da
 4565 03bf 03       		.uleb128 0x3
 4566 03c0 B1000000 		.long	.LASF70
 4567 03c4 02       		.byte	0x2
 4568 03c5 46       		.byte	0x46
 4569 03c6 1A       		.byte	0x1a
 4570 03c7 DA030000 		.long	0x3da
 4571 03cb 00       		.byte	0
 4572 03cc 03       		.uleb128 0x3
 4573 03cd 89010000 		.long	.LASF73
 4574 03d1 02       		.byte	0x2
 4575 03d2 47       		.byte	0x47
 4576 03d3 1A       		.byte	0x1a
 4577 03d4 DA030000 		.long	0x3da
 4578 03d8 04       		.byte	0x4
 4579 03d9 00       		.byte	0
GAS LISTING /tmp/cctFPqVW.s 			page 85


 4580 03da 09       		.uleb128 0x9
 4581 03db A1030000 		.long	0x3a1
 4582 03df 02       		.uleb128 0x2
 4583 03e0 69030000 		.long	.LASF74
 4584 03e4 02       		.byte	0x2
 4585 03e5 4E       		.byte	0x4e
 4586 03e6 22       		.byte	0x22
 4587 03e7 EB030000 		.long	0x3eb
 4588 03eb 0F       		.uleb128 0xf
 4589 03ec DE070000 		.long	.LASF75
 4590 03f0 0C       		.byte	0xc
 4591 03f1 02       		.byte	0x2
 4592 03f2 55       		.byte	0x55
 4593 03f3 08       		.byte	0x8
 4594 03f4 20040000 		.long	0x420
 4595 03f8 03       		.uleb128 0x3
 4596 03f9 B1000000 		.long	.LASF70
 4597 03fd 02       		.byte	0x2
 4598 03fe 56       		.byte	0x56
 4599 03ff 1A       		.byte	0x1a
 4600 0400 20040000 		.long	0x420
 4601 0404 00       		.byte	0
 4602 0405 03       		.uleb128 0x3
 4603 0406 89010000 		.long	.LASF73
 4604 040a 02       		.byte	0x2
 4605 040b 57       		.byte	0x57
 4606 040c 1A       		.byte	0x1a
 4607 040d 20040000 		.long	0x420
 4608 0411 04       		.byte	0x4
 4609 0412 03       		.uleb128 0x3
 4610 0413 13040000 		.long	.LASF76
 4611 0417 02       		.byte	0x2
 4612 0418 58       		.byte	0x58
 4613 0419 19       		.byte	0x19
 4614 041a 33010000 		.long	0x133
 4615 041e 08       		.byte	0x8
 4616 041f 00       		.byte	0
 4617 0420 09       		.uleb128 0x9
 4618 0421 DF030000 		.long	0x3df
 4619 0425 02       		.uleb128 0x2
 4620 0426 3E040000 		.long	.LASF77
 4621 042a 02       		.byte	0x2
 4622 042b 5F       		.byte	0x5f
 4623 042c 1E       		.byte	0x1e
 4624 042d 31040000 		.long	0x431
 4625 0431 0F       		.uleb128 0xf
 4626 0432 F6010000 		.long	.LASF78
 4627 0436 0C       		.byte	0xc
 4628 0437 02       		.byte	0x2
 4629 0438 64       		.byte	0x64
 4630 0439 08       		.byte	0x8
 4631 043a 66040000 		.long	0x466
 4632 043e 03       		.uleb128 0x3
 4633 043f B1000000 		.long	.LASF70
 4634 0443 02       		.byte	0x2
 4635 0444 65       		.byte	0x65
 4636 0445 1A       		.byte	0x1a
GAS LISTING /tmp/cctFPqVW.s 			page 86


 4637 0446 66040000 		.long	0x466
 4638 044a 00       		.byte	0
 4639 044b 03       		.uleb128 0x3
 4640 044c 89010000 		.long	.LASF73
 4641 0450 02       		.byte	0x2
 4642 0451 66       		.byte	0x66
 4643 0452 1A       		.byte	0x1a
 4644 0453 66040000 		.long	0x466
 4645 0457 04       		.byte	0x4
 4646 0458 03       		.uleb128 0x3
 4647 0459 E3080000 		.long	.LASF79
 4648 045d 02       		.byte	0x2
 4649 045e 67       		.byte	0x67
 4650 045f 19       		.byte	0x19
 4651 0460 69030000 		.long	0x369
 4652 0464 08       		.byte	0x8
 4653 0465 00       		.byte	0
 4654 0466 09       		.uleb128 0x9
 4655 0467 25040000 		.long	0x425
 4656 046b 09       		.uleb128 0x9
 4657 046c DA000000 		.long	0xda
 4658 0470 2E       		.uleb128 0x2e
 4659 0471 10       		.byte	0x10
 4660 0472 04       		.byte	0x4
 4661 0473 87       		.byte	0x87
 4662 0474 84040000 		.long	0x484
 4663 0478 15       		.uleb128 0x15
 4664 0479 6100     		.string	"a"
 4665 047b 04       		.byte	0x4
 4666 047c 88       		.byte	0x88
 4667 047d 0B       		.byte	0xb
 4668 047e 84040000 		.long	0x484
 4669 0482 00       		.byte	0
 4670 0483 00       		.byte	0
 4671 0484 10       		.uleb128 0x10
 4672 0485 DA000000 		.long	0xda
 4673 0489 94040000 		.long	0x494
 4674 048d 11       		.uleb128 0x11
 4675 048e 32000000 		.long	0x32
 4676 0492 0F       		.byte	0xf
 4677 0493 00       		.byte	0
 4678 0494 3E       		.uleb128 0x3e
 4679 0495 DD020000 		.long	.LASF198
 4680 0499 04       		.byte	0x4
 4681 049a 89       		.byte	0x89
 4682 049b 03       		.byte	0x3
 4683 049c 70040000 		.long	0x470
 4684 04a0 10       		.byte	0x10
 4685 04a1 02       		.uleb128 0x2
 4686 04a2 B5080000 		.long	.LASF80
 4687 04a6 04       		.byte	0x4
 4688 04a7 8E       		.byte	0x8e
 4689 04a8 0F       		.byte	0xf
 4690 04a9 CC000000 		.long	0xcc
 4691 04ad 0F       		.uleb128 0xf
 4692 04ae 2A060000 		.long	.LASF81
 4693 04b2 14       		.byte	0x14
GAS LISTING /tmp/cctFPqVW.s 			page 87


 4694 04b3 04       		.byte	0x4
 4695 04b4 9D       		.byte	0x9d
 4696 04b5 08       		.byte	0x8
 4697 04b6 FC040000 		.long	0x4fc
 4698 04ba 15       		.uleb128 0x15
 4699 04bb 65627800 		.string	"ebx"
 4700 04bf 04       		.byte	0x4
 4701 04c0 9E       		.byte	0x9e
 4702 04c1 0B       		.byte	0xb
 4703 04c2 A1040000 		.long	0x4a1
 4704 04c6 00       		.byte	0
 4705 04c7 15       		.uleb128 0x15
 4706 04c8 65646900 		.string	"edi"
 4707 04cc 04       		.byte	0x4
 4708 04cd 9F       		.byte	0x9f
 4709 04ce 0B       		.byte	0xb
 4710 04cf A1040000 		.long	0x4a1
 4711 04d3 04       		.byte	0x4
 4712 04d4 15       		.uleb128 0x15
 4713 04d5 65736900 		.string	"esi"
 4714 04d9 04       		.byte	0x4
 4715 04da A0       		.byte	0xa0
 4716 04db 0B       		.byte	0xb
 4717 04dc A1040000 		.long	0x4a1
 4718 04e0 08       		.byte	0x8
 4719 04e1 15       		.uleb128 0x15
 4720 04e2 65627000 		.string	"ebp"
 4721 04e6 04       		.byte	0x4
 4722 04e7 A1       		.byte	0xa1
 4723 04e8 0B       		.byte	0xb
 4724 04e9 A1040000 		.long	0x4a1
 4725 04ed 0C       		.byte	0xc
 4726 04ee 15       		.uleb128 0x15
 4727 04ef 65697000 		.string	"eip"
 4728 04f3 04       		.byte	0x4
 4729 04f4 A2       		.byte	0xa2
 4730 04f5 0B       		.byte	0xb
 4731 04f6 A1040000 		.long	0x4a1
 4732 04fa 10       		.byte	0x10
 4733 04fb 00       		.byte	0
 4734 04fc 0F       		.uleb128 0xf
 4735 04fd 14010000 		.long	.LASF82
 4736 0501 04       		.byte	0x4
 4737 0502 04       		.byte	0x4
 4738 0503 AA       		.byte	0xaa
 4739 0504 08       		.byte	0x8
 4740 0505 16050000 		.long	0x516
 4741 0509 15       		.uleb128 0x15
 4742 050a 737000   		.string	"sp"
 4743 050d 04       		.byte	0x4
 4744 050e AB       		.byte	0xab
 4745 050f 17       		.byte	0x17
 4746 0510 16050000 		.long	0x516
 4747 0514 00       		.byte	0
 4748 0515 00       		.byte	0
 4749 0516 09       		.uleb128 0x9
 4750 0517 AD040000 		.long	0x4ad
GAS LISTING /tmp/cctFPqVW.s 			page 88


 4751 051b 13       		.uleb128 0x13
 4752 051c 01       		.byte	0x1
 4753 051d 02       		.byte	0x2
 4754 051e 82030000 		.long	.LASF83
 4755 0522 3F       		.uleb128 0x3f
 4756 0523 88030000 		.long	.LASF117
 4757 0527 04       		.byte	0x4
 4758 0528 1C01     		.value	0x11c
 4759 052a 11       		.byte	0x11
 4760 052b 03010000 		.long	0x103
 4761 052f 0F       		.uleb128 0xf
 4762 0530 24030000 		.long	.LASF84
 4763 0534 18       		.byte	0x18
 4764 0535 0E       		.byte	0xe
 4765 0536 64       		.byte	0x64
 4766 0537 10       		.byte	0x10
 4767 0538 64050000 		.long	0x564
 4768 053c 03       		.uleb128 0x3
 4769 053d 15070000 		.long	.LASF85
 4770 0541 0E       		.byte	0xe
 4771 0542 68       		.byte	0x68
 4772 0543 21       		.byte	0x21
 4773 0544 25040000 		.long	0x425
 4774 0548 00       		.byte	0
 4775 0549 03       		.uleb128 0x3
 4776 054a BB050000 		.long	.LASF86
 4777 054e 0E       		.byte	0xe
 4778 054f 6D       		.byte	0x6d
 4779 0550 21       		.byte	0x21
 4780 0551 64030000 		.long	0x364
 4781 0555 0C       		.byte	0xc
 4782 0556 03       		.uleb128 0x3
 4783 0557 53010000 		.long	.LASF87
 4784 055b 0E       		.byte	0xe
 4785 055c 81       		.byte	0x81
 4786 055d 21       		.byte	0x21
 4787 055e FE000000 		.long	0xfe
 4788 0562 10       		.byte	0x10
 4789 0563 00       		.byte	0
 4790 0564 02       		.uleb128 0x2
 4791 0565 56080000 		.long	.LASF88
 4792 0569 0E       		.byte	0xe
 4793 056a 83       		.byte	0x83
 4794 056b 03       		.byte	0x3
 4795 056c 2F050000 		.long	0x52f
 4796 0570 0F       		.uleb128 0xf
 4797 0571 4F000000 		.long	.LASF89
 4798 0575 08       		.byte	0x8
 4799 0576 0E       		.byte	0xe
 4800 0577 88       		.byte	0x88
 4801 0578 10       		.byte	0x10
 4802 0579 8B050000 		.long	0x58b
 4803 057d 03       		.uleb128 0x3
 4804 057e C2070000 		.long	.LASF90
 4805 0582 0E       		.byte	0xe
 4806 0583 8C       		.byte	0x8c
 4807 0584 21       		.byte	0x21
GAS LISTING /tmp/cctFPqVW.s 			page 89


 4808 0585 A1030000 		.long	0x3a1
 4809 0589 00       		.byte	0
 4810 058a 00       		.byte	0
 4811 058b 02       		.uleb128 0x2
 4812 058c F3040000 		.long	.LASF91
 4813 0590 0E       		.byte	0xe
 4814 0591 8D       		.byte	0x8d
 4815 0592 03       		.byte	0x3
 4816 0593 70050000 		.long	0x570
 4817 0597 02       		.uleb128 0x2
 4818 0598 5A040000 		.long	.LASF92
 4819 059c 0E       		.byte	0xe
 4820 059d 92       		.byte	0x92
 4821 059e 14       		.byte	0x14
 4822 059f A3050000 		.long	0x5a3
 4823 05a3 09       		.uleb128 0x9
 4824 05a4 6F010000 		.long	0x16f
 4825 05a8 0F       		.uleb128 0xf
 4826 05a9 8E010000 		.long	.LASF93
 4827 05ad 08       		.byte	0x8
 4828 05ae 0E       		.byte	0xe
 4829 05af 97       		.byte	0x97
 4830 05b0 10       		.byte	0x10
 4831 05b1 C3050000 		.long	0x5c3
 4832 05b5 03       		.uleb128 0x3
 4833 05b6 C2070000 		.long	.LASF90
 4834 05ba 0E       		.byte	0xe
 4835 05bb 9B       		.byte	0x9b
 4836 05bc 21       		.byte	0x21
 4837 05bd A1030000 		.long	0x3a1
 4838 05c1 00       		.byte	0
 4839 05c2 00       		.byte	0
 4840 05c3 02       		.uleb128 0x2
 4841 05c4 0C030000 		.long	.LASF94
 4842 05c8 0E       		.byte	0xe
 4843 05c9 9C       		.byte	0x9c
 4844 05ca 03       		.byte	0x3
 4845 05cb A8050000 		.long	0x5a8
 4846 05cf 02       		.uleb128 0x2
 4847 05d0 52050000 		.long	.LASF95
 4848 05d4 0E       		.byte	0xe
 4849 05d5 A1       		.byte	0xa1
 4850 05d6 10       		.byte	0x10
 4851 05d7 DB050000 		.long	0x5db
 4852 05db 09       		.uleb128 0x9
 4853 05dc E0050000 		.long	0x5e0
 4854 05e0 2F       		.uleb128 0x2f
 4855 05e1 EB050000 		.long	0x5eb
 4856 05e5 16       		.uleb128 0x16
 4857 05e6 A3050000 		.long	0x5a3
 4858 05ea 00       		.byte	0
 4859 05eb 40       		.uleb128 0x40
 4860 05ec 0C       		.byte	0xc
 4861 05ed 0E       		.byte	0xe
 4862 05ee AD       		.byte	0xad
 4863 05ef 03       		.byte	0x3
 4864 05f0 13060000 		.long	0x613
GAS LISTING /tmp/cctFPqVW.s 			page 90


 4865 05f4 28       		.uleb128 0x28
 4866 05f5 E4010000 		.long	.LASF96
 4867 05f9 B1       		.byte	0xb1
 4868 05fa 75030000 		.long	0x375
 4869 05fe 28       		.uleb128 0x28
 4870 05ff C2070000 		.long	.LASF90
 4871 0603 B5       		.byte	0xb5
 4872 0604 A1030000 		.long	0x3a1
 4873 0608 28       		.uleb128 0x28
 4874 0609 D0020000 		.long	.LASF97
 4875 060d B9       		.byte	0xb9
 4876 060e DF030000 		.long	0x3df
 4877 0612 00       		.byte	0
 4878 0613 41       		.uleb128 0x41
 4879 0614 04       		.byte	0x4
 4880 0615 0E       		.byte	0xe
 4881 0616 0201     		.value	0x102
 4882 0618 03       		.byte	0x3
 4883 0619 7E060000 		.long	0x67e
 4884 061d 1C       		.uleb128 0x1c
 4885 061e 50030000 		.long	.LASF98
 4886 0622 0901     		.value	0x109
 4887 0624 21       		.byte	0x21
 4888 0625 3F010000 		.long	0x13f
 4889 0629 1C       		.uleb128 0x1c
 4890 062a 50090000 		.long	.LASF99
 4891 062e 1001     		.value	0x110
 4892 0630 21       		.byte	0x21
 4893 0631 3F010000 		.long	0x13f
 4894 0635 1C       		.uleb128 0x1c
 4895 0636 F3000000 		.long	.LASF100
 4896 063a 1701     		.value	0x117
 4897 063c 22       		.byte	0x22
 4898 063d CC000000 		.long	0xcc
 4899 0641 1C       		.uleb128 0x1c
 4900 0642 C4080000 		.long	.LASF101
 4901 0646 1E01     		.value	0x11e
 4902 0648 22       		.byte	0x22
 4903 0649 7E060000 		.long	0x67e
 4904 064d 1C       		.uleb128 0x1c
 4905 064e 25020000 		.long	.LASF102
 4906 0652 2301     		.value	0x123
 4907 0654 21       		.byte	0x21
 4908 0655 3F010000 		.long	0x13f
 4909 0659 1C       		.uleb128 0x1c
 4910 065a D7070000 		.long	.LASF103
 4911 065e 2C01     		.value	0x12c
 4912 0660 22       		.byte	0x22
 4913 0661 AB060000 		.long	0x6ab
 4914 0665 1C       		.uleb128 0x1c
 4915 0666 15000000 		.long	.LASF104
 4916 066a 3501     		.value	0x135
 4917 066c 22       		.byte	0x22
 4918 066d E5060000 		.long	0x6e5
 4919 0671 1C       		.uleb128 0x1c
 4920 0672 72010000 		.long	.LASF105
 4921 0676 3D01     		.value	0x13d
GAS LISTING /tmp/cctFPqVW.s 			page 91


 4922 0678 21       		.byte	0x21
 4923 0679 4B010000 		.long	0x14b
 4924 067d 00       		.byte	0
 4925 067e 09       		.uleb128 0x9
 4926 067f 97050000 		.long	0x597
 4927 0683 0F       		.uleb128 0xf
 4928 0684 59020000 		.long	.LASF106
 4929 0688 0C       		.byte	0xc
 4930 0689 11       		.byte	0x11
 4931 068a 34       		.byte	0x34
 4932 068b 10       		.byte	0x10
 4933 068c AB060000 		.long	0x6ab
 4934 0690 03       		.uleb128 0x3
 4935 0691 C2070000 		.long	.LASF90
 4936 0695 11       		.byte	0x11
 4937 0696 35       		.byte	0x35
 4938 0697 19       		.byte	0x19
 4939 0698 A1030000 		.long	0x3a1
 4940 069c 00       		.byte	0
 4941 069d 15       		.uleb128 0x15
 4942 069e 636E7400 		.string	"cnt"
 4943 06a2 11       		.byte	0x11
 4944 06a3 37       		.byte	0x37
 4945 06a4 19       		.byte	0x19
 4946 06a5 57010000 		.long	0x157
 4947 06a9 08       		.byte	0x8
 4948 06aa 00       		.byte	0
 4949 06ab 09       		.uleb128 0x9
 4950 06ac 83060000 		.long	0x683
 4951 06b0 0F       		.uleb128 0xf
 4952 06b1 4A010000 		.long	.LASF107
 4953 06b5 10       		.byte	0x10
 4954 06b6 12       		.byte	0x12
 4955 06b7 39       		.byte	0x39
 4956 06b8 08       		.byte	0x8
 4957 06b9 E5060000 		.long	0x6e5
 4958 06bd 03       		.uleb128 0x3
 4959 06be C2070000 		.long	.LASF90
 4960 06c2 12       		.byte	0x12
 4961 06c3 3A       		.byte	0x3a
 4962 06c4 19       		.byte	0x19
 4963 06c5 A1030000 		.long	0x3a1
 4964 06c9 00       		.byte	0
 4965 06ca 03       		.uleb128 0x3
 4966 06cb 06030000 		.long	.LASF33
 4967 06cf 12       		.byte	0x12
 4968 06d0 3C       		.byte	0x3c
 4969 06d1 1A       		.byte	0x1a
 4970 06d2 A3050000 		.long	0x5a3
 4971 06d6 08       		.byte	0x8
 4972 06d7 03       		.uleb128 0x3
 4973 06d8 B1000000 		.long	.LASF70
 4974 06dc 12       		.byte	0x12
 4975 06dd 3E       		.byte	0x3e
 4976 06de 1A       		.byte	0x1a
 4977 06df 35080000 		.long	0x835
 4978 06e3 0C       		.byte	0xc
GAS LISTING /tmp/cctFPqVW.s 			page 92


 4979 06e4 00       		.byte	0
 4980 06e5 09       		.uleb128 0x9
 4981 06e6 B0060000 		.long	0x6b0
 4982 06ea 09       		.uleb128 0x9
 4983 06eb 70020000 		.long	0x270
 4984 06ef 09       		.uleb128 0x9
 4985 06f0 94040000 		.long	0x494
 4986 06f4 27       		.uleb128 0x27
 4987 06f5 21010000 		.long	.LASF108
 4988 06f9 10       		.byte	0x10
 4989 06fa 6C01     		.value	0x16c
 4990 06fc 10       		.byte	0x10
 4991 06fd 1C070000 		.long	0x71c
 4992 0701 0A       		.uleb128 0xa
 4993 0702 D0020000 		.long	.LASF97
 4994 0706 7101     		.value	0x171
 4995 0708 21       		.byte	0x21
 4996 0709 DF030000 		.long	0x3df
 4997 070d 00       		.byte	0
 4998 070e 0A       		.uleb128 0xa
 4999 070f 0D090000 		.long	.LASF109
 5000 0713 7501     		.value	0x175
 5001 0715 22       		.byte	0x22
 5002 0716 A3050000 		.long	0x5a3
 5003 071a 0C       		.byte	0xc
 5004 071b 00       		.byte	0
 5005 071c 30       		.uleb128 0x30
 5006 071d A0070000 		.long	.LASF110
 5007 0721 7601     		.value	0x176
 5008 0723 F4060000 		.long	0x6f4
 5009 0727 27       		.uleb128 0x27
 5010 0728 FF060000 		.long	.LASF111
 5011 072c 14       		.byte	0x14
 5012 072d 7B01     		.value	0x17b
 5013 072f 10       		.byte	0x10
 5014 0730 76070000 		.long	0x776
 5015 0734 0A       		.uleb128 0xa
 5016 0735 59070000 		.long	.LASF39
 5017 0739 7F01     		.value	0x17f
 5018 073b 22       		.byte	0x22
 5019 073c 47000000 		.long	0x47
 5020 0740 00       		.byte	0
 5021 0741 0A       		.uleb128 0xa
 5022 0742 00000000 		.long	.LASF112
 5023 0746 8301     		.value	0x183
 5024 0748 22       		.byte	0x22
 5025 0749 EF060000 		.long	0x6ef
 5026 074d 04       		.byte	0x4
 5027 074e 0A       		.uleb128 0xa
 5028 074f F4060000 		.long	.LASF113
 5029 0753 8701     		.value	0x187
 5030 0755 22       		.byte	0x22
 5031 0756 EF060000 		.long	0x6ef
 5032 075a 08       		.byte	0x8
 5033 075b 0A       		.uleb128 0xa
 5034 075c 86050000 		.long	.LASF114
 5035 0760 8C01     		.value	0x18c
GAS LISTING /tmp/cctFPqVW.s 			page 93


 5036 0762 22       		.byte	0x22
 5037 0763 EF060000 		.long	0x6ef
 5038 0767 0C       		.byte	0xc
 5039 0768 0A       		.uleb128 0xa
 5040 0769 1C050000 		.long	.LASF115
 5041 076d 9001     		.value	0x190
 5042 076f 22       		.byte	0x22
 5043 0770 EF060000 		.long	0x6ef
 5044 0774 10       		.byte	0x10
 5045 0775 00       		.byte	0
 5046 0776 30       		.uleb128 0x30
 5047 0777 6E020000 		.long	.LASF116
 5048 077b 9201     		.value	0x192
 5049 077d 27070000 		.long	0x727
 5050 0781 0C       		.uleb128 0xc
 5051 0782 76070000 		.long	0x776
 5052 0786 09       		.uleb128 0x9
 5053 0787 81070000 		.long	0x781
 5054 078b 42       		.uleb128 0x42
 5055 078c 63683000 		.string	"ch0"
 5056 0790 03       		.byte	0x3
 5057 0791 4101     		.value	0x141
 5058 0793 16       		.byte	0x16
 5059 0794 70020000 		.long	0x270
 5060 0798 02       		.uleb128 0x2
 5061 0799 83020000 		.long	.LASF118
 5062 079d 05       		.byte	0x5
 5063 079e 34       		.byte	0x34
 5064 079f 10       		.byte	0x10
 5065 07a0 A4070000 		.long	0x7a4
 5066 07a4 09       		.uleb128 0x9
 5067 07a5 A9070000 		.long	0x7a9
 5068 07a9 2F       		.uleb128 0x2f
 5069 07aa B4070000 		.long	0x7b4
 5070 07ae 16       		.uleb128 0x16
 5071 07af CC000000 		.long	0xcc
 5072 07b3 00       		.byte	0
 5073 07b4 2E       		.uleb128 0x2e
 5074 07b5 1C       		.byte	0x1c
 5075 07b6 05       		.byte	0x5
 5076 07b7 39       		.byte	0x39
 5077 07b8 18080000 		.long	0x818
 5078 07bc 03       		.uleb128 0x3
 5079 07bd 59070000 		.long	.LASF39
 5080 07c1 05       		.byte	0x5
 5081 07c2 3D       		.byte	0x3d
 5082 07c3 22       		.byte	0x22
 5083 07c4 47000000 		.long	0x47
 5084 07c8 00       		.byte	0
 5085 07c9 03       		.uleb128 0x3
 5086 07ca 41000000 		.long	.LASF119
 5087 07ce 05       		.byte	0x5
 5088 07cf 41       		.byte	0x41
 5089 07d0 22       		.byte	0x22
 5090 07d1 EF060000 		.long	0x6ef
 5091 07d5 04       		.byte	0x4
 5092 07d6 03       		.uleb128 0x3
GAS LISTING /tmp/cctFPqVW.s 			page 94


 5093 07d7 CB040000 		.long	.LASF120
 5094 07db 05       		.byte	0x5
 5095 07dc 45       		.byte	0x45
 5096 07dd 22       		.byte	0x22
 5097 07de EF060000 		.long	0x6ef
 5098 07e2 08       		.byte	0x8
 5099 07e3 03       		.uleb128 0x3
 5100 07e4 13040000 		.long	.LASF76
 5101 07e8 05       		.byte	0x5
 5102 07e9 49       		.byte	0x49
 5103 07ea 21       		.byte	0x21
 5104 07eb 33010000 		.long	0x133
 5105 07ef 0C       		.byte	0xc
 5106 07f0 03       		.uleb128 0x3
 5107 07f1 50080000 		.long	.LASF121
 5108 07f5 05       		.byte	0x5
 5109 07f6 4D       		.byte	0x4d
 5110 07f7 21       		.byte	0x21
 5111 07f8 98070000 		.long	0x798
 5112 07fc 10       		.byte	0x10
 5113 07fd 15       		.uleb128 0x15
 5114 07fe 61726700 		.string	"arg"
 5115 0802 05       		.byte	0x5
 5116 0803 51       		.byte	0x51
 5117 0804 22       		.byte	0x22
 5118 0805 CC000000 		.long	0xcc
 5119 0809 14       		.byte	0x14
 5120 080a 03       		.uleb128 0x3
 5121 080b 06030000 		.long	.LASF33
 5122 080f 05       		.byte	0x5
 5123 0810 55       		.byte	0x55
 5124 0811 22       		.byte	0x22
 5125 0812 EA060000 		.long	0x6ea
 5126 0816 18       		.byte	0x18
 5127 0817 00       		.byte	0
 5128 0818 02       		.uleb128 0x2
 5129 0819 45020000 		.long	.LASF122
 5130 081d 05       		.byte	0x5
 5131 081e 56       		.byte	0x56
 5132 081f 03       		.byte	0x3
 5133 0820 B4070000 		.long	0x7b4
 5134 0824 0C       		.uleb128 0xc
 5135 0825 18080000 		.long	0x818
 5136 0829 02       		.uleb128 0x2
 5137 082a 05080000 		.long	.LASF123
 5138 082e 12       		.byte	0x12
 5139 082f 34       		.byte	0x34
 5140 0830 19       		.byte	0x19
 5141 0831 B0060000 		.long	0x6b0
 5142 0835 09       		.uleb128 0x9
 5143 0836 29080000 		.long	0x829
 5144 083a 31       		.uleb128 0x31
 5145 083b 05040000 		.long	.LASF124
 5146 083f 98       		.byte	0x98
 5147 0840 32       		.uleb128 0x32
 5148 0841 AD070000 		.long	.LASF128
 5149 0845 92       		.byte	0x92
GAS LISTING /tmp/cctFPqVW.s 			page 95


 5150 0846 09       		.byte	0x9
 5151 0847 3F010000 		.long	0x13f
 5152 084b 5A080000 		.long	0x85a
 5153 084f 16       		.uleb128 0x16
 5154 0850 1B010000 		.long	0x11b
 5155 0854 16       		.uleb128 0x16
 5156 0855 69030000 		.long	0x369
 5157 0859 00       		.byte	0
 5158 085a 31       		.uleb128 0x31
 5159 085b C6030000 		.long	.LASF125
 5160 085f 94       		.byte	0x94
 5161 0860 33       		.uleb128 0x33
 5162 0861 64070000 		.long	.LASF126
 5163 0865 91       		.byte	0x91
 5164 0866 70080000 		.long	0x870
 5165 086a 16       		.uleb128 0x16
 5166 086b 1B010000 		.long	0x11b
 5167 086f 00       		.byte	0
 5168 0870 33       		.uleb128 0x33
 5169 0871 89080000 		.long	.LASF127
 5170 0875 93       		.byte	0x93
 5171 0876 85080000 		.long	0x885
 5172 087a 16       		.uleb128 0x16
 5173 087b A3050000 		.long	0x5a3
 5174 087f 16       		.uleb128 0x16
 5175 0880 3F010000 		.long	0x13f
 5176 0884 00       		.byte	0
 5177 0885 32       		.uleb128 0x32
 5178 0886 C8010000 		.long	.LASF129
 5179 088a 90       		.byte	0x90
 5180 088b 0D       		.byte	0xd
 5181 088c A3050000 		.long	0x5a3
 5182 0890 9A080000 		.long	0x89a
 5183 0894 16       		.uleb128 0x16
 5184 0895 A3050000 		.long	0x5a3
 5185 0899 00       		.byte	0
 5186 089a 43       		.uleb128 0x43
 5187 089b FA000000 		.long	.LASF130
 5188 089f 04       		.byte	0x4
 5189 08a0 2301     		.value	0x123
 5190 08a2 29       		.byte	0x29
 5191 08a3 B2080000 		.long	0x8b2
 5192 08a7 16       		.uleb128 0x16
 5193 08a8 B2080000 		.long	0x8b2
 5194 08ac 16       		.uleb128 0x16
 5195 08ad CC000000 		.long	0xcc
 5196 08b1 00       		.byte	0
 5197 08b2 09       		.uleb128 0x9
 5198 08b3 B7080000 		.long	0x8b7
 5199 08b7 44       		.uleb128 0x44
 5200 08b8 3F010000 		.long	0x13f
 5201 08bc C6080000 		.long	0x8c6
 5202 08c0 16       		.uleb128 0x16
 5203 08c1 CC000000 		.long	0xcc
 5204 08c5 00       		.byte	0
 5205 08c6 17       		.uleb128 0x17
 5206 08c7 FC080000 		.long	.LASF131
GAS LISTING /tmp/cctFPqVW.s 			page 96


 5207 08cb 7204     		.value	0x472
 5208 08cd 00000000 		.long	.LFB247
 5209 08d1 40000000 		.long	.LFE247-.LFB247
 5210 08d5 01       		.uleb128 0x1
 5211 08d6 9C       		.byte	0x9c
 5212 08d7 9B090000 		.long	0x99b
 5213 08db 06       		.uleb128 0x6
 5214 08dc 74717000 		.string	"tqp"
 5215 08e0 7204     		.value	0x472
 5216 08e2 28       		.byte	0x28
 5217 08e3 9B090000 		.long	0x99b
 5218 08e7 02       		.uleb128 0x2
 5219 08e8 91       		.byte	0x91
 5220 08e9 00       		.sleb128 0
 5221 08ea 06       		.uleb128 0x6
 5222 08eb 6D736700 		.string	"msg"
 5223 08ef 7204     		.value	0x472
 5224 08f1 33       		.byte	0x33
 5225 08f2 3F010000 		.long	0x13f
 5226 08f6 02       		.uleb128 0x2
 5227 08f7 91       		.byte	0x91
 5228 08f8 04       		.sleb128 4
 5229 08f9 04       		.uleb128 0x4
 5230 08fa 55200000 		.long	0x2055
 5231 08fe 07000000 		.long	.LBI720
 5232 0902 00       		.byte	.LVU1319
 5233 0903 ED020000 		.long	.LLRL138
 5234 0907 01       		.byte	0x1
 5235 0908 7404     		.value	0x474
 5236 090a 0A       		.byte	0xa
 5237 090b 1D090000 		.long	0x91d
 5238 090f 01       		.uleb128 0x1
 5239 0910 66200000 		.long	0x2066
 5240 0914 10000000 		.long	.LLST139
 5241 0918 0C000000 		.long	.LVUS139
 5242 091c 00       		.byte	0
 5243 091d 1A       		.uleb128 0x1a
 5244 091e 431F0000 		.long	0x1f43
 5245 0922 20000000 		.long	.LBI725
 5246 0926 01       		.byte	.LVU1326
 5247 0927 20000000 		.long	.LBB725
 5248 092b 13000000 		.long	.LBE725-.LBB725
 5249 092f 7504     		.value	0x475
 5250 0931 05       		.byte	0x5
 5251 0932 01       		.uleb128 0x1
 5252 0933 5C1F0000 		.long	0x1f5c
 5253 0937 24000000 		.long	.LLST140
 5254 093b 22000000 		.long	.LVUS140
 5255 093f 01       		.uleb128 0x1
 5256 0940 4F1F0000 		.long	0x1f4f
 5257 0944 30000000 		.long	.LLST141
 5258 0948 2E000000 		.long	.LVUS141
 5259 094c 1D       		.uleb128 0x1d
 5260 094d 691F0000 		.long	0x1f69
 5261 0951 3C000000 		.long	.LLST142
 5262 0955 3A000000 		.long	.LVUS142
 5263 0959 04       		.uleb128 0x4
GAS LISTING /tmp/cctFPqVW.s 			page 97


 5264 095a 08200000 		.long	0x2008
 5265 095e 20000000 		.long	.LBI727
 5266 0962 07       		.byte	.LVU1332
 5267 0963 FC020000 		.long	.LLRL143
 5268 0967 05       		.byte	0x5
 5269 0968 9D02     		.value	0x29d
 5270 096a 08       		.byte	0x8
 5271 096b 90090000 		.long	0x990
 5272 096f 01       		.uleb128 0x1
 5273 0970 19200000 		.long	0x2019
 5274 0974 47000000 		.long	.LLST144
 5275 0978 45000000 		.long	.LVUS144
 5276 097c 0B       		.uleb128 0xb
 5277 097d FC020000 		.long	.LLRL143
 5278 0981 1D       		.uleb128 0x1d
 5279 0982 25200000 		.long	0x2025
 5280 0986 53000000 		.long	.LLST145
 5281 098a 51000000 		.long	.LVUS145
 5282 098e 00       		.byte	0
 5283 098f 00       		.byte	0
 5284 0990 05       		.uleb128 0x5
 5285 0991 33000000 		.long	.LVL166
 5286 0995 85080000 		.long	0x885
 5287 0999 00       		.byte	0
 5288 099a 00       		.byte	0
 5289 099b 09       		.uleb128 0x9
 5290 099c C3050000 		.long	0x5c3
 5291 09a0 17       		.uleb128 0x17
 5292 09a1 89000000 		.long	.LASF132
 5293 09a5 6304     		.value	0x463
 5294 09a7 00000000 		.long	.LFB246
 5295 09ab 38000000 		.long	.LFE246-.LFB246
 5296 09af 01       		.uleb128 0x1
 5297 09b0 9C       		.byte	0x9c
 5298 09b1 780A0000 		.long	0xa78
 5299 09b5 06       		.uleb128 0x6
 5300 09b6 74717000 		.string	"tqp"
 5301 09ba 6304     		.value	0x463
 5302 09bc 29       		.byte	0x29
 5303 09bd 9B090000 		.long	0x99b
 5304 09c1 02       		.uleb128 0x2
 5305 09c2 91       		.byte	0x91
 5306 09c3 00       		.sleb128 0
 5307 09c4 06       		.uleb128 0x6
 5308 09c5 6D736700 		.string	"msg"
 5309 09c9 6304     		.value	0x463
 5310 09cb 34       		.byte	0x34
 5311 09cc 3F010000 		.long	0x13f
 5312 09d0 02       		.uleb128 0x2
 5313 09d1 91       		.byte	0x91
 5314 09d2 04       		.sleb128 4
 5315 09d3 18       		.uleb128 0x18
 5316 09d4 55200000 		.long	0x2055
 5317 09d8 13000000 		.long	.LBI712
 5318 09dc 00       		.byte	.LVU1281
 5319 09dd 13000000 		.long	.LBB712
 5320 09e1 02000000 		.long	.LBE712-.LBB712
GAS LISTING /tmp/cctFPqVW.s 			page 98


 5321 09e5 6504     		.value	0x465
 5322 09e7 07       		.byte	0x7
 5323 09e8 FA090000 		.long	0x9fa
 5324 09ec 01       		.uleb128 0x1
 5325 09ed 66200000 		.long	0x2066
 5326 09f1 5E000000 		.long	.LLST131
 5327 09f5 5C000000 		.long	.LVUS131
 5328 09f9 00       		.byte	0
 5329 09fa 1A       		.uleb128 0x1a
 5330 09fb 431F0000 		.long	0x1f43
 5331 09ff 19000000 		.long	.LBI714
 5332 0a03 01       		.byte	.LVU1287
 5333 0a04 19000000 		.long	.LBB714
 5334 0a08 1A000000 		.long	.LBE714-.LBB714
 5335 0a0c 6604     		.value	0x466
 5336 0a0e 05       		.byte	0x5
 5337 0a0f 01       		.uleb128 0x1
 5338 0a10 5C1F0000 		.long	0x1f5c
 5339 0a14 69000000 		.long	.LLST132
 5340 0a18 67000000 		.long	.LVUS132
 5341 0a1c 01       		.uleb128 0x1
 5342 0a1d 4F1F0000 		.long	0x1f4f
 5343 0a21 77000000 		.long	.LLST133
 5344 0a25 73000000 		.long	.LVUS133
 5345 0a29 1D       		.uleb128 0x1d
 5346 0a2a 691F0000 		.long	0x1f69
 5347 0a2e 8A000000 		.long	.LLST134
 5348 0a32 88000000 		.long	.LVUS134
 5349 0a36 04       		.uleb128 0x4
 5350 0a37 08200000 		.long	0x2008
 5351 0a3b 19000000 		.long	.LBI716
 5352 0a3f 07       		.byte	.LVU1293
 5353 0a40 E1020000 		.long	.LLRL135
 5354 0a44 05       		.byte	0x5
 5355 0a45 9D02     		.value	0x29d
 5356 0a47 08       		.byte	0x8
 5357 0a48 6D0A0000 		.long	0xa6d
 5358 0a4c 01       		.uleb128 0x1
 5359 0a4d 19200000 		.long	0x2019
 5360 0a51 95000000 		.long	.LLST136
 5361 0a55 93000000 		.long	.LVUS136
 5362 0a59 0B       		.uleb128 0xb
 5363 0a5a E1020000 		.long	.LLRL135
 5364 0a5e 1D       		.uleb128 0x1d
 5365 0a5f 25200000 		.long	0x2025
 5366 0a63 A0000000 		.long	.LLST137
 5367 0a67 9E000000 		.long	.LVUS137
 5368 0a6b 00       		.byte	0
 5369 0a6c 00       		.byte	0
 5370 0a6d 05       		.uleb128 0x5
 5371 0a6e 30000000 		.long	.LVL159
 5372 0a72 85080000 		.long	0x885
 5373 0a76 00       		.byte	0
 5374 0a77 00       		.byte	0
 5375 0a78 0D       		.uleb128 0xd
 5376 0a79 5B000000 		.long	.LASF140
 5377 0a7d 4E04     		.value	0x44e
GAS LISTING /tmp/cctFPqVW.s 			page 99


 5378 0a7f 07       		.byte	0x7
 5379 0a80 3F010000 		.long	0x13f
 5380 0a84 00000000 		.long	.LFB245
 5381 0a88 57000000 		.long	.LFE245-.LFB245
 5382 0a8c 01       		.uleb128 0x1
 5383 0a8d 9C       		.byte	0x9c
 5384 0a8e 110B0000 		.long	0xb11
 5385 0a92 06       		.uleb128 0x6
 5386 0a93 74717000 		.string	"tqp"
 5387 0a97 4E04     		.value	0x44e
 5388 0a99 2D       		.byte	0x2d
 5389 0a9a 9B090000 		.long	0x99b
 5390 0a9e 02       		.uleb128 0x2
 5391 0a9f 91       		.byte	0x91
 5392 0aa0 00       		.sleb128 0
 5393 0aa1 1B       		.uleb128 0x1b
 5394 0aa2 76080000 		.long	.LASF133
 5395 0aa6 4E04     		.value	0x44e
 5396 0aa8 40       		.byte	0x40
 5397 0aa9 69030000 		.long	0x369
 5398 0aad 02       		.uleb128 0x2
 5399 0aae 91       		.byte	0x91
 5400 0aaf 04       		.sleb128 4
 5401 0ab0 12       		.uleb128 0x12
 5402 0ab1 BF030000 		.long	.LASF134
 5403 0ab5 4F04     		.value	0x44f
 5404 0ab7 0D       		.byte	0xd
 5405 0ab8 A3050000 		.long	0x5a3
 5406 0abc AD000000 		.long	.LLST126
 5407 0ac0 A9000000 		.long	.LVUS126
 5408 0ac4 07       		.uleb128 0x7
 5409 0ac5 A21F0000 		.long	0x1fa2
 5410 0ac9 00000000 		.long	.LBI704
 5411 0acd 02       		.byte	.LVU1250
 5412 0ace C9020000 		.long	.LLRL127
 5413 0ad2 01       		.byte	0x1
 5414 0ad3 4F04     		.value	0x44f
 5415 0ad5 16       		.byte	0x16
 5416 0ad6 04       		.uleb128 0x4
 5417 0ad7 31200000 		.long	0x2031
 5418 0adb 25000000 		.long	.LBI708
 5419 0adf 01       		.byte	.LVU1259
 5420 0ae0 D5020000 		.long	.LLRL128
 5421 0ae4 01       		.byte	0x1
 5422 0ae5 5504     		.value	0x455
 5423 0ae7 03       		.byte	0x3
 5424 0ae8 070B0000 		.long	0xb07
 5425 0aec 01       		.uleb128 0x1
 5426 0aed 49200000 		.long	0x2049
 5427 0af1 BF000000 		.long	.LLST129
 5428 0af5 BD000000 		.long	.LVUS129
 5429 0af9 01       		.uleb128 0x1
 5430 0afa 3D200000 		.long	0x203d
 5431 0afe CA000000 		.long	.LLST130
 5432 0b02 C8000000 		.long	.LVUS130
 5433 0b06 00       		.byte	0
 5434 0b07 05       		.uleb128 0x5
GAS LISTING /tmp/cctFPqVW.s 			page 100


 5435 0b08 3D000000 		.long	.LVL150
 5436 0b0c 40080000 		.long	0x840
 5437 0b10 00       		.byte	0
 5438 0b11 45       		.uleb128 0x45
 5439 0b12 8D090000 		.long	.LASF199
 5440 0b16 01       		.byte	0x1
 5441 0b17 2D04     		.value	0x42d
 5442 0b19 06       		.byte	0x6
 5443 0b1a 350B0000 		.long	0xb35
 5444 0b1e 0E       		.uleb128 0xe
 5445 0b1f 74717000 		.string	"tqp"
 5446 0b23 01       		.byte	0x1
 5447 0b24 2D04     		.value	0x42d
 5448 0b26 2F       		.byte	0x2f
 5449 0b27 9B090000 		.long	0x99b
 5450 0b2b 08       		.uleb128 0x8
 5451 0b2c 15090000 		.long	.LASF136
 5452 0b30 450B0000 		.long	0xb45
 5453 0b34 00       		.byte	0
 5454 0b35 10       		.uleb128 0x10
 5455 0b36 58000000 		.long	0x58
 5456 0b3a 450B0000 		.long	0xb45
 5457 0b3e 11       		.uleb128 0x11
 5458 0b3f 32000000 		.long	0x32
 5459 0b43 17       		.byte	0x17
 5460 0b44 00       		.byte	0
 5461 0b45 0C       		.uleb128 0xc
 5462 0b46 350B0000 		.long	0xb35
 5463 0b4a 17       		.uleb128 0x17
 5464 0b4b 5D010000 		.long	.LASF135
 5465 0b4f 1704     		.value	0x417
 5466 0b51 00000000 		.long	.LFB243
 5467 0b55 0A000000 		.long	.LFE243-.LFB243
 5468 0b59 01       		.uleb128 0x1
 5469 0b5a 9C       		.byte	0x9c
 5470 0b5b 9B0B0000 		.long	0xb9b
 5471 0b5f 06       		.uleb128 0x6
 5472 0b60 74717000 		.string	"tqp"
 5473 0b64 1704     		.value	0x417
 5474 0b66 2C       		.byte	0x2c
 5475 0b67 9B090000 		.long	0x99b
 5476 0b6b 02       		.uleb128 0x2
 5477 0b6c 91       		.byte	0x91
 5478 0b6d 00       		.sleb128 0
 5479 0b6e 08       		.uleb128 0x8
 5480 0b6f 15090000 		.long	.LASF136
 5481 0b73 AB0B0000 		.long	0xbab
 5482 0b77 1A       		.uleb128 0x1a
 5483 0b78 78200000 		.long	0x2078
 5484 0b7c 04000000 		.long	.LBI702
 5485 0b80 00       		.byte	.LVU1241
 5486 0b81 04000000 		.long	.LBB702
 5487 0b85 05000000 		.long	.LBE702-.LBB702
 5488 0b89 1B04     		.value	0x41b
 5489 0b8b 03       		.byte	0x3
 5490 0b8c 01       		.uleb128 0x1
 5491 0b8d 84200000 		.long	0x2084
GAS LISTING /tmp/cctFPqVW.s 			page 101


 5492 0b91 D5000000 		.long	.LLST125
 5493 0b95 D3000000 		.long	.LVUS125
 5494 0b99 00       		.byte	0
 5495 0b9a 00       		.byte	0
 5496 0b9b 10       		.uleb128 0x10
 5497 0b9c 58000000 		.long	0x58
 5498 0ba0 AB0B0000 		.long	0xbab
 5499 0ba4 11       		.uleb128 0x11
 5500 0ba5 32000000 		.long	0x32
 5501 0ba9 14       		.byte	0x14
 5502 0baa 00       		.byte	0
 5503 0bab 0C       		.uleb128 0xc
 5504 0bac 9B0B0000 		.long	0xb9b
 5505 0bb0 17       		.uleb128 0x17
 5506 0bb1 84040000 		.long	.LASF137
 5507 0bb5 0904     		.value	0x409
 5508 0bb7 00000000 		.long	.LFB242
 5509 0bbb 48000000 		.long	.LFE242-.LFB242
 5510 0bbf 01       		.uleb128 0x1
 5511 0bc0 9C       		.byte	0x9c
 5512 0bc1 940C0000 		.long	0xc94
 5513 0bc5 06       		.uleb128 0x6
 5514 0bc6 74727000 		.string	"trp"
 5515 0bca 0904     		.value	0x409
 5516 0bcc 26       		.byte	0x26
 5517 0bcd 7E060000 		.long	0x67e
 5518 0bd1 02       		.uleb128 0x2
 5519 0bd2 91       		.byte	0x91
 5520 0bd3 00       		.sleb128 0
 5521 0bd4 06       		.uleb128 0x6
 5522 0bd5 6D736700 		.string	"msg"
 5523 0bd9 0904     		.value	0x409
 5524 0bdb 31       		.byte	0x31
 5525 0bdc 3F010000 		.long	0x13f
 5526 0be0 02       		.uleb128 0x2
 5527 0be1 91       		.byte	0x91
 5528 0be2 04       		.sleb128 4
 5529 0be3 04       		.uleb128 0x4
 5530 0be4 D31F0000 		.long	0x1fd3
 5531 0be8 00000000 		.long	.LBI687
 5532 0bec 02       		.byte	.LVU1199
 5533 0bed B1020000 		.long	.LLRL120
 5534 0bf1 01       		.byte	0x1
 5535 0bf2 0B04     		.value	0x40b
 5536 0bf4 03       		.byte	0x3
 5537 0bf5 0C0C0000 		.long	0xc0c
 5538 0bf9 07       		.uleb128 0x7
 5539 0bfa E31F0000 		.long	0x1fe3
 5540 0bfe 00000000 		.long	.LBI688
 5541 0c02 04       		.byte	.LVU1201
 5542 0c03 B1020000 		.long	.LLRL120
 5543 0c07 03       		.byte	0x3
 5544 0c08 9901     		.value	0x199
 5545 0c0a 03       		.byte	0x3
 5546 0c0b 00       		.byte	0
 5547 0c0c 04       		.uleb128 0x4
 5548 0c0d 940C0000 		.long	0xc94
GAS LISTING /tmp/cctFPqVW.s 			page 102


 5549 0c11 22000000 		.long	.LBI692
 5550 0c15 03       		.byte	.LVU1210
 5551 0c16 BD020000 		.long	.LLRL121
 5552 0c1a 01       		.byte	0x1
 5553 0c1b 0C04     		.value	0x40c
 5554 0c1d 03       		.byte	0x3
 5555 0c1e 670C0000 		.long	0xc67
 5556 0c22 01       		.uleb128 0x1
 5557 0c23 AC0C0000 		.long	0xcac
 5558 0c27 E1000000 		.long	.LLST122
 5559 0c2b DF000000 		.long	.LVUS122
 5560 0c2f 01       		.uleb128 0x1
 5561 0c30 9F0C0000 		.long	0xc9f
 5562 0c34 EF000000 		.long	.LLST123
 5563 0c38 EB000000 		.long	.LVUS123
 5564 0c3c 0B       		.uleb128 0xb
 5565 0c3d BD020000 		.long	.LLRL121
 5566 0c41 34       		.uleb128 0x34
 5567 0c42 C20C0000 		.long	0xcc2
 5568 0c46 26000000 		.long	.LBB694
 5569 0c4a 16000000 		.long	.LBE694-.LBB694
 5570 0c4e 1D       		.uleb128 0x1d
 5571 0c4f C30C0000 		.long	0xcc3
 5572 0c53 02010000 		.long	.LLST124
 5573 0c57 00010000 		.long	.LVUS124
 5574 0c5b 05       		.uleb128 0x5
 5575 0c5c 39000000 		.long	.LVL141
 5576 0c60 70080000 		.long	0x870
 5577 0c64 00       		.byte	0
 5578 0c65 00       		.byte	0
 5579 0c66 00       		.byte	0
 5580 0c67 1A       		.uleb128 0x1a
 5581 0c68 BD1F0000 		.long	0x1fbd
 5582 0c6c 3C000000 		.long	.LBI698
 5583 0c70 02       		.byte	.LVU1224
 5584 0c71 3C000000 		.long	.LBB698
 5585 0c75 06000000 		.long	.LBE698-.LBB698
 5586 0c79 0D04     		.value	0x40d
 5587 0c7b 03       		.byte	0x3
 5588 0c7c 14       		.uleb128 0x14
 5589 0c7d DB1F0000 		.long	0x1fdb
 5590 0c81 3C000000 		.long	.LBI700
 5591 0c85 09       		.byte	.LVU1231
 5592 0c86 3C000000 		.long	.LBB700
 5593 0c8a 06000000 		.long	.LBE700-.LBB700
 5594 0c8e 03       		.byte	0x3
 5595 0c8f B201     		.value	0x1b2
 5596 0c91 03       		.byte	0x3
 5597 0c92 00       		.byte	0
 5598 0c93 00       		.byte	0
 5599 0c94 35       		.uleb128 0x35
 5600 0c95 0D020000 		.long	.LASF138
 5601 0c99 F303     		.value	0x3f3
 5602 0c9b DA0C0000 		.long	0xcda
 5603 0c9f 0E       		.uleb128 0xe
 5604 0ca0 74727000 		.string	"trp"
 5605 0ca4 01       		.byte	0x1
GAS LISTING /tmp/cctFPqVW.s 			page 103


 5606 0ca5 F303     		.value	0x3f3
 5607 0ca7 27       		.byte	0x27
 5608 0ca8 7E060000 		.long	0x67e
 5609 0cac 0E       		.uleb128 0xe
 5610 0cad 6D736700 		.string	"msg"
 5611 0cb1 01       		.byte	0x1
 5612 0cb2 F303     		.value	0x3f3
 5613 0cb4 32       		.byte	0x32
 5614 0cb5 3F010000 		.long	0x13f
 5615 0cb9 08       		.uleb128 0x8
 5616 0cba 15090000 		.long	.LASF136
 5617 0cbe EA0C0000 		.long	0xcea
 5618 0cc2 46       		.uleb128 0x46
 5619 0cc3 22       		.uleb128 0x22
 5620 0cc4 747000   		.string	"tp"
 5621 0cc7 01       		.byte	0x1
 5622 0cc8 F603     		.value	0x3f6
 5623 0cca 0F       		.byte	0xf
 5624 0ccb A3050000 		.long	0x5a3
 5625 0ccf 05       		.uleb128 0x5
 5626 0cd0 2C000000 		.long	.LVL137
 5627 0cd4 70080000 		.long	0x870
 5628 0cd8 00       		.byte	0
 5629 0cd9 00       		.byte	0
 5630 0cda 10       		.uleb128 0x10
 5631 0cdb 58000000 		.long	0x58
 5632 0cdf EA0C0000 		.long	0xcea
 5633 0ce3 11       		.uleb128 0x11
 5634 0ce4 32000000 		.long	0x32
 5635 0ce8 0C       		.byte	0xc
 5636 0ce9 00       		.byte	0
 5637 0cea 0C       		.uleb128 0xc
 5638 0ceb DA0C0000 		.long	0xcda
 5639 0cef 17       		.uleb128 0x17
 5640 0cf0 E9010000 		.long	.LASF139
 5641 0cf4 DC03     		.value	0x3dc
 5642 0cf6 00000000 		.long	.LFB240
 5643 0cfa 37000000 		.long	.LFE240-.LFB240
 5644 0cfe 01       		.uleb128 0x1
 5645 0cff 9C       		.byte	0x9c
 5646 0d00 520D0000 		.long	0xd52
 5647 0d04 06       		.uleb128 0x6
 5648 0d05 74727000 		.string	"trp"
 5649 0d09 DC03     		.value	0x3dc
 5650 0d0b 27       		.byte	0x27
 5651 0d0c 7E060000 		.long	0x67e
 5652 0d10 02       		.uleb128 0x2
 5653 0d11 91       		.byte	0x91
 5654 0d12 00       		.sleb128 0
 5655 0d13 06       		.uleb128 0x6
 5656 0d14 6D736700 		.string	"msg"
 5657 0d18 DC03     		.value	0x3dc
 5658 0d1a 32       		.byte	0x32
 5659 0d1b 3F010000 		.long	0x13f
 5660 0d1f 02       		.uleb128 0x2
 5661 0d20 91       		.byte	0x91
 5662 0d21 04       		.sleb128 4
GAS LISTING /tmp/cctFPqVW.s 			page 104


 5663 0d22 08       		.uleb128 0x8
 5664 0d23 15090000 		.long	.LASF136
 5665 0d27 EA0C0000 		.long	0xcea
 5666 0d2b 47       		.uleb128 0x47
 5667 0d2c 19000000 		.long	.LBB685
 5668 0d30 19000000 		.long	.LBE685-.LBB685
 5669 0d34 19       		.uleb128 0x19
 5670 0d35 747000   		.string	"tp"
 5671 0d38 DF03     		.value	0x3df
 5672 0d3a 0F       		.byte	0xf
 5673 0d3b A3050000 		.long	0x5a3
 5674 0d3f 0D010000 		.long	.LLST118
 5675 0d43 0B010000 		.long	.LVUS118
 5676 0d47 05       		.uleb128 0x5
 5677 0d48 2F000000 		.long	.LVL134
 5678 0d4c 85080000 		.long	0x885
 5679 0d50 00       		.byte	0
 5680 0d51 00       		.byte	0
 5681 0d52 0D       		.uleb128 0xd
 5682 0d53 59090000 		.long	.LASF141
 5683 0d57 C303     		.value	0x3c3
 5684 0d59 07       		.byte	0x7
 5685 0d5a 3F010000 		.long	0x13f
 5686 0d5e 00000000 		.long	.LFB239
 5687 0d62 47000000 		.long	.LFE239-.LFB239
 5688 0d66 01       		.uleb128 0x1
 5689 0d67 9C       		.byte	0x9c
 5690 0d68 C20D0000 		.long	0xdc2
 5691 0d6c 06       		.uleb128 0x6
 5692 0d6d 74727000 		.string	"trp"
 5693 0d71 C303     		.value	0x3c3
 5694 0d73 30       		.byte	0x30
 5695 0d74 7E060000 		.long	0x67e
 5696 0d78 02       		.uleb128 0x2
 5697 0d79 91       		.byte	0x91
 5698 0d7a 00       		.sleb128 0
 5699 0d7b 1B       		.uleb128 0x1b
 5700 0d7c 76080000 		.long	.LASF133
 5701 0d80 C303     		.value	0x3c3
 5702 0d82 43       		.byte	0x43
 5703 0d83 69030000 		.long	0x369
 5704 0d87 02       		.uleb128 0x2
 5705 0d88 91       		.byte	0x91
 5706 0d89 04       		.sleb128 4
 5707 0d8a 19       		.uleb128 0x19
 5708 0d8b 747000   		.string	"tp"
 5709 0d8e C403     		.value	0x3c4
 5710 0d90 0D       		.byte	0xd
 5711 0d91 A3050000 		.long	0x5a3
 5712 0d95 1A010000 		.long	.LLST116
 5713 0d99 16010000 		.long	.LVUS116
 5714 0d9d 08       		.uleb128 0x8
 5715 0d9e 15090000 		.long	.LASF136
 5716 0da2 AB0B0000 		.long	0xbab
 5717 0da6 07       		.uleb128 0x7
 5718 0da7 A21F0000 		.long	0x1fa2
 5719 0dab 00000000 		.long	.LBI681
GAS LISTING /tmp/cctFPqVW.s 			page 105


 5720 0daf 02       		.byte	.LVU1138
 5721 0db0 A5020000 		.long	.LLRL117
 5722 0db4 01       		.byte	0x1
 5723 0db5 C403     		.value	0x3c4
 5724 0db7 12       		.byte	0x12
 5725 0db8 05       		.uleb128 0x5
 5726 0db9 34000000 		.long	.LVL130
 5727 0dbd 40080000 		.long	0x840
 5728 0dc1 00       		.byte	0
 5729 0dc2 0D       		.uleb128 0xd
 5730 0dc3 A7010000 		.long	.LASF142
 5731 0dc7 A503     		.value	0x3a5
 5732 0dc9 07       		.byte	0x7
 5733 0dca 3F010000 		.long	0x13f
 5734 0dce 00000000 		.long	.LFB238
 5735 0dd2 35000000 		.long	.LFE238-.LFB238
 5736 0dd6 01       		.uleb128 0x1
 5737 0dd7 9C       		.byte	0x9c
 5738 0dd8 390E0000 		.long	0xe39
 5739 0ddc 06       		.uleb128 0x6
 5740 0ddd 74727000 		.string	"trp"
 5741 0de1 A503     		.value	0x3a5
 5742 0de3 29       		.byte	0x29
 5743 0de4 7E060000 		.long	0x67e
 5744 0de8 02       		.uleb128 0x2
 5745 0de9 91       		.byte	0x91
 5746 0dea 00       		.sleb128 0
 5747 0deb 19       		.uleb128 0x19
 5748 0dec 747000   		.string	"tp"
 5749 0def A603     		.value	0x3a6
 5750 0df1 0D       		.byte	0xd
 5751 0df2 A3050000 		.long	0x5a3
 5752 0df6 2C010000 		.long	.LLST114
 5753 0dfa 2A010000 		.long	.LVUS114
 5754 0dfe 08       		.uleb128 0x8
 5755 0dff 15090000 		.long	.LASF136
 5756 0e03 490E0000 		.long	0xe49
 5757 0e07 07       		.uleb128 0x7
 5758 0e08 A21F0000 		.long	0x1fa2
 5759 0e0c 00000000 		.long	.LBI675
 5760 0e10 02       		.byte	.LVU1117
 5761 0e11 99020000 		.long	.LLRL115
 5762 0e15 01       		.byte	0x1
 5763 0e16 A603     		.value	0x3a6
 5764 0e18 12       		.byte	0x12
 5765 0e19 14       		.uleb128 0x14
 5766 0e1a A21F0000 		.long	0x1fa2
 5767 0e1e 29000000 		.long	.LBI679
 5768 0e22 01       		.byte	.LVU1132
 5769 0e23 29000000 		.long	.LBB679
 5770 0e27 00000000 		.long	.LBE679-.LBB679
 5771 0e2b 01       		.byte	0x1
 5772 0e2c AE03     		.value	0x3ae
 5773 0e2e 0A       		.byte	0xa
 5774 0e2f 05       		.uleb128 0x5
 5775 0e30 29000000 		.long	.LVL127
 5776 0e34 60080000 		.long	0x860
GAS LISTING /tmp/cctFPqVW.s 			page 106


 5777 0e38 00       		.byte	0
 5778 0e39 10       		.uleb128 0x10
 5779 0e3a 58000000 		.long	0x58
 5780 0e3e 490E0000 		.long	0xe49
 5781 0e42 11       		.uleb128 0x11
 5782 0e43 32000000 		.long	0x32
 5783 0e47 0D       		.byte	0xd
 5784 0e48 00       		.byte	0
 5785 0e49 0C       		.uleb128 0xc
 5786 0e4a 390E0000 		.long	0xe39
 5787 0e4e 17       		.uleb128 0x17
 5788 0e4f B1040000 		.long	.LASF143
 5789 0e53 9403     		.value	0x394
 5790 0e55 00000000 		.long	.LFB237
 5791 0e59 2D000000 		.long	.LFE237-.LFB237
 5792 0e5d 01       		.uleb128 0x1
 5793 0e5e 9C       		.byte	0x9c
 5794 0e5f C60E0000 		.long	0xec6
 5795 0e63 04       		.uleb128 0x4
 5796 0e64 D31F0000 		.long	0x1fd3
 5797 0e68 00000000 		.long	.LBI665
 5798 0e6c 02       		.byte	.LVU1094
 5799 0e6d 8D020000 		.long	.LLRL113
 5800 0e71 01       		.byte	0x1
 5801 0e72 9603     		.value	0x396
 5802 0e74 03       		.byte	0x3
 5803 0e75 8C0E0000 		.long	0xe8c
 5804 0e79 07       		.uleb128 0x7
 5805 0e7a E31F0000 		.long	0x1fe3
 5806 0e7e 00000000 		.long	.LBI666
 5807 0e82 04       		.byte	.LVU1096
 5808 0e83 8D020000 		.long	.LLRL113
 5809 0e87 03       		.byte	0x3
 5810 0e88 9901     		.value	0x199
 5811 0e8a 03       		.byte	0x3
 5812 0e8b 00       		.byte	0
 5813 0e8c 18       		.uleb128 0x18
 5814 0e8d BD1F0000 		.long	0x1fbd
 5815 0e91 21000000 		.long	.LBI671
 5816 0e95 01       		.byte	.LVU1104
 5817 0e96 21000000 		.long	.LBB671
 5818 0e9a 06000000 		.long	.LBE671-.LBB671
 5819 0e9e 9803     		.value	0x398
 5820 0ea0 03       		.byte	0x3
 5821 0ea1 BC0E0000 		.long	0xebc
 5822 0ea5 14       		.uleb128 0x14
 5823 0ea6 DB1F0000 		.long	0x1fdb
 5824 0eaa 21000000 		.long	.LBI673
 5825 0eae 08       		.byte	.LVU1111
 5826 0eaf 21000000 		.long	.LBB673
 5827 0eb3 06000000 		.long	.LBE673-.LBB673
 5828 0eb7 03       		.byte	0x3
 5829 0eb8 B201     		.value	0x1b2
 5830 0eba 03       		.byte	0x3
 5831 0ebb 00       		.byte	0
 5832 0ebc 05       		.uleb128 0x5
 5833 0ebd 21000000 		.long	.LVL124
GAS LISTING /tmp/cctFPqVW.s 			page 107


 5834 0ec1 3A080000 		.long	0x83a
 5835 0ec5 00       		.byte	0
 5836 0ec6 0D       		.uleb128 0xd
 5837 0ec7 1C000000 		.long	.LASF144
 5838 0ecb 8003     		.value	0x380
 5839 0ecd 0B       		.byte	0xb
 5840 0ece 58030000 		.long	0x358
 5841 0ed2 00000000 		.long	.LFB236
 5842 0ed6 66000000 		.long	.LFE236-.LFB236
 5843 0eda 01       		.uleb128 0x1
 5844 0edb 9C       		.byte	0x9c
 5845 0edc 1F100000 		.long	0x101f
 5846 0ee0 1B       		.uleb128 0x1b
 5847 0ee1 89010000 		.long	.LASF73
 5848 0ee5 8003     		.value	0x380
 5849 0ee7 2D       		.byte	0x2d
 5850 0ee8 58030000 		.long	0x358
 5851 0eec 02       		.uleb128 0x2
 5852 0eed 91       		.byte	0x91
 5853 0eee 00       		.sleb128 0
 5854 0eef 36       		.uleb128 0x36
 5855 0ef0 B1000000 		.long	.LASF70
 5856 0ef4 8003     		.value	0x380
 5857 0ef6 3D       		.byte	0x3d
 5858 0ef7 58030000 		.long	0x358
 5859 0efb 3B010000 		.long	.LLST99
 5860 0eff 35010000 		.long	.LVUS99
 5861 0f03 12       		.uleb128 0x12
 5862 0f04 F3020000 		.long	.LASF145
 5863 0f08 8103     		.value	0x381
 5864 0f0a 0D       		.byte	0xd
 5865 0f0b 58030000 		.long	0x358
 5866 0f0f 56010000 		.long	.LLST100
 5867 0f13 52010000 		.long	.LVUS100
 5868 0f17 04       		.uleb128 0x4
 5869 0f18 D31F0000 		.long	0x1fd3
 5870 0f1c 00000000 		.long	.LBI618
 5871 0f20 03       		.byte	.LVU1024
 5872 0f21 33020000 		.long	.LLRL101
 5873 0f25 01       		.byte	0x1
 5874 0f26 8303     		.value	0x383
 5875 0f28 03       		.byte	0x3
 5876 0f29 400F0000 		.long	0xf40
 5877 0f2d 07       		.uleb128 0x7
 5878 0f2e E31F0000 		.long	0x1fe3
 5879 0f32 00000000 		.long	.LBI619
 5880 0f36 05       		.byte	.LVU1026
 5881 0f37 33020000 		.long	.LLRL101
 5882 0f3b 03       		.byte	0x3
 5883 0f3c 9901     		.value	0x199
 5884 0f3e 03       		.byte	0x3
 5885 0f3f 00       		.byte	0
 5886 0f40 04       		.uleb128 0x4
 5887 0f41 0D210000 		.long	0x210d
 5888 0f45 2D000000 		.long	.LBI625
 5889 0f49 07       		.byte	.LVU1042
 5890 0f4a 42020000 		.long	.LLRL102
GAS LISTING /tmp/cctFPqVW.s 			page 108


 5891 0f4e 01       		.byte	0x1
 5892 0f4f 8503     		.value	0x385
 5893 0f51 07       		.byte	0x7
 5894 0f52 7E0F0000 		.long	0xf7e
 5895 0f56 01       		.uleb128 0x1
 5896 0f57 38210000 		.long	0x2138
 5897 0f5b 68010000 		.long	.LLST103
 5898 0f5f 66010000 		.long	.LVUS103
 5899 0f63 01       		.uleb128 0x1
 5900 0f64 2B210000 		.long	0x212b
 5901 0f68 74010000 		.long	.LLST104
 5902 0f6c 72010000 		.long	.LVUS104
 5903 0f70 01       		.uleb128 0x1
 5904 0f71 1E210000 		.long	0x211e
 5905 0f75 80010000 		.long	.LLST105
 5906 0f79 7E010000 		.long	.LVUS105
 5907 0f7d 00       		.byte	0
 5908 0f7e 07       		.uleb128 0x7
 5909 0f7f B01F0000 		.long	0x1fb0
 5910 0f83 2D000000 		.long	.LBI628
 5911 0f87 03       		.byte	.LVU1038
 5912 0f88 4E020000 		.long	.LLRL106
 5913 0f8c 01       		.byte	0x1
 5914 0f8d 8403     		.value	0x384
 5915 0f8f 0A       		.byte	0xa
 5916 0f90 04       		.uleb128 0x4
 5917 0f91 BD1F0000 		.long	0x1fbd
 5918 0f95 37000000 		.long	.LBI637
 5919 0f99 01       		.byte	.LVU1047
 5920 0f9a 5D020000 		.long	.LLRL107
 5921 0f9e 01       		.byte	0x1
 5922 0f9f 8803     		.value	0x388
 5923 0fa1 03       		.byte	0x3
 5924 0fa2 BF0F0000 		.long	0xfbf
 5925 0fa6 0B       		.uleb128 0xb
 5926 0fa7 5D020000 		.long	.LLRL107
 5927 0fab 07       		.uleb128 0x7
 5928 0fac DB1F0000 		.long	0x1fdb
 5929 0fb0 37000000 		.long	.LBI639
 5930 0fb4 08       		.byte	.LVU1054
 5931 0fb5 5D020000 		.long	.LLRL107
 5932 0fb9 03       		.byte	0x3
 5933 0fba B201     		.value	0x1b2
 5934 0fbc 03       		.byte	0x3
 5935 0fbd 00       		.byte	0
 5936 0fbe 00       		.byte	0
 5937 0fbf 04       		.uleb128 0x4
 5938 0fc0 46210000 		.long	0x2146
 5939 0fc4 48000000 		.long	.LBI651
 5940 0fc8 01       		.byte	.LVU1062
 5941 0fc9 6F020000 		.long	.LLRL108
 5942 0fcd 01       		.byte	0x1
 5943 0fce 8603     		.value	0x386
 5944 0fd0 05       		.byte	0x5
 5945 0fd1 F00F0000 		.long	0xff0
 5946 0fd5 01       		.uleb128 0x1
 5947 0fd6 64210000 		.long	0x2164
GAS LISTING /tmp/cctFPqVW.s 			page 109


 5948 0fda 8B010000 		.long	.LLST109
 5949 0fde 89010000 		.long	.LVUS109
 5950 0fe2 01       		.uleb128 0x1
 5951 0fe3 57210000 		.long	0x2157
 5952 0fe7 96010000 		.long	.LLST110
 5953 0feb 94010000 		.long	.LVUS110
 5954 0fef 00       		.byte	0
 5955 0ff0 1F       		.uleb128 0x1f
 5956 0ff1 7F1F0000 		.long	0x1f7f
 5957 0ff5 48000000 		.long	.LBI655
 5958 0ff9 04       		.byte	.LVU1065
 5959 0ffa 7E020000 		.long	.LLRL111
 5960 0ffe 8603     		.value	0x386
 5961 1000 05       		.byte	0x5
 5962 1001 01       		.uleb128 0x1
 5963 1002 8B1F0000 		.long	0x1f8b
 5964 1006 A3010000 		.long	.LLST112
 5965 100a 9F010000 		.long	.LVUS112
 5966 100e 0B       		.uleb128 0xb
 5967 100f 7E020000 		.long	.LLRL111
 5968 1013 05       		.uleb128 0x5
 5969 1014 57000000 		.long	.LVL122
 5970 1018 40080000 		.long	0x840
 5971 101c 00       		.byte	0
 5972 101d 00       		.byte	0
 5973 101e 00       		.byte	0
 5974 101f 17       		.uleb128 0x17
 5975 1020 9C030000 		.long	.LASF146
 5976 1024 6703     		.value	0x367
 5977 1026 00000000 		.long	.LFB235
 5978 102a 5A000000 		.long	.LFE235-.LFB235
 5979 102e 01       		.uleb128 0x1
 5980 102f 9C       		.byte	0x9c
 5981 1030 22110000 		.long	0x1122
 5982 1034 1B       		.uleb128 0x1b
 5983 1035 F3020000 		.long	.LASF145
 5984 1039 6703     		.value	0x367
 5985 103b 20       		.byte	0x20
 5986 103c 58030000 		.long	0x358
 5987 1040 02       		.uleb128 0x2
 5988 1041 91       		.byte	0x91
 5989 1042 00       		.sleb128 0
 5990 1043 12       		.uleb128 0x12
 5991 1044 0C000000 		.long	.LASF147
 5992 1048 6803     		.value	0x368
 5993 104a 11       		.byte	0x11
 5994 104b 69030000 		.long	0x369
 5995 104f BC010000 		.long	.LLST92
 5996 1053 B8010000 		.long	.LVUS92
 5997 1057 04       		.uleb128 0x4
 5998 1058 D31F0000 		.long	0x1fd3
 5999 105c 00000000 		.long	.LBI591
 6000 1060 03       		.byte	.LVU966
 6001 1061 09020000 		.long	.LLRL93
 6002 1065 01       		.byte	0x1
 6003 1066 6A03     		.value	0x36a
 6004 1068 03       		.byte	0x3
GAS LISTING /tmp/cctFPqVW.s 			page 110


 6005 1069 80100000 		.long	0x1080
 6006 106d 07       		.uleb128 0x7
 6007 106e E31F0000 		.long	0x1fe3
 6008 1072 00000000 		.long	.LBI592
 6009 1076 05       		.byte	.LVU968
 6010 1077 09020000 		.long	.LLRL93
 6011 107b 03       		.byte	0x3
 6012 107c 9901     		.value	0x199
 6013 107e 03       		.byte	0x3
 6014 107f 00       		.byte	0
 6015 1080 07       		.uleb128 0x7
 6016 1081 B01F0000 		.long	0x1fb0
 6017 1085 29000000 		.long	.LBI598
 6018 1089 03       		.byte	.LVU979
 6019 108a 18020000 		.long	.LLRL94
 6020 108e 01       		.byte	0x1
 6021 108f 6B03     		.value	0x36b
 6022 1091 0E       		.byte	0xe
 6023 1092 18       		.uleb128 0x18
 6024 1093 46210000 		.long	0x2146
 6025 1097 29000000 		.long	.LBI606
 6026 109b 06       		.byte	.LVU982
 6027 109c 29000000 		.long	.LBB606
 6028 10a0 00000000 		.long	.LBE606-.LBB606
 6029 10a4 6B03     		.value	0x36b
 6030 10a6 0E       		.byte	0xe
 6031 10a7 C6100000 		.long	0x10c6
 6032 10ab 01       		.uleb128 0x1
 6033 10ac 64210000 		.long	0x2164
 6034 10b0 D3010000 		.long	.LLST95
 6035 10b4 D1010000 		.long	.LVUS95
 6036 10b8 01       		.uleb128 0x1
 6037 10b9 57210000 		.long	0x2157
 6038 10bd DE010000 		.long	.LLST96
 6039 10c1 DC010000 		.long	.LVUS96
 6040 10c5 00       		.byte	0
 6041 10c6 04       		.uleb128 0x4
 6042 10c7 BD1F0000 		.long	0x1fbd
 6043 10cb 2D000000 		.long	.LBI608
 6044 10cf 01       		.byte	.LVU989
 6045 10d0 27020000 		.long	.LLRL97
 6046 10d4 01       		.byte	0x1
 6047 10d5 6F03     		.value	0x36f
 6048 10d7 03       		.byte	0x3
 6049 10d8 F5100000 		.long	0x10f5
 6050 10dc 0B       		.uleb128 0xb
 6051 10dd 27020000 		.long	.LLRL97
 6052 10e1 07       		.uleb128 0x7
 6053 10e2 DB1F0000 		.long	0x1fdb
 6054 10e6 2D000000 		.long	.LBI610
 6055 10ea 08       		.byte	.LVU996
 6056 10eb 27020000 		.long	.LLRL97
 6057 10ef 03       		.byte	0x3
 6058 10f0 B201     		.value	0x1b2
 6059 10f2 03       		.byte	0x3
 6060 10f3 00       		.byte	0
 6061 10f4 00       		.byte	0
GAS LISTING /tmp/cctFPqVW.s 			page 111


 6062 10f5 1A       		.uleb128 0x1a
 6063 10f6 7F1F0000 		.long	0x1f7f
 6064 10fa 40000000 		.long	.LBI615
 6065 10fe 01       		.byte	.LVU1001
 6066 10ff 40000000 		.long	.LBB615
 6067 1103 0E000000 		.long	.LBE615-.LBB615
 6068 1107 6D03     		.value	0x36d
 6069 1109 05       		.byte	0x5
 6070 110a 01       		.uleb128 0x1
 6071 110b 8B1F0000 		.long	0x1f8b
 6072 110f E9010000 		.long	.LLST98
 6073 1113 E7010000 		.long	.LVUS98
 6074 1117 05       		.uleb128 0x5
 6075 1118 4B000000 		.long	.LVL116
 6076 111c 40080000 		.long	0x840
 6077 1120 00       		.byte	0
 6078 1121 00       		.byte	0
 6079 1122 17       		.uleb128 0x17
 6080 1123 7E080000 		.long	.LASF148
 6081 1127 5303     		.value	0x353
 6082 1129 00000000 		.long	.LFB234
 6083 112d 33000000 		.long	.LFE234-.LFB234
 6084 1131 01       		.uleb128 0x1
 6085 1132 9C       		.byte	0x9c
 6086 1133 C7110000 		.long	0x11c7
 6087 1137 1B       		.uleb128 0x1b
 6088 1138 F3020000 		.long	.LASF145
 6089 113c 5303     		.value	0x353
 6090 113e 1F       		.byte	0x1f
 6091 113f 69030000 		.long	0x369
 6092 1143 02       		.uleb128 0x2
 6093 1144 91       		.byte	0x91
 6094 1145 00       		.sleb128 0
 6095 1146 04       		.uleb128 0x4
 6096 1147 D31F0000 		.long	0x1fd3
 6097 114b 00000000 		.long	.LBI577
 6098 114f 02       		.byte	.LVU935
 6099 1150 F1010000 		.long	.LLRL90
 6100 1154 01       		.byte	0x1
 6101 1155 5503     		.value	0x355
 6102 1157 03       		.byte	0x3
 6103 1158 6F110000 		.long	0x116f
 6104 115c 07       		.uleb128 0x7
 6105 115d E31F0000 		.long	0x1fe3
 6106 1161 00000000 		.long	.LBI578
 6107 1165 04       		.byte	.LVU937
 6108 1166 F1010000 		.long	.LLRL90
 6109 116a 03       		.byte	0x3
 6110 116b 9901     		.value	0x199
 6111 116d 03       		.byte	0x3
 6112 116e 00       		.byte	0
 6113 116f 04       		.uleb128 0x4
 6114 1170 7F1F0000 		.long	0x1f7f
 6115 1174 22000000 		.long	.LBI582
 6116 1178 03       		.byte	.LVU945
 6117 1179 FD010000 		.long	.LLRL91
 6118 117d 01       		.byte	0x1
GAS LISTING /tmp/cctFPqVW.s 			page 112


 6119 117e 5603     		.value	0x356
 6120 1180 03       		.byte	0x3
 6121 1181 9A110000 		.long	0x119a
 6122 1185 29       		.uleb128 0x29
 6123 1186 8B1F0000 		.long	0x1f8b
 6124 118a 0B       		.uleb128 0xb
 6125 118b FD010000 		.long	.LLRL91
 6126 118f 05       		.uleb128 0x5
 6127 1190 27000000 		.long	.LVL111
 6128 1194 40080000 		.long	0x840
 6129 1198 00       		.byte	0
 6130 1199 00       		.byte	0
 6131 119a 1A       		.uleb128 0x1a
 6132 119b BD1F0000 		.long	0x1fbd
 6133 119f 27000000 		.long	.LBI587
 6134 11a3 01       		.byte	.LVU952
 6135 11a4 27000000 		.long	.LBB587
 6136 11a8 06000000 		.long	.LBE587-.LBB587
 6137 11ac 5703     		.value	0x357
 6138 11ae 03       		.byte	0x3
 6139 11af 14       		.uleb128 0x14
 6140 11b0 DB1F0000 		.long	0x1fdb
 6141 11b4 27000000 		.long	.LBI589
 6142 11b8 08       		.byte	.LVU959
 6143 11b9 27000000 		.long	.LBB589
 6144 11bd 06000000 		.long	.LBE589-.LBB589
 6145 11c1 03       		.byte	0x3
 6146 11c2 B201     		.value	0x1b2
 6147 11c4 03       		.byte	0x3
 6148 11c5 00       		.byte	0
 6149 11c6 00       		.byte	0
 6150 11c7 17       		.uleb128 0x17
 6151 11c8 DE040000 		.long	.LASF149
 6152 11cc 4103     		.value	0x341
 6153 11ce 00000000 		.long	.LFB233
 6154 11d2 20000000 		.long	.LFE233-.LFB233
 6155 11d6 01       		.uleb128 0x1
 6156 11d7 9C       		.byte	0x9c
 6157 11d8 17120000 		.long	0x1217
 6158 11dc 06       		.uleb128 0x6
 6159 11dd 747000   		.string	"tp"
 6160 11e0 4103     		.value	0x341
 6161 11e2 1F       		.byte	0x1f
 6162 11e3 A3050000 		.long	0x5a3
 6163 11e7 02       		.uleb128 0x2
 6164 11e8 91       		.byte	0x91
 6165 11e9 00       		.sleb128 0
 6166 11ea 1A       		.uleb128 0x1a
 6167 11eb BD1F0000 		.long	0x1fbd
 6168 11ef 13000000 		.long	.LBI573
 6169 11f3 01       		.byte	.LVU922
 6170 11f4 13000000 		.long	.LBB573
 6171 11f8 0C000000 		.long	.LBE573-.LBB573
 6172 11fc 4503     		.value	0x345
 6173 11fe 03       		.byte	0x3
 6174 11ff 14       		.uleb128 0x14
 6175 1200 DB1F0000 		.long	0x1fdb
GAS LISTING /tmp/cctFPqVW.s 			page 113


 6176 1204 13000000 		.long	.LBI575
 6177 1208 08       		.byte	.LVU929
 6178 1209 13000000 		.long	.LBB575
 6179 120d 0C000000 		.long	.LBE575-.LBB575
 6180 1211 03       		.byte	0x3
 6181 1212 B201     		.value	0x1b2
 6182 1214 03       		.byte	0x3
 6183 1215 00       		.byte	0
 6184 1216 00       		.byte	0
 6185 1217 0D       		.uleb128 0xd
 6186 1218 2E090000 		.long	.LASF150
 6187 121c 1D03     		.value	0x31d
 6188 121e 09       		.byte	0x9
 6189 121f 33010000 		.long	0x133
 6190 1223 00000000 		.long	.LFB232
 6191 1227 4C000000 		.long	.LFE232-.LFB232
 6192 122b 01       		.uleb128 0x1
 6193 122c 9C       		.byte	0x9c
 6194 122d EA120000 		.long	0x12ea
 6195 1231 36       		.uleb128 0x36
 6196 1232 C8020000 		.long	.LASF151
 6197 1236 1D03     		.value	0x31d
 6198 1238 22       		.byte	0x22
 6199 1239 33010000 		.long	0x133
 6200 123d F8010000 		.long	.LLST84
 6201 1241 F2010000 		.long	.LVUS84
 6202 1245 12       		.uleb128 0x12
 6203 1246 BF030000 		.long	.LASF134
 6204 124a 1E03     		.value	0x31e
 6205 124c 0D       		.byte	0xd
 6206 124d A3050000 		.long	0x5a3
 6207 1251 11020000 		.long	.LLST85
 6208 1255 0F020000 		.long	.LVUS85
 6209 1259 12       		.uleb128 0x12
 6210 125a 1B070000 		.long	.LASF152
 6211 125e 1F03     		.value	0x31f
 6212 1260 0B       		.byte	0xb
 6213 1261 33010000 		.long	0x133
 6214 1265 1E020000 		.long	.LLST86
 6215 1269 1A020000 		.long	.LVUS86
 6216 126d 08       		.uleb128 0x8
 6217 126e 15090000 		.long	.LASF136
 6218 1272 FA120000 		.long	0x12fa
 6219 1276 07       		.uleb128 0x7
 6220 1277 A21F0000 		.long	0x1fa2
 6221 127b 00000000 		.long	.LBI553
 6222 127f 02       		.byte	.LVU871
 6223 1280 CA010000 		.long	.LLRL87
 6224 1284 01       		.byte	0x1
 6225 1285 1E03     		.value	0x31e
 6226 1287 16       		.byte	0x16
 6227 1288 04       		.uleb128 0x4
 6228 1289 D31F0000 		.long	0x1fd3
 6229 128d 21000000 		.long	.LBI558
 6230 1291 06       		.byte	.LVU884
 6231 1292 D9010000 		.long	.LLRL88
 6232 1296 01       		.byte	0x1
GAS LISTING /tmp/cctFPqVW.s 			page 114


 6233 1297 2303     		.value	0x323
 6234 1299 03       		.byte	0x3
 6235 129a B1120000 		.long	0x12b1
 6236 129e 07       		.uleb128 0x7
 6237 129f E31F0000 		.long	0x1fe3
 6238 12a3 21000000 		.long	.LBI559
 6239 12a7 08       		.byte	.LVU886
 6240 12a8 D9010000 		.long	.LLRL88
 6241 12ac 03       		.byte	0x3
 6242 12ad 9901     		.value	0x199
 6243 12af 03       		.byte	0x3
 6244 12b0 00       		.byte	0
 6245 12b1 04       		.uleb128 0x4
 6246 12b2 BD1F0000 		.long	0x1fbd
 6247 12b6 40000000 		.long	.LBI565
 6248 12ba 01       		.byte	.LVU902
 6249 12bb E5010000 		.long	.LLRL89
 6250 12bf 01       		.byte	0x1
 6251 12c0 3003     		.value	0x330
 6252 12c2 03       		.byte	0x3
 6253 12c3 E0120000 		.long	0x12e0
 6254 12c7 0B       		.uleb128 0xb
 6255 12c8 E5010000 		.long	.LLRL89
 6256 12cc 07       		.uleb128 0x7
 6257 12cd DB1F0000 		.long	0x1fdb
 6258 12d1 40000000 		.long	.LBI567
 6259 12d5 08       		.byte	.LVU909
 6260 12d6 E5010000 		.long	.LLRL89
 6261 12da 03       		.byte	0x3
 6262 12db B201     		.value	0x1b2
 6263 12dd 03       		.byte	0x3
 6264 12de 00       		.byte	0
 6265 12df 00       		.byte	0
 6266 12e0 05       		.uleb128 0x5
 6267 12e1 40000000 		.long	.LVL107
 6268 12e5 5A080000 		.long	0x85a
 6269 12e9 00       		.byte	0
 6270 12ea 10       		.uleb128 0x10
 6271 12eb 58000000 		.long	0x58
 6272 12ef FA120000 		.long	0x12fa
 6273 12f3 11       		.uleb128 0x11
 6274 12f4 32000000 		.long	0x32
 6275 12f8 10       		.byte	0x10
 6276 12f9 00       		.byte	0
 6277 12fa 0C       		.uleb128 0xc
 6278 12fb EA120000 		.long	0x12ea
 6279 12ff 48       		.uleb128 0x48
 6280 1300 0D060000 		.long	.LASF153
 6281 1304 01       		.byte	0x1
 6282 1305 F502     		.value	0x2f5
 6283 1307 07       		.byte	0x7
 6284 1308 3F010000 		.long	0x13f
 6285 130c 00000000 		.long	.LFB231
 6286 1310 8F000000 		.long	.LFE231-.LFB231
 6287 1314 01       		.uleb128 0x1
 6288 1315 9C       		.byte	0x9c
 6289 1316 9E140000 		.long	0x149e
GAS LISTING /tmp/cctFPqVW.s 			page 115


 6290 131a 06       		.uleb128 0x6
 6291 131b 747000   		.string	"tp"
 6292 131e F502     		.value	0x2f5
 6293 1320 1B       		.byte	0x1b
 6294 1321 A3050000 		.long	0x5a3
 6295 1325 02       		.uleb128 0x2
 6296 1326 91       		.byte	0x91
 6297 1327 00       		.sleb128 0
 6298 1328 12       		.uleb128 0x12
 6299 1329 BF030000 		.long	.LASF134
 6300 132d F602     		.value	0x2f6
 6301 132f 0D       		.byte	0xd
 6302 1330 A3050000 		.long	0x5a3
 6303 1334 30020000 		.long	.LLST70
 6304 1338 2E020000 		.long	.LVUS70
 6305 133c 19       		.uleb128 0x19
 6306 133d 6D736700 		.string	"msg"
 6307 1341 F702     		.value	0x2f7
 6308 1343 09       		.byte	0x9
 6309 1344 3F010000 		.long	0x13f
 6310 1348 41020000 		.long	.LLST71
 6311 134c 39020000 		.long	.LVUS71
 6312 1350 08       		.uleb128 0x8
 6313 1351 15090000 		.long	.LASF136
 6314 1355 AE140000 		.long	0x14ae
 6315 1359 07       		.uleb128 0x7
 6316 135a A21F0000 		.long	0x1fa2
 6317 135e 00000000 		.long	.LBI507
 6318 1362 02       		.byte	.LVU769
 6319 1363 74010000 		.long	.LLRL72
 6320 1367 01       		.byte	0x1
 6321 1368 F602     		.value	0x2f6
 6322 136a 16       		.byte	0x16
 6323 136b 04       		.uleb128 0x4
 6324 136c D31F0000 		.long	0x1fd3
 6325 1370 25000000 		.long	.LBI512
 6326 1374 06       		.byte	.LVU783
 6327 1375 83010000 		.long	.LLRL73
 6328 1379 01       		.byte	0x1
 6329 137a FB02     		.value	0x2fb
 6330 137c 03       		.byte	0x3
 6331 137d 94130000 		.long	0x1394
 6332 1381 07       		.uleb128 0x7
 6333 1382 E31F0000 		.long	0x1fe3
 6334 1386 25000000 		.long	.LBI513
 6335 138a 08       		.byte	.LVU785
 6336 138b 83010000 		.long	.LLRL73
 6337 138f 03       		.byte	0x3
 6338 1390 9901     		.value	0x199
 6339 1392 03       		.byte	0x3
 6340 1393 00       		.byte	0
 6341 1394 04       		.uleb128 0x4
 6342 1395 BA200000 		.long	0x20ba
 6343 1399 2D000000 		.long	.LBI519
 6344 139d 01       		.byte	.LVU799
 6345 139e 8F010000 		.long	.LLRL74
 6346 13a2 01       		.byte	0x1
GAS LISTING /tmp/cctFPqVW.s 			page 116


 6347 13a3 0203     		.value	0x302
 6348 13a5 05       		.byte	0x5
 6349 13a6 C5130000 		.long	0x13c5
 6350 13aa 01       		.uleb128 0x1
 6351 13ab CF200000 		.long	0x20cf
 6352 13af 61020000 		.long	.LLST75
 6353 13b3 5F020000 		.long	.LVUS75
 6354 13b7 01       		.uleb128 0x1
 6355 13b8 C4200000 		.long	0x20c4
 6356 13bc 6C020000 		.long	.LLST76
 6357 13c0 6A020000 		.long	.LVUS76
 6358 13c4 00       		.byte	0
 6359 13c5 04       		.uleb128 0x4
 6360 13c6 17160000 		.long	0x1617
 6361 13ca 52000000 		.long	.LBI523
 6362 13ce 0B       		.byte	.LVU825
 6363 13cf 9B010000 		.long	.LLRL77
 6364 13d3 01       		.byte	0x1
 6365 13d4 0A03     		.value	0x30a
 6366 13d6 03       		.byte	0x3
 6367 13d7 65140000 		.long	0x1465
 6368 13db 01       		.uleb128 0x1
 6369 13dc 22160000 		.long	0x1622
 6370 13e0 7E020000 		.long	.LLST78
 6371 13e4 7A020000 		.long	.LVUS78
 6372 13e8 0B       		.uleb128 0xb
 6373 13e9 9B010000 		.long	.LLRL77
 6374 13ed 1F       		.uleb128 0x1f
 6375 13ee 17160000 		.long	0x1617
 6376 13f2 68000000 		.long	.LBI525
 6377 13f6 00       		.byte	.LVU837
 6378 13f7 A6010000 		.long	.LLRL79
 6379 13fb 7A02     		.value	0x27a
 6380 13fd 06       		.byte	0x6
 6381 13fe 01       		.uleb128 0x1
 6382 13ff 22160000 		.long	0x1622
 6383 1403 91020000 		.long	.LLST80
 6384 1407 8F020000 		.long	.LVUS80
 6385 140b 0B       		.uleb128 0xb
 6386 140c A6010000 		.long	.LLRL79
 6387 1410 18       		.uleb128 0x18
 6388 1411 EB1F0000 		.long	0x1feb
 6389 1415 68000000 		.long	.LBI527
 6390 1419 02       		.byte	.LVU839
 6391 141a 68000000 		.long	.LBB527
 6392 141e 0B000000 		.long	.LBE527-.LBB527
 6393 1422 8602     		.value	0x286
 6394 1424 05       		.byte	0x5
 6395 1425 37140000 		.long	0x1437
 6396 1429 01       		.uleb128 0x1
 6397 142a FC1F0000 		.long	0x1ffc
 6398 142e 9C020000 		.long	.LLST81
 6399 1432 9A020000 		.long	.LVUS81
 6400 1436 00       		.byte	0
 6401 1437 1F       		.uleb128 0x1f
 6402 1438 BD1F0000 		.long	0x1fbd
 6403 143c 73000000 		.long	.LBI529
GAS LISTING /tmp/cctFPqVW.s 			page 117


 6404 1440 03       		.byte	.LVU849
 6405 1441 B2010000 		.long	.LLRL82
 6406 1445 8702     		.value	0x287
 6407 1447 05       		.byte	0x5
 6408 1448 0B       		.uleb128 0xb
 6409 1449 B2010000 		.long	.LLRL82
 6410 144d 07       		.uleb128 0x7
 6411 144e DB1F0000 		.long	0x1fdb
 6412 1452 73000000 		.long	.LBI531
 6413 1456 0A       		.byte	.LVU856
 6414 1457 B2010000 		.long	.LLRL82
 6415 145b 03       		.byte	0x3
 6416 145c B201     		.value	0x1b2
 6417 145e 03       		.byte	0x3
 6418 145f 00       		.byte	0
 6419 1460 00       		.byte	0
 6420 1461 00       		.byte	0
 6421 1462 00       		.byte	0
 6422 1463 00       		.byte	0
 6423 1464 00       		.byte	0
 6424 1465 04       		.uleb128 0x4
 6425 1466 BD1F0000 		.long	0x1fbd
 6426 146a 52000000 		.long	.LBI542
 6427 146e 01       		.byte	.LVU815
 6428 146f BE010000 		.long	.LLRL83
 6429 1473 01       		.byte	0x1
 6430 1474 0603     		.value	0x306
 6431 1476 03       		.byte	0x3
 6432 1477 94140000 		.long	0x1494
 6433 147b 0B       		.uleb128 0xb
 6434 147c BE010000 		.long	.LLRL83
 6435 1480 07       		.uleb128 0x7
 6436 1481 DB1F0000 		.long	0x1fdb
 6437 1485 52000000 		.long	.LBI544
 6438 1489 08       		.byte	.LVU822
 6439 148a BE010000 		.long	.LLRL83
 6440 148e 03       		.byte	0x3
 6441 148f B201     		.value	0x1b2
 6442 1491 03       		.byte	0x3
 6443 1492 00       		.byte	0
 6444 1493 00       		.byte	0
 6445 1494 05       		.uleb128 0x5
 6446 1495 3F000000 		.long	.LVL95
 6447 1499 60080000 		.long	0x860
 6448 149d 00       		.byte	0
 6449 149e 10       		.uleb128 0x10
 6450 149f 58000000 		.long	0x58
 6451 14a3 AE140000 		.long	0x14ae
 6452 14a7 11       		.uleb128 0x11
 6453 14a8 32000000 		.long	0x32
 6454 14ac 09       		.byte	0x9
 6455 14ad 00       		.byte	0
 6456 14ae 0C       		.uleb128 0xc
 6457 14af 9E140000 		.long	0x149e
 6458 14b3 17       		.uleb128 0x17
 6459 14b4 1A020000 		.long	.LASF154
 6460 14b8 BC02     		.value	0x2bc
GAS LISTING /tmp/cctFPqVW.s 			page 118


 6461 14ba 00000000 		.long	.LFB230
 6462 14be 7D000000 		.long	.LFE230-.LFB230
 6463 14c2 01       		.uleb128 0x1
 6464 14c3 9C       		.byte	0x9c
 6465 14c4 9B150000 		.long	0x159b
 6466 14c8 06       		.uleb128 0x6
 6467 14c9 6D736700 		.string	"msg"
 6468 14cd BC02     		.value	0x2bc
 6469 14cf 17       		.byte	0x17
 6470 14d0 3F010000 		.long	0x13f
 6471 14d4 02       		.uleb128 0x2
 6472 14d5 91       		.byte	0x91
 6473 14d6 00       		.sleb128 0
 6474 14d7 12       		.uleb128 0x12
 6475 14d8 BF030000 		.long	.LASF134
 6476 14dc BD02     		.value	0x2bd
 6477 14de 0D       		.byte	0xd
 6478 14df A3050000 		.long	0x5a3
 6479 14e3 AD020000 		.long	.LLST62
 6480 14e7 A7020000 		.long	.LVUS62
 6481 14eb 08       		.uleb128 0x8
 6482 14ec 15090000 		.long	.LASF136
 6483 14f0 AB150000 		.long	0x15ab
 6484 14f4 07       		.uleb128 0x7
 6485 14f5 A21F0000 		.long	0x1fa2
 6486 14f9 00000000 		.long	.LBI456
 6487 14fd 02       		.byte	.LVU703
 6488 14fe 4D010000 		.long	.LLRL63
 6489 1502 01       		.byte	0x1
 6490 1503 BD02     		.value	0x2bd
 6491 1505 16       		.byte	0x16
 6492 1506 04       		.uleb128 0x4
 6493 1507 DA200000 		.long	0x20da
 6494 150b 24000000 		.long	.LBI460
 6495 150f 00       		.byte	.LVU716
 6496 1510 59010000 		.long	.LLRL64
 6497 1514 01       		.byte	0x1
 6498 1515 C702     		.value	0x2c7
 6499 1517 0A       		.byte	0xa
 6500 1518 2A150000 		.long	0x152a
 6501 151c 01       		.uleb128 0x1
 6502 151d EB200000 		.long	0x20eb
 6503 1521 C8020000 		.long	.LLST65
 6504 1525 C4020000 		.long	.LVUS65
 6505 1529 00       		.byte	0
 6506 152a 04       		.uleb128 0x4
 6507 152b 91200000 		.long	0x2091
 6508 152f 30000000 		.long	.LBI465
 6509 1533 01       		.byte	.LVU721
 6510 1534 68010000 		.long	.LLRL66
 6511 1538 01       		.byte	0x1
 6512 1539 C802     		.value	0x2c8
 6513 153b 18       		.byte	0x18
 6514 153c 61150000 		.long	0x1561
 6515 1540 01       		.uleb128 0x1
 6516 1541 A2200000 		.long	0x20a2
 6517 1545 DA020000 		.long	.LLST67
GAS LISTING /tmp/cctFPqVW.s 			page 119


 6518 1549 D8020000 		.long	.LVUS67
 6519 154d 0B       		.uleb128 0xb
 6520 154e 68010000 		.long	.LLRL66
 6521 1552 1D       		.uleb128 0x1d
 6522 1553 AE200000 		.long	0x20ae
 6523 1557 E5020000 		.long	.LLST68
 6524 155b E3020000 		.long	.LVUS68
 6525 155f 00       		.byte	0
 6526 1560 00       		.byte	0
 6527 1561 18       		.uleb128 0x18
 6528 1562 EB1F0000 		.long	0x1feb
 6529 1566 70000000 		.long	.LBI470
 6530 156a 01       		.byte	.LVU748
 6531 156b 70000000 		.long	.LBB470
 6532 156f 0D000000 		.long	.LBE470-.LBB470
 6533 1573 D202     		.value	0x2d2
 6534 1575 07       		.byte	0x7
 6535 1576 88150000 		.long	0x1588
 6536 157a 01       		.uleb128 0x1
 6537 157b FC1F0000 		.long	0x1ffc
 6538 157f F0020000 		.long	.LLST69
 6539 1583 EE020000 		.long	.LVUS69
 6540 1587 00       		.byte	0
 6541 1588 05       		.uleb128 0x5
 6542 1589 3E000000 		.long	.LVL83
 6543 158d 85080000 		.long	0x885
 6544 1591 05       		.uleb128 0x5
 6545 1592 5F000000 		.long	.LVL85
 6546 1596 60080000 		.long	0x860
 6547 159a 00       		.byte	0
 6548 159b 10       		.uleb128 0x10
 6549 159c 58000000 		.long	0x58
 6550 15a0 AB150000 		.long	0x15ab
 6551 15a4 11       		.uleb128 0x11
 6552 15a5 32000000 		.long	0x32
 6553 15a9 0A       		.byte	0xa
 6554 15aa 00       		.byte	0
 6555 15ab 0C       		.uleb128 0xc
 6556 15ac 9B150000 		.long	0x159b
 6557 15b0 17       		.uleb128 0x17
 6558 15b1 FE040000 		.long	.LASF155
 6559 15b5 A402     		.value	0x2a4
 6560 15b7 00000000 		.long	.LFB229
 6561 15bb 1B000000 		.long	.LFE229-.LFB229
 6562 15bf 01       		.uleb128 0x1
 6563 15c0 9C       		.byte	0x9c
 6564 15c1 17160000 		.long	0x1617
 6565 15c5 06       		.uleb128 0x6
 6566 15c6 6D736700 		.string	"msg"
 6567 15ca A402     		.value	0x2a4
 6568 15cc 16       		.byte	0x16
 6569 15cd 3F010000 		.long	0x13f
 6570 15d1 02       		.uleb128 0x2
 6571 15d2 91       		.byte	0x91
 6572 15d3 00       		.sleb128 0
 6573 15d4 18       		.uleb128 0x18
 6574 15d5 D31F0000 		.long	0x1fd3
GAS LISTING /tmp/cctFPqVW.s 			page 120


 6575 15d9 00000000 		.long	.LBI472
 6576 15dd 02       		.byte	.LVU759
 6577 15de 00000000 		.long	.LBB472
 6578 15e2 16000000 		.long	.LBE472-.LBB472
 6579 15e6 A602     		.value	0x2a6
 6580 15e8 03       		.byte	0x3
 6581 15e9 04160000 		.long	0x1604
 6582 15ed 14       		.uleb128 0x14
 6583 15ee E31F0000 		.long	0x1fe3
 6584 15f2 00000000 		.long	.LBI473
 6585 15f6 04       		.byte	.LVU761
 6586 15f7 00000000 		.long	.LBB473
 6587 15fb 16000000 		.long	.LBE473-.LBB473
 6588 15ff 03       		.byte	0x3
 6589 1600 9901     		.value	0x199
 6590 1602 03       		.byte	0x3
 6591 1603 00       		.byte	0
 6592 1604 49       		.uleb128 0x49
 6593 1605 1B000000 		.long	.LVL90
 6594 1609 B3140000 		.long	0x14b3
 6595 160d 4A       		.uleb128 0x4a
 6596 160e 02       		.uleb128 0x2
 6597 160f 91       		.byte	0x91
 6598 1610 00       		.sleb128 0
 6599 1611 03       		.uleb128 0x3
 6600 1612 91       		.byte	0x91
 6601 1613 00       		.sleb128 0
 6602 1614 06       		.byte	0x6
 6603 1615 00       		.byte	0
 6604 1616 00       		.byte	0
 6605 1617 35       		.uleb128 0x35
 6606 1618 2F050000 		.long	.LASF156
 6607 161c 7A02     		.value	0x27a
 6608 161e 38160000 		.long	0x1638
 6609 1622 0E       		.uleb128 0xe
 6610 1623 747000   		.string	"tp"
 6611 1626 01       		.byte	0x1
 6612 1627 7A02     		.value	0x27a
 6613 1629 1D       		.byte	0x1d
 6614 162a A3050000 		.long	0x5a3
 6615 162e 08       		.uleb128 0x8
 6616 162f 15090000 		.long	.LASF136
 6617 1633 EA0C0000 		.long	0xcea
 6618 1637 00       		.byte	0
 6619 1638 0D       		.uleb128 0xd
 6620 1639 2D040000 		.long	.LASF157
 6621 163d 6002     		.value	0x260
 6622 163f 0B       		.byte	0xb
 6623 1640 A3050000 		.long	0x5a3
 6624 1644 00000000 		.long	.LFB227
 6625 1648 20000000 		.long	.LFE227-.LFB227
 6626 164c 01       		.uleb128 0x1
 6627 164d 9C       		.byte	0x9c
 6628 164e 96160000 		.long	0x1696
 6629 1652 06       		.uleb128 0x6
 6630 1653 747000   		.string	"tp"
 6631 1656 6002     		.value	0x260
GAS LISTING /tmp/cctFPqVW.s 			page 121


 6632 1658 21       		.byte	0x21
 6633 1659 A3050000 		.long	0x5a3
 6634 165d 02       		.uleb128 0x2
 6635 165e 91       		.byte	0x91
 6636 165f 00       		.sleb128 0
 6637 1660 08       		.uleb128 0x8
 6638 1661 15090000 		.long	.LASF136
 6639 1665 A6160000 		.long	0x16a6
 6640 1669 1A       		.uleb128 0x1a
 6641 166a BD1F0000 		.long	0x1fbd
 6642 166e 13000000 		.long	.LBI415
 6643 1672 01       		.byte	.LVU636
 6644 1673 13000000 		.long	.LBB415
 6645 1677 0C000000 		.long	.LBE415-.LBB415
 6646 167b 6502     		.value	0x265
 6647 167d 03       		.byte	0x3
 6648 167e 14       		.uleb128 0x14
 6649 167f DB1F0000 		.long	0x1fdb
 6650 1683 13000000 		.long	.LBI417
 6651 1687 08       		.byte	.LVU643
 6652 1688 13000000 		.long	.LBB417
 6653 168c 0C000000 		.long	.LBE417-.LBB417
 6654 1690 03       		.byte	0x3
 6655 1691 B201     		.value	0x1b2
 6656 1693 03       		.byte	0x3
 6657 1694 00       		.byte	0
 6658 1695 00       		.byte	0
 6659 1696 10       		.uleb128 0x10
 6660 1697 58000000 		.long	0x58
 6661 169b A6160000 		.long	0x16a6
 6662 169f 11       		.uleb128 0x11
 6663 16a0 32000000 		.long	0x32
 6664 16a4 0B       		.byte	0xb
 6665 16a5 00       		.byte	0
 6666 16a6 0C       		.uleb128 0xc
 6667 16a7 96160000 		.long	0x1696
 6668 16ab 0D       		.uleb128 0xd
 6669 16ac 44070000 		.long	.LASF158
 6670 16b0 4A02     		.value	0x24a
 6671 16b2 0B       		.byte	0xb
 6672 16b3 A3050000 		.long	0x5a3
 6673 16b7 00000000 		.long	.LFB226
 6674 16bb 38000000 		.long	.LFE226-.LFB226
 6675 16bf 01       		.uleb128 0x1
 6676 16c0 9C       		.byte	0x9c
 6677 16c1 3E170000 		.long	0x173e
 6678 16c5 06       		.uleb128 0x6
 6679 16c6 747000   		.string	"tp"
 6680 16c9 4A02     		.value	0x24a
 6681 16cb 20       		.byte	0x20
 6682 16cc A3050000 		.long	0x5a3
 6683 16d0 02       		.uleb128 0x2
 6684 16d1 91       		.byte	0x91
 6685 16d2 00       		.sleb128 0
 6686 16d3 08       		.uleb128 0x8
 6687 16d4 15090000 		.long	.LASF136
 6688 16d8 AB150000 		.long	0x15ab
GAS LISTING /tmp/cctFPqVW.s 			page 122


 6689 16dc 04       		.uleb128 0x4
 6690 16dd D31F0000 		.long	0x1fd3
 6691 16e1 00000000 		.long	.LBI401
 6692 16e5 02       		.byte	.LVU598
 6693 16e6 29010000 		.long	.LLRL56
 6694 16ea 01       		.byte	0x1
 6695 16eb 4C02     		.value	0x24c
 6696 16ed 03       		.byte	0x3
 6697 16ee 05170000 		.long	0x1705
 6698 16f2 07       		.uleb128 0x7
 6699 16f3 E31F0000 		.long	0x1fe3
 6700 16f7 00000000 		.long	.LBI402
 6701 16fb 04       		.byte	.LVU600
 6702 16fc 29010000 		.long	.LLRL56
 6703 1700 03       		.byte	0x3
 6704 1701 9901     		.value	0x199
 6705 1703 03       		.byte	0x3
 6706 1704 00       		.byte	0
 6707 1705 04       		.uleb128 0x4
 6708 1706 BD1F0000 		.long	0x1fbd
 6709 170a 29000000 		.long	.LBI407
 6710 170e 01       		.byte	.LVU613
 6711 170f 35010000 		.long	.LLRL57
 6712 1713 01       		.byte	0x1
 6713 1714 4F02     		.value	0x24f
 6714 1716 03       		.byte	0x3
 6715 1717 34170000 		.long	0x1734
 6716 171b 0B       		.uleb128 0xb
 6717 171c 35010000 		.long	.LLRL57
 6718 1720 07       		.uleb128 0x7
 6719 1721 DB1F0000 		.long	0x1fdb
 6720 1725 29000000 		.long	.LBI409
 6721 1729 08       		.byte	.LVU620
 6722 172a 35010000 		.long	.LLRL57
 6723 172e 03       		.byte	0x3
 6724 172f B201     		.value	0x1b2
 6725 1731 03       		.byte	0x3
 6726 1732 00       		.byte	0
 6727 1733 00       		.byte	0
 6728 1734 05       		.uleb128 0x5
 6729 1735 29000000 		.long	.LVL72
 6730 1739 70080000 		.long	0x870
 6731 173d 00       		.byte	0
 6732 173e 0D       		.uleb128 0xd
 6733 173f 95050000 		.long	.LASF159
 6734 1743 0A02     		.value	0x20a
 6735 1745 0B       		.byte	0xb
 6736 1746 A3050000 		.long	0x5a3
 6737 174a 00000000 		.long	.LFB225
 6738 174e FF000000 		.long	.LFE225-.LFB225
 6739 1752 01       		.uleb128 0x1
 6740 1753 9C       		.byte	0x9c
 6741 1754 48190000 		.long	0x1948
 6742 1758 1B       		.uleb128 0x1b
 6743 1759 41000000 		.long	.LASF119
 6744 175d 0A02     		.value	0x20a
 6745 175f 28       		.byte	0x28
GAS LISTING /tmp/cctFPqVW.s 			page 123


 6746 1760 EF060000 		.long	0x6ef
 6747 1764 02       		.uleb128 0x2
 6748 1765 91       		.byte	0x91
 6749 1766 00       		.sleb128 0
 6750 1767 1B       		.uleb128 0x1b
 6751 1768 A1040000 		.long	.LASF160
 6752 176c 0A02     		.value	0x20a
 6753 176e 36       		.byte	0x36
 6754 176f 26000000 		.long	0x26
 6755 1773 02       		.uleb128 0x2
 6756 1774 91       		.byte	0x91
 6757 1775 04       		.sleb128 4
 6758 1776 1B       		.uleb128 0x1b
 6759 1777 13040000 		.long	.LASF76
 6760 177b 0B02     		.value	0x20b
 6761 177d 25       		.byte	0x25
 6762 177e 33010000 		.long	0x133
 6763 1782 02       		.uleb128 0x2
 6764 1783 91       		.byte	0x91
 6765 1784 08       		.sleb128 8
 6766 1785 1B       		.uleb128 0x1b
 6767 1786 7D030000 		.long	.LASF161
 6768 178a 0B02     		.value	0x20b
 6769 178c 33       		.byte	0x33
 6770 178d 98070000 		.long	0x798
 6771 1791 02       		.uleb128 0x2
 6772 1792 91       		.byte	0x91
 6773 1793 0C       		.sleb128 12
 6774 1794 06       		.uleb128 0x6
 6775 1795 61726700 		.string	"arg"
 6776 1799 0B02     		.value	0x20b
 6777 179b 3F       		.byte	0x3f
 6778 179c CC000000 		.long	0xcc
 6779 17a0 02       		.uleb128 0x2
 6780 17a1 91       		.byte	0x91
 6781 17a2 10       		.sleb128 16
 6782 17a3 19       		.uleb128 0x19
 6783 17a4 747000   		.string	"tp"
 6784 17a7 0C02     		.value	0x20c
 6785 17a9 0D       		.byte	0xd
 6786 17aa A3050000 		.long	0x5a3
 6787 17ae FF020000 		.long	.LLST39
 6788 17b2 FB020000 		.long	.LVUS39
 6789 17b6 12       		.uleb128 0x12
 6790 17b7 CB040000 		.long	.LASF120
 6791 17bb 0D02     		.value	0x20d
 6792 17bd 0C       		.byte	0xc
 6793 17be 6B040000 		.long	0x46b
 6794 17c2 15030000 		.long	.LLST40
 6795 17c6 0F030000 		.long	.LVUS40
 6796 17ca 12       		.uleb128 0x12
 6797 17cb 9F010000 		.long	.LASF162
 6798 17cf 0D02     		.value	0x20d
 6799 17d1 13       		.byte	0x13
 6800 17d2 6B040000 		.long	0x46b
 6801 17d6 39030000 		.long	.LLST41
 6802 17da 35030000 		.long	.LVUS41
GAS LISTING /tmp/cctFPqVW.s 			page 124


 6803 17de 12       		.uleb128 0x12
 6804 17df 0D080000 		.long	.LASF163
 6805 17e3 0D02     		.value	0x20d
 6806 17e5 1D       		.byte	0x1d
 6807 17e6 6B040000 		.long	0x46b
 6808 17ea 4F030000 		.long	.LLST42
 6809 17ee 4B030000 		.long	.LVUS42
 6810 17f2 08       		.uleb128 0x8
 6811 17f3 15090000 		.long	.LASF136
 6812 17f7 58190000 		.long	0x1958
 6813 17fb 4B       		.uleb128 0x4b
 6814 17fc 4B090000 		.long	.LASF164
 6815 1800 01       		.byte	0x1
 6816 1801 2F02     		.value	0x22f
 6817 1803 03       		.byte	0x3
 6818 1804 18080000 		.long	0x818
 6819 1808 2A       		.uleb128 0x2a
 6820 1809 CA000000 		.long	.LLRL43
 6821 180d 3A180000 		.long	0x183a
 6822 1811 19       		.uleb128 0x19
 6823 1812 65737000 		.string	"esp"
 6824 1816 3302     		.value	0x233
 6825 1818 03       		.byte	0x3
 6826 1819 6B040000 		.long	0x46b
 6827 181d 66030000 		.long	.LLST44
 6828 1821 62030000 		.long	.LVUS44
 6829 1825 12       		.uleb128 0x12
 6830 1826 A5090000 		.long	.LASF165
 6831 182a 3302     		.value	0x233
 6832 182c 03       		.byte	0x3
 6833 182d 6B040000 		.long	0x46b
 6834 1831 82030000 		.long	.LLST45
 6835 1835 76030000 		.long	.LVUS45
 6836 1839 00       		.byte	0
 6837 183a 04       		.uleb128 0x4
 6838 183b FC1E0000 		.long	0x1efc
 6839 183f 33000000 		.long	.LBI361
 6840 1843 05       		.byte	.LVU472
 6841 1844 ED000000 		.long	.LLRL46
 6842 1848 01       		.byte	0x1
 6843 1849 3002     		.value	0x230
 6844 184b 08       		.byte	0x8
 6845 184c B4180000 		.long	0x18b4
 6846 1850 01       		.uleb128 0x1
 6847 1851 181F0000 		.long	0x1f18
 6848 1855 B5030000 		.long	.LLST47
 6849 1859 B3030000 		.long	.LVUS47
 6850 185d 01       		.uleb128 0x1
 6851 185e 0D1F0000 		.long	0x1f0d
 6852 1862 C5030000 		.long	.LLST48
 6853 1866 C3030000 		.long	.LVUS48
 6854 186a 0B       		.uleb128 0xb
 6855 186b ED000000 		.long	.LLRL46
 6856 186f 23       		.uleb128 0x23
 6857 1870 78200000 		.long	0x2078
 6858 1874 88000000 		.long	.LBI363
 6859 1878 02       		.byte	.LVU518
GAS LISTING /tmp/cctFPqVW.s 			page 125


 6860 1879 02010000 		.long	.LLRL49
 6861 187d AB       		.byte	0xab
 6862 187e 03       		.byte	0x3
 6863 187f 91180000 		.long	0x1891
 6864 1883 01       		.uleb128 0x1
 6865 1884 84200000 		.long	0x2084
 6866 1888 D0030000 		.long	.LLST50
 6867 188c CE030000 		.long	.LVUS50
 6868 1890 00       		.byte	0
 6869 1891 24       		.uleb128 0x24
 6870 1892 F7200000 		.long	0x20f7
 6871 1896 76000000 		.long	.LBI366
 6872 189a 01       		.byte	.LVU506
 6873 189b 76000000 		.long	.LBB366
 6874 189f 00000000 		.long	.LBE366-.LBB366
 6875 18a3 90       		.byte	0x90
 6876 18a4 01       		.uleb128 0x1
 6877 18a5 01210000 		.long	0x2101
 6878 18a9 DB030000 		.long	.LLST51
 6879 18ad D9030000 		.long	.LVUS51
 6880 18b1 00       		.byte	0
 6881 18b2 00       		.byte	0
 6882 18b3 00       		.byte	0
 6883 18b4 04       		.uleb128 0x4
 6884 18b5 D31F0000 		.long	0x1fd3
 6885 18b9 CF000000 		.long	.LBI383
 6886 18bd 02       		.byte	.LVU560
 6887 18be 0E010000 		.long	.LLRL52
 6888 18c2 01       		.byte	0x1
 6889 18c3 3502     		.value	0x235
 6890 18c5 03       		.byte	0x3
 6891 18c6 DD180000 		.long	0x18dd
 6892 18ca 07       		.uleb128 0x7
 6893 18cb E31F0000 		.long	0x1fe3
 6894 18cf CF000000 		.long	.LBI384
 6895 18d3 04       		.byte	.LVU562
 6896 18d4 0E010000 		.long	.LLRL52
 6897 18d8 03       		.byte	0x3
 6898 18d9 9901     		.value	0x199
 6899 18db 03       		.byte	0x3
 6900 18dc 00       		.byte	0
 6901 18dd 04       		.uleb128 0x4
 6902 18de 31200000 		.long	0x2031
 6903 18e2 D8000000 		.long	.LBI393
 6904 18e6 03       		.byte	.LVU569
 6905 18e7 1D010000 		.long	.LLRL53
 6906 18eb 01       		.byte	0x1
 6907 18ec 3802     		.value	0x238
 6908 18ee 03       		.byte	0x3
 6909 18ef 0E190000 		.long	0x190e
 6910 18f3 01       		.uleb128 0x1
 6911 18f4 49200000 		.long	0x2049
 6912 18f8 E8030000 		.long	.LLST54
 6913 18fc E6030000 		.long	.LVUS54
 6914 1900 01       		.uleb128 0x1
 6915 1901 3D200000 		.long	0x203d
 6916 1905 F7030000 		.long	.LLST55
GAS LISTING /tmp/cctFPqVW.s 			page 126


 6917 1909 F1030000 		.long	.LVUS55
 6918 190d 00       		.byte	0
 6919 190e 18       		.uleb128 0x18
 6920 190f BD1F0000 		.long	0x1fbd
 6921 1913 EF000000 		.long	.LBI397
 6922 1917 01       		.byte	.LVU583
 6923 1918 EF000000 		.long	.LBB397
 6924 191c 06000000 		.long	.LBE397-.LBB397
 6925 1920 3D02     		.value	0x23d
 6926 1922 03       		.byte	0x3
 6927 1923 3E190000 		.long	0x193e
 6928 1927 14       		.uleb128 0x14
 6929 1928 DB1F0000 		.long	0x1fdb
 6930 192c EF000000 		.long	.LBI399
 6931 1930 08       		.byte	.LVU590
 6932 1931 EF000000 		.long	.LBB399
 6933 1935 06000000 		.long	.LBE399-.LBB399
 6934 1939 03       		.byte	0x3
 6935 193a B201     		.value	0x1b2
 6936 193c 03       		.byte	0x3
 6937 193d 00       		.byte	0
 6938 193e 05       		.uleb128 0x5
 6939 193f EF000000 		.long	.LVL69
 6940 1943 70080000 		.long	0x870
 6941 1947 00       		.byte	0
 6942 1948 10       		.uleb128 0x10
 6943 1949 58000000 		.long	0x58
 6944 194d 58190000 		.long	0x1958
 6945 1951 11       		.uleb128 0x11
 6946 1952 32000000 		.long	0x32
 6947 1956 11       		.byte	0x11
 6948 1957 00       		.byte	0
 6949 1958 0C       		.uleb128 0xc
 6950 1959 48190000 		.long	0x1948
 6951 195d 0D       		.uleb128 0xd
 6952 195e 2D020000 		.long	.LASF166
 6953 1962 E101     		.value	0x1e1
 6954 1964 0B       		.byte	0xb
 6955 1965 A3050000 		.long	0x5a3
 6956 1969 00000000 		.long	.LFB224
 6957 196d 3F000000 		.long	.LFE224-.LFB224
 6958 1971 01       		.uleb128 0x1
 6959 1972 9C       		.byte	0x9c
 6960 1973 0D1A0000 		.long	0x1a0d
 6961 1977 06       		.uleb128 0x6
 6962 1978 74647000 		.string	"tdp"
 6963 197c E101     		.value	0x1e1
 6964 197e 32       		.byte	0x32
 6965 197f 0D1A0000 		.long	0x1a0d
 6966 1983 02       		.uleb128 0x2
 6967 1984 91       		.byte	0x91
 6968 1985 00       		.sleb128 0
 6969 1986 19       		.uleb128 0x19
 6970 1987 747000   		.string	"tp"
 6971 198a E201     		.value	0x1e2
 6972 198c 0D       		.byte	0xd
 6973 198d A3050000 		.long	0x5a3
GAS LISTING /tmp/cctFPqVW.s 			page 127


 6974 1991 15040000 		.long	.LLST36
 6975 1995 0F040000 		.long	.LVUS36
 6976 1999 08       		.uleb128 0x8
 6977 199a 15090000 		.long	.LASF136
 6978 199e A6160000 		.long	0x16a6
 6979 19a2 04       		.uleb128 0x4
 6980 19a3 D31F0000 		.long	0x1fd3
 6981 19a7 00000000 		.long	.LBI330
 6982 19ab 06       		.byte	.LVU411
 6983 19ac B2000000 		.long	.LLRL37
 6984 19b0 01       		.byte	0x1
 6985 19b1 EE01     		.value	0x1ee
 6986 19b3 03       		.byte	0x3
 6987 19b4 CB190000 		.long	0x19cb
 6988 19b8 07       		.uleb128 0x7
 6989 19b9 E31F0000 		.long	0x1fe3
 6990 19bd 00000000 		.long	.LBI331
 6991 19c1 08       		.byte	.LVU413
 6992 19c2 B2000000 		.long	.LLRL37
 6993 19c6 03       		.byte	0x3
 6994 19c7 9901     		.value	0x199
 6995 19c9 03       		.byte	0x3
 6996 19ca 00       		.byte	0
 6997 19cb 04       		.uleb128 0x4
 6998 19cc BD1F0000 		.long	0x1fbd
 6999 19d0 30000000 		.long	.LBI336
 7000 19d4 01       		.byte	.LVU426
 7001 19d5 BE000000 		.long	.LLRL38
 7002 19d9 01       		.byte	0x1
 7003 19da F101     		.value	0x1f1
 7004 19dc 03       		.byte	0x3
 7005 19dd FA190000 		.long	0x19fa
 7006 19e1 0B       		.uleb128 0xb
 7007 19e2 BE000000 		.long	.LLRL38
 7008 19e6 07       		.uleb128 0x7
 7009 19e7 DB1F0000 		.long	0x1fdb
 7010 19eb 30000000 		.long	.LBI338
 7011 19ef 08       		.byte	.LVU433
 7012 19f0 BE000000 		.long	.LLRL38
 7013 19f4 03       		.byte	0x3
 7014 19f5 B201     		.value	0x1b2
 7015 19f7 03       		.byte	0x3
 7016 19f8 00       		.byte	0
 7017 19f9 00       		.byte	0
 7018 19fa 05       		.uleb128 0x5
 7019 19fb 23000000 		.long	.LVL51
 7020 19ff CD1A0000 		.long	0x1acd
 7021 1a03 05       		.uleb128 0x5
 7022 1a04 30000000 		.long	.LVL53
 7023 1a08 70080000 		.long	0x870
 7024 1a0c 00       		.byte	0
 7025 1a0d 09       		.uleb128 0x9
 7026 1a0e 24080000 		.long	0x824
 7027 1a12 0D       		.uleb128 0xd
 7028 1a13 22080000 		.long	.LASF167
 7029 1a17 CF01     		.value	0x1cf
 7030 1a19 0B       		.byte	0xb
GAS LISTING /tmp/cctFPqVW.s 			page 128


 7031 1a1a A3050000 		.long	0x5a3
 7032 1a1e 00000000 		.long	.LFB223
 7033 1a22 26000000 		.long	.LFE223-.LFB223
 7034 1a26 01       		.uleb128 0x1
 7035 1a27 9C       		.byte	0x9c
 7036 1a28 4E1A0000 		.long	0x1a4e
 7037 1a2c 06       		.uleb128 0x6
 7038 1a2d 74647000 		.string	"tdp"
 7039 1a31 CF01     		.value	0x1cf
 7040 1a33 33       		.byte	0x33
 7041 1a34 0D1A0000 		.long	0x1a0d
 7042 1a38 02       		.uleb128 0x2
 7043 1a39 91       		.byte	0x91
 7044 1a3a 00       		.sleb128 0
 7045 1a3b 05       		.uleb128 0x5
 7046 1a3c 18000000 		.long	.LVL48
 7047 1a40 CD1A0000 		.long	0x1acd
 7048 1a44 05       		.uleb128 0x5
 7049 1a45 21000000 		.long	.LVL49
 7050 1a49 85080000 		.long	0x885
 7051 1a4d 00       		.byte	0
 7052 1a4e 0D       		.uleb128 0xd
 7053 1a4f 8B020000 		.long	.LASF168
 7054 1a53 AA01     		.value	0x1aa
 7055 1a55 0B       		.byte	0xb
 7056 1a56 A3050000 		.long	0x5a3
 7057 1a5a 00000000 		.long	.LFB222
 7058 1a5e 24000000 		.long	.LFE222-.LFB222
 7059 1a62 01       		.uleb128 0x1
 7060 1a63 9C       		.byte	0x9c
 7061 1a64 CD1A0000 		.long	0x1acd
 7062 1a68 06       		.uleb128 0x6
 7063 1a69 74647000 		.string	"tdp"
 7064 1a6d AA01     		.value	0x1aa
 7065 1a6f 3B       		.byte	0x3b
 7066 1a70 0D1A0000 		.long	0x1a0d
 7067 1a74 02       		.uleb128 0x2
 7068 1a75 91       		.byte	0x91
 7069 1a76 00       		.sleb128 0
 7070 1a77 19       		.uleb128 0x19
 7071 1a78 747000   		.string	"tp"
 7072 1a7b AB01     		.value	0x1ab
 7073 1a7d 0D       		.byte	0xd
 7074 1a7e A3050000 		.long	0x5a3
 7075 1a82 2C040000 		.long	.LLST35
 7076 1a86 2A040000 		.long	.LVUS35
 7077 1a8a 08       		.uleb128 0x8
 7078 1a8b 15090000 		.long	.LASF136
 7079 1a8f AB0B0000 		.long	0xbab
 7080 1a93 18       		.uleb128 0x18
 7081 1a94 BD1F0000 		.long	0x1fbd
 7082 1a98 15000000 		.long	.LBI326
 7083 1a9c 01       		.byte	.LVU387
 7084 1a9d 15000000 		.long	.LBB326
 7085 1aa1 0C000000 		.long	.LBE326-.LBB326
 7086 1aa5 B801     		.value	0x1b8
 7087 1aa7 03       		.byte	0x3
GAS LISTING /tmp/cctFPqVW.s 			page 129


 7088 1aa8 C31A0000 		.long	0x1ac3
 7089 1aac 14       		.uleb128 0x14
 7090 1aad DB1F0000 		.long	0x1fdb
 7091 1ab1 15000000 		.long	.LBI328
 7092 1ab5 08       		.byte	.LVU394
 7093 1ab6 15000000 		.long	.LBB328
 7094 1aba 0C000000 		.long	.LBE328-.LBB328
 7095 1abe 03       		.byte	0x3
 7096 1abf B201     		.value	0x1b2
 7097 1ac1 03       		.byte	0x3
 7098 1ac2 00       		.byte	0
 7099 1ac3 05       		.uleb128 0x5
 7100 1ac4 15000000 		.long	.LVL46
 7101 1ac8 CD1A0000 		.long	0x1acd
 7102 1acc 00       		.byte	0
 7103 1acd 0D       		.uleb128 0xd
 7104 1ace 3C050000 		.long	.LASF169
 7105 1ad2 7401     		.value	0x174
 7106 1ad4 0B       		.byte	0xb
 7107 1ad5 A3050000 		.long	0x5a3
 7108 1ad9 00000000 		.long	.LFB221
 7109 1add FB000000 		.long	.LFE221-.LFB221
 7110 1ae1 01       		.uleb128 0x1
 7111 1ae2 9C       		.byte	0x9c
 7112 1ae3 0B1C0000 		.long	0x1c0b
 7113 1ae7 06       		.uleb128 0x6
 7114 1ae8 74647000 		.string	"tdp"
 7115 1aec 7401     		.value	0x174
 7116 1aee 3C       		.byte	0x3c
 7117 1aef 0D1A0000 		.long	0x1a0d
 7118 1af3 02       		.uleb128 0x2
 7119 1af4 91       		.byte	0x91
 7120 1af5 00       		.sleb128 0
 7121 1af6 19       		.uleb128 0x19
 7122 1af7 747000   		.string	"tp"
 7123 1afa 7501     		.value	0x175
 7124 1afc 0D       		.byte	0xd
 7125 1afd A3050000 		.long	0x5a3
 7126 1b01 37040000 		.long	.LLST21
 7127 1b05 35040000 		.long	.LVUS21
 7128 1b09 12       		.uleb128 0x12
 7129 1b0a 9F010000 		.long	.LASF162
 7130 1b0e 7601     		.value	0x176
 7131 1b10 0C       		.byte	0xc
 7132 1b11 6B040000 		.long	0x46b
 7133 1b15 49040000 		.long	.LLST22
 7134 1b19 41040000 		.long	.LVUS22
 7135 1b1d 12       		.uleb128 0x12
 7136 1b1e 0D080000 		.long	.LASF163
 7137 1b22 7601     		.value	0x176
 7138 1b24 16       		.byte	0x16
 7139 1b25 6B040000 		.long	0x46b
 7140 1b29 70040000 		.long	.LLST23
 7141 1b2d 6C040000 		.long	.LVUS23
 7142 1b31 08       		.uleb128 0x8
 7143 1b32 15090000 		.long	.LASF136
 7144 1b36 1B1C0000 		.long	0x1c1b
GAS LISTING /tmp/cctFPqVW.s 			page 130


 7145 1b3a 2A       		.uleb128 0x2a
 7146 1b3b 8B000000 		.long	.LLRL29
 7147 1b3f 6C1B0000 		.long	0x1b6c
 7148 1b43 19       		.uleb128 0x19
 7149 1b44 65737000 		.string	"esp"
 7150 1b48 9001     		.value	0x190
 7151 1b4a 03       		.byte	0x3
 7152 1b4b 6B040000 		.long	0x46b
 7153 1b4f 86040000 		.long	.LLST30
 7154 1b53 82040000 		.long	.LVUS30
 7155 1b57 12       		.uleb128 0x12
 7156 1b58 A5090000 		.long	.LASF165
 7157 1b5c 9001     		.value	0x190
 7158 1b5e 03       		.byte	0x3
 7159 1b5f 6B040000 		.long	0x46b
 7160 1b63 9B040000 		.long	.LLST31
 7161 1b67 99040000 		.long	.LVUS31
 7162 1b6b 00       		.byte	0
 7163 1b6c 04       		.uleb128 0x4
 7164 1b6d FC1E0000 		.long	0x1efc
 7165 1b71 29000000 		.long	.LBI294
 7166 1b75 04       		.byte	.LVU276
 7167 1b76 5F000000 		.long	.LLRL24
 7168 1b7a 01       		.byte	0x1
 7169 1b7b 8D01     		.value	0x18d
 7170 1b7d 08       		.byte	0x8
 7171 1b7e DE1B0000 		.long	0x1bde
 7172 1b82 01       		.uleb128 0x1
 7173 1b83 181F0000 		.long	0x1f18
 7174 1b87 A9040000 		.long	.LLST25
 7175 1b8b A5040000 		.long	.LVUS25
 7176 1b8f 01       		.uleb128 0x1
 7177 1b90 0D1F0000 		.long	0x1f0d
 7178 1b94 C1040000 		.long	.LLST26
 7179 1b98 BB040000 		.long	.LVUS26
 7180 1b9c 0B       		.uleb128 0xb
 7181 1b9d 5F000000 		.long	.LLRL24
 7182 1ba1 23       		.uleb128 0x23
 7183 1ba2 78200000 		.long	0x2078
 7184 1ba6 98000000 		.long	.LBI296
 7185 1baa 03       		.byte	.LVU324
 7186 1bab 7F000000 		.long	.LLRL27
 7187 1baf AB       		.byte	0xab
 7188 1bb0 03       		.byte	0x3
 7189 1bb1 BB1B0000 		.long	0x1bbb
 7190 1bb5 29       		.uleb128 0x29
 7191 1bb6 84200000 		.long	0x2084
 7192 1bba 00       		.byte	0
 7193 1bbb 24       		.uleb128 0x24
 7194 1bbc F7200000 		.long	0x20f7
 7195 1bc0 8A000000 		.long	.LBI299
 7196 1bc4 01       		.byte	.LVU313
 7197 1bc5 8A000000 		.long	.LBB299
 7198 1bc9 00000000 		.long	.LBE299-.LBB299
 7199 1bcd 90       		.byte	0x90
 7200 1bce 01       		.uleb128 0x1
 7201 1bcf 01210000 		.long	0x2101
GAS LISTING /tmp/cctFPqVW.s 			page 131


 7202 1bd3 DC040000 		.long	.LLST28
 7203 1bd7 DA040000 		.long	.LVUS28
 7204 1bdb 00       		.byte	0
 7205 1bdc 00       		.byte	0
 7206 1bdd 00       		.byte	0
 7207 1bde 1F       		.uleb128 0x1f
 7208 1bdf 31200000 		.long	0x2031
 7209 1be3 D7000000 		.long	.LBI320
 7210 1be7 02       		.byte	.LVU364
 7211 1be8 A6000000 		.long	.LLRL32
 7212 1bec 9301     		.value	0x193
 7213 1bee 03       		.byte	0x3
 7214 1bef 01       		.uleb128 0x1
 7215 1bf0 49200000 		.long	0x2049
 7216 1bf4 E9040000 		.long	.LLST33
 7217 1bf8 E7040000 		.long	.LVUS33
 7218 1bfc 01       		.uleb128 0x1
 7219 1bfd 3D200000 		.long	0x203d
 7220 1c01 F6040000 		.long	.LLST34
 7221 1c05 F2040000 		.long	.LVUS34
 7222 1c09 00       		.byte	0
 7223 1c0a 00       		.byte	0
 7224 1c0b 10       		.uleb128 0x10
 7225 1c0c 58000000 		.long	0x58
 7226 1c10 1B1C0000 		.long	0x1c1b
 7227 1c14 11       		.uleb128 0x11
 7228 1c15 32000000 		.long	0x32
 7229 1c19 15       		.byte	0x15
 7230 1c1a 00       		.byte	0
 7231 1c1b 0C       		.uleb128 0xc
 7232 1c1c 0B1C0000 		.long	0x1c0b
 7233 1c20 0D       		.uleb128 0xd
 7234 1c21 57030000 		.long	.LASF170
 7235 1c25 4E01     		.value	0x14e
 7236 1c27 0B       		.byte	0xb
 7237 1c28 A3050000 		.long	0x5a3
 7238 1c2c 00000000 		.long	.LFB220
 7239 1c30 40000000 		.long	.LFE220-.LFB220
 7240 1c34 01       		.uleb128 0x1
 7241 1c35 9C       		.byte	0x9c
 7242 1c36 D01C0000 		.long	0x1cd0
 7243 1c3a 37       		.uleb128 0x37
 7244 1c3b 747000   		.string	"tp"
 7245 1c3e 4E01     		.value	0x14e
 7246 1c40 27       		.byte	0x27
 7247 1c41 A3050000 		.long	0x5a3
 7248 1c45 11050000 		.long	.LLST18
 7249 1c49 09050000 		.long	.LVUS18
 7250 1c4d 06       		.uleb128 0x6
 7251 1c4e 74647000 		.string	"tdp"
 7252 1c52 4E01     		.value	0x14e
 7253 1c54 46       		.byte	0x46
 7254 1c55 0D1A0000 		.long	0x1a0d
 7255 1c59 02       		.uleb128 0x2
 7256 1c5a 91       		.byte	0x91
 7257 1c5b 04       		.sleb128 4
 7258 1c5c 08       		.uleb128 0x8
GAS LISTING /tmp/cctFPqVW.s 			page 132


 7259 1c5d 15090000 		.long	.LASF136
 7260 1c61 58190000 		.long	0x1958
 7261 1c65 04       		.uleb128 0x4
 7262 1c66 D31F0000 		.long	0x1fd3
 7263 1c6a 00000000 		.long	.LBI271
 7264 1c6e 06       		.byte	.LVU222
 7265 1c6f 47000000 		.long	.LLRL19
 7266 1c73 01       		.byte	0x1
 7267 1c74 5801     		.value	0x158
 7268 1c76 03       		.byte	0x3
 7269 1c77 8E1C0000 		.long	0x1c8e
 7270 1c7b 07       		.uleb128 0x7
 7271 1c7c E31F0000 		.long	0x1fe3
 7272 1c80 00000000 		.long	.LBI272
 7273 1c84 08       		.byte	.LVU224
 7274 1c85 47000000 		.long	.LLRL19
 7275 1c89 03       		.byte	0x3
 7276 1c8a 9901     		.value	0x199
 7277 1c8c 03       		.byte	0x3
 7278 1c8d 00       		.byte	0
 7279 1c8e 04       		.uleb128 0x4
 7280 1c8f BD1F0000 		.long	0x1fbd
 7281 1c93 31000000 		.long	.LBI277
 7282 1c97 01       		.byte	.LVU237
 7283 1c98 53000000 		.long	.LLRL20
 7284 1c9c 01       		.byte	0x1
 7285 1c9d 5B01     		.value	0x15b
 7286 1c9f 03       		.byte	0x3
 7287 1ca0 BD1C0000 		.long	0x1cbd
 7288 1ca4 0B       		.uleb128 0xb
 7289 1ca5 53000000 		.long	.LLRL20
 7290 1ca9 07       		.uleb128 0x7
 7291 1caa DB1F0000 		.long	0x1fdb
 7292 1cae 31000000 		.long	.LBI279
 7293 1cb2 08       		.byte	.LVU244
 7294 1cb3 53000000 		.long	.LLRL20
 7295 1cb7 03       		.byte	0x3
 7296 1cb8 B201     		.value	0x1b2
 7297 1cba 03       		.byte	0x3
 7298 1cbb 00       		.byte	0
 7299 1cbc 00       		.byte	0
 7300 1cbd 05       		.uleb128 0x5
 7301 1cbe 27000000 		.long	.LVL29
 7302 1cc2 AE1D0000 		.long	0x1dae
 7303 1cc6 05       		.uleb128 0x5
 7304 1cc7 31000000 		.long	.LVL31
 7305 1ccb 70080000 		.long	0x870
 7306 1ccf 00       		.byte	0
 7307 1cd0 0D       		.uleb128 0xd
 7308 1cd1 B5010000 		.long	.LASF171
 7309 1cd5 3B01     		.value	0x13b
 7310 1cd7 0B       		.byte	0xb
 7311 1cd8 A3050000 		.long	0x5a3
 7312 1cdc 00000000 		.long	.LFB219
 7313 1ce0 2A000000 		.long	.LFE219-.LFB219
 7314 1ce4 01       		.uleb128 0x1
 7315 1ce5 9C       		.byte	0x9c
GAS LISTING /tmp/cctFPqVW.s 			page 133


 7316 1ce6 1A1D0000 		.long	0x1d1a
 7317 1cea 06       		.uleb128 0x6
 7318 1ceb 747000   		.string	"tp"
 7319 1cee 3B01     		.value	0x13b
 7320 1cf0 28       		.byte	0x28
 7321 1cf1 A3050000 		.long	0x5a3
 7322 1cf5 02       		.uleb128 0x2
 7323 1cf6 91       		.byte	0x91
 7324 1cf7 00       		.sleb128 0
 7325 1cf8 06       		.uleb128 0x6
 7326 1cf9 74647000 		.string	"tdp"
 7327 1cfd 3B01     		.value	0x13b
 7328 1cff 47       		.byte	0x47
 7329 1d00 0D1A0000 		.long	0x1a0d
 7330 1d04 02       		.uleb128 0x2
 7331 1d05 91       		.byte	0x91
 7332 1d06 04       		.sleb128 4
 7333 1d07 05       		.uleb128 0x5
 7334 1d08 1C000000 		.long	.LVL26
 7335 1d0c AE1D0000 		.long	0x1dae
 7336 1d10 05       		.uleb128 0x5
 7337 1d11 25000000 		.long	.LVL27
 7338 1d15 85080000 		.long	0x885
 7339 1d19 00       		.byte	0
 7340 1d1a 0D       		.uleb128 0xd
 7341 1d1b 08050000 		.long	.LASF172
 7342 1d1f 1901     		.value	0x119
 7343 1d21 0B       		.byte	0xb
 7344 1d22 A3050000 		.long	0x5a3
 7345 1d26 00000000 		.long	.LFB218
 7346 1d2a 29000000 		.long	.LFE218-.LFB218
 7347 1d2e 01       		.uleb128 0x1
 7348 1d2f 9C       		.byte	0x9c
 7349 1d30 991D0000 		.long	0x1d99
 7350 1d34 37       		.uleb128 0x37
 7351 1d35 747000   		.string	"tp"
 7352 1d38 1901     		.value	0x119
 7353 1d3a 29       		.byte	0x29
 7354 1d3b A3050000 		.long	0x5a3
 7355 1d3f 30050000 		.long	.LLST17
 7356 1d43 2C050000 		.long	.LVUS17
 7357 1d47 06       		.uleb128 0x6
 7358 1d48 74647000 		.string	"tdp"
 7359 1d4c 1A01     		.value	0x11a
 7360 1d4e 3A       		.byte	0x3a
 7361 1d4f 0D1A0000 		.long	0x1a0d
 7362 1d53 02       		.uleb128 0x2
 7363 1d54 91       		.byte	0x91
 7364 1d55 04       		.sleb128 4
 7365 1d56 08       		.uleb128 0x8
 7366 1d57 15090000 		.long	.LASF136
 7367 1d5b A91D0000 		.long	0x1da9
 7368 1d5f 18       		.uleb128 0x18
 7369 1d60 BD1F0000 		.long	0x1fbd
 7370 1d64 19000000 		.long	.LBI267
 7371 1d68 01       		.byte	.LVU198
 7372 1d69 19000000 		.long	.LBB267
GAS LISTING /tmp/cctFPqVW.s 			page 134


 7373 1d6d 0C000000 		.long	.LBE267-.LBB267
 7374 1d71 2501     		.value	0x125
 7375 1d73 03       		.byte	0x3
 7376 1d74 8F1D0000 		.long	0x1d8f
 7377 1d78 14       		.uleb128 0x14
 7378 1d79 DB1F0000 		.long	0x1fdb
 7379 1d7d 19000000 		.long	.LBI269
 7380 1d81 08       		.byte	.LVU205
 7381 1d82 19000000 		.long	.LBB269
 7382 1d86 0C000000 		.long	.LBE269-.LBB269
 7383 1d8a 03       		.byte	0x3
 7384 1d8b B201     		.value	0x1b2
 7385 1d8d 03       		.byte	0x3
 7386 1d8e 00       		.byte	0
 7387 1d8f 05       		.uleb128 0x5
 7388 1d90 19000000 		.long	.LVL24
 7389 1d94 AE1D0000 		.long	0x1dae
 7390 1d98 00       		.byte	0
 7391 1d99 10       		.uleb128 0x10
 7392 1d9a 58000000 		.long	0x58
 7393 1d9e A91D0000 		.long	0x1da9
 7394 1da2 11       		.uleb128 0x11
 7395 1da3 32000000 		.long	0x32
 7396 1da7 13       		.byte	0x13
 7397 1da8 00       		.byte	0
 7398 1da9 0C       		.uleb128 0xc
 7399 1daa 991D0000 		.long	0x1d99
 7400 1dae 4C       		.uleb128 0x4c
 7401 1daf 6E090000 		.long	.LASF173
 7402 1db3 01       		.byte	0x1
 7403 1db4 EE       		.byte	0xee
 7404 1db5 0B       		.byte	0xb
 7405 1db6 A3050000 		.long	0x5a3
 7406 1dba 00000000 		.long	.LFB217
 7407 1dbe EB000000 		.long	.LFE217-.LFB217
 7408 1dc2 01       		.uleb128 0x1
 7409 1dc3 9C       		.byte	0x9c
 7410 1dc4 C51E0000 		.long	0x1ec5
 7411 1dc8 38       		.uleb128 0x38
 7412 1dc9 747000   		.string	"tp"
 7413 1dcc EE       		.byte	0xee
 7414 1dcd 2A       		.byte	0x2a
 7415 1dce A3050000 		.long	0x5a3
 7416 1dd2 45050000 		.long	.LLST4
 7417 1dd6 41050000 		.long	.LVUS4
 7418 1dda 38       		.uleb128 0x38
 7419 1ddb 74647000 		.string	"tdp"
 7420 1ddf EF       		.byte	0xef
 7421 1de0 3B       		.byte	0x3b
 7422 1de1 0D1A0000 		.long	0x1a0d
 7423 1de5 5D050000 		.long	.LLST5
 7424 1de9 59050000 		.long	.LVUS5
 7425 1ded 08       		.uleb128 0x8
 7426 1dee 15090000 		.long	.LASF136
 7427 1df2 AB0B0000 		.long	0xbab
 7428 1df6 2A       		.uleb128 0x2a
 7429 1df7 2C000000 		.long	.LLRL11
GAS LISTING /tmp/cctFPqVW.s 			page 135


 7430 1dfb 281E0000 		.long	0x1e28
 7431 1dff 4D       		.uleb128 0x4d
 7432 1e00 65737000 		.string	"esp"
 7433 1e04 01       		.byte	0x1
 7434 1e05 FF       		.byte	0xff
 7435 1e06 03       		.byte	0x3
 7436 1e07 6B040000 		.long	0x46b
 7437 1e0b 81050000 		.long	.LLST12
 7438 1e0f 71050000 		.long	.LVUS12
 7439 1e13 4E       		.uleb128 0x4e
 7440 1e14 A5090000 		.long	.LASF165
 7441 1e18 01       		.byte	0x1
 7442 1e19 FF       		.byte	0xff
 7443 1e1a 03       		.byte	0x3
 7444 1e1b 6B040000 		.long	0x46b
 7445 1e1f C1050000 		.long	.LLST13
 7446 1e23 BD050000 		.long	.LVUS13
 7447 1e27 00       		.byte	0
 7448 1e28 23       		.uleb128 0x23
 7449 1e29 FC1E0000 		.long	0x1efc
 7450 1e2d 1C000000 		.long	.LBI246
 7451 1e31 00       		.byte	.LVU86
 7452 1e32 0C000000 		.long	.LLRL6
 7453 1e36 FC       		.byte	0xfc
 7454 1e37 08       		.byte	0x8
 7455 1e38 981E0000 		.long	0x1e98
 7456 1e3c 01       		.uleb128 0x1
 7457 1e3d 181F0000 		.long	0x1f18
 7458 1e41 DC050000 		.long	.LLST7
 7459 1e45 D8050000 		.long	.LVUS7
 7460 1e49 01       		.uleb128 0x1
 7461 1e4a 0D1F0000 		.long	0x1f0d
 7462 1e4e F3050000 		.long	.LLST8
 7463 1e52 EF050000 		.long	.LVUS8
 7464 1e56 0B       		.uleb128 0xb
 7465 1e57 0C000000 		.long	.LLRL6
 7466 1e5b 23       		.uleb128 0x23
 7467 1e5c 78200000 		.long	0x2078
 7468 1e60 7D000000 		.long	.LBI248
 7469 1e64 03       		.byte	.LVU134
 7470 1e65 20000000 		.long	.LLRL9
 7471 1e69 AB       		.byte	0xab
 7472 1e6a 03       		.byte	0x3
 7473 1e6b 751E0000 		.long	0x1e75
 7474 1e6f 29       		.uleb128 0x29
 7475 1e70 84200000 		.long	0x2084
 7476 1e74 00       		.byte	0
 7477 1e75 24       		.uleb128 0x24
 7478 1e76 F7200000 		.long	0x20f7
 7479 1e7a 6F000000 		.long	.LBI251
 7480 1e7e 01       		.byte	.LVU123
 7481 1e7f 6F000000 		.long	.LBB251
 7482 1e83 00000000 		.long	.LBE251-.LBB251
 7483 1e87 90       		.byte	0x90
 7484 1e88 01       		.uleb128 0x1
 7485 1e89 01210000 		.long	0x2101
 7486 1e8d 08060000 		.long	.LLST10
GAS LISTING /tmp/cctFPqVW.s 			page 136


 7487 1e91 06060000 		.long	.LVUS10
 7488 1e95 00       		.byte	0
 7489 1e96 00       		.byte	0
 7490 1e97 00       		.byte	0
 7491 1e98 1F       		.uleb128 0x1f
 7492 1e99 31200000 		.long	0x2031
 7493 1e9d C6000000 		.long	.LBI262
 7494 1ea1 00       		.byte	.LVU172
 7495 1ea2 3B000000 		.long	.LLRL14
 7496 1ea6 0301     		.value	0x103
 7497 1ea8 03       		.byte	0x3
 7498 1ea9 01       		.uleb128 0x1
 7499 1eaa 49200000 		.long	0x2049
 7500 1eae 18060000 		.long	.LLST15
 7501 1eb2 16060000 		.long	.LVUS15
 7502 1eb6 01       		.uleb128 0x1
 7503 1eb7 3D200000 		.long	0x203d
 7504 1ebb 29060000 		.long	.LLST16
 7505 1ebf 21060000 		.long	.LVUS16
 7506 1ec3 00       		.byte	0
 7507 1ec4 00       		.byte	0
 7508 1ec5 4F       		.uleb128 0x4f
 7509 1ec6 2F010000 		.long	.LASF174
 7510 1eca 01       		.byte	0x1
 7511 1ecb C8       		.byte	0xc8
 7512 1ecc 06       		.byte	0x6
 7513 1ecd 01       		.byte	0x1
 7514 1ece E71E0000 		.long	0x1ee7
 7515 1ed2 1E       		.uleb128 0x1e
 7516 1ed3 747000   		.string	"tp"
 7517 1ed6 01       		.byte	0x1
 7518 1ed7 C8       		.byte	0xc8
 7519 1ed8 23       		.byte	0x23
 7520 1ed9 A3050000 		.long	0x5a3
 7521 1edd 08       		.uleb128 0x8
 7522 1ede 15090000 		.long	.LASF136
 7523 1ee2 F71E0000 		.long	0x1ef7
 7524 1ee6 00       		.byte	0
 7525 1ee7 10       		.uleb128 0x10
 7526 1ee8 58000000 		.long	0x58
 7527 1eec F71E0000 		.long	0x1ef7
 7528 1ef0 11       		.uleb128 0x11
 7529 1ef1 32000000 		.long	0x32
 7530 1ef5 12       		.byte	0x12
 7531 1ef6 00       		.byte	0
 7532 1ef7 0C       		.uleb128 0xc
 7533 1ef8 E71E0000 		.long	0x1ee7
 7534 1efc 50       		.uleb128 0x50
 7535 1efd 1E090000 		.long	.LASF175
 7536 1f01 01       		.byte	0x1
 7537 1f02 74       		.byte	0x74
 7538 1f03 0B       		.byte	0xb
 7539 1f04 A3050000 		.long	0x5a3
 7540 1f08 01       		.byte	0x1
 7541 1f09 2E1F0000 		.long	0x1f2e
 7542 1f0d 1E       		.uleb128 0x1e
 7543 1f0e 747000   		.string	"tp"
GAS LISTING /tmp/cctFPqVW.s 			page 137


 7544 1f11 01       		.byte	0x1
 7545 1f12 74       		.byte	0x74
 7546 1f13 25       		.byte	0x25
 7547 1f14 A3050000 		.long	0x5a3
 7548 1f18 1E       		.uleb128 0x1e
 7549 1f19 74647000 		.string	"tdp"
 7550 1f1d 01       		.byte	0x1
 7551 1f1e 75       		.byte	0x75
 7552 1f1f 36       		.byte	0x36
 7553 1f20 0D1A0000 		.long	0x1a0d
 7554 1f24 08       		.uleb128 0x8
 7555 1f25 15090000 		.long	.LASF136
 7556 1f29 3E1F0000 		.long	0x1f3e
 7557 1f2d 00       		.byte	0
 7558 1f2e 10       		.uleb128 0x10
 7559 1f2f 58000000 		.long	0x58
 7560 1f33 3E1F0000 		.long	0x1f3e
 7561 1f37 11       		.uleb128 0x11
 7562 1f38 32000000 		.long	0x32
 7563 1f3c 0F       		.byte	0xf
 7564 1f3d 00       		.byte	0
 7565 1f3e 0C       		.uleb128 0xc
 7566 1f3f 2E1F0000 		.long	0x1f2e
 7567 1f43 21       		.uleb128 0x21
 7568 1f44 72070000 		.long	.LASF176
 7569 1f48 05       		.byte	0x5
 7570 1f49 9802     		.value	0x298
 7571 1f4b 7F1F0000 		.long	0x1f7f
 7572 1f4f 0E       		.uleb128 0xe
 7573 1f50 74717000 		.string	"tqp"
 7574 1f54 05       		.byte	0x5
 7575 1f55 9802     		.value	0x298
 7576 1f57 39       		.byte	0x39
 7577 1f58 9B090000 		.long	0x99b
 7578 1f5c 0E       		.uleb128 0xe
 7579 1f5d 6D736700 		.string	"msg"
 7580 1f61 05       		.byte	0x5
 7581 1f62 9802     		.value	0x298
 7582 1f64 44       		.byte	0x44
 7583 1f65 3F010000 		.long	0x13f
 7584 1f69 22       		.uleb128 0x22
 7585 1f6a 747000   		.string	"tp"
 7586 1f6d 05       		.byte	0x5
 7587 1f6e 9902     		.value	0x299
 7588 1f70 0D       		.byte	0xd
 7589 1f71 A3050000 		.long	0x5a3
 7590 1f75 08       		.uleb128 0x8
 7591 1f76 15090000 		.long	.LASF136
 7592 1f7a A91D0000 		.long	0x1da9
 7593 1f7e 00       		.byte	0
 7594 1f7f 21       		.uleb128 0x21
 7595 1f80 F0070000 		.long	.LASF177
 7596 1f84 05       		.byte	0x5
 7597 1f85 7502     		.value	0x275
 7598 1f87 A21F0000 		.long	0x1fa2
 7599 1f8b 25       		.uleb128 0x25
 7600 1f8c FF030000 		.long	.LASF178
GAS LISTING /tmp/cctFPqVW.s 			page 138


 7601 1f90 05       		.byte	0x5
 7602 1f91 7502     		.value	0x275
 7603 1f93 2E       		.byte	0x2e
 7604 1f94 69030000 		.long	0x369
 7605 1f98 08       		.uleb128 0x8
 7606 1f99 15090000 		.long	.LASF136
 7607 1f9d A6160000 		.long	0x16a6
 7608 1fa1 00       		.byte	0
 7609 1fa2 51       		.uleb128 0x51
 7610 1fa3 F8020000 		.long	.LASF179
 7611 1fa7 05       		.byte	0x5
 7612 1fa8 0F02     		.value	0x20f
 7613 1faa 19       		.byte	0x19
 7614 1fab A3050000 		.long	0x5a3
 7615 1faf 03       		.byte	0x3
 7616 1fb0 52       		.uleb128 0x52
 7617 1fb1 C0000000 		.long	.LASF180
 7618 1fb5 06       		.byte	0x6
 7619 1fb6 87       		.byte	0x87
 7620 1fb7 19       		.byte	0x19
 7621 1fb8 58030000 		.long	0x358
 7622 1fbc 03       		.byte	0x3
 7623 1fbd 21       		.uleb128 0x21
 7624 1fbe E7020000 		.long	.LASF181
 7625 1fc2 03       		.byte	0x3
 7626 1fc3 A501     		.value	0x1a5
 7627 1fc5 D31F0000 		.long	0x1fd3
 7628 1fc9 08       		.uleb128 0x8
 7629 1fca 15090000 		.long	.LASF136
 7630 1fce A6160000 		.long	0x16a6
 7631 1fd2 00       		.byte	0
 7632 1fd3 2B       		.uleb128 0x2b
 7633 1fd4 E6030000 		.long	.LASF182
 7634 1fd8 03       		.byte	0x3
 7635 1fd9 9701     		.value	0x197
 7636 1fdb 2B       		.uleb128 0x2b
 7637 1fdc 3F090000 		.long	.LASF183
 7638 1fe0 04       		.byte	0x4
 7639 1fe1 7201     		.value	0x172
 7640 1fe3 2B       		.uleb128 0x2b
 7641 1fe4 6C080000 		.long	.LASF184
 7642 1fe8 04       		.byte	0x4
 7643 1fe9 6901     		.value	0x169
 7644 1feb 20       		.uleb128 0x20
 7645 1fec B7020000 		.long	.LASF185
 7646 1ff0 02       		.byte	0x2
 7647 1ff1 7A01     		.value	0x17a
 7648 1ff3 1B       		.byte	0x1b
 7649 1ff4 DA030000 		.long	0x3da
 7650 1ff8 08200000 		.long	0x2008
 7651 1ffc 0E       		.uleb128 0xe
 7652 1ffd 7000     		.string	"p"
 7653 1fff 02       		.byte	0x2
 7654 2000 7A01     		.value	0x17a
 7655 2002 38       		.byte	0x38
 7656 2003 DA030000 		.long	0x3da
 7657 2007 00       		.byte	0
GAS LISTING /tmp/cctFPqVW.s 			page 139


 7658 2008 20       		.uleb128 0x20
 7659 2009 18040000 		.long	.LASF186
 7660 200d 02       		.byte	0x2
 7661 200e 5401     		.value	0x154
 7662 2010 1B       		.byte	0x1b
 7663 2011 DA030000 		.long	0x3da
 7664 2015 31200000 		.long	0x2031
 7665 2019 0E       		.uleb128 0xe
 7666 201a 717000   		.string	"qp"
 7667 201d 02       		.byte	0x2
 7668 201e 5401     		.value	0x154
 7669 2020 3C       		.byte	0x3c
 7670 2021 DA030000 		.long	0x3da
 7671 2025 22       		.uleb128 0x22
 7672 2026 7000     		.string	"p"
 7673 2028 02       		.byte	0x2
 7674 2029 5501     		.value	0x155
 7675 202b 0F       		.byte	0xf
 7676 202c DA030000 		.long	0x3da
 7677 2030 00       		.byte	0
 7678 2031 21       		.uleb128 0x21
 7679 2032 79010000 		.long	.LASF187
 7680 2036 02       		.byte	0x2
 7681 2037 4201     		.value	0x142
 7682 2039 55200000 		.long	0x2055
 7683 203d 0E       		.uleb128 0xe
 7684 203e 717000   		.string	"qp"
 7685 2041 02       		.byte	0x2
 7686 2042 4201     		.value	0x142
 7687 2044 30       		.byte	0x30
 7688 2045 DA030000 		.long	0x3da
 7689 2049 0E       		.uleb128 0xe
 7690 204a 7000     		.string	"p"
 7691 204c 02       		.byte	0x2
 7692 204d 4201     		.value	0x142
 7693 204f 40       		.byte	0x40
 7694 2050 DA030000 		.long	0x3da
 7695 2054 00       		.byte	0
 7696 2055 20       		.uleb128 0x20
 7697 2056 2C070000 		.long	.LASF188
 7698 205a 02       		.byte	0x2
 7699 205b 3501     		.value	0x135
 7700 205d 14       		.byte	0x14
 7701 205e 1B050000 		.long	0x51b
 7702 2062 73200000 		.long	0x2073
 7703 2066 0E       		.uleb128 0xe
 7704 2067 717000   		.string	"qp"
 7705 206a 02       		.byte	0x2
 7706 206b 3501     		.value	0x135
 7707 206d 38       		.byte	0x38
 7708 206e 73200000 		.long	0x2073
 7709 2072 00       		.byte	0
 7710 2073 09       		.uleb128 0x9
 7711 2074 AD030000 		.long	0x3ad
 7712 2078 21       		.uleb128 0x21
 7713 2079 14080000 		.long	.LASF189
 7714 207d 02       		.byte	0x2
GAS LISTING /tmp/cctFPqVW.s 			page 140


 7715 207e 1A01     		.value	0x11a
 7716 2080 91200000 		.long	0x2091
 7717 2084 0E       		.uleb128 0xe
 7718 2085 717000   		.string	"qp"
 7719 2088 02       		.byte	0x2
 7720 2089 1A01     		.value	0x11a
 7721 208b 2E       		.byte	0x2e
 7722 208c DA030000 		.long	0x3da
 7723 2090 00       		.byte	0
 7724 2091 20       		.uleb128 0x20
 7725 2092 F0030000 		.long	.LASF190
 7726 2096 02       		.byte	0x2
 7727 2097 0B01     		.value	0x10b
 7728 2099 1A       		.byte	0x1a
 7729 209a 9C030000 		.long	0x39c
 7730 209e BA200000 		.long	0x20ba
 7731 20a2 0E       		.uleb128 0xe
 7732 20a3 6C7000   		.string	"lp"
 7733 20a6 02       		.byte	0x2
 7734 20a7 0B01     		.value	0x10b
 7735 20a9 34       		.byte	0x34
 7736 20aa 9C030000 		.long	0x39c
 7737 20ae 22       		.uleb128 0x22
 7738 20af 7000     		.string	"p"
 7739 20b1 02       		.byte	0x2
 7740 20b2 0D01     		.value	0x10d
 7741 20b4 0E       		.byte	0xe
 7742 20b5 9C030000 		.long	0x39c
 7743 20b9 00       		.byte	0
 7744 20ba 39       		.uleb128 0x39
 7745 20bb D6080000 		.long	.LASF191
 7746 20bf FC       		.byte	0xfc
 7747 20c0 DA200000 		.long	0x20da
 7748 20c4 1E       		.uleb128 0x1e
 7749 20c5 6C7000   		.string	"lp"
 7750 20c8 02       		.byte	0x2
 7751 20c9 FC       		.byte	0xfc
 7752 20ca 2C       		.byte	0x2c
 7753 20cb 9C030000 		.long	0x39c
 7754 20cf 1E       		.uleb128 0x1e
 7755 20d0 7000     		.string	"p"
 7756 20d2 02       		.byte	0x2
 7757 20d3 FC       		.byte	0xfc
 7758 20d4 3B       		.byte	0x3b
 7759 20d5 9C030000 		.long	0x39c
 7760 20d9 00       		.byte	0
 7761 20da 53       		.uleb128 0x53
 7762 20db E4050000 		.long	.LASF192
 7763 20df 02       		.byte	0x2
 7764 20e0 EF       		.byte	0xef
 7765 20e1 14       		.byte	0x14
 7766 20e2 1B050000 		.long	0x51b
 7767 20e6 03       		.byte	0x3
 7768 20e7 F7200000 		.long	0x20f7
 7769 20eb 1E       		.uleb128 0x1e
 7770 20ec 6C7000   		.string	"lp"
 7771 20ef 02       		.byte	0x2
GAS LISTING /tmp/cctFPqVW.s 			page 141


 7772 20f0 EF       		.byte	0xef
 7773 20f1 30       		.byte	0x30
 7774 20f2 9C030000 		.long	0x39c
 7775 20f6 00       		.byte	0
 7776 20f7 39       		.uleb128 0x39
 7777 20f8 34000000 		.long	.LASF193
 7778 20fc D5       		.byte	0xd5
 7779 20fd 0D210000 		.long	0x210d
 7780 2101 1E       		.uleb128 0x1e
 7781 2102 6C7000   		.string	"lp"
 7782 2105 02       		.byte	0x2
 7783 2106 D5       		.byte	0xd5
 7784 2107 2C       		.byte	0x2c
 7785 2108 9C030000 		.long	0x39c
 7786 210c 00       		.byte	0
 7787 210d 20       		.uleb128 0x20
 7788 210e F5050000 		.long	.LASF194
 7789 2112 07       		.byte	0x7
 7790 2113 E401     		.value	0x1e4
 7791 2115 14       		.byte	0x14
 7792 2116 1B050000 		.long	0x51b
 7793 211a 46210000 		.long	0x2146
 7794 211e 25       		.uleb128 0x25
 7795 211f F3020000 		.long	.LASF145
 7796 2123 07       		.byte	0x7
 7797 2124 E401     		.value	0x1e4
 7798 2126 2F       		.byte	0x2f
 7799 2127 58030000 		.long	0x358
 7800 212b 25       		.uleb128 0x25
 7801 212c 5E070000 		.long	.LASF195
 7802 2130 07       		.byte	0x7
 7803 2131 E501     		.value	0x1e5
 7804 2133 2F       		.byte	0x2f
 7805 2134 58030000 		.long	0x358
 7806 2138 0E       		.uleb128 0xe
 7807 2139 656E6400 		.string	"end"
 7808 213d 07       		.byte	0x7
 7809 213e E601     		.value	0x1e6
 7810 2140 2F       		.byte	0x2f
 7811 2141 58030000 		.long	0x358
 7812 2145 00       		.byte	0
 7813 2146 20       		.uleb128 0x20
 7814 2147 A7050000 		.long	.LASF196
 7815 214b 07       		.byte	0x7
 7816 214c CD01     		.value	0x1cd
 7817 214e 1D       		.byte	0x1d
 7818 214f 69030000 		.long	0x369
 7819 2153 72210000 		.long	0x2172
 7820 2157 25       		.uleb128 0x25
 7821 2158 5E070000 		.long	.LASF195
 7822 215c 07       		.byte	0x7
 7823 215d CD01     		.value	0x1cd
 7824 215f 33       		.byte	0x33
 7825 2160 58030000 		.long	0x358
 7826 2164 0E       		.uleb128 0xe
 7827 2165 656E6400 		.string	"end"
 7828 2169 07       		.byte	0x7
GAS LISTING /tmp/cctFPqVW.s 			page 142


 7829 216a CD01     		.value	0x1cd
 7830 216c 44       		.byte	0x44
 7831 216d 58030000 		.long	0x358
 7832 2171 00       		.byte	0
 7833 2172 3A       		.uleb128 0x3a
 7834 2173 FC1E0000 		.long	0x1efc
 7835 2177 00000000 		.long	.LFB215
 7836 217b 80000000 		.long	.LFE215-.LFB215
 7837 217f 01       		.uleb128 0x1
 7838 2180 9C       		.byte	0x9c
 7839 2181 E8210000 		.long	0x21e8
 7840 2185 01       		.uleb128 0x1
 7841 2186 0D1F0000 		.long	0x1f0d
 7842 218a 4C060000 		.long	.LLST0
 7843 218e 48060000 		.long	.LVUS0
 7844 2192 01       		.uleb128 0x1
 7845 2193 181F0000 		.long	0x1f18
 7846 2197 62060000 		.long	.LLST1
 7847 219b 5E060000 		.long	.LVUS1
 7848 219f 54       		.uleb128 0x54
 7849 21a0 F7200000 		.long	0x20f7
 7850 21a4 57000000 		.long	.LBI233
 7851 21a8 01       		.byte	.LVU34
 7852 21a9 57000000 		.long	.LBB233
 7853 21ad 00000000 		.long	.LBE233-.LBB233
 7854 21b1 01       		.byte	0x1
 7855 21b2 90       		.byte	0x90
 7856 21b3 03       		.byte	0x3
 7857 21b4 C6210000 		.long	0x21c6
 7858 21b8 01       		.uleb128 0x1
 7859 21b9 01210000 		.long	0x2101
 7860 21bd 76060000 		.long	.LLST2
 7861 21c1 74060000 		.long	.LVUS2
 7862 21c5 00       		.byte	0
 7863 21c6 24       		.uleb128 0x24
 7864 21c7 78200000 		.long	0x2078
 7865 21cb 6B000000 		.long	.LBI235
 7866 21cf 03       		.byte	.LVU46
 7867 21d0 6B000000 		.long	.LBB235
 7868 21d4 06000000 		.long	.LBE235-.LBB235
 7869 21d8 AB       		.byte	0xab
 7870 21d9 01       		.uleb128 0x1
 7871 21da 84200000 		.long	0x2084
 7872 21de 81060000 		.long	.LLST3
 7873 21e2 7F060000 		.long	.LVUS3
 7874 21e6 00       		.byte	0
 7875 21e7 00       		.byte	0
 7876 21e8 3A       		.uleb128 0x3a
 7877 21e9 C51E0000 		.long	0x1ec5
 7878 21ed 00000000 		.long	.LFB216
 7879 21f1 01000000 		.long	.LFE216-.LFB216
 7880 21f5 01       		.uleb128 0x1
 7881 21f6 9C       		.byte	0x9c
 7882 21f7 04220000 		.long	0x2204
 7883 21fb 2C       		.uleb128 0x2c
 7884 21fc D21E0000 		.long	0x1ed2
 7885 2200 02       		.uleb128 0x2
GAS LISTING /tmp/cctFPqVW.s 			page 143


 7886 2201 91       		.byte	0x91
 7887 2202 00       		.sleb128 0
 7888 2203 00       		.byte	0
 7889 2204 55       		.uleb128 0x55
 7890 2205 17160000 		.long	0x1617
 7891 2209 00000000 		.long	.LFB228
 7892 220d 55000000 		.long	.LFE228-.LFB228
 7893 2211 01       		.uleb128 0x1
 7894 2212 9C       		.byte	0x9c
 7895 2213 CD220000 		.long	0x22cd
 7896 2217 01       		.uleb128 0x1
 7897 2218 22160000 		.long	0x1622
 7898 221c 8E060000 		.long	.LLST58
 7899 2220 8A060000 		.long	.LVUS58
 7900 2224 18       		.uleb128 0x18
 7901 2225 BD1F0000 		.long	0x1fbd
 7902 2229 22000000 		.long	.LBI442
 7903 222d 01       		.byte	.LVU661
 7904 222e 22000000 		.long	.LBB442
 7905 2232 0C000000 		.long	.LBE442-.LBB442
 7906 2236 9202     		.value	0x292
 7907 2238 03       		.byte	0x3
 7908 2239 54220000 		.long	0x2254
 7909 223d 14       		.uleb128 0x14
 7910 223e DB1F0000 		.long	0x1fdb
 7911 2242 22000000 		.long	.LBI444
 7912 2246 08       		.byte	.LVU668
 7913 2247 22000000 		.long	.LBB444
 7914 224b 0C000000 		.long	.LBE444-.LBB444
 7915 224f 03       		.byte	0x3
 7916 2250 B201     		.value	0x1b2
 7917 2252 03       		.byte	0x3
 7918 2253 00       		.byte	0
 7919 2254 1F       		.uleb128 0x1f
 7920 2255 17160000 		.long	0x1617
 7921 2259 30000000 		.long	.LBI446
 7922 225d 00       		.byte	.LVU672
 7923 225e 41010000 		.long	.LLRL59
 7924 2262 7A02     		.value	0x27a
 7925 2264 06       		.byte	0x6
 7926 2265 01       		.uleb128 0x1
 7927 2266 22160000 		.long	0x1622
 7928 226a A1060000 		.long	.LLST60
 7929 226e 9F060000 		.long	.LVUS60
 7930 2272 0B       		.uleb128 0xb
 7931 2273 41010000 		.long	.LLRL59
 7932 2277 18       		.uleb128 0x18
 7933 2278 EB1F0000 		.long	0x1feb
 7934 227c 30000000 		.long	.LBI448
 7935 2280 02       		.byte	.LVU674
 7936 2281 30000000 		.long	.LBB448
 7937 2285 0B000000 		.long	.LBE448-.LBB448
 7938 2289 8602     		.value	0x286
 7939 228b 05       		.byte	0x5
 7940 228c 9E220000 		.long	0x229e
 7941 2290 01       		.uleb128 0x1
 7942 2291 FC1F0000 		.long	0x1ffc
GAS LISTING /tmp/cctFPqVW.s 			page 144


 7943 2295 AC060000 		.long	.LLST61
 7944 2299 AA060000 		.long	.LVUS61
 7945 229d 00       		.byte	0
 7946 229e 1A       		.uleb128 0x1a
 7947 229f BD1F0000 		.long	0x1fbd
 7948 22a3 3B000000 		.long	.LBI450
 7949 22a7 03       		.byte	.LVU684
 7950 22a8 3B000000 		.long	.LBB450
 7951 22ac 0C000000 		.long	.LBE450-.LBB450
 7952 22b0 8702     		.value	0x287
 7953 22b2 05       		.byte	0x5
 7954 22b3 14       		.uleb128 0x14
 7955 22b4 DB1F0000 		.long	0x1fdb
 7956 22b8 3B000000 		.long	.LBI452
 7957 22bc 0A       		.byte	.LVU691
 7958 22bd 3B000000 		.long	.LBB452
 7959 22c1 0C000000 		.long	.LBE452-.LBB452
 7960 22c5 03       		.byte	0x3
 7961 22c6 B201     		.value	0x1b2
 7962 22c8 03       		.byte	0x3
 7963 22c9 00       		.byte	0
 7964 22ca 00       		.byte	0
 7965 22cb 00       		.byte	0
 7966 22cc 00       		.byte	0
 7967 22cd 56       		.uleb128 0x56
 7968 22ce 940C0000 		.long	0xc94
 7969 22d2 00000000 		.long	.LFB241
 7970 22d6 34000000 		.long	.LFE241-.LFB241
 7971 22da 01       		.uleb128 0x1
 7972 22db 9C       		.byte	0x9c
 7973 22dc 2C       		.uleb128 0x2c
 7974 22dd 9F0C0000 		.long	0xc9f
 7975 22e1 02       		.uleb128 0x2
 7976 22e2 91       		.byte	0x91
 7977 22e3 00       		.sleb128 0
 7978 22e4 2C       		.uleb128 0x2c
 7979 22e5 AC0C0000 		.long	0xcac
 7980 22e9 02       		.uleb128 0x2
 7981 22ea 91       		.byte	0x91
 7982 22eb 04       		.sleb128 4
 7983 22ec 34       		.uleb128 0x34
 7984 22ed C20C0000 		.long	0xcc2
 7985 22f1 19000000 		.long	.LBB686
 7986 22f5 16000000 		.long	.LBE686-.LBB686
 7987 22f9 1D       		.uleb128 0x1d
 7988 22fa C30C0000 		.long	0xcc3
 7989 22fe B9060000 		.long	.LLST119
 7990 2302 B7060000 		.long	.LVUS119
 7991 2306 00       		.byte	0
 7992 2307 00       		.byte	0
 7993 2308 00       		.byte	0
 7994              		.section	.debug_abbrev,"",@progbits
 7995              	.Ldebug_abbrev0:
 7996 0000 01       		.uleb128 0x1
 7997 0001 05       		.uleb128 0x5
 7998 0002 00       		.byte	0
 7999 0003 31       		.uleb128 0x31
GAS LISTING /tmp/cctFPqVW.s 			page 145


 8000 0004 13       		.uleb128 0x13
 8001 0005 02       		.uleb128 0x2
 8002 0006 17       		.uleb128 0x17
 8003 0007 B742     		.uleb128 0x2137
 8004 0009 17       		.uleb128 0x17
 8005 000a 00       		.byte	0
 8006 000b 00       		.byte	0
 8007 000c 02       		.uleb128 0x2
 8008 000d 16       		.uleb128 0x16
 8009 000e 00       		.byte	0
 8010 000f 03       		.uleb128 0x3
 8011 0010 0E       		.uleb128 0xe
 8012 0011 3A       		.uleb128 0x3a
 8013 0012 0B       		.uleb128 0xb
 8014 0013 3B       		.uleb128 0x3b
 8015 0014 0B       		.uleb128 0xb
 8016 0015 39       		.uleb128 0x39
 8017 0016 0B       		.uleb128 0xb
 8018 0017 49       		.uleb128 0x49
 8019 0018 13       		.uleb128 0x13
 8020 0019 00       		.byte	0
 8021 001a 00       		.byte	0
 8022 001b 03       		.uleb128 0x3
 8023 001c 0D       		.uleb128 0xd
 8024 001d 00       		.byte	0
 8025 001e 03       		.uleb128 0x3
 8026 001f 0E       		.uleb128 0xe
 8027 0020 3A       		.uleb128 0x3a
 8028 0021 0B       		.uleb128 0xb
 8029 0022 3B       		.uleb128 0x3b
 8030 0023 0B       		.uleb128 0xb
 8031 0024 39       		.uleb128 0x39
 8032 0025 0B       		.uleb128 0xb
 8033 0026 49       		.uleb128 0x49
 8034 0027 13       		.uleb128 0x13
 8035 0028 38       		.uleb128 0x38
 8036 0029 0B       		.uleb128 0xb
 8037 002a 00       		.byte	0
 8038 002b 00       		.byte	0
 8039 002c 04       		.uleb128 0x4
 8040 002d 1D       		.uleb128 0x1d
 8041 002e 01       		.byte	0x1
 8042 002f 31       		.uleb128 0x31
 8043 0030 13       		.uleb128 0x13
 8044 0031 52       		.uleb128 0x52
 8045 0032 01       		.uleb128 0x1
 8046 0033 B842     		.uleb128 0x2138
 8047 0035 0B       		.uleb128 0xb
 8048 0036 55       		.uleb128 0x55
 8049 0037 17       		.uleb128 0x17
 8050 0038 58       		.uleb128 0x58
 8051 0039 0B       		.uleb128 0xb
 8052 003a 59       		.uleb128 0x59
 8053 003b 05       		.uleb128 0x5
 8054 003c 57       		.uleb128 0x57
 8055 003d 0B       		.uleb128 0xb
 8056 003e 01       		.uleb128 0x1
GAS LISTING /tmp/cctFPqVW.s 			page 146


 8057 003f 13       		.uleb128 0x13
 8058 0040 00       		.byte	0
 8059 0041 00       		.byte	0
 8060 0042 05       		.uleb128 0x5
 8061 0043 48       		.uleb128 0x48
 8062 0044 00       		.byte	0
 8063 0045 7D       		.uleb128 0x7d
 8064 0046 01       		.uleb128 0x1
 8065 0047 7F       		.uleb128 0x7f
 8066 0048 13       		.uleb128 0x13
 8067 0049 00       		.byte	0
 8068 004a 00       		.byte	0
 8069 004b 06       		.uleb128 0x6
 8070 004c 05       		.uleb128 0x5
 8071 004d 00       		.byte	0
 8072 004e 03       		.uleb128 0x3
 8073 004f 08       		.uleb128 0x8
 8074 0050 3A       		.uleb128 0x3a
 8075 0051 21       		.uleb128 0x21
 8076 0052 01       		.sleb128 1
 8077 0053 3B       		.uleb128 0x3b
 8078 0054 05       		.uleb128 0x5
 8079 0055 39       		.uleb128 0x39
 8080 0056 0B       		.uleb128 0xb
 8081 0057 49       		.uleb128 0x49
 8082 0058 13       		.uleb128 0x13
 8083 0059 02       		.uleb128 0x2
 8084 005a 18       		.uleb128 0x18
 8085 005b 00       		.byte	0
 8086 005c 00       		.byte	0
 8087 005d 07       		.uleb128 0x7
 8088 005e 1D       		.uleb128 0x1d
 8089 005f 00       		.byte	0
 8090 0060 31       		.uleb128 0x31
 8091 0061 13       		.uleb128 0x13
 8092 0062 52       		.uleb128 0x52
 8093 0063 01       		.uleb128 0x1
 8094 0064 B842     		.uleb128 0x2138
 8095 0066 0B       		.uleb128 0xb
 8096 0067 55       		.uleb128 0x55
 8097 0068 17       		.uleb128 0x17
 8098 0069 58       		.uleb128 0x58
 8099 006a 0B       		.uleb128 0xb
 8100 006b 59       		.uleb128 0x59
 8101 006c 05       		.uleb128 0x5
 8102 006d 57       		.uleb128 0x57
 8103 006e 0B       		.uleb128 0xb
 8104 006f 00       		.byte	0
 8105 0070 00       		.byte	0
 8106 0071 08       		.uleb128 0x8
 8107 0072 34       		.uleb128 0x34
 8108 0073 00       		.byte	0
 8109 0074 03       		.uleb128 0x3
 8110 0075 0E       		.uleb128 0xe
 8111 0076 49       		.uleb128 0x49
 8112 0077 13       		.uleb128 0x13
 8113 0078 34       		.uleb128 0x34
GAS LISTING /tmp/cctFPqVW.s 			page 147


 8114 0079 19       		.uleb128 0x19
 8115 007a 00       		.byte	0
 8116 007b 00       		.byte	0
 8117 007c 09       		.uleb128 0x9
 8118 007d 0F       		.uleb128 0xf
 8119 007e 00       		.byte	0
 8120 007f 0B       		.uleb128 0xb
 8121 0080 21       		.uleb128 0x21
 8122 0081 04       		.sleb128 4
 8123 0082 49       		.uleb128 0x49
 8124 0083 13       		.uleb128 0x13
 8125 0084 00       		.byte	0
 8126 0085 00       		.byte	0
 8127 0086 0A       		.uleb128 0xa
 8128 0087 0D       		.uleb128 0xd
 8129 0088 00       		.byte	0
 8130 0089 03       		.uleb128 0x3
 8131 008a 0E       		.uleb128 0xe
 8132 008b 3A       		.uleb128 0x3a
 8133 008c 21       		.uleb128 0x21
 8134 008d 0E       		.sleb128 14
 8135 008e 3B       		.uleb128 0x3b
 8136 008f 05       		.uleb128 0x5
 8137 0090 39       		.uleb128 0x39
 8138 0091 0B       		.uleb128 0xb
 8139 0092 49       		.uleb128 0x49
 8140 0093 13       		.uleb128 0x13
 8141 0094 38       		.uleb128 0x38
 8142 0095 0B       		.uleb128 0xb
 8143 0096 00       		.byte	0
 8144 0097 00       		.byte	0
 8145 0098 0B       		.uleb128 0xb
 8146 0099 0B       		.uleb128 0xb
 8147 009a 01       		.byte	0x1
 8148 009b 55       		.uleb128 0x55
 8149 009c 17       		.uleb128 0x17
 8150 009d 00       		.byte	0
 8151 009e 00       		.byte	0
 8152 009f 0C       		.uleb128 0xc
 8153 00a0 26       		.uleb128 0x26
 8154 00a1 00       		.byte	0
 8155 00a2 49       		.uleb128 0x49
 8156 00a3 13       		.uleb128 0x13
 8157 00a4 00       		.byte	0
 8158 00a5 00       		.byte	0
 8159 00a6 0D       		.uleb128 0xd
 8160 00a7 2E       		.uleb128 0x2e
 8161 00a8 01       		.byte	0x1
 8162 00a9 3F       		.uleb128 0x3f
 8163 00aa 19       		.uleb128 0x19
 8164 00ab 03       		.uleb128 0x3
 8165 00ac 0E       		.uleb128 0xe
 8166 00ad 3A       		.uleb128 0x3a
 8167 00ae 21       		.uleb128 0x21
 8168 00af 01       		.sleb128 1
 8169 00b0 3B       		.uleb128 0x3b
 8170 00b1 05       		.uleb128 0x5
GAS LISTING /tmp/cctFPqVW.s 			page 148


 8171 00b2 39       		.uleb128 0x39
 8172 00b3 0B       		.uleb128 0xb
 8173 00b4 27       		.uleb128 0x27
 8174 00b5 19       		.uleb128 0x19
 8175 00b6 49       		.uleb128 0x49
 8176 00b7 13       		.uleb128 0x13
 8177 00b8 11       		.uleb128 0x11
 8178 00b9 01       		.uleb128 0x1
 8179 00ba 12       		.uleb128 0x12
 8180 00bb 06       		.uleb128 0x6
 8181 00bc 40       		.uleb128 0x40
 8182 00bd 18       		.uleb128 0x18
 8183 00be 7A       		.uleb128 0x7a
 8184 00bf 19       		.uleb128 0x19
 8185 00c0 01       		.uleb128 0x1
 8186 00c1 13       		.uleb128 0x13
 8187 00c2 00       		.byte	0
 8188 00c3 00       		.byte	0
 8189 00c4 0E       		.uleb128 0xe
 8190 00c5 05       		.uleb128 0x5
 8191 00c6 00       		.byte	0
 8192 00c7 03       		.uleb128 0x3
 8193 00c8 08       		.uleb128 0x8
 8194 00c9 3A       		.uleb128 0x3a
 8195 00ca 0B       		.uleb128 0xb
 8196 00cb 3B       		.uleb128 0x3b
 8197 00cc 05       		.uleb128 0x5
 8198 00cd 39       		.uleb128 0x39
 8199 00ce 0B       		.uleb128 0xb
 8200 00cf 49       		.uleb128 0x49
 8201 00d0 13       		.uleb128 0x13
 8202 00d1 00       		.byte	0
 8203 00d2 00       		.byte	0
 8204 00d3 0F       		.uleb128 0xf
 8205 00d4 13       		.uleb128 0x13
 8206 00d5 01       		.byte	0x1
 8207 00d6 03       		.uleb128 0x3
 8208 00d7 0E       		.uleb128 0xe
 8209 00d8 0B       		.uleb128 0xb
 8210 00d9 0B       		.uleb128 0xb
 8211 00da 3A       		.uleb128 0x3a
 8212 00db 0B       		.uleb128 0xb
 8213 00dc 3B       		.uleb128 0x3b
 8214 00dd 0B       		.uleb128 0xb
 8215 00de 39       		.uleb128 0x39
 8216 00df 0B       		.uleb128 0xb
 8217 00e0 01       		.uleb128 0x1
 8218 00e1 13       		.uleb128 0x13
 8219 00e2 00       		.byte	0
 8220 00e3 00       		.byte	0
 8221 00e4 10       		.uleb128 0x10
 8222 00e5 01       		.uleb128 0x1
 8223 00e6 01       		.byte	0x1
 8224 00e7 49       		.uleb128 0x49
 8225 00e8 13       		.uleb128 0x13
 8226 00e9 01       		.uleb128 0x1
 8227 00ea 13       		.uleb128 0x13
GAS LISTING /tmp/cctFPqVW.s 			page 149


 8228 00eb 00       		.byte	0
 8229 00ec 00       		.byte	0
 8230 00ed 11       		.uleb128 0x11
 8231 00ee 21       		.uleb128 0x21
 8232 00ef 00       		.byte	0
 8233 00f0 49       		.uleb128 0x49
 8234 00f1 13       		.uleb128 0x13
 8235 00f2 2F       		.uleb128 0x2f
 8236 00f3 0B       		.uleb128 0xb
 8237 00f4 00       		.byte	0
 8238 00f5 00       		.byte	0
 8239 00f6 12       		.uleb128 0x12
 8240 00f7 34       		.uleb128 0x34
 8241 00f8 00       		.byte	0
 8242 00f9 03       		.uleb128 0x3
 8243 00fa 0E       		.uleb128 0xe
 8244 00fb 3A       		.uleb128 0x3a
 8245 00fc 21       		.uleb128 0x21
 8246 00fd 01       		.sleb128 1
 8247 00fe 3B       		.uleb128 0x3b
 8248 00ff 05       		.uleb128 0x5
 8249 0100 39       		.uleb128 0x39
 8250 0101 0B       		.uleb128 0xb
 8251 0102 49       		.uleb128 0x49
 8252 0103 13       		.uleb128 0x13
 8253 0104 02       		.uleb128 0x2
 8254 0105 17       		.uleb128 0x17
 8255 0106 B742     		.uleb128 0x2137
 8256 0108 17       		.uleb128 0x17
 8257 0109 00       		.byte	0
 8258 010a 00       		.byte	0
 8259 010b 13       		.uleb128 0x13
 8260 010c 24       		.uleb128 0x24
 8261 010d 00       		.byte	0
 8262 010e 0B       		.uleb128 0xb
 8263 010f 0B       		.uleb128 0xb
 8264 0110 3E       		.uleb128 0x3e
 8265 0111 0B       		.uleb128 0xb
 8266 0112 03       		.uleb128 0x3
 8267 0113 0E       		.uleb128 0xe
 8268 0114 00       		.byte	0
 8269 0115 00       		.byte	0
 8270 0116 14       		.uleb128 0x14
 8271 0117 1D       		.uleb128 0x1d
 8272 0118 00       		.byte	0
 8273 0119 31       		.uleb128 0x31
 8274 011a 13       		.uleb128 0x13
 8275 011b 52       		.uleb128 0x52
 8276 011c 01       		.uleb128 0x1
 8277 011d B842     		.uleb128 0x2138
 8278 011f 0B       		.uleb128 0xb
 8279 0120 11       		.uleb128 0x11
 8280 0121 01       		.uleb128 0x1
 8281 0122 12       		.uleb128 0x12
 8282 0123 06       		.uleb128 0x6
 8283 0124 58       		.uleb128 0x58
 8284 0125 0B       		.uleb128 0xb
GAS LISTING /tmp/cctFPqVW.s 			page 150


 8285 0126 59       		.uleb128 0x59
 8286 0127 05       		.uleb128 0x5
 8287 0128 57       		.uleb128 0x57
 8288 0129 0B       		.uleb128 0xb
 8289 012a 00       		.byte	0
 8290 012b 00       		.byte	0
 8291 012c 15       		.uleb128 0x15
 8292 012d 0D       		.uleb128 0xd
 8293 012e 00       		.byte	0
 8294 012f 03       		.uleb128 0x3
 8295 0130 08       		.uleb128 0x8
 8296 0131 3A       		.uleb128 0x3a
 8297 0132 0B       		.uleb128 0xb
 8298 0133 3B       		.uleb128 0x3b
 8299 0134 0B       		.uleb128 0xb
 8300 0135 39       		.uleb128 0x39
 8301 0136 0B       		.uleb128 0xb
 8302 0137 49       		.uleb128 0x49
 8303 0138 13       		.uleb128 0x13
 8304 0139 38       		.uleb128 0x38
 8305 013a 0B       		.uleb128 0xb
 8306 013b 00       		.byte	0
 8307 013c 00       		.byte	0
 8308 013d 16       		.uleb128 0x16
 8309 013e 05       		.uleb128 0x5
 8310 013f 00       		.byte	0
 8311 0140 49       		.uleb128 0x49
 8312 0141 13       		.uleb128 0x13
 8313 0142 00       		.byte	0
 8314 0143 00       		.byte	0
 8315 0144 17       		.uleb128 0x17
 8316 0145 2E       		.uleb128 0x2e
 8317 0146 01       		.byte	0x1
 8318 0147 3F       		.uleb128 0x3f
 8319 0148 19       		.uleb128 0x19
 8320 0149 03       		.uleb128 0x3
 8321 014a 0E       		.uleb128 0xe
 8322 014b 3A       		.uleb128 0x3a
 8323 014c 21       		.uleb128 0x21
 8324 014d 01       		.sleb128 1
 8325 014e 3B       		.uleb128 0x3b
 8326 014f 05       		.uleb128 0x5
 8327 0150 39       		.uleb128 0x39
 8328 0151 21       		.uleb128 0x21
 8329 0152 06       		.sleb128 6
 8330 0153 27       		.uleb128 0x27
 8331 0154 19       		.uleb128 0x19
 8332 0155 11       		.uleb128 0x11
 8333 0156 01       		.uleb128 0x1
 8334 0157 12       		.uleb128 0x12
 8335 0158 06       		.uleb128 0x6
 8336 0159 40       		.uleb128 0x40
 8337 015a 18       		.uleb128 0x18
 8338 015b 7A       		.uleb128 0x7a
 8339 015c 19       		.uleb128 0x19
 8340 015d 01       		.uleb128 0x1
 8341 015e 13       		.uleb128 0x13
GAS LISTING /tmp/cctFPqVW.s 			page 151


 8342 015f 00       		.byte	0
 8343 0160 00       		.byte	0
 8344 0161 18       		.uleb128 0x18
 8345 0162 1D       		.uleb128 0x1d
 8346 0163 01       		.byte	0x1
 8347 0164 31       		.uleb128 0x31
 8348 0165 13       		.uleb128 0x13
 8349 0166 52       		.uleb128 0x52
 8350 0167 01       		.uleb128 0x1
 8351 0168 B842     		.uleb128 0x2138
 8352 016a 0B       		.uleb128 0xb
 8353 016b 11       		.uleb128 0x11
 8354 016c 01       		.uleb128 0x1
 8355 016d 12       		.uleb128 0x12
 8356 016e 06       		.uleb128 0x6
 8357 016f 58       		.uleb128 0x58
 8358 0170 21       		.uleb128 0x21
 8359 0171 01       		.sleb128 1
 8360 0172 59       		.uleb128 0x59
 8361 0173 05       		.uleb128 0x5
 8362 0174 57       		.uleb128 0x57
 8363 0175 0B       		.uleb128 0xb
 8364 0176 01       		.uleb128 0x1
 8365 0177 13       		.uleb128 0x13
 8366 0178 00       		.byte	0
 8367 0179 00       		.byte	0
 8368 017a 19       		.uleb128 0x19
 8369 017b 34       		.uleb128 0x34
 8370 017c 00       		.byte	0
 8371 017d 03       		.uleb128 0x3
 8372 017e 08       		.uleb128 0x8
 8373 017f 3A       		.uleb128 0x3a
 8374 0180 21       		.uleb128 0x21
 8375 0181 01       		.sleb128 1
 8376 0182 3B       		.uleb128 0x3b
 8377 0183 05       		.uleb128 0x5
 8378 0184 39       		.uleb128 0x39
 8379 0185 0B       		.uleb128 0xb
 8380 0186 49       		.uleb128 0x49
 8381 0187 13       		.uleb128 0x13
 8382 0188 02       		.uleb128 0x2
 8383 0189 17       		.uleb128 0x17
 8384 018a B742     		.uleb128 0x2137
 8385 018c 17       		.uleb128 0x17
 8386 018d 00       		.byte	0
 8387 018e 00       		.byte	0
 8388 018f 1A       		.uleb128 0x1a
 8389 0190 1D       		.uleb128 0x1d
 8390 0191 01       		.byte	0x1
 8391 0192 31       		.uleb128 0x31
 8392 0193 13       		.uleb128 0x13
 8393 0194 52       		.uleb128 0x52
 8394 0195 01       		.uleb128 0x1
 8395 0196 B842     		.uleb128 0x2138
 8396 0198 0B       		.uleb128 0xb
 8397 0199 11       		.uleb128 0x11
 8398 019a 01       		.uleb128 0x1
GAS LISTING /tmp/cctFPqVW.s 			page 152


 8399 019b 12       		.uleb128 0x12
 8400 019c 06       		.uleb128 0x6
 8401 019d 58       		.uleb128 0x58
 8402 019e 21       		.uleb128 0x21
 8403 019f 01       		.sleb128 1
 8404 01a0 59       		.uleb128 0x59
 8405 01a1 05       		.uleb128 0x5
 8406 01a2 57       		.uleb128 0x57
 8407 01a3 0B       		.uleb128 0xb
 8408 01a4 00       		.byte	0
 8409 01a5 00       		.byte	0
 8410 01a6 1B       		.uleb128 0x1b
 8411 01a7 05       		.uleb128 0x5
 8412 01a8 00       		.byte	0
 8413 01a9 03       		.uleb128 0x3
 8414 01aa 0E       		.uleb128 0xe
 8415 01ab 3A       		.uleb128 0x3a
 8416 01ac 21       		.uleb128 0x21
 8417 01ad 01       		.sleb128 1
 8418 01ae 3B       		.uleb128 0x3b
 8419 01af 05       		.uleb128 0x5
 8420 01b0 39       		.uleb128 0x39
 8421 01b1 0B       		.uleb128 0xb
 8422 01b2 49       		.uleb128 0x49
 8423 01b3 13       		.uleb128 0x13
 8424 01b4 02       		.uleb128 0x2
 8425 01b5 18       		.uleb128 0x18
 8426 01b6 00       		.byte	0
 8427 01b7 00       		.byte	0
 8428 01b8 1C       		.uleb128 0x1c
 8429 01b9 0D       		.uleb128 0xd
 8430 01ba 00       		.byte	0
 8431 01bb 03       		.uleb128 0x3
 8432 01bc 0E       		.uleb128 0xe
 8433 01bd 3A       		.uleb128 0x3a
 8434 01be 21       		.uleb128 0x21
 8435 01bf 0E       		.sleb128 14
 8436 01c0 3B       		.uleb128 0x3b
 8437 01c1 05       		.uleb128 0x5
 8438 01c2 39       		.uleb128 0x39
 8439 01c3 0B       		.uleb128 0xb
 8440 01c4 49       		.uleb128 0x49
 8441 01c5 13       		.uleb128 0x13
 8442 01c6 00       		.byte	0
 8443 01c7 00       		.byte	0
 8444 01c8 1D       		.uleb128 0x1d
 8445 01c9 34       		.uleb128 0x34
 8446 01ca 00       		.byte	0
 8447 01cb 31       		.uleb128 0x31
 8448 01cc 13       		.uleb128 0x13
 8449 01cd 02       		.uleb128 0x2
 8450 01ce 17       		.uleb128 0x17
 8451 01cf B742     		.uleb128 0x2137
 8452 01d1 17       		.uleb128 0x17
 8453 01d2 00       		.byte	0
 8454 01d3 00       		.byte	0
 8455 01d4 1E       		.uleb128 0x1e
GAS LISTING /tmp/cctFPqVW.s 			page 153


 8456 01d5 05       		.uleb128 0x5
 8457 01d6 00       		.byte	0
 8458 01d7 03       		.uleb128 0x3
 8459 01d8 08       		.uleb128 0x8
 8460 01d9 3A       		.uleb128 0x3a
 8461 01da 0B       		.uleb128 0xb
 8462 01db 3B       		.uleb128 0x3b
 8463 01dc 0B       		.uleb128 0xb
 8464 01dd 39       		.uleb128 0x39
 8465 01de 0B       		.uleb128 0xb
 8466 01df 49       		.uleb128 0x49
 8467 01e0 13       		.uleb128 0x13
 8468 01e1 00       		.byte	0
 8469 01e2 00       		.byte	0
 8470 01e3 1F       		.uleb128 0x1f
 8471 01e4 1D       		.uleb128 0x1d
 8472 01e5 01       		.byte	0x1
 8473 01e6 31       		.uleb128 0x31
 8474 01e7 13       		.uleb128 0x13
 8475 01e8 52       		.uleb128 0x52
 8476 01e9 01       		.uleb128 0x1
 8477 01ea B842     		.uleb128 0x2138
 8478 01ec 0B       		.uleb128 0xb
 8479 01ed 55       		.uleb128 0x55
 8480 01ee 17       		.uleb128 0x17
 8481 01ef 58       		.uleb128 0x58
 8482 01f0 21       		.uleb128 0x21
 8483 01f1 01       		.sleb128 1
 8484 01f2 59       		.uleb128 0x59
 8485 01f3 05       		.uleb128 0x5
 8486 01f4 57       		.uleb128 0x57
 8487 01f5 0B       		.uleb128 0xb
 8488 01f6 00       		.byte	0
 8489 01f7 00       		.byte	0
 8490 01f8 20       		.uleb128 0x20
 8491 01f9 2E       		.uleb128 0x2e
 8492 01fa 01       		.byte	0x1
 8493 01fb 03       		.uleb128 0x3
 8494 01fc 0E       		.uleb128 0xe
 8495 01fd 3A       		.uleb128 0x3a
 8496 01fe 0B       		.uleb128 0xb
 8497 01ff 3B       		.uleb128 0x3b
 8498 0200 05       		.uleb128 0x5
 8499 0201 39       		.uleb128 0x39
 8500 0202 0B       		.uleb128 0xb
 8501 0203 27       		.uleb128 0x27
 8502 0204 19       		.uleb128 0x19
 8503 0205 49       		.uleb128 0x49
 8504 0206 13       		.uleb128 0x13
 8505 0207 20       		.uleb128 0x20
 8506 0208 21       		.uleb128 0x21
 8507 0209 03       		.sleb128 3
 8508 020a 01       		.uleb128 0x1
 8509 020b 13       		.uleb128 0x13
 8510 020c 00       		.byte	0
 8511 020d 00       		.byte	0
 8512 020e 21       		.uleb128 0x21
GAS LISTING /tmp/cctFPqVW.s 			page 154


 8513 020f 2E       		.uleb128 0x2e
 8514 0210 01       		.byte	0x1
 8515 0211 03       		.uleb128 0x3
 8516 0212 0E       		.uleb128 0xe
 8517 0213 3A       		.uleb128 0x3a
 8518 0214 0B       		.uleb128 0xb
 8519 0215 3B       		.uleb128 0x3b
 8520 0216 05       		.uleb128 0x5
 8521 0217 39       		.uleb128 0x39
 8522 0218 21       		.uleb128 0x21
 8523 0219 14       		.sleb128 20
 8524 021a 27       		.uleb128 0x27
 8525 021b 19       		.uleb128 0x19
 8526 021c 20       		.uleb128 0x20
 8527 021d 21       		.uleb128 0x21
 8528 021e 03       		.sleb128 3
 8529 021f 01       		.uleb128 0x1
 8530 0220 13       		.uleb128 0x13
 8531 0221 00       		.byte	0
 8532 0222 00       		.byte	0
 8533 0223 22       		.uleb128 0x22
 8534 0224 34       		.uleb128 0x34
 8535 0225 00       		.byte	0
 8536 0226 03       		.uleb128 0x3
 8537 0227 08       		.uleb128 0x8
 8538 0228 3A       		.uleb128 0x3a
 8539 0229 0B       		.uleb128 0xb
 8540 022a 3B       		.uleb128 0x3b
 8541 022b 05       		.uleb128 0x5
 8542 022c 39       		.uleb128 0x39
 8543 022d 0B       		.uleb128 0xb
 8544 022e 49       		.uleb128 0x49
 8545 022f 13       		.uleb128 0x13
 8546 0230 00       		.byte	0
 8547 0231 00       		.byte	0
 8548 0232 23       		.uleb128 0x23
 8549 0233 1D       		.uleb128 0x1d
 8550 0234 01       		.byte	0x1
 8551 0235 31       		.uleb128 0x31
 8552 0236 13       		.uleb128 0x13
 8553 0237 52       		.uleb128 0x52
 8554 0238 01       		.uleb128 0x1
 8555 0239 B842     		.uleb128 0x2138
 8556 023b 0B       		.uleb128 0xb
 8557 023c 55       		.uleb128 0x55
 8558 023d 17       		.uleb128 0x17
 8559 023e 58       		.uleb128 0x58
 8560 023f 21       		.uleb128 0x21
 8561 0240 01       		.sleb128 1
 8562 0241 59       		.uleb128 0x59
 8563 0242 0B       		.uleb128 0xb
 8564 0243 57       		.uleb128 0x57
 8565 0244 0B       		.uleb128 0xb
 8566 0245 01       		.uleb128 0x1
 8567 0246 13       		.uleb128 0x13
 8568 0247 00       		.byte	0
 8569 0248 00       		.byte	0
GAS LISTING /tmp/cctFPqVW.s 			page 155


 8570 0249 24       		.uleb128 0x24
 8571 024a 1D       		.uleb128 0x1d
 8572 024b 01       		.byte	0x1
 8573 024c 31       		.uleb128 0x31
 8574 024d 13       		.uleb128 0x13
 8575 024e 52       		.uleb128 0x52
 8576 024f 01       		.uleb128 0x1
 8577 0250 B842     		.uleb128 0x2138
 8578 0252 0B       		.uleb128 0xb
 8579 0253 11       		.uleb128 0x11
 8580 0254 01       		.uleb128 0x1
 8581 0255 12       		.uleb128 0x12
 8582 0256 06       		.uleb128 0x6
 8583 0257 58       		.uleb128 0x58
 8584 0258 21       		.uleb128 0x21
 8585 0259 01       		.sleb128 1
 8586 025a 59       		.uleb128 0x59
 8587 025b 0B       		.uleb128 0xb
 8588 025c 57       		.uleb128 0x57
 8589 025d 21       		.uleb128 0x21
 8590 025e 03       		.sleb128 3
 8591 025f 00       		.byte	0
 8592 0260 00       		.byte	0
 8593 0261 25       		.uleb128 0x25
 8594 0262 05       		.uleb128 0x5
 8595 0263 00       		.byte	0
 8596 0264 03       		.uleb128 0x3
 8597 0265 0E       		.uleb128 0xe
 8598 0266 3A       		.uleb128 0x3a
 8599 0267 0B       		.uleb128 0xb
 8600 0268 3B       		.uleb128 0x3b
 8601 0269 05       		.uleb128 0x5
 8602 026a 39       		.uleb128 0x39
 8603 026b 0B       		.uleb128 0xb
 8604 026c 49       		.uleb128 0x49
 8605 026d 13       		.uleb128 0x13
 8606 026e 00       		.byte	0
 8607 026f 00       		.byte	0
 8608 0270 26       		.uleb128 0x26
 8609 0271 35       		.uleb128 0x35
 8610 0272 00       		.byte	0
 8611 0273 49       		.uleb128 0x49
 8612 0274 13       		.uleb128 0x13
 8613 0275 00       		.byte	0
 8614 0276 00       		.byte	0
 8615 0277 27       		.uleb128 0x27
 8616 0278 13       		.uleb128 0x13
 8617 0279 01       		.byte	0x1
 8618 027a 03       		.uleb128 0x3
 8619 027b 0E       		.uleb128 0xe
 8620 027c 0B       		.uleb128 0xb
 8621 027d 0B       		.uleb128 0xb
 8622 027e 3A       		.uleb128 0x3a
 8623 027f 21       		.uleb128 0x21
 8624 0280 0E       		.sleb128 14
 8625 0281 3B       		.uleb128 0x3b
 8626 0282 05       		.uleb128 0x5
GAS LISTING /tmp/cctFPqVW.s 			page 156


 8627 0283 39       		.uleb128 0x39
 8628 0284 0B       		.uleb128 0xb
 8629 0285 01       		.uleb128 0x1
 8630 0286 13       		.uleb128 0x13
 8631 0287 00       		.byte	0
 8632 0288 00       		.byte	0
 8633 0289 28       		.uleb128 0x28
 8634 028a 0D       		.uleb128 0xd
 8635 028b 00       		.byte	0
 8636 028c 03       		.uleb128 0x3
 8637 028d 0E       		.uleb128 0xe
 8638 028e 3A       		.uleb128 0x3a
 8639 028f 21       		.uleb128 0x21
 8640 0290 0E       		.sleb128 14
 8641 0291 3B       		.uleb128 0x3b
 8642 0292 0B       		.uleb128 0xb
 8643 0293 39       		.uleb128 0x39
 8644 0294 21       		.uleb128 0x21
 8645 0295 21       		.sleb128 33
 8646 0296 49       		.uleb128 0x49
 8647 0297 13       		.uleb128 0x13
 8648 0298 00       		.byte	0
 8649 0299 00       		.byte	0
 8650 029a 29       		.uleb128 0x29
 8651 029b 05       		.uleb128 0x5
 8652 029c 00       		.byte	0
 8653 029d 31       		.uleb128 0x31
 8654 029e 13       		.uleb128 0x13
 8655 029f 00       		.byte	0
 8656 02a0 00       		.byte	0
 8657 02a1 2A       		.uleb128 0x2a
 8658 02a2 0B       		.uleb128 0xb
 8659 02a3 01       		.byte	0x1
 8660 02a4 55       		.uleb128 0x55
 8661 02a5 17       		.uleb128 0x17
 8662 02a6 01       		.uleb128 0x1
 8663 02a7 13       		.uleb128 0x13
 8664 02a8 00       		.byte	0
 8665 02a9 00       		.byte	0
 8666 02aa 2B       		.uleb128 0x2b
 8667 02ab 2E       		.uleb128 0x2e
 8668 02ac 00       		.byte	0
 8669 02ad 03       		.uleb128 0x3
 8670 02ae 0E       		.uleb128 0xe
 8671 02af 3A       		.uleb128 0x3a
 8672 02b0 0B       		.uleb128 0xb
 8673 02b1 3B       		.uleb128 0x3b
 8674 02b2 05       		.uleb128 0x5
 8675 02b3 39       		.uleb128 0x39
 8676 02b4 21       		.uleb128 0x21
 8677 02b5 14       		.sleb128 20
 8678 02b6 27       		.uleb128 0x27
 8679 02b7 19       		.uleb128 0x19
 8680 02b8 20       		.uleb128 0x20
 8681 02b9 21       		.uleb128 0x21
 8682 02ba 03       		.sleb128 3
 8683 02bb 00       		.byte	0
GAS LISTING /tmp/cctFPqVW.s 			page 157


 8684 02bc 00       		.byte	0
 8685 02bd 2C       		.uleb128 0x2c
 8686 02be 05       		.uleb128 0x5
 8687 02bf 00       		.byte	0
 8688 02c0 31       		.uleb128 0x31
 8689 02c1 13       		.uleb128 0x13
 8690 02c2 02       		.uleb128 0x2
 8691 02c3 18       		.uleb128 0x18
 8692 02c4 00       		.byte	0
 8693 02c5 00       		.byte	0
 8694 02c6 2D       		.uleb128 0x2d
 8695 02c7 0D       		.uleb128 0xd
 8696 02c8 00       		.byte	0
 8697 02c9 03       		.uleb128 0x3
 8698 02ca 08       		.uleb128 0x8
 8699 02cb 3A       		.uleb128 0x3a
 8700 02cc 21       		.uleb128 0x21
 8701 02cd 0E       		.sleb128 14
 8702 02ce 3B       		.uleb128 0x3b
 8703 02cf 05       		.uleb128 0x5
 8704 02d0 39       		.uleb128 0x39
 8705 02d1 21       		.uleb128 0x21
 8706 02d2 21       		.sleb128 33
 8707 02d3 49       		.uleb128 0x49
 8708 02d4 13       		.uleb128 0x13
 8709 02d5 38       		.uleb128 0x38
 8710 02d6 0B       		.uleb128 0xb
 8711 02d7 00       		.byte	0
 8712 02d8 00       		.byte	0
 8713 02d9 2E       		.uleb128 0x2e
 8714 02da 13       		.uleb128 0x13
 8715 02db 01       		.byte	0x1
 8716 02dc 0B       		.uleb128 0xb
 8717 02dd 0B       		.uleb128 0xb
 8718 02de 3A       		.uleb128 0x3a
 8719 02df 0B       		.uleb128 0xb
 8720 02e0 3B       		.uleb128 0x3b
 8721 02e1 0B       		.uleb128 0xb
 8722 02e2 39       		.uleb128 0x39
 8723 02e3 21       		.uleb128 0x21
 8724 02e4 09       		.sleb128 9
 8725 02e5 01       		.uleb128 0x1
 8726 02e6 13       		.uleb128 0x13
 8727 02e7 00       		.byte	0
 8728 02e8 00       		.byte	0
 8729 02e9 2F       		.uleb128 0x2f
 8730 02ea 15       		.uleb128 0x15
 8731 02eb 01       		.byte	0x1
 8732 02ec 27       		.uleb128 0x27
 8733 02ed 19       		.uleb128 0x19
 8734 02ee 01       		.uleb128 0x1
 8735 02ef 13       		.uleb128 0x13
 8736 02f0 00       		.byte	0
 8737 02f1 00       		.byte	0
 8738 02f2 30       		.uleb128 0x30
 8739 02f3 16       		.uleb128 0x16
 8740 02f4 00       		.byte	0
GAS LISTING /tmp/cctFPqVW.s 			page 158


 8741 02f5 03       		.uleb128 0x3
 8742 02f6 0E       		.uleb128 0xe
 8743 02f7 3A       		.uleb128 0x3a
 8744 02f8 21       		.uleb128 0x21
 8745 02f9 0E       		.sleb128 14
 8746 02fa 3B       		.uleb128 0x3b
 8747 02fb 05       		.uleb128 0x5
 8748 02fc 39       		.uleb128 0x39
 8749 02fd 21       		.uleb128 0x21
 8750 02fe 03       		.sleb128 3
 8751 02ff 49       		.uleb128 0x49
 8752 0300 13       		.uleb128 0x13
 8753 0301 00       		.byte	0
 8754 0302 00       		.byte	0
 8755 0303 31       		.uleb128 0x31
 8756 0304 2E       		.uleb128 0x2e
 8757 0305 00       		.byte	0
 8758 0306 3F       		.uleb128 0x3f
 8759 0307 19       		.uleb128 0x19
 8760 0308 03       		.uleb128 0x3
 8761 0309 0E       		.uleb128 0xe
 8762 030a 3A       		.uleb128 0x3a
 8763 030b 21       		.uleb128 0x21
 8764 030c 13       		.sleb128 19
 8765 030d 3B       		.uleb128 0x3b
 8766 030e 0B       		.uleb128 0xb
 8767 030f 39       		.uleb128 0x39
 8768 0310 21       		.uleb128 0x21
 8769 0311 08       		.sleb128 8
 8770 0312 27       		.uleb128 0x27
 8771 0313 19       		.uleb128 0x19
 8772 0314 3C       		.uleb128 0x3c
 8773 0315 19       		.uleb128 0x19
 8774 0316 00       		.byte	0
 8775 0317 00       		.byte	0
 8776 0318 32       		.uleb128 0x32
 8777 0319 2E       		.uleb128 0x2e
 8778 031a 01       		.byte	0x1
 8779 031b 3F       		.uleb128 0x3f
 8780 031c 19       		.uleb128 0x19
 8781 031d 03       		.uleb128 0x3
 8782 031e 0E       		.uleb128 0xe
 8783 031f 3A       		.uleb128 0x3a
 8784 0320 21       		.uleb128 0x21
 8785 0321 13       		.sleb128 19
 8786 0322 3B       		.uleb128 0x3b
 8787 0323 0B       		.uleb128 0xb
 8788 0324 39       		.uleb128 0x39
 8789 0325 0B       		.uleb128 0xb
 8790 0326 27       		.uleb128 0x27
 8791 0327 19       		.uleb128 0x19
 8792 0328 49       		.uleb128 0x49
 8793 0329 13       		.uleb128 0x13
 8794 032a 3C       		.uleb128 0x3c
 8795 032b 19       		.uleb128 0x19
 8796 032c 01       		.uleb128 0x1
 8797 032d 13       		.uleb128 0x13
GAS LISTING /tmp/cctFPqVW.s 			page 159


 8798 032e 00       		.byte	0
 8799 032f 00       		.byte	0
 8800 0330 33       		.uleb128 0x33
 8801 0331 2E       		.uleb128 0x2e
 8802 0332 01       		.byte	0x1
 8803 0333 3F       		.uleb128 0x3f
 8804 0334 19       		.uleb128 0x19
 8805 0335 03       		.uleb128 0x3
 8806 0336 0E       		.uleb128 0xe
 8807 0337 3A       		.uleb128 0x3a
 8808 0338 21       		.uleb128 0x21
 8809 0339 13       		.sleb128 19
 8810 033a 3B       		.uleb128 0x3b
 8811 033b 0B       		.uleb128 0xb
 8812 033c 39       		.uleb128 0x39
 8813 033d 21       		.uleb128 0x21
 8814 033e 08       		.sleb128 8
 8815 033f 27       		.uleb128 0x27
 8816 0340 19       		.uleb128 0x19
 8817 0341 3C       		.uleb128 0x3c
 8818 0342 19       		.uleb128 0x19
 8819 0343 01       		.uleb128 0x1
 8820 0344 13       		.uleb128 0x13
 8821 0345 00       		.byte	0
 8822 0346 00       		.byte	0
 8823 0347 34       		.uleb128 0x34
 8824 0348 0B       		.uleb128 0xb
 8825 0349 01       		.byte	0x1
 8826 034a 31       		.uleb128 0x31
 8827 034b 13       		.uleb128 0x13
 8828 034c 11       		.uleb128 0x11
 8829 034d 01       		.uleb128 0x1
 8830 034e 12       		.uleb128 0x12
 8831 034f 06       		.uleb128 0x6
 8832 0350 00       		.byte	0
 8833 0351 00       		.byte	0
 8834 0352 35       		.uleb128 0x35
 8835 0353 2E       		.uleb128 0x2e
 8836 0354 01       		.byte	0x1
 8837 0355 3F       		.uleb128 0x3f
 8838 0356 19       		.uleb128 0x19
 8839 0357 03       		.uleb128 0x3
 8840 0358 0E       		.uleb128 0xe
 8841 0359 3A       		.uleb128 0x3a
 8842 035a 21       		.uleb128 0x21
 8843 035b 01       		.sleb128 1
 8844 035c 3B       		.uleb128 0x3b
 8845 035d 05       		.uleb128 0x5
 8846 035e 39       		.uleb128 0x39
 8847 035f 21       		.uleb128 0x21
 8848 0360 06       		.sleb128 6
 8849 0361 27       		.uleb128 0x27
 8850 0362 19       		.uleb128 0x19
 8851 0363 20       		.uleb128 0x20
 8852 0364 21       		.uleb128 0x21
 8853 0365 01       		.sleb128 1
 8854 0366 01       		.uleb128 0x1
GAS LISTING /tmp/cctFPqVW.s 			page 160


 8855 0367 13       		.uleb128 0x13
 8856 0368 00       		.byte	0
 8857 0369 00       		.byte	0
 8858 036a 36       		.uleb128 0x36
 8859 036b 05       		.uleb128 0x5
 8860 036c 00       		.byte	0
 8861 036d 03       		.uleb128 0x3
 8862 036e 0E       		.uleb128 0xe
 8863 036f 3A       		.uleb128 0x3a
 8864 0370 21       		.uleb128 0x21
 8865 0371 01       		.sleb128 1
 8866 0372 3B       		.uleb128 0x3b
 8867 0373 05       		.uleb128 0x5
 8868 0374 39       		.uleb128 0x39
 8869 0375 0B       		.uleb128 0xb
 8870 0376 49       		.uleb128 0x49
 8871 0377 13       		.uleb128 0x13
 8872 0378 02       		.uleb128 0x2
 8873 0379 17       		.uleb128 0x17
 8874 037a B742     		.uleb128 0x2137
 8875 037c 17       		.uleb128 0x17
 8876 037d 00       		.byte	0
 8877 037e 00       		.byte	0
 8878 037f 37       		.uleb128 0x37
 8879 0380 05       		.uleb128 0x5
 8880 0381 00       		.byte	0
 8881 0382 03       		.uleb128 0x3
 8882 0383 08       		.uleb128 0x8
 8883 0384 3A       		.uleb128 0x3a
 8884 0385 21       		.uleb128 0x21
 8885 0386 01       		.sleb128 1
 8886 0387 3B       		.uleb128 0x3b
 8887 0388 05       		.uleb128 0x5
 8888 0389 39       		.uleb128 0x39
 8889 038a 0B       		.uleb128 0xb
 8890 038b 49       		.uleb128 0x49
 8891 038c 13       		.uleb128 0x13
 8892 038d 02       		.uleb128 0x2
 8893 038e 17       		.uleb128 0x17
 8894 038f B742     		.uleb128 0x2137
 8895 0391 17       		.uleb128 0x17
 8896 0392 00       		.byte	0
 8897 0393 00       		.byte	0
 8898 0394 38       		.uleb128 0x38
 8899 0395 05       		.uleb128 0x5
 8900 0396 00       		.byte	0
 8901 0397 03       		.uleb128 0x3
 8902 0398 08       		.uleb128 0x8
 8903 0399 3A       		.uleb128 0x3a
 8904 039a 21       		.uleb128 0x21
 8905 039b 01       		.sleb128 1
 8906 039c 3B       		.uleb128 0x3b
 8907 039d 0B       		.uleb128 0xb
 8908 039e 39       		.uleb128 0x39
 8909 039f 0B       		.uleb128 0xb
 8910 03a0 49       		.uleb128 0x49
 8911 03a1 13       		.uleb128 0x13
GAS LISTING /tmp/cctFPqVW.s 			page 161


 8912 03a2 02       		.uleb128 0x2
 8913 03a3 17       		.uleb128 0x17
 8914 03a4 B742     		.uleb128 0x2137
 8915 03a6 17       		.uleb128 0x17
 8916 03a7 00       		.byte	0
 8917 03a8 00       		.byte	0
 8918 03a9 39       		.uleb128 0x39
 8919 03aa 2E       		.uleb128 0x2e
 8920 03ab 01       		.byte	0x1
 8921 03ac 03       		.uleb128 0x3
 8922 03ad 0E       		.uleb128 0xe
 8923 03ae 3A       		.uleb128 0x3a
 8924 03af 21       		.uleb128 0x21
 8925 03b0 02       		.sleb128 2
 8926 03b1 3B       		.uleb128 0x3b
 8927 03b2 0B       		.uleb128 0xb
 8928 03b3 39       		.uleb128 0x39
 8929 03b4 21       		.uleb128 0x21
 8930 03b5 14       		.sleb128 20
 8931 03b6 27       		.uleb128 0x27
 8932 03b7 19       		.uleb128 0x19
 8933 03b8 20       		.uleb128 0x20
 8934 03b9 21       		.uleb128 0x21
 8935 03ba 03       		.sleb128 3
 8936 03bb 01       		.uleb128 0x1
 8937 03bc 13       		.uleb128 0x13
 8938 03bd 00       		.byte	0
 8939 03be 00       		.byte	0
 8940 03bf 3A       		.uleb128 0x3a
 8941 03c0 2E       		.uleb128 0x2e
 8942 03c1 01       		.byte	0x1
 8943 03c2 31       		.uleb128 0x31
 8944 03c3 13       		.uleb128 0x13
 8945 03c4 11       		.uleb128 0x11
 8946 03c5 01       		.uleb128 0x1
 8947 03c6 12       		.uleb128 0x12
 8948 03c7 06       		.uleb128 0x6
 8949 03c8 40       		.uleb128 0x40
 8950 03c9 18       		.uleb128 0x18
 8951 03ca 7A       		.uleb128 0x7a
 8952 03cb 19       		.uleb128 0x19
 8953 03cc 01       		.uleb128 0x1
 8954 03cd 13       		.uleb128 0x13
 8955 03ce 00       		.byte	0
 8956 03cf 00       		.byte	0
 8957 03d0 3B       		.uleb128 0x3b
 8958 03d1 11       		.uleb128 0x11
 8959 03d2 01       		.byte	0x1
 8960 03d3 25       		.uleb128 0x25
 8961 03d4 0E       		.uleb128 0xe
 8962 03d5 13       		.uleb128 0x13
 8963 03d6 0B       		.uleb128 0xb
 8964 03d7 03       		.uleb128 0x3
 8965 03d8 1F       		.uleb128 0x1f
 8966 03d9 1B       		.uleb128 0x1b
 8967 03da 1F       		.uleb128 0x1f
 8968 03db 55       		.uleb128 0x55
GAS LISTING /tmp/cctFPqVW.s 			page 162


 8969 03dc 17       		.uleb128 0x17
 8970 03dd 11       		.uleb128 0x11
 8971 03de 01       		.uleb128 0x1
 8972 03df 10       		.uleb128 0x10
 8973 03e0 17       		.uleb128 0x17
 8974 03e1 00       		.byte	0
 8975 03e2 00       		.byte	0
 8976 03e3 3C       		.uleb128 0x3c
 8977 03e4 24       		.uleb128 0x24
 8978 03e5 00       		.byte	0
 8979 03e6 0B       		.uleb128 0xb
 8980 03e7 0B       		.uleb128 0xb
 8981 03e8 3E       		.uleb128 0x3e
 8982 03e9 0B       		.uleb128 0xb
 8983 03ea 03       		.uleb128 0x3
 8984 03eb 08       		.uleb128 0x8
 8985 03ec 00       		.byte	0
 8986 03ed 00       		.byte	0
 8987 03ee 3D       		.uleb128 0x3d
 8988 03ef 0F       		.uleb128 0xf
 8989 03f0 00       		.byte	0
 8990 03f1 0B       		.uleb128 0xb
 8991 03f2 0B       		.uleb128 0xb
 8992 03f3 00       		.byte	0
 8993 03f4 00       		.byte	0
 8994 03f5 3E       		.uleb128 0x3e
 8995 03f6 16       		.uleb128 0x16
 8996 03f7 00       		.byte	0
 8997 03f8 03       		.uleb128 0x3
 8998 03f9 0E       		.uleb128 0xe
 8999 03fa 3A       		.uleb128 0x3a
 9000 03fb 0B       		.uleb128 0xb
 9001 03fc 3B       		.uleb128 0x3b
 9002 03fd 0B       		.uleb128 0xb
 9003 03fe 39       		.uleb128 0x39
 9004 03ff 0B       		.uleb128 0xb
 9005 0400 49       		.uleb128 0x49
 9006 0401 13       		.uleb128 0x13
 9007 0402 8801     		.uleb128 0x88
 9008 0404 0B       		.uleb128 0xb
 9009 0405 00       		.byte	0
 9010 0406 00       		.byte	0
 9011 0407 3F       		.uleb128 0x3f
 9012 0408 34       		.uleb128 0x34
 9013 0409 00       		.byte	0
 9014 040a 03       		.uleb128 0x3
 9015 040b 0E       		.uleb128 0xe
 9016 040c 3A       		.uleb128 0x3a
 9017 040d 0B       		.uleb128 0xb
 9018 040e 3B       		.uleb128 0x3b
 9019 040f 05       		.uleb128 0x5
 9020 0410 39       		.uleb128 0x39
 9021 0411 0B       		.uleb128 0xb
 9022 0412 49       		.uleb128 0x49
 9023 0413 13       		.uleb128 0x13
 9024 0414 3F       		.uleb128 0x3f
 9025 0415 19       		.uleb128 0x19
GAS LISTING /tmp/cctFPqVW.s 			page 163


 9026 0416 3C       		.uleb128 0x3c
 9027 0417 19       		.uleb128 0x19
 9028 0418 00       		.byte	0
 9029 0419 00       		.byte	0
 9030 041a 40       		.uleb128 0x40
 9031 041b 17       		.uleb128 0x17
 9032 041c 01       		.byte	0x1
 9033 041d 0B       		.uleb128 0xb
 9034 041e 0B       		.uleb128 0xb
 9035 041f 3A       		.uleb128 0x3a
 9036 0420 0B       		.uleb128 0xb
 9037 0421 3B       		.uleb128 0x3b
 9038 0422 0B       		.uleb128 0xb
 9039 0423 39       		.uleb128 0x39
 9040 0424 0B       		.uleb128 0xb
 9041 0425 01       		.uleb128 0x1
 9042 0426 13       		.uleb128 0x13
 9043 0427 00       		.byte	0
 9044 0428 00       		.byte	0
 9045 0429 41       		.uleb128 0x41
 9046 042a 17       		.uleb128 0x17
 9047 042b 01       		.byte	0x1
 9048 042c 0B       		.uleb128 0xb
 9049 042d 0B       		.uleb128 0xb
 9050 042e 3A       		.uleb128 0x3a
 9051 042f 0B       		.uleb128 0xb
 9052 0430 3B       		.uleb128 0x3b
 9053 0431 05       		.uleb128 0x5
 9054 0432 39       		.uleb128 0x39
 9055 0433 0B       		.uleb128 0xb
 9056 0434 01       		.uleb128 0x1
 9057 0435 13       		.uleb128 0x13
 9058 0436 00       		.byte	0
 9059 0437 00       		.byte	0
 9060 0438 42       		.uleb128 0x42
 9061 0439 34       		.uleb128 0x34
 9062 043a 00       		.byte	0
 9063 043b 03       		.uleb128 0x3
 9064 043c 08       		.uleb128 0x8
 9065 043d 3A       		.uleb128 0x3a
 9066 043e 0B       		.uleb128 0xb
 9067 043f 3B       		.uleb128 0x3b
 9068 0440 05       		.uleb128 0x5
 9069 0441 39       		.uleb128 0x39
 9070 0442 0B       		.uleb128 0xb
 9071 0443 49       		.uleb128 0x49
 9072 0444 13       		.uleb128 0x13
 9073 0445 3F       		.uleb128 0x3f
 9074 0446 19       		.uleb128 0x19
 9075 0447 3C       		.uleb128 0x3c
 9076 0448 19       		.uleb128 0x19
 9077 0449 00       		.byte	0
 9078 044a 00       		.byte	0
 9079 044b 43       		.uleb128 0x43
 9080 044c 2E       		.uleb128 0x2e
 9081 044d 01       		.byte	0x1
 9082 044e 3F       		.uleb128 0x3f
GAS LISTING /tmp/cctFPqVW.s 			page 164


 9083 044f 19       		.uleb128 0x19
 9084 0450 03       		.uleb128 0x3
 9085 0451 0E       		.uleb128 0xe
 9086 0452 3A       		.uleb128 0x3a
 9087 0453 0B       		.uleb128 0xb
 9088 0454 3B       		.uleb128 0x3b
 9089 0455 05       		.uleb128 0x5
 9090 0456 39       		.uleb128 0x39
 9091 0457 0B       		.uleb128 0xb
 9092 0458 27       		.uleb128 0x27
 9093 0459 19       		.uleb128 0x19
 9094 045a 8701     		.uleb128 0x87
 9095 045c 19       		.uleb128 0x19
 9096 045d 3C       		.uleb128 0x3c
 9097 045e 19       		.uleb128 0x19
 9098 045f 01       		.uleb128 0x1
 9099 0460 13       		.uleb128 0x13
 9100 0461 00       		.byte	0
 9101 0462 00       		.byte	0
 9102 0463 44       		.uleb128 0x44
 9103 0464 15       		.uleb128 0x15
 9104 0465 01       		.byte	0x1
 9105 0466 27       		.uleb128 0x27
 9106 0467 19       		.uleb128 0x19
 9107 0468 49       		.uleb128 0x49
 9108 0469 13       		.uleb128 0x13
 9109 046a 01       		.uleb128 0x1
 9110 046b 13       		.uleb128 0x13
 9111 046c 00       		.byte	0
 9112 046d 00       		.byte	0
 9113 046e 45       		.uleb128 0x45
 9114 046f 2E       		.uleb128 0x2e
 9115 0470 01       		.byte	0x1
 9116 0471 3F       		.uleb128 0x3f
 9117 0472 19       		.uleb128 0x19
 9118 0473 03       		.uleb128 0x3
 9119 0474 0E       		.uleb128 0xe
 9120 0475 3A       		.uleb128 0x3a
 9121 0476 0B       		.uleb128 0xb
 9122 0477 3B       		.uleb128 0x3b
 9123 0478 05       		.uleb128 0x5
 9124 0479 39       		.uleb128 0x39
 9125 047a 0B       		.uleb128 0xb
 9126 047b 27       		.uleb128 0x27
 9127 047c 19       		.uleb128 0x19
 9128 047d 01       		.uleb128 0x1
 9129 047e 13       		.uleb128 0x13
 9130 047f 00       		.byte	0
 9131 0480 00       		.byte	0
 9132 0481 46       		.uleb128 0x46
 9133 0482 0B       		.uleb128 0xb
 9134 0483 01       		.byte	0x1
 9135 0484 00       		.byte	0
 9136 0485 00       		.byte	0
 9137 0486 47       		.uleb128 0x47
 9138 0487 0B       		.uleb128 0xb
 9139 0488 01       		.byte	0x1
GAS LISTING /tmp/cctFPqVW.s 			page 165


 9140 0489 11       		.uleb128 0x11
 9141 048a 01       		.uleb128 0x1
 9142 048b 12       		.uleb128 0x12
 9143 048c 06       		.uleb128 0x6
 9144 048d 00       		.byte	0
 9145 048e 00       		.byte	0
 9146 048f 48       		.uleb128 0x48
 9147 0490 2E       		.uleb128 0x2e
 9148 0491 01       		.byte	0x1
 9149 0492 3F       		.uleb128 0x3f
 9150 0493 19       		.uleb128 0x19
 9151 0494 03       		.uleb128 0x3
 9152 0495 0E       		.uleb128 0xe
 9153 0496 3A       		.uleb128 0x3a
 9154 0497 0B       		.uleb128 0xb
 9155 0498 3B       		.uleb128 0x3b
 9156 0499 05       		.uleb128 0x5
 9157 049a 39       		.uleb128 0x39
 9158 049b 0B       		.uleb128 0xb
 9159 049c 27       		.uleb128 0x27
 9160 049d 19       		.uleb128 0x19
 9161 049e 49       		.uleb128 0x49
 9162 049f 13       		.uleb128 0x13
 9163 04a0 11       		.uleb128 0x11
 9164 04a1 01       		.uleb128 0x1
 9165 04a2 12       		.uleb128 0x12
 9166 04a3 06       		.uleb128 0x6
 9167 04a4 40       		.uleb128 0x40
 9168 04a5 18       		.uleb128 0x18
 9169 04a6 7C       		.uleb128 0x7c
 9170 04a7 19       		.uleb128 0x19
 9171 04a8 01       		.uleb128 0x1
 9172 04a9 13       		.uleb128 0x13
 9173 04aa 00       		.byte	0
 9174 04ab 00       		.byte	0
 9175 04ac 49       		.uleb128 0x49
 9176 04ad 48       		.uleb128 0x48
 9177 04ae 01       		.byte	0x1
 9178 04af 7D       		.uleb128 0x7d
 9179 04b0 01       		.uleb128 0x1
 9180 04b1 8201     		.uleb128 0x82
 9181 04b3 19       		.uleb128 0x19
 9182 04b4 7F       		.uleb128 0x7f
 9183 04b5 13       		.uleb128 0x13
 9184 04b6 00       		.byte	0
 9185 04b7 00       		.byte	0
 9186 04b8 4A       		.uleb128 0x4a
 9187 04b9 49       		.uleb128 0x49
 9188 04ba 00       		.byte	0
 9189 04bb 02       		.uleb128 0x2
 9190 04bc 18       		.uleb128 0x18
 9191 04bd 7E       		.uleb128 0x7e
 9192 04be 18       		.uleb128 0x18
 9193 04bf 00       		.byte	0
 9194 04c0 00       		.byte	0
 9195 04c1 4B       		.uleb128 0x4b
 9196 04c2 34       		.uleb128 0x34
GAS LISTING /tmp/cctFPqVW.s 			page 166


 9197 04c3 00       		.byte	0
 9198 04c4 03       		.uleb128 0x3
 9199 04c5 0E       		.uleb128 0xe
 9200 04c6 3A       		.uleb128 0x3a
 9201 04c7 0B       		.uleb128 0xb
 9202 04c8 3B       		.uleb128 0x3b
 9203 04c9 05       		.uleb128 0x5
 9204 04ca 39       		.uleb128 0x39
 9205 04cb 0B       		.uleb128 0xb
 9206 04cc 49       		.uleb128 0x49
 9207 04cd 13       		.uleb128 0x13
 9208 04ce 00       		.byte	0
 9209 04cf 00       		.byte	0
 9210 04d0 4C       		.uleb128 0x4c
 9211 04d1 2E       		.uleb128 0x2e
 9212 04d2 01       		.byte	0x1
 9213 04d3 3F       		.uleb128 0x3f
 9214 04d4 19       		.uleb128 0x19
 9215 04d5 03       		.uleb128 0x3
 9216 04d6 0E       		.uleb128 0xe
 9217 04d7 3A       		.uleb128 0x3a
 9218 04d8 0B       		.uleb128 0xb
 9219 04d9 3B       		.uleb128 0x3b
 9220 04da 0B       		.uleb128 0xb
 9221 04db 39       		.uleb128 0x39
 9222 04dc 0B       		.uleb128 0xb
 9223 04dd 27       		.uleb128 0x27
 9224 04de 19       		.uleb128 0x19
 9225 04df 49       		.uleb128 0x49
 9226 04e0 13       		.uleb128 0x13
 9227 04e1 11       		.uleb128 0x11
 9228 04e2 01       		.uleb128 0x1
 9229 04e3 12       		.uleb128 0x12
 9230 04e4 06       		.uleb128 0x6
 9231 04e5 40       		.uleb128 0x40
 9232 04e6 18       		.uleb128 0x18
 9233 04e7 7A       		.uleb128 0x7a
 9234 04e8 19       		.uleb128 0x19
 9235 04e9 01       		.uleb128 0x1
 9236 04ea 13       		.uleb128 0x13
 9237 04eb 00       		.byte	0
 9238 04ec 00       		.byte	0
 9239 04ed 4D       		.uleb128 0x4d
 9240 04ee 34       		.uleb128 0x34
 9241 04ef 00       		.byte	0
 9242 04f0 03       		.uleb128 0x3
 9243 04f1 08       		.uleb128 0x8
 9244 04f2 3A       		.uleb128 0x3a
 9245 04f3 0B       		.uleb128 0xb
 9246 04f4 3B       		.uleb128 0x3b
 9247 04f5 0B       		.uleb128 0xb
 9248 04f6 39       		.uleb128 0x39
 9249 04f7 0B       		.uleb128 0xb
 9250 04f8 49       		.uleb128 0x49
 9251 04f9 13       		.uleb128 0x13
 9252 04fa 02       		.uleb128 0x2
 9253 04fb 17       		.uleb128 0x17
GAS LISTING /tmp/cctFPqVW.s 			page 167


 9254 04fc B742     		.uleb128 0x2137
 9255 04fe 17       		.uleb128 0x17
 9256 04ff 00       		.byte	0
 9257 0500 00       		.byte	0
 9258 0501 4E       		.uleb128 0x4e
 9259 0502 34       		.uleb128 0x34
 9260 0503 00       		.byte	0
 9261 0504 03       		.uleb128 0x3
 9262 0505 0E       		.uleb128 0xe
 9263 0506 3A       		.uleb128 0x3a
 9264 0507 0B       		.uleb128 0xb
 9265 0508 3B       		.uleb128 0x3b
 9266 0509 0B       		.uleb128 0xb
 9267 050a 39       		.uleb128 0x39
 9268 050b 0B       		.uleb128 0xb
 9269 050c 49       		.uleb128 0x49
 9270 050d 13       		.uleb128 0x13
 9271 050e 02       		.uleb128 0x2
 9272 050f 17       		.uleb128 0x17
 9273 0510 B742     		.uleb128 0x2137
 9274 0512 17       		.uleb128 0x17
 9275 0513 00       		.byte	0
 9276 0514 00       		.byte	0
 9277 0515 4F       		.uleb128 0x4f
 9278 0516 2E       		.uleb128 0x2e
 9279 0517 01       		.byte	0x1
 9280 0518 3F       		.uleb128 0x3f
 9281 0519 19       		.uleb128 0x19
 9282 051a 03       		.uleb128 0x3
 9283 051b 0E       		.uleb128 0xe
 9284 051c 3A       		.uleb128 0x3a
 9285 051d 0B       		.uleb128 0xb
 9286 051e 3B       		.uleb128 0x3b
 9287 051f 0B       		.uleb128 0xb
 9288 0520 39       		.uleb128 0x39
 9289 0521 0B       		.uleb128 0xb
 9290 0522 27       		.uleb128 0x27
 9291 0523 19       		.uleb128 0x19
 9292 0524 20       		.uleb128 0x20
 9293 0525 0B       		.uleb128 0xb
 9294 0526 01       		.uleb128 0x1
 9295 0527 13       		.uleb128 0x13
 9296 0528 00       		.byte	0
 9297 0529 00       		.byte	0
 9298 052a 50       		.uleb128 0x50
 9299 052b 2E       		.uleb128 0x2e
 9300 052c 01       		.byte	0x1
 9301 052d 3F       		.uleb128 0x3f
 9302 052e 19       		.uleb128 0x19
 9303 052f 03       		.uleb128 0x3
 9304 0530 0E       		.uleb128 0xe
 9305 0531 3A       		.uleb128 0x3a
 9306 0532 0B       		.uleb128 0xb
 9307 0533 3B       		.uleb128 0x3b
 9308 0534 0B       		.uleb128 0xb
 9309 0535 39       		.uleb128 0x39
 9310 0536 0B       		.uleb128 0xb
GAS LISTING /tmp/cctFPqVW.s 			page 168


 9311 0537 27       		.uleb128 0x27
 9312 0538 19       		.uleb128 0x19
 9313 0539 49       		.uleb128 0x49
 9314 053a 13       		.uleb128 0x13
 9315 053b 20       		.uleb128 0x20
 9316 053c 0B       		.uleb128 0xb
 9317 053d 01       		.uleb128 0x1
 9318 053e 13       		.uleb128 0x13
 9319 053f 00       		.byte	0
 9320 0540 00       		.byte	0
 9321 0541 51       		.uleb128 0x51
 9322 0542 2E       		.uleb128 0x2e
 9323 0543 00       		.byte	0
 9324 0544 03       		.uleb128 0x3
 9325 0545 0E       		.uleb128 0xe
 9326 0546 3A       		.uleb128 0x3a
 9327 0547 0B       		.uleb128 0xb
 9328 0548 3B       		.uleb128 0x3b
 9329 0549 05       		.uleb128 0x5
 9330 054a 39       		.uleb128 0x39
 9331 054b 0B       		.uleb128 0xb
 9332 054c 27       		.uleb128 0x27
 9333 054d 19       		.uleb128 0x19
 9334 054e 49       		.uleb128 0x49
 9335 054f 13       		.uleb128 0x13
 9336 0550 20       		.uleb128 0x20
 9337 0551 0B       		.uleb128 0xb
 9338 0552 00       		.byte	0
 9339 0553 00       		.byte	0
 9340 0554 52       		.uleb128 0x52
 9341 0555 2E       		.uleb128 0x2e
 9342 0556 00       		.byte	0
 9343 0557 03       		.uleb128 0x3
 9344 0558 0E       		.uleb128 0xe
 9345 0559 3A       		.uleb128 0x3a
 9346 055a 0B       		.uleb128 0xb
 9347 055b 3B       		.uleb128 0x3b
 9348 055c 0B       		.uleb128 0xb
 9349 055d 39       		.uleb128 0x39
 9350 055e 0B       		.uleb128 0xb
 9351 055f 27       		.uleb128 0x27
 9352 0560 19       		.uleb128 0x19
 9353 0561 49       		.uleb128 0x49
 9354 0562 13       		.uleb128 0x13
 9355 0563 20       		.uleb128 0x20
 9356 0564 0B       		.uleb128 0xb
 9357 0565 00       		.byte	0
 9358 0566 00       		.byte	0
 9359 0567 53       		.uleb128 0x53
 9360 0568 2E       		.uleb128 0x2e
 9361 0569 01       		.byte	0x1
 9362 056a 03       		.uleb128 0x3
 9363 056b 0E       		.uleb128 0xe
 9364 056c 3A       		.uleb128 0x3a
 9365 056d 0B       		.uleb128 0xb
 9366 056e 3B       		.uleb128 0x3b
 9367 056f 0B       		.uleb128 0xb
GAS LISTING /tmp/cctFPqVW.s 			page 169


 9368 0570 39       		.uleb128 0x39
 9369 0571 0B       		.uleb128 0xb
 9370 0572 27       		.uleb128 0x27
 9371 0573 19       		.uleb128 0x19
 9372 0574 49       		.uleb128 0x49
 9373 0575 13       		.uleb128 0x13
 9374 0576 20       		.uleb128 0x20
 9375 0577 0B       		.uleb128 0xb
 9376 0578 01       		.uleb128 0x1
 9377 0579 13       		.uleb128 0x13
 9378 057a 00       		.byte	0
 9379 057b 00       		.byte	0
 9380 057c 54       		.uleb128 0x54
 9381 057d 1D       		.uleb128 0x1d
 9382 057e 01       		.byte	0x1
 9383 057f 31       		.uleb128 0x31
 9384 0580 13       		.uleb128 0x13
 9385 0581 52       		.uleb128 0x52
 9386 0582 01       		.uleb128 0x1
 9387 0583 B842     		.uleb128 0x2138
 9388 0585 0B       		.uleb128 0xb
 9389 0586 11       		.uleb128 0x11
 9390 0587 01       		.uleb128 0x1
 9391 0588 12       		.uleb128 0x12
 9392 0589 06       		.uleb128 0x6
 9393 058a 58       		.uleb128 0x58
 9394 058b 0B       		.uleb128 0xb
 9395 058c 59       		.uleb128 0x59
 9396 058d 0B       		.uleb128 0xb
 9397 058e 57       		.uleb128 0x57
 9398 058f 0B       		.uleb128 0xb
 9399 0590 01       		.uleb128 0x1
 9400 0591 13       		.uleb128 0x13
 9401 0592 00       		.byte	0
 9402 0593 00       		.byte	0
 9403 0594 55       		.uleb128 0x55
 9404 0595 2E       		.uleb128 0x2e
 9405 0596 01       		.byte	0x1
 9406 0597 31       		.uleb128 0x31
 9407 0598 13       		.uleb128 0x13
 9408 0599 11       		.uleb128 0x11
 9409 059a 01       		.uleb128 0x1
 9410 059b 12       		.uleb128 0x12
 9411 059c 06       		.uleb128 0x6
 9412 059d 40       		.uleb128 0x40
 9413 059e 18       		.uleb128 0x18
 9414 059f 01       		.uleb128 0x1
 9415 05a0 13       		.uleb128 0x13
 9416 05a1 00       		.byte	0
 9417 05a2 00       		.byte	0
 9418 05a3 56       		.uleb128 0x56
 9419 05a4 2E       		.uleb128 0x2e
 9420 05a5 01       		.byte	0x1
 9421 05a6 31       		.uleb128 0x31
 9422 05a7 13       		.uleb128 0x13
 9423 05a8 11       		.uleb128 0x11
 9424 05a9 01       		.uleb128 0x1
GAS LISTING /tmp/cctFPqVW.s 			page 170


 9425 05aa 12       		.uleb128 0x12
 9426 05ab 06       		.uleb128 0x6
 9427 05ac 40       		.uleb128 0x40
 9428 05ad 18       		.uleb128 0x18
 9429 05ae 7A       		.uleb128 0x7a
 9430 05af 19       		.uleb128 0x19
 9431 05b0 00       		.byte	0
 9432 05b1 00       		.byte	0
 9433 05b2 00       		.byte	0
 9434              		.section	.debug_loclists,"",@progbits
 9435 0000 BE060000 		.long	.Ldebug_loc3-.Ldebug_loc2
 9436              	.Ldebug_loc2:
 9437 0004 0500     		.value	0x5
 9438 0006 04       		.byte	0x4
 9439 0007 00       		.byte	0
 9440 0008 00000000 		.long	0
 9441              	.Ldebug_loc0:
 9442              	.LVUS139:
 9443 000c 00       		.uleb128 .LVU1319
 9444 000d 00       		.uleb128 .LVU1323
 9445 000e 02       		.uleb128 .LVU1351
 9446 000f 00       		.uleb128 .LVU1354
 9447              	.LLST139:
 9448 0010 06       		.byte	0x6
 9449 0011 07000000 		.long	.LVL162
 9450 0015 04       		.byte	0x4
 9451 0016 00       		.uleb128 .LVL162-.LVL162
 9452 0017 11       		.uleb128 .LVL163-.LVL162
 9453 0018 02       		.uleb128 0x2
 9454 0019 91       		.byte	0x91
 9455 001a 00       		.sleb128 0
 9456 001b 04       		.byte	0x4
 9457 001c 2C       		.uleb128 .LVL166-.LVL162
 9458 001d 2E       		.uleb128 .LVL167-.LVL162
 9459 001e 02       		.uleb128 0x2
 9460 001f 91       		.byte	0x91
 9461 0020 00       		.sleb128 0
 9462 0021 00       		.byte	0
 9463              	.LVUS140:
 9464 0022 01       		.uleb128 .LVU1326
 9465 0023 00       		.uleb128 .LVU1349
 9466              	.LLST140:
 9467 0024 08       		.byte	0x8
 9468 0025 20000000 		.long	.LVL164
 9469 0029 13       		.uleb128 .LVL166-.LVL164
 9470 002a 02       		.uleb128 0x2
 9471 002b 91       		.byte	0x91
 9472 002c 04       		.sleb128 4
 9473 002d 00       		.byte	0
 9474              	.LVUS141:
 9475 002e 01       		.uleb128 .LVU1326
 9476 002f 00       		.uleb128 .LVU1349
 9477              	.LLST141:
 9478 0030 08       		.byte	0x8
 9479 0031 20000000 		.long	.LVL164
 9480 0035 13       		.uleb128 .LVL166-.LVL164
 9481 0036 02       		.uleb128 0x2
GAS LISTING /tmp/cctFPqVW.s 			page 171


 9482 0037 91       		.byte	0x91
 9483 0038 00       		.sleb128 0
 9484 0039 00       		.byte	0
 9485              	.LVUS142:
 9486 003a 01       		.uleb128 .LVU1341
 9487 003b 00       		.uleb128 .LVU1349
 9488              	.LLST142:
 9489 003c 08       		.byte	0x8
 9490 003d 2A000000 		.long	.LVL165
 9491 0041 08       		.uleb128 .LVL166-1-.LVL165
 9492 0042 01       		.uleb128 0x1
 9493 0043 50       		.byte	0x50
 9494 0044 00       		.byte	0
 9495              	.LVUS144:
 9496 0045 07       		.uleb128 .LVU1332
 9497 0046 01       		.uleb128 .LVU1341
 9498              	.LLST144:
 9499 0047 08       		.byte	0x8
 9500 0048 20000000 		.long	.LVL164
 9501 004c 0A       		.uleb128 .LVL165-.LVL164
 9502 004d 02       		.uleb128 0x2
 9503 004e 91       		.byte	0x91
 9504 004f 00       		.sleb128 0
 9505 0050 00       		.byte	0
 9506              	.LVUS145:
 9507 0051 09       		.uleb128 .LVU1334
 9508 0052 01       		.uleb128 .LVU1341
 9509              	.LLST145:
 9510 0053 08       		.byte	0x8
 9511 0054 20000000 		.long	.LVL164
 9512 0058 0A       		.uleb128 .LVL165-.LVL164
 9513 0059 01       		.uleb128 0x1
 9514 005a 50       		.byte	0x50
 9515 005b 00       		.byte	0
 9516              	.LVUS131:
 9517 005c 00       		.uleb128 .LVU1281
 9518 005d 00       		.uleb128 .LVU1284
 9519              	.LLST131:
 9520 005e 08       		.byte	0x8
 9521 005f 13000000 		.long	.LVL154
 9522 0063 02       		.uleb128 .LVL155-.LVL154
 9523 0064 01       		.uleb128 0x1
 9524 0065 50       		.byte	0x50
 9525 0066 00       		.byte	0
 9526              	.LVUS132:
 9527 0067 01       		.uleb128 .LVU1287
 9528 0068 00       		.uleb128 .LVU1312
 9529              	.LLST132:
 9530 0069 08       		.byte	0x8
 9531 006a 19000000 		.long	.LVL156
 9532 006e 1A       		.uleb128 .LVL160-.LVL156
 9533 006f 02       		.uleb128 0x2
 9534 0070 91       		.byte	0x91
 9535 0071 04       		.sleb128 4
 9536 0072 00       		.byte	0
 9537              	.LVUS133:
 9538 0073 01       		.uleb128 .LVU1287
GAS LISTING /tmp/cctFPqVW.s 			page 172


 9539 0074 00       		.uleb128 .LVU1308
 9540 0075 00       		.uleb128 .LVU1308
 9541 0076 00       		.uleb128 .LVU1312
 9542              	.LLST133:
 9543 0077 06       		.byte	0x6
 9544 0078 19000000 		.long	.LVL156
 9545 007c 04       		.byte	0x4
 9546 007d 00       		.uleb128 .LVL156-.LVL156
 9547 007e 0E       		.uleb128 .LVL158-.LVL156
 9548 007f 01       		.uleb128 0x1
 9549 0080 50       		.byte	0x50
 9550 0081 04       		.byte	0x4
 9551 0082 0E       		.uleb128 .LVL158-.LVL156
 9552 0083 1A       		.uleb128 .LVL160-.LVL156
 9553 0084 02       		.uleb128 0x2
 9554 0085 91       		.byte	0x91
 9555 0086 00       		.sleb128 0
 9556 0087 00       		.byte	0
 9557              	.LVUS134:
 9558 0088 01       		.uleb128 .LVU1302
 9559 0089 00       		.uleb128 .LVU1311
 9560              	.LLST134:
 9561 008a 08       		.byte	0x8
 9562 008b 23000000 		.long	.LVL157
 9563 008f 0C       		.uleb128 .LVL159-1-.LVL157
 9564 0090 01       		.uleb128 0x1
 9565 0091 52       		.byte	0x52
 9566 0092 00       		.byte	0
 9567              	.LVUS136:
 9568 0093 07       		.uleb128 .LVU1293
 9569 0094 01       		.uleb128 .LVU1302
 9570              	.LLST136:
 9571 0095 08       		.byte	0x8
 9572 0096 19000000 		.long	.LVL156
 9573 009a 0A       		.uleb128 .LVL157-.LVL156
 9574 009b 01       		.uleb128 0x1
 9575 009c 50       		.byte	0x50
 9576 009d 00       		.byte	0
 9577              	.LVUS137:
 9578 009e 09       		.uleb128 .LVU1295
 9579 009f 01       		.uleb128 .LVU1302
 9580              	.LLST137:
 9581 00a0 08       		.byte	0x8
 9582 00a1 19000000 		.long	.LVL156
 9583 00a5 0A       		.uleb128 .LVL157-.LVL156
 9584 00a6 01       		.uleb128 0x1
 9585 00a7 52       		.byte	0x52
 9586 00a8 00       		.byte	0
 9587              	.LVUS126:
 9588 00a9 00       		.uleb128 .LVU1255
 9589 00aa 00       		.uleb128 .LVU1273
 9590 00ab 00       		.uleb128 .LVU1275
 9591 00ac 00       		.uleb128 .LVU1276
 9592              	.LLST126:
 9593 00ad 06       		.byte	0x6
 9594 00ae 21000000 		.long	.LVL147
 9595 00b2 04       		.byte	0x4
GAS LISTING /tmp/cctFPqVW.s 			page 173


 9596 00b3 00       		.uleb128 .LVL147-.LVL147
 9597 00b4 1B       		.uleb128 .LVL150-1-.LVL147
 9598 00b5 01       		.uleb128 0x1
 9599 00b6 50       		.byte	0x50
 9600 00b7 04       		.byte	0x4
 9601 00b8 25       		.uleb128 .LVL151-.LVL147
 9602 00b9 34       		.uleb128 .LVL152-.LVL147
 9603 00ba 01       		.uleb128 0x1
 9604 00bb 50       		.byte	0x50
 9605 00bc 00       		.byte	0
 9606              	.LVUS129:
 9607 00bd 01       		.uleb128 .LVU1259
 9608 00be 00       		.uleb128 .LVU1270
 9609              	.LLST129:
 9610 00bf 08       		.byte	0x8
 9611 00c0 25000000 		.long	.LVL148
 9612 00c4 10       		.uleb128 .LVL149-.LVL148
 9613 00c5 01       		.uleb128 0x1
 9614 00c6 50       		.byte	0x50
 9615 00c7 00       		.byte	0
 9616              	.LVUS130:
 9617 00c8 01       		.uleb128 .LVU1259
 9618 00c9 00       		.uleb128 .LVU1270
 9619              	.LLST130:
 9620 00ca 08       		.byte	0x8
 9621 00cb 25000000 		.long	.LVL148
 9622 00cf 10       		.uleb128 .LVL149-.LVL148
 9623 00d0 01       		.uleb128 0x1
 9624 00d1 52       		.byte	0x52
 9625 00d2 00       		.byte	0
 9626              	.LVUS125:
 9627 00d3 00       		.uleb128 .LVU1241
 9628 00d4 00       		.uleb128 .LVU1246
 9629              	.LLST125:
 9630 00d5 08       		.byte	0x8
 9631 00d6 04000000 		.long	.LVL144
 9632 00da 05       		.uleb128 .LVL145-.LVL144
 9633 00db 02       		.uleb128 0x2
 9634 00dc 91       		.byte	0x91
 9635 00dd 00       		.sleb128 0
 9636 00de 00       		.byte	0
 9637              	.LVUS122:
 9638 00df 03       		.uleb128 .LVU1210
 9639 00e0 00       		.uleb128 .LVU1222
 9640              	.LLST122:
 9641 00e1 08       		.byte	0x8
 9642 00e2 22000000 		.long	.LVL139
 9643 00e6 1A       		.uleb128 .LVL142-.LVL139
 9644 00e7 02       		.uleb128 0x2
 9645 00e8 91       		.byte	0x91
 9646 00e9 04       		.sleb128 4
 9647 00ea 00       		.byte	0
 9648              	.LVUS123:
 9649 00eb 03       		.uleb128 .LVU1210
 9650 00ec 00       		.uleb128 .LVU1221
 9651 00ed 00       		.uleb128 .LVU1221
 9652 00ee 00       		.uleb128 .LVU1222
GAS LISTING /tmp/cctFPqVW.s 			page 174


 9653              	.LLST123:
 9654 00ef 06       		.byte	0x6
 9655 00f0 22000000 		.long	.LVL139
 9656 00f4 04       		.byte	0x4
 9657 00f5 00       		.uleb128 .LVL139-.LVL139
 9658 00f6 16       		.uleb128 .LVL141-1-.LVL139
 9659 00f7 01       		.uleb128 0x1
 9660 00f8 52       		.byte	0x52
 9661 00f9 04       		.byte	0x4
 9662 00fa 16       		.uleb128 .LVL141-1-.LVL139
 9663 00fb 1A       		.uleb128 .LVL142-.LVL139
 9664 00fc 02       		.uleb128 0x2
 9665 00fd 91       		.byte	0x91
 9666 00fe 00       		.sleb128 0
 9667 00ff 00       		.byte	0
 9668              	.LVUS124:
 9669 0100 01       		.uleb128 .LVU1214
 9670 0101 00       		.uleb128 .LVU1221
 9671              	.LLST124:
 9672 0102 08       		.byte	0x8
 9673 0103 26000000 		.long	.LVL140
 9674 0107 12       		.uleb128 .LVL141-1-.LVL140
 9675 0108 01       		.uleb128 0x1
 9676 0109 50       		.byte	0x50
 9677 010a 00       		.byte	0
 9678              	.LVUS118:
 9679 010b 01       		.uleb128 .LVU1166
 9680 010c 00       		.uleb128 .LVU1177
 9681              	.LLST118:
 9682 010d 08       		.byte	0x8
 9683 010e 19000000 		.long	.LVL133
 9684 0112 15       		.uleb128 .LVL134-1-.LVL133
 9685 0113 01       		.uleb128 0x1
 9686 0114 50       		.byte	0x50
 9687 0115 00       		.byte	0
 9688              	.LVUS116:
 9689 0116 00       		.uleb128 .LVU1143
 9690 0117 00       		.uleb128 .LVU1156
 9691 0118 00       		.uleb128 .LVU1158
 9692 0119 00       		.uleb128 0
 9693              	.LLST116:
 9694 011a 06       		.byte	0x6
 9695 011b 20000000 		.long	.LVL129
 9696 011f 04       		.byte	0x4
 9697 0120 00       		.uleb128 .LVL129-.LVL129
 9698 0121 13       		.uleb128 .LVL130-1-.LVL129
 9699 0122 01       		.uleb128 0x1
 9700 0123 52       		.byte	0x52
 9701 0124 04       		.byte	0x4
 9702 0125 1C       		.uleb128 .LVL131-.LVL129
 9703 0126 27       		.uleb128 .LFE239-.LVL129
 9704 0127 01       		.uleb128 0x1
 9705 0128 52       		.byte	0x52
 9706 0129 00       		.byte	0
 9707              	.LVUS114:
 9708 012a 00       		.uleb128 .LVU1122
 9709 012b 00       		.uleb128 .LVU1131
GAS LISTING /tmp/cctFPqVW.s 			page 175


 9710              	.LLST114:
 9711 012c 08       		.byte	0x8
 9712 012d 1D000000 		.long	.LVL126
 9713 0131 0B       		.uleb128 .LVL127-1-.LVL126
 9714 0132 01       		.uleb128 0x1
 9715 0133 50       		.byte	0x50
 9716 0134 00       		.byte	0
 9717              	.LVUS99:
 9718 0135 00       		.uleb128 0
 9719 0136 00       		.uleb128 .LVU1061
 9720 0137 00       		.uleb128 .LVU1061
 9721 0138 00       		.uleb128 .LVU1091
 9722 0139 00       		.uleb128 .LVU1091
 9723 013a 00       		.uleb128 0
 9724              	.LLST99:
 9725 013b 06       		.byte	0x6
 9726 013c 00000000 		.long	.LVL117
 9727 0140 04       		.byte	0x4
 9728 0141 00       		.uleb128 .LVL117-.LVL117
 9729 0142 43       		.uleb128 .LVL120-.LVL117
 9730 0143 02       		.uleb128 0x2
 9731 0144 91       		.byte	0x91
 9732 0145 04       		.sleb128 4
 9733 0146 04       		.byte	0x4
 9734 0147 43       		.uleb128 .LVL120-.LVL117
 9735 0148 64       		.uleb128 .LVL123-.LVL117
 9736 0149 01       		.uleb128 0x1
 9737 014a 56       		.byte	0x56
 9738 014b 04       		.byte	0x4
 9739 014c 64       		.uleb128 .LVL123-.LVL117
 9740 014d 66       		.uleb128 .LFE236-.LVL117
 9741 014e 02       		.uleb128 0x2
 9742 014f 91       		.byte	0x91
 9743 0150 04       		.sleb128 4
 9744 0151 00       		.byte	0
 9745              	.LVUS100:
 9746 0152 05       		.uleb128 .LVU1040
 9747 0153 00       		.uleb128 .LVU1057
 9748 0154 00       		.uleb128 .LVU1061
 9749 0155 00       		.uleb128 .LVU1075
 9750              	.LLST100:
 9751 0156 06       		.byte	0x6
 9752 0157 2D000000 		.long	.LVL118
 9753 015b 04       		.byte	0x4
 9754 015c 00       		.uleb128 .LVL118-.LVL118
 9755 015d 0C       		.uleb128 .LVL119-.LVL118
 9756 015e 01       		.uleb128 0x1
 9757 015f 50       		.byte	0x50
 9758 0160 04       		.byte	0x4
 9759 0161 16       		.uleb128 .LVL120-.LVL118
 9760 0162 29       		.uleb128 .LVL122-1-.LVL118
 9761 0163 01       		.uleb128 0x1
 9762 0164 50       		.byte	0x50
 9763 0165 00       		.byte	0
 9764              	.LVUS103:
 9765 0166 07       		.uleb128 .LVU1042
 9766 0167 09       		.uleb128 .LVU1044
GAS LISTING /tmp/cctFPqVW.s 			page 176


 9767              	.LLST103:
 9768 0168 08       		.byte	0x8
 9769 0169 2D000000 		.long	.LVL118
 9770 016d 00       		.uleb128 .LVL118-.LVL118
 9771 016e 02       		.uleb128 0x2
 9772 016f 91       		.byte	0x91
 9773 0170 04       		.sleb128 4
 9774 0171 00       		.byte	0
 9775              	.LVUS104:
 9776 0172 07       		.uleb128 .LVU1042
 9777 0173 09       		.uleb128 .LVU1044
 9778              	.LLST104:
 9779 0174 08       		.byte	0x8
 9780 0175 2D000000 		.long	.LVL118
 9781 0179 00       		.uleb128 .LVL118-.LVL118
 9782 017a 02       		.uleb128 0x2
 9783 017b 91       		.byte	0x91
 9784 017c 00       		.sleb128 0
 9785 017d 00       		.byte	0
 9786              	.LVUS105:
 9787 017e 07       		.uleb128 .LVU1042
 9788 017f 09       		.uleb128 .LVU1044
 9789              	.LLST105:
 9790 0180 08       		.byte	0x8
 9791 0181 2D000000 		.long	.LVL118
 9792 0185 00       		.uleb128 .LVL118-.LVL118
 9793 0186 01       		.uleb128 0x1
 9794 0187 50       		.byte	0x50
 9795 0188 00       		.byte	0
 9796              	.LVUS109:
 9797 0189 01       		.uleb128 .LVU1062
 9798 018a 03       		.uleb128 .LVU1064
 9799              	.LLST109:
 9800 018b 08       		.byte	0x8
 9801 018c 43000000 		.long	.LVL120
 9802 0190 00       		.uleb128 .LVL120-.LVL120
 9803 0191 01       		.uleb128 0x1
 9804 0192 56       		.byte	0x56
 9805 0193 00       		.byte	0
 9806              	.LVUS110:
 9807 0194 01       		.uleb128 .LVU1062
 9808 0195 03       		.uleb128 .LVU1064
 9809              	.LLST110:
 9810 0196 08       		.byte	0x8
 9811 0197 43000000 		.long	.LVL120
 9812 019b 00       		.uleb128 .LVL120-.LVL120
 9813 019c 01       		.uleb128 0x1
 9814 019d 50       		.byte	0x50
 9815 019e 00       		.byte	0
 9816              	.LVUS112:
 9817 019f 03       		.uleb128 .LVU1064
 9818 01a0 00       		.uleb128 .LVU1073
 9819 01a1 00       		.uleb128 .LVU1073
 9820 01a2 00       		.uleb128 .LVU1075
 9821              	.LLST112:
 9822 01a3 06       		.byte	0x6
 9823 01a4 43000000 		.long	.LVL120
GAS LISTING /tmp/cctFPqVW.s 			page 177


 9824 01a8 04       		.byte	0x4
 9825 01a9 00       		.uleb128 .LVL120-.LVL120
 9826 01aa 0C       		.uleb128 .LVL121-.LVL120
 9827 01ab 06       		.uleb128 0x6
 9828 01ac 76       		.byte	0x76
 9829 01ad 00       		.sleb128 0
 9830 01ae 70       		.byte	0x70
 9831 01af 00       		.sleb128 0
 9832 01b0 1C       		.byte	0x1c
 9833 01b1 9F       		.byte	0x9f
 9834 01b2 04       		.byte	0x4
 9835 01b3 0C       		.uleb128 .LVL121-.LVL120
 9836 01b4 13       		.uleb128 .LVL122-1-.LVL120
 9837 01b5 01       		.uleb128 0x1
 9838 01b6 52       		.byte	0x52
 9839 01b7 00       		.byte	0
 9840              	.LVUS92:
 9841 01b8 08       		.uleb128 .LVU984
 9842 01b9 00       		.uleb128 .LVU987
 9843 01ba 00       		.uleb128 .LVU987
 9844 01bb 00       		.uleb128 .LVU1007
 9845              	.LLST92:
 9846 01bc 06       		.byte	0x6
 9847 01bd 29000000 		.long	.LVL113
 9848 01c1 04       		.byte	0x4
 9849 01c2 00       		.uleb128 .LVL113-.LVL113
 9850 01c3 02       		.uleb128 .LVL114-.LVL113
 9851 01c4 06       		.uleb128 0x6
 9852 01c5 70       		.byte	0x70
 9853 01c6 00       		.sleb128 0
 9854 01c7 72       		.byte	0x72
 9855 01c8 00       		.sleb128 0
 9856 01c9 1C       		.byte	0x1c
 9857 01ca 9F       		.byte	0x9f
 9858 01cb 04       		.byte	0x4
 9859 01cc 02       		.uleb128 .LVL114-.LVL113
 9860 01cd 21       		.uleb128 .LVL116-1-.LVL113
 9861 01ce 01       		.uleb128 0x1
 9862 01cf 50       		.byte	0x50
 9863 01d0 00       		.byte	0
 9864              	.LVUS95:
 9865 01d1 05       		.uleb128 .LVU981
 9866 01d2 08       		.uleb128 .LVU984
 9867              	.LLST95:
 9868 01d3 08       		.byte	0x8
 9869 01d4 29000000 		.long	.LVL113
 9870 01d8 00       		.uleb128 .LVL113-.LVL113
 9871 01d9 01       		.uleb128 0x1
 9872 01da 50       		.byte	0x50
 9873 01db 00       		.byte	0
 9874              	.LVUS96:
 9875 01dc 05       		.uleb128 .LVU981
 9876 01dd 08       		.uleb128 .LVU984
 9877              	.LLST96:
 9878 01de 08       		.byte	0x8
 9879 01df 29000000 		.long	.LVL113
 9880 01e3 00       		.uleb128 .LVL113-.LVL113
GAS LISTING /tmp/cctFPqVW.s 			page 178


 9881 01e4 01       		.uleb128 0x1
 9882 01e5 52       		.byte	0x52
 9883 01e6 00       		.byte	0
 9884              	.LVUS98:
 9885 01e7 01       		.uleb128 .LVU1001
 9886 01e8 00       		.uleb128 .LVU1007
 9887              	.LLST98:
 9888 01e9 08       		.byte	0x8
 9889 01ea 40000000 		.long	.LVL115
 9890 01ee 0A       		.uleb128 .LVL116-1-.LVL115
 9891 01ef 01       		.uleb128 0x1
 9892 01f0 50       		.byte	0x50
 9893 01f1 00       		.byte	0
 9894              	.LVUS84:
 9895 01f2 00       		.uleb128 0
 9896 01f3 00       		.uleb128 .LVU898
 9897 01f4 00       		.uleb128 .LVU898
 9898 01f5 00       		.uleb128 .LVU901
 9899 01f6 00       		.uleb128 .LVU901
 9900 01f7 00       		.uleb128 0
 9901              	.LLST84:
 9902 01f8 06       		.byte	0x6
 9903 01f9 00000000 		.long	.LVL103
 9904 01fd 04       		.byte	0x4
 9905 01fe 00       		.uleb128 .LVL103-.LVL103
 9906 01ff 38       		.uleb128 .LVL106-.LVL103
 9907 0200 02       		.uleb128 0x2
 9908 0201 91       		.byte	0x91
 9909 0202 00       		.sleb128 0
 9910 0203 04       		.byte	0x4
 9911 0204 38       		.uleb128 .LVL106-.LVL103
 9912 0205 3F       		.uleb128 .LVL107-1-.LVL103
 9913 0206 01       		.uleb128 0x1
 9914 0207 52       		.byte	0x52
 9915 0208 04       		.byte	0x4
 9916 0209 3F       		.uleb128 .LVL107-1-.LVL103
 9917 020a 4C       		.uleb128 .LFE232-.LVL103
 9918 020b 02       		.uleb128 0x2
 9919 020c 91       		.byte	0x91
 9920 020d 00       		.sleb128 0
 9921 020e 00       		.byte	0
 9922              	.LVUS85:
 9923 020f 00       		.uleb128 .LVU878
 9924 0210 00       		.uleb128 .LVU901
 9925              	.LLST85:
 9926 0211 08       		.byte	0x8
 9927 0212 21000000 		.long	.LVL104
 9928 0216 1E       		.uleb128 .LVL107-1-.LVL104
 9929 0217 01       		.uleb128 0x1
 9930 0218 50       		.byte	0x50
 9931 0219 00       		.byte	0
 9932              	.LVUS86:
 9933 021a 00       		.uleb128 .LVU894
 9934 021b 00       		.uleb128 .LVU915
 9935 021c 00       		.uleb128 .LVU915
 9936 021d 00       		.uleb128 0
 9937              	.LLST86:
GAS LISTING /tmp/cctFPqVW.s 			page 179


 9938 021e 06       		.byte	0x6
 9939 021f 2D000000 		.long	.LVL105
 9940 0223 04       		.byte	0x4
 9941 0224 00       		.uleb128 .LVL105-.LVL105
 9942 0225 1E       		.uleb128 .LVL108-.LVL105
 9943 0226 01       		.uleb128 0x1
 9944 0227 57       		.byte	0x57
 9945 0228 04       		.byte	0x4
 9946 0229 1E       		.uleb128 .LVL108-.LVL105
 9947 022a 1F       		.uleb128 .LFE232-.LVL105
 9948 022b 01       		.uleb128 0x1
 9949 022c 50       		.byte	0x50
 9950 022d 00       		.byte	0
 9951              	.LVUS70:
 9952 022e 00       		.uleb128 .LVU777
 9953 022f 00       		.uleb128 .LVU808
 9954              	.LLST70:
 9955 0230 08       		.byte	0x8
 9956 0231 25000000 		.long	.LVL92
 9957 0235 19       		.uleb128 .LVL95-1-.LVL92
 9958 0236 01       		.uleb128 0x1
 9959 0237 50       		.byte	0x50
 9960 0238 00       		.byte	0
 9961              	.LVUS71:
 9962 0239 00       		.uleb128 .LVU814
 9963 023a 00       		.uleb128 .LVU836
 9964 023b 00       		.uleb128 .LVU836
 9965 023c 00       		.uleb128 .LVU837
 9966 023d 00       		.uleb128 .LVU837
 9967 023e 00       		.uleb128 .LVU868
 9968 023f 00       		.uleb128 .LVU868
 9969 0240 00       		.uleb128 0
 9970              	.LLST71:
 9971 0241 06       		.byte	0x6
 9972 0242 52000000 		.long	.LVL96
 9973 0246 04       		.byte	0x4
 9974 0247 00       		.uleb128 .LVL96-.LVL96
 9975 0248 0D       		.uleb128 .LVL97-.LVL96
 9976 0249 01       		.uleb128 0x1
 9977 024a 53       		.byte	0x53
 9978 024b 04       		.byte	0x4
 9979 024c 0D       		.uleb128 .LVL97-.LVL96
 9980 024d 10       		.uleb128 .LVL98-.LVL96
 9981 024e 05       		.uleb128 0x5
 9982 024f 91       		.byte	0x91
 9983 0250 00       		.sleb128 0
 9984 0251 06       		.byte	0x6
 9985 0252 23       		.byte	0x23
 9986 0253 34       		.uleb128 0x34
 9987 0254 04       		.byte	0x4
 9988 0255 10       		.uleb128 .LVL98-.LVL96
 9989 0256 3A       		.uleb128 .LVL102-.LVL96
 9990 0257 01       		.uleb128 0x1
 9991 0258 53       		.byte	0x53
 9992 0259 04       		.byte	0x4
 9993 025a 3A       		.uleb128 .LVL102-.LVL96
 9994 025b 3D       		.uleb128 .LFE231-.LVL96
GAS LISTING /tmp/cctFPqVW.s 			page 180


 9995 025c 01       		.uleb128 0x1
 9996 025d 50       		.byte	0x50
 9997 025e 00       		.byte	0
 9998              	.LVUS75:
 9999 025f 01       		.uleb128 .LVU799
 10000 0260 00       		.uleb128 .LVU806
 10001              	.LLST75:
 10002 0261 08       		.byte	0x8
 10003 0262 2D000000 		.long	.LVL93
 10004 0266 0B       		.uleb128 .LVL94-.LVL93
 10005 0267 01       		.uleb128 0x1
 10006 0268 50       		.byte	0x50
 10007 0269 00       		.byte	0
 10008              	.LVUS76:
 10009 026a 01       		.uleb128 .LVU799
 10010 026b 00       		.uleb128 .LVU806
 10011              	.LLST76:
 10012 026c 08       		.byte	0x8
 10013 026d 2D000000 		.long	.LVL93
 10014 0271 0B       		.uleb128 .LVL94-.LVL93
 10015 0272 06       		.uleb128 0x6
 10016 0273 91       		.byte	0x91
 10017 0274 00       		.sleb128 0
 10018 0275 06       		.byte	0x6
 10019 0276 23       		.byte	0x23
 10020 0277 38       		.uleb128 0x38
 10021 0278 9F       		.byte	0x9f
 10022 0279 00       		.byte	0
 10023              	.LVUS78:
 10024 027a 0B       		.uleb128 .LVU825
 10025 027b 00       		.uleb128 .LVU837
 10026 027c 00       		.uleb128 .LVU837
 10027 027d 00       		.uleb128 .LVU865
 10028              	.LLST78:
 10029 027e 06       		.byte	0x6
 10030 027f 52000000 		.long	.LVL96
 10031 0283 04       		.byte	0x4
 10032 0284 00       		.uleb128 .LVL96-.LVL96
 10033 0285 10       		.uleb128 .LVL98-.LVL96
 10034 0286 02       		.uleb128 0x2
 10035 0287 91       		.byte	0x91
 10036 0288 00       		.sleb128 0
 10037 0289 04       		.byte	0x4
 10038 028a 10       		.uleb128 .LVL98-.LVL96
 10039 028b 39       		.uleb128 .LVL101-.LVL96
 10040 028c 01       		.uleb128 0x1
 10041 028d 56       		.byte	0x56
 10042 028e 00       		.byte	0
 10043              	.LVUS80:
 10044 028f 00       		.uleb128 .LVU837
 10045 0290 00       		.uleb128 .LVU865
 10046              	.LLST80:
 10047 0291 08       		.byte	0x8
 10048 0292 62000000 		.long	.LVL98
 10049 0296 29       		.uleb128 .LVL101-.LVL98
 10050 0297 01       		.uleb128 0x1
 10051 0298 56       		.byte	0x56
GAS LISTING /tmp/cctFPqVW.s 			page 181


 10052 0299 00       		.byte	0
 10053              	.LVUS81:
 10054 029a 02       		.uleb128 .LVU839
 10055 029b 01       		.uleb128 .LVU847
 10056              	.LLST81:
 10057 029c 08       		.byte	0x8
 10058 029d 62000000 		.long	.LVL98
 10059 02a1 11       		.uleb128 .LVL99-.LVL98
 10060 02a2 03       		.uleb128 0x3
 10061 02a3 76       		.byte	0x76
 10062 02a4 24       		.sleb128 36
 10063 02a5 9F       		.byte	0x9f
 10064 02a6 00       		.byte	0
 10065              	.LVUS62:
 10066 02a7 00       		.uleb128 .LVU707
 10067 02a8 00       		.uleb128 .LVU745
 10068 02a9 00       		.uleb128 .LVU745
 10069 02aa 00       		.uleb128 .LVU746
 10070 02ab 00       		.uleb128 .LVU747
 10071 02ac 00       		.uleb128 0
 10072              	.LLST62:
 10073 02ad 06       		.byte	0x6
 10074 02ae 17000000 		.long	.LVL79
 10075 02b2 04       		.byte	0x4
 10076 02b3 00       		.uleb128 .LVL79-.LVL79
 10077 02b4 4D       		.uleb128 .LVL86-.LVL79
 10078 02b5 01       		.uleb128 0x1
 10079 02b6 56       		.byte	0x56
 10080 02b7 04       		.byte	0x4
 10081 02b8 4D       		.uleb128 .LVL86-.LVL79
 10082 02b9 4E       		.uleb128 .LVL87-.LVL79
 10083 02ba 03       		.uleb128 0x3
 10084 02bb 77       		.byte	0x77
 10085 02bc 48       		.sleb128 -56
 10086 02bd 9F       		.byte	0x9f
 10087 02be 04       		.byte	0x4
 10088 02bf 4F       		.uleb128 .LVL88-.LVL79
 10089 02c0 66       		.uleb128 .LFE230-.LVL79
 10090 02c1 01       		.uleb128 0x1
 10091 02c2 56       		.byte	0x56
 10092 02c3 00       		.byte	0
 10093              	.LVUS65:
 10094 02c4 00       		.uleb128 .LVU716
 10095 02c5 02       		.uleb128 .LVU718
 10096 02c6 01       		.uleb128 .LVU731
 10097 02c7 00       		.uleb128 .LVU734
 10098              	.LLST65:
 10099 02c8 06       		.byte	0x6
 10100 02c9 24000000 		.long	.LVL80
 10101 02cd 04       		.byte	0x4
 10102 02ce 00       		.uleb128 .LVL80-.LVL80
 10103 02cf 00       		.uleb128 .LVL80-.LVL80
 10104 02d0 01       		.uleb128 0x1
 10105 02d1 57       		.byte	0x57
 10106 02d2 04       		.byte	0x4
 10107 02d3 1A       		.uleb128 .LVL83-.LVL80
 10108 02d4 1D       		.uleb128 .LVL84-.LVL80
GAS LISTING /tmp/cctFPqVW.s 			page 182


 10109 02d5 01       		.uleb128 0x1
 10110 02d6 57       		.byte	0x57
 10111 02d7 00       		.byte	0
 10112              	.LVUS67:
 10113 02d8 01       		.uleb128 .LVU721
 10114 02d9 01       		.uleb128 .LVU728
 10115              	.LLST67:
 10116 02da 08       		.byte	0x8
 10117 02db 30000000 		.long	.LVL81
 10118 02df 08       		.uleb128 .LVL82-.LVL81
 10119 02e0 01       		.uleb128 0x1
 10120 02e1 57       		.byte	0x57
 10121 02e2 00       		.byte	0
 10122              	.LVUS68:
 10123 02e3 03       		.uleb128 .LVU723
 10124 02e4 01       		.uleb128 .LVU728
 10125              	.LLST68:
 10126 02e5 08       		.byte	0x8
 10127 02e6 30000000 		.long	.LVL81
 10128 02ea 08       		.uleb128 .LVL82-.LVL81
 10129 02eb 01       		.uleb128 0x1
 10130 02ec 50       		.byte	0x50
 10131 02ed 00       		.byte	0
 10132              	.LVUS69:
 10133 02ee 01       		.uleb128 .LVU748
 10134 02ef 00       		.uleb128 0
 10135              	.LLST69:
 10136 02f0 08       		.byte	0x8
 10137 02f1 66000000 		.long	.LVL88
 10138 02f5 17       		.uleb128 .LFE230-.LVL88
 10139 02f6 03       		.uleb128 0x3
 10140 02f7 76       		.byte	0x76
 10141 02f8 24       		.sleb128 36
 10142 02f9 9F       		.byte	0x9f
 10143 02fa 00       		.byte	0
 10144              	.LVUS39:
 10145 02fb 09       		.uleb128 .LVU525
 10146 02fc 00       		.uleb128 .LVU595
 10147 02fd 00       		.uleb128 .LVU595
 10148 02fe 00       		.uleb128 0
 10149              	.LLST39:
 10150 02ff 06       		.byte	0x6
 10151 0300 88000000 		.long	.LVL60
 10152 0304 04       		.byte	0x4
 10153 0305 00       		.uleb128 .LVL60-.LVL60
 10154 0306 74       		.uleb128 .LVL70-.LVL60
 10155 0307 01       		.uleb128 0x1
 10156 0308 56       		.byte	0x56
 10157 0309 04       		.byte	0x4
 10158 030a 74       		.uleb128 .LVL70-.LVL60
 10159 030b 77       		.uleb128 .LFE225-.LVL60
 10160 030c 01       		.uleb128 0x1
 10161 030d 50       		.byte	0x50
 10162 030e 00       		.byte	0
 10163              	.LVUS40:
 10164 030f 00       		.uleb128 .LVU460
 10165 0310 00       		.uleb128 .LVU582
GAS LISTING /tmp/cctFPqVW.s 			page 183


 10166 0311 00       		.uleb128 .LVU582
 10167 0312 00       		.uleb128 .LVU595
 10168 0313 00       		.uleb128 .LVU595
 10169 0314 00       		.uleb128 0
 10170              	.LLST40:
 10171 0315 06       		.byte	0x6
 10172 0316 24000000 		.long	.LVL56
 10173 031a 04       		.byte	0x4
 10174 031b 00       		.uleb128 .LVL56-.LVL56
 10175 031c CA01     		.uleb128 .LVL69-1-.LVL56
 10176 031e 01       		.uleb128 0x1
 10177 031f 50       		.byte	0x50
 10178 0320 04       		.byte	0x4
 10179 0321 CA01     		.uleb128 .LVL69-1-.LVL56
 10180 0323 D801     		.uleb128 .LVL70-.LVL56
 10181 0325 04       		.uleb128 0x4
 10182 0326 76       		.byte	0x76
 10183 0327 D000     		.sleb128 80
 10184 0329 9F       		.byte	0x9f
 10185 032a 04       		.byte	0x4
 10186 032b D801     		.uleb128 .LVL70-.LVL56
 10187 032d DB01     		.uleb128 .LFE225-.LVL56
 10188 032f 04       		.uleb128 0x4
 10189 0330 70       		.byte	0x70
 10190 0331 D000     		.sleb128 80
 10191 0333 9F       		.byte	0x9f
 10192 0334 00       		.byte	0
 10193              	.LVUS41:
 10194 0335 01       		.uleb128 .LVU461
 10195 0336 00       		.uleb128 .LVU464
 10196 0337 00       		.uleb128 .LVU464
 10197 0338 00       		.uleb128 0
 10198              	.LLST41:
 10199 0339 06       		.byte	0x6
 10200 033a 24000000 		.long	.LVL56
 10201 033e 04       		.byte	0x4
 10202 033f 00       		.uleb128 .LVL56-.LVL56
 10203 0340 09       		.uleb128 .LVL57-.LVL56
 10204 0341 01       		.uleb128 0x1
 10205 0342 51       		.byte	0x51
 10206 0343 04       		.byte	0x4
 10207 0344 09       		.uleb128 .LVL57-.LVL56
 10208 0345 DB01     		.uleb128 .LFE225-.LVL56
 10209 0347 02       		.uleb128 0x2
 10210 0348 91       		.byte	0x91
 10211 0349 00       		.sleb128 0
 10212 034a 00       		.byte	0
 10213              	.LVUS42:
 10214 034b 00       		.uleb128 .LVU467
 10215 034c 00       		.uleb128 .LVU595
 10216 034d 00       		.uleb128 .LVU595
 10217 034e 00       		.uleb128 0
 10218              	.LLST42:
 10219 034f 06       		.byte	0x6
 10220 0350 33000000 		.long	.LVL58
 10221 0354 04       		.byte	0x4
 10222 0355 00       		.uleb128 .LVL58-.LVL58
GAS LISTING /tmp/cctFPqVW.s 			page 184


 10223 0356 C901     		.uleb128 .LVL70-.LVL58
 10224 0358 01       		.uleb128 0x1
 10225 0359 56       		.byte	0x56
 10226 035a 04       		.byte	0x4
 10227 035b C901     		.uleb128 .LVL70-.LVL58
 10228 035d CC01     		.uleb128 .LFE225-.LVL58
 10229 035f 01       		.uleb128 0x1
 10230 0360 50       		.byte	0x50
 10231 0361 00       		.byte	0
 10232              	.LVUS44:
 10233 0362 0B       		.uleb128 .LVU527
 10234 0363 0D       		.uleb128 .LVU529
 10235 0364 0D       		.uleb128 .LVU529
 10236 0365 03       		.uleb128 .LVU533
 10237              	.LLST44:
 10238 0366 06       		.byte	0x6
 10239 0367 88000000 		.long	.LVL60
 10240 036b 04       		.byte	0x4
 10241 036c 00       		.uleb128 .LVL60-.LVL60
 10242 036d 00       		.uleb128 .LVL60-.LVL60
 10243 036e 01       		.uleb128 0x1
 10244 036f 56       		.byte	0x56
 10245 0370 04       		.byte	0x4
 10246 0371 00       		.uleb128 .LVL60-.LVL60
 10247 0372 07       		.uleb128 .LVL61-.LVL60
 10248 0373 01       		.uleb128 0x1
 10249 0374 57       		.byte	0x57
 10250 0375 00       		.byte	0
 10251              	.LVUS45:
 10252 0376 02       		.uleb128 .LVU532
 10253 0377 00       		.uleb128 .LVU551
 10254 0378 00       		.uleb128 .LVU551
 10255 0379 00       		.uleb128 .LVU565
 10256 037a 00       		.uleb128 .LVU565
 10257 037b 00       		.uleb128 .LVU581
 10258 037c 00       		.uleb128 .LVU581
 10259 037d 00       		.uleb128 .LVU582
 10260 037e 00       		.uleb128 .LVU582
 10261 037f 00       		.uleb128 .LVU595
 10262 0380 00       		.uleb128 .LVU595
 10263 0381 00       		.uleb128 0
 10264              	.LLST45:
 10265 0382 06       		.byte	0x6
 10266 0383 8F000000 		.long	.LVL61
 10267 0387 04       		.byte	0x4
 10268 0388 00       		.uleb128 .LVL61-.LVL61
 10269 0389 26       		.uleb128 .LVL62-.LVL61
 10270 038a 01       		.uleb128 0x1
 10271 038b 57       		.byte	0x57
 10272 038c 04       		.byte	0x4
 10273 038d 26       		.uleb128 .LVL62-.LVL61
 10274 038e 43       		.uleb128 .LVL63-.LVL61
 10275 038f 02       		.uleb128 0x2
 10276 0390 71       		.byte	0x71
 10277 0391 0C       		.sleb128 12
 10278 0392 04       		.byte	0x4
 10279 0393 43       		.uleb128 .LVL63-.LVL61
GAS LISTING /tmp/cctFPqVW.s 			page 185


 10280 0394 5B       		.uleb128 .LVL68-.LVL61
 10281 0395 06       		.uleb128 0x6
 10282 0396 70       		.byte	0x70
 10283 0397 BC7F     		.sleb128 -68
 10284 0399 06       		.byte	0x6
 10285 039a 23       		.byte	0x23
 10286 039b 0C       		.uleb128 0xc
 10287 039c 04       		.byte	0x4
 10288 039d 5B       		.uleb128 .LVL68-.LVL61
 10289 039e 5F       		.uleb128 .LVL69-1-.LVL61
 10290 039f 04       		.uleb128 0x4
 10291 03a0 70       		.byte	0x70
 10292 03a1 AC7F     		.sleb128 -84
 10293 03a3 9F       		.byte	0x9f
 10294 03a4 04       		.byte	0x4
 10295 03a5 5F       		.uleb128 .LVL69-1-.LVL61
 10296 03a6 6D       		.uleb128 .LVL70-.LVL61
 10297 03a7 03       		.uleb128 0x3
 10298 03a8 76       		.byte	0x76
 10299 03a9 7C       		.sleb128 -4
 10300 03aa 9F       		.byte	0x9f
 10301 03ab 04       		.byte	0x4
 10302 03ac 6D       		.uleb128 .LVL70-.LVL61
 10303 03ad 70       		.uleb128 .LFE225-.LVL61
 10304 03ae 03       		.uleb128 0x3
 10305 03af 70       		.byte	0x70
 10306 03b0 7C       		.sleb128 -4
 10307 03b1 9F       		.byte	0x9f
 10308 03b2 00       		.byte	0
 10309              	.LVUS47:
 10310 03b3 05       		.uleb128 .LVU472
 10311 03b4 09       		.uleb128 .LVU525
 10312              	.LLST47:
 10313 03b5 08       		.byte	0x8
 10314 03b6 33000000 		.long	.LVL58
 10315 03ba 55       		.uleb128 .LVL60-.LVL58
 10316 03bb 06       		.uleb128 0x6
 10317 03bc A0       		.byte	0xa0
 10318 03bd FB170000 		.long	.Ldebug_info0+6139
 10319 03c1 00       		.sleb128 0
 10320 03c2 00       		.byte	0
 10321              	.LVUS48:
 10322 03c3 05       		.uleb128 .LVU472
 10323 03c4 09       		.uleb128 .LVU525
 10324              	.LLST48:
 10325 03c5 08       		.byte	0x8
 10326 03c6 33000000 		.long	.LVL58
 10327 03ca 55       		.uleb128 .LVL60-.LVL58
 10328 03cb 01       		.uleb128 0x1
 10329 03cc 56       		.byte	0x56
 10330 03cd 00       		.byte	0
 10331              	.LVUS50:
 10332 03ce 02       		.uleb128 .LVU518
 10333 03cf 05       		.uleb128 .LVU521
 10334              	.LLST50:
 10335 03d0 08       		.byte	0x8
 10336 03d1 88000000 		.long	.LVL60
GAS LISTING /tmp/cctFPqVW.s 			page 186


 10337 03d5 00       		.uleb128 .LVL60-.LVL60
 10338 03d6 01       		.uleb128 0x1
 10339 03d7 52       		.byte	0x52
 10340 03d8 00       		.byte	0
 10341              	.LVUS51:
 10342 03d9 01       		.uleb128 .LVU506
 10343 03da 03       		.uleb128 .LVU508
 10344              	.LLST51:
 10345 03db 08       		.byte	0x8
 10346 03dc 76000000 		.long	.LVL59
 10347 03e0 00       		.uleb128 .LVL59-.LVL59
 10348 03e1 03       		.uleb128 0x3
 10349 03e2 70       		.byte	0x70
 10350 03e3 68       		.sleb128 -24
 10351 03e4 9F       		.byte	0x9f
 10352 03e5 00       		.byte	0
 10353              	.LVUS54:
 10354 03e6 03       		.uleb128 .LVU569
 10355 03e7 00       		.uleb128 .LVU579
 10356              	.LLST54:
 10357 03e8 08       		.byte	0x8
 10358 03e9 D8000000 		.long	.LVL64
 10359 03ed 0F       		.uleb128 .LVL67-.LVL64
 10360 03ee 01       		.uleb128 0x1
 10361 03ef 51       		.byte	0x51
 10362 03f0 00       		.byte	0
 10363              	.LVUS55:
 10364 03f1 03       		.uleb128 .LVU569
 10365 03f2 00       		.uleb128 .LVU574
 10366 03f3 00       		.uleb128 .LVU574
 10367 03f4 00       		.uleb128 .LVU577
 10368 03f5 00       		.uleb128 .LVU577
 10369 03f6 00       		.uleb128 .LVU579
 10370              	.LLST55:
 10371 03f7 06       		.byte	0x6
 10372 03f8 D8000000 		.long	.LVL64
 10373 03fc 04       		.byte	0x4
 10374 03fd 00       		.uleb128 .LVL64-.LVL64
 10375 03fe 06       		.uleb128 .LVL65-.LVL64
 10376 03ff 01       		.uleb128 0x1
 10377 0400 55       		.byte	0x55
 10378 0401 04       		.byte	0x4
 10379 0402 06       		.uleb128 .LVL65-.LVL64
 10380 0403 0C       		.uleb128 .LVL66-.LVL64
 10381 0404 02       		.uleb128 0x2
 10382 0405 71       		.byte	0x71
 10383 0406 00       		.sleb128 0
 10384 0407 04       		.byte	0x4
 10385 0408 0C       		.uleb128 .LVL66-.LVL64
 10386 0409 0F       		.uleb128 .LVL67-.LVL64
 10387 040a 03       		.uleb128 0x3
 10388 040b 72       		.byte	0x72
 10389 040c 28       		.sleb128 40
 10390 040d 9F       		.byte	0x9f
 10391 040e 00       		.byte	0
 10392              	.LVUS36:
 10393 040f 00       		.uleb128 .LVU424
GAS LISTING /tmp/cctFPqVW.s 			page 187


 10394 0410 00       		.uleb128 .LVU425
 10395 0411 00       		.uleb128 .LVU425
 10396 0412 00       		.uleb128 .LVU440
 10397 0413 00       		.uleb128 .LVU440
 10398 0414 00       		.uleb128 0
 10399              	.LLST36:
 10400 0415 06       		.byte	0x6
 10401 0416 2A000000 		.long	.LVL52
 10402 041a 04       		.byte	0x4
 10403 041b 00       		.uleb128 .LVL52-.LVL52
 10404 041c 05       		.uleb128 .LVL53-1-.LVL52
 10405 041d 01       		.uleb128 0x1
 10406 041e 50       		.byte	0x50
 10407 041f 04       		.byte	0x4
 10408 0420 05       		.uleb128 .LVL53-1-.LVL52
 10409 0421 13       		.uleb128 .LVL54-.LVL52
 10410 0422 01       		.uleb128 0x1
 10411 0423 56       		.byte	0x56
 10412 0424 04       		.byte	0x4
 10413 0425 13       		.uleb128 .LVL54-.LVL52
 10414 0426 15       		.uleb128 .LFE224-.LVL52
 10415 0427 01       		.uleb128 0x1
 10416 0428 50       		.byte	0x50
 10417 0429 00       		.byte	0
 10418              	.LVUS35:
 10419 042a 00       		.uleb128 .LVU386
 10420 042b 00       		.uleb128 0
 10421              	.LLST35:
 10422 042c 08       		.byte	0x8
 10423 042d 15000000 		.long	.LVL46
 10424 0431 0F       		.uleb128 .LFE222-.LVL46
 10425 0432 01       		.uleb128 0x1
 10426 0433 50       		.byte	0x50
 10427 0434 00       		.byte	0
 10428              	.LVUS21:
 10429 0435 09       		.uleb128 .LVU330
 10430 0436 00       		.uleb128 .LVU376
 10431              	.LLST21:
 10432 0437 08       		.byte	0x8
 10433 0438 98000000 		.long	.LVL39
 10434 043c 53       		.uleb128 .LVL44-.LVL39
 10435 043d 02       		.uleb128 0x2
 10436 043e 91       		.byte	0x91
 10437 043f 68       		.sleb128 -24
 10438 0440 00       		.byte	0
 10439              	.LVUS22:
 10440 0441 00       		.uleb128 .LVU265
 10441 0442 00       		.uleb128 .LVU286
 10442 0443 00       		.uleb128 .LVU286
 10443 0444 00       		.uleb128 .LVU375
 10444 0445 00       		.uleb128 .LVU375
 10445 0446 00       		.uleb128 .LVU376
 10446 0447 00       		.uleb128 .LVU376
 10447 0448 00       		.uleb128 0
 10448              	.LLST22:
 10449 0449 06       		.byte	0x6
 10450 044a 16000000 		.long	.LVL34
GAS LISTING /tmp/cctFPqVW.s 			page 188


 10451 044e 04       		.byte	0x4
 10452 044f 00       		.uleb128 .LVL34-.LVL34
 10453 0450 17       		.uleb128 .LVL36-.LVL34
 10454 0451 02       		.uleb128 0x2
 10455 0452 73       		.byte	0x73
 10456 0453 04       		.sleb128 4
 10457 0454 04       		.byte	0x4
 10458 0455 17       		.uleb128 .LVL36-.LVL34
 10459 0456 CD01     		.uleb128 .LVL43-.LVL34
 10460 0458 02       		.uleb128 0x2
 10461 0459 70       		.byte	0x70
 10462 045a 44       		.sleb128 -60
 10463 045b 04       		.byte	0x4
 10464 045c CD01     		.uleb128 .LVL43-.LVL34
 10465 045e D501     		.uleb128 .LVL44-.LVL34
 10466 0460 02       		.uleb128 0x2
 10467 0461 72       		.byte	0x72
 10468 0462 70       		.sleb128 -16
 10469 0463 04       		.byte	0x4
 10470 0464 D501     		.uleb128 .LVL44-.LVL34
 10471 0466 E501     		.uleb128 .LFE221-.LVL34
 10472 0468 02       		.uleb128 0x2
 10473 0469 70       		.byte	0x70
 10474 046a 44       		.sleb128 -60
 10475 046b 00       		.byte	0
 10476              	.LVUS23:
 10477 046c 00       		.uleb128 .LVU272
 10478 046d 00       		.uleb128 .LVU288
 10479 046e 00       		.uleb128 .LVU288
 10480 046f 00       		.uleb128 0
 10481              	.LLST23:
 10482 0470 06       		.byte	0x6
 10483 0471 29000000 		.long	.LVL35
 10484 0475 04       		.byte	0x4
 10485 0476 00       		.uleb128 .LVL35-.LVL35
 10486 0477 0B       		.uleb128 .LVL37-.LVL35
 10487 0478 01       		.uleb128 0x1
 10488 0479 51       		.byte	0x51
 10489 047a 04       		.byte	0x4
 10490 047b 0B       		.uleb128 .LVL37-.LVL35
 10491 047c D201     		.uleb128 .LFE221-.LVL35
 10492 047e 02       		.uleb128 0x2
 10493 047f 91       		.byte	0x91
 10494 0480 68       		.sleb128 -24
 10495 0481 00       		.byte	0
 10496              	.LVUS30:
 10497 0482 0B       		.uleb128 .LVU332
 10498 0483 0D       		.uleb128 .LVU334
 10499 0484 0D       		.uleb128 .LVU334
 10500 0485 11       		.uleb128 .LVU338
 10501              	.LLST30:
 10502 0486 08       		.byte	0x8
 10503 0487 98000000 		.long	.LVL39
 10504 048b 00       		.uleb128 .LVL39-.LVL39
 10505 048c 02       		.uleb128 0x2
 10506 048d 91       		.byte	0x91
 10507 048e 68       		.sleb128 -24
GAS LISTING /tmp/cctFPqVW.s 			page 189


 10508 048f 08       		.byte	0x8
 10509 0490 98000000 		.long	.LVL39
 10510 0494 00       		.uleb128 .LVL39-.LVL39
 10511 0495 02       		.uleb128 0x2
 10512 0496 91       		.byte	0x91
 10513 0497 64       		.sleb128 -28
 10514 0498 00       		.byte	0
 10515              	.LVUS31:
 10516 0499 10       		.uleb128 .LVU337
 10517 049a 00       		.uleb128 .LVU376
 10518              	.LLST31:
 10519 049b 08       		.byte	0x8
 10520 049c 98000000 		.long	.LVL39
 10521 04a0 53       		.uleb128 .LVL44-.LVL39
 10522 04a1 02       		.uleb128 0x2
 10523 04a2 91       		.byte	0x91
 10524 04a3 64       		.sleb128 -28
 10525 04a4 00       		.byte	0
 10526              	.LVUS25:
 10527 04a5 04       		.uleb128 .LVU276
 10528 04a6 09       		.uleb128 .LVU330
 10529 04a7 00       		.uleb128 .LVU376
 10530 04a8 00       		.uleb128 0
 10531              	.LLST25:
 10532 04a9 06       		.byte	0x6
 10533 04aa 29000000 		.long	.LVL35
 10534 04ae 04       		.byte	0x4
 10535 04af 00       		.uleb128 .LVL35-.LVL35
 10536 04b0 6F       		.uleb128 .LVL39-.LVL35
 10537 04b1 01       		.uleb128 0x1
 10538 04b2 53       		.byte	0x53
 10539 04b3 04       		.byte	0x4
 10540 04b4 C201     		.uleb128 .LVL44-.LVL35
 10541 04b6 D201     		.uleb128 .LFE221-.LVL35
 10542 04b8 01       		.uleb128 0x1
 10543 04b9 53       		.byte	0x53
 10544 04ba 00       		.byte	0
 10545              	.LVUS26:
 10546 04bb 04       		.uleb128 .LVU276
 10547 04bc 00       		.uleb128 .LVU288
 10548 04bd 00       		.uleb128 .LVU288
 10549 04be 09       		.uleb128 .LVU330
 10550 04bf 00       		.uleb128 .LVU376
 10551 04c0 00       		.uleb128 0
 10552              	.LLST26:
 10553 04c1 06       		.byte	0x6
 10554 04c2 29000000 		.long	.LVL35
 10555 04c6 04       		.byte	0x4
 10556 04c7 00       		.uleb128 .LVL35-.LVL35
 10557 04c8 0B       		.uleb128 .LVL37-.LVL35
 10558 04c9 01       		.uleb128 0x1
 10559 04ca 51       		.byte	0x51
 10560 04cb 04       		.byte	0x4
 10561 04cc 0B       		.uleb128 .LVL37-.LVL35
 10562 04cd 6F       		.uleb128 .LVL39-.LVL35
 10563 04ce 02       		.uleb128 0x2
 10564 04cf 91       		.byte	0x91
GAS LISTING /tmp/cctFPqVW.s 			page 190


 10565 04d0 68       		.sleb128 -24
 10566 04d1 04       		.byte	0x4
 10567 04d2 C201     		.uleb128 .LVL44-.LVL35
 10568 04d4 D201     		.uleb128 .LFE221-.LVL35
 10569 04d6 02       		.uleb128 0x2
 10570 04d7 91       		.byte	0x91
 10571 04d8 68       		.sleb128 -24
 10572 04d9 00       		.byte	0
 10573              	.LVUS28:
 10574 04da 01       		.uleb128 .LVU313
 10575 04db 03       		.uleb128 .LVU315
 10576              	.LLST28:
 10577 04dc 08       		.byte	0x8
 10578 04dd 8A000000 		.long	.LVL38
 10579 04e1 00       		.uleb128 .LVL38-.LVL38
 10580 04e2 03       		.uleb128 0x3
 10581 04e3 70       		.byte	0x70
 10582 04e4 68       		.sleb128 -24
 10583 04e5 9F       		.byte	0x9f
 10584 04e6 00       		.byte	0
 10585              	.LVUS33:
 10586 04e7 02       		.uleb128 .LVU364
 10587 04e8 00       		.uleb128 .LVU372
 10588              	.LLST33:
 10589 04e9 08       		.byte	0x8
 10590 04ea D7000000 		.long	.LVL40
 10591 04ee 08       		.uleb128 .LVL42-.LVL40
 10592 04ef 01       		.uleb128 0x1
 10593 04f0 52       		.byte	0x52
 10594 04f1 00       		.byte	0
 10595              	.LVUS34:
 10596 04f2 02       		.uleb128 .LVU364
 10597 04f3 00       		.uleb128 .LVU370
 10598 04f4 00       		.uleb128 .LVU370
 10599 04f5 00       		.uleb128 .LVU372
 10600              	.LLST34:
 10601 04f6 06       		.byte	0x6
 10602 04f7 D7000000 		.long	.LVL40
 10603 04fb 04       		.byte	0x4
 10604 04fc 00       		.uleb128 .LVL40-.LVL40
 10605 04fd 05       		.uleb128 .LVL41-.LVL40
 10606 04fe 02       		.uleb128 0x2
 10607 04ff 72       		.byte	0x72
 10608 0500 00       		.sleb128 0
 10609 0501 04       		.byte	0x4
 10610 0502 05       		.uleb128 .LVL41-.LVL40
 10611 0503 08       		.uleb128 .LVL42-.LVL40
 10612 0504 03       		.uleb128 0x3
 10613 0505 71       		.byte	0x71
 10614 0506 28       		.sleb128 40
 10615 0507 9F       		.byte	0x9f
 10616 0508 00       		.byte	0
 10617              	.LVUS18:
 10618 0509 00       		.uleb128 0
 10619 050a 00       		.uleb128 .LVU235
 10620 050b 00       		.uleb128 .LVU235
 10621 050c 00       		.uleb128 .LVU236
GAS LISTING /tmp/cctFPqVW.s 			page 191


 10622 050d 00       		.uleb128 .LVU236
 10623 050e 00       		.uleb128 .LVU251
 10624 050f 00       		.uleb128 .LVU251
 10625 0510 00       		.uleb128 0
 10626              	.LLST18:
 10627 0511 06       		.byte	0x6
 10628 0512 00000000 		.long	.LVL28
 10629 0516 04       		.byte	0x4
 10630 0517 00       		.uleb128 .LVL28-.LVL28
 10631 0518 2C       		.uleb128 .LVL30-.LVL28
 10632 0519 02       		.uleb128 0x2
 10633 051a 91       		.byte	0x91
 10634 051b 00       		.sleb128 0
 10635 051c 04       		.byte	0x4
 10636 051d 2C       		.uleb128 .LVL30-.LVL28
 10637 051e 30       		.uleb128 .LVL31-1-.LVL28
 10638 051f 01       		.uleb128 0x1
 10639 0520 50       		.byte	0x50
 10640 0521 04       		.byte	0x4
 10641 0522 30       		.uleb128 .LVL31-1-.LVL28
 10642 0523 3E       		.uleb128 .LVL32-.LVL28
 10643 0524 01       		.uleb128 0x1
 10644 0525 56       		.byte	0x56
 10645 0526 04       		.byte	0x4
 10646 0527 3E       		.uleb128 .LVL32-.LVL28
 10647 0528 40       		.uleb128 .LFE220-.LVL28
 10648 0529 01       		.uleb128 0x1
 10649 052a 50       		.byte	0x50
 10650 052b 00       		.byte	0
 10651              	.LVUS17:
 10652 052c 00       		.uleb128 0
 10653 052d 00       		.uleb128 .LVU197
 10654 052e 00       		.uleb128 .LVU197
 10655 052f 00       		.uleb128 0
 10656              	.LLST17:
 10657 0530 06       		.byte	0x6
 10658 0531 00000000 		.long	.LVL23
 10659 0535 04       		.byte	0x4
 10660 0536 00       		.uleb128 .LVL23-.LVL23
 10661 0537 19       		.uleb128 .LVL24-.LVL23
 10662 0538 02       		.uleb128 0x2
 10663 0539 91       		.byte	0x91
 10664 053a 00       		.sleb128 0
 10665 053b 04       		.byte	0x4
 10666 053c 19       		.uleb128 .LVL24-.LVL23
 10667 053d 29       		.uleb128 .LFE218-.LVL23
 10668 053e 01       		.uleb128 0x1
 10669 053f 50       		.byte	0x50
 10670 0540 00       		.byte	0
 10671              	.LVUS4:
 10672 0541 00       		.uleb128 0
 10673 0542 00       		.uleb128 .LVU187
 10674 0543 00       		.uleb128 .LVU187
 10675 0544 00       		.uleb128 0
 10676              	.LLST4:
 10677 0545 06       		.byte	0x6
 10678 0546 00000000 		.long	.LVL7
GAS LISTING /tmp/cctFPqVW.s 			page 192


 10679 054a 04       		.byte	0x4
 10680 054b 00       		.uleb128 .LVL7-.LVL7
 10681 054c DC01     		.uleb128 .LVL22-.LVL7
 10682 054e 02       		.uleb128 0x2
 10683 054f 91       		.byte	0x91
 10684 0550 00       		.sleb128 0
 10685 0551 04       		.byte	0x4
 10686 0552 DC01     		.uleb128 .LVL22-.LVL7
 10687 0554 EB01     		.uleb128 .LFE217-.LVL7
 10688 0556 01       		.uleb128 0x1
 10689 0557 50       		.byte	0x50
 10690 0558 00       		.byte	0
 10691              	.LVUS5:
 10692 0559 00       		.uleb128 0
 10693 055a 00       		.uleb128 .LVU187
 10694 055b 00       		.uleb128 .LVU187
 10695 055c 00       		.uleb128 0
 10696              	.LLST5:
 10697 055d 06       		.byte	0x6
 10698 055e 00000000 		.long	.LVL7
 10699 0562 04       		.byte	0x4
 10700 0563 00       		.uleb128 .LVL7-.LVL7
 10701 0564 DC01     		.uleb128 .LVL22-.LVL7
 10702 0566 02       		.uleb128 0x2
 10703 0567 91       		.byte	0x91
 10704 0568 04       		.sleb128 4
 10705 0569 04       		.byte	0x4
 10706 056a DC01     		.uleb128 .LVL22-.LVL7
 10707 056c EB01     		.uleb128 .LFE217-.LVL7
 10708 056e 01       		.uleb128 0x1
 10709 056f 51       		.byte	0x51
 10710 0570 00       		.byte	0
 10711              	.LVUS12:
 10712 0571 0D       		.uleb128 .LVU144
 10713 0572 00       		.uleb128 .LVU148
 10714 0573 00       		.uleb128 .LVU148
 10715 0574 02       		.uleb128 .LVU150
 10716 0575 02       		.uleb128 .LVU150
 10717 0576 00       		.uleb128 .LVU151
 10718 0577 00       		.uleb128 .LVU151
 10719 0578 03       		.uleb128 .LVU155
 10720 0579 03       		.uleb128 .LVU155
 10721 057a 03       		.uleb128 .LVU159
 10722 057b 03       		.uleb128 .LVU159
 10723 057c 06       		.uleb128 .LVU162
 10724 057d 06       		.uleb128 .LVU162
 10725 057e 00       		.uleb128 .LVU172
 10726 057f 00       		.uleb128 .LVU172
 10727 0580 00       		.uleb128 .LVU187
 10728              	.LLST12:
 10729 0581 06       		.byte	0x6
 10730 0582 7D000000 		.long	.LVL10
 10731 0586 04       		.byte	0x4
 10732 0587 00       		.uleb128 .LVL10-.LVL10
 10733 0588 0D       		.uleb128 .LVL12-.LVL10
 10734 0589 01       		.uleb128 0x1
 10735 058a 56       		.byte	0x56
GAS LISTING /tmp/cctFPqVW.s 			page 193


 10736 058b 04       		.byte	0x4
 10737 058c 0D       		.uleb128 .LVL12-.LVL10
 10738 058d 0D       		.uleb128 .LVL12-.LVL10
 10739 058e 03       		.uleb128 0x3
 10740 058f 72       		.byte	0x72
 10741 0590 08       		.sleb128 8
 10742 0591 9F       		.byte	0x9f
 10743 0592 04       		.byte	0x4
 10744 0593 0D       		.uleb128 .LVL12-.LVL10
 10745 0594 10       		.uleb128 .LVL13-.LVL10
 10746 0595 03       		.uleb128 0x3
 10747 0596 72       		.byte	0x72
 10748 0597 04       		.sleb128 4
 10749 0598 9F       		.byte	0x9f
 10750 0599 04       		.byte	0x4
 10751 059a 10       		.uleb128 .LVL13-.LVL10
 10752 059b 13       		.uleb128 .LVL14-.LVL10
 10753 059c 03       		.uleb128 0x3
 10754 059d 72       		.byte	0x72
 10755 059e 1C       		.sleb128 28
 10756 059f 9F       		.byte	0x9f
 10757 05a0 04       		.byte	0x4
 10758 05a1 13       		.uleb128 .LVL14-.LVL10
 10759 05a2 20       		.uleb128 .LVL15-.LVL10
 10760 05a3 03       		.uleb128 0x3
 10761 05a4 72       		.byte	0x72
 10762 05a5 18       		.sleb128 24
 10763 05a6 9F       		.byte	0x9f
 10764 05a7 04       		.byte	0x4
 10765 05a8 20       		.uleb128 .LVL15-.LVL10
 10766 05a9 20       		.uleb128 .LVL15-.LVL10
 10767 05aa 03       		.uleb128 0x3
 10768 05ab 72       		.byte	0x72
 10769 05ac 14       		.sleb128 20
 10770 05ad 9F       		.byte	0x9f
 10771 05ae 04       		.byte	0x4
 10772 05af 20       		.uleb128 .LVL15-.LVL10
 10773 05b0 49       		.uleb128 .LVL16-.LVL10
 10774 05b1 01       		.uleb128 0x1
 10775 05b2 52       		.byte	0x52
 10776 05b3 04       		.byte	0x4
 10777 05b4 49       		.uleb128 .LVL16-.LVL10
 10778 05b5 5F       		.uleb128 .LVL22-.LVL10
 10779 05b6 05       		.uleb128 0x5
 10780 05b7 91       		.byte	0x91
 10781 05b8 00       		.sleb128 0
 10782 05b9 06       		.byte	0x6
 10783 05ba 23       		.byte	0x23
 10784 05bb 0C       		.uleb128 0xc
 10785 05bc 00       		.byte	0
 10786              	.LVUS13:
 10787 05bd 02       		.uleb128 .LVU147
 10788 05be 00       		.uleb128 .LVU186
 10789 05bf 00       		.uleb128 .LVU186
 10790 05c0 00       		.uleb128 .LVU187
 10791              	.LLST13:
 10792 05c1 06       		.byte	0x6
GAS LISTING /tmp/cctFPqVW.s 			page 194


 10793 05c2 84000000 		.long	.LVL11
 10794 05c6 04       		.byte	0x4
 10795 05c7 00       		.uleb128 .LVL11-.LVL11
 10796 05c8 55       		.uleb128 .LVL21-.LVL11
 10797 05c9 01       		.uleb128 0x1
 10798 05ca 56       		.byte	0x56
 10799 05cb 04       		.byte	0x4
 10800 05cc 55       		.uleb128 .LVL21-.LVL11
 10801 05cd 58       		.uleb128 .LVL22-.LVL11
 10802 05ce 08       		.uleb128 0x8
 10803 05cf 91       		.byte	0x91
 10804 05d0 00       		.sleb128 0
 10805 05d1 06       		.byte	0x6
 10806 05d2 23       		.byte	0x23
 10807 05d3 0C       		.uleb128 0xc
 10808 05d4 06       		.byte	0x6
 10809 05d5 23       		.byte	0x23
 10810 05d6 0C       		.uleb128 0xc
 10811 05d7 00       		.byte	0
 10812              	.LVUS7:
 10813 05d8 00       		.uleb128 .LVU86
 10814 05d9 09       		.uleb128 .LVU140
 10815 05da 00       		.uleb128 .LVU187
 10816 05db 00       		.uleb128 0
 10817              	.LLST7:
 10818 05dc 06       		.byte	0x6
 10819 05dd 1C000000 		.long	.LVL8
 10820 05e1 04       		.byte	0x4
 10821 05e2 00       		.uleb128 .LVL8-.LVL8
 10822 05e3 61       		.uleb128 .LVL10-.LVL8
 10823 05e4 02       		.uleb128 0x2
 10824 05e5 91       		.byte	0x91
 10825 05e6 04       		.sleb128 4
 10826 05e7 04       		.byte	0x4
 10827 05e8 C001     		.uleb128 .LVL22-.LVL8
 10828 05ea CF01     		.uleb128 .LFE217-.LVL8
 10829 05ec 01       		.uleb128 0x1
 10830 05ed 51       		.byte	0x51
 10831 05ee 00       		.byte	0
 10832              	.LVUS8:
 10833 05ef 00       		.uleb128 .LVU86
 10834 05f0 09       		.uleb128 .LVU140
 10835 05f1 00       		.uleb128 .LVU187
 10836 05f2 00       		.uleb128 0
 10837              	.LLST8:
 10838 05f3 06       		.byte	0x6
 10839 05f4 1C000000 		.long	.LVL8
 10840 05f8 04       		.byte	0x4
 10841 05f9 00       		.uleb128 .LVL8-.LVL8
 10842 05fa 61       		.uleb128 .LVL10-.LVL8
 10843 05fb 02       		.uleb128 0x2
 10844 05fc 91       		.byte	0x91
 10845 05fd 00       		.sleb128 0
 10846 05fe 04       		.byte	0x4
 10847 05ff C001     		.uleb128 .LVL22-.LVL8
 10848 0601 CF01     		.uleb128 .LFE217-.LVL8
 10849 0603 01       		.uleb128 0x1
GAS LISTING /tmp/cctFPqVW.s 			page 195


 10850 0604 50       		.byte	0x50
 10851 0605 00       		.byte	0
 10852              	.LVUS10:
 10853 0606 01       		.uleb128 .LVU123
 10854 0607 03       		.uleb128 .LVU125
 10855              	.LLST10:
 10856 0608 08       		.byte	0x8
 10857 0609 6F000000 		.long	.LVL9
 10858 060d 00       		.uleb128 .LVL9-.LVL9
 10859 060e 06       		.uleb128 0x6
 10860 060f 91       		.byte	0x91
 10861 0610 00       		.sleb128 0
 10862 0611 06       		.byte	0x6
 10863 0612 23       		.byte	0x23
 10864 0613 38       		.uleb128 0x38
 10865 0614 9F       		.byte	0x9f
 10866 0615 00       		.byte	0
 10867              	.LVUS15:
 10868 0616 00       		.uleb128 .LVU172
 10869 0617 00       		.uleb128 .LVU183
 10870              	.LLST15:
 10871 0618 08       		.byte	0x8
 10872 0619 C6000000 		.long	.LVL16
 10873 061d 11       		.uleb128 .LVL20-.LVL16
 10874 061e 01       		.uleb128 0x1
 10875 061f 51       		.byte	0x51
 10876 0620 00       		.byte	0
 10877              	.LVUS16:
 10878 0621 00       		.uleb128 .LVU172
 10879 0622 00       		.uleb128 .LVU175
 10880 0623 00       		.uleb128 .LVU175
 10881 0624 00       		.uleb128 .LVU178
 10882 0625 00       		.uleb128 .LVU178
 10883 0626 00       		.uleb128 .LVU181
 10884 0627 00       		.uleb128 .LVU181
 10885 0628 00       		.uleb128 .LVU183
 10886              	.LLST16:
 10887 0629 06       		.byte	0x6
 10888 062a C6000000 		.long	.LVL16
 10889 062e 04       		.byte	0x4
 10890 062f 00       		.uleb128 .LVL16-.LVL16
 10891 0630 03       		.uleb128 .LVL17-.LVL16
 10892 0631 03       		.uleb128 0x3
 10893 0632 72       		.byte	0x72
 10894 0633 28       		.sleb128 40
 10895 0634 9F       		.byte	0x9f
 10896 0635 04       		.byte	0x4
 10897 0636 03       		.uleb128 .LVL17-.LVL16
 10898 0637 09       		.uleb128 .LVL18-.LVL16
 10899 0638 01       		.uleb128 0x1
 10900 0639 53       		.byte	0x53
 10901 063a 04       		.byte	0x4
 10902 063b 09       		.uleb128 .LVL18-.LVL16
 10903 063c 0E       		.uleb128 .LVL19-.LVL16
 10904 063d 02       		.uleb128 0x2
 10905 063e 71       		.byte	0x71
 10906 063f 00       		.sleb128 0
GAS LISTING /tmp/cctFPqVW.s 			page 196


 10907 0640 04       		.byte	0x4
 10908 0641 0E       		.uleb128 .LVL19-.LVL16
 10909 0642 11       		.uleb128 .LVL20-.LVL16
 10910 0643 03       		.uleb128 0x3
 10911 0644 72       		.byte	0x72
 10912 0645 28       		.sleb128 40
 10913 0646 9F       		.byte	0x9f
 10914 0647 00       		.byte	0
 10915              	.LVUS0:
 10916 0648 00       		.uleb128 0
 10917 0649 00       		.uleb128 .LVU56
 10918 064a 00       		.uleb128 .LVU56
 10919 064b 00       		.uleb128 0
 10920              	.LLST0:
 10921 064c 06       		.byte	0x6
 10922 064d 00000000 		.long	.LVL0
 10923 0651 04       		.byte	0x4
 10924 0652 00       		.uleb128 .LVL0-.LVL0
 10925 0653 74       		.uleb128 .LVL5-.LVL0
 10926 0654 02       		.uleb128 0x2
 10927 0655 91       		.byte	0x91
 10928 0656 00       		.sleb128 0
 10929 0657 04       		.byte	0x4
 10930 0658 74       		.uleb128 .LVL5-.LVL0
 10931 0659 8001     		.uleb128 .LFE215-.LVL0
 10932 065b 01       		.uleb128 0x1
 10933 065c 50       		.byte	0x50
 10934 065d 00       		.byte	0
 10935              	.LVUS1:
 10936 065e 00       		.uleb128 0
 10937 065f 00       		.uleb128 .LVU56
 10938 0660 00       		.uleb128 .LVU56
 10939 0661 00       		.uleb128 0
 10940              	.LLST1:
 10941 0662 06       		.byte	0x6
 10942 0663 00000000 		.long	.LVL0
 10943 0667 04       		.byte	0x4
 10944 0668 00       		.uleb128 .LVL0-.LVL0
 10945 0669 74       		.uleb128 .LVL5-.LVL0
 10946 066a 02       		.uleb128 0x2
 10947 066b 91       		.byte	0x91
 10948 066c 04       		.sleb128 4
 10949 066d 04       		.byte	0x4
 10950 066e 74       		.uleb128 .LVL5-.LVL0
 10951 066f 8001     		.uleb128 .LFE215-.LVL0
 10952 0671 01       		.uleb128 0x1
 10953 0672 52       		.byte	0x52
 10954 0673 00       		.byte	0
 10955              	.LVUS2:
 10956 0674 01       		.uleb128 .LVU34
 10957 0675 00       		.uleb128 .LVU37
 10958              	.LLST2:
 10959 0676 08       		.byte	0x8
 10960 0677 57000000 		.long	.LVL1
 10961 067b 03       		.uleb128 .LVL2-.LVL1
 10962 067c 01       		.uleb128 0x1
 10963 067d 51       		.byte	0x51
GAS LISTING /tmp/cctFPqVW.s 			page 197


 10964 067e 00       		.byte	0
 10965              	.LVUS3:
 10966 067f 03       		.uleb128 .LVU46
 10967 0680 00       		.uleb128 .LVU51
 10968              	.LLST3:
 10969 0681 08       		.byte	0x8
 10970 0682 6B000000 		.long	.LVL3
 10971 0686 06       		.uleb128 .LVL4-.LVL3
 10972 0687 01       		.uleb128 0x1
 10973 0688 52       		.byte	0x52
 10974 0689 00       		.byte	0
 10975              	.LVUS58:
 10976 068a 00       		.uleb128 0
 10977 068b 00       		.uleb128 .LVU672
 10978 068c 00       		.uleb128 .LVU672
 10979 068d 00       		.uleb128 .LVU700
 10980              	.LLST58:
 10981 068e 06       		.byte	0x6
 10982 068f 00000000 		.long	.LVL74
 10983 0693 04       		.byte	0x4
 10984 0694 00       		.uleb128 .LVL74-.LVL74
 10985 0695 30       		.uleb128 .LVL75-.LVL74
 10986 0696 02       		.uleb128 0x2
 10987 0697 91       		.byte	0x91
 10988 0698 00       		.sleb128 0
 10989 0699 04       		.byte	0x4
 10990 069a 30       		.uleb128 .LVL75-.LVL74
 10991 069b 54       		.uleb128 .LVL77-1-.LVL74
 10992 069c 01       		.uleb128 0x1
 10993 069d 50       		.byte	0x50
 10994 069e 00       		.byte	0
 10995              	.LVUS60:
 10996 069f 00       		.uleb128 .LVU672
 10997 06a0 00       		.uleb128 .LVU700
 10998              	.LLST60:
 10999 06a1 08       		.byte	0x8
 11000 06a2 30000000 		.long	.LVL75
 11001 06a6 24       		.uleb128 .LVL77-1-.LVL75
 11002 06a7 01       		.uleb128 0x1
 11003 06a8 50       		.byte	0x50
 11004 06a9 00       		.byte	0
 11005              	.LVUS61:
 11006 06aa 02       		.uleb128 .LVU674
 11007 06ab 01       		.uleb128 .LVU682
 11008              	.LLST61:
 11009 06ac 08       		.byte	0x8
 11010 06ad 30000000 		.long	.LVL75
 11011 06b1 0B       		.uleb128 .LVL76-.LVL75
 11012 06b2 03       		.uleb128 0x3
 11013 06b3 70       		.byte	0x70
 11014 06b4 24       		.sleb128 36
 11015 06b5 9F       		.byte	0x9f
 11016 06b6 00       		.byte	0
 11017              	.LVUS119:
 11018 06b7 01       		.uleb128 .LVU1187
 11019 06b8 00       		.uleb128 .LVU1194
 11020              	.LLST119:
GAS LISTING /tmp/cctFPqVW.s 			page 198


 11021 06b9 08       		.byte	0x8
 11022 06ba 19000000 		.long	.LVL136
 11023 06be 12       		.uleb128 .LVL137-1-.LVL136
 11024 06bf 01       		.uleb128 0x1
 11025 06c0 50       		.byte	0x50
 11026 06c1 00       		.byte	0
 11027              	.Ldebug_loc3:
 11028              		.section	.debug_aranges,"",@progbits
 11029 0000 14010000 		.long	0x114
 11030 0004 0200     		.value	0x2
 11031 0006 00000000 		.long	.Ldebug_info0
 11032 000a 04       		.byte	0x4
 11033 000b 00       		.byte	0
 11034 000c 0000     		.value	0
 11035 000e 0000     		.value	0
 11036 0010 00000000 		.long	.LFB215
 11037 0014 80000000 		.long	.LFE215-.LFB215
 11038 0018 00000000 		.long	.LFB216
 11039 001c 01000000 		.long	.LFE216-.LFB216
 11040 0020 00000000 		.long	.LFB217
 11041 0024 EB000000 		.long	.LFE217-.LFB217
 11042 0028 00000000 		.long	.LFB218
 11043 002c 29000000 		.long	.LFE218-.LFB218
 11044 0030 00000000 		.long	.LFB219
 11045 0034 2A000000 		.long	.LFE219-.LFB219
 11046 0038 00000000 		.long	.LFB220
 11047 003c 40000000 		.long	.LFE220-.LFB220
 11048 0040 00000000 		.long	.LFB221
 11049 0044 FB000000 		.long	.LFE221-.LFB221
 11050 0048 00000000 		.long	.LFB222
 11051 004c 24000000 		.long	.LFE222-.LFB222
 11052 0050 00000000 		.long	.LFB223
 11053 0054 26000000 		.long	.LFE223-.LFB223
 11054 0058 00000000 		.long	.LFB224
 11055 005c 3F000000 		.long	.LFE224-.LFB224
 11056 0060 00000000 		.long	.LFB225
 11057 0064 FF000000 		.long	.LFE225-.LFB225
 11058 0068 00000000 		.long	.LFB226
 11059 006c 38000000 		.long	.LFE226-.LFB226
 11060 0070 00000000 		.long	.LFB227
 11061 0074 20000000 		.long	.LFE227-.LFB227
 11062 0078 00000000 		.long	.LFB228
 11063 007c 55000000 		.long	.LFE228-.LFB228
 11064 0080 00000000 		.long	.LFB230
 11065 0084 7D000000 		.long	.LFE230-.LFB230
 11066 0088 00000000 		.long	.LFB229
 11067 008c 1B000000 		.long	.LFE229-.LFB229
 11068 0090 00000000 		.long	.LFB231
 11069 0094 8F000000 		.long	.LFE231-.LFB231
 11070 0098 00000000 		.long	.LFB232
 11071 009c 4C000000 		.long	.LFE232-.LFB232
 11072 00a0 00000000 		.long	.LFB233
 11073 00a4 20000000 		.long	.LFE233-.LFB233
 11074 00a8 00000000 		.long	.LFB234
 11075 00ac 33000000 		.long	.LFE234-.LFB234
 11076 00b0 00000000 		.long	.LFB235
 11077 00b4 5A000000 		.long	.LFE235-.LFB235
GAS LISTING /tmp/cctFPqVW.s 			page 199


 11078 00b8 00000000 		.long	.LFB236
 11079 00bc 66000000 		.long	.LFE236-.LFB236
 11080 00c0 00000000 		.long	.LFB237
 11081 00c4 2D000000 		.long	.LFE237-.LFB237
 11082 00c8 00000000 		.long	.LFB238
 11083 00cc 35000000 		.long	.LFE238-.LFB238
 11084 00d0 00000000 		.long	.LFB239
 11085 00d4 47000000 		.long	.LFE239-.LFB239
 11086 00d8 00000000 		.long	.LFB240
 11087 00dc 37000000 		.long	.LFE240-.LFB240
 11088 00e0 00000000 		.long	.LFB241
 11089 00e4 34000000 		.long	.LFE241-.LFB241
 11090 00e8 00000000 		.long	.LFB242
 11091 00ec 48000000 		.long	.LFE242-.LFB242
 11092 00f0 00000000 		.long	.LFB243
 11093 00f4 0A000000 		.long	.LFE243-.LFB243
 11094 00f8 00000000 		.long	.LFB245
 11095 00fc 57000000 		.long	.LFE245-.LFB245
 11096 0100 00000000 		.long	.LFB246
 11097 0104 38000000 		.long	.LFE246-.LFB246
 11098 0108 00000000 		.long	.LFB247
 11099 010c 40000000 		.long	.LFE247-.LFB247
 11100 0110 00000000 		.long	0
 11101 0114 00000000 		.long	0
 11102              		.section	.debug_rnglists,"",@progbits
 11103              	.Ldebug_ranges0:
 11104 0000 CA030000 		.long	.Ldebug_ranges3-.Ldebug_ranges2
 11105              	.Ldebug_ranges2:
 11106 0004 0500     		.value	0x5
 11107 0006 04       		.byte	0x4
 11108 0007 00       		.byte	0
 11109 0008 00000000 		.long	0
 11110              	.LLRL6:
 11111 000c 05       		.byte	0x5
 11112 000d 03000000 		.long	.LBB246
 11113 0011 04       		.byte	0x4
 11114 0012 00       		.uleb128 .LBB246-.LBB246
 11115 0013 05       		.uleb128 .LBE246-.LBB246
 11116 0014 04       		.byte	0x4
 11117 0015 19       		.uleb128 .LBB257-.LBB246
 11118 0016 58       		.uleb128 .LBE257-.LBB246
 11119 0017 04       		.byte	0x4
 11120 0018 5E       		.uleb128 .LBB259-.LBB246
 11121 0019 7A       		.uleb128 .LBE259-.LBB246
 11122 001a 04       		.byte	0x4
 11123 001b DD01     		.uleb128 .LBB266-.LBB246
 11124 001d E801     		.uleb128 .LBE266-.LBB246
 11125 001f 00       		.byte	0
 11126              	.LLRL9:
 11127 0020 05       		.byte	0x5
 11128 0021 55000000 		.long	.LBB248
 11129 0025 04       		.byte	0x4
 11130 0026 00       		.uleb128 .LBB248-.LBB248
 11131 0027 06       		.uleb128 .LBE248-.LBB248
 11132 0028 04       		.byte	0x4
 11133 0029 28       		.uleb128 .LBB253-.LBB248
 11134 002a 28       		.uleb128 .LBE253-.LBB248
GAS LISTING /tmp/cctFPqVW.s 			page 200


 11135 002b 00       		.byte	0
 11136              	.LLRL11:
 11137 002c 05       		.byte	0x5
 11138 002d 5B000000 		.long	.LBB258
 11139 0031 04       		.byte	0x4
 11140 0032 00       		.uleb128 .LBB258-.LBB258
 11141 0033 06       		.uleb128 .LBE258-.LBB258
 11142 0034 04       		.byte	0x4
 11143 0035 22       		.uleb128 .LBB260-.LBB258
 11144 0036 51       		.uleb128 .LBE260-.LBB258
 11145 0037 04       		.byte	0x4
 11146 0038 54       		.uleb128 .LBB261-.LBB258
 11147 0039 68       		.uleb128 .LBE261-.LBB258
 11148 003a 00       		.byte	0
 11149              	.LLRL14:
 11150 003b 05       		.byte	0x5
 11151 003c C6000000 		.long	.LBB262
 11152 0040 04       		.byte	0x4
 11153 0041 00       		.uleb128 .LBB262-.LBB262
 11154 0042 00       		.uleb128 .LBE262-.LBB262
 11155 0043 04       		.byte	0x4
 11156 0044 06       		.uleb128 .LBB265-.LBB262
 11157 0045 11       		.uleb128 .LBE265-.LBB262
 11158 0046 00       		.byte	0
 11159              	.LLRL19:
 11160 0047 05       		.byte	0x5
 11161 0048 00000000 		.long	.LBB271
 11162 004c 04       		.byte	0x4
 11163 004d 00       		.uleb128 .LBB271-.LBB271
 11164 004e 00       		.uleb128 .LBE271-.LBB271
 11165 004f 04       		.byte	0x4
 11166 0050 16       		.uleb128 .LBB276-.LBB271
 11167 0051 22       		.uleb128 .LBE276-.LBB271
 11168 0052 00       		.byte	0
 11169              	.LLRL20:
 11170 0053 05       		.byte	0x5
 11171 0054 31000000 		.long	.LBB277
 11172 0058 04       		.byte	0x4
 11173 0059 00       		.uleb128 .LBB277-.LBB277
 11174 005a 00       		.uleb128 .LBE277-.LBB277
 11175 005b 04       		.byte	0x4
 11176 005c 05       		.uleb128 .LBB284-.LBB277
 11177 005d 0B       		.uleb128 .LBE284-.LBB277
 11178 005e 00       		.byte	0
 11179              	.LLRL24:
 11180 005f 05       		.byte	0x5
 11181 0060 19000000 		.long	.LBB294
 11182 0064 04       		.byte	0x4
 11183 0065 00       		.uleb128 .LBB294-.LBB294
 11184 0066 03       		.uleb128 .LBE294-.LBB294
 11185 0067 04       		.byte	0x4
 11186 0068 06       		.uleb128 .LBB309-.LBB294
 11187 0069 0C       		.uleb128 .LBE309-.LBB294
 11188 006a 04       		.byte	0x4
 11189 006b 10       		.uleb128 .LBB310-.LBB294
 11190 006c 33       		.uleb128 .LBE310-.LBB294
 11191 006d 04       		.byte	0x4
GAS LISTING /tmp/cctFPqVW.s 			page 201


 11192 006e 36       		.uleb128 .LBB312-.LBB294
 11193 006f 3B       		.uleb128 .LBE312-.LBB294
 11194 0070 04       		.byte	0x4
 11195 0071 4E       		.uleb128 .LBB314-.LBB294
 11196 0072 54       		.uleb128 .LBE314-.LBB294
 11197 0073 04       		.byte	0x4
 11198 0074 57       		.uleb128 .LBB316-.LBB294
 11199 0075 5D       		.uleb128 .LBE316-.LBB294
 11200 0076 04       		.byte	0x4
 11201 0077 63       		.uleb128 .LBB317-.LBB294
 11202 0078 7F       		.uleb128 .LBE317-.LBB294
 11203 0079 04       		.byte	0x4
 11204 007a D701     		.uleb128 .LBB325-.LBB294
 11205 007c E201     		.uleb128 .LBE325-.LBB294
 11206 007e 00       		.byte	0
 11207              	.LLRL27:
 11208 007f 05       		.byte	0x5
 11209 0080 70000000 		.long	.LBB296
 11210 0084 04       		.byte	0x4
 11211 0085 00       		.uleb128 .LBB296-.LBB296
 11212 0086 06       		.uleb128 .LBE296-.LBB296
 11213 0087 04       		.byte	0x4
 11214 0088 28       		.uleb128 .LBB301-.LBB296
 11215 0089 28       		.uleb128 .LBE301-.LBB296
 11216 008a 00       		.byte	0
 11217              	.LLRL29:
 11218 008b 05       		.byte	0x5
 11219 008c 4C000000 		.long	.LBB311
 11220 0090 04       		.byte	0x4
 11221 0091 00       		.uleb128 .LBB311-.LBB311
 11222 0092 03       		.uleb128 .LBE311-.LBB311
 11223 0093 04       		.byte	0x4
 11224 0094 08       		.uleb128 .LBB313-.LBB311
 11225 0095 1B       		.uleb128 .LBE313-.LBB311
 11226 0096 04       		.byte	0x4
 11227 0097 21       		.uleb128 .LBB315-.LBB311
 11228 0098 24       		.uleb128 .LBE315-.LBB311
 11229 0099 04       		.byte	0x4
 11230 009a 4C       		.uleb128 .LBB318-.LBB311
 11231 009b 6E       		.uleb128 .LBE318-.LBB311
 11232 009c 04       		.byte	0x4
 11233 009d 71       		.uleb128 .LBB319-.LBB311
 11234 009e 8201     		.uleb128 .LBE319-.LBB311
 11235 00a0 04       		.byte	0x4
 11236 00a1 8801     		.uleb128 .LBB323-.LBB311
 11237 00a3 8B01     		.uleb128 .LBE323-.LBB311
 11238 00a5 00       		.byte	0
 11239              	.LLRL32:
 11240 00a6 05       		.byte	0x5
 11241 00a7 D1000000 		.long	.LBB320
 11242 00ab 04       		.byte	0x4
 11243 00ac 00       		.uleb128 .LBB320-.LBB320
 11244 00ad 03       		.uleb128 .LBE320-.LBB320
 11245 00ae 04       		.byte	0x4
 11246 00af 06       		.uleb128 .LBB324-.LBB320
 11247 00b0 0E       		.uleb128 .LBE324-.LBB320
 11248 00b1 00       		.byte	0
GAS LISTING /tmp/cctFPqVW.s 			page 202


 11249              	.LLRL37:
 11250 00b2 05       		.byte	0x5
 11251 00b3 00000000 		.long	.LBB330
 11252 00b7 04       		.byte	0x4
 11253 00b8 00       		.uleb128 .LBB330-.LBB330
 11254 00b9 00       		.uleb128 .LBE330-.LBB330
 11255 00ba 04       		.byte	0x4
 11256 00bb 12       		.uleb128 .LBB335-.LBB330
 11257 00bc 1E       		.uleb128 .LBE335-.LBB330
 11258 00bd 00       		.byte	0
 11259              	.LLRL38:
 11260 00be 05       		.byte	0x5
 11261 00bf 30000000 		.long	.LBB336
 11262 00c3 04       		.byte	0x4
 11263 00c4 00       		.uleb128 .LBB336-.LBB336
 11264 00c5 00       		.uleb128 .LBE336-.LBB336
 11265 00c6 04       		.byte	0x4
 11266 00c7 05       		.uleb128 .LBB343-.LBB336
 11267 00c8 0B       		.uleb128 .LBE343-.LBB336
 11268 00c9 00       		.byte	0
 11269              	.LLRL43:
 11270 00ca 05       		.byte	0x5
 11271 00cb 1E000000 		.long	.LBB360
 11272 00cf 04       		.byte	0x4
 11273 00d0 00       		.uleb128 .LBB360-.LBB360
 11274 00d1 04       		.uleb128 .LBE360-.LBB360
 11275 00d2 04       		.byte	0x4
 11276 00d3 0F       		.uleb128 .LBB373-.LBB360
 11277 00d4 12       		.uleb128 .LBE373-.LBB360
 11278 00d5 04       		.byte	0x4
 11279 00d6 21       		.uleb128 .LBB375-.LBB360
 11280 00d7 24       		.uleb128 .LBE375-.LBB360
 11281 00d8 04       		.byte	0x4
 11282 00d9 2D       		.uleb128 .LBB377-.LBB360
 11283 00da 30       		.uleb128 .LBE377-.LBB360
 11284 00db 04       		.byte	0x4
 11285 00dc 36       		.uleb128 .LBB379-.LBB360
 11286 00dd 39       		.uleb128 .LBE379-.LBB360
 11287 00de 04       		.byte	0x4
 11288 00df 6A       		.uleb128 .LBB381-.LBB360
 11289 00e0 8B01     		.uleb128 .LBE381-.LBB360
 11290 00e2 04       		.byte	0x4
 11291 00e3 8E01     		.uleb128 .LBB382-.LBB360
 11292 00e5 9101     		.uleb128 .LBE382-.LBB360
 11293 00e7 04       		.byte	0x4
 11294 00e8 9A01     		.uleb128 .LBB390-.LBB360
 11295 00ea B101     		.uleb128 .LBE390-.LBB360
 11296 00ec 00       		.byte	0
 11297              	.LLRL46:
 11298 00ed 05       		.byte	0x5
 11299 00ee 24000000 		.long	.LBB361
 11300 00f2 04       		.byte	0x4
 11301 00f3 00       		.uleb128 .LBB361-.LBB361
 11302 00f4 09       		.uleb128 .LBE361-.LBB361
 11303 00f5 04       		.byte	0x4
 11304 00f6 0F       		.uleb128 .LBB374-.LBB361
 11305 00f7 1B       		.uleb128 .LBE374-.LBB361
GAS LISTING /tmp/cctFPqVW.s 			page 203


 11306 00f8 04       		.byte	0x4
 11307 00f9 1E       		.uleb128 .LBB376-.LBB361
 11308 00fa 27       		.uleb128 .LBE376-.LBB361
 11309 00fb 04       		.byte	0x4
 11310 00fc 2A       		.uleb128 .LBB378-.LBB361
 11311 00fd 30       		.uleb128 .LBE378-.LBB361
 11312 00fe 04       		.byte	0x4
 11313 00ff 33       		.uleb128 .LBB380-.LBB361
 11314 0100 64       		.uleb128 .LBE380-.LBB361
 11315 0101 00       		.byte	0
 11316              	.LLRL49:
 11317 0102 05       		.byte	0x5
 11318 0103 57000000 		.long	.LBB363
 11319 0107 04       		.byte	0x4
 11320 0108 00       		.uleb128 .LBB363-.LBB363
 11321 0109 06       		.uleb128 .LBE363-.LBB363
 11322 010a 04       		.byte	0x4
 11323 010b 31       		.uleb128 .LBB368-.LBB363
 11324 010c 31       		.uleb128 .LBE368-.LBB363
 11325 010d 00       		.byte	0
 11326              	.LLRL52:
 11327 010e 05       		.byte	0x5
 11328 010f AF000000 		.long	.LBB383
 11329 0113 04       		.byte	0x4
 11330 0114 00       		.uleb128 .LBB383-.LBB383
 11331 0115 06       		.uleb128 .LBE383-.LBB383
 11332 0116 04       		.byte	0x4
 11333 0117 20       		.uleb128 .LBB391-.LBB383
 11334 0118 20       		.uleb128 .LBE391-.LBB383
 11335 0119 04       		.byte	0x4
 11336 011a 23       		.uleb128 .LBB392-.LBB383
 11337 011b 29       		.uleb128 .LBE392-.LBB383
 11338 011c 00       		.byte	0
 11339              	.LLRL53:
 11340 011d 05       		.byte	0x5
 11341 011e D8000000 		.long	.LBB393
 11342 0122 04       		.byte	0x4
 11343 0123 00       		.uleb128 .LBB393-.LBB393
 11344 0124 00       		.uleb128 .LBE393-.LBB393
 11345 0125 04       		.byte	0x4
 11346 0126 03       		.uleb128 .LBB396-.LBB393
 11347 0127 0F       		.uleb128 .LBE396-.LBB393
 11348 0128 00       		.byte	0
 11349              	.LLRL56:
 11350 0129 05       		.byte	0x5
 11351 012a 00000000 		.long	.LBB401
 11352 012e 04       		.byte	0x4
 11353 012f 00       		.uleb128 .LBB401-.LBB401
 11354 0130 00       		.uleb128 .LBE401-.LBB401
 11355 0131 04       		.byte	0x4
 11356 0132 18       		.uleb128 .LBB406-.LBB401
 11357 0133 24       		.uleb128 .LBE406-.LBB401
 11358 0134 00       		.byte	0
 11359              	.LLRL57:
 11360 0135 05       		.byte	0x5
 11361 0136 29000000 		.long	.LBB407
 11362 013a 04       		.byte	0x4
GAS LISTING /tmp/cctFPqVW.s 			page 204


 11363 013b 00       		.uleb128 .LBB407-.LBB407
 11364 013c 00       		.uleb128 .LBE407-.LBB407
 11365 013d 04       		.byte	0x4
 11366 013e 05       		.uleb128 .LBB414-.LBB407
 11367 013f 0B       		.uleb128 .LBE414-.LBB407
 11368 0140 00       		.byte	0
 11369              	.LLRL59:
 11370 0141 05       		.byte	0x5
 11371 0142 30000000 		.long	.LBB446
 11372 0146 04       		.byte	0x4
 11373 0147 00       		.uleb128 .LBB446-.LBB446
 11374 0148 22       		.uleb128 .LBE446-.LBB446
 11375 0149 04       		.byte	0x4
 11376 014a 23       		.uleb128 .LBB455-.LBB446
 11377 014b 25       		.uleb128 .LBE455-.LBB446
 11378 014c 00       		.byte	0
 11379              	.LLRL63:
 11380 014d 05       		.byte	0x5
 11381 014e 00000000 		.long	.LBB456
 11382 0152 04       		.byte	0x4
 11383 0153 00       		.uleb128 .LBB456-.LBB456
 11384 0154 00       		.uleb128 .LBE456-.LBB456
 11385 0155 04       		.byte	0x4
 11386 0156 0E       		.uleb128 .LBB459-.LBB456
 11387 0157 17       		.uleb128 .LBE459-.LBB456
 11388 0158 00       		.byte	0
 11389              	.LLRL64:
 11390 0159 05       		.byte	0x5
 11391 015a 1E000000 		.long	.LBB460
 11392 015e 04       		.byte	0x4
 11393 015f 00       		.uleb128 .LBB460-.LBB460
 11394 0160 03       		.uleb128 .LBE460-.LBB460
 11395 0161 04       		.byte	0x4
 11396 0162 06       		.uleb128 .LBB464-.LBB460
 11397 0163 06       		.uleb128 .LBE464-.LBB460
 11398 0164 04       		.byte	0x4
 11399 0165 20       		.uleb128 .LBB469-.LBB460
 11400 0166 23       		.uleb128 .LBE469-.LBB460
 11401 0167 00       		.byte	0
 11402              	.LLRL66:
 11403 0168 05       		.byte	0x5
 11404 0169 30000000 		.long	.LBB465
 11405 016d 04       		.byte	0x4
 11406 016e 00       		.uleb128 .LBB465-.LBB465
 11407 016f 02       		.uleb128 .LBE465-.LBB465
 11408 0170 04       		.byte	0x4
 11409 0171 05       		.uleb128 .LBB468-.LBB465
 11410 0172 08       		.uleb128 .LBE468-.LBB465
 11411 0173 00       		.byte	0
 11412              	.LLRL72:
 11413 0174 05       		.byte	0x5
 11414 0175 00000000 		.long	.LBB507
 11415 0179 04       		.byte	0x4
 11416 017a 00       		.uleb128 .LBB507-.LBB507
 11417 017b 00       		.uleb128 .LBE507-.LBB507
 11418 017c 04       		.byte	0x4
 11419 017d 16       		.uleb128 .LBB511-.LBB507
GAS LISTING /tmp/cctFPqVW.s 			page 205


 11420 017e 1C       		.uleb128 .LBE511-.LBB507
 11421 017f 04       		.byte	0x4
 11422 0180 22       		.uleb128 .LBB517-.LBB507
 11423 0181 25       		.uleb128 .LBE517-.LBB507
 11424 0182 00       		.byte	0
 11425              	.LLRL73:
 11426 0183 05       		.byte	0x5
 11427 0184 1C000000 		.long	.LBB512
 11428 0188 04       		.byte	0x4
 11429 0189 00       		.uleb128 .LBB512-.LBB512
 11430 018a 06       		.uleb128 .LBE512-.LBB512
 11431 018b 04       		.byte	0x4
 11432 018c 09       		.uleb128 .LBB518-.LBB512
 11433 018d 0F       		.uleb128 .LBE518-.LBB512
 11434 018e 00       		.byte	0
 11435              	.LLRL74:
 11436 018f 05       		.byte	0x5
 11437 0190 2D000000 		.long	.LBB519
 11438 0194 04       		.byte	0x4
 11439 0195 00       		.uleb128 .LBB519-.LBB519
 11440 0196 03       		.uleb128 .LBE519-.LBB519
 11441 0197 04       		.byte	0x4
 11442 0198 06       		.uleb128 .LBB522-.LBB519
 11443 0199 0B       		.uleb128 .LBE522-.LBB519
 11444 019a 00       		.byte	0
 11445              	.LLRL77:
 11446 019b 05       		.byte	0x5
 11447 019c 42000000 		.long	.LBB523
 11448 01a0 04       		.byte	0x4
 11449 01a1 00       		.uleb128 .LBB523-.LBB523
 11450 01a2 07       		.uleb128 .LBE523-.LBB523
 11451 01a3 04       		.byte	0x4
 11452 01a4 10       		.uleb128 .LBB550-.LBB523
 11453 01a5 1A       		.uleb128 .LBE550-.LBB523
 11454              	.LLRL79:
 11455 01a6 05       		.byte	0x5
 11456 01a7 68000000 		.long	.LBB551
 11457 01ab 04       		.byte	0x4
 11458 01ac 00       		.uleb128 .LBB551-.LBB551
 11459 01ad 1E       		.uleb128 .LBE551-.LBB551
 11460 01ae 04       		.byte	0x4
 11461 01af 20       		.uleb128 .LBB552-.LBB551
 11462 01b0 23       		.uleb128 .LBE552-.LBB551
 11463 01b1 00       		.byte	0
 11464              	.LLRL82:
 11465 01b2 05       		.byte	0x5
 11466 01b3 73000000 		.long	.LBB529
 11467 01b7 04       		.byte	0x4
 11468 01b8 00       		.uleb128 .LBB529-.LBB529
 11469 01b9 00       		.uleb128 .LBE529-.LBB529
 11470 01ba 04       		.byte	0x4
 11471 01bb 03       		.uleb128 .LBB536-.LBB529
 11472 01bc 09       		.uleb128 .LBE536-.LBB529
 11473 01bd 00       		.byte	0
 11474              	.LLRL83:
 11475 01be 05       		.byte	0x5
 11476 01bf 49000000 		.long	.LBB542
GAS LISTING /tmp/cctFPqVW.s 			page 206


 11477 01c3 04       		.byte	0x4
 11478 01c4 00       		.uleb128 .LBB542-.LBB542
 11479 01c5 06       		.uleb128 .LBE542-.LBB542
 11480 01c6 04       		.byte	0x4
 11481 01c7 09       		.uleb128 .LBB549-.LBB542
 11482 01c8 09       		.uleb128 .LBE549-.LBB542
 11483 01c9 00       		.byte	0
 11484              	.LLRL87:
 11485 01ca 05       		.byte	0x5
 11486 01cb 00000000 		.long	.LBB553
 11487 01cf 04       		.byte	0x4
 11488 01d0 00       		.uleb128 .LBB553-.LBB553
 11489 01d1 00       		.uleb128 .LBE553-.LBB553
 11490 01d2 04       		.byte	0x4
 11491 01d3 12       		.uleb128 .LBB557-.LBB553
 11492 01d4 18       		.uleb128 .LBE557-.LBB553
 11493 01d5 04       		.byte	0x4
 11494 01d6 1E       		.uleb128 .LBB563-.LBB553
 11495 01d7 21       		.uleb128 .LBE563-.LBB553
 11496 01d8 00       		.byte	0
 11497              	.LLRL88:
 11498 01d9 05       		.byte	0x5
 11499 01da 18000000 		.long	.LBB558
 11500 01de 04       		.byte	0x4
 11501 01df 00       		.uleb128 .LBB558-.LBB558
 11502 01e0 06       		.uleb128 .LBE558-.LBB558
 11503 01e1 04       		.byte	0x4
 11504 01e2 09       		.uleb128 .LBB564-.LBB558
 11505 01e3 0F       		.uleb128 .LBE564-.LBB558
 11506 01e4 00       		.byte	0
 11507              	.LLRL89:
 11508 01e5 05       		.byte	0x5
 11509 01e6 40000000 		.long	.LBB565
 11510 01ea 04       		.byte	0x4
 11511 01eb 00       		.uleb128 .LBB565-.LBB565
 11512 01ec 00       		.uleb128 .LBE565-.LBB565
 11513 01ed 04       		.byte	0x4
 11514 01ee 03       		.uleb128 .LBB572-.LBB565
 11515 01ef 09       		.uleb128 .LBE572-.LBB565
 11516 01f0 00       		.byte	0
 11517              	.LLRL90:
 11518 01f1 05       		.byte	0x5
 11519 01f2 00000000 		.long	.LBB577
 11520 01f6 04       		.byte	0x4
 11521 01f7 00       		.uleb128 .LBB577-.LBB577
 11522 01f8 00       		.uleb128 .LBE577-.LBB577
 11523 01f9 04       		.byte	0x4
 11524 01fa 16       		.uleb128 .LBB585-.LBB577
 11525 01fb 22       		.uleb128 .LBE585-.LBB577
 11526 01fc 00       		.byte	0
 11527              	.LLRL91:
 11528 01fd 05       		.byte	0x5
 11529 01fe 10000000 		.long	.LBB582
 11530 0202 04       		.byte	0x4
 11531 0203 00       		.uleb128 .LBB582-.LBB582
 11532 0204 06       		.uleb128 .LBE582-.LBB582
 11533 0205 04       		.byte	0x4
GAS LISTING /tmp/cctFPqVW.s 			page 207


 11534 0206 12       		.uleb128 .LBB586-.LBB582
 11535 0207 17       		.uleb128 .LBE586-.LBB582
 11536 0208 00       		.byte	0
 11537              	.LLRL93:
 11538 0209 05       		.byte	0x5
 11539 020a 00000000 		.long	.LBB591
 11540 020e 04       		.byte	0x4
 11541 020f 00       		.uleb128 .LBB591-.LBB591
 11542 0210 00       		.uleb128 .LBE591-.LBB591
 11543 0211 04       		.byte	0x4
 11544 0212 16       		.uleb128 .LBB602-.LBB591
 11545 0213 1C       		.uleb128 .LBE602-.LBB591
 11546 0214 04       		.byte	0x4
 11547 0215 23       		.uleb128 .LBB604-.LBB591
 11548 0216 29       		.uleb128 .LBE604-.LBB591
 11549 0217 00       		.byte	0
 11550              	.LLRL94:
 11551 0218 05       		.byte	0x5
 11552 0219 10000000 		.long	.LBB598
 11553 021d 04       		.byte	0x4
 11554 021e 00       		.uleb128 .LBB598-.LBB598
 11555 021f 06       		.uleb128 .LBE598-.LBB598
 11556 0220 04       		.byte	0x4
 11557 0221 0C       		.uleb128 .LBB603-.LBB598
 11558 0222 0F       		.uleb128 .LBE603-.LBB598
 11559 0223 04       		.byte	0x4
 11560 0224 19       		.uleb128 .LBB605-.LBB598
 11561 0225 19       		.uleb128 .LBE605-.LBB598
 11562 0226 00       		.byte	0
 11563              	.LLRL97:
 11564 0227 05       		.byte	0x5
 11565 0228 2D000000 		.long	.LBB608
 11566 022c 04       		.byte	0x4
 11567 022d 00       		.uleb128 .LBB608-.LBB608
 11568 022e 06       		.uleb128 .LBE608-.LBB608
 11569 022f 04       		.byte	0x4
 11570 0230 21       		.uleb128 .LBB617-.LBB608
 11571 0231 27       		.uleb128 .LBE617-.LBB608
 11572 0232 00       		.byte	0
 11573              	.LLRL101:
 11574 0233 05       		.byte	0x5
 11575 0234 00000000 		.long	.LBB618
 11576 0238 04       		.byte	0x4
 11577 0239 00       		.uleb128 .LBB618-.LBB618
 11578 023a 00       		.uleb128 .LBE618-.LBB618
 11579 023b 04       		.byte	0x4
 11580 023c 1E       		.uleb128 .LBB632-.LBB618
 11581 023d 24       		.uleb128 .LBE632-.LBB618
 11582 023e 04       		.byte	0x4
 11583 023f 27       		.uleb128 .LBB634-.LBB618
 11584 0240 2D       		.uleb128 .LBE634-.LBB618
 11585 0241 00       		.byte	0
 11586              	.LLRL102:
 11587 0242 05       		.byte	0x5
 11588 0243 12000000 		.long	.LBB625
 11589 0247 04       		.byte	0x4
 11590 0248 00       		.uleb128 .LBB625-.LBB625
GAS LISTING /tmp/cctFPqVW.s 			page 208


 11591 0249 06       		.uleb128 .LBE625-.LBB625
 11592 024a 04       		.byte	0x4
 11593 024b 1B       		.uleb128 .LBB636-.LBB625
 11594 024c 21       		.uleb128 .LBE636-.LBB625
 11595 024d 00       		.byte	0
 11596              	.LLRL106:
 11597 024e 05       		.byte	0x5
 11598 024f 18000000 		.long	.LBB628
 11599 0253 04       		.byte	0x4
 11600 0254 00       		.uleb128 .LBB628-.LBB628
 11601 0255 06       		.uleb128 .LBE628-.LBB628
 11602 0256 04       		.byte	0x4
 11603 0257 0C       		.uleb128 .LBB633-.LBB628
 11604 0258 0F       		.uleb128 .LBE633-.LBB628
 11605 0259 04       		.byte	0x4
 11606 025a 15       		.uleb128 .LBB635-.LBB628
 11607 025b 15       		.uleb128 .LBE635-.LBB628
 11608 025c 00       		.byte	0
 11609              	.LLRL107:
 11610 025d 05       		.byte	0x5
 11611 025e 37000000 		.long	.LBB637
 11612 0262 04       		.byte	0x4
 11613 0263 00       		.uleb128 .LBB637-.LBB637
 11614 0264 00       		.uleb128 .LBE637-.LBB637
 11615 0265 04       		.byte	0x4
 11616 0266 04       		.uleb128 .LBB650-.LBB637
 11617 0267 0A       		.uleb128 .LBE650-.LBB637
 11618 0268 04       		.byte	0x4
 11619 0269 23       		.uleb128 .LBB663-.LBB637
 11620 026a 23       		.uleb128 .LBE663-.LBB637
 11621 026b 04       		.byte	0x4
 11622 026c 25       		.uleb128 .LBB664-.LBB637
 11623 026d 2B       		.uleb128 .LBE664-.LBB637
 11624 026e 00       		.byte	0
 11625              	.LLRL108:
 11626 026f 05       		.byte	0x5
 11627 0270 48000000 		.long	.LBB651
 11628 0274 04       		.byte	0x4
 11629 0275 00       		.uleb128 .LBB651-.LBB651
 11630 0276 00       		.uleb128 .LBE651-.LBB651
 11631 0277 04       		.byte	0x4
 11632 0278 00       		.uleb128 .LBB659-.LBB651
 11633 0279 02       		.uleb128 .LBE659-.LBB651
 11634 027a 04       		.byte	0x4
 11635 027b 05       		.uleb128 .LBB661-.LBB651
 11636 027c 07       		.uleb128 .LBE661-.LBB651
 11637 027d 00       		.byte	0
 11638              	.LLRL111:
 11639 027e 05       		.byte	0x5
 11640 027f 48000000 		.long	.LBB655
 11641 0283 04       		.byte	0x4
 11642 0284 00       		.uleb128 .LBB655-.LBB655
 11643 0285 00       		.uleb128 .LBE655-.LBB655
 11644 0286 04       		.byte	0x4
 11645 0287 02       		.uleb128 .LBB660-.LBB655
 11646 0288 05       		.uleb128 .LBE660-.LBB655
 11647 0289 04       		.byte	0x4
GAS LISTING /tmp/cctFPqVW.s 			page 209


 11648 028a 07       		.uleb128 .LBB662-.LBB655
 11649 028b 12       		.uleb128 .LBE662-.LBB655
 11650 028c 00       		.byte	0
 11651              	.LLRL113:
 11652 028d 05       		.byte	0x5
 11653 028e 00000000 		.long	.LBB665
 11654 0292 04       		.byte	0x4
 11655 0293 00       		.uleb128 .LBB665-.LBB665
 11656 0294 00       		.uleb128 .LBE665-.LBB665
 11657 0295 04       		.byte	0x4
 11658 0296 10       		.uleb128 .LBB670-.LBB665
 11659 0297 1C       		.uleb128 .LBE670-.LBB665
 11660 0298 00       		.byte	0
 11661              	.LLRL115:
 11662 0299 05       		.byte	0x5
 11663 029a 00000000 		.long	.LBB675
 11664 029e 04       		.byte	0x4
 11665 029f 00       		.uleb128 .LBB675-.LBB675
 11666 02a0 00       		.uleb128 .LBE675-.LBB675
 11667 02a1 04       		.byte	0x4
 11668 02a2 14       		.uleb128 .LBB678-.LBB675
 11669 02a3 1D       		.uleb128 .LBE678-.LBB675
 11670 02a4 00       		.byte	0
 11671              	.LLRL117:
 11672 02a5 05       		.byte	0x5
 11673 02a6 00000000 		.long	.LBB681
 11674 02aa 04       		.byte	0x4
 11675 02ab 00       		.uleb128 .LBB681-.LBB681
 11676 02ac 00       		.uleb128 .LBE681-.LBB681
 11677 02ad 04       		.byte	0x4
 11678 02ae 17       		.uleb128 .LBB684-.LBB681
 11679 02af 20       		.uleb128 .LBE684-.LBB681
 11680 02b0 00       		.byte	0
 11681              	.LLRL120:
 11682 02b1 05       		.byte	0x5
 11683 02b2 00000000 		.long	.LBB687
 11684 02b6 04       		.byte	0x4
 11685 02b7 00       		.uleb128 .LBB687-.LBB687
 11686 02b8 00       		.uleb128 .LBE687-.LBB687
 11687 02b9 04       		.byte	0x4
 11688 02ba 16       		.uleb128 .LBB696-.LBB687
 11689 02bb 22       		.uleb128 .LBE696-.LBB687
 11690 02bc 00       		.byte	0
 11691              	.LLRL121:
 11692 02bd 05       		.byte	0x5
 11693 02be 14000000 		.long	.LBB692
 11694 02c2 04       		.byte	0x4
 11695 02c3 00       		.uleb128 .LBB692-.LBB692
 11696 02c4 02       		.uleb128 .LBE692-.LBB692
 11697 02c5 04       		.byte	0x4
 11698 02c6 0E       		.uleb128 .LBB697-.LBB692
 11699 02c7 28       		.uleb128 .LBE697-.LBB692
 11700 02c8 00       		.byte	0
 11701              	.LLRL127:
 11702 02c9 05       		.byte	0x5
 11703 02ca 00000000 		.long	.LBB704
 11704 02ce 04       		.byte	0x4
GAS LISTING /tmp/cctFPqVW.s 			page 210


 11705 02cf 00       		.uleb128 .LBB704-.LBB704
 11706 02d0 00       		.uleb128 .LBE704-.LBB704
 11707 02d1 04       		.byte	0x4
 11708 02d2 18       		.uleb128 .LBB707-.LBB704
 11709 02d3 21       		.uleb128 .LBE707-.LBB704
 11710 02d4 00       		.byte	0
 11711              	.LLRL128:
 11712 02d5 05       		.byte	0x5
 11713 02d6 25000000 		.long	.LBB708
 11714 02da 04       		.byte	0x4
 11715 02db 00       		.uleb128 .LBB708-.LBB708
 11716 02dc 03       		.uleb128 .LBE708-.LBB708
 11717 02dd 04       		.byte	0x4
 11718 02de 06       		.uleb128 .LBB711-.LBB708
 11719 02df 10       		.uleb128 .LBE711-.LBB708
 11720 02e0 00       		.byte	0
 11721              	.LLRL135:
 11722 02e1 05       		.byte	0x5
 11723 02e2 19000000 		.long	.LBB716
 11724 02e6 04       		.byte	0x4
 11725 02e7 00       		.uleb128 .LBB716-.LBB716
 11726 02e8 02       		.uleb128 .LBE716-.LBB716
 11727 02e9 04       		.byte	0x4
 11728 02ea 05       		.uleb128 .LBB719-.LBB716
 11729 02eb 0A       		.uleb128 .LBE719-.LBB716
 11730 02ec 00       		.byte	0
 11731              	.LLRL138:
 11732 02ed 05       		.byte	0x5
 11733 02ee 07000000 		.long	.LBB720
 11734 02f2 04       		.byte	0x4
 11735 02f3 00       		.uleb128 .LBB720-.LBB720
 11736 02f4 0B       		.uleb128 .LBE720-.LBB720
 11737 02f5 04       		.byte	0x4
 11738 02f6 0F       		.uleb128 .LBB724-.LBB720
 11739 02f7 11       		.uleb128 .LBE724-.LBB720
 11740 02f8 04       		.byte	0x4
 11741 02f9 2C       		.uleb128 .LBB731-.LBB720
 11742 02fa 2E       		.uleb128 .LBE731-.LBB720
 11743 02fb 00       		.byte	0
 11744              	.LLRL143:
 11745 02fc 05       		.byte	0x5
 11746 02fd 20000000 		.long	.LBB727
 11747 0301 04       		.byte	0x4
 11748 0302 00       		.uleb128 .LBB727-.LBB727
 11749 0303 02       		.uleb128 .LBE727-.LBB727
 11750 0304 04       		.byte	0x4
 11751 0305 05       		.uleb128 .LBB730-.LBB727
 11752 0306 0A       		.uleb128 .LBE730-.LBB727
 11753 0307 00       		.byte	0
 11754              	.LLRL146:
 11755 0308 07       		.byte	0x7
 11756 0309 00000000 		.long	.LFB215
 11757 030d 8001     		.uleb128 .LFE215-.LFB215
 11758 030f 07       		.byte	0x7
 11759 0310 00000000 		.long	.LFB216
 11760 0314 01       		.uleb128 .LFE216-.LFB216
 11761 0315 07       		.byte	0x7
GAS LISTING /tmp/cctFPqVW.s 			page 211


 11762 0316 00000000 		.long	.LFB217
 11763 031a EB01     		.uleb128 .LFE217-.LFB217
 11764 031c 07       		.byte	0x7
 11765 031d 00000000 		.long	.LFB218
 11766 0321 29       		.uleb128 .LFE218-.LFB218
 11767 0322 07       		.byte	0x7
 11768 0323 00000000 		.long	.LFB219
 11769 0327 2A       		.uleb128 .LFE219-.LFB219
 11770 0328 07       		.byte	0x7
 11771 0329 00000000 		.long	.LFB220
 11772 032d 40       		.uleb128 .LFE220-.LFB220
 11773 032e 07       		.byte	0x7
 11774 032f 00000000 		.long	.LFB221
 11775 0333 FB01     		.uleb128 .LFE221-.LFB221
 11776 0335 07       		.byte	0x7
 11777 0336 00000000 		.long	.LFB222
 11778 033a 24       		.uleb128 .LFE222-.LFB222
 11779 033b 07       		.byte	0x7
 11780 033c 00000000 		.long	.LFB223
 11781 0340 26       		.uleb128 .LFE223-.LFB223
 11782 0341 07       		.byte	0x7
 11783 0342 00000000 		.long	.LFB224
 11784 0346 3F       		.uleb128 .LFE224-.LFB224
 11785 0347 07       		.byte	0x7
 11786 0348 00000000 		.long	.LFB225
 11787 034c FF01     		.uleb128 .LFE225-.LFB225
 11788 034e 07       		.byte	0x7
 11789 034f 00000000 		.long	.LFB226
 11790 0353 38       		.uleb128 .LFE226-.LFB226
 11791 0354 07       		.byte	0x7
 11792 0355 00000000 		.long	.LFB227
 11793 0359 20       		.uleb128 .LFE227-.LFB227
 11794 035a 07       		.byte	0x7
 11795 035b 00000000 		.long	.LFB228
 11796 035f 55       		.uleb128 .LFE228-.LFB228
 11797 0360 07       		.byte	0x7
 11798 0361 00000000 		.long	.LFB230
 11799 0365 7D       		.uleb128 .LFE230-.LFB230
 11800 0366 07       		.byte	0x7
 11801 0367 00000000 		.long	.LFB229
 11802 036b 1B       		.uleb128 .LFE229-.LFB229
 11803 036c 07       		.byte	0x7
 11804 036d 00000000 		.long	.LFB231
 11805 0371 8F01     		.uleb128 .LFE231-.LFB231
 11806 0373 07       		.byte	0x7
 11807 0374 00000000 		.long	.LFB232
 11808 0378 4C       		.uleb128 .LFE232-.LFB232
 11809 0379 07       		.byte	0x7
 11810 037a 00000000 		.long	.LFB233
 11811 037e 20       		.uleb128 .LFE233-.LFB233
 11812 037f 07       		.byte	0x7
 11813 0380 00000000 		.long	.LFB234
 11814 0384 33       		.uleb128 .LFE234-.LFB234
 11815 0385 07       		.byte	0x7
 11816 0386 00000000 		.long	.LFB235
 11817 038a 5A       		.uleb128 .LFE235-.LFB235
 11818 038b 07       		.byte	0x7
GAS LISTING /tmp/cctFPqVW.s 			page 212


 11819 038c 00000000 		.long	.LFB236
 11820 0390 66       		.uleb128 .LFE236-.LFB236
 11821 0391 07       		.byte	0x7
 11822 0392 00000000 		.long	.LFB237
 11823 0396 2D       		.uleb128 .LFE237-.LFB237
 11824 0397 07       		.byte	0x7
 11825 0398 00000000 		.long	.LFB238
 11826 039c 35       		.uleb128 .LFE238-.LFB238
 11827 039d 07       		.byte	0x7
 11828 039e 00000000 		.long	.LFB239
 11829 03a2 47       		.uleb128 .LFE239-.LFB239
 11830 03a3 07       		.byte	0x7
 11831 03a4 00000000 		.long	.LFB240
 11832 03a8 37       		.uleb128 .LFE240-.LFB240
 11833 03a9 07       		.byte	0x7
 11834 03aa 00000000 		.long	.LFB241
 11835 03ae 34       		.uleb128 .LFE241-.LFB241
 11836 03af 07       		.byte	0x7
 11837 03b0 00000000 		.long	.LFB242
 11838 03b4 48       		.uleb128 .LFE242-.LFB242
 11839 03b5 07       		.byte	0x7
 11840 03b6 00000000 		.long	.LFB243
 11841 03ba 0A       		.uleb128 .LFE243-.LFB243
 11842 03bb 07       		.byte	0x7
 11843 03bc 00000000 		.long	.LFB245
 11844 03c0 57       		.uleb128 .LFE245-.LFB245
 11845 03c1 07       		.byte	0x7
 11846 03c2 00000000 		.long	.LFB246
 11847 03c6 38       		.uleb128 .LFE246-.LFB246
 11848 03c7 07       		.byte	0x7
 11849 03c8 00000000 		.long	.LFB247
 11850 03cc 40       		.uleb128 .LFE247-.LFB247
 11851 03cd 00       		.byte	0
 11852              	.Ldebug_ranges3:
 11853              		.section	.debug_line,"",@progbits
 11854              	.Ldebug_line0:
 11855 0000 51160000 		.section	.debug_str,"MS",@progbits,1
 11855      05000400 
 11855      9C000000 
 11855      010101FB 
 11855      0E0D0001 
 11856              	.LASF112:
 11857 0000 63737461 		.string	"cstack_base"
 11857      636B5F62 
 11857      61736500 
 11858              	.LASF147:
 11859 000c 696E7465 		.string	"interval"
 11859      7276616C 
 11859      00
 11860              	.LASF104:
 11861 0015 77746D74 		.string	"wtmtxp"
 11861      787000
 11862              	.LASF144:
 11863 001c 63685468 		.string	"chThdSleepUntilWindowed"
 11863      64536C65 
 11863      6570556E 
 11863      74696C57 
GAS LISTING /tmp/cctFPqVW.s 			page 213


 11863      696E646F 
 11864              	.LASF193:
 11865 0034 63685F6C 		.string	"ch_list_init"
 11865      6973745F 
 11865      696E6974 
 11865      00
 11866              	.LASF119:
 11867 0041 77626173 		.string	"wbase"
 11867      6500
 11868              	.LASF41:
 11869 0047 64697370 		.string	"dispose"
 11869      6F736500 
 11870              	.LASF89:
 11871 004f 63685F72 		.string	"ch_registry"
 11871      65676973 
 11871      74727900 
 11872              	.LASF140:
 11873 005b 63685468 		.string	"chThdEnqueueTimeoutS"
 11873      64456E71 
 11873      75657565 
 11873      54696D65 
 11873      6F757453 
 11874              	.LASF37:
 11875 0070 666C6167 		.string	"flags"
 11875      7300
 11876              	.LASF66:
 11877 0076 73797374 		.string	"systime_t"
 11877      696D655F 
 11877      7400
 11878              	.LASF47:
 11879 0080 7265616C 		.string	"realprio"
 11879      7072696F 
 11879      00
 11880              	.LASF132:
 11881 0089 63685468 		.string	"chThdDequeueNextI"
 11881      64446571 
 11881      75657565 
 11881      4E657874 
 11881      4900
 11882              	.LASF45:
 11883 009b 6570656E 		.string	"epending"
 11883      64696E67 
 11883      00
 11884              	.LASF2:
 11885 00a4 756E7369 		.string	"unsigned int"
 11885      676E6564 
 11885      20696E74 
 11885      00
 11886              	.LASF70:
 11887 00b1 6E657874 		.string	"next"
 11887      00
 11888              	.LASF8:
 11889 00b6 5F466C6F 		.string	"_Float128"
 11889      61743132 
 11889      3800
 11890              	.LASF180:
 11891 00c0 63685654 		.string	"chVTGetSystemTimeX"
GAS LISTING /tmp/cctFPqVW.s 			page 214


 11891      47657453 
 11891      79737465 
 11891      6D54696D 
 11891      655800
 11892              	.LASF23:
 11893 00d3 73797373 		.string	"syssts_t"
 11893      74735F74 
 11893      00
 11894              	.LASF54:
 11895 00dc 636F7265 		.string	"core_id"
 11895      5F696400 
 11896              	.LASF15:
 11897 00e4 5F5F696E 		.string	"__int32_t"
 11897      7433325F 
 11897      7400
 11898              	.LASF38:
 11899 00ee 72656673 		.string	"refs"
 11899      00
 11900              	.LASF100:
 11901 00f3 77746F62 		.string	"wtobjp"
 11901      6A7000
 11902              	.LASF130:
 11903 00fa 5F706F72 		.string	"_port_thread_start"
 11903      745F7468 
 11903      72656164 
 11903      5F737461 
 11903      727400
 11904              	.LASF52:
 11905 010d 76746C69 		.string	"vtlist"
 11905      737400
 11906              	.LASF82:
 11907 0114 706F7274 		.string	"port_context"
 11907      5F636F6E 
 11907      74657874 
 11907      00
 11908              	.LASF108:
 11909 0121 63685F72 		.string	"ch_ready_list"
 11909      65616479 
 11909      5F6C6973 
 11909      7400
 11910              	.LASF174:
 11911 012f 63685468 		.string	"chThdObjectDispose"
 11911      644F626A 
 11911      65637444 
 11911      6973706F 
 11911      736500
 11912              	.LASF69:
 11913 0142 63685F6C 		.string	"ch_list"
 11913      69737400 
 11914              	.LASF107:
 11915 014a 63685F6D 		.string	"ch_mutex"
 11915      75746578 
 11915      00
 11916              	.LASF87:
 11917 0153 6C617374 		.string	"laststamp"
 11917      7374616D 
 11917      7000
GAS LISTING /tmp/cctFPqVW.s 			page 215


 11918              	.LASF135:
 11919 015d 63685468 		.string	"chThdQueueObjectInit"
 11919      64517565 
 11919      75654F62 
 11919      6A656374 
 11919      496E6974 
 11920              	.LASF105:
 11921 0172 65776D61 		.string	"ewmask"
 11921      736B00
 11922              	.LASF187:
 11923 0179 63685F71 		.string	"ch_queue_insert"
 11923      75657565 
 11923      5F696E73 
 11923      65727400 
 11924              	.LASF73:
 11925 0189 70726576 		.string	"prev"
 11925      00
 11926              	.LASF93:
 11927 018e 63685F74 		.string	"ch_threads_queue"
 11927      68726561 
 11927      64735F71 
 11927      75657565 
 11927      00
 11928              	.LASF162:
 11929 019f 73746B62 		.string	"stkbase"
 11929      61736500 
 11930              	.LASF142:
 11931 01a7 63685468 		.string	"chThdSuspendS"
 11931      64537573 
 11931      70656E64 
 11931      5300
 11932              	.LASF171:
 11933 01b5 63685468 		.string	"chThdSpawnRunningI"
 11933      64537061 
 11933      776E5275 
 11933      6E6E696E 
 11933      674900
 11934              	.LASF129:
 11935 01c8 63685363 		.string	"chSchReadyI"
 11935      68526561 
 11935      64794900 
 11936              	.LASF63:
 11937 01d4 63685F73 		.string	"ch_system_debug"
 11937      79737465 
 11937      6D5F6465 
 11937      62756700 
 11938              	.LASF96:
 11939 01e4 6C697374 		.string	"list"
 11939      00
 11940              	.LASF139:
 11941 01e9 63685468 		.string	"chThdResumeI"
 11941      64526573 
 11941      756D6549 
 11941      00
 11942              	.LASF78:
 11943 01f6 63685F64 		.string	"ch_delta_list"
 11943      656C7461 
GAS LISTING /tmp/cctFPqVW.s 			page 216


 11943      5F6C6973 
 11943      7400
 11944              	.LASF21:
 11945 0204 75696E74 		.string	"uint32_t"
 11945      33325F74 
 11945      00
 11946              	.LASF138:
 11947 020d 63685468 		.string	"chThdResumeS"
 11947      64526573 
 11947      756D6553 
 11947      00
 11948              	.LASF154:
 11949 021a 63685468 		.string	"chThdExitS"
 11949      64457869 
 11949      745300
 11950              	.LASF102:
 11951 0225 73656E74 		.string	"sentmsg"
 11951      6D736700 
 11952              	.LASF166:
 11953 022d 63685468 		.string	"chThdCreate"
 11953      64437265 
 11953      61746500 
 11954              	.LASF29:
 11955 0239 6576656E 		.string	"eventmask_t"
 11955      746D6173 
 11955      6B5F7400 
 11956              	.LASF122:
 11957 0245 74687265 		.string	"thread_descriptor_t"
 11957      61645F64 
 11957      65736372 
 11957      6970746F 
 11957      725F7400 
 11958              	.LASF106:
 11959 0259 63685F73 		.string	"ch_semaphore"
 11959      656D6170 
 11959      686F7265 
 11959      00
 11960              	.LASF27:
 11961 0266 74707269 		.string	"tprio_t"
 11961      6F5F7400 
 11962              	.LASF116:
 11963 026e 6F735F69 		.string	"os_instance_config_t"
 11963      6E737461 
 11963      6E63655F 
 11963      636F6E66 
 11963      69675F74 
 11964              	.LASF118:
 11965 0283 7466756E 		.string	"tfunc_t"
 11965      635F7400 
 11966              	.LASF168:
 11967 028b 63685468 		.string	"chThdCreateSuspended"
 11967      64437265 
 11967      61746553 
 11967      75737065 
 11967      6E646564 
 11968              	.LASF18:
 11969 02a0 6C6F6E67 		.string	"long long unsigned int"
GAS LISTING /tmp/cctFPqVW.s 			page 217


 11969      206C6F6E 
 11969      6720756E 
 11969      7369676E 
 11969      65642069 
 11970              	.LASF185:
 11971 02b7 63685F71 		.string	"ch_queue_dequeue"
 11971      75657565 
 11971      5F646571 
 11971      75657565 
 11971      00
 11972              	.LASF151:
 11973 02c8 6E657770 		.string	"newprio"
 11973      72696F00 
 11974              	.LASF97:
 11975 02d0 70717565 		.string	"pqueue"
 11975      756500
 11976              	.LASF30:
 11977 02d7 636E745F 		.string	"cnt_t"
 11977      7400
 11978              	.LASF198:
 11979 02dd 73746B6C 		.string	"stkline_t"
 11979      696E655F 
 11979      7400
 11980              	.LASF181:
 11981 02e7 63685379 		.string	"chSysUnlock"
 11981      73556E6C 
 11981      6F636B00 
 11982              	.LASF145:
 11983 02f3 74696D65 		.string	"time"
 11983      00
 11984              	.LASF179:
 11985 02f8 63685468 		.string	"chThdGetSelfX"
 11985      64476574 
 11985      53656C66 
 11985      5800
 11986              	.LASF33:
 11987 0306 6F776E65 		.string	"owner"
 11987      7200
 11988              	.LASF94:
 11989 030c 74687265 		.string	"threads_queue_t"
 11989      6164735F 
 11989      71756575 
 11989      655F7400 
 11990              	.LASF46:
 11991 031c 6D74786C 		.string	"mtxlist"
 11991      69737400 
 11992              	.LASF84:
 11993 0324 63685F76 		.string	"ch_virtual_timers_list"
 11993      69727475 
 11993      616C5F74 
 11993      696D6572 
 11993      735F6C69 
 11994              	.LASF55:
 11995 033b 72666375 		.string	"rfcu"
 11995      00
 11996              	.LASF32:
 11997 0340 74687265 		.string	"thread_t"
GAS LISTING /tmp/cctFPqVW.s 			page 218


 11997      61645F74 
 11997      00
 11998              	.LASF12:
 11999 0349 73697A65 		.string	"size_t"
 11999      5F7400
 12000              	.LASF98:
 12001 0350 7264796D 		.string	"rdymsg"
 12001      736700
 12002              	.LASF170:
 12003 0357 63685468 		.string	"chThdSpawnRunning"
 12003      64537061 
 12003      776E5275 
 12003      6E6E696E 
 12003      6700
 12004              	.LASF74:
 12005 0369 63685F70 		.string	"ch_priority_queue_t"
 12005      72696F72 
 12005      6974795F 
 12005      71756575 
 12005      655F7400 
 12006              	.LASF161:
 12007 037d 66756E63 		.string	"func"
 12007      00
 12008              	.LASF83:
 12009 0382 5F426F6F 		.string	"_Bool"
 12009      6C00
 12010              	.LASF117:
 12011 0388 706F7274 		.string	"port_irq_sts"
 12011      5F697271 
 12011      5F737473 
 12011      00
 12012              	.LASF42:
 12013 0395 6F626A65 		.string	"object"
 12013      637400
 12014              	.LASF146:
 12015 039c 63685468 		.string	"chThdSleepUntil"
 12015      64536C65 
 12015      6570556E 
 12015      74696C00 
 12016              	.LASF60:
 12017 03ac 63685F72 		.string	"ch_rfcu"
 12017      66637500 
 12018              	.LASF17:
 12019 03b4 5F5F7569 		.string	"__uint64_t"
 12019      6E743634 
 12019      5F7400
 12020              	.LASF134:
 12021 03bf 63757272 		.string	"currtp"
 12021      747000
 12022              	.LASF125:
 12023 03c6 63685363 		.string	"chSchRescheduleS"
 12023      68526573 
 12023      63686564 
 12023      756C6553 
 12023      00
 12024              	.LASF50:
 12025 03d7 63685F6F 		.string	"ch_os_instance"
GAS LISTING /tmp/cctFPqVW.s 			page 219


 12025      735F696E 
 12025      7374616E 
 12025      636500
 12026              	.LASF182:
 12027 03e6 63685379 		.string	"chSysLock"
 12027      734C6F63 
 12027      6B00
 12028              	.LASF190:
 12029 03f0 63685F6C 		.string	"ch_list_unlink"
 12029      6973745F 
 12029      756E6C69 
 12029      6E6B00
 12030              	.LASF178:
 12031 03ff 7469636B 		.string	"ticks"
 12031      7300
 12032              	.LASF124:
 12033 0405 63685363 		.string	"chSchDoYieldS"
 12033      68446F59 
 12033      69656C64 
 12033      5300
 12034              	.LASF76:
 12035 0413 7072696F 		.string	"prio"
 12035      00
 12036              	.LASF186:
 12037 0418 63685F71 		.string	"ch_queue_fifo_remove"
 12037      75657565 
 12037      5F666966 
 12037      6F5F7265 
 12037      6D6F7665 
 12038              	.LASF157:
 12039 042d 63685468 		.string	"chThdAddRef"
 12039      64416464 
 12039      52656600 
 12040              	.LASF4:
 12041 0439 63686172 		.string	"char"
 12041      00
 12042              	.LASF77:
 12043 043e 63685F64 		.string	"ch_delta_list_t"
 12043      656C7461 
 12043      5F6C6973 
 12043      745F7400 
 12044              	.LASF59:
 12045 044e 72666375 		.string	"rfcu_mask_t"
 12045      5F6D6173 
 12045      6B5F7400 
 12046              	.LASF92:
 12047 045a 74687265 		.string	"thread_reference_t"
 12047      61645F72 
 12047      65666572 
 12047      656E6365 
 12047      5F7400
 12048              	.LASF34:
 12049 046d 77616261 		.string	"wabase"
 12049      736500
 12050              	.LASF25:
 12051 0474 74737461 		.string	"tstate_t"
 12051      74655F74 
GAS LISTING /tmp/cctFPqVW.s 			page 220


 12051      00
 12052              	.LASF40:
 12053 047d 72717565 		.string	"rqueue"
 12053      756500
 12054              	.LASF137:
 12055 0484 63685468 		.string	"chThdResume"
 12055      64526573 
 12055      756D6500 
 12056              	.LASF20:
 12057 0490 75696E74 		.string	"uint8_t"
 12057      385F7400 
 12058              	.LASF44:
 12059 0498 6D736771 		.string	"msgqueue"
 12059      75657565 
 12059      00
 12060              	.LASF160:
 12061 04a1 7773697A 		.string	"wsize"
 12061      6500
 12062              	.LASF49:
 12063 04a7 63685F74 		.string	"ch_thread"
 12063      68726561 
 12063      6400
 12064              	.LASF143:
 12065 04b1 63685468 		.string	"chThdYield"
 12065      64596965 
 12065      6C6400
 12066              	.LASF65:
 12067 04bc 73797374 		.string	"system_debug_t"
 12067      656D5F64 
 12067      65627567 
 12067      5F7400
 12068              	.LASF120:
 12069 04cb 77656E64 		.string	"wend"
 12069      00
 12070              	.LASF6:
 12071 04d0 6C6F6E67 		.string	"long long int"
 12071      206C6F6E 
 12071      6720696E 
 12071      7400
 12072              	.LASF149:
 12073 04de 63685468 		.string	"chThdTerminate"
 12073      64546572 
 12073      6D696E61 
 12073      746500
 12074              	.LASF28:
 12075 04ed 6D73675F 		.string	"msg_t"
 12075      7400
 12076              	.LASF91:
 12077 04f3 72656769 		.string	"registry_t"
 12077      73747279 
 12077      5F7400
 12078              	.LASF155:
 12079 04fe 63685468 		.string	"chThdExit"
 12079      64457869 
 12079      7400
 12080              	.LASF172:
 12081 0508 63685468 		.string	"chThdSpawnSuspended"
GAS LISTING /tmp/cctFPqVW.s 			page 221


 12081      64537061 
 12081      776E5375 
 12081      7370656E 
 12081      64656400 
 12082              	.LASF115:
 12083 051c 69646C65 		.string	"idlestack_end"
 12083      73746163 
 12083      6B5F656E 
 12083      6400
 12084              	.LASF61:
 12085 052a 6D61736B 		.string	"mask"
 12085      00
 12086              	.LASF156:
 12087 052f 63685468 		.string	"chThdRelease"
 12087      6452656C 
 12087      65617365 
 12087      00
 12088              	.LASF169:
 12089 053c 63685468 		.string	"chThdCreateSuspendedI"
 12089      64437265 
 12089      61746553 
 12089      75737065 
 12089      6E646564 
 12090              	.LASF95:
 12091 0552 74687265 		.string	"thread_dispose_t"
 12091      61645F64 
 12091      6973706F 
 12091      73655F74 
 12091      00
 12092              	.LASF67:
 12093 0563 73797369 		.string	"sysinterval_t"
 12093      6E746572 
 12093      76616C5F 
 12093      7400
 12094              	.LASF71:
 12095 0571 63685F71 		.string	"ch_queue_t"
 12095      75657565 
 12095      5F7400
 12096              	.LASF64:
 12097 057c 70616E69 		.string	"panic_msg"
 12097      635F6D73 
 12097      6700
 12098              	.LASF114:
 12099 0586 69646C65 		.string	"idlestack_base"
 12099      73746163 
 12099      6B5F6261 
 12099      736500
 12100              	.LASF159:
 12101 0595 63685468 		.string	"chThdCreateStatic"
 12101      64437265 
 12101      61746553 
 12101      74617469 
 12101      6300
 12102              	.LASF196:
 12103 05a7 63685469 		.string	"chTimeDiffX"
 12103      6D654469 
 12103      66665800 
GAS LISTING /tmp/cctFPqVW.s 			page 222


 12104              	.LASF24:
 12105 05b3 746D6F64 		.string	"tmode_t"
 12105      655F7400 
 12106              	.LASF86:
 12107 05bb 73797374 		.string	"systime"
 12107      696D6500 
 12108              	.LASF57:
 12109 05c3 69646C65 		.string	"idlethread"
 12109      74687265 
 12109      616400
 12110              	.LASF7:
 12111 05ce 6C6F6E67 		.string	"long double"
 12111      20646F75 
 12111      626C6500 
 12112              	.LASF68:
 12113 05da 63685F6C 		.string	"ch_list_t"
 12113      6973745F 
 12113      7400
 12114              	.LASF192:
 12115 05e4 63685F6C 		.string	"ch_list_notempty"
 12115      6973745F 
 12115      6E6F7465 
 12115      6D707479 
 12115      00
 12116              	.LASF194:
 12117 05f5 63685469 		.string	"chTimeIsInRangeX"
 12117      6D654973 
 12117      496E5261 
 12117      6E676558 
 12117      00
 12118              	.LASF56:
 12119 0606 636F6E66 		.string	"config"
 12119      696700
 12120              	.LASF153:
 12121 060d 63685468 		.string	"chThdWait"
 12121      64576169 
 12121      7400
 12122              	.LASF14:
 12123 0617 73686F72 		.string	"short int"
 12123      7420696E 
 12123      7400
 12124              	.LASF5:
 12125 0621 6C6F6E67 		.string	"long int"
 12125      20696E74 
 12125      00
 12126              	.LASF81:
 12127 062a 706F7274 		.string	"port_intctx"
 12127      5F696E74 
 12127      63747800 
 12128              	.LASF197:
 12129 0636 474E5520 		.string	"GNU C17 11.4.0 -m32 -mtune=generic -march=i686 -ggdb -O2 -ffunction-sections -fdata-secti
 12129      43313720 
 12129      31312E34 
 12129      2E30202D 
 12129      6D333220 
 12130              	.LASF35:
 12131 06ee 7761656E 		.string	"waend"
GAS LISTING /tmp/cctFPqVW.s 			page 223


 12131      6400
 12132              	.LASF113:
 12133 06f4 63737461 		.string	"cstack_end"
 12133      636B5F65 
 12133      6E6400
 12134              	.LASF111:
 12135 06ff 63685F6F 		.string	"ch_os_instance_config"
 12135      735F696E 
 12135      7374616E 
 12135      63655F63 
 12135      6F6E6669 
 12136              	.LASF85:
 12137 0715 646C6973 		.string	"dlist"
 12137      7400
 12138              	.LASF152:
 12139 071b 6F6C6470 		.string	"oldprio"
 12139      72696F00 
 12140              	.LASF22:
 12141 0723 75696E74 		.string	"uint64_t"
 12141      36345F74 
 12141      00
 12142              	.LASF188:
 12143 072c 63685F71 		.string	"ch_queue_notempty"
 12143      75657565 
 12143      5F6E6F74 
 12143      656D7074 
 12143      7900
 12144              	.LASF51:
 12145 073e 726C6973 		.string	"rlist"
 12145      7400
 12146              	.LASF158:
 12147 0744 63685468 		.string	"chThdStart"
 12147      64537461 
 12147      727400
 12148              	.LASF13:
 12149 074f 5F5F7569 		.string	"__uint8_t"
 12149      6E74385F 
 12149      7400
 12150              	.LASF39:
 12151 0759 6E616D65 		.string	"name"
 12151      00
 12152              	.LASF195:
 12153 075e 73746172 		.string	"start"
 12153      7400
 12154              	.LASF126:
 12155 0764 63685363 		.string	"chSchGoSleepS"
 12155      68476F53 
 12155      6C656570 
 12155      5300
 12156              	.LASF176:
 12157 0772 63685468 		.string	"chThdDoDequeueNextI"
 12157      64446F44 
 12157      65717565 
 12157      75654E65 
 12157      78744900 
 12158              	.LASF26:
 12159 0786 74726566 		.string	"trefs_t"
GAS LISTING /tmp/cctFPqVW.s 			page 224


 12159      735F7400 
 12160              	.LASF10:
 12161 078e 6C6F6E67 		.string	"long unsigned int"
 12161      20756E73 
 12161      69676E65 
 12161      6420696E 
 12161      7400
 12162              	.LASF110:
 12163 07a0 72656164 		.string	"ready_list_t"
 12163      795F6C69 
 12163      73745F74 
 12163      00
 12164              	.LASF128:
 12165 07ad 63685363 		.string	"chSchGoSleepTimeoutS"
 12165      68476F53 
 12165      6C656570 
 12165      54696D65 
 12165      6F757453 
 12166              	.LASF90:
 12167 07c2 71756575 		.string	"queue"
 12167      6500
 12168              	.LASF19:
 12169 07c8 696E7433 		.string	"int32_t"
 12169      325F7400 
 12170              	.LASF62:
 12171 07d0 72666375 		.string	"rfcu_t"
 12171      5F7400
 12172              	.LASF103:
 12173 07d7 77747365 		.string	"wtsemp"
 12173      6D7000
 12174              	.LASF75:
 12175 07de 63685F70 		.string	"ch_priority_queue"
 12175      72696F72 
 12175      6974795F 
 12175      71756575 
 12175      6500
 12176              	.LASF177:
 12177 07f0 63685468 		.string	"chThdSleepS"
 12177      64536C65 
 12177      65705300 
 12178              	.LASF72:
 12179 07fc 63685F71 		.string	"ch_queue"
 12179      75657565 
 12179      00
 12180              	.LASF123:
 12181 0805 6D757465 		.string	"mutex_t"
 12181      785F7400 
 12182              	.LASF163:
 12183 080d 73746B74 		.string	"stktop"
 12183      6F7000
 12184              	.LASF189:
 12185 0814 63685F71 		.string	"ch_queue_init"
 12185      75657565 
 12185      5F696E69 
 12185      7400
 12186              	.LASF167:
 12187 0822 63685468 		.string	"chThdCreateI"
GAS LISTING /tmp/cctFPqVW.s 			page 225


 12187      64437265 
 12187      61746549 
 12187      00
 12188              	.LASF9:
 12189 082f 756E7369 		.string	"unsigned char"
 12189      676E6564 
 12189      20636861 
 12189      7200
 12190              	.LASF16:
 12191 083d 5F5F7569 		.string	"__uint32_t"
 12191      6E743332 
 12191      5F7400
 12192              	.LASF43:
 12193 0848 77616974 		.string	"waiting"
 12193      696E6700 
 12194              	.LASF121:
 12195 0850 66756E63 		.string	"funcp"
 12195      7000
 12196              	.LASF88:
 12197 0856 76697274 		.string	"virtual_timers_list_t"
 12197      75616C5F 
 12197      74696D65 
 12197      72735F6C 
 12197      6973745F 
 12198              	.LASF184:
 12199 086c 706F7274 		.string	"port_lock"
 12199      5F6C6F63 
 12199      6B00
 12200              	.LASF133:
 12201 0876 74696D65 		.string	"timeout"
 12201      6F757400 
 12202              	.LASF148:
 12203 087e 63685468 		.string	"chThdSleep"
 12203      64536C65 
 12203      657000
 12204              	.LASF127:
 12205 0889 63685363 		.string	"chSchWakeupS"
 12205      6857616B 
 12205      65757053 
 12205      00
 12206              	.LASF58:
 12207 0896 6D61696E 		.string	"mainthread"
 12207      74687265 
 12207      616400
 12208              	.LASF36:
 12209 08a1 73746174 		.string	"state"
 12209      6500
 12210              	.LASF48:
 12211 08a7 6F735F69 		.string	"os_instance_t"
 12211      6E737461 
 12211      6E63655F 
 12211      7400
 12212              	.LASF80:
 12213 08b5 72656778 		.string	"regx86"
 12213      383600
 12214              	.LASF53:
 12215 08bc 7265676C 		.string	"reglist"
GAS LISTING /tmp/cctFPqVW.s 			page 226


 12215      69737400 
 12216              	.LASF101:
 12217 08c4 77747472 		.string	"wttrp"
 12217      7000
 12218              	.LASF11:
 12219 08ca 7369676E 		.string	"signed char"
 12219      65642063 
 12219      68617200 
 12220              	.LASF191:
 12221 08d6 63685F6C 		.string	"ch_list_link"
 12221      6973745F 
 12221      6C696E6B 
 12221      00
 12222              	.LASF79:
 12223 08e3 64656C74 		.string	"delta"
 12223      6100
 12224              	.LASF3:
 12225 08e9 73686F72 		.string	"short unsigned int"
 12225      7420756E 
 12225      7369676E 
 12225      65642069 
 12225      6E7400
 12226              	.LASF131:
 12227 08fc 63685468 		.string	"chThdDequeueAllI"
 12227      64446571 
 12227      75657565 
 12227      416C6C49 
 12227      00
 12228              	.LASF109:
 12229 090d 63757272 		.string	"current"
 12229      656E7400 
 12230              	.LASF136:
 12231 0915 5F5F6675 		.string	"__func__"
 12231      6E635F5F 
 12231      00
 12232              	.LASF175:
 12233 091e 63685468 		.string	"chThdObjectInit"
 12233      644F626A 
 12233      65637449 
 12233      6E697400 
 12234              	.LASF150:
 12235 092e 63685468 		.string	"chThdSetPriority"
 12235      64536574 
 12235      5072696F 
 12235      72697479 
 12235      00
 12236              	.LASF183:
 12237 093f 706F7274 		.string	"port_unlock"
 12237      5F756E6C 
 12237      6F636B00 
 12238              	.LASF164:
 12239 094b 64657363 		.string	"desc"
 12239      00
 12240              	.LASF99:
 12241 0950 65786974 		.string	"exitcode"
 12241      636F6465 
 12241      00
GAS LISTING /tmp/cctFPqVW.s 			page 227


 12242              	.LASF141:
 12243 0959 63685468 		.string	"chThdSuspendTimeoutS"
 12243      64537573 
 12243      70656E64 
 12243      54696D65 
 12243      6F757453 
 12244              	.LASF173:
 12245 096e 63685468 		.string	"chThdSpawnSuspendedI"
 12245      64537061 
 12245      776E5375 
 12245      7370656E 
 12245      64656449 
 12246              	.LASF31:
 12247 0983 636F7265 		.string	"core_id_t"
 12247      5F69645F 
 12247      7400
 12248              	.LASF199:
 12249 098d 63685468 		.string	"chThdQueueObjectDispose"
 12249      64517565 
 12249      75654F62 
 12249      6A656374 
 12249      44697370 
 12250              	.LASF165:
 12251 09a5 73617665 		.string	"savebp"
 12251      627000
 12252              		.section	.debug_line_str,"MS",@progbits,1
 12253              	.LASF0:
 12254 0000 2E2E2F2E 		.string	"../../../os/rt/src/chthreads.c"
 12254      2E2F2E2E 
 12254      2F6F732F 
 12254      72742F73 
 12254      72632F63 
 12255              	.LASF1:
 12256 001f 2F686F6D 		.string	"/home/alex/ChibiOS/demos/various/LAB2_VARIANT3"
 12256      652F616C 
 12256      65782F43 
 12256      68696269 
 12256      4F532F64 
 12257              		.ident	"GCC: (Ubuntu 11.4.0-1ubuntu1~22.04) 11.4.0"
 12258 004e 2F686F6D 		.section	.note.GNU-stack,"",@progbits
 12258      652F616C 
 12258      65782F43 
 12258      68696269 
 12258      4F532F64 
GAS LISTING /tmp/cctFPqVW.s 			page 228


DEFINED SYMBOLS
                            *ABS*:0000000000000000 chthreads.c
     /tmp/cctFPqVW.s:9      .text.chThdObjectInit:0000000000000000 chThdObjectInit
     /tmp/cctFPqVW.s:4049   .text.__x86.get_pc_thunk.si:0000000000000000 __x86.get_pc_thunk.si
     /tmp/cctFPqVW.s:144    .text.chThdObjectDispose:0000000000000000 chThdObjectDispose
     /tmp/cctFPqVW.s:170    .text.chThdSpawnSuspendedI:0000000000000000 chThdSpawnSuspendedI
     /tmp/cctFPqVW.s:4038   .text.__x86.get_pc_thunk.bx:0000000000000000 __x86.get_pc_thunk.bx
     /tmp/cctFPqVW.s:446    .text.chThdSpawnSuspended:0000000000000000 chThdSpawnSuspended
     /tmp/cctFPqVW.s:513    .text.chThdSpawnRunningI:0000000000000000 chThdSpawnRunningI
     /tmp/cctFPqVW.s:554    .text.chThdSpawnRunning:0000000000000000 chThdSpawnRunning
     /tmp/cctFPqVW.s:675    .text.chThdCreateSuspendedI:0000000000000000 chThdCreateSuspendedI
     /tmp/cctFPqVW.s:4060   .text.__x86.get_pc_thunk.di:0000000000000000 __x86.get_pc_thunk.di
     /tmp/cctFPqVW.s:984    .text.chThdCreateSuspended:0000000000000000 chThdCreateSuspended
     /tmp/cctFPqVW.s:1045   .text.chThdCreateI:0000000000000000 chThdCreateI
     /tmp/cctFPqVW.s:1084   .text.chThdCreate:0000000000000000 chThdCreate
     /tmp/cctFPqVW.s:1208   .text.chThdCreateStatic:0000000000000000 chThdCreateStatic
     /tmp/cctFPqVW.s:1569   .text.chThdStart:0000000000000000 chThdStart
     /tmp/cctFPqVW.s:1679   .text.chThdAddRef:0000000000000000 chThdAddRef
     /tmp/cctFPqVW.s:4016   .text.__x86.get_pc_thunk.dx:0000000000000000 __x86.get_pc_thunk.dx
     /tmp/cctFPqVW.s:1728   .text.chThdRelease:0000000000000000 chThdRelease
     /tmp/cctFPqVW.s:4027   .text.__x86.get_pc_thunk.cx:0000000000000000 __x86.get_pc_thunk.cx
     /tmp/cctFPqVW.s:1866   .text.chThdExitS:0000000000000000 chThdExitS
     /tmp/cctFPqVW.s:2048   .text.chThdExit:0000000000000000 chThdExit
     /tmp/cctFPqVW.s:4005   .text.__x86.get_pc_thunk.ax:0000000000000000 __x86.get_pc_thunk.ax
     /tmp/cctFPqVW.s:2083   .text.chThdWait:0000000000000000 chThdWait
     /tmp/cctFPqVW.s:2389   .text.chThdSetPriority:0000000000000000 chThdSetPriority
     /tmp/cctFPqVW.s:2536   .text.chThdTerminate:0000000000000000 chThdTerminate
     /tmp/cctFPqVW.s:2581   .text.chThdSleep:0000000000000000 chThdSleep
     /tmp/cctFPqVW.s:2683   .text.chThdSleepUntil:0000000000000000 chThdSleepUntil
     /tmp/cctFPqVW.s:2870   .text.chThdSleepUntilWindowed:0000000000000000 chThdSleepUntilWindowed
     /tmp/cctFPqVW.s:3122   .text.chThdYield:0000000000000000 chThdYield
     /tmp/cctFPqVW.s:3203   .text.chThdSuspendS:0000000000000000 chThdSuspendS
     /tmp/cctFPqVW.s:3280   .text.chThdSuspendTimeoutS:0000000000000000 chThdSuspendTimeoutS
     /tmp/cctFPqVW.s:3364   .text.chThdResumeI:0000000000000000 chThdResumeI
     /tmp/cctFPqVW.s:3428   .text.chThdResumeS:0000000000000000 chThdResumeS
     /tmp/cctFPqVW.s:3488   .text.chThdResume:0000000000000000 chThdResume
     /tmp/cctFPqVW.s:3613   .text.chThdQueueObjectInit:0000000000000000 chThdQueueObjectInit
     /tmp/cctFPqVW.s:3648   .text.chThdQueueObjectDispose:0000000000000000 chThdQueueObjectDispose
     /tmp/cctFPqVW.s:3659   .text.chThdEnqueueTimeoutS:0000000000000000 chThdEnqueueTimeoutS
     /tmp/cctFPqVW.s:3770   .text.chThdDequeueNextI:0000000000000000 chThdDequeueNextI
     /tmp/cctFPqVW.s:3874   .text.chThdDequeueAllI:0000000000000000 chThdDequeueAllI
     /tmp/cctFPqVW.s:1202   .rodata.chThdCreateStatic.str1.1:0000000000000000 .LC0

UNDEFINED SYMBOLS
_GLOBAL_OFFSET_TABLE_
ch0
_port_thread_start
port_irq_sts
chSchReadyI
chSchWakeupS
chSchGoSleepS
chSchRescheduleS
chSchGoSleepTimeoutS
chSchDoYieldS
