GAS LISTING /tmp/cctFPqVW.s 			page 1


   1              		.file	"chthreads.c"
   2              		.text
   3              	.Ltext0:
   4              		.file 0 "/home/alex/ChibiOS/demos/various/LAB2_VARIANT3" "../../../os/rt/src/chthreads.c"
   5              		.section	.text.chThdObjectInit,"ax",@progbits
   6              		.p2align 4
   7              		.globl	chThdObjectInit
   8              		.type	chThdObjectInit, @function
   9              	chThdObjectInit:
  10              	.LVL0:
  11              	.LFB215:
  12              		.file 1 "../../../os/rt/src/chthreads.c"
  13              		.loc 1 117 59 view -0
  14              		.cfi_startproc
  15              		.loc 1 119 3 view .LVU1
  16              		.loc 1 119 3 view .LVU2
  17              		.loc 1 119 3 view .LVU3
  18              		.loc 1 120 3 view .LVU4
  19              		.loc 1 120 3 view .LVU5
  20              		.loc 1 120 3 view .LVU6
  21              		.loc 1 123 3 view .LVU7
  22              		.loc 1 117 59 is_stmt 0 view .LVU8
  23 0000 56       		pushl	%esi
  24              		.cfi_def_cfa_offset 8
  25              		.cfi_offset 6, -8
  26 0001 E8FCFFFF 		call	__x86.get_pc_thunk.si
  26      FF
  27 0006 81C60200 		addl	$_GLOBAL_OFFSET_TABLE_, %esi
  27      0000
  28 000c 53       		pushl	%ebx
  29              		.cfi_def_cfa_offset 12
  30              		.cfi_offset 3, -12
  31              		.loc 1 117 59 view .LVU9
  32 000d 8B542410 		movl	16(%esp), %edx
  33 0011 8B44240C 		movl	12(%esp), %eax
  34              		.loc 1 123 14 view .LVU10
  35 0015 8B4A04   		movl	4(%edx), %ecx
  36              		.loc 1 127 30 view .LVU11
  37 0018 8B5A0C   		movl	12(%edx), %ebx
  38              		.loc 1 123 14 view .LVU12
  39 001b 894814   		movl	%ecx, 20(%eax)
  40              		.loc 1 124 3 is_stmt 1 view .LVU13
  41              		.loc 1 124 14 is_stmt 0 view .LVU14
  42 001e 8B4A08   		movl	8(%edx), %ecx
  43              		.loc 1 127 25 view .LVU15
  44 0021 895808   		movl	%ebx, 8(%eax)
  45              		.loc 1 124 14 view .LVU16
  46 0024 894818   		movl	%ecx, 24(%eax)
  47              		.loc 1 127 3 is_stmt 1 view .LVU17
  48              		.loc 1 128 3 view .LVU18
  49              		.loc 1 129 3 view .LVU19
  50              		.loc 1 128 25 is_stmt 0 view .LVU20
  51 0027 B9020000 		movl	$2, %ecx
  51      00
  52 002c 6689481C 		movw	%cx, 28(%eax)
  53              		.loc 1 130 3 is_stmt 1 view .LVU21
  54              		.loc 1 130 10 is_stmt 0 view .LVU22
GAS LISTING /tmp/cctFPqVW.s 			page 2


  55 0030 8B4A18   		movl	24(%edx), %ecx
  56              		.loc 1 130 6 view .LVU23
  57 0033 85C9     		testl	%ecx, %ecx
  58 0035 7441     		je	.L6
  59              	.L2:
  60              		.loc 1 165 25 view .LVU24
  61 0037 C6401E01 		movb	$1, 30(%eax)
  62              		.loc 1 166 25 view .LVU25
  63 003b 8B12     		movl	(%edx), %edx
  64 003d 894810   		movl	%ecx, 16(%eax)
  65              		.loc 1 137 3 is_stmt 1 view .LVU26
  66              		.loc 1 144 3 is_stmt 0 view .LVU27
  67 0040 8D4838   		leal	56(%eax), %ecx
  68              		.loc 1 166 25 view .LVU28
  69 0043 895020   		movl	%edx, 32(%eax)
  70              		.loc 1 171 3 view .LVU29
  71 0046 8D503C   		leal	60(%eax), %edx
  72              		.loc 1 137 25 view .LVU30
  73 0049 C7402C00 		movl	$0, 44(%eax)
  73      000000
  74              		.loc 1 138 3 is_stmt 1 view .LVU31
  75              		.loc 1 138 25 is_stmt 0 view .LVU32
  76 0050 C7403000 		movl	$0, 48(%eax)
  76      000000
  77              		.loc 1 144 3 is_stmt 1 view .LVU33
  78              	.LVL1:
  79              	.LBB233:
  80              	.LBI233:
  81              		.file 2 "../../../os/rt/include/chlists.h"
  82              		.loc 2 213 20 view .LVU34
  83              	.LBB234:
  84              		.loc 2 215 3 view .LVU35
  85              	.LBE234:
  86              	.LBE233:
  87              		.loc 1 144 3 is_stmt 0 view .LVU36
  88 0057 894838   		movl	%ecx, 56(%eax)
  89              	.LVL2:
  90              		.loc 1 149 3 is_stmt 1 view .LVU37
  91              		.loc 1 149 25 is_stmt 0 view .LVU38
  92 005a 89584C   		movl	%ebx, 76(%eax)
  93              		.loc 1 150 3 is_stmt 1 view .LVU39
  94              		.loc 1 150 25 is_stmt 0 view .LVU40
  95 005d C7404800 		movl	$0, 72(%eax)
  95      000000
  96              		.loc 1 155 3 is_stmt 1 view .LVU41
  97              		.loc 1 155 25 is_stmt 0 view .LVU42
  98 0064 C7404400 		movl	$0, 68(%eax)
  98      000000
  99              		.loc 1 165 3 is_stmt 1 view .LVU43
 100              		.loc 1 166 3 view .LVU44
 101              		.loc 1 171 3 view .LVU45
 102              	.LVL3:
 103              	.LBB235:
 104              	.LBI235:
 105              		.loc 2 282 20 view .LVU46
 106              	.LBB236:
 107              		.loc 2 284 3 view .LVU47
GAS LISTING /tmp/cctFPqVW.s 			page 3


 108              		.loc 2 284 12 is_stmt 0 view .LVU48
 109 006b 89503C   		movl	%edx, 60(%eax)
 110              		.loc 2 285 3 is_stmt 1 view .LVU49
 111              		.loc 2 285 12 is_stmt 0 view .LVU50
 112 006e 895040   		movl	%edx, 64(%eax)
 113              	.LVL4:
 114              		.loc 2 285 12 view .LVU51
 115              	.LBE236:
 116              	.LBE235:
 117              		.loc 1 180 3 is_stmt 1 view .LVU52
 118              		.loc 1 180 30 view .LVU53
 119              		.loc 1 182 3 view .LVU54
 120              		.loc 1 183 1 is_stmt 0 view .LVU55
 121 0071 5B       		popl	%ebx
 122              		.cfi_remember_state
 123              		.cfi_restore 3
 124              		.cfi_def_cfa_offset 8
 125 0072 5E       		popl	%esi
 126              		.cfi_restore 6
 127              		.cfi_def_cfa_offset 4
 128 0073 C3       		ret
 129              	.LVL5:
 130              		.p2align 4,,10
 131 0074 8D742600 		.p2align 3
 132              	.L6:
 133              		.cfi_restore_state
 134              		.loc 1 134 25 view .LVU56
 135 0078 8B8E0000 		movl	ch0@GOT(%esi), %ecx
 135      0000
 136 007e EBB7     		jmp	.L2
 137              		.cfi_endproc
 138              	.LFE215:
 139              		.size	chThdObjectInit, .-chThdObjectInit
 140              		.section	.text.chThdObjectDispose,"ax",@progbits
 141              		.p2align 4
 142              		.globl	chThdObjectDispose
 143              		.type	chThdObjectDispose, @function
 144              	chThdObjectDispose:
 145              	.LVL6:
 146              	.LFB216:
 147              		.loc 1 200 39 is_stmt 1 view -0
 148              		.cfi_startproc
 149              		.loc 1 202 3 view .LVU58
 150              		.loc 1 202 3 view .LVU59
 151              		.loc 1 202 3 view .LVU60
 152              		.loc 1 205 3 view .LVU61
 153              		.loc 1 205 3 view .LVU62
 154              		.loc 1 205 3 view .LVU63
 155              		.loc 1 208 3 view .LVU64
 156              		.loc 1 208 3 view .LVU65
 157              		.loc 1 208 3 view .LVU66
 158              		.loc 1 211 3 view .LVU67
 159              		.loc 1 211 3 view .LVU68
 160              		.loc 1 211 3 view .LVU69
 161              		.loc 1 217 1 is_stmt 0 view .LVU70
 162 0000 C3       		ret
 163              		.cfi_endproc
GAS LISTING /tmp/cctFPqVW.s 			page 4


 164              	.LFE216:
 165              		.size	chThdObjectDispose, .-chThdObjectDispose
 166              		.section	.text.chThdSpawnSuspendedI,"ax",@progbits
 167              		.p2align 4
 168              		.globl	chThdSpawnSuspendedI
 169              		.type	chThdSpawnSuspendedI, @function
 170              	chThdSpawnSuspendedI:
 171              	.LVL7:
 172              	.LFB217:
 173              		.loc 1 239 64 is_stmt 1 view -0
 174              		.cfi_startproc
 175              		.loc 1 241 3 view .LVU72
 176              		.loc 1 241 3 view .LVU73
 177              		.loc 1 241 3 view .LVU74
 178              		.loc 1 242 3 view .LVU75
 179              		.loc 1 242 3 view .LVU76
 180              		.loc 1 242 3 view .LVU77
 181              		.loc 1 245 3 view .LVU78
 182              		.loc 1 245 3 view .LVU79
 183              		.loc 1 245 3 view .LVU80
 184              		.loc 1 252 3 view .LVU81
 185              		.loc 1 239 64 is_stmt 0 view .LVU82
 186 0000 55       		pushl	%ebp
 187              		.cfi_def_cfa_offset 8
 188              		.cfi_offset 5, -8
 189 0001 57       		pushl	%edi
 190              		.cfi_def_cfa_offset 12
 191              		.cfi_offset 7, -12
 192 0002 56       		pushl	%esi
 193              		.cfi_def_cfa_offset 16
 194              		.cfi_offset 6, -16
 195              	.LBB246:
 196              	.LBB247:
 197              		.loc 1 128 25 view .LVU83
 198 0003 BE020000 		movl	$2, %esi
 198      00
 199              	.LBE247:
 200              	.LBE246:
 201              		.loc 1 239 64 view .LVU84
 202 0008 53       		pushl	%ebx
 203              		.cfi_def_cfa_offset 20
 204              		.cfi_offset 3, -20
 205              		.loc 1 239 64 view .LVU85
 206 0009 8B4C2418 		movl	24(%esp), %ecx
 207 000d E8FCFFFF 		call	__x86.get_pc_thunk.bx
 207      FF
 208 0012 81C30200 		addl	$_GLOBAL_OFFSET_TABLE_, %ebx
 208      0000
 209 0018 8B442414 		movl	20(%esp), %eax
 210              	.LVL8:
 211              	.LBB257:
 212              	.LBI246:
 213              		.loc 1 116 11 is_stmt 1 view .LVU86
 214              	.LBB254:
 215              		.loc 1 119 3 view .LVU87
 216              		.loc 1 119 3 view .LVU88
 217              		.loc 1 119 3 view .LVU89
GAS LISTING /tmp/cctFPqVW.s 			page 5


 218              		.loc 1 120 3 view .LVU90
 219              		.loc 1 120 3 view .LVU91
 220              		.loc 1 120 3 view .LVU92
 221              		.loc 1 123 3 view .LVU93
 222              		.loc 1 123 14 is_stmt 0 view .LVU94
 223 001c 8B5104   		movl	4(%ecx), %edx
 224              		.loc 1 127 30 view .LVU95
 225 001f 8B790C   		movl	12(%ecx), %edi
 226              		.loc 1 123 14 view .LVU96
 227 0022 895014   		movl	%edx, 20(%eax)
 228              		.loc 1 124 3 is_stmt 1 view .LVU97
 229              		.loc 1 124 27 is_stmt 0 view .LVU98
 230 0025 8B5108   		movl	8(%ecx), %edx
 231              		.loc 1 128 25 view .LVU99
 232 0028 6689701C 		movw	%si, 28(%eax)
 233              		.loc 1 130 10 view .LVU100
 234 002c 8B7118   		movl	24(%ecx), %esi
 235              		.loc 1 124 14 view .LVU101
 236 002f 895018   		movl	%edx, 24(%eax)
 237              		.loc 1 127 3 is_stmt 1 view .LVU102
 238              		.loc 1 127 25 is_stmt 0 view .LVU103
 239 0032 897808   		movl	%edi, 8(%eax)
 240              		.loc 1 128 3 is_stmt 1 view .LVU104
 241              		.loc 1 129 3 view .LVU105
 242              		.loc 1 130 3 view .LVU106
 243              		.loc 1 130 6 is_stmt 0 view .LVU107
 244 0035 85F6     		testl	%esi, %esi
 245 0037 0F84A300 		je	.L12
 245      0000
 246              	.L9:
 247 003d 897010   		movl	%esi, 16(%eax)
 248              		.loc 1 137 3 is_stmt 1 view .LVU108
 249              		.loc 1 144 3 is_stmt 0 view .LVU109
 250 0040 8D7038   		leal	56(%eax), %esi
 251              		.loc 1 165 25 view .LVU110
 252 0043 C6401E01 		movb	$1, 30(%eax)
 253              		.loc 1 144 3 view .LVU111
 254 0047 897038   		movl	%esi, 56(%eax)
 255              		.loc 1 166 25 view .LVU112
 256 004a 8B31     		movl	(%ecx), %esi
 257              		.loc 1 149 25 view .LVU113
 258 004c 89784C   		movl	%edi, 76(%eax)
 259              		.loc 1 166 25 view .LVU114
 260 004f 897020   		movl	%esi, 32(%eax)
 261              		.loc 1 171 3 view .LVU115
 262 0052 8D703C   		leal	60(%eax), %esi
 263              	.LBB248:
 264              	.LBB249:
 265              		.loc 2 285 12 view .LVU116
 266 0055 897040   		movl	%esi, 64(%eax)
 267              		.loc 2 284 12 view .LVU117
 268 0058 89703C   		movl	%esi, 60(%eax)
 269              	.LBE249:
 270              	.LBE248:
 271              	.LBE254:
 272              	.LBE257:
 273              	.LBB258:
GAS LISTING /tmp/cctFPqVW.s 			page 6


 274              		.loc 1 255 3 view .LVU118
 275 005b 8D72FC   		leal	-4(%edx), %esi
 276 005e 83EA0C   		subl	$12, %edx
 277              	.LBE258:
 278              	.LBB259:
 279              	.LBB255:
 280              		.loc 1 137 25 view .LVU119
 281 0061 C7402C00 		movl	$0, 44(%eax)
 281      000000
 282              		.loc 1 138 3 is_stmt 1 view .LVU120
 283              		.loc 1 138 25 is_stmt 0 view .LVU121
 284 0068 C7403000 		movl	$0, 48(%eax)
 284      000000
 285              		.loc 1 144 3 is_stmt 1 view .LVU122
 286              	.LVL9:
 287              	.LBB251:
 288              	.LBI251:
 289              		.loc 2 213 20 view .LVU123
 290              	.LBB252:
 291              		.loc 2 215 3 view .LVU124
 292              		.loc 2 215 3 is_stmt 0 view .LVU125
 293              	.LBE252:
 294              	.LBE251:
 295              		.loc 1 149 3 is_stmt 1 view .LVU126
 296              		.loc 1 150 3 view .LVU127
 297              		.loc 1 150 25 is_stmt 0 view .LVU128
 298 006f C7404800 		movl	$0, 72(%eax)
 298      000000
 299              		.loc 1 155 3 is_stmt 1 view .LVU129
 300              		.loc 1 155 25 is_stmt 0 view .LVU130
 301 0076 C7404400 		movl	$0, 68(%eax)
 301      000000
 302              		.loc 1 165 3 is_stmt 1 view .LVU131
 303              		.loc 1 166 3 view .LVU132
 304              		.loc 1 171 3 view .LVU133
 305              	.LBB253:
 306              	.LBI248:
 307              		.loc 2 282 20 view .LVU134
 308              	.LBB250:
 309              		.loc 2 284 3 view .LVU135
 310              		.loc 2 285 3 view .LVU136
 311              	.LBE250:
 312              	.LBE253:
 313              		.loc 1 180 3 view .LVU137
 314              		.loc 1 180 30 view .LVU138
 315              		.loc 1 182 3 view .LVU139
 316              	.LVL10:
 317              		.loc 1 182 3 is_stmt 0 view .LVU140
 318              	.LBE255:
 319              	.LBE259:
 320              	.LBB260:
 321              		.loc 1 255 3 is_stmt 1 view .LVU141
 322              		.loc 1 255 3 view .LVU142
 323              		.loc 1 255 3 view .LVU143
 324              		.loc 1 255 3 view .LVU144
 325 007d C7420800 		movl	$0, 8(%edx)
 325      000000
GAS LISTING /tmp/cctFPqVW.s 			page 7


 326              		.loc 1 255 3 view .LVU145
 327              		.loc 1 255 3 view .LVU146
 328              	.LVL11:
 329              		.loc 1 255 3 view .LVU147
 330 0084 8B6914   		movl	20(%ecx), %ebp
 331 0087 83E2F0   		andl	$-16, %edx
 332              	.LVL12:
 333              		.loc 1 255 3 view .LVU148
 334              		.loc 1 255 3 view .LVU149
 335              		.loc 1 255 3 view .LVU150
 336 008a 83EA18   		subl	$24, %edx
 337              	.LVL13:
 338              		.loc 1 255 3 is_stmt 0 view .LVU151
 339 008d 896A1C   		movl	%ebp, 28(%edx)
 340              		.loc 1 255 3 is_stmt 1 view .LVU152
 341              		.loc 1 255 3 view .LVU153
 342              		.loc 1 255 3 view .LVU154
 343              	.LVL14:
 344              		.loc 1 255 3 view .LVU155
 345 0090 8B4910   		movl	16(%ecx), %ecx
 346 0093 C7421400 		movl	$0, 20(%edx)
 346      000000
 347 009a 894A18   		movl	%ecx, 24(%edx)
 348              		.loc 1 255 3 view .LVU156
 349              		.loc 1 255 3 view .LVU157
 350              		.loc 1 255 3 view .LVU158
 351              	.LVL15:
 352              		.loc 1 255 3 view .LVU159
 353              		.loc 1 255 3 view .LVU160
 354              		.loc 1 255 3 view .LVU161
 355              		.loc 1 255 3 view .LVU162
 356 009d 8B8B0000 		movl	_port_thread_start@GOT(%ebx), %ecx
 356      0000
 357 00a3 C7020000 		movl	$0, (%edx)
 357      0000
 358 00a9 894A10   		movl	%ecx, 16(%edx)
 359              		.loc 1 255 3 view .LVU163
 360              		.loc 1 255 3 view .LVU164
 361              	.LBE260:
 362              		.loc 1 259 3 is_stmt 0 view .LVU165
 363 00ac 8D4824   		leal	36(%eax), %ecx
 364              	.LBB261:
 365              		.loc 1 255 3 view .LVU166
 366 00af C7420400 		movl	$0, 4(%edx)
 366      000000
 367              		.loc 1 255 3 is_stmt 1 view .LVU167
 368 00b6 C7420800 		movl	$0, 8(%edx)
 368      000000
 369              		.loc 1 255 3 view .LVU168
 370 00bd 89720C   		movl	%esi, 12(%edx)
 371              		.loc 1 255 3 view .LVU169
 372 00c0 89500C   		movl	%edx, 12(%eax)
 373              	.LBE261:
 374              		.loc 1 255 70 view .LVU170
 375              		.loc 1 259 3 view .LVU171
 376 00c3 8B5010   		movl	16(%eax), %edx
 377              	.LVL16:
GAS LISTING /tmp/cctFPqVW.s 			page 8


 378              	.LBB262:
 379              	.LBI262:
 380              		.loc 2 322 20 view .LVU172
 381              	.LBB263:
 382              		.loc 2 324 3 view .LVU173
 383              	.LBE263:
 384              	.LBE262:
 385              		.loc 1 259 3 is_stmt 0 view .LVU174
 386 00c6 8D5A28   		leal	40(%edx), %ebx
 387              	.LVL17:
 388              		.loc 1 259 3 view .LVU175
 389 00c9 895824   		movl	%ebx, 36(%eax)
 390              	.LBB265:
 391              	.LBB264:
 392              		.loc 2 325 3 is_stmt 1 view .LVU176
 393              		.loc 2 325 21 is_stmt 0 view .LVU177
 394 00cc 8B5A2C   		movl	44(%edx), %ebx
 395              	.LVL18:
 396              		.loc 2 325 17 view .LVU178
 397 00cf 895828   		movl	%ebx, 40(%eax)
 398              		.loc 2 326 3 is_stmt 1 view .LVU179
 399              		.loc 2 326 17 is_stmt 0 view .LVU180
 400 00d2 890B     		movl	%ecx, (%ebx)
 401              	.LVL19:
 402              		.loc 2 327 3 is_stmt 1 view .LVU181
 403              		.loc 2 327 17 is_stmt 0 view .LVU182
 404 00d4 894A2C   		movl	%ecx, 44(%edx)
 405              	.LVL20:
 406              		.loc 2 327 17 view .LVU183
 407              	.LBE264:
 408              	.LBE265:
 409              		.loc 1 262 3 is_stmt 1 view .LVU184
 410              		.loc 1 263 1 is_stmt 0 view .LVU185
 411 00d7 5B       		popl	%ebx
 412              		.cfi_remember_state
 413              		.cfi_restore 3
 414              		.cfi_def_cfa_offset 16
 415 00d8 5E       		popl	%esi
 416              		.cfi_restore 6
 417              		.cfi_def_cfa_offset 12
 418              	.LVL21:
 419              		.loc 1 263 1 view .LVU186
 420 00d9 5F       		popl	%edi
 421              		.cfi_restore 7
 422              		.cfi_def_cfa_offset 8
 423 00da 5D       		popl	%ebp
 424              		.cfi_restore 5
 425              		.cfi_def_cfa_offset 4
 426 00db C3       		ret
 427              	.LVL22:
 428 00dc 8D742600 		.p2align 4,,10
 429              		.p2align 3
 430              	.L12:
 431              		.cfi_restore_state
 432              	.LBB266:
 433              	.LBB256:
 434              		.loc 1 134 25 view .LVU187
GAS LISTING /tmp/cctFPqVW.s 			page 9


 435 00e0 8BB30000 		movl	ch0@GOT(%ebx), %esi
 435      0000
 436 00e6 E952FFFF 		jmp	.L9
 436      FF
 437              	.LBE256:
 438              	.LBE266:
 439              		.cfi_endproc
 440              	.LFE217:
 441              		.size	chThdSpawnSuspendedI, .-chThdSpawnSuspendedI
 442              		.section	.text.chThdSpawnSuspended,"ax",@progbits
 443              		.p2align 4
 444              		.globl	chThdSpawnSuspended
 445              		.type	chThdSpawnSuspended, @function
 446              	chThdSpawnSuspended:
 447              	.LVL23:
 448              	.LFB218:
 449              		.loc 1 282 63 is_stmt 1 view -0
 450              		.cfi_startproc
 451              		.loc 1 285 3 view .LVU189
 452              		.loc 1 285 3 view .LVU190
 453              		.loc 1 285 3 view .LVU191
 454              		.loc 1 289 17 view .LVU192
 455              		.loc 1 291 3 view .LVU193
 456              		.loc 1 292 3 view .LVU194
 457              		.loc 1 282 63 is_stmt 0 view .LVU195
 458 0000 53       		pushl	%ebx
 459              		.cfi_def_cfa_offset 8
 460              		.cfi_offset 3, -8
 461 0001 E8FCFFFF 		call	__x86.get_pc_thunk.bx
 461      FF
 462 0006 81C30200 		addl	$_GLOBAL_OFFSET_TABLE_, %ebx
 462      0000
 463              		.loc 1 292 8 view .LVU196
 464 000c FF74240C 		pushl	12(%esp)
 465              		.cfi_def_cfa_offset 12
 466 0010 FF74240C 		pushl	12(%esp)
 467              		.cfi_def_cfa_offset 16
 468 0014 E8FCFFFF 		call	chThdSpawnSuspendedI
 468      FF
 469              	.LVL24:
 470              		.loc 1 293 3 is_stmt 1 view .LVU197
 471              	.LBB267:
 472              	.LBI267:
 473              		.file 3 "../../../os/rt/include/chsys.h"
 474              		.loc 3 421 20 view .LVU198
 475              	.LBB268:
 476              		.loc 3 423 23 view .LVU199
 477              		.loc 3 424 34 view .LVU200
 478              		.loc 3 430 3 view .LVU201
 479              		.loc 3 430 3 view .LVU202
 480              		.loc 3 430 3 view .LVU203
 481              		.loc 3 434 3 view .LVU204
 482              	.LBB269:
 483              	.LBI269:
 484              		.file 4 "../../../os/common/ports/SIMIA32/chcore.h"
 485              		.loc 4 370 20 view .LVU205
 486              	.LBB270:
GAS LISTING /tmp/cctFPqVW.s 			page 10


 487              		.loc 4 372 3 view .LVU206
 488              		.loc 4 372 16 is_stmt 0 view .LVU207
 489 0019 8B930000 		movl	port_irq_sts@GOT(%ebx), %edx
 489      0000
 490 001f C7020000 		movl	$0, (%edx)
 490      0000
 491              	.LBE270:
 492              	.LBE269:
 493              	.LBE268:
 494              	.LBE267:
 495              		.loc 1 295 3 is_stmt 1 view .LVU208
 496              		.loc 1 295 10 is_stmt 0 view .LVU209
 497 0025 5A       		popl	%edx
 498              		.cfi_def_cfa_offset 12
 499 0026 59       		popl	%ecx
 500              		.cfi_def_cfa_offset 8
 501              		.loc 1 296 1 view .LVU210
 502 0027 5B       		popl	%ebx
 503              		.cfi_restore 3
 504              		.cfi_def_cfa_offset 4
 505 0028 C3       		ret
 506              		.cfi_endproc
 507              	.LFE218:
 508              		.size	chThdSpawnSuspended, .-chThdSpawnSuspended
 509              		.section	.text.chThdSpawnRunningI,"ax",@progbits
 510              		.p2align 4
 511              		.globl	chThdSpawnRunningI
 512              		.type	chThdSpawnRunningI, @function
 513              	chThdSpawnRunningI:
 514              	.LVL25:
 515              	.LFB219:
 516              		.loc 1 315 76 is_stmt 1 view -0
 517              		.cfi_startproc
 518              		.loc 1 317 3 view .LVU212
 519              		.loc 1 315 76 is_stmt 0 view .LVU213
 520 0000 53       		pushl	%ebx
 521              		.cfi_def_cfa_offset 8
 522              		.cfi_offset 3, -8
 523 0001 E8FCFFFF 		call	__x86.get_pc_thunk.bx
 523      FF
 524 0006 81C30200 		addl	$_GLOBAL_OFFSET_TABLE_, %ebx
 524      0000
 525 000c 83EC08   		subl	$8, %esp
 526              		.cfi_def_cfa_offset 16
 527              		.loc 1 317 10 view .LVU214
 528 000f FF742414 		pushl	20(%esp)
 529              		.cfi_def_cfa_offset 20
 530 0013 FF742414 		pushl	20(%esp)
 531              		.cfi_def_cfa_offset 24
 532 0017 E8FCFFFF 		call	chThdSpawnSuspendedI
 532      FF
 533              	.LVL26:
 534 001c 83EC04   		subl	$4, %esp
 535              		.cfi_def_cfa_offset 28
 536 001f 50       		pushl	%eax
 537              		.cfi_def_cfa_offset 32
 538 0020 E8FCFFFF 		call	chSchReadyI@PLT
GAS LISTING /tmp/cctFPqVW.s 			page 11


 538      FF
 539              	.LVL27:
 540              		.loc 1 318 1 view .LVU215
 541 0025 83C418   		addl	$24, %esp
 542              		.cfi_def_cfa_offset 8
 543 0028 5B       		popl	%ebx
 544              		.cfi_restore 3
 545              		.cfi_def_cfa_offset 4
 546 0029 C3       		ret
 547              		.cfi_endproc
 548              	.LFE219:
 549              		.size	chThdSpawnRunningI, .-chThdSpawnRunningI
 550              		.section	.text.chThdSpawnRunning,"ax",@progbits
 551              		.p2align 4
 552              		.globl	chThdSpawnRunning
 553              		.type	chThdSpawnRunning, @function
 554              	chThdSpawnRunning:
 555              	.LVL28:
 556              	.LFB220:
 557              		.loc 1 334 75 is_stmt 1 view -0
 558              		.cfi_startproc
 559              		.loc 1 338 3 view .LVU217
 560              		.loc 1 338 3 view .LVU218
 561              		.loc 1 338 3 view .LVU219
 562              		.loc 1 342 17 view .LVU220
 563              		.loc 1 344 3 view .LVU221
 564              	.LBB271:
 565              	.LBI271:
 566              		.loc 3 407 20 view .LVU222
 567              		.loc 3 409 3 view .LVU223
 568              	.LBB272:
 569              	.LBI272:
 570              		.loc 4 361 20 view .LVU224
 571              	.LBB273:
 572              		.loc 4 363 3 view .LVU225
 573              	.LBE273:
 574              	.LBE272:
 575              	.LBE271:
 576              		.loc 1 334 75 is_stmt 0 view .LVU226
 577 0000 57       		pushl	%edi
 578              		.cfi_def_cfa_offset 8
 579              		.cfi_offset 7, -8
 580 0001 56       		pushl	%esi
 581              		.cfi_def_cfa_offset 12
 582              		.cfi_offset 6, -12
 583 0002 53       		pushl	%ebx
 584              		.cfi_def_cfa_offset 16
 585              		.cfi_offset 3, -16
 586 0003 E8FCFFFF 		call	__x86.get_pc_thunk.bx
 586      FF
 587 0008 81C30200 		addl	$_GLOBAL_OFFSET_TABLE_, %ebx
 587      0000
 588              		.loc 1 345 8 view .LVU227
 589 000e FF742414 		pushl	20(%esp)
 590              		.cfi_def_cfa_offset 20
 591 0012 FF742414 		pushl	20(%esp)
 592              		.cfi_def_cfa_offset 24
GAS LISTING /tmp/cctFPqVW.s 			page 12


 593              	.LBB276:
 594              	.LBB275:
 595              	.LBB274:
 596              		.loc 4 363 16 view .LVU228
 597 0016 8BBB0000 		movl	port_irq_sts@GOT(%ebx), %edi
 597      0000
 598 001c C7070100 		movl	$1, (%edi)
 598      0000
 599              	.LBE274:
 600              	.LBE275:
 601              		.loc 3 410 35 is_stmt 1 view .LVU229
 602              		.loc 3 411 21 view .LVU230
 603              	.LBE276:
 604              		.loc 1 345 3 view .LVU231
 605              		.loc 1 345 8 is_stmt 0 view .LVU232
 606 0022 E8FCFFFF 		call	chThdSpawnSuspendedI
 606      FF
 607              	.LVL29:
 608              		.loc 1 346 3 view .LVU233
 609 0027 6A00     		pushl	$0
 610              		.cfi_def_cfa_offset 28
 611 0029 50       		pushl	%eax
 612              		.cfi_def_cfa_offset 32
 613              		.loc 1 345 8 view .LVU234
 614 002a 89C6     		movl	%eax, %esi
 615              	.LVL30:
 616              		.loc 1 346 3 is_stmt 1 view .LVU235
 617 002c E8FCFFFF 		call	chSchWakeupS@PLT
 617      FF
 618              	.LVL31:
 619              		.loc 1 347 3 view .LVU236
 620              	.LBB277:
 621              	.LBI277:
 622              		.loc 3 421 20 view .LVU237
 623              	.LBB278:
 624              		.loc 3 423 23 view .LVU238
 625              		.loc 3 424 34 view .LVU239
 626              		.loc 3 430 3 view .LVU240
 627              		.loc 3 430 3 view .LVU241
 628              		.loc 3 430 3 view .LVU242
 629              		.loc 3 434 3 view .LVU243
 630              	.LBB279:
 631              	.LBI279:
 632              		.loc 4 370 20 view .LVU244
 633              	.LBB280:
 634              		.loc 4 372 3 view .LVU245
 635              	.LBE280:
 636              	.LBE279:
 637              	.LBE278:
 638              	.LBE277:
 639              		.loc 1 349 10 is_stmt 0 view .LVU246
 640 0031 83C410   		addl	$16, %esp
 641              		.cfi_def_cfa_offset 16
 642              		.loc 1 350 1 view .LVU247
 643 0034 89F0     		movl	%esi, %eax
 644              	.LBB284:
 645              	.LBB283:
GAS LISTING /tmp/cctFPqVW.s 			page 13


 646              	.LBB282:
 647              	.LBB281:
 648              		.loc 4 372 16 view .LVU248
 649 0036 C7070000 		movl	$0, (%edi)
 649      0000
 650              	.LBE281:
 651              	.LBE282:
 652              	.LBE283:
 653              	.LBE284:
 654              		.loc 1 349 3 is_stmt 1 view .LVU249
 655              		.loc 1 350 1 is_stmt 0 view .LVU250
 656 003c 5B       		popl	%ebx
 657              		.cfi_restore 3
 658              		.cfi_def_cfa_offset 12
 659 003d 5E       		popl	%esi
 660              		.cfi_restore 6
 661              		.cfi_def_cfa_offset 8
 662              	.LVL32:
 663              		.loc 1 350 1 view .LVU251
 664 003e 5F       		popl	%edi
 665              		.cfi_restore 7
 666              		.cfi_def_cfa_offset 4
 667 003f C3       		ret
 668              		.cfi_endproc
 669              	.LFE220:
 670              		.size	chThdSpawnRunning, .-chThdSpawnRunning
 671              		.section	.text.chThdCreateSuspendedI,"ax",@progbits
 672              		.p2align 4
 673              		.globl	chThdCreateSuspendedI
 674              		.type	chThdCreateSuspendedI, @function
 675              	chThdCreateSuspendedI:
 676              	.LVL33:
 677              	.LFB221:
 678              		.loc 1 372 65 is_stmt 1 view -0
 679              		.cfi_startproc
 680              		.loc 1 373 3 view .LVU253
 681              		.loc 1 374 3 view .LVU254
 682              		.loc 1 376 21 view .LVU255
 683              		.loc 1 379 3 view .LVU256
 684              		.loc 1 379 3 view .LVU257
 685              		.loc 1 379 3 view .LVU258
 686              		.loc 1 384 3 view .LVU259
 687              		.loc 1 384 3 view .LVU260
 688              		.loc 1 384 3 view .LVU261
 689              		.loc 1 390 3 view .LVU262
 690              		.loc 1 372 65 is_stmt 0 view .LVU263
 691 0000 55       		pushl	%ebp
 692              		.cfi_def_cfa_offset 8
 693              		.cfi_offset 5, -8
 694 0001 57       		pushl	%edi
 695              		.cfi_def_cfa_offset 12
 696              		.cfi_offset 7, -12
 697 0002 E8FCFFFF 		call	__x86.get_pc_thunk.di
 697      FF
 698 0007 81C70200 		addl	$_GLOBAL_OFFSET_TABLE_, %edi
 698      0000
 699 000d 56       		pushl	%esi
GAS LISTING /tmp/cctFPqVW.s 			page 14


 700              		.cfi_def_cfa_offset 16
 701              		.cfi_offset 6, -16
 702 000e 53       		pushl	%ebx
 703              		.cfi_def_cfa_offset 20
 704              		.cfi_offset 3, -20
 705 000f 83EC08   		subl	$8, %esp
 706              		.cfi_def_cfa_offset 28
 707              		.loc 1 372 65 view .LVU264
 708 0012 8B5C241C 		movl	28(%esp), %ebx
 709              	.LVL34:
 710              		.loc 1 391 3 is_stmt 1 view .LVU265
 711              		.loc 1 391 27 is_stmt 0 view .LVU266
 712 0016 8B4308   		movl	8(%ebx), %eax
 713              	.LBB294:
 714              	.LBB295:
 715              		.loc 1 123 14 view .LVU267
 716 0019 8B5304   		movl	4(%ebx), %edx
 717              	.LBE295:
 718              	.LBE294:
 719              		.loc 1 391 11 view .LVU268
 720 001c 8D48B0   		leal	-80(%eax), %ecx
 721              	.LBB309:
 722              	.LBB302:
 723              		.loc 1 123 14 view .LVU269
 724 001f 8950C4   		movl	%edx, -60(%eax)
 725              		.loc 1 127 30 view .LVU270
 726 0022 8B530C   		movl	12(%ebx), %edx
 727              	.LBE302:
 728              	.LBE309:
 729              		.loc 1 391 11 view .LVU271
 730 0025 894C2404 		movl	%ecx, 4(%esp)
 731              	.LVL35:
 732              		.loc 1 393 3 is_stmt 1 view .LVU272
 733              		.loc 1 393 3 view .LVU273
 734              		.loc 1 393 3 view .LVU274
 735              		.loc 1 397 3 view .LVU275
 736              	.LBB310:
 737              	.LBI294:
 738              		.loc 1 116 11 view .LVU276
 739              	.LBB303:
 740              		.loc 1 119 3 view .LVU277
 741              		.loc 1 119 3 view .LVU278
 742              		.loc 1 119 3 view .LVU279
 743              		.loc 1 120 3 view .LVU280
 744              		.loc 1 120 3 view .LVU281
 745              		.loc 1 120 3 view .LVU282
 746              		.loc 1 123 3 view .LVU283
 747              		.loc 1 124 3 view .LVU284
 748              		.loc 1 128 25 is_stmt 0 view .LVU285
 749 0029 C640CC02 		movb	$2, -52(%eax)
 750              	.LVL36:
 751              		.loc 1 129 25 view .LVU286
 752 002d C640CD00 		movb	$0, -51(%eax)
 753              		.loc 1 130 10 view .LVU287
 754 0031 8B4B18   		movl	24(%ebx), %ecx
 755              	.LVL37:
 756              		.loc 1 124 14 view .LVU288
GAS LISTING /tmp/cctFPqVW.s 			page 15


 757 0034 8940C8   		movl	%eax, -56(%eax)
 758              		.loc 1 127 3 is_stmt 1 view .LVU289
 759              		.loc 1 127 25 is_stmt 0 view .LVU290
 760 0037 8950B8   		movl	%edx, -72(%eax)
 761              		.loc 1 128 3 is_stmt 1 view .LVU291
 762              		.loc 1 129 3 view .LVU292
 763              		.loc 1 130 3 view .LVU293
 764              		.loc 1 130 6 is_stmt 0 view .LVU294
 765 003a 85C9     		testl	%ecx, %ecx
 766 003c 0F84AE00 		je	.L23
 766      0000
 767              	.L20:
 768              		.loc 1 144 3 view .LVU295
 769 0042 8D70E8   		leal	-24(%eax), %esi
 770              		.loc 1 165 25 view .LVU296
 771 0045 C640CE01 		movb	$1, -50(%eax)
 772              		.loc 1 144 3 view .LVU297
 773 0049 8970E8   		movl	%esi, -24(%eax)
 774              	.LBE303:
 775              	.LBE310:
 776              	.LBB311:
 777              		.loc 1 400 3 view .LVU298
 778 004c 8D70AC   		leal	-84(%eax), %esi
 779              	.LBE311:
 780              	.LBB312:
 781              	.LBB304:
 782              		.loc 1 149 25 view .LVU299
 783 004f 8950FC   		movl	%edx, -4(%eax)
 784              		.loc 1 166 25 view .LVU300
 785 0052 8B13     		movl	(%ebx), %edx
 786              	.LBE304:
 787              	.LBE312:
 788              	.LBB313:
 789              		.loc 1 400 3 view .LVU301
 790 0054 893424   		movl	%esi, (%esp)
 791 0057 8D70A4   		leal	-92(%eax), %esi
 792 005a C740AC00 		movl	$0, -84(%eax)
 792      000000
 793 0061 8B6B14   		movl	20(%ebx), %ebp
 794 0064 83E6F0   		andl	$-16, %esi
 795              	.LBE313:
 796              	.LBB314:
 797              	.LBB305:
 798              		.loc 1 166 25 view .LVU302
 799 0067 8950D0   		movl	%edx, -48(%eax)
 800              		.loc 1 171 3 view .LVU303
 801 006a 8D50EC   		leal	-20(%eax), %edx
 802              	.LBE305:
 803              	.LBE314:
 804              	.LBB315:
 805              		.loc 1 400 3 view .LVU304
 806 006d 83EE18   		subl	$24, %esi
 807              	.LBE315:
 808              	.LBB316:
 809              	.LBB306:
 810              	.LBB296:
 811              	.LBB297:
GAS LISTING /tmp/cctFPqVW.s 			page 16


 812              		.loc 2 285 12 view .LVU305
 813 0070 8950F0   		movl	%edx, -16(%eax)
 814              		.loc 2 284 12 view .LVU306
 815 0073 8950EC   		movl	%edx, -20(%eax)
 816              	.LBE297:
 817              	.LBE296:
 818              	.LBE306:
 819              	.LBE316:
 820              		.loc 1 403 3 view .LVU307
 821 0076 8D50D4   		leal	-44(%eax), %edx
 822 0079 8948C0   		movl	%ecx, -64(%eax)
 823              	.LBB317:
 824              	.LBB307:
 825              		.loc 1 137 3 is_stmt 1 view .LVU308
 826              		.loc 1 137 25 is_stmt 0 view .LVU309
 827 007c C740DC00 		movl	$0, -36(%eax)
 827      000000
 828              		.loc 1 138 3 is_stmt 1 view .LVU310
 829              		.loc 1 138 25 is_stmt 0 view .LVU311
 830 0083 C740E000 		movl	$0, -32(%eax)
 830      000000
 831              		.loc 1 144 3 is_stmt 1 view .LVU312
 832              	.LVL38:
 833              	.LBB299:
 834              	.LBI299:
 835              		.loc 2 213 20 view .LVU313
 836              	.LBB300:
 837              		.loc 2 215 3 view .LVU314
 838              		.loc 2 215 3 is_stmt 0 view .LVU315
 839              	.LBE300:
 840              	.LBE299:
 841              		.loc 1 149 3 is_stmt 1 view .LVU316
 842              		.loc 1 150 3 view .LVU317
 843              		.loc 1 150 25 is_stmt 0 view .LVU318
 844 008a C740F800 		movl	$0, -8(%eax)
 844      000000
 845              		.loc 1 155 3 is_stmt 1 view .LVU319
 846              		.loc 1 155 25 is_stmt 0 view .LVU320
 847 0091 C740F400 		movl	$0, -12(%eax)
 847      000000
 848              		.loc 1 165 3 is_stmt 1 view .LVU321
 849              		.loc 1 166 3 view .LVU322
 850              		.loc 1 171 3 view .LVU323
 851              	.LBB301:
 852              	.LBI296:
 853              		.loc 2 282 20 view .LVU324
 854              	.LBB298:
 855              		.loc 2 284 3 view .LVU325
 856              		.loc 2 285 3 view .LVU326
 857              	.LBE298:
 858              	.LBE301:
 859              		.loc 1 180 3 view .LVU327
 860              		.loc 1 180 30 view .LVU328
 861              		.loc 1 182 3 view .LVU329
 862              	.LVL39:
 863              		.loc 1 182 3 is_stmt 0 view .LVU330
 864              	.LBE307:
GAS LISTING /tmp/cctFPqVW.s 			page 17


 865              	.LBE317:
 866              	.LBB318:
 867              		.loc 1 400 3 is_stmt 1 view .LVU331
 868              		.loc 1 400 3 view .LVU332
 869              		.loc 1 400 3 view .LVU333
 870              		.loc 1 400 3 view .LVU334
 871              		.loc 1 400 3 view .LVU335
 872              		.loc 1 400 3 view .LVU336
 873              		.loc 1 400 3 view .LVU337
 874              		.loc 1 400 3 view .LVU338
 875              		.loc 1 400 3 view .LVU339
 876              		.loc 1 400 3 view .LVU340
 877 0098 896E1C   		movl	%ebp, 28(%esi)
 878              		.loc 1 400 3 view .LVU341
 879              		.loc 1 400 3 view .LVU342
 880              		.loc 1 400 3 view .LVU343
 881              		.loc 1 400 3 view .LVU344
 882 009b 8B5B10   		movl	16(%ebx), %ebx
 883 009e C7461400 		movl	$0, 20(%esi)
 883      000000
 884 00a5 895E18   		movl	%ebx, 24(%esi)
 885              		.loc 1 400 3 view .LVU345
 886              		.loc 1 400 3 view .LVU346
 887              		.loc 1 400 3 view .LVU347
 888              		.loc 1 400 3 view .LVU348
 889              		.loc 1 400 3 view .LVU349
 890              		.loc 1 400 3 view .LVU350
 891              		.loc 1 400 3 view .LVU351
 892 00a8 8B9F0000 		movl	_port_thread_start@GOT(%edi), %ebx
 892      0000
 893 00ae 8B3C24   		movl	(%esp), %edi
 894 00b1 C7060000 		movl	$0, (%esi)
 894      0000
 895 00b7 895E10   		movl	%ebx, 16(%esi)
 896              		.loc 1 400 3 view .LVU352
 897              		.loc 1 400 3 view .LVU353
 898              	.LBE318:
 899              		.loc 1 403 3 is_stmt 0 view .LVU354
 900 00ba 8D5928   		leal	40(%ecx), %ebx
 901              	.LBB319:
 902              		.loc 1 400 3 view .LVU355
 903 00bd 897E0C   		movl	%edi, 12(%esi)
 904 00c0 C7460400 		movl	$0, 4(%esi)
 904      000000
 905              		.loc 1 400 3 is_stmt 1 view .LVU356
 906 00c7 C7460800 		movl	$0, 8(%esi)
 906      000000
 907              		.loc 1 400 3 view .LVU357
 908              		.loc 1 400 3 view .LVU358
 909              	.LBE319:
 910              		.loc 1 403 3 is_stmt 0 view .LVU359
 911 00ce 8958D4   		movl	%ebx, -44(%eax)
 912              	.LBB320:
 913              	.LBB321:
 914              		.loc 2 325 21 view .LVU360
 915 00d1 8B592C   		movl	44(%ecx), %ebx
 916              	.LBE321:
GAS LISTING /tmp/cctFPqVW.s 			page 18


 917              	.LBE320:
 918              	.LBB323:
 919              		.loc 1 400 3 view .LVU361
 920 00d4 8970BC   		movl	%esi, -68(%eax)
 921              	.LBE323:
 922              		.loc 1 400 60 is_stmt 1 view .LVU362
 923              		.loc 1 403 3 view .LVU363
 924              	.LVL40:
 925              	.LBB324:
 926              	.LBI320:
 927              		.loc 2 322 20 view .LVU364
 928              	.LBB322:
 929              		.loc 2 324 3 view .LVU365
 930              		.loc 2 325 3 view .LVU366
 931              		.loc 2 325 17 is_stmt 0 view .LVU367
 932 00d7 8958D8   		movl	%ebx, -40(%eax)
 933              		.loc 2 326 3 is_stmt 1 view .LVU368
 934              		.loc 2 326 17 is_stmt 0 view .LVU369
 935 00da 8913     		movl	%edx, (%ebx)
 936              	.LVL41:
 937              		.loc 2 327 3 is_stmt 1 view .LVU370
 938              		.loc 2 327 17 is_stmt 0 view .LVU371
 939 00dc 89512C   		movl	%edx, 44(%ecx)
 940              	.LVL42:
 941              		.loc 2 327 17 view .LVU372
 942              	.LBE322:
 943              	.LBE324:
 944              		.loc 1 406 3 is_stmt 1 view .LVU373
 945              		.loc 1 407 1 is_stmt 0 view .LVU374
 946 00df 8B442404 		movl	4(%esp), %eax
 947              	.LVL43:
 948              		.loc 1 407 1 view .LVU375
 949 00e3 83C408   		addl	$8, %esp
 950              		.cfi_remember_state
 951              		.cfi_def_cfa_offset 20
 952 00e6 5B       		popl	%ebx
 953              		.cfi_restore 3
 954              		.cfi_def_cfa_offset 16
 955 00e7 5E       		popl	%esi
 956              		.cfi_restore 6
 957              		.cfi_def_cfa_offset 12
 958 00e8 5F       		popl	%edi
 959              		.cfi_restore 7
 960              		.cfi_def_cfa_offset 8
 961 00e9 5D       		popl	%ebp
 962              		.cfi_restore 5
 963              		.cfi_def_cfa_offset 4
 964 00ea C3       		ret
 965              	.LVL44:
 966 00eb 8D742600 		.p2align 4,,10
 966      90
 967              		.p2align 3
 968              	.L23:
 969              		.cfi_restore_state
 970              	.LBB325:
 971              	.LBB308:
 972              		.loc 1 134 25 view .LVU376
GAS LISTING /tmp/cctFPqVW.s 			page 19


 973 00f0 8B8F0000 		movl	ch0@GOT(%edi), %ecx
 973      0000
 974 00f6 E947FFFF 		jmp	.L20
 974      FF
 975              	.LBE308:
 976              	.LBE325:
 977              		.cfi_endproc
 978              	.LFE221:
 979              		.size	chThdCreateSuspendedI, .-chThdCreateSuspendedI
 980              		.section	.text.chThdCreateSuspended,"ax",@progbits
 981              		.p2align 4
 982              		.globl	chThdCreateSuspended
 983              		.type	chThdCreateSuspended, @function
 984              	chThdCreateSuspended:
 985              	.LVL45:
 986              	.LFB222:
 987              		.loc 1 426 64 is_stmt 1 view -0
 988              		.cfi_startproc
 989              		.loc 1 427 3 view .LVU378
 990              		.loc 1 430 3 view .LVU379
 991              		.loc 1 430 3 view .LVU380
 992              		.loc 1 430 3 view .LVU381
 993              		.loc 1 438 3 view .LVU382
 994              		.loc 1 439 3 view .LVU383
 995              		.loc 1 426 64 is_stmt 0 view .LVU384
 996 0000 53       		pushl	%ebx
 997              		.cfi_def_cfa_offset 8
 998              		.cfi_offset 3, -8
 999 0001 E8FCFFFF 		call	__x86.get_pc_thunk.bx
 999      FF
 1000 0006 81C30200 		addl	$_GLOBAL_OFFSET_TABLE_, %ebx
 1000      0000
 1001              		.loc 1 439 8 view .LVU385
 1002 000c FF742408 		pushl	8(%esp)
 1003              		.cfi_def_cfa_offset 12
 1004 0010 E8FCFFFF 		call	chThdCreateSuspendedI
 1004      FF
 1005              	.LVL46:
 1006              		.loc 1 440 3 is_stmt 1 view .LVU386
 1007              	.LBB326:
 1008              	.LBI326:
 1009              		.loc 3 421 20 view .LVU387
 1010              	.LBB327:
 1011              		.loc 3 423 23 view .LVU388
 1012              		.loc 3 424 34 view .LVU389
 1013              		.loc 3 430 3 view .LVU390
 1014              		.loc 3 430 3 view .LVU391
 1015              		.loc 3 430 3 view .LVU392
 1016              		.loc 3 434 3 view .LVU393
 1017              	.LBB328:
 1018              	.LBI328:
 1019              		.loc 4 370 20 view .LVU394
 1020              	.LBB329:
 1021              		.loc 4 372 3 view .LVU395
 1022              		.loc 4 372 16 is_stmt 0 view .LVU396
 1023 0015 8B930000 		movl	port_irq_sts@GOT(%ebx), %edx
 1023      0000
GAS LISTING /tmp/cctFPqVW.s 			page 20


 1024 001b C7020000 		movl	$0, (%edx)
 1024      0000
 1025              	.LBE329:
 1026              	.LBE328:
 1027              	.LBE327:
 1028              	.LBE326:
 1029              		.loc 1 442 3 is_stmt 1 view .LVU397
 1030              		.loc 1 442 10 is_stmt 0 view .LVU398
 1031 0021 5A       		popl	%edx
 1032              		.cfi_def_cfa_offset 8
 1033              		.loc 1 443 1 view .LVU399
 1034 0022 5B       		popl	%ebx
 1035              		.cfi_restore 3
 1036              		.cfi_def_cfa_offset 4
 1037 0023 C3       		ret
 1038              		.cfi_endproc
 1039              	.LFE222:
 1040              		.size	chThdCreateSuspended, .-chThdCreateSuspended
 1041              		.section	.text.chThdCreateI,"ax",@progbits
 1042              		.p2align 4
 1043              		.globl	chThdCreateI
 1044              		.type	chThdCreateI, @function
 1045              	chThdCreateI:
 1046              	.LVL47:
 1047              	.LFB223:
 1048              		.loc 1 463 56 is_stmt 1 view -0
 1049              		.cfi_startproc
 1050              		.loc 1 465 3 view .LVU401
 1051              		.loc 1 463 56 is_stmt 0 view .LVU402
 1052 0000 53       		pushl	%ebx
 1053              		.cfi_def_cfa_offset 8
 1054              		.cfi_offset 3, -8
 1055 0001 E8FCFFFF 		call	__x86.get_pc_thunk.bx
 1055      FF
 1056 0006 81C30200 		addl	$_GLOBAL_OFFSET_TABLE_, %ebx
 1056      0000
 1057 000c 83EC08   		subl	$8, %esp
 1058              		.cfi_def_cfa_offset 16
 1059              		.loc 1 465 10 view .LVU403
 1060 000f FF742410 		pushl	16(%esp)
 1061              		.cfi_def_cfa_offset 20
 1062 0013 E8FCFFFF 		call	chThdCreateSuspendedI
 1062      FF
 1063              	.LVL48:
 1064 0018 83EC08   		subl	$8, %esp
 1065              		.cfi_def_cfa_offset 28
 1066 001b 50       		pushl	%eax
 1067              		.cfi_def_cfa_offset 32
 1068 001c E8FCFFFF 		call	chSchReadyI@PLT
 1068      FF
 1069              	.LVL49:
 1070              		.loc 1 466 1 view .LVU404
 1071 0021 83C418   		addl	$24, %esp
 1072              		.cfi_def_cfa_offset 8
 1073 0024 5B       		popl	%ebx
 1074              		.cfi_restore 3
 1075              		.cfi_def_cfa_offset 4
GAS LISTING /tmp/cctFPqVW.s 			page 21


 1076 0025 C3       		ret
 1077              		.cfi_endproc
 1078              	.LFE223:
 1079              		.size	chThdCreateI, .-chThdCreateI
 1080              		.section	.text.chThdCreate,"ax",@progbits
 1081              		.p2align 4
 1082              		.globl	chThdCreate
 1083              		.type	chThdCreate, @function
 1084              	chThdCreate:
 1085              	.LVL50:
 1086              	.LFB224:
 1087              		.loc 1 481 55 is_stmt 1 view -0
 1088              		.cfi_startproc
 1089              		.loc 1 482 3 view .LVU406
 1090              		.loc 1 486 3 view .LVU407
 1091              		.loc 1 486 3 view .LVU408
 1092              		.loc 1 486 3 view .LVU409
 1093              		.loc 1 494 3 view .LVU410
 1094              	.LBB330:
 1095              	.LBI330:
 1096              		.loc 3 407 20 view .LVU411
 1097              		.loc 3 409 3 view .LVU412
 1098              	.LBB331:
 1099              	.LBI331:
 1100              		.loc 4 361 20 view .LVU413
 1101              	.LBB332:
 1102              		.loc 4 363 3 view .LVU414
 1103              	.LBE332:
 1104              	.LBE331:
 1105              	.LBE330:
 1106              		.loc 1 481 55 is_stmt 0 view .LVU415
 1107 0000 57       		pushl	%edi
 1108              		.cfi_def_cfa_offset 8
 1109              		.cfi_offset 7, -8
 1110 0001 56       		pushl	%esi
 1111              		.cfi_def_cfa_offset 12
 1112              		.cfi_offset 6, -12
 1113 0002 53       		pushl	%ebx
 1114              		.cfi_def_cfa_offset 16
 1115              		.cfi_offset 3, -16
 1116 0003 E8FCFFFF 		call	__x86.get_pc_thunk.bx
 1116      FF
 1117 0008 81C30200 		addl	$_GLOBAL_OFFSET_TABLE_, %ebx
 1117      0000
 1118              		.loc 1 495 8 view .LVU416
 1119 000e FF742410 		pushl	16(%esp)
 1120              		.cfi_def_cfa_offset 20
 1121              	.LBB335:
 1122              	.LBB334:
 1123              	.LBB333:
 1124              		.loc 4 363 16 view .LVU417
 1125 0012 8BBB0000 		movl	port_irq_sts@GOT(%ebx), %edi
 1125      0000
 1126 0018 C7070100 		movl	$1, (%edi)
 1126      0000
 1127              	.LBE333:
 1128              	.LBE334:
GAS LISTING /tmp/cctFPqVW.s 			page 22


 1129              		.loc 3 410 35 is_stmt 1 view .LVU418
 1130              		.loc 3 411 21 view .LVU419
 1131              	.LBE335:
 1132              		.loc 1 495 3 view .LVU420
 1133              		.loc 1 495 8 is_stmt 0 view .LVU421
 1134 001e E8FCFFFF 		call	chThdCreateSuspendedI
 1134      FF
 1135              	.LVL51:
 1136              		.loc 1 496 3 view .LVU422
 1137 0023 83EC04   		subl	$4, %esp
 1138              		.cfi_def_cfa_offset 24
 1139 0026 6A00     		pushl	$0
 1140              		.cfi_def_cfa_offset 28
 1141              		.loc 1 495 8 view .LVU423
 1142 0028 89C6     		movl	%eax, %esi
 1143              	.LVL52:
 1144              		.loc 1 496 3 is_stmt 1 view .LVU424
 1145 002a 50       		pushl	%eax
 1146              		.cfi_def_cfa_offset 32
 1147 002b E8FCFFFF 		call	chSchWakeupS@PLT
 1147      FF
 1148              	.LVL53:
 1149              		.loc 1 497 3 view .LVU425
 1150              	.LBB336:
 1151              	.LBI336:
 1152              		.loc 3 421 20 view .LVU426
 1153              	.LBB337:
 1154              		.loc 3 423 23 view .LVU427
 1155              		.loc 3 424 34 view .LVU428
 1156              		.loc 3 430 3 view .LVU429
 1157              		.loc 3 430 3 view .LVU430
 1158              		.loc 3 430 3 view .LVU431
 1159              		.loc 3 434 3 view .LVU432
 1160              	.LBB338:
 1161              	.LBI338:
 1162              		.loc 4 370 20 view .LVU433
 1163              	.LBB339:
 1164              		.loc 4 372 3 view .LVU434
 1165              	.LBE339:
 1166              	.LBE338:
 1167              	.LBE337:
 1168              	.LBE336:
 1169              		.loc 1 499 10 is_stmt 0 view .LVU435
 1170 0030 83C410   		addl	$16, %esp
 1171              		.cfi_def_cfa_offset 16
 1172              		.loc 1 500 1 view .LVU436
 1173 0033 89F0     		movl	%esi, %eax
 1174              	.LBB343:
 1175              	.LBB342:
 1176              	.LBB341:
 1177              	.LBB340:
 1178              		.loc 4 372 16 view .LVU437
 1179 0035 C7070000 		movl	$0, (%edi)
 1179      0000
 1180              	.LBE340:
 1181              	.LBE341:
 1182              	.LBE342:
GAS LISTING /tmp/cctFPqVW.s 			page 23


 1183              	.LBE343:
 1184              		.loc 1 499 3 is_stmt 1 view .LVU438
 1185              		.loc 1 500 1 is_stmt 0 view .LVU439
 1186 003b 5B       		popl	%ebx
 1187              		.cfi_restore 3
 1188              		.cfi_def_cfa_offset 12
 1189 003c 5E       		popl	%esi
 1190              		.cfi_restore 6
 1191              		.cfi_def_cfa_offset 8
 1192              	.LVL54:
 1193              		.loc 1 500 1 view .LVU440
 1194 003d 5F       		popl	%edi
 1195              		.cfi_restore 7
 1196              		.cfi_def_cfa_offset 4
 1197 003e C3       		ret
 1198              		.cfi_endproc
 1199              	.LFE224:
 1200              		.size	chThdCreate, .-chThdCreate
 1201              		.section	.rodata.chThdCreateStatic.str1.1,"aMS",@progbits,1
 1202              	.LC0:
 1203 0000 6E6F6E61 		.string	"noname"
 1203      6D6500
 1204              		.section	.text.chThdCreateStatic,"ax",@progbits
 1205              		.p2align 4
 1206              		.globl	chThdCreateStatic
 1207              		.type	chThdCreateStatic, @function
 1208              	chThdCreateStatic:
 1209              	.LVL55:
 1210              	.LFB225:
 1211              		.loc 1 523 68 is_stmt 1 view -0
 1212              		.cfi_startproc
 1213              		.loc 1 524 3 view .LVU442
 1214              		.loc 1 525 3 view .LVU443
 1215              		.loc 1 528 3 view .LVU444
 1216              		.loc 1 528 3 view .LVU445
 1217              		.loc 1 528 3 view .LVU446
 1218              		.loc 1 532 3 view .LVU447
 1219              		.loc 1 532 3 view .LVU448
 1220              		.loc 1 532 3 view .LVU449
 1221              		.loc 1 537 3 view .LVU450
 1222              		.loc 1 537 3 view .LVU451
 1223              		.loc 1 537 3 view .LVU452
 1224              		.loc 1 542 3 view .LVU453
 1225              		.loc 1 523 68 is_stmt 0 view .LVU454
 1226 0000 55       		pushl	%ebp
 1227              		.cfi_def_cfa_offset 8
 1228              		.cfi_offset 5, -8
 1229 0001 57       		pushl	%edi
 1230              		.cfi_def_cfa_offset 12
 1231              		.cfi_offset 7, -12
 1232 0002 56       		pushl	%esi
 1233              		.cfi_def_cfa_offset 16
 1234              		.cfi_offset 6, -16
 1235 0003 53       		pushl	%ebx
 1236              		.cfi_def_cfa_offset 20
 1237              		.cfi_offset 3, -20
 1238 0004 E8FCFFFF 		call	__x86.get_pc_thunk.bx
GAS LISTING /tmp/cctFPqVW.s 			page 24


 1238      FF
 1239 0009 81C30200 		addl	$_GLOBAL_OFFSET_TABLE_, %ebx
 1239      0000
 1240 000f 83EC14   		subl	$20, %esp
 1241              		.cfi_def_cfa_offset 40
 1242              		.loc 1 523 68 view .LVU455
 1243 0012 8B4C2428 		movl	40(%esp), %ecx
 1244              		.loc 1 542 8 view .LVU456
 1245 0016 8B44242C 		movl	44(%esp), %eax
 1246              		.loc 1 523 68 view .LVU457
 1247 001a 8B542430 		movl	48(%esp), %edx
 1248              	.LBB360:
 1249              		.loc 1 563 3 view .LVU458
 1250 001e 8B6C2438 		movl	56(%esp), %ebp
 1251              	.LBE360:
 1252              		.loc 1 542 8 view .LVU459
 1253 0022 01C8     		addl	%ecx, %eax
 1254              	.LVL56:
 1255              		.loc 1 548 3 is_stmt 1 view .LVU460
 1256              		.loc 1 549 3 view .LVU461
 1257              	.LBB361:
 1258              	.LBB362:
 1259              		.loc 1 123 14 is_stmt 0 view .LVU462
 1260 0024 8948C4   		movl	%ecx, -60(%eax)
 1261              		.loc 1 131 25 view .LVU463
 1262 0027 8B8B0000 		movl	ch0@GOT(%ebx), %ecx
 1262      0000
 1263              	.LVL57:
 1264              		.loc 1 131 25 view .LVU464
 1265              	.LBE362:
 1266              	.LBE361:
 1267              	.LBB373:
 1268              		.loc 1 563 3 view .LVU465
 1269 002d 8D78AC   		leal	-84(%eax), %edi
 1270              	.LBE373:
 1271              		.loc 1 549 11 view .LVU466
 1272 0030 8D70B0   		leal	-80(%eax), %esi
 1273              	.LVL58:
 1274              		.loc 1 550 3 is_stmt 1 view .LVU467
 1275              		.loc 1 550 3 view .LVU468
 1276              		.loc 1 550 3 view .LVU469
 1277              		.loc 1 559 3 view .LVU470
 1278              		.loc 1 560 3 view .LVU471
 1279              	.LBB374:
 1280              	.LBI361:
 1281              		.loc 1 116 11 view .LVU472
 1282              	.LBB369:
 1283              		.loc 1 119 3 view .LVU473
 1284              		.loc 1 119 3 view .LVU474
 1285              		.loc 1 119 3 view .LVU475
 1286              		.loc 1 120 3 view .LVU476
 1287              		.loc 1 120 3 view .LVU477
 1288              		.loc 1 120 3 view .LVU478
 1289              		.loc 1 123 3 view .LVU479
 1290              		.loc 1 124 3 view .LVU480
 1291              		.loc 1 127 25 is_stmt 0 view .LVU481
 1292 0033 8950B8   		movl	%edx, -72(%eax)
GAS LISTING /tmp/cctFPqVW.s 			page 25


 1293              		.loc 1 131 25 view .LVU482
 1294 0036 8948C0   		movl	%ecx, -64(%eax)
 1295              		.loc 1 144 3 view .LVU483
 1296 0039 8D48E8   		leal	-24(%eax), %ecx
 1297 003c 8948E8   		movl	%ecx, -24(%eax)
 1298              	.LBE369:
 1299              	.LBE374:
 1300              	.LBB375:
 1301              		.loc 1 563 3 view .LVU484
 1302 003f 8D48A4   		leal	-92(%eax), %ecx
 1303              	.LBE375:
 1304              	.LBB376:
 1305              	.LBB370:
 1306              		.loc 1 149 25 view .LVU485
 1307 0042 8950FC   		movl	%edx, -4(%eax)
 1308              		.loc 1 166 25 view .LVU486
 1309 0045 8D930000 		leal	.LC0@GOTOFF(%ebx), %edx
 1309      0000
 1310              	.LBE370:
 1311              	.LBE376:
 1312              	.LBB377:
 1313              		.loc 1 563 3 view .LVU487
 1314 004b 83E1F0   		andl	$-16, %ecx
 1315              	.LBE377:
 1316              	.LBB378:
 1317              	.LBB371:
 1318              		.loc 1 166 25 view .LVU488
 1319 004e 8950D0   		movl	%edx, -48(%eax)
 1320              		.loc 1 171 3 view .LVU489
 1321 0051 8D50EC   		leal	-20(%eax), %edx
 1322              	.LBE371:
 1323              	.LBE378:
 1324              	.LBB379:
 1325              		.loc 1 563 3 view .LVU490
 1326 0054 83E918   		subl	$24, %ecx
 1327              	.LBE379:
 1328              	.LBB380:
 1329              	.LBB372:
 1330              	.LBB363:
 1331              	.LBB364:
 1332              		.loc 2 284 12 view .LVU491
 1333 0057 8950EC   		movl	%edx, -20(%eax)
 1334              		.loc 2 285 12 view .LVU492
 1335 005a 8950F0   		movl	%edx, -16(%eax)
 1336              	.LBE364:
 1337              	.LBE363:
 1338              		.loc 1 124 14 view .LVU493
 1339 005d 8940C8   		movl	%eax, -56(%eax)
 1340              		.loc 1 127 3 is_stmt 1 view .LVU494
 1341              		.loc 1 128 3 view .LVU495
 1342              		.loc 1 128 25 is_stmt 0 view .LVU496
 1343 0060 C640CC02 		movb	$2, -52(%eax)
 1344              		.loc 1 129 3 is_stmt 1 view .LVU497
 1345              		.loc 1 129 25 is_stmt 0 view .LVU498
 1346 0064 C640CD00 		movb	$0, -51(%eax)
 1347              		.loc 1 130 3 is_stmt 1 view .LVU499
 1348              		.loc 1 131 5 view .LVU500
GAS LISTING /tmp/cctFPqVW.s 			page 26


 1349              		.loc 1 137 3 view .LVU501
 1350              		.loc 1 137 25 is_stmt 0 view .LVU502
 1351 0068 C740DC00 		movl	$0, -36(%eax)
 1351      000000
 1352              		.loc 1 138 3 is_stmt 1 view .LVU503
 1353              		.loc 1 138 25 is_stmt 0 view .LVU504
 1354 006f C740E000 		movl	$0, -32(%eax)
 1354      000000
 1355              		.loc 1 144 3 is_stmt 1 view .LVU505
 1356              	.LVL59:
 1357              	.LBB366:
 1358              	.LBI366:
 1359              		.loc 2 213 20 view .LVU506
 1360              	.LBB367:
 1361              		.loc 2 215 3 view .LVU507
 1362              		.loc 2 215 3 is_stmt 0 view .LVU508
 1363              	.LBE367:
 1364              	.LBE366:
 1365              		.loc 1 149 3 is_stmt 1 view .LVU509
 1366              		.loc 1 150 3 view .LVU510
 1367              		.loc 1 150 25 is_stmt 0 view .LVU511
 1368 0076 C740F800 		movl	$0, -8(%eax)
 1368      000000
 1369              		.loc 1 155 3 is_stmt 1 view .LVU512
 1370              		.loc 1 155 25 is_stmt 0 view .LVU513
 1371 007d C740F400 		movl	$0, -12(%eax)
 1371      000000
 1372              		.loc 1 165 3 is_stmt 1 view .LVU514
 1373              		.loc 1 165 25 is_stmt 0 view .LVU515
 1374 0084 C640CE01 		movb	$1, -50(%eax)
 1375              		.loc 1 166 3 is_stmt 1 view .LVU516
 1376              		.loc 1 171 3 view .LVU517
 1377              	.LVL60:
 1378              	.LBB368:
 1379              	.LBI363:
 1380              		.loc 2 282 20 view .LVU518
 1381              	.LBB365:
 1382              		.loc 2 284 3 view .LVU519
 1383              		.loc 2 285 3 view .LVU520
 1384              		.loc 2 285 3 is_stmt 0 view .LVU521
 1385              	.LBE365:
 1386              	.LBE368:
 1387              		.loc 1 180 3 is_stmt 1 view .LVU522
 1388              		.loc 1 180 30 view .LVU523
 1389              		.loc 1 182 3 view .LVU524
 1390              		.loc 1 182 3 is_stmt 0 view .LVU525
 1391              	.LBE372:
 1392              	.LBE380:
 1393              	.LBB381:
 1394              		.loc 1 563 3 is_stmt 1 view .LVU526
 1395              		.loc 1 563 3 view .LVU527
 1396              		.loc 1 563 3 view .LVU528
 1397              		.loc 1 563 3 view .LVU529
 1398 0088 C740AC00 		movl	$0, -84(%eax)
 1398      000000
 1399              		.loc 1 563 3 view .LVU530
 1400              		.loc 1 563 3 view .LVU531
GAS LISTING /tmp/cctFPqVW.s 			page 27


 1401              	.LVL61:
 1402              		.loc 1 563 3 view .LVU532
 1403              		.loc 1 563 3 view .LVU533
 1404              		.loc 1 563 3 view .LVU534
 1405              		.loc 1 563 3 view .LVU535
 1406 008f 89691C   		movl	%ebp, 28(%ecx)
 1407              		.loc 1 563 3 view .LVU536
 1408              		.loc 1 563 3 view .LVU537
 1409              		.loc 1 563 3 view .LVU538
 1410              		.loc 1 563 3 view .LVU539
 1411 0092 8B6C2434 		movl	52(%esp), %ebp
 1412 0096 C7411400 		movl	$0, 20(%ecx)
 1412      000000
 1413 009d 896918   		movl	%ebp, 24(%ecx)
 1414              		.loc 1 563 3 view .LVU540
 1415              		.loc 1 563 3 view .LVU541
 1416              		.loc 1 563 3 view .LVU542
 1417              		.loc 1 563 3 view .LVU543
 1418              		.loc 1 563 3 view .LVU544
 1419              		.loc 1 563 3 view .LVU545
 1420              		.loc 1 563 3 view .LVU546
 1421 00a0 8BAB0000 		movl	_port_thread_start@GOT(%ebx), %ebp
 1421      0000
 1422 00a6 896910   		movl	%ebp, 16(%ecx)
 1423              		.loc 1 563 3 view .LVU547
 1424              	.LBE381:
 1425              		.loc 1 568 3 is_stmt 0 view .LVU548
 1426 00a9 8B50C0   		movl	-64(%eax), %edx
 1427              	.LBB382:
 1428              		.loc 1 563 3 view .LVU549
 1429 00ac 89790C   		movl	%edi, 12(%ecx)
 1430              	.LBE382:
 1431              	.LBB383:
 1432              	.LBB384:
 1433              	.LBB385:
 1434              		.loc 4 363 16 view .LVU550
 1435 00af 8BBB0000 		movl	port_irq_sts@GOT(%ebx), %edi
 1435      0000
 1436              	.LVL62:
 1437              		.loc 4 363 16 view .LVU551
 1438              	.LBE385:
 1439              	.LBE384:
 1440              	.LBE383:
 1441              		.loc 1 568 3 view .LVU552
 1442 00b5 8D6A28   		leal	40(%edx), %ebp
 1443              	.LBB390:
 1444              		.loc 1 563 3 view .LVU553
 1445 00b8 C7010000 		movl	$0, (%ecx)
 1445      0000
 1446              		.loc 1 563 3 is_stmt 1 view .LVU554
 1447 00be C7410400 		movl	$0, 4(%ecx)
 1447      000000
 1448              		.loc 1 563 3 view .LVU555
 1449 00c5 C7410800 		movl	$0, 8(%ecx)
 1449      000000
 1450              		.loc 1 563 3 view .LVU556
 1451              		.loc 1 563 3 view .LVU557
GAS LISTING /tmp/cctFPqVW.s 			page 28


 1452 00cc 8948BC   		movl	%ecx, -68(%eax)
 1453              	.LBE390:
 1454              		.loc 1 563 47 view .LVU558
 1455              		.loc 1 565 3 view .LVU559
 1456              	.LBB391:
 1457              	.LBI383:
 1458              		.loc 3 407 20 view .LVU560
 1459              		.loc 3 409 3 view .LVU561
 1460              	.LBB388:
 1461              	.LBI384:
 1462              		.loc 4 361 20 view .LVU562
 1463              	.LBB386:
 1464              		.loc 4 363 3 view .LVU563
 1465              	.LBE386:
 1466              	.LBE388:
 1467              	.LBE391:
 1468              		.loc 1 568 3 is_stmt 0 view .LVU564
 1469 00cf 8D48D4   		leal	-44(%eax), %ecx
 1470              	.LVL63:
 1471              	.LBB392:
 1472              	.LBB389:
 1473              	.LBB387:
 1474              		.loc 4 363 16 view .LVU565
 1475 00d2 C7070100 		movl	$1, (%edi)
 1475      0000
 1476              	.LBE387:
 1477              	.LBE389:
 1478              		.loc 3 410 35 is_stmt 1 view .LVU566
 1479              		.loc 3 411 21 view .LVU567
 1480              	.LBE392:
 1481              		.loc 1 568 3 view .LVU568
 1482              	.LVL64:
 1483              	.LBB393:
 1484              	.LBI393:
 1485              		.loc 2 322 20 view .LVU569
 1486              	.LBB394:
 1487              		.loc 2 324 3 view .LVU570
 1488              	.LBE394:
 1489              	.LBE393:
 1490              		.loc 1 568 3 is_stmt 0 view .LVU571
 1491 00d8 8968D4   		movl	%ebp, -44(%eax)
 1492              	.LBB396:
 1493              	.LBB395:
 1494              		.loc 2 325 3 is_stmt 1 view .LVU572
 1495              		.loc 2 325 21 is_stmt 0 view .LVU573
 1496 00db 8B6A2C   		movl	44(%edx), %ebp
 1497              	.LVL65:
 1498              		.loc 2 325 17 view .LVU574
 1499 00de 8968D8   		movl	%ebp, -40(%eax)
 1500              		.loc 2 326 3 is_stmt 1 view .LVU575
 1501              		.loc 2 326 17 is_stmt 0 view .LVU576
 1502 00e1 894D00   		movl	%ecx, 0(%ebp)
 1503              	.LVL66:
 1504              		.loc 2 327 3 is_stmt 1 view .LVU577
 1505              		.loc 2 327 17 is_stmt 0 view .LVU578
 1506 00e4 894A2C   		movl	%ecx, 44(%edx)
 1507              	.LVL67:
GAS LISTING /tmp/cctFPqVW.s 			page 29


 1508              		.loc 2 327 17 view .LVU579
 1509              	.LBE395:
 1510              	.LBE396:
 1511              		.loc 1 572 3 is_stmt 1 view .LVU580
 1512 00e7 6A00     		pushl	$0
 1513              		.cfi_def_cfa_offset 44
 1514 00e9 56       		pushl	%esi
 1515              		.cfi_def_cfa_offset 48
 1516              	.LVL68:
 1517              		.loc 1 572 3 is_stmt 0 view .LVU581
 1518 00ea E8FCFFFF 		call	chSchWakeupS@PLT
 1518      FF
 1519              	.LVL69:
 1520              		.loc 1 573 3 is_stmt 1 view .LVU582
 1521              	.LBB397:
 1522              	.LBI397:
 1523              		.loc 3 421 20 view .LVU583
 1524              	.LBB398:
 1525              		.loc 3 423 23 view .LVU584
 1526              		.loc 3 424 34 view .LVU585
 1527              		.loc 3 430 3 view .LVU586
 1528              		.loc 3 430 3 view .LVU587
 1529              		.loc 3 430 3 view .LVU588
 1530              		.loc 3 434 3 view .LVU589
 1531              	.LBB399:
 1532              	.LBI399:
 1533              		.loc 4 370 20 view .LVU590
 1534              	.LBB400:
 1535              		.loc 4 372 3 view .LVU591
 1536              		.loc 4 372 16 is_stmt 0 view .LVU592
 1537 00ef C7070000 		movl	$0, (%edi)
 1537      0000
 1538              	.LBE400:
 1539              	.LBE399:
 1540              	.LBE398:
 1541              	.LBE397:
 1542              		.loc 1 575 3 is_stmt 1 view .LVU593
 1543              		.loc 1 576 1 is_stmt 0 view .LVU594
 1544 00f5 83C41C   		addl	$28, %esp
 1545              		.cfi_def_cfa_offset 20
 1546 00f8 89F0     		movl	%esi, %eax
 1547 00fa 5B       		popl	%ebx
 1548              		.cfi_restore 3
 1549              		.cfi_def_cfa_offset 16
 1550 00fb 5E       		popl	%esi
 1551              		.cfi_restore 6
 1552              		.cfi_def_cfa_offset 12
 1553              	.LVL70:
 1554              		.loc 1 576 1 view .LVU595
 1555 00fc 5F       		popl	%edi
 1556              		.cfi_restore 7
 1557              		.cfi_def_cfa_offset 8
 1558 00fd 5D       		popl	%ebp
 1559              		.cfi_restore 5
 1560              		.cfi_def_cfa_offset 4
 1561 00fe C3       		ret
 1562              		.cfi_endproc
GAS LISTING /tmp/cctFPqVW.s 			page 30


 1563              	.LFE225:
 1564              		.size	chThdCreateStatic, .-chThdCreateStatic
 1565              		.section	.text.chThdStart,"ax",@progbits
 1566              		.p2align 4
 1567              		.globl	chThdStart
 1568              		.type	chThdStart, @function
 1569              	chThdStart:
 1570              	.LVL71:
 1571              	.LFB226:
 1572              		.loc 1 586 36 is_stmt 1 view -0
 1573              		.cfi_startproc
 1574              		.loc 1 588 3 view .LVU597
 1575              	.LBB401:
 1576              	.LBI401:
 1577              		.loc 3 407 20 view .LVU598
 1578              		.loc 3 409 3 view .LVU599
 1579              	.LBB402:
 1580              	.LBI402:
 1581              		.loc 4 361 20 view .LVU600
 1582              	.LBB403:
 1583              		.loc 4 363 3 view .LVU601
 1584              	.LBE403:
 1585              	.LBE402:
 1586              	.LBE401:
 1587              		.loc 1 586 36 is_stmt 0 view .LVU602
 1588 0000 57       		pushl	%edi
 1589              		.cfi_def_cfa_offset 8
 1590              		.cfi_offset 7, -8
 1591 0001 56       		pushl	%esi
 1592              		.cfi_def_cfa_offset 12
 1593              		.cfi_offset 6, -12
 1594 0002 53       		pushl	%ebx
 1595              		.cfi_def_cfa_offset 16
 1596              		.cfi_offset 3, -16
 1597              		.loc 1 586 36 view .LVU603
 1598 0003 8B742410 		movl	16(%esp), %esi
 1599 0007 E8FCFFFF 		call	__x86.get_pc_thunk.bx
 1599      FF
 1600 000c 81C30200 		addl	$_GLOBAL_OFFSET_TABLE_, %ebx
 1600      0000
 1601              		.loc 1 590 3 view .LVU604
 1602 0012 83EC08   		subl	$8, %esp
 1603              		.cfi_def_cfa_offset 24
 1604 0015 6A00     		pushl	$0
 1605              		.cfi_def_cfa_offset 28
 1606 0017 56       		pushl	%esi
 1607              		.cfi_def_cfa_offset 32
 1608              	.LBB406:
 1609              	.LBB405:
 1610              	.LBB404:
 1611              		.loc 4 363 16 view .LVU605
 1612 0018 8BBB0000 		movl	port_irq_sts@GOT(%ebx), %edi
 1612      0000
 1613 001e C7070100 		movl	$1, (%edi)
 1613      0000
 1614              	.LBE404:
 1615              	.LBE405:
GAS LISTING /tmp/cctFPqVW.s 			page 31


 1616              		.loc 3 410 35 is_stmt 1 view .LVU606
 1617              		.loc 3 411 21 view .LVU607
 1618              	.LBE406:
 1619              		.loc 1 589 3 view .LVU608
 1620              		.loc 1 589 3 view .LVU609
 1621              		.loc 1 589 3 view .LVU610
 1622              		.loc 1 590 3 view .LVU611
 1623 0024 E8FCFFFF 		call	chSchWakeupS@PLT
 1623      FF
 1624              	.LVL72:
 1625              		.loc 1 591 3 view .LVU612
 1626              	.LBB407:
 1627              	.LBI407:
 1628              		.loc 3 421 20 view .LVU613
 1629              	.LBB408:
 1630              		.loc 3 423 23 view .LVU614
 1631              		.loc 3 424 34 view .LVU615
 1632              		.loc 3 430 3 view .LVU616
 1633              		.loc 3 430 3 view .LVU617
 1634              		.loc 3 430 3 view .LVU618
 1635              		.loc 3 434 3 view .LVU619
 1636              	.LBB409:
 1637              	.LBI409:
 1638              		.loc 4 370 20 view .LVU620
 1639              	.LBB410:
 1640              		.loc 4 372 3 view .LVU621
 1641              	.LBE410:
 1642              	.LBE409:
 1643              	.LBE408:
 1644              	.LBE407:
 1645              		.loc 1 593 10 is_stmt 0 view .LVU622
 1646 0029 83C410   		addl	$16, %esp
 1647              		.cfi_def_cfa_offset 16
 1648              		.loc 1 594 1 view .LVU623
 1649 002c 89F0     		movl	%esi, %eax
 1650              	.LBB414:
 1651              	.LBB413:
 1652              	.LBB412:
 1653              	.LBB411:
 1654              		.loc 4 372 16 view .LVU624
 1655 002e C7070000 		movl	$0, (%edi)
 1655      0000
 1656              	.LBE411:
 1657              	.LBE412:
 1658              	.LBE413:
 1659              	.LBE414:
 1660              		.loc 1 593 3 is_stmt 1 view .LVU625
 1661              		.loc 1 594 1 is_stmt 0 view .LVU626
 1662 0034 5B       		popl	%ebx
 1663              		.cfi_restore 3
 1664              		.cfi_def_cfa_offset 12
 1665 0035 5E       		popl	%esi
 1666              		.cfi_restore 6
 1667              		.cfi_def_cfa_offset 8
 1668 0036 5F       		popl	%edi
 1669              		.cfi_restore 7
 1670              		.cfi_def_cfa_offset 4
GAS LISTING /tmp/cctFPqVW.s 			page 32


 1671 0037 C3       		ret
 1672              		.cfi_endproc
 1673              	.LFE226:
 1674              		.size	chThdStart, .-chThdStart
 1675              		.section	.text.chThdAddRef,"ax",@progbits
 1676              		.p2align 4
 1677              		.globl	chThdAddRef
 1678              		.type	chThdAddRef, @function
 1679              	chThdAddRef:
 1680              	.LVL73:
 1681              	.LFB227:
 1682              		.loc 1 608 37 is_stmt 1 view -0
 1683              		.cfi_startproc
 1684              		.loc 1 610 3 view .LVU628
 1685              		.loc 1 611 3 view .LVU629
 1686              		.loc 1 611 3 view .LVU630
 1687              		.loc 1 611 3 view .LVU631
 1688              		.loc 1 612 3 view .LVU632
 1689 0000 E8FCFFFF 		call	__x86.get_pc_thunk.dx
 1689      FF
 1690 0005 81C20200 		addl	$_GLOBAL_OFFSET_TABLE_, %edx
 1690      0000
 1691              		.loc 1 608 37 is_stmt 0 view .LVU633
 1692 000b 8B442404 		movl	4(%esp), %eax
 1693              		.loc 1 612 11 view .LVU634
 1694 000f 80401E01 		addb	$1, 30(%eax)
 1695              		.loc 1 613 3 is_stmt 1 view .LVU635
 1696              	.LBB415:
 1697              	.LBI415:
 1698              		.loc 3 421 20 view .LVU636
 1699              	.LBB416:
 1700              		.loc 3 423 23 view .LVU637
 1701              		.loc 3 424 34 view .LVU638
 1702              		.loc 3 430 3 view .LVU639
 1703              		.loc 3 430 3 view .LVU640
 1704              		.loc 3 430 3 view .LVU641
 1705              		.loc 3 434 3 view .LVU642
 1706              	.LBB417:
 1707              	.LBI417:
 1708              		.loc 4 370 20 view .LVU643
 1709              	.LBB418:
 1710              		.loc 4 372 3 view .LVU644
 1711              		.loc 4 372 16 is_stmt 0 view .LVU645
 1712 0013 8B920000 		movl	port_irq_sts@GOT(%edx), %edx
 1712      0000
 1713 0019 C7020000 		movl	$0, (%edx)
 1713      0000
 1714              	.LBE418:
 1715              	.LBE417:
 1716              	.LBE416:
 1717              	.LBE415:
 1718              		.loc 1 615 3 is_stmt 1 view .LVU646
 1719              		.loc 1 616 1 is_stmt 0 view .LVU647
 1720 001f C3       		ret
 1721              		.cfi_endproc
 1722              	.LFE227:
 1723              		.size	chThdAddRef, .-chThdAddRef
GAS LISTING /tmp/cctFPqVW.s 			page 33


 1724              		.section	.text.chThdRelease,"ax",@progbits
 1725              		.p2align 4
 1726              		.globl	chThdRelease
 1727              		.type	chThdRelease, @function
 1728              	chThdRelease:
 1729              	.LVL74:
 1730              	.LFB228:
 1731              		.loc 1 634 33 is_stmt 1 view -0
 1732              		.cfi_startproc
 1733              		.loc 1 636 3 view .LVU649
 1734              		.loc 1 637 3 view .LVU650
 1735              		.loc 1 637 3 view .LVU651
 1736              		.loc 1 637 3 view .LVU652
 1737              		.loc 1 638 3 view .LVU653
 1738 0000 E8FCFFFF 		call	__x86.get_pc_thunk.cx
 1738      FF
 1739 0005 81C10200 		addl	$_GLOBAL_OFFSET_TABLE_, %ecx
 1739      0000
 1740              		.loc 1 634 33 is_stmt 0 view .LVU654
 1741 000b 53       		pushl	%ebx
 1742              		.cfi_def_cfa_offset 8
 1743              		.cfi_offset 3, -8
 1744              		.loc 1 634 33 view .LVU655
 1745 000c 8B442408 		movl	8(%esp), %eax
 1746              		.loc 1 638 11 view .LVU656
 1747 0010 80681E01 		subb	$1, 30(%eax)
 1748              		.loc 1 643 3 is_stmt 1 view .LVU657
 1749              		.loc 1 643 32 is_stmt 0 view .LVU658
 1750 0014 8B501C   		movl	28(%eax), %edx
 1751 0017 81E2FF00 		andl	$16711935, %edx
 1751      FF00
 1752              		.loc 1 643 6 view .LVU659
 1753 001d 83FA0F   		cmpl	$15, %edx
 1754 0020 740E     		je	.L42
 1755              		.loc 1 658 3 is_stmt 1 view .LVU660
 1756              	.LBB442:
 1757              	.LBI442:
 1758              		.loc 3 421 20 view .LVU661
 1759              	.LBB443:
 1760              		.loc 3 423 23 view .LVU662
 1761              		.loc 3 424 34 view .LVU663
 1762              		.loc 3 430 3 view .LVU664
 1763              		.loc 3 430 3 view .LVU665
 1764              		.loc 3 430 3 view .LVU666
 1765              		.loc 3 434 3 view .LVU667
 1766              	.LBB444:
 1767              	.LBI444:
 1768              		.loc 4 370 20 view .LVU668
 1769              	.LBB445:
 1770              		.loc 4 372 3 view .LVU669
 1771              		.loc 4 372 16 is_stmt 0 view .LVU670
 1772 0022 8B810000 		movl	port_irq_sts@GOT(%ecx), %eax
 1772      0000
 1773 0028 C7000000 		movl	$0, (%eax)
 1773      0000
 1774              	.L35:
 1775              	.LBE445:
GAS LISTING /tmp/cctFPqVW.s 			page 34


 1776              	.LBE444:
 1777              	.LBE443:
 1778              	.LBE442:
 1779              		.loc 1 659 1 view .LVU671
 1780 002e 5B       		popl	%ebx
 1781              		.cfi_remember_state
 1782              		.cfi_restore 3
 1783              		.cfi_def_cfa_offset 4
 1784 002f C3       		ret
 1785              	.LVL75:
 1786              		.p2align 4,,10
 1787              		.p2align 3
 1788              	.L42:
 1789              		.cfi_restore_state
 1790              	.LBB446:
 1791              	.LBI446:
 1792              		.loc 1 634 6 is_stmt 1 view .LVU672
 1793              	.LBB447:
 1794              		.loc 1 646 5 view .LVU673
 1795              	.LBB448:
 1796              	.LBI448:
 1797              		.loc 2 378 27 view .LVU674
 1798              	.LBB449:
 1799              		.loc 2 380 3 view .LVU675
 1800              		.loc 2 380 20 is_stmt 0 view .LVU676
 1801 0030 8B5024   		movl	36(%eax), %edx
 1802              		.loc 2 380 4 view .LVU677
 1803 0033 8B5828   		movl	40(%eax), %ebx
 1804              		.loc 2 380 17 view .LVU678
 1805 0036 8913     		movl	%edx, (%ebx)
 1806              		.loc 2 381 3 is_stmt 1 view .LVU679
 1807              		.loc 2 381 17 is_stmt 0 view .LVU680
 1808 0038 895A04   		movl	%ebx, 4(%edx)
 1809              		.loc 2 383 3 is_stmt 1 view .LVU681
 1810              	.LVL76:
 1811              		.loc 2 383 3 is_stmt 0 view .LVU682
 1812              	.LBE449:
 1813              	.LBE448:
 1814              		.loc 1 647 5 is_stmt 1 view .LVU683
 1815              	.LBB450:
 1816              	.LBI450:
 1817              		.loc 3 421 20 view .LVU684
 1818              	.LBB451:
 1819              		.loc 3 423 23 view .LVU685
 1820              		.loc 3 424 34 view .LVU686
 1821              		.loc 3 430 3 view .LVU687
 1822              		.loc 3 430 3 view .LVU688
 1823              		.loc 3 430 3 view .LVU689
 1824              		.loc 3 434 3 view .LVU690
 1825              	.LBB452:
 1826              	.LBI452:
 1827              		.loc 4 370 20 view .LVU691
 1828              	.LBB453:
 1829              		.loc 4 372 3 view .LVU692
 1830              		.loc 4 372 16 is_stmt 0 view .LVU693
 1831 003b 8B910000 		movl	port_irq_sts@GOT(%ecx), %edx
 1831      0000
GAS LISTING /tmp/cctFPqVW.s 			page 35


 1832 0041 C7020000 		movl	$0, (%edx)
 1832      0000
 1833              	.LBE453:
 1834              	.LBE452:
 1835              	.LBE451:
 1836              	.LBE450:
 1837              		.loc 1 651 5 is_stmt 1 view .LVU694
 1838              		.loc 1 651 11 is_stmt 0 view .LVU695
 1839 0047 8B502C   		movl	44(%eax), %edx
 1840              		.loc 1 651 8 view .LVU696
 1841 004a 85D2     		testl	%edx, %edx
 1842 004c 74E0     		je	.L35
 1843              		.loc 1 652 7 is_stmt 1 view .LVU697
 1844 004e 89442408 		movl	%eax, 8(%esp)
 1845              	.LBE447:
 1846              	.LBE446:
 1847              		.loc 1 659 1 is_stmt 0 view .LVU698
 1848 0052 5B       		popl	%ebx
 1849              		.cfi_restore 3
 1850              		.cfi_def_cfa_offset 4
 1851              	.LBB455:
 1852              	.LBB454:
 1853              		.loc 1 652 7 view .LVU699
 1854 0053 FFE2     		jmp	*%edx
 1855              	.LVL77:
 1856              		.loc 1 652 7 view .LVU700
 1857              	.LBE454:
 1858              	.LBE455:
 1859              		.cfi_endproc
 1860              	.LFE228:
 1861              		.size	chThdRelease, .-chThdRelease
 1862              		.section	.text.chThdExitS,"ax",@progbits
 1863              		.p2align 4
 1864              		.globl	chThdExitS
 1865              		.type	chThdExitS, @function
 1866              	chThdExitS:
 1867              	.LVL78:
 1868              	.LFB230:
 1869              		.loc 1 700 28 is_stmt 1 view -0
 1870              		.cfi_startproc
 1871              		.loc 1 701 3 view .LVU702
 1872              	.LBB456:
 1873              	.LBI456:
 1874              		.file 5 "../../../os/rt/include/chthreads.h"
 1875              		.loc 5 527 25 view .LVU703
 1876              	.LBB457:
 1877              		.loc 5 529 3 view .LVU704
 1878              	.LBE457:
 1879              	.LBE456:
 1880              		.loc 1 700 28 is_stmt 0 view .LVU705
 1881 0000 57       		pushl	%edi
 1882              		.cfi_def_cfa_offset 8
 1883              		.cfi_offset 7, -8
 1884 0001 56       		pushl	%esi
 1885              		.cfi_def_cfa_offset 12
 1886              		.cfi_offset 6, -12
 1887 0002 53       		pushl	%ebx
GAS LISTING /tmp/cctFPqVW.s 			page 36


 1888              		.cfi_def_cfa_offset 16
 1889              		.cfi_offset 3, -16
 1890 0003 E8FCFFFF 		call	__x86.get_pc_thunk.bx
 1890      FF
 1891 0008 81C30200 		addl	$_GLOBAL_OFFSET_TABLE_, %ebx
 1891      0000
 1892              	.LBB459:
 1893              	.LBB458:
 1894              		.loc 5 529 10 view .LVU706
 1895 000e 8B830000 		movl	ch0@GOT(%ebx), %eax
 1895      0000
 1896 0014 8B700C   		movl	12(%eax), %esi
 1897              	.LVL79:
 1898              		.loc 5 529 10 view .LVU707
 1899              	.LBE458:
 1900              	.LBE459:
 1901              		.loc 1 704 3 is_stmt 1 view .LVU708
 1902              		.loc 1 704 22 is_stmt 0 view .LVU709
 1903 0017 8B442410 		movl	16(%esp), %eax
 1904 001b 894634   		movl	%eax, 52(%esi)
 1905              		.loc 1 707 3 is_stmt 1 view .LVU710
 1906              		.loc 1 707 34 view .LVU711
 1907              		.loc 1 711 3 view .LVU712
 1908              		.loc 1 711 10 view .LVU713
 1909              	.LBB460:
 1910              	.LBB461:
 1911              		.loc 2 241 19 is_stmt 0 view .LVU714
 1912 001e 8B4638   		movl	56(%esi), %eax
 1913              	.LBE461:
 1914              	.LBE460:
 1915              		.loc 1 711 10 view .LVU715
 1916 0021 8D7E38   		leal	56(%esi), %edi
 1917              	.LVL80:
 1918              	.LBB464:
 1919              	.LBI460:
 1920              		.loc 2 239 20 is_stmt 1 view .LVU716
 1921              	.LBB462:
 1922              		.loc 2 241 3 view .LVU717
 1923              		.loc 2 241 3 is_stmt 0 view .LVU718
 1924              	.LBE462:
 1925              	.LBE464:
 1926              		.loc 1 711 10 view .LVU719
 1927 0024 39F8     		cmpl	%edi, %eax
 1928 0026 7420     		je	.L44
 1929 0028 8DB42600 		.p2align 4,,10
 1929      00000090 
 1930              		.p2align 3
 1931              	.L45:
 1932              		.loc 1 712 5 is_stmt 1 view .LVU720
 1933              	.LVL81:
 1934              	.LBB465:
 1935              	.LBI465:
 1936              		.loc 2 267 26 view .LVU721
 1937              	.LBB466:
 1938              		.loc 2 269 3 view .LVU722
 1939              		.loc 2 270 3 view .LVU723
 1940              		.loc 2 270 15 is_stmt 0 view .LVU724
GAS LISTING /tmp/cctFPqVW.s 			page 37


 1941 0030 8B10     		movl	(%eax), %edx
 1942              	.LBE466:
 1943              	.LBE465:
 1944              		.loc 1 712 12 view .LVU725
 1945 0032 83EC0C   		subl	$12, %esp
 1946              		.cfi_def_cfa_offset 28
 1947              	.LBB468:
 1948              	.LBB467:
 1949              		.loc 2 270 12 view .LVU726
 1950 0035 895638   		movl	%edx, 56(%esi)
 1951              		.loc 2 272 3 is_stmt 1 view .LVU727
 1952              	.LVL82:
 1953              		.loc 2 272 3 is_stmt 0 view .LVU728
 1954              	.LBE467:
 1955              	.LBE468:
 1956              		.loc 1 712 12 view .LVU729
 1957 0038 50       		pushl	%eax
 1958              		.cfi_def_cfa_offset 32
 1959 0039 E8FCFFFF 		call	chSchReadyI@PLT
 1959      FF
 1960              	.LVL83:
 1961              		.loc 1 711 10 is_stmt 1 view .LVU730
 1962              	.LBB469:
 1963              		.loc 2 239 20 view .LVU731
 1964              	.LBB463:
 1965              		.loc 2 241 3 view .LVU732
 1966              		.loc 2 241 19 is_stmt 0 view .LVU733
 1967 003e 8B4638   		movl	56(%esi), %eax
 1968              	.LVL84:
 1969              		.loc 2 241 19 view .LVU734
 1970              	.LBE463:
 1971              	.LBE469:
 1972              		.loc 1 711 10 view .LVU735
 1973 0041 83C410   		addl	$16, %esp
 1974              		.cfi_def_cfa_offset 16
 1975 0044 39F8     		cmpl	%edi, %eax
 1976 0046 75E8     		jne	.L45
 1977              	.L44:
 1978              		.loc 1 717 3 is_stmt 1 view .LVU736
 1979              		.loc 1 717 6 is_stmt 0 view .LVU737
 1980 0048 807E1E00 		cmpb	$0, 30(%esi)
 1981 004c 7507     		jne	.L46
 1982              		.loc 1 721 5 is_stmt 1 view .LVU738
 1983              		.loc 1 721 8 is_stmt 0 view .LVU739
 1984 004e 8B462C   		movl	44(%esi), %eax
 1985 0051 85C0     		testl	%eax, %eax
 1986 0053 741B     		je	.L49
 1987              	.L46:
 1988              		.loc 1 731 3 is_stmt 1 view .LVU740
 1989 0055 83EC0C   		subl	$12, %esp
 1990              		.cfi_def_cfa_offset 28
 1991 0058 6A0F     		pushl	$15
 1992              		.cfi_def_cfa_offset 32
 1993 005a E8FCFFFF 		call	chSchGoSleepS@PLT
 1993      FF
 1994              	.LVL85:
 1995              		.loc 1 734 3 view .LVU741
GAS LISTING /tmp/cctFPqVW.s 			page 38


 1996              		.loc 1 734 3 view .LVU742
 1997              		.loc 1 734 3 view .LVU743
 1998              		.loc 1 735 1 is_stmt 0 view .LVU744
 1999 005f 83C410   		addl	$16, %esp
 2000              		.cfi_def_cfa_offset 16
 2001 0062 5B       		popl	%ebx
 2002              		.cfi_remember_state
 2003              		.cfi_restore 3
 2004              		.cfi_def_cfa_offset 12
 2005 0063 5E       		popl	%esi
 2006              		.cfi_restore 6
 2007              		.cfi_def_cfa_offset 8
 2008              	.LVL86:
 2009              		.loc 1 735 1 view .LVU745
 2010 0064 5F       		popl	%edi
 2011              		.cfi_restore 7
 2012              		.cfi_def_cfa_offset 4
 2013              	.LVL87:
 2014              		.loc 1 735 1 view .LVU746
 2015 0065 C3       		ret
 2016              	.LVL88:
 2017 0066 8DB42600 		.p2align 4,,10
 2017      0000008D 
 2017      7600
 2018              		.p2align 3
 2019              	.L49:
 2020              		.cfi_restore_state
 2021              		.loc 1 722 7 is_stmt 1 view .LVU747
 2022              	.LBB470:
 2023              	.LBI470:
 2024              		.loc 2 378 27 view .LVU748
 2025              	.LBB471:
 2026              		.loc 2 380 3 view .LVU749
 2027              		.loc 2 380 4 is_stmt 0 view .LVU750
 2028 0070 8B5628   		movl	40(%esi), %edx
 2029              		.loc 2 380 20 view .LVU751
 2030 0073 8B4624   		movl	36(%esi), %eax
 2031              		.loc 2 380 17 view .LVU752
 2032 0076 8902     		movl	%eax, (%edx)
 2033              		.loc 2 381 3 is_stmt 1 view .LVU753
 2034              		.loc 2 381 17 is_stmt 0 view .LVU754
 2035 0078 895004   		movl	%edx, 4(%eax)
 2036              		.loc 2 383 3 is_stmt 1 view .LVU755
 2037              		.loc 2 383 10 is_stmt 0 view .LVU756
 2038 007b EBD8     		jmp	.L46
 2039              	.LBE471:
 2040              	.LBE470:
 2041              		.cfi_endproc
 2042              	.LFE230:
 2043              		.size	chThdExitS, .-chThdExitS
 2044              		.section	.text.chThdExit,"ax",@progbits
 2045              		.p2align 4
 2046              		.globl	chThdExit
 2047              		.type	chThdExit, @function
 2048              	chThdExit:
 2049              	.LVL89:
 2050              	.LFB229:
GAS LISTING /tmp/cctFPqVW.s 			page 39


 2051              		.loc 1 676 27 is_stmt 1 view -0
 2052              		.cfi_startproc
 2053              		.loc 1 678 3 view .LVU758
 2054              	.LBB472:
 2055              	.LBI472:
 2056              		.loc 3 407 20 view .LVU759
 2057              		.loc 3 409 3 view .LVU760
 2058              	.LBB473:
 2059              	.LBI473:
 2060              		.loc 4 361 20 view .LVU761
 2061              	.LBB474:
 2062              		.loc 4 363 3 view .LVU762
 2063 0000 E8FCFFFF 		call	__x86.get_pc_thunk.ax
 2063      FF
 2064 0005 05010000 		addl	$_GLOBAL_OFFSET_TABLE_, %eax
 2064      00
 2065              		.loc 4 363 16 is_stmt 0 view .LVU763
 2066 000a 8B800000 		movl	port_irq_sts@GOT(%eax), %eax
 2066      0000
 2067 0010 C7000100 		movl	$1, (%eax)
 2067      0000
 2068              	.LBE474:
 2069              	.LBE473:
 2070              		.loc 3 410 35 is_stmt 1 view .LVU764
 2071              		.loc 3 411 21 view .LVU765
 2072              	.LBE472:
 2073              		.loc 1 679 3 view .LVU766
 2074 0016 E9FCFFFF 		jmp	chThdExitS
 2074      FF
 2075              	.LVL90:
 2076              		.cfi_endproc
 2077              	.LFE229:
 2078              		.size	chThdExit, .-chThdExit
 2079              		.section	.text.chThdWait,"ax",@progbits
 2080              		.p2align 4
 2081              		.globl	chThdWait
 2082              		.type	chThdWait, @function
 2083              	chThdWait:
 2084              	.LVL91:
 2085              	.LFB231:
 2086              		.loc 1 757 31 view -0
 2087              		.cfi_startproc
 2088              		.loc 1 758 3 view .LVU768
 2089              	.LBB507:
 2090              	.LBI507:
 2091              		.loc 5 527 25 view .LVU769
 2092              	.LBB508:
 2093              		.loc 5 529 3 view .LVU770
 2094              	.LBE508:
 2095              	.LBE507:
 2096              		.loc 1 757 31 is_stmt 0 view .LVU771
 2097 0000 57       		pushl	%edi
 2098              		.cfi_def_cfa_offset 8
 2099              		.cfi_offset 7, -8
 2100 0001 56       		pushl	%esi
 2101              		.cfi_def_cfa_offset 12
 2102              		.cfi_offset 6, -12
GAS LISTING /tmp/cctFPqVW.s 			page 40


 2103 0002 53       		pushl	%ebx
 2104              		.cfi_def_cfa_offset 16
 2105              		.cfi_offset 3, -16
 2106              		.loc 1 757 31 view .LVU772
 2107 0003 8B742410 		movl	16(%esp), %esi
 2108 0007 E8FCFFFF 		call	__x86.get_pc_thunk.bx
 2108      FF
 2109 000c 81C30200 		addl	$_GLOBAL_OFFSET_TABLE_, %ebx
 2109      0000
 2110              		.loc 1 769 6 view .LVU773
 2111 0012 807E1C0F 		cmpb	$15, 28(%esi)
 2112              	.LBB511:
 2113              	.LBB509:
 2114              		.loc 5 529 10 view .LVU774
 2115 0016 8B830000 		movl	ch0@GOT(%ebx), %eax
 2115      0000
 2116              	.LBE509:
 2117              	.LBE511:
 2118              	.LBB512:
 2119              	.LBB513:
 2120              	.LBB514:
 2121              		.loc 4 363 16 view .LVU775
 2122 001c 8BBB0000 		movl	port_irq_sts@GOT(%ebx), %edi
 2122      0000
 2123              	.LBE514:
 2124              	.LBE513:
 2125              	.LBE512:
 2126              	.LBB517:
 2127              	.LBB510:
 2128              		.loc 5 529 10 view .LVU776
 2129 0022 8B400C   		movl	12(%eax), %eax
 2130              	.LVL92:
 2131              		.loc 5 529 10 view .LVU777
 2132              	.LBE510:
 2133              	.LBE517:
 2134              		.loc 1 759 3 is_stmt 1 view .LVU778
 2135              		.loc 1 761 3 view .LVU779
 2136              		.loc 1 761 3 view .LVU780
 2137              		.loc 1 761 3 view .LVU781
 2138              		.loc 1 763 3 view .LVU782
 2139              	.LBB518:
 2140              	.LBI512:
 2141              		.loc 3 407 20 view .LVU783
 2142              		.loc 3 409 3 view .LVU784
 2143              	.LBB516:
 2144              	.LBI513:
 2145              		.loc 4 361 20 view .LVU785
 2146              	.LBB515:
 2147              		.loc 4 363 3 view .LVU786
 2148              		.loc 4 363 16 is_stmt 0 view .LVU787
 2149 0025 C7070100 		movl	$1, (%edi)
 2149      0000
 2150              	.LBE515:
 2151              	.LBE516:
 2152              		.loc 3 410 35 is_stmt 1 view .LVU788
 2153              		.loc 3 411 21 view .LVU789
 2154              	.LBE518:
GAS LISTING /tmp/cctFPqVW.s 			page 41


 2155              		.loc 1 764 3 view .LVU790
 2156              		.loc 1 764 3 view .LVU791
 2157              		.loc 1 764 3 view .LVU792
 2158              		.loc 1 766 3 view .LVU793
 2159              		.loc 1 766 3 view .LVU794
 2160              		.loc 1 766 3 view .LVU795
 2161              		.loc 1 769 3 view .LVU796
 2162              		.loc 1 769 6 is_stmt 0 view .LVU797
 2163 002b 7415     		je	.L52
 2164              		.loc 1 770 5 is_stmt 1 view .LVU798
 2165              	.LVL93:
 2166              	.LBB519:
 2167              	.LBI519:
 2168              		.loc 2 252 20 view .LVU799
 2169              	.LBB520:
 2170              		.loc 2 254 3 view .LVU800
 2171              		.loc 2 254 15 is_stmt 0 view .LVU801
 2172 002d 8B5638   		movl	56(%esi), %edx
 2173              	.LBE520:
 2174              	.LBE519:
 2175              		.loc 1 771 5 view .LVU802
 2176 0030 83EC0C   		subl	$12, %esp
 2177              		.cfi_def_cfa_offset 28
 2178              	.LBB522:
 2179              	.LBB521:
 2180              		.loc 2 254 11 view .LVU803
 2181 0033 8910     		movl	%edx, (%eax)
 2182              		.loc 2 255 3 is_stmt 1 view .LVU804
 2183              		.loc 2 255 12 is_stmt 0 view .LVU805
 2184 0035 894638   		movl	%eax, 56(%esi)
 2185              	.LVL94:
 2186              		.loc 2 255 12 view .LVU806
 2187              	.LBE521:
 2188              	.LBE522:
 2189              		.loc 1 771 5 is_stmt 1 view .LVU807
 2190 0038 6A09     		pushl	$9
 2191              		.cfi_def_cfa_offset 32
 2192 003a E8FCFFFF 		call	chSchGoSleepS@PLT
 2192      FF
 2193              	.LVL95:
 2194              		.loc 1 771 5 is_stmt 0 view .LVU808
 2195 003f 83C410   		addl	$16, %esp
 2196              		.cfi_def_cfa_offset 16
 2197              	.L52:
 2198              		.loc 1 773 3 is_stmt 1 view .LVU809
 2199              	.LBB523:
 2200              	.LBB524:
 2201              		.loc 1 638 11 is_stmt 0 view .LVU810
 2202 0042 806E1E01 		subb	$1, 30(%esi)
 2203              		.loc 1 643 32 view .LVU811
 2204 0046 8B461C   		movl	28(%esi), %eax
 2205              	.LBE524:
 2206              	.LBE523:
 2207              	.LBB542:
 2208              	.LBB543:
 2209              	.LBB544:
 2210              	.LBB545:
GAS LISTING /tmp/cctFPqVW.s 			page 42


 2211              		.loc 4 372 16 view .LVU812
 2212 0049 C7070000 		movl	$0, (%edi)
 2212      0000
 2213              	.LBE545:
 2214              	.LBE544:
 2215              	.LBE543:
 2216              	.LBE542:
 2217              		.loc 1 773 7 view .LVU813
 2218 004f 8B5E34   		movl	52(%esi), %ebx
 2219              	.LVL96:
 2220              		.loc 1 774 3 is_stmt 1 view .LVU814
 2221              	.LBB549:
 2222              	.LBI542:
 2223              		.loc 3 421 20 view .LVU815
 2224              	.LBB548:
 2225              		.loc 3 423 23 view .LVU816
 2226              		.loc 3 424 34 view .LVU817
 2227              		.loc 3 430 3 view .LVU818
 2228              		.loc 3 430 3 view .LVU819
 2229              		.loc 3 430 3 view .LVU820
 2230              		.loc 3 434 3 view .LVU821
 2231              	.LBB547:
 2232              	.LBI544:
 2233              		.loc 4 370 20 view .LVU822
 2234              	.LBB546:
 2235              		.loc 4 372 3 view .LVU823
 2236              	.LBE546:
 2237              	.LBE547:
 2238              	.LBE548:
 2239              	.LBE549:
 2240              		.loc 1 778 3 view .LVU824
 2241              	.LBB550:
 2242              	.LBI523:
 2243              		.loc 1 634 6 view .LVU825
 2244              	.LBB539:
 2245              		.loc 1 636 3 view .LVU826
 2246              		.loc 1 637 3 view .LVU827
 2247              		.loc 1 637 3 view .LVU828
 2248              		.loc 1 637 3 view .LVU829
 2249              		.loc 1 638 3 view .LVU830
 2250              		.loc 1 643 3 view .LVU831
 2251              		.loc 1 643 32 is_stmt 0 view .LVU832
 2252 0052 25FF00FF 		andl	$16711935, %eax
 2252      00
 2253              		.loc 1 643 6 view .LVU833
 2254 0057 83F80F   		cmpl	$15, %eax
 2255 005a 740C     		je	.L60
 2256              	.L51:
 2257              		.loc 1 643 6 view .LVU834
 2258              	.LBE539:
 2259              	.LBE550:
 2260              		.loc 1 782 1 view .LVU835
 2261 005c 89D8     		movl	%ebx, %eax
 2262 005e 5B       		popl	%ebx
 2263              		.cfi_remember_state
 2264              		.cfi_restore 3
 2265              		.cfi_def_cfa_offset 12
GAS LISTING /tmp/cctFPqVW.s 			page 43


 2266              	.LVL97:
 2267              		.loc 1 782 1 view .LVU836
 2268 005f 5E       		popl	%esi
 2269              		.cfi_restore 6
 2270              		.cfi_def_cfa_offset 8
 2271 0060 5F       		popl	%edi
 2272              		.cfi_restore 7
 2273              		.cfi_def_cfa_offset 4
 2274 0061 C3       		ret
 2275              	.LVL98:
 2276              		.p2align 4,,10
 2277 0062 8DB60000 		.p2align 3
 2277      0000
 2278              	.L60:
 2279              		.cfi_restore_state
 2280              	.LBB551:
 2281              	.LBB540:
 2282              	.LBB525:
 2283              	.LBI525:
 2284              		.loc 1 634 6 is_stmt 1 view .LVU837
 2285              	.LBB526:
 2286              		.loc 1 646 5 view .LVU838
 2287              	.LBB527:
 2288              	.LBI527:
 2289              		.loc 2 378 27 view .LVU839
 2290              	.LBB528:
 2291              		.loc 2 380 3 view .LVU840
 2292              		.loc 2 380 20 is_stmt 0 view .LVU841
 2293 0068 8B4624   		movl	36(%esi), %eax
 2294              		.loc 2 380 4 view .LVU842
 2295 006b 8B5628   		movl	40(%esi), %edx
 2296              		.loc 2 380 17 view .LVU843
 2297 006e 8902     		movl	%eax, (%edx)
 2298              		.loc 2 381 3 is_stmt 1 view .LVU844
 2299              		.loc 2 381 17 is_stmt 0 view .LVU845
 2300 0070 895004   		movl	%edx, 4(%eax)
 2301              		.loc 2 383 3 is_stmt 1 view .LVU846
 2302              	.LVL99:
 2303              		.loc 2 383 3 is_stmt 0 view .LVU847
 2304              	.LBE528:
 2305              	.LBE527:
 2306              		.loc 1 647 5 is_stmt 1 view .LVU848
 2307              	.LBB529:
 2308              	.LBI529:
 2309              		.loc 3 421 20 view .LVU849
 2310              	.LBB530:
 2311              		.loc 3 423 23 view .LVU850
 2312              		.loc 3 424 34 view .LVU851
 2313              		.loc 3 430 3 view .LVU852
 2314              		.loc 3 430 3 view .LVU853
 2315              		.loc 3 430 3 view .LVU854
 2316              		.loc 3 434 3 view .LVU855
 2317              	.LBB531:
 2318              	.LBI531:
 2319              		.loc 4 370 20 view .LVU856
 2320              	.LBB532:
 2321              		.loc 4 372 3 view .LVU857
GAS LISTING /tmp/cctFPqVW.s 			page 44


 2322              	.LBE532:
 2323              	.LBE531:
 2324              	.LBE530:
 2325              	.LBE529:
 2326              		.loc 1 651 11 is_stmt 0 view .LVU858
 2327 0073 8B462C   		movl	44(%esi), %eax
 2328              	.LBB536:
 2329              	.LBB535:
 2330              	.LBB534:
 2331              	.LBB533:
 2332              		.loc 4 372 16 view .LVU859
 2333 0076 C7070000 		movl	$0, (%edi)
 2333      0000
 2334              	.LBE533:
 2335              	.LBE534:
 2336              	.LBE535:
 2337              	.LBE536:
 2338              		.loc 1 651 5 is_stmt 1 view .LVU860
 2339              		.loc 1 651 8 is_stmt 0 view .LVU861
 2340 007c 85C0     		testl	%eax, %eax
 2341 007e 74DC     		je	.L51
 2342              		.loc 1 652 7 is_stmt 1 view .LVU862
 2343 0080 83EC0C   		subl	$12, %esp
 2344              		.cfi_def_cfa_offset 28
 2345 0083 56       		pushl	%esi
 2346              		.cfi_def_cfa_offset 32
 2347 0084 FFD0     		call	*%eax
 2348              	.LVL100:
 2349              	.LBE526:
 2350              	.LBE525:
 2351              	.LBE540:
 2352              	.LBE551:
 2353              		.loc 1 782 1 is_stmt 0 view .LVU863
 2354 0086 89D8     		movl	%ebx, %eax
 2355              	.LBB552:
 2356              	.LBB541:
 2357              	.LBB538:
 2358              	.LBB537:
 2359              		.loc 1 652 7 view .LVU864
 2360 0088 83C410   		addl	$16, %esp
 2361              		.cfi_def_cfa_offset 16
 2362              	.LVL101:
 2363              		.loc 1 652 7 view .LVU865
 2364              	.LBE537:
 2365              	.LBE538:
 2366              	.LBE541:
 2367              	.LBE552:
 2368              		.loc 1 781 3 is_stmt 1 view .LVU866
 2369              		.loc 1 782 1 is_stmt 0 view .LVU867
 2370 008b 5B       		popl	%ebx
 2371              		.cfi_restore 3
 2372              		.cfi_def_cfa_offset 12
 2373              	.LVL102:
 2374              		.loc 1 782 1 view .LVU868
 2375 008c 5E       		popl	%esi
 2376              		.cfi_restore 6
 2377              		.cfi_def_cfa_offset 8
GAS LISTING /tmp/cctFPqVW.s 			page 45


 2378 008d 5F       		popl	%edi
 2379              		.cfi_restore 7
 2380              		.cfi_def_cfa_offset 4
 2381 008e C3       		ret
 2382              		.cfi_endproc
 2383              	.LFE231:
 2384              		.size	chThdWait, .-chThdWait
 2385              		.section	.text.chThdSetPriority,"ax",@progbits
 2386              		.p2align 4
 2387              		.globl	chThdSetPriority
 2388              		.type	chThdSetPriority, @function
 2389              	chThdSetPriority:
 2390              	.LVL103:
 2391              	.LFB232:
 2392              		.loc 1 797 43 is_stmt 1 view -0
 2393              		.cfi_startproc
 2394              		.loc 1 798 3 view .LVU870
 2395              	.LBB553:
 2396              	.LBI553:
 2397              		.loc 5 527 25 view .LVU871
 2398              	.LBB554:
 2399              		.loc 5 529 3 view .LVU872
 2400              	.LBE554:
 2401              	.LBE553:
 2402              		.loc 1 797 43 is_stmt 0 view .LVU873
 2403 0000 57       		pushl	%edi
 2404              		.cfi_def_cfa_offset 8
 2405              		.cfi_offset 7, -8
 2406 0001 56       		pushl	%esi
 2407              		.cfi_def_cfa_offset 12
 2408              		.cfi_offset 6, -12
 2409 0002 53       		pushl	%ebx
 2410              		.cfi_def_cfa_offset 16
 2411              		.cfi_offset 3, -16
 2412              		.loc 1 797 43 view .LVU874
 2413 0003 8B542410 		movl	16(%esp), %edx
 2414 0007 E8FCFFFF 		call	__x86.get_pc_thunk.bx
 2414      FF
 2415 000c 81C30200 		addl	$_GLOBAL_OFFSET_TABLE_, %ebx
 2415      0000
 2416              	.LBB557:
 2417              	.LBB555:
 2418              		.loc 5 529 10 view .LVU875
 2419 0012 8B830000 		movl	ch0@GOT(%ebx), %eax
 2419      0000
 2420              	.LBE555:
 2421              	.LBE557:
 2422              	.LBB558:
 2423              	.LBB559:
 2424              	.LBB560:
 2425              		.loc 4 363 16 view .LVU876
 2426 0018 8BB30000 		movl	port_irq_sts@GOT(%ebx), %esi
 2426      0000
 2427              	.LBE560:
 2428              	.LBE559:
 2429              	.LBE558:
 2430              	.LBB563:
GAS LISTING /tmp/cctFPqVW.s 			page 46


 2431              	.LBB556:
 2432              		.loc 5 529 10 view .LVU877
 2433 001e 8B400C   		movl	12(%eax), %eax
 2434              	.LVL104:
 2435              		.loc 5 529 10 view .LVU878
 2436              	.LBE556:
 2437              	.LBE563:
 2438              		.loc 1 799 3 is_stmt 1 view .LVU879
 2439              		.loc 1 801 3 view .LVU880
 2440              		.loc 1 801 3 view .LVU881
 2441              		.loc 1 801 3 view .LVU882
 2442              		.loc 1 803 3 view .LVU883
 2443              	.LBB564:
 2444              	.LBI558:
 2445              		.loc 3 407 20 view .LVU884
 2446              		.loc 3 409 3 view .LVU885
 2447              	.LBB562:
 2448              	.LBI559:
 2449              		.loc 4 361 20 view .LVU886
 2450              	.LBB561:
 2451              		.loc 4 363 3 view .LVU887
 2452              		.loc 4 363 16 is_stmt 0 view .LVU888
 2453 0021 C7060100 		movl	$1, (%esi)
 2453      0000
 2454              	.LBE561:
 2455              	.LBE562:
 2456              		.loc 3 410 35 is_stmt 1 view .LVU889
 2457              		.loc 3 411 21 view .LVU890
 2458              	.LBE564:
 2459              		.loc 1 805 3 view .LVU891
 2460              		.loc 1 806 26 is_stmt 0 view .LVU892
 2461 0027 8B4808   		movl	8(%eax), %ecx
 2462              		.loc 1 805 11 view .LVU893
 2463 002a 8B784C   		movl	76(%eax), %edi
 2464              	.LVL105:
 2465              		.loc 1 806 3 is_stmt 1 view .LVU894
 2466              		.loc 1 806 53 is_stmt 0 view .LVU895
 2467 002d 39D1     		cmpl	%edx, %ecx
 2468 002f 7204     		jb	.L64
 2469 0031 39F9     		cmpl	%edi, %ecx
 2470 0033 7503     		jne	.L62
 2471              	.L64:
 2472              		.loc 1 808 5 is_stmt 1 view .LVU896
 2473              		.loc 1 808 29 is_stmt 0 view .LVU897
 2474 0035 895008   		movl	%edx, 8(%eax)
 2475              	.LVL106:
 2476              	.L62:
 2477              		.loc 1 810 3 is_stmt 1 view .LVU898
 2478              		.loc 1 810 20 is_stmt 0 view .LVU899
 2479 0038 89504C   		movl	%edx, 76(%eax)
 2480              		.loc 1 815 3 is_stmt 1 view .LVU900
 2481 003b E8FCFFFF 		call	chSchRescheduleS@PLT
 2481      FF
 2482              	.LVL107:
 2483              		.loc 1 816 3 view .LVU901
 2484              	.LBB565:
 2485              	.LBI565:
GAS LISTING /tmp/cctFPqVW.s 			page 47


 2486              		.loc 3 421 20 view .LVU902
 2487              	.LBB566:
 2488              		.loc 3 423 23 view .LVU903
 2489              		.loc 3 424 34 view .LVU904
 2490              		.loc 3 430 3 view .LVU905
 2491              		.loc 3 430 3 view .LVU906
 2492              		.loc 3 430 3 view .LVU907
 2493              		.loc 3 434 3 view .LVU908
 2494              	.LBB567:
 2495              	.LBI567:
 2496              		.loc 4 370 20 view .LVU909
 2497              	.LBB568:
 2498              		.loc 4 372 3 view .LVU910
 2499              	.LBE568:
 2500              	.LBE567:
 2501              	.LBE566:
 2502              	.LBE565:
 2503              		.loc 1 819 1 is_stmt 0 view .LVU911
 2504 0040 89F8     		movl	%edi, %eax
 2505 0042 5B       		popl	%ebx
 2506              		.cfi_restore 3
 2507              		.cfi_def_cfa_offset 12
 2508              	.LBB572:
 2509              	.LBB571:
 2510              	.LBB570:
 2511              	.LBB569:
 2512              		.loc 4 372 16 view .LVU912
 2513 0043 C7060000 		movl	$0, (%esi)
 2513      0000
 2514              	.LBE569:
 2515              	.LBE570:
 2516              	.LBE571:
 2517              	.LBE572:
 2518              		.loc 1 818 3 is_stmt 1 view .LVU913
 2519              		.loc 1 819 1 is_stmt 0 view .LVU914
 2520 0049 5E       		popl	%esi
 2521              		.cfi_restore 6
 2522              		.cfi_def_cfa_offset 8
 2523 004a 5F       		popl	%edi
 2524              		.cfi_restore 7
 2525              		.cfi_def_cfa_offset 4
 2526              	.LVL108:
 2527              		.loc 1 819 1 view .LVU915
 2528 004b C3       		ret
 2529              		.cfi_endproc
 2530              	.LFE232:
 2531              		.size	chThdSetPriority, .-chThdSetPriority
 2532              		.section	.text.chThdTerminate,"ax",@progbits
 2533              		.p2align 4
 2534              		.globl	chThdTerminate
 2535              		.type	chThdTerminate, @function
 2536              	chThdTerminate:
 2537              	.LVL109:
 2538              	.LFB233:
 2539              		.loc 1 833 35 is_stmt 1 view -0
 2540              		.cfi_startproc
 2541              		.loc 1 835 3 view .LVU917
GAS LISTING /tmp/cctFPqVW.s 			page 48


 2542              		.loc 1 836 3 view .LVU918
 2543 0000 E8FCFFFF 		call	__x86.get_pc_thunk.dx
 2543      FF
 2544 0005 81C20200 		addl	$_GLOBAL_OFFSET_TABLE_, %edx
 2544      0000
 2545              		.loc 1 833 35 is_stmt 0 view .LVU919
 2546 000b 8B442404 		movl	4(%esp), %eax
 2547              		.loc 1 836 13 view .LVU920
 2548 000f 80481D80 		orb	$-128, 29(%eax)
 2549              		.loc 1 837 3 is_stmt 1 view .LVU921
 2550              	.LBB573:
 2551              	.LBI573:
 2552              		.loc 3 421 20 view .LVU922
 2553              	.LBB574:
 2554              		.loc 3 423 23 view .LVU923
 2555              		.loc 3 424 34 view .LVU924
 2556              		.loc 3 430 3 view .LVU925
 2557              		.loc 3 430 3 view .LVU926
 2558              		.loc 3 430 3 view .LVU927
 2559              		.loc 3 434 3 view .LVU928
 2560              	.LBB575:
 2561              	.LBI575:
 2562              		.loc 4 370 20 view .LVU929
 2563              	.LBB576:
 2564              		.loc 4 372 3 view .LVU930
 2565              		.loc 4 372 16 is_stmt 0 view .LVU931
 2566 0013 8B820000 		movl	port_irq_sts@GOT(%edx), %eax
 2566      0000
 2567 0019 C7000000 		movl	$0, (%eax)
 2567      0000
 2568              	.LBE576:
 2569              	.LBE575:
 2570              	.LBE574:
 2571              	.LBE573:
 2572              		.loc 1 838 1 view .LVU932
 2573 001f C3       		ret
 2574              		.cfi_endproc
 2575              	.LFE233:
 2576              		.size	chThdTerminate, .-chThdTerminate
 2577              		.section	.text.chThdSleep,"ax",@progbits
 2578              		.p2align 4
 2579              		.globl	chThdSleep
 2580              		.type	chThdSleep, @function
 2581              	chThdSleep:
 2582              	.LVL110:
 2583              	.LFB234:
 2584              		.loc 1 851 37 is_stmt 1 view -0
 2585              		.cfi_startproc
 2586              		.loc 1 853 3 view .LVU934
 2587              	.LBB577:
 2588              	.LBI577:
 2589              		.loc 3 407 20 view .LVU935
 2590              		.loc 3 409 3 view .LVU936
 2591              	.LBB578:
 2592              	.LBI578:
 2593              		.loc 4 361 20 view .LVU937
 2594              	.LBB579:
GAS LISTING /tmp/cctFPqVW.s 			page 49


 2595              		.loc 4 363 3 view .LVU938
 2596              	.LBE579:
 2597              	.LBE578:
 2598              	.LBE577:
 2599              		.loc 1 851 37 is_stmt 0 view .LVU939
 2600 0000 56       		pushl	%esi
 2601              		.cfi_def_cfa_offset 8
 2602              		.cfi_offset 6, -8
 2603 0001 53       		pushl	%ebx
 2604              		.cfi_def_cfa_offset 12
 2605              		.cfi_offset 3, -12
 2606 0002 E8FCFFFF 		call	__x86.get_pc_thunk.bx
 2606      FF
 2607 0007 81C30200 		addl	$_GLOBAL_OFFSET_TABLE_, %ebx
 2607      0000
 2608 000d 83EC0C   		subl	$12, %esp
 2609              		.cfi_def_cfa_offset 24
 2610              	.LBB582:
 2611              	.LBB583:
 2612              		.loc 5 633 10 view .LVU940
 2613 0010 FF742418 		pushl	24(%esp)
 2614              		.cfi_def_cfa_offset 28
 2615 0014 6A08     		pushl	$8
 2616              		.cfi_def_cfa_offset 32
 2617              	.LBE583:
 2618              	.LBE582:
 2619              	.LBB585:
 2620              	.LBB581:
 2621              	.LBB580:
 2622              		.loc 4 363 16 view .LVU941
 2623 0016 8BB30000 		movl	port_irq_sts@GOT(%ebx), %esi
 2623      0000
 2624 001c C7060100 		movl	$1, (%esi)
 2624      0000
 2625              	.LBE580:
 2626              	.LBE581:
 2627              		.loc 3 410 35 is_stmt 1 view .LVU942
 2628              		.loc 3 411 21 view .LVU943
 2629              	.LBE585:
 2630              		.loc 1 854 3 view .LVU944
 2631              	.LBB586:
 2632              	.LBI582:
 2633              		.loc 5 629 20 view .LVU945
 2634              	.LBB584:
 2635              		.loc 5 631 3 view .LVU946
 2636              		.loc 5 631 3 view .LVU947
 2637              		.loc 5 631 3 view .LVU948
 2638              		.loc 5 633 3 view .LVU949
 2639              		.loc 5 633 10 is_stmt 0 view .LVU950
 2640 0022 E8FCFFFF 		call	chSchGoSleepTimeoutS@PLT
 2640      FF
 2641              	.LVL111:
 2642              	.LBE584:
 2643              	.LBE586:
 2644              		.loc 1 855 3 is_stmt 1 view .LVU951
 2645              	.LBB587:
 2646              	.LBI587:
GAS LISTING /tmp/cctFPqVW.s 			page 50


 2647              		.loc 3 421 20 view .LVU952
 2648              	.LBB588:
 2649              		.loc 3 423 23 view .LVU953
 2650              		.loc 3 424 34 view .LVU954
 2651              		.loc 3 430 3 view .LVU955
 2652              		.loc 3 430 3 view .LVU956
 2653              		.loc 3 430 3 view .LVU957
 2654              		.loc 3 434 3 view .LVU958
 2655              	.LBB589:
 2656              	.LBI589:
 2657              		.loc 4 370 20 view .LVU959
 2658              	.LBB590:
 2659              		.loc 4 372 3 view .LVU960
 2660              		.loc 4 372 16 is_stmt 0 view .LVU961
 2661 0027 C7060000 		movl	$0, (%esi)
 2661      0000
 2662              	.LBE590:
 2663              	.LBE589:
 2664              	.LBE588:
 2665              	.LBE587:
 2666              		.loc 1 856 1 view .LVU962
 2667 002d 83C414   		addl	$20, %esp
 2668              		.cfi_def_cfa_offset 12
 2669 0030 5B       		popl	%ebx
 2670              		.cfi_restore 3
 2671              		.cfi_def_cfa_offset 8
 2672 0031 5E       		popl	%esi
 2673              		.cfi_restore 6
 2674              		.cfi_def_cfa_offset 4
 2675 0032 C3       		ret
 2676              		.cfi_endproc
 2677              	.LFE234:
 2678              		.size	chThdSleep, .-chThdSleep
 2679              		.section	.text.chThdSleepUntil,"ax",@progbits
 2680              		.p2align 4
 2681              		.globl	chThdSleepUntil
 2682              		.type	chThdSleepUntil, @function
 2683              	chThdSleepUntil:
 2684              	.LVL112:
 2685              	.LFB235:
 2686              		.loc 1 871 38 is_stmt 1 view -0
 2687              		.cfi_startproc
 2688              		.loc 1 872 3 view .LVU964
 2689              		.loc 1 874 3 view .LVU965
 2690              	.LBB591:
 2691              	.LBI591:
 2692              		.loc 3 407 20 view .LVU966
 2693              		.loc 3 409 3 view .LVU967
 2694              	.LBB592:
 2695              	.LBI592:
 2696              		.loc 4 361 20 view .LVU968
 2697              	.LBB593:
 2698              		.loc 4 363 3 view .LVU969
 2699              	.LBE593:
 2700              	.LBE592:
 2701              	.LBE591:
 2702              		.loc 1 871 38 is_stmt 0 view .LVU970
GAS LISTING /tmp/cctFPqVW.s 			page 51


 2703 0000 56       		pushl	%esi
 2704              		.cfi_def_cfa_offset 8
 2705              		.cfi_offset 6, -8
 2706 0001 53       		pushl	%ebx
 2707              		.cfi_def_cfa_offset 12
 2708              		.cfi_offset 3, -12
 2709 0002 E8FCFFFF 		call	__x86.get_pc_thunk.bx
 2709      FF
 2710 0007 81C30200 		addl	$_GLOBAL_OFFSET_TABLE_, %ebx
 2710      0000
 2711 000d 83EC04   		subl	$4, %esp
 2712              		.cfi_def_cfa_offset 16
 2713              	.LBB598:
 2714              	.LBB599:
 2715              		.file 6 "../../../os/rt/include/chvt.h"
 2716              		.loc 6 138 26 view .LVU971
 2717 0010 8B830000 		movl	ch0@GOT(%ebx), %eax
 2717      0000
 2718              	.LBE599:
 2719              	.LBE598:
 2720              	.LBB602:
 2721              	.LBB596:
 2722              	.LBB594:
 2723              		.loc 4 363 16 view .LVU972
 2724 0016 8BB30000 		movl	port_irq_sts@GOT(%ebx), %esi
 2724      0000
 2725              	.LBE594:
 2726              	.LBE596:
 2727              	.LBE602:
 2728              	.LBB603:
 2729              	.LBB600:
 2730              		.loc 6 138 26 view .LVU973
 2731 001c 8B501C   		movl	28(%eax), %edx
 2732              	.LBE600:
 2733              	.LBE603:
 2734              		.loc 1 876 6 view .LVU974
 2735 001f 8B442410 		movl	16(%esp), %eax
 2736              	.LBB604:
 2737              	.LBB597:
 2738              	.LBB595:
 2739              		.loc 4 363 16 view .LVU975
 2740 0023 C7060100 		movl	$1, (%esi)
 2740      0000
 2741              	.LBE595:
 2742              	.LBE597:
 2743              		.loc 3 410 35 is_stmt 1 view .LVU976
 2744              		.loc 3 411 21 view .LVU977
 2745              	.LBE604:
 2746              		.loc 1 875 3 view .LVU978
 2747              	.LBB605:
 2748              	.LBI598:
 2749              		.loc 6 135 25 view .LVU979
 2750              	.LBB601:
 2751              		.loc 6 138 3 view .LVU980
 2752              	.LVL113:
 2753              		.loc 6 138 3 is_stmt 0 view .LVU981
 2754              	.LBE601:
GAS LISTING /tmp/cctFPqVW.s 			page 52


 2755              	.LBE605:
 2756              	.LBB606:
 2757              	.LBI606:
 2758              		.file 7 "../../../os/rt/include/chtime.h"
 2759              		.loc 7 461 29 is_stmt 1 view .LVU982
 2760              	.LBB607:
 2761              		.loc 7 465 3 view .LVU983
 2762              		.loc 7 465 3 is_stmt 0 view .LVU984
 2763              	.LBE607:
 2764              	.LBE606:
 2765              		.loc 1 876 3 is_stmt 1 view .LVU985
 2766              		.loc 1 876 6 is_stmt 0 view .LVU986
 2767 0029 29D0     		subl	%edx, %eax
 2768              	.LVL114:
 2769              		.loc 1 876 6 view .LVU987
 2770 002b 7513     		jne	.L78
 2771              		.loc 1 879 3 is_stmt 1 view .LVU988
 2772              	.LBB608:
 2773              	.LBI608:
 2774              		.loc 3 421 20 view .LVU989
 2775              	.LBB609:
 2776              		.loc 3 423 23 view .LVU990
 2777              		.loc 3 424 34 view .LVU991
 2778              		.loc 3 430 3 view .LVU992
 2779              		.loc 3 430 3 view .LVU993
 2780              		.loc 3 430 3 view .LVU994
 2781              		.loc 3 434 3 view .LVU995
 2782              	.LBB610:
 2783              	.LBI610:
 2784              		.loc 4 370 20 view .LVU996
 2785              	.LBB611:
 2786              		.loc 4 372 3 view .LVU997
 2787              		.loc 4 372 16 is_stmt 0 view .LVU998
 2788 002d C7060000 		movl	$0, (%esi)
 2788      0000
 2789              	.LBE611:
 2790              	.LBE610:
 2791              	.LBE609:
 2792              	.LBE608:
 2793              		.loc 1 880 1 view .LVU999
 2794 0033 83C404   		addl	$4, %esp
 2795              		.cfi_remember_state
 2796              		.cfi_def_cfa_offset 12
 2797 0036 5B       		popl	%ebx
 2798              		.cfi_restore 3
 2799              		.cfi_def_cfa_offset 8
 2800 0037 5E       		popl	%esi
 2801              		.cfi_restore 6
 2802              		.cfi_def_cfa_offset 4
 2803 0038 C3       		ret
 2804 0039 8DB42600 		.p2align 4,,10
 2804      000000
 2805              		.p2align 3
 2806              	.L78:
 2807              		.cfi_restore_state
 2808              		.loc 1 877 5 is_stmt 1 view .LVU1000
 2809              	.LVL115:
GAS LISTING /tmp/cctFPqVW.s 			page 53


 2810              	.LBB615:
 2811              	.LBI615:
 2812              		.loc 5 629 20 view .LVU1001
 2813              	.LBB616:
 2814              		.loc 5 631 3 view .LVU1002
 2815              		.loc 5 631 3 view .LVU1003
 2816              		.loc 5 631 3 view .LVU1004
 2817              		.loc 5 633 3 view .LVU1005
 2818              		.loc 5 633 10 is_stmt 0 view .LVU1006
 2819 0040 83EC08   		subl	$8, %esp
 2820              		.cfi_def_cfa_offset 24
 2821 0043 50       		pushl	%eax
 2822              		.cfi_def_cfa_offset 28
 2823 0044 6A08     		pushl	$8
 2824              		.cfi_def_cfa_offset 32
 2825 0046 E8FCFFFF 		call	chSchGoSleepTimeoutS@PLT
 2825      FF
 2826              	.LVL116:
 2827              		.loc 5 634 1 view .LVU1007
 2828 004b 83C410   		addl	$16, %esp
 2829              		.cfi_def_cfa_offset 16
 2830              		.loc 5 634 1 view .LVU1008
 2831              	.LBE616:
 2832              	.LBE615:
 2833              		.loc 1 879 3 is_stmt 1 view .LVU1009
 2834              	.LBB617:
 2835              		.loc 3 421 20 view .LVU1010
 2836              	.LBB614:
 2837              		.loc 3 423 23 view .LVU1011
 2838              		.loc 3 424 34 view .LVU1012
 2839              		.loc 3 430 3 view .LVU1013
 2840              		.loc 3 430 3 view .LVU1014
 2841              		.loc 3 430 3 view .LVU1015
 2842              		.loc 3 434 3 view .LVU1016
 2843              	.LBB613:
 2844              		.loc 4 370 20 view .LVU1017
 2845              	.LBB612:
 2846              		.loc 4 372 3 view .LVU1018
 2847              		.loc 4 372 16 is_stmt 0 view .LVU1019
 2848 004e C7060000 		movl	$0, (%esi)
 2848      0000
 2849              	.LBE612:
 2850              	.LBE613:
 2851              	.LBE614:
 2852              	.LBE617:
 2853              		.loc 1 880 1 view .LVU1020
 2854 0054 83C404   		addl	$4, %esp
 2855              		.cfi_def_cfa_offset 12
 2856 0057 5B       		popl	%ebx
 2857              		.cfi_restore 3
 2858              		.cfi_def_cfa_offset 8
 2859 0058 5E       		popl	%esi
 2860              		.cfi_restore 6
 2861              		.cfi_def_cfa_offset 4
 2862 0059 C3       		ret
 2863              		.cfi_endproc
 2864              	.LFE235:
GAS LISTING /tmp/cctFPqVW.s 			page 54


 2865              		.size	chThdSleepUntil, .-chThdSleepUntil
 2866              		.section	.text.chThdSleepUntilWindowed,"ax",@progbits
 2867              		.p2align 4
 2868              		.globl	chThdSleepUntilWindowed
 2869              		.type	chThdSleepUntilWindowed, @function
 2870              	chThdSleepUntilWindowed:
 2871              	.LVL117:
 2872              	.LFB236:
 2873              		.loc 1 896 67 is_stmt 1 view -0
 2874              		.cfi_startproc
 2875              		.loc 1 897 3 view .LVU1022
 2876              		.loc 1 899 3 view .LVU1023
 2877              	.LBB618:
 2878              	.LBI618:
 2879              		.loc 3 407 20 view .LVU1024
 2880              		.loc 3 409 3 view .LVU1025
 2881              	.LBB619:
 2882              	.LBI619:
 2883              		.loc 4 361 20 view .LVU1026
 2884              	.LBB620:
 2885              		.loc 4 363 3 view .LVU1027
 2886              	.LBE620:
 2887              	.LBE619:
 2888              	.LBE618:
 2889              		.loc 1 896 67 is_stmt 0 view .LVU1028
 2890 0000 57       		pushl	%edi
 2891              		.cfi_def_cfa_offset 8
 2892              		.cfi_offset 7, -8
 2893 0001 56       		pushl	%esi
 2894              		.cfi_def_cfa_offset 12
 2895              		.cfi_offset 6, -12
 2896 0002 53       		pushl	%ebx
 2897              		.cfi_def_cfa_offset 16
 2898              		.cfi_offset 3, -16
 2899              		.loc 1 896 67 view .LVU1029
 2900 0003 8B742414 		movl	20(%esp), %esi
 2901 0007 E8FCFFFF 		call	__x86.get_pc_thunk.bx
 2901      FF
 2902 000c 81C30200 		addl	$_GLOBAL_OFFSET_TABLE_, %ebx
 2902      0000
 2903              	.LBB625:
 2904              	.LBB626:
 2905              		.loc 7 489 17 view .LVU1030
 2906 0012 89F1     		movl	%esi, %ecx
 2907 0014 2B4C2410 		subl	16(%esp), %ecx
 2908              	.LBE626:
 2909              	.LBE625:
 2910              	.LBB628:
 2911              	.LBB629:
 2912              		.loc 6 138 26 view .LVU1031
 2913 0018 8B830000 		movl	ch0@GOT(%ebx), %eax
 2913      0000
 2914              	.LBE629:
 2915              	.LBE628:
 2916              	.LBB632:
 2917              	.LBB623:
 2918              	.LBB621:
GAS LISTING /tmp/cctFPqVW.s 			page 55


 2919              		.loc 4 363 16 view .LVU1032
 2920 001e 8BBB0000 		movl	port_irq_sts@GOT(%ebx), %edi
 2920      0000
 2921              	.LBE621:
 2922              	.LBE623:
 2923              	.LBE632:
 2924              	.LBB633:
 2925              	.LBB630:
 2926              		.loc 6 138 26 view .LVU1033
 2927 0024 8B401C   		movl	28(%eax), %eax
 2928              	.LBE630:
 2929              	.LBE633:
 2930              	.LBB634:
 2931              	.LBB624:
 2932              	.LBB622:
 2933              		.loc 4 363 16 view .LVU1034
 2934 0027 C7070100 		movl	$1, (%edi)
 2934      0000
 2935              	.LBE622:
 2936              	.LBE624:
 2937              		.loc 3 410 35 is_stmt 1 view .LVU1035
 2938              		.loc 3 411 21 view .LVU1036
 2939              	.LBE634:
 2940              		.loc 1 900 3 view .LVU1037
 2941              	.LBB635:
 2942              	.LBI628:
 2943              		.loc 6 135 25 view .LVU1038
 2944              	.LBB631:
 2945              		.loc 6 138 3 view .LVU1039
 2946              	.LVL118:
 2947              		.loc 6 138 3 is_stmt 0 view .LVU1040
 2948              	.LBE631:
 2949              	.LBE635:
 2950              		.loc 1 901 3 is_stmt 1 view .LVU1041
 2951              	.LBB636:
 2952              	.LBI625:
 2953              		.loc 7 484 20 view .LVU1042
 2954              	.LBB627:
 2955              		.loc 7 488 3 view .LVU1043
 2956              		.loc 7 488 17 is_stmt 0 view .LVU1044
 2957 002d 89C2     		movl	%eax, %edx
 2958 002f 2B542410 		subl	16(%esp), %edx
 2959              	.LBE627:
 2960              	.LBE636:
 2961              		.loc 1 901 6 view .LVU1045
 2962 0033 39D1     		cmpl	%edx, %ecx
 2963 0035 7711     		ja	.L82
 2964              		.loc 1 904 3 is_stmt 1 view .LVU1046
 2965              	.LBB637:
 2966              	.LBI637:
 2967              		.loc 3 421 20 view .LVU1047
 2968              	.LBB638:
 2969              		.loc 3 423 23 view .LVU1048
 2970              		.loc 3 424 34 view .LVU1049
 2971              		.loc 3 430 3 view .LVU1050
 2972              		.loc 3 430 3 view .LVU1051
 2973              		.loc 3 430 3 view .LVU1052
GAS LISTING /tmp/cctFPqVW.s 			page 56


 2974              		.loc 3 434 3 view .LVU1053
 2975              	.LBB639:
 2976              	.LBI639:
 2977              		.loc 4 370 20 view .LVU1054
 2978              	.LBB640:
 2979              		.loc 4 372 3 view .LVU1055
 2980              	.LBE640:
 2981              	.LBE639:
 2982              	.LBE638:
 2983              	.LBE637:
 2984              		.loc 1 907 1 is_stmt 0 view .LVU1056
 2985 0037 89F0     		movl	%esi, %eax
 2986              	.LVL119:
 2987              		.loc 1 907 1 view .LVU1057
 2988 0039 5B       		popl	%ebx
 2989              		.cfi_remember_state
 2990              		.cfi_restore 3
 2991              		.cfi_def_cfa_offset 12
 2992 003a 5E       		popl	%esi
 2993              		.cfi_restore 6
 2994              		.cfi_def_cfa_offset 8
 2995              	.LBB650:
 2996              	.LBB647:
 2997              	.LBB644:
 2998              	.LBB641:
 2999              		.loc 4 372 16 view .LVU1058
 3000 003b C7070000 		movl	$0, (%edi)
 3000      0000
 3001              	.LBE641:
 3002              	.LBE644:
 3003              	.LBE647:
 3004              	.LBE650:
 3005              		.loc 1 906 3 is_stmt 1 view .LVU1059
 3006              		.loc 1 907 1 is_stmt 0 view .LVU1060
 3007 0041 5F       		popl	%edi
 3008              		.cfi_restore 7
 3009              		.cfi_def_cfa_offset 4
 3010 0042 C3       		ret
 3011              	.LVL120:
 3012              		.p2align 4,,10
 3013 0043 8D742600 		.p2align 3
 3013      90
 3014              	.L82:
 3015              		.cfi_restore_state
 3016              		.loc 1 902 5 is_stmt 1 view .LVU1061
 3017              	.LBB651:
 3018              	.LBI651:
 3019              		.loc 7 461 29 view .LVU1062
 3020              	.LBB652:
 3021              		.loc 7 465 3 view .LVU1063
 3022              		.loc 7 465 3 is_stmt 0 view .LVU1064
 3023              	.LBE652:
 3024              	.LBE651:
 3025              	.LBB655:
 3026              	.LBI655:
 3027              		.loc 5 629 20 is_stmt 1 view .LVU1065
 3028              	.LBB656:
GAS LISTING /tmp/cctFPqVW.s 			page 57


 3029              		.loc 5 631 3 view .LVU1066
 3030              		.loc 5 631 3 view .LVU1067
 3031              		.loc 5 631 3 view .LVU1068
 3032              		.loc 5 633 3 view .LVU1069
 3033              	.LBE656:
 3034              	.LBE655:
 3035              	.LBB659:
 3036              	.LBB653:
 3037              		.loc 7 465 10 is_stmt 0 view .LVU1070
 3038 0048 89F2     		movl	%esi, %edx
 3039              	.LBE653:
 3040              	.LBE659:
 3041              	.LBB660:
 3042              	.LBB657:
 3043              		.loc 5 633 10 view .LVU1071
 3044 004a 83EC08   		subl	$8, %esp
 3045              		.cfi_def_cfa_offset 24
 3046              	.LBE657:
 3047              	.LBE660:
 3048              	.LBB661:
 3049              	.LBB654:
 3050              		.loc 7 465 10 view .LVU1072
 3051 004d 29C2     		subl	%eax, %edx
 3052              	.LVL121:
 3053              		.loc 7 465 10 view .LVU1073
 3054              	.LBE654:
 3055              	.LBE661:
 3056              	.LBB662:
 3057              	.LBB658:
 3058              		.loc 5 633 10 view .LVU1074
 3059 004f 52       		pushl	%edx
 3060              		.cfi_def_cfa_offset 28
 3061 0050 6A08     		pushl	$8
 3062              		.cfi_def_cfa_offset 32
 3063 0052 E8FCFFFF 		call	chSchGoSleepTimeoutS@PLT
 3063      FF
 3064              	.LVL122:
 3065              		.loc 5 634 1 view .LVU1075
 3066 0057 83C410   		addl	$16, %esp
 3067              		.cfi_def_cfa_offset 16
 3068              		.loc 5 634 1 view .LVU1076
 3069              	.LBE658:
 3070              	.LBE662:
 3071              		.loc 1 904 3 is_stmt 1 view .LVU1077
 3072              	.LBB663:
 3073              		.loc 3 421 20 view .LVU1078
 3074              	.LBB648:
 3075              		.loc 3 423 23 view .LVU1079
 3076              		.loc 3 424 34 view .LVU1080
 3077              		.loc 3 430 3 view .LVU1081
 3078              		.loc 3 430 3 view .LVU1082
 3079              		.loc 3 430 3 view .LVU1083
 3080              		.loc 3 434 3 view .LVU1084
 3081              	.LBB645:
 3082              		.loc 4 370 20 view .LVU1085
 3083              	.LBB642:
 3084              		.loc 4 372 3 view .LVU1086
GAS LISTING /tmp/cctFPqVW.s 			page 58


 3085              	.LBE642:
 3086              	.LBE645:
 3087              	.LBE648:
 3088              	.LBE663:
 3089              		.loc 1 907 1 is_stmt 0 view .LVU1087
 3090 005a 89F0     		movl	%esi, %eax
 3091              	.LBB664:
 3092              	.LBB649:
 3093              	.LBB646:
 3094              	.LBB643:
 3095              		.loc 4 372 16 view .LVU1088
 3096 005c C7070000 		movl	$0, (%edi)
 3096      0000
 3097              	.LBE643:
 3098              	.LBE646:
 3099              	.LBE649:
 3100              	.LBE664:
 3101              		.loc 1 906 3 is_stmt 1 view .LVU1089
 3102              		.loc 1 907 1 is_stmt 0 view .LVU1090
 3103 0062 5B       		popl	%ebx
 3104              		.cfi_restore 3
 3105              		.cfi_def_cfa_offset 12
 3106 0063 5E       		popl	%esi
 3107              		.cfi_restore 6
 3108              		.cfi_def_cfa_offset 8
 3109              	.LVL123:
 3110              		.loc 1 907 1 view .LVU1091
 3111 0064 5F       		popl	%edi
 3112              		.cfi_restore 7
 3113              		.cfi_def_cfa_offset 4
 3114 0065 C3       		ret
 3115              		.cfi_endproc
 3116              	.LFE236:
 3117              		.size	chThdSleepUntilWindowed, .-chThdSleepUntilWindowed
 3118              		.section	.text.chThdYield,"ax",@progbits
 3119              		.p2align 4
 3120              		.globl	chThdYield
 3121              		.type	chThdYield, @function
 3122              	chThdYield:
 3123              	.LFB237:
 3124              		.loc 1 916 23 is_stmt 1 view -0
 3125              		.cfi_startproc
 3126              		.loc 1 918 3 view .LVU1093
 3127              	.LBB665:
 3128              	.LBI665:
 3129              		.loc 3 407 20 view .LVU1094
 3130              		.loc 3 409 3 view .LVU1095
 3131              	.LBB666:
 3132              	.LBI666:
 3133              		.loc 4 361 20 view .LVU1096
 3134              	.LBB667:
 3135              		.loc 4 363 3 view .LVU1097
 3136              	.LBE667:
 3137              	.LBE666:
 3138              	.LBE665:
 3139              		.loc 1 916 23 is_stmt 0 view .LVU1098
 3140 0000 56       		pushl	%esi
GAS LISTING /tmp/cctFPqVW.s 			page 59


 3141              		.cfi_def_cfa_offset 8
 3142              		.cfi_offset 6, -8
 3143 0001 53       		pushl	%ebx
 3144              		.cfi_def_cfa_offset 12
 3145              		.cfi_offset 3, -12
 3146 0002 E8FCFFFF 		call	__x86.get_pc_thunk.bx
 3146      FF
 3147 0007 81C30200 		addl	$_GLOBAL_OFFSET_TABLE_, %ebx
 3147      0000
 3148 000d 83EC04   		subl	$4, %esp
 3149              		.cfi_def_cfa_offset 16
 3150              	.LBB670:
 3151              	.LBB669:
 3152              	.LBB668:
 3153              		.loc 4 363 16 view .LVU1099
 3154 0010 8BB30000 		movl	port_irq_sts@GOT(%ebx), %esi
 3154      0000
 3155 0016 C7060100 		movl	$1, (%esi)
 3155      0000
 3156              	.LBE668:
 3157              	.LBE669:
 3158              		.loc 3 410 35 is_stmt 1 view .LVU1100
 3159              		.loc 3 411 21 view .LVU1101
 3160              	.LBE670:
 3161              		.loc 1 919 3 view .LVU1102
 3162 001c E8FCFFFF 		call	chSchDoYieldS@PLT
 3162      FF
 3163              	.LVL124:
 3164              		.loc 1 920 3 view .LVU1103
 3165              	.LBB671:
 3166              	.LBI671:
 3167              		.loc 3 421 20 view .LVU1104
 3168              	.LBB672:
 3169              		.loc 3 423 23 view .LVU1105
 3170              		.loc 3 424 34 view .LVU1106
 3171              		.loc 3 430 3 view .LVU1107
 3172              		.loc 3 430 3 view .LVU1108
 3173              		.loc 3 430 3 view .LVU1109
 3174              		.loc 3 434 3 view .LVU1110
 3175              	.LBB673:
 3176              	.LBI673:
 3177              		.loc 4 370 20 view .LVU1111
 3178              	.LBB674:
 3179              		.loc 4 372 3 view .LVU1112
 3180              		.loc 4 372 16 is_stmt 0 view .LVU1113
 3181 0021 C7060000 		movl	$0, (%esi)
 3181      0000
 3182              	.LBE674:
 3183              	.LBE673:
 3184              	.LBE672:
 3185              	.LBE671:
 3186              		.loc 1 921 1 view .LVU1114
 3187 0027 83C404   		addl	$4, %esp
 3188              		.cfi_def_cfa_offset 12
 3189 002a 5B       		popl	%ebx
 3190              		.cfi_restore 3
 3191              		.cfi_def_cfa_offset 8
GAS LISTING /tmp/cctFPqVW.s 			page 60


 3192 002b 5E       		popl	%esi
 3193              		.cfi_restore 6
 3194              		.cfi_def_cfa_offset 4
 3195 002c C3       		ret
 3196              		.cfi_endproc
 3197              	.LFE237:
 3198              		.size	chThdYield, .-chThdYield
 3199              		.section	.text.chThdSuspendS,"ax",@progbits
 3200              		.p2align 4
 3201              		.globl	chThdSuspendS
 3202              		.type	chThdSuspendS, @function
 3203              	chThdSuspendS:
 3204              	.LVL125:
 3205              	.LFB238:
 3206              		.loc 1 933 46 is_stmt 1 view -0
 3207              		.cfi_startproc
 3208              		.loc 1 934 3 view .LVU1116
 3209              	.LBB675:
 3210              	.LBI675:
 3211              		.loc 5 527 25 view .LVU1117
 3212              	.LBB676:
 3213              		.loc 5 529 3 view .LVU1118
 3214              	.LBE676:
 3215              	.LBE675:
 3216              		.loc 1 933 46 is_stmt 0 view .LVU1119
 3217 0000 56       		pushl	%esi
 3218              		.cfi_def_cfa_offset 8
 3219              		.cfi_offset 6, -8
 3220 0001 53       		pushl	%ebx
 3221              		.cfi_def_cfa_offset 12
 3222              		.cfi_offset 3, -12
 3223 0002 E8FCFFFF 		call	__x86.get_pc_thunk.bx
 3223      FF
 3224 0007 81C30200 		addl	$_GLOBAL_OFFSET_TABLE_, %ebx
 3224      0000
 3225 000d 83EC10   		subl	$16, %esp
 3226              		.cfi_def_cfa_offset 28
 3227              		.loc 1 933 46 view .LVU1120
 3228 0010 8B54241C 		movl	28(%esp), %edx
 3229              	.LBB678:
 3230              	.LBB677:
 3231              		.loc 5 529 10 view .LVU1121
 3232 0014 8BB30000 		movl	ch0@GOT(%ebx), %esi
 3232      0000
 3233 001a 8B460C   		movl	12(%esi), %eax
 3234              	.LVL126:
 3235              		.loc 5 529 10 view .LVU1122
 3236              	.LBE677:
 3237              	.LBE678:
 3238              		.loc 1 936 3 is_stmt 1 view .LVU1123
 3239              		.loc 1 936 3 view .LVU1124
 3240              		.loc 1 936 3 view .LVU1125
 3241              		.loc 1 938 3 view .LVU1126
 3242              		.loc 1 938 8 is_stmt 0 view .LVU1127
 3243 001d 8902     		movl	%eax, (%edx)
 3244              		.loc 1 939 3 is_stmt 1 view .LVU1128
 3245              		.loc 1 939 15 is_stmt 0 view .LVU1129
GAS LISTING /tmp/cctFPqVW.s 			page 61


 3246 001f 895034   		movl	%edx, 52(%eax)
 3247              		.loc 1 940 3 is_stmt 1 view .LVU1130
 3248 0022 6A03     		pushl	$3
 3249              		.cfi_def_cfa_offset 32
 3250 0024 E8FCFFFF 		call	chSchGoSleepS@PLT
 3250      FF
 3251              	.LVL127:
 3252              		.loc 1 942 3 view .LVU1131
 3253              	.LBB679:
 3254              	.LBI679:
 3255              		.loc 5 527 25 view .LVU1132
 3256              	.LBB680:
 3257              		.loc 5 529 3 view .LVU1133
 3258              	.LBE680:
 3259              	.LBE679:
 3260              		.loc 1 942 28 is_stmt 0 view .LVU1134
 3261 0029 8B460C   		movl	12(%esi), %eax
 3262 002c 8B4034   		movl	52(%eax), %eax
 3263              		.loc 1 943 1 view .LVU1135
 3264 002f 83C414   		addl	$20, %esp
 3265              		.cfi_def_cfa_offset 12
 3266 0032 5B       		popl	%ebx
 3267              		.cfi_restore 3
 3268              		.cfi_def_cfa_offset 8
 3269 0033 5E       		popl	%esi
 3270              		.cfi_restore 6
 3271              		.cfi_def_cfa_offset 4
 3272 0034 C3       		ret
 3273              		.cfi_endproc
 3274              	.LFE238:
 3275              		.size	chThdSuspendS, .-chThdSuspendS
 3276              		.section	.text.chThdSuspendTimeoutS,"ax",@progbits
 3277              		.p2align 4
 3278              		.globl	chThdSuspendTimeoutS
 3279              		.type	chThdSuspendTimeoutS, @function
 3280              	chThdSuspendTimeoutS:
 3281              	.LVL128:
 3282              	.LFB239:
 3283              		.loc 1 963 76 is_stmt 1 view -0
 3284              		.cfi_startproc
 3285              		.loc 1 964 3 view .LVU1137
 3286              	.LBB681:
 3287              	.LBI681:
 3288              		.loc 5 527 25 view .LVU1138
 3289              	.LBB682:
 3290              		.loc 5 529 3 view .LVU1139
 3291              	.LBE682:
 3292              	.LBE681:
 3293              		.loc 1 963 76 is_stmt 0 view .LVU1140
 3294 0000 53       		pushl	%ebx
 3295              		.cfi_def_cfa_offset 8
 3296              		.cfi_offset 3, -8
 3297 0001 E8FCFFFF 		call	__x86.get_pc_thunk.bx
 3297      FF
 3298 0006 81C30200 		addl	$_GLOBAL_OFFSET_TABLE_, %ebx
 3298      0000
 3299 000c 83EC08   		subl	$8, %esp
GAS LISTING /tmp/cctFPqVW.s 			page 62


 3300              		.cfi_def_cfa_offset 16
 3301              		.loc 1 963 76 view .LVU1141
 3302 000f 8B442414 		movl	20(%esp), %eax
 3303 0013 8B4C2410 		movl	16(%esp), %ecx
 3304              	.LBB684:
 3305              	.LBB683:
 3306              		.loc 5 529 10 view .LVU1142
 3307 0017 8B930000 		movl	ch0@GOT(%ebx), %edx
 3307      0000
 3308 001d 8B520C   		movl	12(%edx), %edx
 3309              	.LVL129:
 3310              		.loc 5 529 10 view .LVU1143
 3311              	.LBE683:
 3312              	.LBE684:
 3313              		.loc 1 966 3 is_stmt 1 view .LVU1144
 3314              		.loc 1 966 3 view .LVU1145
 3315              		.loc 1 966 3 view .LVU1146
 3316              		.loc 1 968 3 view .LVU1147
 3317              		.loc 1 968 6 is_stmt 0 view .LVU1148
 3318 0020 85C0     		testl	%eax, %eax
 3319 0022 741C     		je	.L89
 3320              		.loc 1 972 3 is_stmt 1 view .LVU1149
 3321              		.loc 1 975 10 is_stmt 0 view .LVU1150
 3322 0024 83EC08   		subl	$8, %esp
 3323              		.cfi_def_cfa_offset 24
 3324              		.loc 1 972 8 view .LVU1151
 3325 0027 8911     		movl	%edx, (%ecx)
 3326              		.loc 1 973 3 is_stmt 1 view .LVU1152
 3327              		.loc 1 973 15 is_stmt 0 view .LVU1153
 3328 0029 894A34   		movl	%ecx, 52(%edx)
 3329              		.loc 1 975 3 is_stmt 1 view .LVU1154
 3330              		.loc 1 975 10 is_stmt 0 view .LVU1155
 3331 002c 50       		pushl	%eax
 3332              		.cfi_def_cfa_offset 28
 3333 002d 6A03     		pushl	$3
 3334              		.cfi_def_cfa_offset 32
 3335 002f E8FCFFFF 		call	chSchGoSleepTimeoutS@PLT
 3335      FF
 3336              	.LVL130:
 3337              		.loc 1 975 10 view .LVU1156
 3338 0034 83C410   		addl	$16, %esp
 3339              		.cfi_def_cfa_offset 16
 3340              	.L87:
 3341              		.loc 1 976 1 view .LVU1157
 3342 0037 83C408   		addl	$8, %esp
 3343              		.cfi_remember_state
 3344              		.cfi_def_cfa_offset 8
 3345 003a 5B       		popl	%ebx
 3346              		.cfi_restore 3
 3347              		.cfi_def_cfa_offset 4
 3348 003b C3       		ret
 3349              	.LVL131:
 3350 003c 8D742600 		.p2align 4,,10
 3351              		.p2align 3
 3352              	.L89:
 3353              		.cfi_restore_state
 3354              		.loc 1 969 12 view .LVU1158
GAS LISTING /tmp/cctFPqVW.s 			page 63


 3355 0040 B8FFFFFF 		movl	$-1, %eax
 3355      FF
 3356 0045 EBF0     		jmp	.L87
 3357              		.cfi_endproc
 3358              	.LFE239:
 3359              		.size	chThdSuspendTimeoutS, .-chThdSuspendTimeoutS
 3360              		.section	.text.chThdResumeI,"ax",@progbits
 3361              		.p2align 4
 3362              		.globl	chThdResumeI
 3363              		.type	chThdResumeI, @function
 3364              	chThdResumeI:
 3365              	.LVL132:
 3366              	.LFB240:
 3367              		.loc 1 988 55 is_stmt 1 view -0
 3368              		.cfi_startproc
 3369              		.loc 1 990 3 view .LVU1160
 3370              		.loc 1 988 55 is_stmt 0 view .LVU1161
 3371 0000 53       		pushl	%ebx
 3372              		.cfi_def_cfa_offset 8
 3373              		.cfi_offset 3, -8
 3374 0001 E8FCFFFF 		call	__x86.get_pc_thunk.bx
 3374      FF
 3375 0006 81C30200 		addl	$_GLOBAL_OFFSET_TABLE_, %ebx
 3375      0000
 3376 000c 83EC08   		subl	$8, %esp
 3377              		.cfi_def_cfa_offset 16
 3378              		.loc 1 988 55 view .LVU1162
 3379 000f 8B542410 		movl	16(%esp), %edx
 3380              		.loc 1 990 7 view .LVU1163
 3381 0013 8B02     		movl	(%edx), %eax
 3382              		.loc 1 990 6 view .LVU1164
 3383 0015 85C0     		testl	%eax, %eax
 3384 0017 7419     		je	.L91
 3385              	.LBB685:
 3386              		.loc 1 991 5 is_stmt 1 view .LVU1165
 3387              	.LVL133:
 3388              		.loc 1 993 5 view .LVU1166
 3389              		.loc 1 993 5 view .LVU1167
 3390              		.loc 1 993 5 view .LVU1168
 3391              		.loc 1 995 5 view .LVU1169
 3392              		.loc 1 995 10 is_stmt 0 view .LVU1170
 3393 0019 C7020000 		movl	$0, (%edx)
 3393      0000
 3394              		.loc 1 996 5 is_stmt 1 view .LVU1171
 3395              		.loc 1 996 18 is_stmt 0 view .LVU1172
 3396 001f 8B542414 		movl	20(%esp), %edx
 3397              		.loc 1 997 12 view .LVU1173
 3398 0023 83EC0C   		subl	$12, %esp
 3399              		.cfi_def_cfa_offset 28
 3400              		.loc 1 996 18 view .LVU1174
 3401 0026 895034   		movl	%edx, 52(%eax)
 3402              		.loc 1 997 5 is_stmt 1 view .LVU1175
 3403              		.loc 1 997 12 is_stmt 0 view .LVU1176
 3404 0029 50       		pushl	%eax
 3405              		.cfi_def_cfa_offset 32
 3406 002a E8FCFFFF 		call	chSchReadyI@PLT
 3406      FF
GAS LISTING /tmp/cctFPqVW.s 			page 64


 3407              	.LVL134:
 3408              		.loc 1 997 12 view .LVU1177
 3409 002f 83C410   		addl	$16, %esp
 3410              		.cfi_def_cfa_offset 16
 3411              	.L91:
 3412              		.loc 1 997 12 view .LVU1178
 3413              	.LBE685:
 3414              		.loc 1 999 1 view .LVU1179
 3415 0032 83C408   		addl	$8, %esp
 3416              		.cfi_def_cfa_offset 8
 3417 0035 5B       		popl	%ebx
 3418              		.cfi_restore 3
 3419              		.cfi_def_cfa_offset 4
 3420 0036 C3       		ret
 3421              		.cfi_endproc
 3422              	.LFE240:
 3423              		.size	chThdResumeI, .-chThdResumeI
 3424              		.section	.text.chThdResumeS,"ax",@progbits
 3425              		.p2align 4
 3426              		.globl	chThdResumeS
 3427              		.type	chThdResumeS, @function
 3428              	chThdResumeS:
 3429              	.LVL135:
 3430              	.LFB241:
 3431              		.loc 1 1011 55 is_stmt 1 view -0
 3432              		.cfi_startproc
 3433              		.loc 1 1013 3 view .LVU1181
 3434              		.loc 1 1011 55 is_stmt 0 view .LVU1182
 3435 0000 53       		pushl	%ebx
 3436              		.cfi_def_cfa_offset 8
 3437              		.cfi_offset 3, -8
 3438 0001 E8FCFFFF 		call	__x86.get_pc_thunk.bx
 3438      FF
 3439 0006 81C30200 		addl	$_GLOBAL_OFFSET_TABLE_, %ebx
 3439      0000
 3440 000c 83EC08   		subl	$8, %esp
 3441              		.cfi_def_cfa_offset 16
 3442              		.loc 1 1011 55 view .LVU1183
 3443 000f 8B542410 		movl	16(%esp), %edx
 3444              		.loc 1 1013 7 view .LVU1184
 3445 0013 8B02     		movl	(%edx), %eax
 3446              		.loc 1 1013 6 view .LVU1185
 3447 0015 85C0     		testl	%eax, %eax
 3448 0017 7416     		je	.L97
 3449              	.LBB686:
 3450              		.loc 1 1014 5 is_stmt 1 view .LVU1186
 3451              	.LVL136:
 3452              		.loc 1 1016 5 view .LVU1187
 3453              		.loc 1 1016 5 view .LVU1188
 3454              		.loc 1 1016 5 view .LVU1189
 3455              		.loc 1 1018 5 view .LVU1190
 3456              		.loc 1 1019 5 is_stmt 0 view .LVU1191
 3457 0019 83EC08   		subl	$8, %esp
 3458              		.cfi_def_cfa_offset 24
 3459              		.loc 1 1018 10 view .LVU1192
 3460 001c C7020000 		movl	$0, (%edx)
 3460      0000
GAS LISTING /tmp/cctFPqVW.s 			page 65


 3461              		.loc 1 1019 5 is_stmt 1 view .LVU1193
 3462 0022 FF74241C 		pushl	28(%esp)
 3463              		.cfi_def_cfa_offset 28
 3464 0026 50       		pushl	%eax
 3465              		.cfi_def_cfa_offset 32
 3466 0027 E8FCFFFF 		call	chSchWakeupS@PLT
 3466      FF
 3467              	.LVL137:
 3468              		.loc 1 1019 5 is_stmt 0 view .LVU1194
 3469 002c 83C410   		addl	$16, %esp
 3470              		.cfi_def_cfa_offset 16
 3471              	.L97:
 3472              		.loc 1 1019 5 view .LVU1195
 3473              	.LBE686:
 3474              		.loc 1 1021 1 view .LVU1196
 3475 002f 83C408   		addl	$8, %esp
 3476              		.cfi_def_cfa_offset 8
 3477 0032 5B       		popl	%ebx
 3478              		.cfi_restore 3
 3479              		.cfi_def_cfa_offset 4
 3480 0033 C3       		ret
 3481              		.cfi_endproc
 3482              	.LFE241:
 3483              		.size	chThdResumeS, .-chThdResumeS
 3484              		.section	.text.chThdResume,"ax",@progbits
 3485              		.p2align 4
 3486              		.globl	chThdResume
 3487              		.type	chThdResume, @function
 3488              	chThdResume:
 3489              	.LVL138:
 3490              	.LFB242:
 3491              		.loc 1 1033 54 is_stmt 1 view -0
 3492              		.cfi_startproc
 3493              		.loc 1 1035 3 view .LVU1198
 3494              	.LBB687:
 3495              	.LBI687:
 3496              		.loc 3 407 20 view .LVU1199
 3497              		.loc 3 409 3 view .LVU1200
 3498              	.LBB688:
 3499              	.LBI688:
 3500              		.loc 4 361 20 view .LVU1201
 3501              	.LBB689:
 3502              		.loc 4 363 3 view .LVU1202
 3503              	.LBE689:
 3504              	.LBE688:
 3505              	.LBE687:
 3506              		.loc 1 1033 54 is_stmt 0 view .LVU1203
 3507 0000 56       		pushl	%esi
 3508              		.cfi_def_cfa_offset 8
 3509              		.cfi_offset 6, -8
 3510 0001 53       		pushl	%ebx
 3511              		.cfi_def_cfa_offset 12
 3512              		.cfi_offset 3, -12
 3513 0002 E8FCFFFF 		call	__x86.get_pc_thunk.bx
 3513      FF
 3514 0007 81C30200 		addl	$_GLOBAL_OFFSET_TABLE_, %ebx
 3514      0000
GAS LISTING /tmp/cctFPqVW.s 			page 66


 3515 000d 83EC04   		subl	$4, %esp
 3516              		.cfi_def_cfa_offset 16
 3517              		.loc 1 1033 54 view .LVU1204
 3518 0010 8B542410 		movl	16(%esp), %edx
 3519              	.LBB692:
 3520              	.LBB693:
 3521              		.loc 1 1013 7 view .LVU1205
 3522 0014 8B02     		movl	(%edx), %eax
 3523              	.LBE693:
 3524              	.LBE692:
 3525              	.LBB696:
 3526              	.LBB691:
 3527              	.LBB690:
 3528              		.loc 4 363 16 view .LVU1206
 3529 0016 8BB30000 		movl	port_irq_sts@GOT(%ebx), %esi
 3529      0000
 3530 001c C7060100 		movl	$1, (%esi)
 3530      0000
 3531              	.LBE690:
 3532              	.LBE691:
 3533              		.loc 3 410 35 is_stmt 1 view .LVU1207
 3534              		.loc 3 411 21 view .LVU1208
 3535              	.LBE696:
 3536              		.loc 1 1036 3 view .LVU1209
 3537              	.LVL139:
 3538              	.LBB697:
 3539              	.LBI692:
 3540              		.loc 1 1011 6 view .LVU1210
 3541              	.LBB695:
 3542              		.loc 1 1013 3 view .LVU1211
 3543              		.loc 1 1013 6 is_stmt 0 view .LVU1212
 3544 0022 85C0     		testl	%eax, %eax
 3545 0024 7416     		je	.L104
 3546              	.LBB694:
 3547              		.loc 1 1014 5 is_stmt 1 view .LVU1213
 3548              	.LVL140:
 3549              		.loc 1 1016 5 view .LVU1214
 3550              		.loc 1 1016 5 view .LVU1215
 3551              		.loc 1 1016 5 view .LVU1216
 3552              		.loc 1 1018 5 view .LVU1217
 3553              		.loc 1 1019 5 is_stmt 0 view .LVU1218
 3554 0026 83EC08   		subl	$8, %esp
 3555              		.cfi_def_cfa_offset 24
 3556              		.loc 1 1018 10 view .LVU1219
 3557 0029 C7020000 		movl	$0, (%edx)
 3557      0000
 3558              		.loc 1 1019 5 is_stmt 1 view .LVU1220
 3559 002f FF74241C 		pushl	28(%esp)
 3560              		.cfi_def_cfa_offset 28
 3561 0033 50       		pushl	%eax
 3562              		.cfi_def_cfa_offset 32
 3563 0034 E8FCFFFF 		call	chSchWakeupS@PLT
 3563      FF
 3564              	.LVL141:
 3565              		.loc 1 1019 5 is_stmt 0 view .LVU1221
 3566 0039 83C410   		addl	$16, %esp
 3567              		.cfi_def_cfa_offset 16
GAS LISTING /tmp/cctFPqVW.s 			page 67


 3568              	.L104:
 3569              	.LVL142:
 3570              		.loc 1 1019 5 view .LVU1222
 3571              	.LBE694:
 3572              	.LBE695:
 3573              	.LBE697:
 3574              		.loc 1 1037 3 is_stmt 1 view .LVU1223
 3575              	.LBB698:
 3576              	.LBI698:
 3577              		.loc 3 421 20 view .LVU1224
 3578              	.LBB699:
 3579              		.loc 3 423 23 view .LVU1225
 3580              		.loc 3 424 34 view .LVU1226
 3581              		.loc 3 430 3 view .LVU1227
 3582              		.loc 3 430 3 view .LVU1228
 3583              		.loc 3 430 3 view .LVU1229
 3584              		.loc 3 434 3 view .LVU1230
 3585              	.LBB700:
 3586              	.LBI700:
 3587              		.loc 4 370 20 view .LVU1231
 3588              	.LBB701:
 3589              		.loc 4 372 3 view .LVU1232
 3590              		.loc 4 372 16 is_stmt 0 view .LVU1233
 3591 003c C7060000 		movl	$0, (%esi)
 3591      0000
 3592              	.LBE701:
 3593              	.LBE700:
 3594              	.LBE699:
 3595              	.LBE698:
 3596              		.loc 1 1038 1 view .LVU1234
 3597 0042 83C404   		addl	$4, %esp
 3598              		.cfi_def_cfa_offset 12
 3599 0045 5B       		popl	%ebx
 3600              		.cfi_restore 3
 3601              		.cfi_def_cfa_offset 8
 3602 0046 5E       		popl	%esi
 3603              		.cfi_restore 6
 3604              		.cfi_def_cfa_offset 4
 3605 0047 C3       		ret
 3606              		.cfi_endproc
 3607              	.LFE242:
 3608              		.size	chThdResume, .-chThdResume
 3609              		.section	.text.chThdQueueObjectInit,"ax",@progbits
 3610              		.p2align 4
 3611              		.globl	chThdQueueObjectInit
 3612              		.type	chThdQueueObjectInit, @function
 3613              	chThdQueueObjectInit:
 3614              	.LVL143:
 3615              	.LFB243:
 3616              		.loc 1 1047 49 is_stmt 1 view -0
 3617              		.cfi_startproc
 3618              		.loc 1 1049 3 view .LVU1236
 3619              		.loc 1 1049 3 view .LVU1237
 3620              		.loc 1 1049 3 view .LVU1238
 3621              		.loc 1 1051 3 view .LVU1239
 3622              		.loc 1 1047 49 is_stmt 0 view .LVU1240
 3623 0000 8B442404 		movl	4(%esp), %eax
GAS LISTING /tmp/cctFPqVW.s 			page 68


 3624              	.LVL144:
 3625              	.LBB702:
 3626              	.LBI702:
 3627              		.loc 2 282 20 is_stmt 1 view .LVU1241
 3628              	.LBB703:
 3629              		.loc 2 284 3 view .LVU1242
 3630              		.loc 2 284 12 is_stmt 0 view .LVU1243
 3631 0004 8900     		movl	%eax, (%eax)
 3632              		.loc 2 285 3 is_stmt 1 view .LVU1244
 3633              		.loc 2 285 12 is_stmt 0 view .LVU1245
 3634 0006 894004   		movl	%eax, 4(%eax)
 3635              	.LVL145:
 3636              		.loc 2 285 12 view .LVU1246
 3637              	.LBE703:
 3638              	.LBE702:
 3639              		.loc 1 1052 1 view .LVU1247
 3640 0009 C3       		ret
 3641              		.cfi_endproc
 3642              	.LFE243:
 3643              		.size	chThdQueueObjectInit, .-chThdQueueObjectInit
 3644              		.section	.text.chThdQueueObjectDispose,"ax",@progbits
 3645              		.p2align 4
 3646              		.globl	chThdQueueObjectDispose
 3647              		.type	chThdQueueObjectDispose, @function
 3648              	chThdQueueObjectDispose:
 3649              	.LFB250:
 3650              		.cfi_startproc
 3651 0000 C3       		ret
 3652              		.cfi_endproc
 3653              	.LFE250:
 3654              		.size	chThdQueueObjectDispose, .-chThdQueueObjectDispose
 3655              		.section	.text.chThdEnqueueTimeoutS,"ax",@progbits
 3656              		.p2align 4
 3657              		.globl	chThdEnqueueTimeoutS
 3658              		.type	chThdEnqueueTimeoutS, @function
 3659              	chThdEnqueueTimeoutS:
 3660              	.LVL146:
 3661              	.LFB245:
 3662              		.loc 1 1102 73 is_stmt 1 view -0
 3663              		.cfi_startproc
 3664              		.loc 1 1103 3 view .LVU1249
 3665              	.LBB704:
 3666              	.LBI704:
 3667              		.loc 5 527 25 view .LVU1250
 3668              	.LBB705:
 3669              		.loc 5 529 3 view .LVU1251
 3670              	.LBE705:
 3671              	.LBE704:
 3672              		.loc 1 1102 73 is_stmt 0 view .LVU1252
 3673 0000 56       		pushl	%esi
 3674              		.cfi_def_cfa_offset 8
 3675              		.cfi_offset 6, -8
 3676 0001 53       		pushl	%ebx
 3677              		.cfi_def_cfa_offset 12
 3678              		.cfi_offset 3, -12
 3679 0002 E8FCFFFF 		call	__x86.get_pc_thunk.bx
 3679      FF
GAS LISTING /tmp/cctFPqVW.s 			page 69


 3680 0007 81C30200 		addl	$_GLOBAL_OFFSET_TABLE_, %ebx
 3680      0000
 3681 000d 83EC04   		subl	$4, %esp
 3682              		.cfi_def_cfa_offset 16
 3683              		.loc 1 1102 73 view .LVU1253
 3684 0010 8B4C2414 		movl	20(%esp), %ecx
 3685 0014 8B542410 		movl	16(%esp), %edx
 3686              	.LBB707:
 3687              	.LBB706:
 3688              		.loc 5 529 10 view .LVU1254
 3689 0018 8B830000 		movl	ch0@GOT(%ebx), %eax
 3689      0000
 3690 001e 8B400C   		movl	12(%eax), %eax
 3691              	.LVL147:
 3692              		.loc 5 529 10 view .LVU1255
 3693              	.LBE706:
 3694              	.LBE707:
 3695              		.loc 1 1105 3 is_stmt 1 view .LVU1256
 3696              		.loc 1 1105 6 is_stmt 0 view .LVU1257
 3697 0021 85C9     		testl	%ecx, %ecx
 3698 0023 742B     		je	.L113
 3699              		.loc 1 1109 3 is_stmt 1 view .LVU1258
 3700              	.LVL148:
 3701              	.LBB708:
 3702              	.LBI708:
 3703              		.loc 2 322 20 view .LVU1259
 3704              	.LBB709:
 3705              		.loc 2 324 3 view .LVU1260
 3706              		.loc 2 325 21 is_stmt 0 view .LVU1261
 3707 0025 8B7204   		movl	4(%edx), %esi
 3708              	.LBE709:
 3709              	.LBE708:
 3710              		.loc 1 1111 10 view .LVU1262
 3711 0028 83EC08   		subl	$8, %esp
 3712              		.cfi_def_cfa_offset 24
 3713              	.LBB711:
 3714              	.LBB710:
 3715              		.loc 2 324 17 view .LVU1263
 3716 002b 8910     		movl	%edx, (%eax)
 3717              		.loc 2 325 3 is_stmt 1 view .LVU1264
 3718              		.loc 2 325 17 is_stmt 0 view .LVU1265
 3719 002d 897004   		movl	%esi, 4(%eax)
 3720              		.loc 2 326 3 is_stmt 1 view .LVU1266
 3721              		.loc 2 326 17 is_stmt 0 view .LVU1267
 3722 0030 8906     		movl	%eax, (%esi)
 3723              		.loc 2 327 3 is_stmt 1 view .LVU1268
 3724              		.loc 2 327 17 is_stmt 0 view .LVU1269
 3725 0032 894204   		movl	%eax, 4(%edx)
 3726              	.LVL149:
 3727              		.loc 2 327 17 view .LVU1270
 3728              	.LBE710:
 3729              	.LBE711:
 3730              		.loc 1 1111 3 is_stmt 1 view .LVU1271
 3731              		.loc 1 1111 10 is_stmt 0 view .LVU1272
 3732 0035 51       		pushl	%ecx
 3733              		.cfi_def_cfa_offset 28
 3734 0036 6A04     		pushl	$4
GAS LISTING /tmp/cctFPqVW.s 			page 70


 3735              		.cfi_def_cfa_offset 32
 3736 0038 E8FCFFFF 		call	chSchGoSleepTimeoutS@PLT
 3736      FF
 3737              	.LVL150:
 3738              		.loc 1 1111 10 view .LVU1273
 3739 003d 83C410   		addl	$16, %esp
 3740              		.cfi_def_cfa_offset 16
 3741              	.L111:
 3742              		.loc 1 1112 1 view .LVU1274
 3743 0040 83C404   		addl	$4, %esp
 3744              		.cfi_remember_state
 3745              		.cfi_def_cfa_offset 12
 3746 0043 5B       		popl	%ebx
 3747              		.cfi_restore 3
 3748              		.cfi_def_cfa_offset 8
 3749 0044 5E       		popl	%esi
 3750              		.cfi_restore 6
 3751              		.cfi_def_cfa_offset 4
 3752 0045 C3       		ret
 3753              	.LVL151:
 3754 0046 8DB42600 		.p2align 4,,10
 3754      0000008D 
 3754      7600
 3755              		.p2align 3
 3756              	.L113:
 3757              		.cfi_restore_state
 3758              		.loc 1 1106 12 view .LVU1275
 3759 0050 B8FFFFFF 		movl	$-1, %eax
 3759      FF
 3760              	.LVL152:
 3761              		.loc 1 1106 12 view .LVU1276
 3762 0055 EBE9     		jmp	.L111
 3763              		.cfi_endproc
 3764              	.LFE245:
 3765              		.size	chThdEnqueueTimeoutS, .-chThdEnqueueTimeoutS
 3766              		.section	.text.chThdDequeueNextI,"ax",@progbits
 3767              		.p2align 4
 3768              		.globl	chThdDequeueNextI
 3769              		.type	chThdDequeueNextI, @function
 3770              	chThdDequeueNextI:
 3771              	.LVL153:
 3772              	.LFB246:
 3773              		.loc 1 1123 57 is_stmt 1 view -0
 3774              		.cfi_startproc
 3775              		.loc 1 1125 3 view .LVU1278
 3776              		.loc 1 1123 57 is_stmt 0 view .LVU1279
 3777 0000 53       		pushl	%ebx
 3778              		.cfi_def_cfa_offset 8
 3779              		.cfi_offset 3, -8
 3780 0001 E8FCFFFF 		call	__x86.get_pc_thunk.bx
 3780      FF
 3781 0006 81C30200 		addl	$_GLOBAL_OFFSET_TABLE_, %ebx
 3781      0000
 3782 000c 83EC08   		subl	$8, %esp
 3783              		.cfi_def_cfa_offset 16
 3784              		.loc 1 1123 57 view .LVU1280
 3785 000f 8B442410 		movl	16(%esp), %eax
GAS LISTING /tmp/cctFPqVW.s 			page 71


 3786              	.LVL154:
 3787              	.LBB712:
 3788              	.LBI712:
 3789              		.loc 2 309 20 is_stmt 1 view .LVU1281
 3790              	.LBB713:
 3791              		.loc 2 311 3 view .LVU1282
 3792              		.loc 2 311 19 is_stmt 0 view .LVU1283
 3793 0013 8B10     		movl	(%eax), %edx
 3794              	.LVL155:
 3795              		.loc 2 311 19 view .LVU1284
 3796              	.LBE713:
 3797              	.LBE712:
 3798              		.loc 1 1125 6 view .LVU1285
 3799 0015 39D0     		cmpl	%edx, %eax
 3800 0017 741A     		je	.L115
 3801              		.loc 1 1126 5 is_stmt 1 view .LVU1286
 3802              	.LVL156:
 3803              	.LBB714:
 3804              	.LBI714:
 3805              		.loc 5 664 20 view .LVU1287
 3806              	.LBB715:
 3807              		.loc 5 665 3 view .LVU1288
 3808              		.loc 5 667 3 view .LVU1289
 3809              		.loc 5 667 3 view .LVU1290
 3810              		.loc 5 667 3 view .LVU1291
 3811              		.loc 5 669 3 view .LVU1292
 3812              	.LBB716:
 3813              	.LBI716:
 3814              		.loc 2 340 27 view .LVU1293
 3815              	.LBB717:
 3816              		.loc 2 341 3 view .LVU1294
 3817              		.loc 2 343 3 view .LVU1295
 3818              		.loc 2 343 21 is_stmt 0 view .LVU1296
 3819 0019 8B0A     		movl	(%edx), %ecx
 3820              	.LBE717:
 3821              	.LBE716:
 3822              		.loc 5 674 10 view .LVU1297
 3823 001b 83EC0C   		subl	$12, %esp
 3824              		.cfi_def_cfa_offset 28
 3825              	.LBB719:
 3826              	.LBB718:
 3827              		.loc 2 343 18 view .LVU1298
 3828 001e 8908     		movl	%ecx, (%eax)
 3829              		.loc 2 344 3 is_stmt 1 view .LVU1299
 3830              		.loc 2 344 18 is_stmt 0 view .LVU1300
 3831 0020 894104   		movl	%eax, 4(%ecx)
 3832              		.loc 2 346 3 is_stmt 1 view .LVU1301
 3833              	.LVL157:
 3834              		.loc 2 346 3 is_stmt 0 view .LVU1302
 3835              	.LBE718:
 3836              	.LBE719:
 3837              		.loc 5 671 3 is_stmt 1 view .LVU1303
 3838              		.loc 5 671 3 view .LVU1304
 3839              		.loc 5 671 3 view .LVU1305
 3840              		.loc 5 673 3 view .LVU1306
 3841              		.loc 5 673 16 is_stmt 0 view .LVU1307
 3842 0023 8B442420 		movl	32(%esp), %eax
GAS LISTING /tmp/cctFPqVW.s 			page 72


 3843              	.LVL158:
 3844              		.loc 5 673 16 view .LVU1308
 3845 0027 894234   		movl	%eax, 52(%edx)
 3846              		.loc 5 674 3 is_stmt 1 view .LVU1309
 3847              		.loc 5 674 10 is_stmt 0 view .LVU1310
 3848 002a 52       		pushl	%edx
 3849              		.cfi_def_cfa_offset 32
 3850 002b E8FCFFFF 		call	chSchReadyI@PLT
 3850      FF
 3851              	.LVL159:
 3852              		.loc 5 675 1 view .LVU1311
 3853 0030 83C410   		addl	$16, %esp
 3854              		.cfi_def_cfa_offset 16
 3855              	.LVL160:
 3856              	.L115:
 3857              		.loc 5 675 1 view .LVU1312
 3858              	.LBE715:
 3859              	.LBE714:
 3860              		.loc 1 1128 1 view .LVU1313
 3861 0033 83C408   		addl	$8, %esp
 3862              		.cfi_def_cfa_offset 8
 3863 0036 5B       		popl	%ebx
 3864              		.cfi_restore 3
 3865              		.cfi_def_cfa_offset 4
 3866 0037 C3       		ret
 3867              		.cfi_endproc
 3868              	.LFE246:
 3869              		.size	chThdDequeueNextI, .-chThdDequeueNextI
 3870              		.section	.text.chThdDequeueAllI,"ax",@progbits
 3871              		.p2align 4
 3872              		.globl	chThdDequeueAllI
 3873              		.type	chThdDequeueAllI, @function
 3874              	chThdDequeueAllI:
 3875              	.LVL161:
 3876              	.LFB247:
 3877              		.loc 1 1138 56 is_stmt 1 view -0
 3878              		.cfi_startproc
 3879              		.loc 1 1140 3 view .LVU1315
 3880              		.loc 1 1140 10 view .LVU1316
 3881              		.loc 1 1138 56 is_stmt 0 view .LVU1317
 3882 0000 57       		pushl	%edi
 3883              		.cfi_def_cfa_offset 8
 3884              		.cfi_offset 7, -8
 3885 0001 56       		pushl	%esi
 3886              		.cfi_def_cfa_offset 12
 3887              		.cfi_offset 6, -12
 3888 0002 53       		pushl	%ebx
 3889              		.cfi_def_cfa_offset 16
 3890              		.cfi_offset 3, -16
 3891              		.loc 1 1138 56 view .LVU1318
 3892 0003 8B742410 		movl	16(%esp), %esi
 3893              	.LVL162:
 3894              	.LBB720:
 3895              	.LBI720:
 3896              		.loc 2 309 20 is_stmt 1 view .LVU1319
 3897              	.LBB721:
 3898              		.loc 2 311 3 view .LVU1320
GAS LISTING /tmp/cctFPqVW.s 			page 73


 3899 0007 E8FCFFFF 		call	__x86.get_pc_thunk.bx
 3899      FF
 3900 000c 81C30200 		addl	$_GLOBAL_OFFSET_TABLE_, %ebx
 3900      0000
 3901              	.LBE721:
 3902              	.LBE720:
 3903              		.loc 1 1138 56 is_stmt 0 view .LVU1321
 3904 0012 8B7C2414 		movl	20(%esp), %edi
 3905              	.LBB724:
 3906              	.LBB722:
 3907              		.loc 2 311 19 view .LVU1322
 3908 0016 8B06     		movl	(%esi), %eax
 3909              	.LVL163:
 3910              		.loc 2 311 19 view .LVU1323
 3911              	.LBE722:
 3912              	.LBE724:
 3913              		.loc 1 1140 10 view .LVU1324
 3914 0018 39F0     		cmpl	%esi, %eax
 3915 001a 7420     		je	.L118
 3916 001c 8D742600 		.p2align 4,,10
 3917              		.p2align 3
 3918              	.L120:
 3919              		.loc 1 1141 5 is_stmt 1 view .LVU1325
 3920              	.LVL164:
 3921              	.LBB725:
 3922              	.LBI725:
 3923              		.loc 5 664 20 view .LVU1326
 3924              	.LBB726:
 3925              		.loc 5 665 3 view .LVU1327
 3926              		.loc 5 667 3 view .LVU1328
 3927              		.loc 5 667 3 view .LVU1329
 3928              		.loc 5 667 3 view .LVU1330
 3929              		.loc 5 669 3 view .LVU1331
 3930              	.LBB727:
 3931              	.LBI727:
 3932              		.loc 2 340 27 view .LVU1332
 3933              	.LBB728:
 3934              		.loc 2 341 3 view .LVU1333
 3935              		.loc 2 343 3 view .LVU1334
 3936              		.loc 2 343 21 is_stmt 0 view .LVU1335
 3937 0020 8B10     		movl	(%eax), %edx
 3938              	.LBE728:
 3939              	.LBE727:
 3940              		.loc 5 674 10 view .LVU1336
 3941 0022 83EC0C   		subl	$12, %esp
 3942              		.cfi_def_cfa_offset 28
 3943              	.LBB730:
 3944              	.LBB729:
 3945              		.loc 2 343 18 view .LVU1337
 3946 0025 8916     		movl	%edx, (%esi)
 3947              		.loc 2 344 3 is_stmt 1 view .LVU1338
 3948              		.loc 2 344 18 is_stmt 0 view .LVU1339
 3949 0027 897204   		movl	%esi, 4(%edx)
 3950              		.loc 2 346 3 is_stmt 1 view .LVU1340
 3951              	.LVL165:
 3952              		.loc 2 346 3 is_stmt 0 view .LVU1341
 3953              	.LBE729:
GAS LISTING /tmp/cctFPqVW.s 			page 74


 3954              	.LBE730:
 3955              		.loc 5 671 3 is_stmt 1 view .LVU1342
 3956              		.loc 5 671 3 view .LVU1343
 3957              		.loc 5 671 3 view .LVU1344
 3958              		.loc 5 673 3 view .LVU1345
 3959              		.loc 5 673 16 is_stmt 0 view .LVU1346
 3960 002a 897834   		movl	%edi, 52(%eax)
 3961              		.loc 5 674 3 is_stmt 1 view .LVU1347
 3962              		.loc 5 674 10 is_stmt 0 view .LVU1348
 3963 002d 50       		pushl	%eax
 3964              		.cfi_def_cfa_offset 32
 3965 002e E8FCFFFF 		call	chSchReadyI@PLT
 3965      FF
 3966              	.LVL166:
 3967              		.loc 5 674 10 view .LVU1349
 3968              	.LBE726:
 3969              	.LBE725:
 3970              		.loc 1 1140 10 is_stmt 1 view .LVU1350
 3971              	.LBB731:
 3972              		.loc 2 309 20 view .LVU1351
 3973              	.LBB723:
 3974              		.loc 2 311 3 view .LVU1352
 3975              		.loc 2 311 19 is_stmt 0 view .LVU1353
 3976 0033 8B06     		movl	(%esi), %eax
 3977              	.LVL167:
 3978              		.loc 2 311 19 view .LVU1354
 3979              	.LBE723:
 3980              	.LBE731:
 3981              		.loc 1 1140 10 view .LVU1355
 3982 0035 83C410   		addl	$16, %esp
 3983              		.cfi_def_cfa_offset 16
 3984 0038 39F0     		cmpl	%esi, %eax
 3985 003a 75E4     		jne	.L120
 3986              	.L118:
 3987              		.loc 1 1143 1 view .LVU1356
 3988 003c 5B       		popl	%ebx
 3989              		.cfi_restore 3
 3990              		.cfi_def_cfa_offset 12
 3991 003d 5E       		popl	%esi
 3992              		.cfi_restore 6
 3993              		.cfi_def_cfa_offset 8
 3994 003e 5F       		popl	%edi
 3995              		.cfi_restore 7
 3996              		.cfi_def_cfa_offset 4
 3997 003f C3       		ret
 3998              		.cfi_endproc
 3999              	.LFE247:
 4000              		.size	chThdDequeueAllI, .-chThdDequeueAllI
 4001              		.section	.text.__x86.get_pc_thunk.ax,"axG",@progbits,__x86.get_pc_thunk.ax,comdat
 4002              		.globl	__x86.get_pc_thunk.ax
 4003              		.hidden	__x86.get_pc_thunk.ax
 4004              		.type	__x86.get_pc_thunk.ax, @function
 4005              	__x86.get_pc_thunk.ax:
 4006              	.LFB254:
 4007              		.cfi_startproc
 4008 0000 8B0424   		movl	(%esp), %eax
 4009 0003 C3       		ret
GAS LISTING /tmp/cctFPqVW.s 			page 75


 4010              		.cfi_endproc
 4011              	.LFE254:
 4012              		.section	.text.__x86.get_pc_thunk.dx,"axG",@progbits,__x86.get_pc_thunk.dx,comdat
 4013              		.globl	__x86.get_pc_thunk.dx
 4014              		.hidden	__x86.get_pc_thunk.dx
 4015              		.type	__x86.get_pc_thunk.dx, @function
 4016              	__x86.get_pc_thunk.dx:
 4017              	.LFB255:
 4018              		.cfi_startproc
 4019 0000 8B1424   		movl	(%esp), %edx
 4020 0003 C3       		ret
 4021              		.cfi_endproc
 4022              	.LFE255:
 4023              		.section	.text.__x86.get_pc_thunk.cx,"axG",@progbits,__x86.get_pc_thunk.cx,comdat
 4024              		.globl	__x86.get_pc_thunk.cx
 4025              		.hidden	__x86.get_pc_thunk.cx
 4026              		.type	__x86.get_pc_thunk.cx, @function
 4027              	__x86.get_pc_thunk.cx:
 4028              	.LFB256:
 4029              		.cfi_startproc
 4030 0000 8B0C24   		movl	(%esp), %ecx
 4031 0003 C3       		ret
 4032              		.cfi_endproc
 4033              	.LFE256:
 4034              		.section	.text.__x86.get_pc_thunk.bx,"axG",@progbits,__x86.get_pc_thunk.bx,comdat
 4035              		.globl	__x86.get_pc_thunk.bx
 4036              		.hidden	__x86.get_pc_thunk.bx
 4037              		.type	__x86.get_pc_thunk.bx, @function
 4038              	__x86.get_pc_thunk.bx:
 4039              	.LFB257:
 4040              		.cfi_startproc
 4041 0000 8B1C24   		movl	(%esp), %ebx
 4042 0003 C3       		ret
 4043              		.cfi_endproc
 4044              	.LFE257:
 4045              		.section	.text.__x86.get_pc_thunk.si,"axG",@progbits,__x86.get_pc_thunk.si,comdat
 4046              		.globl	__x86.get_pc_thunk.si
 4047              		.hidden	__x86.get_pc_thunk.si
 4048              		.type	__x86.get_pc_thunk.si, @function
 4049              	__x86.get_pc_thunk.si:
 4050              	.LFB258:
 4051              		.cfi_startproc
 4052 0000 8B3424   		movl	(%esp), %esi
 4053 0003 C3       		ret
 4054              		.cfi_endproc
 4055              	.LFE258:
 4056              		.section	.text.__x86.get_pc_thunk.di,"axG",@progbits,__x86.get_pc_thunk.di,comdat
 4057              		.globl	__x86.get_pc_thunk.di
 4058              		.hidden	__x86.get_pc_thunk.di
 4059              		.type	__x86.get_pc_thunk.di, @function
 4060              	__x86.get_pc_thunk.di:
 4061              	.LFB259:
 4062              		.cfi_startproc
 4063 0000 8B3C24   		movl	(%esp), %edi
 4064 0003 C3       		ret
 4065              		.cfi_endproc
 4066              	.LFE259:
GAS LISTING /tmp/cctFPqVW.s 			page 76


 4067              		.text
 4068              	.Letext0:
 4069              		.file 8 "/usr/lib/gcc/x86_64-linux-gnu/11/include/stddef.h"
 4070              		.file 9 "/usr/include/bits/types.h"
 4071              		.file 10 "/usr/include/bits/stdint-intn.h"
 4072              		.file 11 "/usr/include/bits/stdint-uintn.h"
 4073              		.file 12 "../../../os/common/ports/SIMIA32/compilers/GCC/chtypes.h"
 4074              		.file 13 "../../../os/rt/include/chearly.h"
 4075              		.file 14 "../../../os/rt/include/chobjects.h"
 4076              		.file 15 "../../../os/rt/include/chrfcu.h"
 4077              		.file 16 "../../../os/rt/include/chdebug.h"
 4078              		.file 17 "../../../os/rt/include/chsem.h"
 4079              		.file 18 "../../../os/rt/include/chmtx.h"
 4080              		.file 19 "../../../os/rt/include/chschd.h"
 12258 004e 2F686F6D 		.section	.note.GNU-stack,"",@progbits
 12258      652F616C 
 12258      65782F43 
 12258      68696269 
 12258      4F532F64 
GAS LISTING /tmp/cctFPqVW.s 			page 228

