GAS LISTING /tmp/ccYnofZv.s 			page 1


   1              		.file	"hal_buffered_serial.c"
   2              		.text
   3              	.Ltext0:
   4              		.file 0 "/home/alex/ChibiOS/demos/various/LAB2_VARIANT3" "../../../os/hal/src/hal_buffered_serial.
   5              		.section	.text.bsIncomingDataI,"ax",@progbits
   6              		.p2align 4
   7              		.globl	bsIncomingDataI
   8              		.type	bsIncomingDataI, @function
   9              	bsIncomingDataI:
  10              	.LVL0:
  11              	.LFB299:
  12              		.file 1 "../../../os/hal/src/hal_buffered_serial.c"
  13              		.loc 1 60 54 view -0
  14              		.cfi_startproc
  15              		.loc 1 62 23 view .LVU1
  16              		.loc 1 63 3 view .LVU2
  17              		.loc 1 63 3 view .LVU3
  18              		.loc 1 63 3 view .LVU4
  19              		.loc 1 65 3 view .LVU5
  20              		.loc 1 60 54 is_stmt 0 view .LVU6
  21 0000 57       		pushl	%edi
  22              		.cfi_def_cfa_offset 8
  23              		.cfi_offset 7, -8
  24 0001 56       		pushl	%esi
  25              		.cfi_def_cfa_offset 12
  26              		.cfi_offset 6, -12
  27 0002 53       		pushl	%ebx
  28              		.cfi_def_cfa_offset 16
  29              		.cfi_offset 3, -16
  30              		.loc 1 60 54 view .LVU7
  31 0003 8B742410 		movl	16(%esp), %esi
  32 0007 E8FCFFFF 		call	__x86.get_pc_thunk.bx
  32      FF
  33 000c 81C30200 		addl	$_GLOBAL_OFFSET_TABLE_, %ebx
  33      0000
  34 0012 8B7C2414 		movl	20(%esp), %edi
  35              		.loc 1 65 7 view .LVU8
  36 0016 8B4614   		movl	20(%esi), %eax
  37              		.loc 1 65 6 view .LVU9
  38 0019 85C0     		testl	%eax, %eax
  39 001b 7423     		je	.L6
  40              	.L2:
  41              		.loc 1 66 43 is_stmt 1 discriminator 1 view .LVU10
  42              		.loc 1 69 3 discriminator 1 view .LVU11
  43              		.loc 1 69 7 is_stmt 0 discriminator 1 view .LVU12
  44 001d 89F8     		movl	%edi, %eax
  45 001f 83EC08   		subl	$8, %esp
  46              		.cfi_def_cfa_offset 24
  47 0022 0FB6F8   		movzbl	%al, %edi
  48 0025 8D460C   		leal	12(%esi), %eax
  49 0028 57       		pushl	%edi
  50              		.cfi_def_cfa_offset 28
  51 0029 50       		pushl	%eax
  52              		.cfi_def_cfa_offset 32
  53 002a E8FCFFFF 		call	iqPutI@PLT
  53      FF
  54              	.LVL1:
GAS LISTING /tmp/ccYnofZv.s 			page 2


  55              		.loc 1 69 6 discriminator 1 view .LVU13
  56 002f 83C410   		addl	$16, %esp
  57              		.cfi_def_cfa_offset 16
  58 0032 85C0     		testl	%eax, %eax
  59 0034 7822     		js	.L7
  60              		.loc 1 72 1 view .LVU14
  61 0036 5B       		popl	%ebx
  62              		.cfi_remember_state
  63              		.cfi_restore 3
  64              		.cfi_def_cfa_offset 12
  65 0037 5E       		popl	%esi
  66              		.cfi_restore 6
  67              		.cfi_def_cfa_offset 8
  68 0038 5F       		popl	%edi
  69              		.cfi_restore 7
  70              		.cfi_def_cfa_offset 4
  71 0039 C3       		ret
  72              	.LVL2:
  73 003a 8DB60000 		.p2align 4,,10
  73      0000
  74              		.p2align 3
  75              	.L6:
  76              		.cfi_restore_state
  77              		.loc 1 66 5 is_stmt 1 view .LVU15
  78              	.LBB8:
  79              	.LBI8:
  80              		.file 2 "../../../os/hal/osal/rt-nil/osal.h"
  81              		.loc 2 956 20 view .LVU16
  82              	.LBB9:
  83              		.loc 2 959 3 view .LVU17
  84 0040 83EC08   		subl	$8, %esp
  85              		.cfi_def_cfa_offset 24
  86              	.LBE9:
  87              	.LBE8:
  88              		.loc 1 66 5 is_stmt 0 view .LVU18
  89 0043 8D4604   		leal	4(%esi), %eax
  90              	.LVL3:
  91              	.LBB11:
  92              	.LBB10:
  93              		.loc 2 959 3 view .LVU19
  94 0046 6A04     		pushl	$4
  95              		.cfi_def_cfa_offset 28
  96 0048 50       		pushl	%eax
  97              		.cfi_def_cfa_offset 32
  98 0049 E8FCFFFF 		call	chEvtBroadcastFlagsI@PLT
  98      FF
  99              	.LVL4:
 100              		.loc 2 960 1 view .LVU20
 101 004e 83C410   		addl	$16, %esp
 102              		.cfi_def_cfa_offset 16
 103 0051 EBCA     		jmp	.L2
 104              	.LVL5:
 105              		.p2align 4,,10
 106 0053 8D742600 		.p2align 3
 106      90
 107              	.L7:
 108              		.loc 2 960 1 view .LVU21
GAS LISTING /tmp/ccYnofZv.s 			page 3


 109              	.LBE10:
 110              	.LBE11:
 111              		.loc 1 70 5 is_stmt 1 view .LVU22
 112              	.LBB12:
 113              	.LBI12:
 114              		.loc 2 956 20 view .LVU23
 115              	.LBB13:
 116              		.loc 2 959 3 view .LVU24
 117 0058 83EC08   		subl	$8, %esp
 118              		.cfi_def_cfa_offset 24
 119              	.LBE13:
 120              	.LBE12:
 121              		.loc 1 70 5 is_stmt 0 view .LVU25
 122 005b 83C604   		addl	$4, %esi
 123              	.LVL6:
 124              	.LBB15:
 125              	.LBB14:
 126              		.loc 2 959 3 view .LVU26
 127 005e 68000800 		pushl	$2048
 127      00
 128              		.cfi_def_cfa_offset 28
 129 0063 56       		pushl	%esi
 130              		.cfi_def_cfa_offset 32
 131 0064 E8FCFFFF 		call	chEvtBroadcastFlagsI@PLT
 131      FF
 132              	.LVL7:
 133              		.loc 2 960 1 view .LVU27
 134 0069 83C410   		addl	$16, %esp
 135              		.cfi_def_cfa_offset 16
 136              	.LVL8:
 137              		.loc 2 960 1 view .LVU28
 138              	.LBE14:
 139              	.LBE15:
 140              		.loc 1 70 43 is_stmt 1 view .LVU29
 141              		.loc 1 72 1 is_stmt 0 view .LVU30
 142 006c 5B       		popl	%ebx
 143              		.cfi_restore 3
 144              		.cfi_def_cfa_offset 12
 145 006d 5E       		popl	%esi
 146              		.cfi_restore 6
 147              		.cfi_def_cfa_offset 8
 148 006e 5F       		popl	%edi
 149              		.cfi_restore 7
 150              		.cfi_def_cfa_offset 4
 151 006f C3       		ret
 152              		.cfi_endproc
 153              	.LFE299:
 154              		.size	bsIncomingDataI, .-bsIncomingDataI
 155              		.section	.text.bsRequestDataI,"ax",@progbits
 156              		.p2align 4
 157              		.globl	bsRequestDataI
 158              		.type	bsRequestDataI, @function
 159              	bsRequestDataI:
 160              	.LVL9:
 161              	.LFB300:
 162              		.loc 1 88 43 is_stmt 1 view -0
 163              		.cfi_startproc
GAS LISTING /tmp/ccYnofZv.s 			page 4


 164              		.loc 1 89 3 view .LVU32
 165              		.loc 1 91 23 view .LVU33
 166              		.loc 1 92 3 view .LVU34
 167              		.loc 1 92 3 view .LVU35
 168              		.loc 1 92 3 view .LVU36
 169              		.loc 1 94 3 view .LVU37
 170              		.loc 1 88 43 is_stmt 0 view .LVU38
 171 0000 56       		pushl	%esi
 172              		.cfi_def_cfa_offset 8
 173              		.cfi_offset 6, -8
 174 0001 53       		pushl	%ebx
 175              		.cfi_def_cfa_offset 12
 176              		.cfi_offset 3, -12
 177 0002 E8FCFFFF 		call	__x86.get_pc_thunk.bx
 177      FF
 178 0007 81C30200 		addl	$_GLOBAL_OFFSET_TABLE_, %ebx
 178      0000
 179 000d 83EC20   		subl	$32, %esp
 180              		.cfi_def_cfa_offset 44
 181              		.loc 1 88 43 view .LVU39
 182 0010 8B74242C 		movl	44(%esp), %esi
 183              		.loc 1 94 7 view .LVU40
 184 0014 8D4630   		leal	48(%esi), %eax
 185 0017 50       		pushl	%eax
 186              		.cfi_def_cfa_offset 48
 187 0018 E8FCFFFF 		call	oqGetI@PLT
 187      FF
 188              	.LVL10:
 189              		.loc 1 95 3 is_stmt 1 view .LVU41
 190              		.loc 1 95 6 is_stmt 0 view .LVU42
 191 001d 83C410   		addl	$16, %esp
 192              		.cfi_def_cfa_offset 32
 193 0020 85C0     		testl	%eax, %eax
 194 0022 780C     		js	.L11
 195              		.loc 1 100 1 view .LVU43
 196 0024 83C414   		addl	$20, %esp
 197              		.cfi_remember_state
 198              		.cfi_def_cfa_offset 12
 199 0027 5B       		popl	%ebx
 200              		.cfi_restore 3
 201              		.cfi_def_cfa_offset 8
 202 0028 5E       		popl	%esi
 203              		.cfi_restore 6
 204              		.cfi_def_cfa_offset 4
 205 0029 C3       		ret
 206 002a 8DB60000 		.p2align 4,,10
 206      0000
 207              		.p2align 3
 208              	.L11:
 209              		.cfi_restore_state
 210 0030 8944240C 		movl	%eax, 12(%esp)
 211              		.loc 1 96 5 is_stmt 1 view .LVU44
 212              	.LVL11:
 213              	.LBB16:
 214              	.LBI16:
 215              		.loc 2 956 20 view .LVU45
 216              	.LBB17:
GAS LISTING /tmp/ccYnofZv.s 			page 5


 217              		.loc 2 959 3 view .LVU46
 218              	.LBE17:
 219              	.LBE16:
 220              		.loc 1 96 5 is_stmt 0 view .LVU47
 221 0034 83C604   		addl	$4, %esi
 222              	.LVL12:
 223              	.LBB19:
 224              	.LBB18:
 225              		.loc 2 959 3 view .LVU48
 226 0037 83EC08   		subl	$8, %esp
 227              		.cfi_def_cfa_offset 40
 228 003a 6A08     		pushl	$8
 229              		.cfi_def_cfa_offset 44
 230 003c 56       		pushl	%esi
 231              		.cfi_def_cfa_offset 48
 232 003d E8FCFFFF 		call	chEvtBroadcastFlagsI@PLT
 232      FF
 233              	.LVL13:
 234              		.loc 2 960 1 view .LVU49
 235 0042 83C410   		addl	$16, %esp
 236              		.cfi_def_cfa_offset 32
 237 0045 8B44240C 		movl	12(%esp), %eax
 238              	.LVL14:
 239              		.loc 2 960 1 view .LVU50
 240              	.LBE18:
 241              	.LBE19:
 242              		.loc 1 96 40 is_stmt 1 view .LVU51
 243              		.loc 1 99 3 view .LVU52
 244              		.loc 1 100 1 is_stmt 0 view .LVU53
 245 0049 83C414   		addl	$20, %esp
 246              		.cfi_def_cfa_offset 12
 247 004c 5B       		popl	%ebx
 248              		.cfi_restore 3
 249              		.cfi_def_cfa_offset 8
 250 004d 5E       		popl	%esi
 251              		.cfi_restore 6
 252              		.cfi_def_cfa_offset 4
 253 004e C3       		ret
 254              		.cfi_endproc
 255              	.LFE300:
 256              		.size	bsRequestDataI, .-bsRequestDataI
 257              		.section	.text.__x86.get_pc_thunk.bx,"axG",@progbits,__x86.get_pc_thunk.bx,comdat
 258              		.globl	__x86.get_pc_thunk.bx
 259              		.hidden	__x86.get_pc_thunk.bx
 260              		.type	__x86.get_pc_thunk.bx, @function
 261              	__x86.get_pc_thunk.bx:
 262              	.LFB301:
 263              		.cfi_startproc
 264 0000 8B1C24   		movl	(%esp), %ebx
 265 0003 C3       		ret
 266              		.cfi_endproc
 267              	.LFE301:
 268              		.text
 269              	.Letext0:
 270              		.file 3 "/usr/lib/gcc/x86_64-linux-gnu/11/include/stddef.h"
 271              		.file 4 "/usr/include/bits/types.h"
 272              		.file 5 "/usr/include/bits/stdint-intn.h"
GAS LISTING /tmp/ccYnofZv.s 			page 6


 273              		.file 6 "/usr/include/bits/stdint-uintn.h"
 274              		.file 7 "../../../os/common/ports/SIMIA32/compilers/GCC/chtypes.h"
 275              		.file 8 "../../../os/rt/include/chearly.h"
 276              		.file 9 "../../../os/rt/include/chobjects.h"
 277              		.file 10 "../../../os/rt/include/chrfcu.h"
 278              		.file 11 "../../../os/rt/include/chdebug.h"
 279              		.file 12 "../../../os/rt/include/chtime.h"
 280              		.file 13 "../../../os/rt/include/chlists.h"
 281              		.file 14 "../../../os/common/ports/SIMIA32/chcore.h"
 282              		.file 15 "../../../os/rt/include/chsem.h"
 283              		.file 16 "../../../os/rt/include/chmtx.h"
 284              		.file 17 "../../../os/rt/include/chevents.h"
 285              		.file 18 "../../../os/hal/include/hal_queues.h"
 286              		.file 19 "../../../os/hal/include/hal_buffered_serial.h"
 3091 0059 2F686F6D 		.section	.note.GNU-stack,"",@progbits
 3091      652F616C 
 3091      65782F43 
 3091      68696269 
 3091      4F532F64 
GAS LISTING /tmp/ccYnofZv.s 			page 62

