GAS LISTING /tmp/ccV7AMxf.s 			page 1


   1              		.file	"main.c"
   2              		.text
   3              	.Ltext0:
   4              		.file 0 "/home/alex/ChibiOS/demos/various/LAB2_VARIANT3" "main.c"
   5              		.section	.rodata.buffer_print.str1.4,"aMS",@progbits,1
   6              		.align 4
   7              	.LC0:
   8 0000 25733A20 		.string	"%s: count=%2u, head=%2u, tail=%2u\r\n"
   8      636F756E 
   8      743D2532 
   8      752C2068 
   8      6561643D 
   9              		.section	.rodata.buffer_print.str1.1,"aMS",@progbits,1
  10              	.LC1:
  11 0000 436F6E74 		.string	"Contents: "
  11      656E7473 
  11      3A2000
  12              	.LC2:
  13 000b 656D7074 		.string	"empty"
  13      7900
  14              	.LC3:
  15 0011 25336420 		.string	"%3d "
  15      00
  16              	.LC4:
  17 0016 0D0A00   		.string	"\r\n"
  18              		.section	.text.buffer_print,"ax",@progbits
  19              		.p2align 4
  20              		.type	buffer_print, @function
  21              	buffer_print:
  22              	.LVL0:
  23              	.LFB312:
  24              		.file 1 "main.c"
  25              		.loc 1 83 63 view -0
  26              		.cfi_startproc
  27              		.loc 1 84 5 view .LVU1
  28              		.loc 1 83 63 is_stmt 0 view .LVU2
  29 0000 55       		pushl	%ebp
  30              		.cfi_def_cfa_offset 8
  31              		.cfi_offset 5, -8
  32 0001 57       		pushl	%edi
  33              		.cfi_def_cfa_offset 12
  34              		.cfi_offset 7, -12
  35 0002 56       		pushl	%esi
  36              		.cfi_def_cfa_offset 16
  37              		.cfi_offset 6, -16
  38 0003 89C6     		movl	%eax, %esi
  39 0005 53       		pushl	%ebx
  40              		.cfi_def_cfa_offset 20
  41              		.cfi_offset 3, -20
  42 0006 E8FCFFFF 		call	__x86.get_pc_thunk.bx
  42      FF
  43 000b 81C30200 		addl	$_GLOBAL_OFFSET_TABLE_, %ebx
  43      0000
  44 0011 83EC24   		subl	$36, %esp
  45              		.cfi_def_cfa_offset 56
  46              		.loc 1 84 5 view .LVU3
  47 0014 FF702C   		pushl	44(%eax)
GAS LISTING /tmp/ccV7AMxf.s 			page 2


  48              		.cfi_def_cfa_offset 60
  49 0017 FF7028   		pushl	40(%eax)
  50              		.cfi_def_cfa_offset 64
  51 001a FF7030   		pushl	48(%eax)
  52              		.cfi_def_cfa_offset 68
  53 001d 52       		pushl	%edx
  54              		.cfi_def_cfa_offset 72
  55 001e 8BAB0000 		movl	SD1@GOT(%ebx), %ebp
  55      0000
  56 0024 8D830000 		leal	.LC0@GOTOFF(%ebx), %eax
  56      0000
  57              	.LVL1:
  58              		.loc 1 84 5 view .LVU4
  59 002a 50       		pushl	%eax
  60              		.cfi_def_cfa_offset 76
  61 002b 55       		pushl	%ebp
  62              		.cfi_def_cfa_offset 80
  63 002c E8FCFFFF 		call	chprintf@PLT
  63      FF
  64              	.LVL2:
  65              		.loc 1 86 5 is_stmt 1 view .LVU5
  66 0031 83C418   		addl	$24, %esp
  67              		.cfi_def_cfa_offset 56
  68 0034 8D830000 		leal	.LC1@GOTOFF(%ebx), %eax
  68      0000
  69 003a 50       		pushl	%eax
  70              		.cfi_def_cfa_offset 60
  71 003b 55       		pushl	%ebp
  72              		.cfi_def_cfa_offset 64
  73 003c E8FCFFFF 		call	chprintf@PLT
  73      FF
  74              	.LVL3:
  75              		.loc 1 88 5 view .LVU6
  76              		.loc 1 88 8 is_stmt 0 view .LVU7
  77 0041 8B4630   		movl	48(%esi), %eax
  78 0044 83C410   		addl	$16, %esp
  79              		.cfi_def_cfa_offset 48
  80 0047 85C0     		testl	%eax, %eax
  81 0049 746D     		je	.L8
  82              	.LBB41:
  83              		.loc 1 91 9 is_stmt 1 view .LVU8
  84 004b 8D830000 		leal	.LC3@GOTOFF(%ebx), %eax
  84      0000
  85              		.loc 1 91 16 is_stmt 0 view .LVU9
  86 0051 8B562C   		movl	44(%esi), %edx
  87              	.LVL4:
  88              		.loc 1 92 9 is_stmt 1 view .LVU10
  89              	.LBB42:
  90              		.loc 1 92 14 view .LVU11
  91              		.loc 1 92 30 view .LVU12
  92              		.loc 1 92 21 is_stmt 0 view .LVU13
  93 0054 31FF     		xorl	%edi, %edi
  94 0056 8944240C 		movl	%eax, 12(%esp)
  95              	.LVL5:
  96 005a 8DB60000 		.p2align 4,,10
  96      0000
  97              		.p2align 3
GAS LISTING /tmp/ccV7AMxf.s 			page 3


  98              	.L4:
  99              		.loc 1 93 13 is_stmt 1 discriminator 3 view .LVU14
 100 0060 83EC04   		subl	$4, %esp
 101              		.cfi_def_cfa_offset 52
 102 0063 FF3496   		pushl	(%esi,%edx,4)
 103              		.cfi_def_cfa_offset 56
 104              		.loc 1 92 45 is_stmt 0 discriminator 3 view .LVU15
 105 0066 83C701   		addl	$1, %edi
 106              	.LVL6:
 107              		.loc 1 93 13 discriminator 3 view .LVU16
 108 0069 89542410 		movl	%edx, 16(%esp)
 109 006d FF742414 		pushl	20(%esp)
 110              		.cfi_def_cfa_offset 60
 111 0071 55       		pushl	%ebp
 112              		.cfi_def_cfa_offset 64
 113 0072 E8FCFFFF 		call	chprintf@PLT
 113      FF
 114              	.LVL7:
 115              		.loc 1 94 13 is_stmt 1 discriminator 3 view .LVU17
 116              		.loc 1 94 24 is_stmt 0 discriminator 3 view .LVU18
 117 0077 8B542418 		movl	24(%esp), %edx
 118              		.loc 1 94 17 discriminator 3 view .LVU19
 119 007b B8CDCCCC 		movl	$-858993459, %eax
 119      CC
 120              		.loc 1 92 30 discriminator 3 view .LVU20
 121 0080 83C410   		addl	$16, %esp
 122              		.cfi_def_cfa_offset 48
 123              		.loc 1 94 24 discriminator 3 view .LVU21
 124 0083 8D4A01   		leal	1(%edx), %ecx
 125              		.loc 1 94 17 discriminator 3 view .LVU22
 126 0086 F7E1     		mull	%ecx
 127 0088 C1EA03   		shrl	$3, %edx
 128 008b 8D0492   		leal	(%edx,%edx,4), %eax
 129 008e 01C0     		addl	%eax, %eax
 130 0090 29C1     		subl	%eax, %ecx
 131 0092 89CA     		movl	%ecx, %edx
 132              	.LVL8:
 133              		.loc 1 92 45 is_stmt 1 discriminator 3 view .LVU23
 134              		.loc 1 92 30 discriminator 3 view .LVU24
 135 0094 397E30   		cmpl	%edi, 48(%esi)
 136 0097 77C7     		ja	.L4
 137              	.LVL9:
 138              	.L3:
 139              		.loc 1 92 30 is_stmt 0 discriminator 3 view .LVU25
 140              	.LBE42:
 141              	.LBE41:
 142              		.loc 1 97 5 is_stmt 1 view .LVU26
 143 0099 83EC08   		subl	$8, %esp
 144              		.cfi_def_cfa_offset 56
 145 009c 8D830000 		leal	.LC4@GOTOFF(%ebx), %eax
 145      0000
 146 00a2 50       		pushl	%eax
 147              		.cfi_def_cfa_offset 60
 148 00a3 55       		pushl	%ebp
 149              		.cfi_def_cfa_offset 64
 150 00a4 E8FCFFFF 		call	chprintf@PLT
 150      FF
GAS LISTING /tmp/ccV7AMxf.s 			page 4


 151              	.LVL10:
 152              		.loc 1 98 1 is_stmt 0 view .LVU27
 153 00a9 83C42C   		addl	$44, %esp
 154              		.cfi_def_cfa_offset 20
 155 00ac 5B       		popl	%ebx
 156              		.cfi_restore 3
 157              		.cfi_def_cfa_offset 16
 158 00ad 5E       		popl	%esi
 159              		.cfi_restore 6
 160              		.cfi_def_cfa_offset 12
 161              	.LVL11:
 162              		.loc 1 98 1 view .LVU28
 163 00ae 5F       		popl	%edi
 164              		.cfi_restore 7
 165              		.cfi_def_cfa_offset 8
 166 00af 5D       		popl	%ebp
 167              		.cfi_restore 5
 168              		.cfi_def_cfa_offset 4
 169 00b0 C3       		ret
 170              	.LVL12:
 171              		.p2align 4,,10
 172 00b1 8DB42600 		.p2align 3
 172      000000
 173              	.L8:
 174              		.cfi_def_cfa_offset 48
 175              		.cfi_offset 3, -20
 176              		.cfi_offset 5, -8
 177              		.cfi_offset 6, -16
 178              		.cfi_offset 7, -12
 179              		.loc 1 89 9 is_stmt 1 view .LVU29
 180 00b8 83EC08   		subl	$8, %esp
 181              		.cfi_def_cfa_offset 56
 182 00bb 8D830000 		leal	.LC2@GOTOFF(%ebx), %eax
 182      0000
 183 00c1 50       		pushl	%eax
 184              		.cfi_def_cfa_offset 60
 185 00c2 55       		pushl	%ebp
 186              		.cfi_def_cfa_offset 64
 187 00c3 E8FCFFFF 		call	chprintf@PLT
 187      FF
 188              	.LVL13:
 189 00c8 83C410   		addl	$16, %esp
 190              		.cfi_def_cfa_offset 48
 191 00cb EBCC     		jmp	.L3
 192              		.cfi_endproc
 193              	.LFE312:
 194              		.size	buffer_print, .-buffer_print
 195              		.section	.rodata.main.str1.1,"aMS",@progbits,1
 196              	.LC5:
 197 0000 42756666 		.string	"Buffer1"
 197      65723100 
 198              	.LC6:
 199 0008 42756666 		.string	"Buffer2"
 199      65723200 
 200              		.section	.rodata.main.str1.4,"aMS",@progbits,1
 201              		.align 4
 202              	.LC7:
GAS LISTING /tmp/ccV7AMxf.s 			page 5


 203 0000 0D0A3D3D 		.string	"\r\n=== Ticket System with Two Buffers ===\r\n"
 203      3D205469 
 203      636B6574 
 203      20537973 
 203      74656D20 
 204 002b 00       		.align 4
 205              	.LC8:
 206 002c 52756E6E 		.string	"Running %d user tasks in main loop...\r\n\r\n"
 206      696E6720 
 206      25642075 
 206      73657220 
 206      7461736B 
 207              		.globl	__udivdi3
 208              		.globl	__divdi3
 209              		.section	.rodata.main.str1.1
 210              	.LC9:
 211 0010 5B546173 		.string	"[Task %d] Wrote to %s: %d\r\n"
 211      6B202564 
 211      5D205772 
 211      6F746520 
 211      746F2025 
 212              		.section	.rodata.main.str1.4
 213 0056 0000     		.align 4
 214              	.LC10:
 215 0058 5B546173 		.string	"[Task %d] %s is busy or full\r\n"
 215      6B202564 
 215      5D202573 
 215      20697320 
 215      62757379 
 216              		.section	.rodata.main.str1.1
 217              	.LC11:
 218 002c 5B546173 		.string	"[Task %d] Read from %s: %d\r\n"
 218      6B202564 
 218      5D205265 
 218      61642066 
 218      726F6D20 
 219              		.section	.rodata.main.str1.4
 220 0077 00       		.align 4
 221              	.LC12:
 222 0078 5B546173 		.string	"[Task %d] %s is busy or empty\r\n"
 222      6B202564 
 222      5D202573 
 222      20697320 
 222      62757379 
 223              		.section	.rodata.main.str1.1
 224              	.LC13:
 225 0049 0D0A3D3D 		.string	"\r\n=== Buffer Status ===\r\n"
 225      3D204275 
 225      66666572 
 225      20537461 
 225      74757320 
 226              	.LC14:
 227 0063 3D3D3D3D 		.string	"====================\r\n\r\n"
 227      3D3D3D3D 
 227      3D3D3D3D 
 227      3D3D3D3D 
 227      3D3D3D3D 
GAS LISTING /tmp/ccV7AMxf.s 			page 6


 228              		.section	.text.startup.main,"ax",@progbits
 229              		.p2align 4
 230              		.globl	main
 231              		.type	main, @function
 232              	main:
 233              	.LFB315:
 234              		.loc 1 147 16 view -0
 235              		.cfi_startproc
 236              		.loc 1 148 5 view .LVU31
 237              		.loc 1 147 16 is_stmt 0 view .LVU32
 238 0000 8D4C2404 		leal	4(%esp), %ecx
 239              		.cfi_def_cfa 1, 0
 240 0004 83E4F0   		andl	$-16, %esp
 241 0007 FF71FC   		pushl	-4(%ecx)
 242 000a 55       		pushl	%ebp
 243 000b 89E5     		movl	%esp, %ebp
 244              		.cfi_escape 0x10,0x5,0x2,0x75,0
 245 000d 57       		pushl	%edi
 246 000e 56       		pushl	%esi
 247              		.cfi_escape 0x10,0x7,0x2,0x75,0x7c
 248              		.cfi_escape 0x10,0x6,0x2,0x75,0x78
 249 000f E8FCFFFF 		call	__x86.get_pc_thunk.si
 249      FF
 250 0014 81C60200 		addl	$_GLOBAL_OFFSET_TABLE_, %esi
 250      0000
 251 001a 53       		pushl	%ebx
 252 001b 51       		pushl	%ecx
 253              		.cfi_escape 0xf,0x3,0x75,0x70,0x6
 254              		.cfi_escape 0x10,0x3,0x2,0x75,0x74
 255 001c 83EC68   		subl	$104, %esp
 256              		.loc 1 148 5 view .LVU33
 257 001f 89F3     		movl	%esi, %ebx
 258 0021 E8FCFFFF 		call	halInit@PLT
 258      FF
 259              	.LVL14:
 260              		.loc 1 149 5 is_stmt 1 view .LVU34
 261 0026 E8FCFFFF 		call	chSysInit@PLT
 261      FF
 262              	.LVL15:
 263              		.loc 1 150 5 view .LVU35
 264 002b 8B860000 		movl	SD1@GOT(%esi), %eax
 264      0000
 265 0031 83EC08   		subl	$8, %esp
 266 0034 6A00     		pushl	$0
 267 0036 50       		pushl	%eax
 268 0037 8945CC   		movl	%eax, -52(%ebp)
 269 003a E8FCFFFF 		call	sdStart@PLT
 269      FF
 270              	.LVL16:
 271              		.loc 1 153 5 view .LVU36
 272              	.LBB77:
 273              	.LBI77:
 274              		.loc 1 36 13 view .LVU37
 275              	.LBB78:
 276              		.loc 1 37 5 view .LVU38
 277 003f 8D860000 		leal	user_tasks@GOTOFF(%esi), %eax
 277      0000
GAS LISTING /tmp/ccV7AMxf.s 			page 7


 278 0045 83C410   		addl	$16, %esp
 279              	.LBE78:
 280              	.LBE77:
 281              	.LBB81:
 282              	.LBB82:
 283              		.loc 1 102 14 is_stmt 0 view .LVU39
 284 0048 31C9     		xorl	%ecx, %ecx
 285              	.LBE82:
 286              	.LBE81:
 287              	.LBB84:
 288              	.LBB79:
 289              		.loc 1 37 15 view .LVU40
 290 004a C7862800 		movl	$0, 40+buffer1@GOTOFF(%esi)
 290      00000000 
 290      0000
 291              		.loc 1 38 5 is_stmt 1 view .LVU41
 292              	.LBE79:
 293              	.LBE84:
 294              	.LBB85:
 295              	.LBB86:
 296              		.loc 1 41 18 is_stmt 0 view .LVU42
 297 0054 89C7     		movl	%eax, %edi
 298              	.LBE86:
 299              	.LBE85:
 300              	.LBB88:
 301              	.LBB80:
 302              		.loc 1 38 15 view .LVU43
 303 0056 C7862C00 		movl	$0, 44+buffer1@GOTOFF(%esi)
 303      00000000 
 303      0000
 304              		.loc 1 39 5 is_stmt 1 view .LVU44
 305              		.loc 1 39 16 is_stmt 0 view .LVU45
 306 0060 C7863000 		movl	$0, 48+buffer1@GOTOFF(%esi)
 306      00000000 
 306      0000
 307              		.loc 1 40 5 is_stmt 1 view .LVU46
 308              		.loc 1 40 18 is_stmt 0 view .LVU47
 309 006a C7863400 		movl	$0, 52+buffer1@GOTOFF(%esi)
 309      00000000 
 309      0000
 310              		.loc 1 41 5 is_stmt 1 view .LVU48
 311              		.loc 1 41 18 is_stmt 0 view .LVU49
 312 0074 C7863800 		movl	$0, 56+buffer1@GOTOFF(%esi)
 312      00000000 
 312      0000
 313              	.LVL17:
 314              		.loc 1 41 18 view .LVU50
 315              	.LBE80:
 316              	.LBE88:
 317              		.loc 1 154 5 is_stmt 1 view .LVU51
 318              	.LBB89:
 319              	.LBI85:
 320              		.loc 1 36 13 view .LVU52
 321              	.LBB87:
 322              		.loc 1 37 5 view .LVU53
 323              		.loc 1 37 15 is_stmt 0 view .LVU54
 324 007e C7862800 		movl	$0, 40+buffer2@GOTOFF(%esi)
GAS LISTING /tmp/ccV7AMxf.s 			page 8


 324      00000000 
 324      0000
 325              		.loc 1 38 5 is_stmt 1 view .LVU55
 326              		.loc 1 38 15 is_stmt 0 view .LVU56
 327 0088 C7862C00 		movl	$0, 44+buffer2@GOTOFF(%esi)
 327      00000000 
 327      0000
 328              		.loc 1 39 5 is_stmt 1 view .LVU57
 329              		.loc 1 39 16 is_stmt 0 view .LVU58
 330 0092 C7863000 		movl	$0, 48+buffer2@GOTOFF(%esi)
 330      00000000 
 330      0000
 331              		.loc 1 40 5 is_stmt 1 view .LVU59
 332              		.loc 1 40 18 is_stmt 0 view .LVU60
 333 009c C7863400 		movl	$0, 52+buffer2@GOTOFF(%esi)
 333      00000000 
 333      0000
 334              		.loc 1 41 5 is_stmt 1 view .LVU61
 335              		.loc 1 41 18 is_stmt 0 view .LVU62
 336 00a6 C7863800 		movl	$0, 56+buffer2@GOTOFF(%esi)
 336      00000000 
 336      0000
 337              	.LVL18:
 338              		.loc 1 41 18 view .LVU63
 339              	.LBE87:
 340              	.LBE89:
 341              		.loc 1 157 5 is_stmt 1 view .LVU64
 342              	.LBB90:
 343              	.LBI81:
 344              		.loc 1 101 13 view .LVU65
 345              		.loc 1 102 5 view .LVU66
 346              	.LBB83:
 347              		.loc 1 102 10 view .LVU67
 348              		.loc 1 102 23 view .LVU68
 349 00b0 8945A8   		movl	%eax, -88(%ebp)
 350              	.LVL19:
 351              	.L10:
 352              		.loc 1 103 9 view .LVU69
 353              		.loc 1 103 36 is_stmt 0 view .LVU70
 354 00b3 83C101   		addl	$1, %ecx
 355              	.LVL20:
 356              		.loc 1 104 40 view .LVU71
 357 00b6 89F3     		movl	%esi, %ebx
 358              		.loc 1 102 23 view .LVU72
 359 00b8 83C70C   		addl	$12, %edi
 360              		.loc 1 103 32 view .LVU73
 361 00bb 894FFC   		movl	%ecx, -4(%edi)
 362 00be 894DE4   		movl	%ecx, -28(%ebp)
 363              		.loc 1 104 9 is_stmt 1 view .LVU74
 364              		.loc 1 104 40 is_stmt 0 view .LVU75
 365 00c1 E8FCFFFF 		call	rand@PLT
 365      FF
 366              	.LVL21:
 367              		.loc 1 102 23 view .LVU76
 368 00c6 8B4DE4   		movl	-28(%ebp), %ecx
 369              		.loc 1 105 32 view .LVU77
 370 00c9 C747F400 		movl	$0, -12(%edi)
GAS LISTING /tmp/ccV7AMxf.s 			page 9


 370      000000
 371              		.loc 1 104 40 view .LVU78
 372 00d0 89C3     		movl	%eax, %ebx
 373              		.loc 1 104 47 view .LVU79
 374 00d2 B81F85EB 		movl	$1374389535, %eax
 374      51
 375 00d7 F7EB     		imull	%ebx
 376 00d9 89D8     		movl	%ebx, %eax
 377 00db C1F81F   		sarl	$31, %eax
 378 00de C1FA07   		sarl	$7, %edx
 379 00e1 29C2     		subl	%eax, %edx
 380 00e3 69C29001 		imull	$400, %edx, %eax
 380      0000
 381 00e9 29C3     		subl	%eax, %ebx
 382              		.loc 1 104 38 view .LVU80
 383 00eb 8D4364   		leal	100(%ebx), %eax
 384 00ee 8947F8   		movl	%eax, -8(%edi)
 385              		.loc 1 105 9 is_stmt 1 view .LVU81
 386              		.loc 1 102 38 view .LVU82
 387              	.LVL22:
 388              		.loc 1 102 23 view .LVU83
 389 00f1 83F90A   		cmpl	$10, %ecx
 390 00f4 75BD     		jne	.L10
 391              	.LVL23:
 392              		.loc 1 102 23 is_stmt 0 view .LVU84
 393              	.LBE83:
 394              	.LBE90:
 395              		.loc 1 159 5 is_stmt 1 view .LVU85
 396 00f6 8B7DCC   		movl	-52(%ebp), %edi
 397 00f9 83EC08   		subl	$8, %esp
 398 00fc 8D860000 		leal	.LC7@GOTOFF(%esi), %eax
 398      0000
 399 0102 89F3     		movl	%esi, %ebx
 400 0104 50       		pushl	%eax
 401 0105 57       		pushl	%edi
 402 0106 E8FCFFFF 		call	chprintf@PLT
 402      FF
 403              	.LVL24:
 404              		.loc 1 160 5 view .LVU86
 405 010b 83C40C   		addl	$12, %esp
 406 010e 8D860000 		leal	.LC8@GOTOFF(%esi), %eax
 406      0000
 407 0114 6A0A     		pushl	$10
 408 0116 50       		pushl	%eax
 409 0117 57       		pushl	%edi
 410 0118 E8FCFFFF 		call	chprintf@PLT
 410      FF
 411              	.LVL25:
 412              		.loc 1 162 5 view .LVU87
 413              		.loc 1 162 5 is_stmt 0 view .LVU88
 414 011d 8B860000 		movl	ch0@GOT(%esi), %eax
 414      0000
 415              		.loc 1 162 15 view .LVU89
 416 0123 C745B000 		movl	$0, -80(%ebp)
 416      000000
 417              		.loc 1 160 5 view .LVU90
 418 012a 83C410   		addl	$16, %esp
GAS LISTING /tmp/ccV7AMxf.s 			page 10


 419 012d 8945DC   		movl	%eax, -36(%ebp)
 420 0130 8B45A8   		movl	-88(%ebp), %eax
 421 0133 83C078   		addl	$120, %eax
 422 0136 8945D8   		movl	%eax, -40(%ebp)
 423 0139 8B860000 		movl	port_irq_sts@GOT(%esi), %eax
 423      0000
 424 013f 8945D4   		movl	%eax, -44(%ebp)
 425 0142 8D860000 		leal	buffer1@GOTOFF(%esi), %eax
 425      0000
 426 0148 8945C0   		movl	%eax, -64(%ebp)
 427 014b 8D860000 		leal	.LC5@GOTOFF(%esi), %eax
 427      0000
 428 0151 8945C8   		movl	%eax, -56(%ebp)
 429 0154 8D860000 		leal	buffer2@GOTOFF(%esi), %eax
 429      0000
 430 015a 8945BC   		movl	%eax, -68(%ebp)
 431 015d 8D860000 		leal	.LC6@GOTOFF(%esi), %eax
 431      0000
 432 0163 8945C4   		movl	%eax, -60(%ebp)
 433 0166 8D860000 		leal	.LC9@GOTOFF(%esi), %eax
 433      0000
 434 016c 8945A4   		movl	%eax, -92(%ebp)
 435 016f 8D860000 		leal	.LC10@GOTOFF(%esi), %eax
 435      0000
 436 0175 8945A0   		movl	%eax, -96(%ebp)
 437 0178 8D860000 		leal	.LC11@GOTOFF(%esi), %eax
 437      0000
 438 017e 89459C   		movl	%eax, -100(%ebp)
 439 0181 8D860000 		leal	.LC12@GOTOFF(%esi), %eax
 439      0000
 440 0187 894598   		movl	%eax, -104(%ebp)
 441 018a 8D860000 		leal	.LC13@GOTOFF(%esi), %eax
 441      0000
 442 0190 894594   		movl	%eax, -108(%ebp)
 443 0193 8D860000 		leal	.LC14@GOTOFF(%esi), %eax
 443      0000
 444 0199 894590   		movl	%eax, -112(%ebp)
 445              	.LVL26:
 446 019c 8D742600 		.p2align 4,,10
 447              		.p2align 3
 448              	.L19:
 449              		.loc 1 164 5 is_stmt 1 view .LVU91
 450              	.LBB91:
 451              		.loc 1 165 9 view .LVU92
 452              	.LBB92:
 453              	.LBI92:
 454              		.file 2 "../../../os/rt/include/chvt.h"
 455              		.loc 2 154 25 view .LVU93
 456              	.LBB93:
 457              		.loc 2 155 3 view .LVU94
 458              		.loc 2 157 3 view .LVU95
 459              		.loc 2 158 3 view .LVU96
 460              	.LBB94:
 461              	.LBI94:
 462              		.loc 2 135 25 view .LVU97
 463              	.LBB95:
 464              		.loc 2 138 3 view .LVU98
GAS LISTING /tmp/ccV7AMxf.s 			page 11


 465              		.loc 2 138 26 is_stmt 0 view .LVU99
 466 01a0 8B45DC   		movl	-36(%ebp), %eax
 467 01a3 8B7DA8   		movl	-88(%ebp), %edi
 468 01a6 8B401C   		movl	28(%eax), %eax
 469 01a9 8945B8   		movl	%eax, -72(%ebp)
 470              	.LVL27:
 471              		.loc 2 138 26 view .LVU100
 472              	.LBE95:
 473              	.LBE94:
 474              		.loc 2 159 3 is_stmt 1 view .LVU101
 475              		.loc 2 161 3 view .LVU102
 476              		.loc 2 161 3 is_stmt 0 view .LVU103
 477              	.LBE93:
 478              	.LBE92:
 479              		.loc 1 168 9 is_stmt 1 view .LVU104
 480              	.LBB96:
 481              		.loc 1 168 14 view .LVU105
 482              		.loc 1 168 27 view .LVU106
 483 01ac EB0E     		jmp	.L17
 484              	.LVL28:
 485 01ae 6690     		.p2align 4,,10
 486              		.p2align 3
 487              	.L11:
 488              		.loc 1 168 42 view .LVU107
 489              		.loc 1 168 27 view .LVU108
 490 01b0 83C70C   		addl	$12, %edi
 491 01b3 397DD8   		cmpl	%edi, -40(%ebp)
 492 01b6 0F842501 		je	.L30
 492      0000
 493              	.LVL29:
 494              	.L17:
 495              		.loc 1 169 13 discriminator 3 view .LVU109
 496              	.LBB97:
 497              	.LBI97:
 498              		.loc 1 110 13 discriminator 3 view .LVU110
 499              	.LBB98:
 500              		.loc 1 111 5 discriminator 3 view .LVU111
 501              	.LBB99:
 502              	.LBI99:
 503              		.loc 2 154 25 discriminator 3 view .LVU112
 504              	.LBB100:
 505              		.loc 2 155 3 discriminator 3 view .LVU113
 506              		.loc 2 157 3 discriminator 3 view .LVU114
 507              		.loc 2 158 3 discriminator 3 view .LVU115
 508              	.LBB101:
 509              	.LBI101:
 510              		.loc 2 135 25 discriminator 3 view .LVU116
 511              	.LBB102:
 512              		.loc 2 138 3 discriminator 3 view .LVU117
 513              		.loc 2 138 26 is_stmt 0 discriminator 3 view .LVU118
 514 01bc 8B45DC   		movl	-36(%ebp), %eax
 515              	.LBE102:
 516              	.LBE101:
 517              	.LBB105:
 518              	.LBB106:
 519              	.LBB107:
 520              	.LBB108:
GAS LISTING /tmp/ccV7AMxf.s 			page 12


 521              		.file 3 "../../../os/common/ports/SIMIA32/chcore.h"
 522              		.loc 3 372 16 discriminator 3 view .LVU119
 523 01bf 8B4DD4   		movl	-44(%ebp), %ecx
 524              	.LBE108:
 525              	.LBE107:
 526              	.LBE106:
 527              	.LBE105:
 528              	.LBE100:
 529              	.LBE99:
 530              		.loc 1 113 33 discriminator 3 view .LVU120
 531 01c2 89F3     		movl	%esi, %ebx
 532              	.LBB120:
 533              	.LBB119:
 534              	.LBB115:
 535              	.LBB103:
 536              		.loc 2 138 26 discriminator 3 view .LVU121
 537 01c4 8B401C   		movl	28(%eax), %eax
 538              	.LBE103:
 539              	.LBE115:
 540              	.LBB116:
 541              	.LBB113:
 542              	.LBB111:
 543              	.LBB109:
 544              		.loc 3 372 16 discriminator 3 view .LVU122
 545 01c7 C7010000 		movl	$0, (%ecx)
 545      0000
 546              	.LBE109:
 547              	.LBE111:
 548              	.LBE113:
 549              	.LBE116:
 550              	.LBB117:
 551              	.LBB104:
 552              		.loc 2 138 26 discriminator 3 view .LVU123
 553 01cd 8945E0   		movl	%eax, -32(%ebp)
 554              	.LVL30:
 555              		.loc 2 138 26 discriminator 3 view .LVU124
 556              	.LBE104:
 557              	.LBE117:
 558              		.loc 2 159 3 is_stmt 1 discriminator 3 view .LVU125
 559              	.LBB118:
 560              	.LBI105:
 561              		.file 4 "../../../os/rt/include/chsys.h"
 562              		.loc 4 421 20 discriminator 3 view .LVU126
 563              	.LBB114:
 564              		.loc 4 423 23 discriminator 3 view .LVU127
 565              		.loc 4 424 34 discriminator 3 view .LVU128
 566              		.loc 4 430 3 discriminator 3 view .LVU129
 567              		.loc 4 430 3 discriminator 3 view .LVU130
 568              		.loc 4 430 3 discriminator 3 view .LVU131
 569              		.loc 4 434 3 discriminator 3 view .LVU132
 570              	.LBB112:
 571              	.LBI107:
 572              		.loc 3 370 20 discriminator 3 view .LVU133
 573              	.LBB110:
 574              		.loc 3 372 3 discriminator 3 view .LVU134
 575              	.LBE110:
 576              	.LBE112:
GAS LISTING /tmp/ccV7AMxf.s 			page 13


 577              	.LBE114:
 578              	.LBE118:
 579              		.loc 2 161 3 discriminator 3 view .LVU135
 580              		.loc 2 161 3 is_stmt 0 discriminator 3 view .LVU136
 581              	.LBE119:
 582              	.LBE120:
 583              		.loc 1 113 5 is_stmt 1 discriminator 3 view .LVU137
 584              		.loc 1 113 13 is_stmt 0 discriminator 3 view .LVU138
 585 01d0 2B07     		subl	(%edi), %eax
 586              	.LVL31:
 587              		.loc 1 113 13 discriminator 3 view .LVU139
 588 01d2 8945E4   		movl	%eax, -28(%ebp)
 589              		.loc 1 113 33 discriminator 3 view .LVU140
 590 01d5 B8E80300 		movl	$1000, %eax
 590      00
 591 01da F76704   		mull	4(%edi)
 592 01dd 6A00     		pushl	$0
 593 01df 68E80300 		pushl	$1000
 593      00
 594 01e4 05E70300 		addl	$999, %eax
 594      00
 595 01e9 83D200   		adcl	$0, %edx
 596 01ec 52       		pushl	%edx
 597 01ed 50       		pushl	%eax
 598 01ee E8FCFFFF 		call	__udivdi3@PLT
 598      FF
 599              	.LVL32:
 600 01f3 83C410   		addl	$16, %esp
 601              		.loc 1 113 8 discriminator 3 view .LVU141
 602 01f6 3945E4   		cmpl	%eax, -28(%ebp)
 603 01f9 72B5     		jb	.L11
 604              	.LBB121:
 605              		.loc 1 115 9 is_stmt 1 view .LVU142
 606              		.loc 1 115 30 is_stmt 0 view .LVU143
 607 01fb E8FCFFFF 		call	rand@PLT
 607      FF
 608              	.LVL33:
 609              		.loc 1 115 53 view .LVU144
 610 0200 A801     		testb	$1, %al
 611 0202 0F843801 		je	.L20
 611      0000
 612              		.loc 1 116 21 view .LVU145
 613 0208 8B45C8   		movl	-56(%ebp), %eax
 614              		.loc 1 115 53 view .LVU146
 615 020b 8B4DC0   		movl	-64(%ebp), %ecx
 616              		.loc 1 116 21 view .LVU147
 617 020e 8945E4   		movl	%eax, -28(%ebp)
 618              	.L12:
 619              		.loc 1 119 13 view .LVU148
 620 0211 89F3     		movl	%esi, %ebx
 621 0213 894DD0   		movl	%ecx, -48(%ebp)
 622              	.LVL34:
 623              		.loc 1 119 9 is_stmt 1 view .LVU149
 624              		.loc 1 119 13 is_stmt 0 view .LVU150
 625 0216 E8FCFFFF 		call	rand@PLT
 625      FF
 626              	.LVL35:
GAS LISTING /tmp/ccV7AMxf.s 			page 14


 627              		.loc 1 119 12 view .LVU151
 628 021b 8B4DD0   		movl	-48(%ebp), %ecx
 629 021e A801     		testb	$1, %al
 630 0220 0F842A01 		je	.L13
 630      0000
 631              	.LBB122:
 632              		.loc 1 121 13 is_stmt 1 view .LVU152
 633              		.loc 1 122 13 view .LVU153
 634              		.loc 1 122 32 is_stmt 0 view .LVU154
 635 0226 8B960000 		movl	counter.0@GOTOFF(%esi), %edx
 635      0000
 636 022c 8D4201   		leal	1(%edx), %eax
 637 022f 89860000 		movl	%eax, counter.0@GOTOFF(%esi)
 637      0000
 638              	.LVL36:
 639              		.loc 1 123 13 is_stmt 1 view .LVU155
 640              	.LBB123:
 641              	.LBI123:
 642              		.loc 1 64 13 view .LVU156
 643              	.LBB124:
 644              		.loc 1 65 5 view .LVU157
 645              	.LBE124:
 646              	.LBE123:
 647              		.loc 1 124 17 is_stmt 0 view .LVU158
 648 0235 8B4708   		movl	8(%edi), %eax
 649 0238 8945D0   		movl	%eax, -48(%ebp)
 650              	.LBB127:
 651              	.LBB125:
 652              		.loc 1 65 8 view .LVU159
 653 023b 8B4134   		movl	52(%ecx), %eax
 654 023e 85C0     		testl	%eax, %eax
 655 0240 0F8F7201 		jg	.L14
 655      0000
 656              		.loc 1 65 26 view .LVU160
 657 0246 8B4138   		movl	56(%ecx), %eax
 658 0249 85C0     		testl	%eax, %eax
 659 024b 0F8F6701 		jg	.L14
 659      0000
 660              		.loc 1 69 5 is_stmt 1 view .LVU161
 661              		.loc 1 69 12 is_stmt 0 view .LVU162
 662 0251 8B5930   		movl	48(%ecx), %ebx
 663              		.loc 1 69 8 view .LVU163
 664 0254 895DAC   		movl	%ebx, -84(%ebp)
 665 0257 83FB0A   		cmpl	$10, %ebx
 666 025a 0F845801 		je	.L14
 666      0000
 667              		.loc 1 73 5 is_stmt 1 view .LVU164
 668              		.loc 1 74 5 view .LVU165
 669              		.loc 1 74 18 is_stmt 0 view .LVU166
 670 0260 8B5928   		movl	40(%ecx), %ebx
 671              		.loc 1 74 26 view .LVU167
 672 0263 8955B4   		movl	%edx, -76(%ebp)
 673              	.LBE125:
 674              	.LBE127:
 675              		.loc 1 124 17 view .LVU168
 676 0266 83EC0C   		subl	$12, %esp
 677              	.LBB128:
GAS LISTING /tmp/ccV7AMxf.s 			page 15


 678              	.LBB126:
 679              		.loc 1 74 26 view .LVU169
 680 0269 891499   		movl	%edx, (%ecx,%ebx,4)
 681              		.loc 1 75 5 is_stmt 1 view .LVU170
 682              		.loc 1 75 28 is_stmt 0 view .LVU171
 683 026c 83C301   		addl	$1, %ebx
 684              		.loc 1 75 33 view .LVU172
 685 026f BACDCCCC 		movl	$-858993459, %edx
 685      CC
 686              	.LVL37:
 687              		.loc 1 75 33 view .LVU173
 688 0274 89D8     		movl	%ebx, %eax
 689 0276 F7E2     		mull	%edx
 690 0278 C1EA03   		shrl	$3, %edx
 691 027b 8D0492   		leal	(%edx,%edx,4), %eax
 692 027e 01C0     		addl	%eax, %eax
 693 0280 29C3     		subl	%eax, %ebx
 694 0282 895928   		movl	%ebx, 40(%ecx)
 695              		.loc 1 76 5 is_stmt 1 view .LVU174
 696              		.loc 1 76 15 is_stmt 0 view .LVU175
 697 0285 8B5DAC   		movl	-84(%ebp), %ebx
 698 0288 83C301   		addl	$1, %ebx
 699 028b 895930   		movl	%ebx, 48(%ecx)
 700              		.loc 1 77 5 is_stmt 1 view .LVU176
 701              		.loc 1 79 5 view .LVU177
 702              	.LVL38:
 703              		.loc 1 79 5 is_stmt 0 view .LVU178
 704              	.LBE126:
 705              	.LBE128:
 706              		.loc 1 124 17 is_stmt 1 view .LVU179
 707 028e 89F3     		movl	%esi, %ebx
 708 0290 FF75B4   		pushl	-76(%ebp)
 709 0293 FF75E4   		pushl	-28(%ebp)
 710 0296 FF75D0   		pushl	-48(%ebp)
 711 0299 FF75A4   		pushl	-92(%ebp)
 712 029c FF75CC   		pushl	-52(%ebp)
 713 029f E8FCFFFF 		call	chprintf@PLT
 713      FF
 714              	.LVL39:
 715 02a4 83C420   		addl	$32, %esp
 716              	.LVL40:
 717              	.L15:
 718              		.loc 1 124 17 is_stmt 0 view .LVU180
 719              	.LBE122:
 720              		.loc 1 142 9 is_stmt 1 view .LVU181
 721              		.loc 1 142 24 is_stmt 0 view .LVU182
 722 02a7 8B45E0   		movl	-32(%ebp), %eax
 723              		.loc 1 143 32 view .LVU183
 724 02aa 89F3     		movl	%esi, %ebx
 725              	.LBE121:
 726              	.LBE98:
 727              	.LBE97:
 728              		.loc 1 168 27 view .LVU184
 729 02ac 83C70C   		addl	$12, %edi
 730              	.LBB148:
 731              	.LBB146:
 732              	.LBB144:
GAS LISTING /tmp/ccV7AMxf.s 			page 16


 733              		.loc 1 142 24 view .LVU185
 734 02af 8947F4   		movl	%eax, -12(%edi)
 735              		.loc 1 143 9 is_stmt 1 view .LVU186
 736              		.loc 1 143 32 is_stmt 0 view .LVU187
 737 02b2 E8FCFFFF 		call	rand@PLT
 737      FF
 738              	.LVL41:
 739 02b7 89C3     		movl	%eax, %ebx
 740              		.loc 1 143 39 view .LVU188
 741 02b9 B81F85EB 		movl	$1374389535, %eax
 741      51
 742 02be F7EB     		imull	%ebx
 743 02c0 89D8     		movl	%ebx, %eax
 744 02c2 C1F81F   		sarl	$31, %eax
 745 02c5 C1FA07   		sarl	$7, %edx
 746 02c8 29C2     		subl	%eax, %edx
 747 02ca 69D29001 		imull	$400, %edx, %edx
 747      0000
 748 02d0 29D3     		subl	%edx, %ebx
 749              		.loc 1 143 30 view .LVU189
 750 02d2 83C364   		addl	$100, %ebx
 751 02d5 895FF8   		movl	%ebx, -8(%edi)
 752              		.loc 1 143 30 view .LVU190
 753              	.LBE144:
 754              	.LBE146:
 755              	.LBE148:
 756              		.loc 1 168 42 is_stmt 1 view .LVU191
 757              		.loc 1 168 27 view .LVU192
 758 02d8 397DD8   		cmpl	%edi, -40(%ebp)
 759 02db 0F85DBFE 		jne	.L17
 759      FFFF
 760              	.LVL42:
 761              	.L30:
 762              		.loc 1 168 27 is_stmt 0 view .LVU193
 763              	.LBE96:
 764              		.loc 1 173 9 is_stmt 1 view .LVU194
 765              		.loc 1 173 17 is_stmt 0 view .LVU195
 766 02e1 8B7DB8   		movl	-72(%ebp), %edi
 767 02e4 89F8     		movl	%edi, %eax
 768 02e6 2B45B0   		subl	-80(%ebp), %eax
 769              		.loc 1 173 12 view .LVU196
 770 02e9 3DE70300 		cmpl	$999, %eax
 770      00
 771 02ee 7639     		jbe	.L18
 772              		.loc 1 174 13 is_stmt 1 view .LVU197
 773 02f0 83EC08   		subl	$8, %esp
 774 02f3 FF7594   		pushl	-108(%ebp)
 775 02f6 89F3     		movl	%esi, %ebx
 776 02f8 FF75CC   		pushl	-52(%ebp)
 777 02fb E8FCFFFF 		call	chprintf@PLT
 777      FF
 778              	.LVL43:
 779              		.loc 1 175 13 view .LVU198
 780 0300 8B55C8   		movl	-56(%ebp), %edx
 781 0303 8B45C0   		movl	-64(%ebp), %eax
 782 0306 E8FCFFFF 		call	buffer_print
 782      FF
GAS LISTING /tmp/ccV7AMxf.s 			page 17


 783              	.LVL44:
 784              		.loc 1 176 13 view .LVU199
 785 030b 8B55C4   		movl	-60(%ebp), %edx
 786 030e 8B45BC   		movl	-68(%ebp), %eax
 787 0311 E8FCFFFF 		call	buffer_print
 787      FF
 788              	.LVL45:
 789              		.loc 1 177 13 view .LVU200
 790 0316 58       		popl	%eax
 791 0317 5A       		popl	%edx
 792 0318 FF7590   		pushl	-112(%ebp)
 793 031b FF75CC   		pushl	-52(%ebp)
 794 031e E8FCFFFF 		call	chprintf@PLT
 794      FF
 795              	.LVL46:
 796              		.loc 1 178 13 view .LVU201
 797              		.loc 1 178 31 is_stmt 0 view .LVU202
 798 0323 897DB0   		movl	%edi, -80(%ebp)
 799              		.loc 1 177 13 view .LVU203
 800 0326 83C410   		addl	$16, %esp
 801              	.LVL47:
 802              	.L18:
 803              		.loc 1 182 9 is_stmt 1 view .LVU204
 804 0329 83EC0C   		subl	$12, %esp
 805 032c 89F3     		movl	%esi, %ebx
 806 032e 6A0A     		pushl	$10
 807 0330 E8FCFFFF 		call	chThdSleep@PLT
 807      FF
 808              	.LVL48:
 809              	.LBE91:
 810              		.loc 1 164 11 view .LVU205
 811              		.loc 1 164 18 is_stmt 0 view .LVU206
 812 0335 83C410   		addl	$16, %esp
 813 0338 E963FEFF 		jmp	.L19
 813      FF
 814 033d 8D7600   		.p2align 4,,10
 815              		.p2align 3
 816              	.L20:
 817              	.LBB151:
 818              	.LBB150:
 819              	.LBB149:
 820              	.LBB147:
 821              	.LBB145:
 822              		.loc 1 116 21 view .LVU207
 823 0340 8B45C4   		movl	-60(%ebp), %eax
 824              		.loc 1 115 53 view .LVU208
 825 0343 8B4DBC   		movl	-68(%ebp), %ecx
 826              		.loc 1 116 21 view .LVU209
 827 0346 8945E4   		movl	%eax, -28(%ebp)
 828 0349 E9C3FEFF 		jmp	.L12
 828      FF
 829              	.LVL49:
 830 034e 6690     		.p2align 4,,10
 831              		.p2align 3
 832              	.L13:
 833              	.LBB129:
 834              		.loc 1 132 13 is_stmt 1 view .LVU210
GAS LISTING /tmp/ccV7AMxf.s 			page 18


 835              		.loc 1 133 13 view .LVU211
 836              	.LBB130:
 837              	.LBI130:
 838              		.loc 1 45 13 view .LVU212
 839              	.LBB131:
 840              		.loc 1 46 5 view .LVU213
 841              	.LBE131:
 842              	.LBE130:
 843              	.LBE129:
 844              	.LBB138:
 845              		.loc 1 124 17 is_stmt 0 view .LVU214
 846 0350 8B4708   		movl	8(%edi), %eax
 847              	.LBE138:
 848              	.LBB139:
 849              	.LBB135:
 850              	.LBB132:
 851              		.loc 1 46 8 view .LVU215
 852 0353 8B5938   		movl	56(%ecx), %ebx
 853              	.LBE132:
 854              	.LBE135:
 855              	.LBE139:
 856              	.LBB140:
 857              		.loc 1 124 17 view .LVU216
 858 0356 8945D0   		movl	%eax, -48(%ebp)
 859              	.LBE140:
 860              	.LBB141:
 861              	.LBB136:
 862              	.LBB133:
 863              		.loc 1 46 8 view .LVU217
 864 0359 85DB     		testl	%ebx, %ebx
 865 035b 7F7B     		jg	.L16
 866              		.loc 1 50 5 is_stmt 1 view .LVU218
 867              		.loc 1 50 12 is_stmt 0 view .LVU219
 868 035d 8B5930   		movl	48(%ecx), %ebx
 869              		.loc 1 50 8 view .LVU220
 870 0360 895DB4   		movl	%ebx, -76(%ebp)
 871 0363 85DB     		testl	%ebx, %ebx
 872 0365 7471     		je	.L16
 873              		.loc 1 54 5 is_stmt 1 view .LVU221
 874              		.loc 1 55 5 view .LVU222
 875              	.LVL50:
 876              		.loc 1 56 5 view .LVU223
 877              		.loc 1 55 27 is_stmt 0 view .LVU224
 878 0367 8B592C   		movl	44(%ecx), %ebx
 879              	.LBE133:
 880              	.LBE136:
 881              		.loc 1 134 17 view .LVU225
 882 036a 83EC0C   		subl	$12, %esp
 883              	.LBB137:
 884              	.LBB134:
 885              		.loc 1 55 23 view .LVU226
 886 036d 8B1499   		movl	(%ecx,%ebx,4), %edx
 887              		.loc 1 56 28 view .LVU227
 888 0370 83C301   		addl	$1, %ebx
 889              		.loc 1 56 33 view .LVU228
 890 0373 89D8     		movl	%ebx, %eax
 891              		.loc 1 55 23 view .LVU229
GAS LISTING /tmp/ccV7AMxf.s 			page 19


 892 0375 8955AC   		movl	%edx, -84(%ebp)
 893              	.LVL51:
 894              		.loc 1 56 33 view .LVU230
 895 0378 BACDCCCC 		movl	$-858993459, %edx
 895      CC
 896 037d F7E2     		mull	%edx
 897 037f C1EA03   		shrl	$3, %edx
 898 0382 8D0492   		leal	(%edx,%edx,4), %eax
 899 0385 01C0     		addl	%eax, %eax
 900 0387 29C3     		subl	%eax, %ebx
 901 0389 89592C   		movl	%ebx, 44(%ecx)
 902              		.loc 1 57 5 is_stmt 1 view .LVU231
 903              		.loc 1 57 15 is_stmt 0 view .LVU232
 904 038c 8B5DB4   		movl	-76(%ebp), %ebx
 905 038f 83EB01   		subl	$1, %ebx
 906 0392 895930   		movl	%ebx, 48(%ecx)
 907              		.loc 1 58 5 is_stmt 1 view .LVU233
 908              		.loc 1 60 5 view .LVU234
 909              	.LVL52:
 910              		.loc 1 60 5 is_stmt 0 view .LVU235
 911              	.LBE134:
 912              	.LBE137:
 913              		.loc 1 134 17 is_stmt 1 view .LVU236
 914 0395 89F3     		movl	%esi, %ebx
 915 0397 FF75AC   		pushl	-84(%ebp)
 916 039a FF75E4   		pushl	-28(%ebp)
 917 039d FF75D0   		pushl	-48(%ebp)
 918 03a0 FF759C   		pushl	-100(%ebp)
 919 03a3 FF75CC   		pushl	-52(%ebp)
 920 03a6 E8FCFFFF 		call	chprintf@PLT
 920      FF
 921              	.LVL53:
 922 03ab 83C420   		addl	$32, %esp
 923 03ae E9F4FEFF 		jmp	.L15
 923      FF
 924              	.LVL54:
 925              		.p2align 4,,10
 926 03b3 8D742600 		.p2align 3
 926      90
 927              	.L14:
 928              		.loc 1 134 17 is_stmt 0 view .LVU237
 929              	.LBE141:
 930              	.LBB142:
 931              		.loc 1 127 17 is_stmt 1 view .LVU238
 932 03b8 FF75E4   		pushl	-28(%ebp)
 933 03bb 89F3     		movl	%esi, %ebx
 934 03bd FF75D0   		pushl	-48(%ebp)
 935 03c0 FF75A0   		pushl	-96(%ebp)
 936 03c3 FF75CC   		pushl	-52(%ebp)
 937 03c6 E8FCFFFF 		call	chprintf@PLT
 937      FF
 938              	.LVL55:
 939              		.loc 1 127 17 is_stmt 0 view .LVU239
 940 03cb 83C410   		addl	$16, %esp
 941 03ce E9D4FEFF 		jmp	.L15
 941      FF
 942              	.LVL56:
GAS LISTING /tmp/ccV7AMxf.s 			page 20


 943              		.p2align 4,,10
 944 03d3 8D742600 		.p2align 3
 944      90
 945              	.L16:
 946              		.loc 1 127 17 view .LVU240
 947              	.LBE142:
 948              	.LBB143:
 949              		.loc 1 137 17 is_stmt 1 view .LVU241
 950 03d8 FF75E4   		pushl	-28(%ebp)
 951 03db 89F3     		movl	%esi, %ebx
 952 03dd FF75D0   		pushl	-48(%ebp)
 953 03e0 FF7598   		pushl	-104(%ebp)
 954 03e3 FF75CC   		pushl	-52(%ebp)
 955 03e6 E8FCFFFF 		call	chprintf@PLT
 955      FF
 956              	.LVL57:
 957 03eb 83C410   		addl	$16, %esp
 958 03ee E9B4FEFF 		jmp	.L15
 958      FF
 959              	.LBE143:
 960              	.LBE145:
 961              	.LBE147:
 962              	.LBE149:
 963              	.LBE150:
 964              	.LBE151:
 965              		.cfi_endproc
 966              	.LFE315:
 967              		.size	main, .-main
 968              		.section	.data.counter.0,"aw"
 969              		.align 4
 970              		.type	counter.0, @object
 971              		.size	counter.0, 4
 972              	counter.0:
 973 0000 01000000 		.long	1
 974              		.section	.bss.user_tasks,"aw",@nobits
 975              		.align 32
 976              		.type	user_tasks, @object
 977              		.size	user_tasks, 120
 978              	user_tasks:
 979 0000 00000000 		.zero	120
 979      00000000 
 979      00000000 
 979      00000000 
 979      00000000 
 980              		.section	.bss.buffer2,"aw",@nobits
 981              		.align 32
 982              		.type	buffer2, @object
 983              		.size	buffer2, 60
 984              	buffer2:
 985 0000 00000000 		.zero	60
 985      00000000 
 985      00000000 
 985      00000000 
 985      00000000 
 986              		.section	.bss.buffer1,"aw",@nobits
 987              		.align 32
 988              		.type	buffer1, @object
GAS LISTING /tmp/ccV7AMxf.s 			page 21


 989              		.size	buffer1, 60
 990              	buffer1:
 991 0000 00000000 		.zero	60
 991      00000000 
 991      00000000 
 991      00000000 
 991      00000000 
 992              		.section	.text.__x86.get_pc_thunk.bx,"axG",@progbits,__x86.get_pc_thunk.bx,comdat
 993              		.globl	__x86.get_pc_thunk.bx
 994              		.hidden	__x86.get_pc_thunk.bx
 995              		.type	__x86.get_pc_thunk.bx, @function
 996              	__x86.get_pc_thunk.bx:
 997              	.LFB316:
 998              		.cfi_startproc
 999 0000 8B1C24   		movl	(%esp), %ebx
 1000 0003 C3       		ret
 1001              		.cfi_endproc
 1002              	.LFE316:
 1003              		.section	.text.__x86.get_pc_thunk.si,"axG",@progbits,__x86.get_pc_thunk.si,comdat
 1004              		.globl	__x86.get_pc_thunk.si
 1005              		.hidden	__x86.get_pc_thunk.si
 1006              		.type	__x86.get_pc_thunk.si, @function
 1007              	__x86.get_pc_thunk.si:
 1008              	.LFB317:
 1009              		.cfi_startproc
 1010 0000 8B3424   		movl	(%esp), %esi
 1011 0003 C3       		ret
 1012              		.cfi_endproc
 1013              	.LFE317:
 1014              		.text
 1015              	.Letext0:
 1016              		.file 5 "/usr/lib/gcc/x86_64-linux-gnu/11/include/stddef.h"
 1017              		.file 6 "/usr/include/bits/types.h"
 1018              		.file 7 "/usr/include/bits/stdint-intn.h"
 1019              		.file 8 "/usr/include/bits/stdint-uintn.h"
 1020              		.file 9 "../../../os/common/ports/SIMIA32/compilers/GCC/chtypes.h"
 1021              		.file 10 "../../../os/rt/include/chearly.h"
 1022              		.file 11 "../../../os/rt/include/chobjects.h"
 1023              		.file 12 "../../../os/rt/include/chrfcu.h"
 1024              		.file 13 "../../../os/rt/include/chdebug.h"
 1025              		.file 14 "../../../os/rt/include/chtime.h"
 1026              		.file 15 "../../../os/rt/include/chlists.h"
 1027              		.file 16 "../../../os/rt/include/chsem.h"
 1028              		.file 17 "../../../os/rt/include/chmtx.h"
 1029              		.file 18 "../../../os/rt/include/chevents.h"
 1030              		.file 19 "../../../os/hal/include/hal_streams.h"
 1031              		.file 20 "../../../os/hal/include/hal_queues.h"
 1032              		.file 21 "../../../os/hal/include/hal_serial.h"
 1033              		.file 22 "../../../os/hal/ports/simulator/posix/hal_serial_lld.h"
 1034              		.file 23 "../../../os/hal/lib/streams/chprintf.h"
 1035              		.file 24 "../../../os/hal/include/hal.h"
 1036              		.file 25 "/usr/include/stdlib.h"
 1037              		.file 26 "../../../os/rt/include/chthreads.h"
 5620 0036 2F686F6D 		.section	.note.GNU-stack,"",@progbits
 5620      652F616C 
 5620      65782F43 
 5620      68696269 
 5620      4F532F64 
GAS LISTING /tmp/ccV7AMxf.s 			page 110

