GAS LISTING /tmp/ccZ945OD.s 			page 1


   1              		.file	"rt_test_sequence_005.c"
   2              		.text
   3              	.Ltext0:
   4              		.file 0 "/home/alex/ChibiOS/demos/various/LAB2_VARIANT3" "../../../test/rt/source/test/rt_test_seq
   5              		.section	.rodata.rt_test_005_004_execute.str1.1,"aMS",@progbits,1
   6              	.LC0:
   7 0000 756E6578 		.string	"unexpected priority level"
   7      70656374 
   7      65642070 
   7      72696F72 
   7      69747920 
   8              		.section	.rodata.rt_test_005_004_execute.str1.4,"aMS",@progbits,1
   9              		.align 4
  10              	.LC1:
  11 0000 756E6578 		.string	"unexpected returned priority level"
  11      70656374 
  11      65642072 
  11      65747572 
  11      6E656420 
  12 0023 00       		.align 4
  13              	.LC2:
  14 0024 756E6578 		.string	"unexpected returned real priority level"
  14      70656374 
  14      65642072 
  14      65747572 
  14      6E656420 
  15              		.align 4
  16              	.LC3:
  17 004c 756E6578 		.string	"unexpected real priority level"
  17      70656374 
  17      65642072 
  17      65616C20 
  17      7072696F 
  18              		.section	.text.rt_test_005_004_execute,"ax",@progbits
  19              		.p2align 4
  20              		.type	rt_test_005_004_execute, @function
  21              	rt_test_005_004_execute:
  22              	.LFB307:
  23              		.file 1 "../../../test/rt/source/test/rt_test_sequence_005.c"
  24              		.loc 1 290 43 view -0
  25              		.cfi_startproc
  26              		.loc 1 291 3 view .LVU1
  27              		.loc 1 294 3 view .LVU2
  28              		.loc 1 290 43 is_stmt 0 view .LVU3
  29 0000 55       		pushl	%ebp
  30              		.cfi_def_cfa_offset 8
  31              		.cfi_offset 5, -8
  32 0001 57       		pushl	%edi
  33              		.cfi_def_cfa_offset 12
  34              		.cfi_offset 7, -12
  35 0002 56       		pushl	%esi
  36              		.cfi_def_cfa_offset 16
  37              		.cfi_offset 6, -16
  38 0003 53       		pushl	%ebx
  39              		.cfi_def_cfa_offset 20
  40              		.cfi_offset 3, -20
  41 0004 E8FCFFFF 		call	__x86.get_pc_thunk.bx
GAS LISTING /tmp/ccZ945OD.s 			page 2


  41      FF
  42 0009 81C30200 		addl	$_GLOBAL_OFFSET_TABLE_, %ebx
  42      0000
  43 000f 83EC24   		subl	$36, %esp
  44              		.cfi_def_cfa_offset 56
  45              	.LBB174:
  46              	.LBB175:
  47              	.LBB176:
  48              	.LBB177:
  49              		.file 2 "../../../os/rt/include/chthreads.h"
  50              		.loc 2 529 10 view .LVU4
  51 0012 8BBB0000 		movl	ch0@GOT(%ebx), %edi
  51      0000
  52              	.LBE177:
  53              	.LBE176:
  54              	.LBE175:
  55              	.LBE174:
  56              		.loc 1 294 3 view .LVU5
  57 0018 8BAB0000 		movl	chtest@GOT(%ebx), %ebp
  57      0000
  58              	.LBB184:
  59              	.LBB182:
  60              	.LBB180:
  61              	.LBB178:
  62              		.loc 2 529 10 view .LVU6
  63 001e 8B470C   		movl	12(%edi), %eax
  64              	.LBE178:
  65              	.LBE180:
  66              	.LBE182:
  67              	.LBE184:
  68              		.loc 1 294 3 view .LVU7
  69 0021 C7450001 		movl	$1, 0(%ebp)
  69      000000
  70              		.loc 1 296 5 is_stmt 1 view .LVU8
  71              	.LBB185:
  72              	.LBI174:
  73              		.loc 2 540 23 view .LVU9
  74              	.LBB183:
  75              		.loc 2 542 3 view .LVU10
  76              	.LBB181:
  77              	.LBI176:
  78              		.loc 2 527 25 view .LVU11
  79              	.LBB179:
  80              		.loc 2 529 3 view .LVU12
  81              	.LBE179:
  82              	.LBE181:
  83              		.loc 2 542 37 is_stmt 0 view .LVU13
  84 0028 8B7008   		movl	8(%eax), %esi
  85              	.LVL0:
  86              		.loc 2 542 37 view .LVU14
  87              	.LBE183:
  88              	.LBE185:
  89              		.loc 1 297 5 is_stmt 1 view .LVU15
  90              		.loc 1 297 38 is_stmt 0 view .LVU16
  91 002b 8D5602   		leal	2(%esi), %edx
  92 002e 895008   		movl	%edx, 8(%eax)
  93              		.loc 1 298 5 is_stmt 1 view .LVU17
GAS LISTING /tmp/ccZ945OD.s 			page 3


  94 0031 8D830000 		leal	.LC0@GOTOFF(%ebx), %eax
  94      0000
  95              		.loc 1 297 38 is_stmt 0 view .LVU18
  96 0037 8954240C 		movl	%edx, 12(%esp)
  97              		.loc 1 298 5 view .LVU19
  98 003b 89442408 		movl	%eax, 8(%esp)
  99 003f 50       		pushl	%eax
 100              		.cfi_def_cfa_offset 60
 101 0040 6A01     		pushl	$1
 102              		.cfi_def_cfa_offset 64
 103 0042 E8FCFFFF 		call	__test_assert@PLT
 103      FF
 104              	.LVL1:
 105 0047 83C410   		addl	$16, %esp
 106              		.cfi_def_cfa_offset 48
 107 004a 84C0     		testb	%al, %al
 108 004c 7412     		je	.L7
 109              	.L1:
 110              		.loc 1 332 1 view .LVU20
 111 004e 83C41C   		addl	$28, %esp
 112              		.cfi_remember_state
 113              		.cfi_def_cfa_offset 20
 114 0051 5B       		popl	%ebx
 115              		.cfi_restore 3
 116              		.cfi_def_cfa_offset 16
 117 0052 5E       		popl	%esi
 118              		.cfi_restore 6
 119              		.cfi_def_cfa_offset 12
 120              	.LVL2:
 121              		.loc 1 332 1 view .LVU21
 122 0053 5F       		popl	%edi
 123              		.cfi_restore 7
 124              		.cfi_def_cfa_offset 8
 125 0054 5D       		popl	%ebp
 126              		.cfi_restore 5
 127              		.cfi_def_cfa_offset 4
 128 0055 C3       		ret
 129              	.LVL3:
 130 0056 8DB42600 		.p2align 4,,10
 130      0000008D 
 130      7600
 131              		.p2align 3
 132              	.L7:
 133              		.cfi_restore_state
 134              		.loc 1 298 78 is_stmt 1 discriminator 2 view .LVU22
 135              		.loc 1 300 3 discriminator 2 view .LVU23
 136              		.loc 1 300 19 discriminator 2 view .LVU24
 137              		.loc 1 304 3 discriminator 2 view .LVU25
 138              		.loc 1 306 10 is_stmt 0 discriminator 2 view .LVU26
 139 0060 83EC0C   		subl	$12, %esp
 140              		.cfi_def_cfa_offset 60
 141 0063 8D4E01   		leal	1(%esi), %ecx
 142              		.loc 1 304 3 discriminator 2 view .LVU27
 143 0066 C7450002 		movl	$2, 0(%ebp)
 143      000000
 144              		.loc 1 306 5 is_stmt 1 discriminator 2 view .LVU28
 145              		.loc 1 306 10 is_stmt 0 discriminator 2 view .LVU29
GAS LISTING /tmp/ccZ945OD.s 			page 4


 146 006d 894C2414 		movl	%ecx, 20(%esp)
 147 0071 51       		pushl	%ecx
 148              		.cfi_def_cfa_offset 64
 149 0072 E8FCFFFF 		call	chThdSetPriority@PLT
 149      FF
 150              	.LVL4:
 151              		.loc 1 307 5 is_stmt 1 discriminator 2 view .LVU30
 152 0077 5A       		popl	%edx
 153              		.cfi_def_cfa_offset 60
 154 0078 59       		popl	%ecx
 155              		.cfi_def_cfa_offset 56
 156 0079 8D8B0000 		leal	.LC1@GOTOFF(%ebx), %ecx
 156      0000
 157 007f 39F0     		cmpl	%esi, %eax
 158 0081 894C2414 		movl	%ecx, 20(%esp)
 159 0085 0F94C0   		sete	%al
 160              	.LVL5:
 161              		.loc 1 307 5 is_stmt 0 discriminator 2 view .LVU31
 162 0088 51       		pushl	%ecx
 163              		.cfi_def_cfa_offset 60
 164 0089 0FB6C0   		movzbl	%al, %eax
 165 008c 50       		pushl	%eax
 166              		.cfi_def_cfa_offset 64
 167 008d E8FCFFFF 		call	__test_assert@PLT
 167      FF
 168              	.LVL6:
 169 0092 83C410   		addl	$16, %esp
 170              		.cfi_def_cfa_offset 48
 171 0095 84C0     		testb	%al, %al
 172 0097 75B5     		jne	.L1
 173              		.loc 1 307 66 is_stmt 1 view .LVU32
 174              		.loc 1 308 5 view .LVU33
 175              	.LBB186:
 176              	.LBI186:
 177              		.loc 2 527 25 view .LVU34
 178              	.LBB187:
 179              		.loc 2 529 3 view .LVU35
 180              	.LBE187:
 181              	.LBE186:
 182              		.loc 1 308 5 is_stmt 0 view .LVU36
 183 0099 8B470C   		movl	12(%edi), %eax
 184 009c 83EC08   		subl	$8, %esp
 185              		.cfi_def_cfa_offset 56
 186 009f FF742408 		pushl	8(%esp)
 187              		.cfi_def_cfa_offset 60
 188 00a3 8B542410 		movl	16(%esp), %edx
 189 00a7 395008   		cmpl	%edx, 8(%eax)
 190 00aa 0F94C0   		sete	%al
 191 00ad 0FB6C0   		movzbl	%al, %eax
 192 00b0 50       		pushl	%eax
 193              		.cfi_def_cfa_offset 64
 194 00b1 E8FCFFFF 		call	__test_assert@PLT
 194      FF
 195              	.LVL7:
 196 00b6 83C410   		addl	$16, %esp
 197              		.cfi_def_cfa_offset 48
 198 00b9 84C0     		testb	%al, %al
GAS LISTING /tmp/ccZ945OD.s 			page 5


 199 00bb 7591     		jne	.L1
 200              		.loc 1 308 91 is_stmt 1 view .LVU37
 201              		.loc 1 309 5 view .LVU38
 202              	.LBB188:
 203              	.LBI188:
 204              		.loc 2 527 25 view .LVU39
 205              	.LBB189:
 206              		.loc 2 529 3 view .LVU40
 207              	.LBE189:
 208              	.LBE188:
 209              		.loc 1 309 5 is_stmt 0 view .LVU41
 210 00bd 83EC08   		subl	$8, %esp
 211              		.cfi_def_cfa_offset 56
 212 00c0 8D830000 		leal	.LC2@GOTOFF(%ebx), %eax
 212      0000
 213 00c6 50       		pushl	%eax
 214              		.cfi_def_cfa_offset 60
 215 00c7 8B470C   		movl	12(%edi), %eax
 216 00ca 8B4C2414 		movl	20(%esp), %ecx
 217 00ce 39484C   		cmpl	%ecx, 76(%eax)
 218 00d1 0F94C0   		sete	%al
 219 00d4 0FB6C0   		movzbl	%al, %eax
 220 00d7 50       		pushl	%eax
 221              		.cfi_def_cfa_offset 64
 222 00d8 E8FCFFFF 		call	__test_assert@PLT
 222      FF
 223              	.LVL8:
 224 00dd 83C410   		addl	$16, %esp
 225              		.cfi_def_cfa_offset 48
 226 00e0 84C0     		testb	%al, %al
 227 00e2 0F8566FF 		jne	.L1
 227      FFFF
 228              		.loc 1 309 98 is_stmt 1 discriminator 2 view .LVU42
 229              		.loc 1 311 3 discriminator 2 view .LVU43
 230              		.loc 1 311 19 discriminator 2 view .LVU44
 231              		.loc 1 314 3 discriminator 2 view .LVU45
 232              		.loc 1 316 10 is_stmt 0 discriminator 2 view .LVU46
 233 00e8 83EC0C   		subl	$12, %esp
 234              		.cfi_def_cfa_offset 60
 235 00eb 8D5603   		leal	3(%esi), %edx
 236              		.loc 1 314 3 discriminator 2 view .LVU47
 237 00ee C7450003 		movl	$3, 0(%ebp)
 237      000000
 238              		.loc 1 316 5 is_stmt 1 discriminator 2 view .LVU48
 239              		.loc 1 316 10 is_stmt 0 discriminator 2 view .LVU49
 240 00f5 89542410 		movl	%edx, 16(%esp)
 241 00f9 52       		pushl	%edx
 242              		.cfi_def_cfa_offset 64
 243 00fa E8FCFFFF 		call	chThdSetPriority@PLT
 243      FF
 244              	.LVL9:
 245              		.loc 1 317 5 is_stmt 1 discriminator 2 view .LVU50
 246 00ff 5A       		popl	%edx
 247              		.cfi_def_cfa_offset 60
 248 0100 59       		popl	%ecx
 249              		.cfi_def_cfa_offset 56
 250 0101 FF742414 		pushl	20(%esp)
GAS LISTING /tmp/ccZ945OD.s 			page 6


 251              		.cfi_def_cfa_offset 60
 252 0105 39442414 		cmpl	%eax, 20(%esp)
 253 0109 0F94C0   		sete	%al
 254              	.LVL10:
 255              		.loc 1 317 5 is_stmt 0 discriminator 2 view .LVU51
 256 010c 0FB6C0   		movzbl	%al, %eax
 257 010f 50       		pushl	%eax
 258              		.cfi_def_cfa_offset 64
 259 0110 E8FCFFFF 		call	__test_assert@PLT
 259      FF
 260              	.LVL11:
 261 0115 83C410   		addl	$16, %esp
 262              		.cfi_def_cfa_offset 48
 263 0118 84C0     		testb	%al, %al
 264 011a 0F852EFF 		jne	.L1
 264      FFFF
 265              		.loc 1 317 70 is_stmt 1 view .LVU52
 266              		.loc 1 318 5 view .LVU53
 267              	.LBB190:
 268              	.LBI190:
 269              		.loc 2 527 25 view .LVU54
 270              	.LBB191:
 271              		.loc 2 529 3 view .LVU55
 272              	.LBE191:
 273              	.LBE190:
 274              		.loc 1 318 5 is_stmt 0 view .LVU56
 275 0120 8B470C   		movl	12(%edi), %eax
 276 0123 83EC08   		subl	$8, %esp
 277              		.cfi_def_cfa_offset 56
 278 0126 FF742408 		pushl	8(%esp)
 279              		.cfi_def_cfa_offset 60
 280 012a 8B542410 		movl	16(%esp), %edx
 281 012e 395008   		cmpl	%edx, 8(%eax)
 282 0131 0F94C0   		sete	%al
 283 0134 0FB6C0   		movzbl	%al, %eax
 284 0137 50       		pushl	%eax
 285              		.cfi_def_cfa_offset 64
 286 0138 E8FCFFFF 		call	__test_assert@PLT
 286      FF
 287              	.LVL12:
 288 013d 83C410   		addl	$16, %esp
 289              		.cfi_def_cfa_offset 48
 290 0140 84C0     		testb	%al, %al
 291 0142 0F8506FF 		jne	.L1
 291      FFFF
 292              		.loc 1 318 91 is_stmt 1 view .LVU57
 293              		.loc 1 319 5 view .LVU58
 294              	.LBB192:
 295              	.LBI192:
 296              		.loc 2 527 25 view .LVU59
 297              	.LBB193:
 298              		.loc 2 529 3 view .LVU60
 299              	.LBE193:
 300              	.LBE192:
 301              		.loc 1 319 5 is_stmt 0 view .LVU61
 302 0148 83EC08   		subl	$8, %esp
 303              		.cfi_def_cfa_offset 56
GAS LISTING /tmp/ccZ945OD.s 			page 7


 304 014b 8D830000 		leal	.LC3@GOTOFF(%ebx), %eax
 304      0000
 305 0151 50       		pushl	%eax
 306              		.cfi_def_cfa_offset 60
 307 0152 8B470C   		movl	12(%edi), %eax
 308 0155 8B542410 		movl	16(%esp), %edx
 309 0159 39504C   		cmpl	%edx, 76(%eax)
 310 015c 0F94C0   		sete	%al
 311 015f 0FB6C0   		movzbl	%al, %eax
 312 0162 50       		pushl	%eax
 313              		.cfi_def_cfa_offset 64
 314 0163 E8FCFFFF 		call	__test_assert@PLT
 314      FF
 315              	.LVL13:
 316 0168 83C410   		addl	$16, %esp
 317              		.cfi_def_cfa_offset 48
 318 016b 84C0     		testb	%al, %al
 319 016d 0F85DBFE 		jne	.L1
 319      FFFF
 320              		.loc 1 319 89 is_stmt 1 discriminator 2 view .LVU62
 321              		.loc 1 321 3 discriminator 2 view .LVU63
 322              		.loc 1 321 19 discriminator 2 view .LVU64
 323              		.loc 1 324 3 discriminator 2 view .LVU65
 324              	.LBB194:
 325              	.LBB195:
 326              		.loc 2 529 10 is_stmt 0 discriminator 2 view .LVU66
 327 0173 8B470C   		movl	12(%edi), %eax
 328              	.LBE195:
 329              	.LBE194:
 330              		.loc 1 324 3 discriminator 2 view .LVU67
 331 0176 C7450004 		movl	$4, 0(%ebp)
 331      000000
 332              		.loc 1 326 5 is_stmt 1 discriminator 2 view .LVU68
 333              		.loc 1 327 5 discriminator 2 view .LVU69
 334              	.LBB197:
 335              	.LBI194:
 336              		.loc 2 527 25 discriminator 2 view .LVU70
 337              	.LBB196:
 338              		.loc 2 529 3 discriminator 2 view .LVU71
 339              	.LBE196:
 340              	.LBE197:
 341              		.loc 1 327 38 is_stmt 0 discriminator 2 view .LVU72
 342 017d 897008   		movl	%esi, 8(%eax)
 343              		.loc 1 328 5 is_stmt 1 discriminator 2 view .LVU73
 344              		.loc 1 328 31 is_stmt 0 discriminator 2 view .LVU74
 345 0180 89704C   		movl	%esi, 76(%eax)
 346              		.loc 1 329 5 is_stmt 1 discriminator 2 view .LVU75
 347              	.LBB198:
 348              	.LBI198:
 349              		.file 3 "../../../os/rt/include/chsys.h"
 350              		.loc 3 421 20 discriminator 2 view .LVU76
 351              	.LBB199:
 352              		.loc 3 423 23 discriminator 2 view .LVU77
 353              		.loc 3 424 34 discriminator 2 view .LVU78
 354              		.loc 3 430 3 discriminator 2 view .LVU79
 355              		.loc 3 430 3 discriminator 2 view .LVU80
 356              		.loc 3 430 3 discriminator 2 view .LVU81
GAS LISTING /tmp/ccZ945OD.s 			page 8


 357              		.loc 3 434 3 discriminator 2 view .LVU82
 358              	.LBB200:
 359              	.LBI200:
 360              		.file 4 "../../../os/common/ports/SIMIA32/chcore.h"
 361              		.loc 4 370 20 discriminator 2 view .LVU83
 362              	.LBB201:
 363              		.loc 4 372 3 discriminator 2 view .LVU84
 364              		.loc 4 372 16 is_stmt 0 discriminator 2 view .LVU85
 365 0183 8B830000 		movl	port_irq_sts@GOT(%ebx), %eax
 365      0000
 366 0189 C7000000 		movl	$0, (%eax)
 366      0000
 367              	.LBE201:
 368              	.LBE200:
 369              	.LBE199:
 370              	.LBE198:
 371              		.loc 1 331 3 is_stmt 1 discriminator 2 view .LVU86
 372              		.loc 1 331 19 discriminator 2 view .LVU87
 373              	.LBB203:
 374              	.LBB202:
 375              		.loc 3 435 1 is_stmt 0 discriminator 2 view .LVU88
 376 018f E9BAFEFF 		jmp	.L1
 376      FF
 377              	.LBE202:
 378              	.LBE203:
 379              		.cfi_endproc
 380              	.LFE307:
 381              		.size	rt_test_005_004_execute, .-rt_test_005_004_execute
 382              		.section	.text.rt_test_005_003_execute,"ax",@progbits
 383              		.p2align 4
 384              		.type	rt_test_005_003_execute, @function
 385              	rt_test_005_003_execute:
 386              	.LFB306:
 387              		.loc 1 235 43 is_stmt 1 view -0
 388              		.cfi_startproc
 389              		.loc 1 236 3 view .LVU90
 390              		.loc 1 240 3 view .LVU91
 391              		.loc 1 235 43 is_stmt 0 view .LVU92
 392 0000 55       		pushl	%ebp
 393              		.cfi_def_cfa_offset 8
 394              		.cfi_offset 5, -8
 395 0001 57       		pushl	%edi
 396              		.cfi_def_cfa_offset 12
 397              		.cfi_offset 7, -12
 398 0002 56       		pushl	%esi
 399              		.cfi_def_cfa_offset 16
 400              		.cfi_offset 6, -16
 401 0003 53       		pushl	%ebx
 402              		.cfi_def_cfa_offset 20
 403              		.cfi_offset 3, -20
 404 0004 E8FCFFFF 		call	__x86.get_pc_thunk.bx
 404      FF
 405 0009 81C30200 		addl	$_GLOBAL_OFFSET_TABLE_, %ebx
 405      0000
 406 000f 83EC28   		subl	$40, %esp
 407              		.cfi_def_cfa_offset 60
 408              		.loc 1 240 3 view .LVU93
GAS LISTING /tmp/ccZ945OD.s 			page 9


 409 0012 8B830000 		movl	chtest@GOT(%ebx), %eax
 409      0000
 410              	.LBB204:
 411              	.LBB205:
 412              	.LBB206:
 413              	.LBB207:
 414              		.loc 2 529 10 view .LVU94
 415 0018 8BAB0000 		movl	ch0@GOT(%ebx), %ebp
 415      0000
 416              	.LBE207:
 417              	.LBE206:
 418              	.LBE205:
 419              	.LBE204:
 420              		.loc 1 240 3 view .LVU95
 421 001e 89442414 		movl	%eax, 20(%esp)
 422 0022 C7000100 		movl	$1, (%eax)
 422      0000
 423              		.loc 1 242 5 is_stmt 1 view .LVU96
 424              	.LBB211:
 425              	.LBI204:
 426              		.loc 2 540 23 view .LVU97
 427              	.LBB210:
 428              		.loc 2 542 3 view .LVU98
 429              	.LBB209:
 430              	.LBI206:
 431              		.loc 2 527 25 view .LVU99
 432              	.LBB208:
 433              		.loc 2 529 3 view .LVU100
 434              	.LBE208:
 435              	.LBE209:
 436              		.loc 2 542 37 is_stmt 0 view .LVU101
 437 0028 8B450C   		movl	12(%ebp), %eax
 438 002b 8B7008   		movl	8(%eax), %esi
 439              	.LVL14:
 440              		.loc 2 542 37 view .LVU102
 441              	.LBE210:
 442              	.LBE211:
 443              		.loc 1 243 5 is_stmt 1 view .LVU103
 444              		.loc 1 243 10 is_stmt 0 view .LVU104
 445 002e 8D7E01   		leal	1(%esi), %edi
 446 0031 57       		pushl	%edi
 447              		.cfi_def_cfa_offset 64
 448 0032 E8FCFFFF 		call	chThdSetPriority@PLT
 448      FF
 449              	.LVL15:
 450              		.loc 1 244 5 is_stmt 1 view .LVU105
 451 0037 5A       		popl	%edx
 452              		.cfi_def_cfa_offset 60
 453 0038 8D930000 		leal	.LC1@GOTOFF(%ebx), %edx
 453      0000
 454 003e 59       		popl	%ecx
 455              		.cfi_def_cfa_offset 56
 456 003f 89542408 		movl	%edx, 8(%esp)
 457 0043 39F0     		cmpl	%esi, %eax
 458 0045 52       		pushl	%edx
 459              		.cfi_def_cfa_offset 60
 460 0046 89442410 		movl	%eax, 16(%esp)
GAS LISTING /tmp/ccZ945OD.s 			page 10


 461 004a 0F94C0   		sete	%al
 462              	.LVL16:
 463              		.loc 1 244 5 is_stmt 0 view .LVU106
 464 004d 0FB6C0   		movzbl	%al, %eax
 465 0050 50       		pushl	%eax
 466              		.cfi_def_cfa_offset 64
 467 0051 E8FCFFFF 		call	__test_assert@PLT
 467      FF
 468              	.LVL17:
 469 0056 83C410   		addl	$16, %esp
 470              		.cfi_def_cfa_offset 48
 471 0059 84C0     		testb	%al, %al
 472 005b 740B     		je	.L13
 473              	.LVL18:
 474              	.L8:
 475              		.loc 1 258 1 view .LVU107
 476 005d 83C41C   		addl	$28, %esp
 477              		.cfi_remember_state
 478              		.cfi_def_cfa_offset 20
 479 0060 5B       		popl	%ebx
 480              		.cfi_restore 3
 481              		.cfi_def_cfa_offset 16
 482 0061 5E       		popl	%esi
 483              		.cfi_restore 6
 484              		.cfi_def_cfa_offset 12
 485              	.LVL19:
 486              		.loc 1 258 1 view .LVU108
 487 0062 5F       		popl	%edi
 488              		.cfi_restore 7
 489              		.cfi_def_cfa_offset 8
 490              	.LVL20:
 491              		.loc 1 258 1 view .LVU109
 492 0063 5D       		popl	%ebp
 493              		.cfi_restore 5
 494              		.cfi_def_cfa_offset 4
 495 0064 C3       		ret
 496              	.LVL21:
 497              		.p2align 4,,10
 498 0065 8D7600   		.p2align 3
 499              	.L13:
 500              		.cfi_restore_state
 501              		.loc 1 244 66 is_stmt 1 view .LVU110
 502              		.loc 1 245 5 view .LVU111
 503              	.LBB212:
 504              	.LBI212:
 505              		.loc 2 540 23 view .LVU112
 506              	.LBB213:
 507              		.loc 2 542 3 view .LVU113
 508              	.LBB214:
 509              	.LBI214:
 510              		.loc 2 527 25 view .LVU114
 511              	.LBB215:
 512              		.loc 2 529 3 view .LVU115
 513              	.LBE215:
 514              	.LBE214:
 515              		.loc 2 542 37 is_stmt 0 view .LVU116
 516 0068 8B450C   		movl	12(%ebp), %eax
GAS LISTING /tmp/ccZ945OD.s 			page 11


 517              	.LBE213:
 518              	.LBE212:
 519              		.loc 1 245 5 view .LVU117
 520 006b 83EC08   		subl	$8, %esp
 521              		.cfi_def_cfa_offset 56
 522 006e 8D930000 		leal	.LC0@GOTOFF(%ebx), %edx
 522      0000
 523 0074 89542414 		movl	%edx, 20(%esp)
 524 0078 52       		pushl	%edx
 525              		.cfi_def_cfa_offset 60
 526 0079 397808   		cmpl	%edi, 8(%eax)
 527 007c 0F94C0   		sete	%al
 528 007f 0FB6C0   		movzbl	%al, %eax
 529 0082 50       		pushl	%eax
 530              		.cfi_def_cfa_offset 64
 531 0083 E8FCFFFF 		call	__test_assert@PLT
 531      FF
 532              	.LVL22:
 533 0088 83C410   		addl	$16, %esp
 534              		.cfi_def_cfa_offset 48
 535 008b 84C0     		testb	%al, %al
 536 008d 75CE     		jne	.L8
 537              		.loc 1 245 78 is_stmt 1 discriminator 2 view .LVU118
 538              		.loc 1 247 3 discriminator 2 view .LVU119
 539              		.loc 1 247 19 discriminator 2 view .LVU120
 540              		.loc 1 251 3 discriminator 2 view .LVU121
 541 008f 8B442408 		movl	8(%esp), %eax
 542              		.loc 1 253 10 is_stmt 0 discriminator 2 view .LVU122
 543 0093 83EC0C   		subl	$12, %esp
 544              		.cfi_def_cfa_offset 60
 545              		.loc 1 251 3 discriminator 2 view .LVU123
 546 0096 C7000200 		movl	$2, (%eax)
 546      0000
 547              		.loc 1 253 5 is_stmt 1 discriminator 2 view .LVU124
 548              		.loc 1 253 10 is_stmt 0 discriminator 2 view .LVU125
 549 009c FF742410 		pushl	16(%esp)
 550              		.cfi_def_cfa_offset 64
 551 00a0 E8FCFFFF 		call	chThdSetPriority@PLT
 551      FF
 552              	.LVL23:
 553              		.loc 1 254 5 is_stmt 1 discriminator 2 view .LVU126
 554 00a5 5A       		popl	%edx
 555              		.cfi_def_cfa_offset 60
 556 00a6 59       		popl	%ecx
 557              		.cfi_def_cfa_offset 56
 558 00a7 FF742408 		pushl	8(%esp)
 559              		.cfi_def_cfa_offset 60
 560 00ab 39C7     		cmpl	%eax, %edi
 561 00ad 0F94C0   		sete	%al
 562              	.LVL24:
 563              		.loc 1 254 5 is_stmt 0 discriminator 2 view .LVU127
 564 00b0 0FB6C0   		movzbl	%al, %eax
 565 00b3 50       		pushl	%eax
 566              		.cfi_def_cfa_offset 64
 567 00b4 E8FCFFFF 		call	__test_assert@PLT
 567      FF
 568              	.LVL25:
GAS LISTING /tmp/ccZ945OD.s 			page 12


 569 00b9 83C410   		addl	$16, %esp
 570              		.cfi_def_cfa_offset 48
 571 00bc 84C0     		testb	%al, %al
 572 00be 759D     		jne	.L8
 573              		.loc 1 254 70 is_stmt 1 view .LVU128
 574              		.loc 1 255 5 view .LVU129
 575              	.LBB216:
 576              	.LBI216:
 577              		.loc 2 540 23 view .LVU130
 578              	.LBB217:
 579              		.loc 2 542 3 view .LVU131
 580              	.LBB218:
 581              	.LBI218:
 582              		.loc 2 527 25 view .LVU132
 583              	.LBB219:
 584              		.loc 2 529 3 view .LVU133
 585              	.LBE219:
 586              	.LBE218:
 587              		.loc 2 542 37 is_stmt 0 view .LVU134
 588 00c0 8B450C   		movl	12(%ebp), %eax
 589              	.LBE217:
 590              	.LBE216:
 591              		.loc 1 255 5 view .LVU135
 592 00c3 83EC08   		subl	$8, %esp
 593              		.cfi_def_cfa_offset 56
 594 00c6 FF742414 		pushl	20(%esp)
 595              		.cfi_def_cfa_offset 60
 596 00ca 397008   		cmpl	%esi, 8(%eax)
 597 00cd 0F94C0   		sete	%al
 598 00d0 0FB6C0   		movzbl	%al, %eax
 599 00d3 50       		pushl	%eax
 600              		.cfi_def_cfa_offset 64
 601 00d4 E8FCFFFF 		call	__test_assert@PLT
 601      FF
 602              	.LVL26:
 603 00d9 83C410   		addl	$16, %esp
 604              		.cfi_def_cfa_offset 48
 605              		.loc 1 255 74 is_stmt 1 view .LVU136
 606              		.loc 1 257 3 view .LVU137
 607              		.loc 1 257 19 view .LVU138
 608              		.loc 1 258 1 is_stmt 0 view .LVU139
 609 00dc 83C41C   		addl	$28, %esp
 610              		.cfi_def_cfa_offset 20
 611 00df 5B       		popl	%ebx
 612              		.cfi_restore 3
 613              		.cfi_def_cfa_offset 16
 614 00e0 5E       		popl	%esi
 615              		.cfi_restore 6
 616              		.cfi_def_cfa_offset 12
 617              	.LVL27:
 618              		.loc 1 258 1 view .LVU140
 619 00e1 5F       		popl	%edi
 620              		.cfi_restore 7
 621              		.cfi_def_cfa_offset 8
 622              	.LVL28:
 623              		.loc 1 258 1 view .LVU141
 624 00e2 5D       		popl	%ebp
GAS LISTING /tmp/ccZ945OD.s 			page 13


 625              		.cfi_restore 5
 626              		.cfi_def_cfa_offset 4
 627 00e3 C3       		ret
 628              		.cfi_endproc
 629              	.LFE306:
 630              		.size	rt_test_005_003_execute, .-rt_test_005_003_execute
 631              		.section	.rodata.rt_test_005_002_execute.str1.1,"aMS",@progbits,1
 632              	.LC4:
 633 0000 4500     		.string	"E"
 634              	.LC5:
 635 0002 4400     		.string	"D"
 636              	.LC6:
 637 0004 4300     		.string	"C"
 638              	.LC7:
 639 0006 4200     		.string	"B"
 640              	.LC8:
 641 0008 4100     		.string	"A"
 642              	.LC9:
 643 000a 696E7661 		.string	"invalid sequence"
 643      6C696420 
 643      73657175 
 643      656E6365 
 643      00
 644              	.LC10:
 645 001b 41424344 		.string	"ABCDE"
 645      4500
 646              		.section	.text.rt_test_005_002_execute,"ax",@progbits
 647              		.p2align 4
 648              		.type	rt_test_005_002_execute, @function
 649              	rt_test_005_002_execute:
 650              	.LFB305:
 651              		.loc 1 168 43 is_stmt 1 view -0
 652              		.cfi_startproc
 653              		.loc 1 172 3 view .LVU143
 654              		.loc 1 168 43 is_stmt 0 view .LVU144
 655 0000 55       		pushl	%ebp
 656              		.cfi_def_cfa_offset 8
 657              		.cfi_offset 5, -8
 658 0001 57       		pushl	%edi
 659              		.cfi_def_cfa_offset 12
 660              		.cfi_offset 7, -12
 661 0002 56       		pushl	%esi
 662              		.cfi_def_cfa_offset 16
 663              		.cfi_offset 6, -16
 664 0003 53       		pushl	%ebx
 665              		.cfi_def_cfa_offset 20
 666              		.cfi_offset 3, -20
 667 0004 E8FCFFFF 		call	__x86.get_pc_thunk.bx
 667      FF
 668 0009 81C30200 		addl	$_GLOBAL_OFFSET_TABLE_, %ebx
 668      0000
 669 000f 83EC58   		subl	$88, %esp
 670              		.cfi_def_cfa_offset 108
 671              		.loc 1 172 3 view .LVU145
 672 0012 8B830000 		movl	chtest@GOT(%ebx), %eax
 672      0000
 673              	.LBB220:
GAS LISTING /tmp/ccZ945OD.s 			page 14


 674              	.LBB221:
 675              	.LBB222:
 676              	.LBB223:
 677              		.loc 2 529 10 view .LVU146
 678 0018 8BAB0000 		movl	ch0@GOT(%ebx), %ebp
 678      0000
 679              	.LBE223:
 680              	.LBE222:
 681              	.LBE221:
 682              	.LBE220:
 683              		.loc 1 174 18 view .LVU147
 684 001e 8DBB0000 		leal	thread@GOTOFF(%ebx), %edi
 684      0000
 685 0024 8D8B0000 		leal	.LC4@GOTOFF(%ebx), %ecx
 685      0000
 686 002a 894C242C 		movl	%ecx, 44(%esp)
 687              		.loc 1 172 3 view .LVU148
 688 002e 89442448 		movl	%eax, 72(%esp)
 689 0032 C7000100 		movl	$1, (%eax)
 689      0000
 690              		.loc 1 174 5 is_stmt 1 view .LVU149
 691              	.LBB228:
 692              	.LBI220:
 693              		.loc 2 540 23 view .LVU150
 694              	.LBB226:
 695              		.loc 2 542 3 view .LVU151
 696              	.LBB225:
 697              	.LBI222:
 698              		.loc 2 527 25 view .LVU152
 699              	.LBB224:
 700              		.loc 2 529 3 view .LVU153
 701              	.LBE224:
 702              	.LBE225:
 703              	.LBE226:
 704              	.LBE228:
 705              		.loc 1 174 38 is_stmt 0 view .LVU154
 706 0038 8B830000 		movl	wa@GOT(%ebx), %eax
 706      0000
 707 003e 89442418 		movl	%eax, 24(%esp)
 708 0042 8B10     		movl	(%eax), %edx
 709              	.LBB229:
 710              	.LBB227:
 711              		.loc 2 542 37 view .LVU155
 712 0044 8B450C   		movl	12(%ebp), %eax
 713              	.LBE227:
 714              	.LBE229:
 715              		.loc 1 174 18 view .LVU156
 716 0047 51       		pushl	%ecx
 717              		.cfi_def_cfa_offset 112
 718 0048 57       		pushl	%edi
 719              		.cfi_def_cfa_offset 116
 720 0049 8B4008   		movl	8(%eax), %eax
 721 004c 83E805   		subl	$5, %eax
 722 004f 50       		pushl	%eax
 723              		.cfi_def_cfa_offset 120
 724 0050 68404100 		pushl	$16704
 724      00
GAS LISTING /tmp/ccZ945OD.s 			page 15


 725              		.cfi_def_cfa_offset 124
 726 0055 8954242C 		movl	%edx, 44(%esp)
 727 0059 52       		pushl	%edx
 728              		.cfi_def_cfa_offset 128
 729 005a E8FCFFFF 		call	chThdCreateStatic@PLT
 729      FF
 730              	.LVL29:
 731              		.loc 1 174 16 view .LVU157
 732 005f 8BB30000 		movl	threads@GOT(%ebx), %esi
 732      0000
 733              		.loc 1 175 18 view .LVU158
 734 0065 8D8B0000 		leal	.LC5@GOTOFF(%ebx), %ecx
 734      0000
 735              		.loc 1 174 16 view .LVU159
 736 006b 8906     		movl	%eax, (%esi)
 737              		.loc 1 175 5 is_stmt 1 view .LVU160
 738              	.LBB230:
 739              	.LBI230:
 740              		.loc 2 540 23 view .LVU161
 741              	.LBB231:
 742              		.loc 2 542 3 view .LVU162
 743              	.LBB232:
 744              	.LBI232:
 745              		.loc 2 527 25 view .LVU163
 746              	.LBB233:
 747              		.loc 2 529 3 view .LVU164
 748              	.LBE233:
 749              	.LBE232:
 750              	.LBE231:
 751              	.LBE230:
 752              		.loc 1 175 38 is_stmt 0 view .LVU165
 753 006d 8B44242C 		movl	44(%esp), %eax
 754              		.loc 1 175 18 view .LVU166
 755 0071 83C414   		addl	$20, %esp
 756              		.cfi_def_cfa_offset 108
 757              		.loc 1 175 38 view .LVU167
 758 0074 8B5004   		movl	4(%eax), %edx
 759              	.LBB235:
 760              	.LBB234:
 761              		.loc 2 542 37 view .LVU168
 762 0077 8B450C   		movl	12(%ebp), %eax
 763              	.LBE234:
 764              	.LBE235:
 765              		.loc 1 175 18 view .LVU169
 766 007a 894C2430 		movl	%ecx, 48(%esp)
 767 007e 51       		pushl	%ecx
 768              		.cfi_def_cfa_offset 112
 769 007f 57       		pushl	%edi
 770              		.cfi_def_cfa_offset 116
 771 0080 8B4008   		movl	8(%eax), %eax
 772 0083 83E804   		subl	$4, %eax
 773 0086 50       		pushl	%eax
 774              		.cfi_def_cfa_offset 120
 775 0087 68404100 		pushl	$16704
 775      00
 776              		.cfi_def_cfa_offset 124
 777 008c 89542430 		movl	%edx, 48(%esp)
GAS LISTING /tmp/ccZ945OD.s 			page 16


 778 0090 52       		pushl	%edx
 779              		.cfi_def_cfa_offset 128
 780 0091 E8FCFFFF 		call	chThdCreateStatic@PLT
 780      FF
 781              	.LVL30:
 782              		.loc 1 176 18 view .LVU170
 783 0096 8D8B0000 		leal	.LC6@GOTOFF(%ebx), %ecx
 783      0000
 784              		.loc 1 175 16 view .LVU171
 785 009c 894604   		movl	%eax, 4(%esi)
 786              		.loc 1 176 5 is_stmt 1 view .LVU172
 787              	.LBB236:
 788              	.LBI236:
 789              		.loc 2 540 23 view .LVU173
 790              	.LBB237:
 791              		.loc 2 542 3 view .LVU174
 792              	.LBB238:
 793              	.LBI238:
 794              		.loc 2 527 25 view .LVU175
 795              	.LBB239:
 796              		.loc 2 529 3 view .LVU176
 797              	.LBE239:
 798              	.LBE238:
 799              	.LBE237:
 800              	.LBE236:
 801              		.loc 1 176 38 is_stmt 0 view .LVU177
 802 009f 8B44242C 		movl	44(%esp), %eax
 803              		.loc 1 176 18 view .LVU178
 804 00a3 83C414   		addl	$20, %esp
 805              		.cfi_def_cfa_offset 108
 806              		.loc 1 176 38 view .LVU179
 807 00a6 8B5008   		movl	8(%eax), %edx
 808              	.LBB241:
 809              	.LBB240:
 810              		.loc 2 542 37 view .LVU180
 811 00a9 8B450C   		movl	12(%ebp), %eax
 812              	.LBE240:
 813              	.LBE241:
 814              		.loc 1 176 18 view .LVU181
 815 00ac 894C2434 		movl	%ecx, 52(%esp)
 816 00b0 51       		pushl	%ecx
 817              		.cfi_def_cfa_offset 112
 818 00b1 57       		pushl	%edi
 819              		.cfi_def_cfa_offset 116
 820 00b2 8B4008   		movl	8(%eax), %eax
 821 00b5 83E803   		subl	$3, %eax
 822 00b8 50       		pushl	%eax
 823              		.cfi_def_cfa_offset 120
 824 00b9 68404100 		pushl	$16704
 824      00
 825              		.cfi_def_cfa_offset 124
 826 00be 89542434 		movl	%edx, 52(%esp)
 827 00c2 52       		pushl	%edx
 828              		.cfi_def_cfa_offset 128
 829 00c3 E8FCFFFF 		call	chThdCreateStatic@PLT
 829      FF
 830              	.LVL31:
GAS LISTING /tmp/ccZ945OD.s 			page 17


 831              		.loc 1 177 18 view .LVU182
 832 00c8 8D8B0000 		leal	.LC7@GOTOFF(%ebx), %ecx
 832      0000
 833              		.loc 1 176 16 view .LVU183
 834 00ce 894608   		movl	%eax, 8(%esi)
 835              		.loc 1 177 5 is_stmt 1 view .LVU184
 836              	.LBB242:
 837              	.LBI242:
 838              		.loc 2 540 23 view .LVU185
 839              	.LBB243:
 840              		.loc 2 542 3 view .LVU186
 841              	.LBB244:
 842              	.LBI244:
 843              		.loc 2 527 25 view .LVU187
 844              	.LBB245:
 845              		.loc 2 529 3 view .LVU188
 846              	.LBE245:
 847              	.LBE244:
 848              	.LBE243:
 849              	.LBE242:
 850              		.loc 1 177 38 is_stmt 0 view .LVU189
 851 00d1 8B44242C 		movl	44(%esp), %eax
 852              		.loc 1 177 18 view .LVU190
 853 00d5 83C414   		addl	$20, %esp
 854              		.cfi_def_cfa_offset 108
 855              		.loc 1 177 38 view .LVU191
 856 00d8 8B500C   		movl	12(%eax), %edx
 857              	.LBB247:
 858              	.LBB246:
 859              		.loc 2 542 37 view .LVU192
 860 00db 8B450C   		movl	12(%ebp), %eax
 861              	.LBE246:
 862              	.LBE247:
 863              		.loc 1 177 18 view .LVU193
 864 00de 894C2438 		movl	%ecx, 56(%esp)
 865 00e2 51       		pushl	%ecx
 866              		.cfi_def_cfa_offset 112
 867 00e3 57       		pushl	%edi
 868              		.cfi_def_cfa_offset 116
 869 00e4 8B4008   		movl	8(%eax), %eax
 870 00e7 83E802   		subl	$2, %eax
 871 00ea 50       		pushl	%eax
 872              		.cfi_def_cfa_offset 120
 873 00eb 68404100 		pushl	$16704
 873      00
 874              		.cfi_def_cfa_offset 124
 875 00f0 89542438 		movl	%edx, 56(%esp)
 876 00f4 52       		pushl	%edx
 877              		.cfi_def_cfa_offset 128
 878 00f5 E8FCFFFF 		call	chThdCreateStatic@PLT
 878      FF
 879              	.LVL32:
 880              		.loc 1 177 16 view .LVU194
 881 00fa 89460C   		movl	%eax, 12(%esi)
 882              		.loc 1 178 5 is_stmt 1 view .LVU195
 883              	.LBB248:
 884              	.LBI248:
GAS LISTING /tmp/ccZ945OD.s 			page 18


 885              		.loc 2 540 23 view .LVU196
 886              	.LBB249:
 887              		.loc 2 542 3 view .LVU197
 888              	.LBB250:
 889              	.LBI250:
 890              		.loc 2 527 25 view .LVU198
 891              	.LBB251:
 892              		.loc 2 529 3 view .LVU199
 893              	.LBE251:
 894              	.LBE250:
 895              	.LBE249:
 896              	.LBE248:
 897              		.loc 1 178 38 is_stmt 0 view .LVU200
 898 00fd 8B44242C 		movl	44(%esp), %eax
 899              		.loc 1 178 18 view .LVU201
 900 0101 83C414   		addl	$20, %esp
 901              		.cfi_def_cfa_offset 108
 902              		.loc 1 178 38 view .LVU202
 903 0104 8B5010   		movl	16(%eax), %edx
 904              		.loc 1 178 18 view .LVU203
 905 0107 8D830000 		leal	.LC8@GOTOFF(%ebx), %eax
 905      0000
 906 010d 8944243C 		movl	%eax, 60(%esp)
 907 0111 50       		pushl	%eax
 908              		.cfi_def_cfa_offset 112
 909              	.LBB253:
 910              	.LBB252:
 911              		.loc 2 542 37 view .LVU204
 912 0112 8B450C   		movl	12(%ebp), %eax
 913              	.LBE252:
 914              	.LBE253:
 915              		.loc 1 178 18 view .LVU205
 916 0115 57       		pushl	%edi
 917              		.cfi_def_cfa_offset 116
 918 0116 8B4008   		movl	8(%eax), %eax
 919 0119 83E801   		subl	$1, %eax
 920 011c 50       		pushl	%eax
 921              		.cfi_def_cfa_offset 120
 922 011d 68404100 		pushl	$16704
 922      00
 923              		.cfi_def_cfa_offset 124
 924 0122 89542428 		movl	%edx, 40(%esp)
 925 0126 52       		pushl	%edx
 926              		.cfi_def_cfa_offset 128
 927 0127 E8FCFFFF 		call	chThdCreateStatic@PLT
 927      FF
 928              	.LVL33:
 929              		.loc 1 179 5 view .LVU206
 930 012c 83C420   		addl	$32, %esp
 931              		.cfi_def_cfa_offset 96
 932              		.loc 1 178 16 view .LVU207
 933 012f 894610   		movl	%eax, 16(%esi)
 934              		.loc 1 179 5 is_stmt 1 view .LVU208
 935 0132 E8FCFFFF 		call	test_wait_threads@PLT
 935      FF
 936              	.LVL34:
 937              		.loc 1 180 5 view .LVU209
GAS LISTING /tmp/ccZ945OD.s 			page 19


 938 0137 83EC08   		subl	$8, %esp
 939              		.cfi_def_cfa_offset 104
 940 013a 8D830000 		leal	.LC9@GOTOFF(%ebx), %eax
 940      0000
 941 0140 8D930000 		leal	.LC10@GOTOFF(%ebx), %edx
 941      0000
 942 0146 8944243C 		movl	%eax, 60(%esp)
 943 014a 50       		pushl	%eax
 944              		.cfi_def_cfa_offset 108
 945 014b 89542444 		movl	%edx, 68(%esp)
 946 014f 52       		pushl	%edx
 947              		.cfi_def_cfa_offset 112
 948 0150 E8FCFFFF 		call	__test_assert_sequence@PLT
 948      FF
 949              	.LVL35:
 950 0155 83C410   		addl	$16, %esp
 951              		.cfi_def_cfa_offset 96
 952 0158 84C0     		testb	%al, %al
 953 015a 740C     		je	.L19
 954              	.L14:
 955              		.loc 1 211 1 is_stmt 0 view .LVU210
 956 015c 83C44C   		addl	$76, %esp
 957              		.cfi_remember_state
 958              		.cfi_def_cfa_offset 20
 959 015f 5B       		popl	%ebx
 960              		.cfi_restore 3
 961              		.cfi_def_cfa_offset 16
 962 0160 5E       		popl	%esi
 963              		.cfi_restore 6
 964              		.cfi_def_cfa_offset 12
 965 0161 5F       		popl	%edi
 966              		.cfi_restore 7
 967              		.cfi_def_cfa_offset 8
 968 0162 5D       		popl	%ebp
 969              		.cfi_restore 5
 970              		.cfi_def_cfa_offset 4
 971 0163 C3       		ret
 972              		.p2align 4,,10
 973 0164 8D742600 		.p2align 3
 974              	.L19:
 975              		.cfi_restore_state
 976              		.loc 1 180 54 is_stmt 1 discriminator 2 view .LVU211
 977              		.loc 1 182 3 discriminator 2 view .LVU212
 978              		.loc 1 182 19 discriminator 2 view .LVU213
 979              		.loc 1 186 3 discriminator 2 view .LVU214
 980 0168 8B44243C 		movl	60(%esp), %eax
 981              		.loc 1 188 18 is_stmt 0 discriminator 2 view .LVU215
 982 016c 83EC0C   		subl	$12, %esp
 983              		.cfi_def_cfa_offset 108
 984              		.loc 1 186 3 discriminator 2 view .LVU216
 985 016f C7000200 		movl	$2, (%eax)
 985      0000
 986              		.loc 1 188 5 is_stmt 1 discriminator 2 view .LVU217
 987              	.LBB254:
 988              	.LBI254:
 989              		.loc 2 540 23 discriminator 2 view .LVU218
 990              	.LBB255:
GAS LISTING /tmp/ccZ945OD.s 			page 20


 991              		.loc 2 542 3 discriminator 2 view .LVU219
 992              	.LBB256:
 993              	.LBI256:
 994              		.loc 2 527 25 discriminator 2 view .LVU220
 995              	.LBB257:
 996              		.loc 2 529 3 discriminator 2 view .LVU221
 997              	.LBE257:
 998              	.LBE256:
 999              		.loc 2 542 37 is_stmt 0 discriminator 2 view .LVU222
 1000 0175 8B450C   		movl	12(%ebp), %eax
 1001              	.LBE255:
 1002              	.LBE254:
 1003              		.loc 1 188 18 discriminator 2 view .LVU223
 1004 0178 FF74243C 		pushl	60(%esp)
 1005              		.cfi_def_cfa_offset 112
 1006 017c 57       		pushl	%edi
 1007              		.cfi_def_cfa_offset 116
 1008 017d 8B4008   		movl	8(%eax), %eax
 1009 0180 83E801   		subl	$1, %eax
 1010 0183 50       		pushl	%eax
 1011              		.cfi_def_cfa_offset 120
 1012 0184 68404100 		pushl	$16704
 1012      00
 1013              		.cfi_def_cfa_offset 124
 1014 0189 FF742428 		pushl	40(%esp)
 1015              		.cfi_def_cfa_offset 128
 1016 018d E8FCFFFF 		call	chThdCreateStatic@PLT
 1016      FF
 1017              	.LVL36:
 1018              		.loc 1 189 18 discriminator 2 view .LVU224
 1019 0192 83C414   		addl	$20, %esp
 1020              		.cfi_def_cfa_offset 108
 1021              		.loc 1 188 16 discriminator 2 view .LVU225
 1022 0195 894610   		movl	%eax, 16(%esi)
 1023              		.loc 1 189 5 is_stmt 1 discriminator 2 view .LVU226
 1024              	.LBB258:
 1025              	.LBI258:
 1026              		.loc 2 540 23 discriminator 2 view .LVU227
 1027              	.LBB259:
 1028              		.loc 2 542 3 discriminator 2 view .LVU228
 1029              	.LBB260:
 1030              	.LBI260:
 1031              		.loc 2 527 25 discriminator 2 view .LVU229
 1032              	.LBB261:
 1033              		.loc 2 529 3 discriminator 2 view .LVU230
 1034              	.LBE261:
 1035              	.LBE260:
 1036              		.loc 2 542 37 is_stmt 0 discriminator 2 view .LVU231
 1037 0198 8B450C   		movl	12(%ebp), %eax
 1038              	.LBE259:
 1039              	.LBE258:
 1040              		.loc 1 189 18 discriminator 2 view .LVU232
 1041 019b FF742438 		pushl	56(%esp)
 1042              		.cfi_def_cfa_offset 112
 1043 019f 57       		pushl	%edi
 1044              		.cfi_def_cfa_offset 116
 1045 01a0 8B4008   		movl	8(%eax), %eax
GAS LISTING /tmp/ccZ945OD.s 			page 21


 1046 01a3 83E802   		subl	$2, %eax
 1047 01a6 50       		pushl	%eax
 1048              		.cfi_def_cfa_offset 120
 1049 01a7 68404100 		pushl	$16704
 1049      00
 1050              		.cfi_def_cfa_offset 124
 1051 01ac FF742438 		pushl	56(%esp)
 1052              		.cfi_def_cfa_offset 128
 1053 01b0 E8FCFFFF 		call	chThdCreateStatic@PLT
 1053      FF
 1054              	.LVL37:
 1055              		.loc 1 190 18 discriminator 2 view .LVU233
 1056 01b5 83C414   		addl	$20, %esp
 1057              		.cfi_def_cfa_offset 108
 1058              		.loc 1 189 16 discriminator 2 view .LVU234
 1059 01b8 89460C   		movl	%eax, 12(%esi)
 1060              		.loc 1 190 5 is_stmt 1 discriminator 2 view .LVU235
 1061              	.LBB262:
 1062              	.LBI262:
 1063              		.loc 2 540 23 discriminator 2 view .LVU236
 1064              	.LBB263:
 1065              		.loc 2 542 3 discriminator 2 view .LVU237
 1066              	.LBB264:
 1067              	.LBI264:
 1068              		.loc 2 527 25 discriminator 2 view .LVU238
 1069              	.LBB265:
 1070              		.loc 2 529 3 discriminator 2 view .LVU239
 1071              	.LBE265:
 1072              	.LBE264:
 1073              		.loc 2 542 37 is_stmt 0 discriminator 2 view .LVU240
 1074 01bb 8B450C   		movl	12(%ebp), %eax
 1075              	.LBE263:
 1076              	.LBE262:
 1077              		.loc 1 190 18 discriminator 2 view .LVU241
 1078 01be FF742434 		pushl	52(%esp)
 1079              		.cfi_def_cfa_offset 112
 1080 01c2 57       		pushl	%edi
 1081              		.cfi_def_cfa_offset 116
 1082 01c3 8B4008   		movl	8(%eax), %eax
 1083 01c6 83E803   		subl	$3, %eax
 1084 01c9 50       		pushl	%eax
 1085              		.cfi_def_cfa_offset 120
 1086 01ca 68404100 		pushl	$16704
 1086      00
 1087              		.cfi_def_cfa_offset 124
 1088 01cf FF742434 		pushl	52(%esp)
 1089              		.cfi_def_cfa_offset 128
 1090 01d3 E8FCFFFF 		call	chThdCreateStatic@PLT
 1090      FF
 1091              	.LVL38:
 1092              		.loc 1 191 18 discriminator 2 view .LVU242
 1093 01d8 83C414   		addl	$20, %esp
 1094              		.cfi_def_cfa_offset 108
 1095              		.loc 1 190 16 discriminator 2 view .LVU243
 1096 01db 894608   		movl	%eax, 8(%esi)
 1097              		.loc 1 191 5 is_stmt 1 discriminator 2 view .LVU244
 1098              	.LBB266:
GAS LISTING /tmp/ccZ945OD.s 			page 22


 1099              	.LBI266:
 1100              		.loc 2 540 23 discriminator 2 view .LVU245
 1101              	.LBB267:
 1102              		.loc 2 542 3 discriminator 2 view .LVU246
 1103              	.LBB268:
 1104              	.LBI268:
 1105              		.loc 2 527 25 discriminator 2 view .LVU247
 1106              	.LBB269:
 1107              		.loc 2 529 3 discriminator 2 view .LVU248
 1108              	.LBE269:
 1109              	.LBE268:
 1110              		.loc 2 542 37 is_stmt 0 discriminator 2 view .LVU249
 1111 01de 8B450C   		movl	12(%ebp), %eax
 1112              	.LBE267:
 1113              	.LBE266:
 1114              		.loc 1 191 18 discriminator 2 view .LVU250
 1115 01e1 FF742430 		pushl	48(%esp)
 1116              		.cfi_def_cfa_offset 112
 1117 01e5 57       		pushl	%edi
 1118              		.cfi_def_cfa_offset 116
 1119 01e6 8B4008   		movl	8(%eax), %eax
 1120 01e9 83E804   		subl	$4, %eax
 1121 01ec 50       		pushl	%eax
 1122              		.cfi_def_cfa_offset 120
 1123 01ed 68404100 		pushl	$16704
 1123      00
 1124              		.cfi_def_cfa_offset 124
 1125 01f2 FF742430 		pushl	48(%esp)
 1126              		.cfi_def_cfa_offset 128
 1127 01f6 E8FCFFFF 		call	chThdCreateStatic@PLT
 1127      FF
 1128              	.LVL39:
 1129              		.loc 1 192 18 discriminator 2 view .LVU251
 1130 01fb 83C414   		addl	$20, %esp
 1131              		.cfi_def_cfa_offset 108
 1132              		.loc 1 191 16 discriminator 2 view .LVU252
 1133 01fe 894604   		movl	%eax, 4(%esi)
 1134              		.loc 1 192 5 is_stmt 1 discriminator 2 view .LVU253
 1135              	.LBB270:
 1136              	.LBI270:
 1137              		.loc 2 540 23 discriminator 2 view .LVU254
 1138              	.LBB271:
 1139              		.loc 2 542 3 discriminator 2 view .LVU255
 1140              	.LBB272:
 1141              	.LBI272:
 1142              		.loc 2 527 25 discriminator 2 view .LVU256
 1143              	.LBB273:
 1144              		.loc 2 529 3 discriminator 2 view .LVU257
 1145              	.LBE273:
 1146              	.LBE272:
 1147              		.loc 2 542 37 is_stmt 0 discriminator 2 view .LVU258
 1148 0201 8B450C   		movl	12(%ebp), %eax
 1149              	.LBE271:
 1150              	.LBE270:
 1151              		.loc 1 192 18 discriminator 2 view .LVU259
 1152 0204 FF74242C 		pushl	44(%esp)
 1153              		.cfi_def_cfa_offset 112
GAS LISTING /tmp/ccZ945OD.s 			page 23


 1154 0208 57       		pushl	%edi
 1155              		.cfi_def_cfa_offset 116
 1156 0209 8B4008   		movl	8(%eax), %eax
 1157 020c 83E805   		subl	$5, %eax
 1158 020f 50       		pushl	%eax
 1159              		.cfi_def_cfa_offset 120
 1160 0210 68404100 		pushl	$16704
 1160      00
 1161              		.cfi_def_cfa_offset 124
 1162 0215 FF74242C 		pushl	44(%esp)
 1163              		.cfi_def_cfa_offset 128
 1164 0219 E8FCFFFF 		call	chThdCreateStatic@PLT
 1164      FF
 1165              	.LVL40:
 1166              		.loc 1 193 5 discriminator 2 view .LVU260
 1167 021e 83C420   		addl	$32, %esp
 1168              		.cfi_def_cfa_offset 96
 1169              		.loc 1 192 16 discriminator 2 view .LVU261
 1170 0221 8906     		movl	%eax, (%esi)
 1171              		.loc 1 193 5 is_stmt 1 discriminator 2 view .LVU262
 1172 0223 E8FCFFFF 		call	test_wait_threads@PLT
 1172      FF
 1173              	.LVL41:
 1174              		.loc 1 194 5 discriminator 2 view .LVU263
 1175 0228 83EC08   		subl	$8, %esp
 1176              		.cfi_def_cfa_offset 104
 1177 022b FF74243C 		pushl	60(%esp)
 1178              		.cfi_def_cfa_offset 108
 1179 022f FF742444 		pushl	68(%esp)
 1180              		.cfi_def_cfa_offset 112
 1181 0233 E8FCFFFF 		call	__test_assert_sequence@PLT
 1181      FF
 1182              	.LVL42:
 1183 0238 83C410   		addl	$16, %esp
 1184              		.cfi_def_cfa_offset 96
 1185 023b 84C0     		testb	%al, %al
 1186 023d 0F8519FF 		jne	.L14
 1186      FFFF
 1187              		.loc 1 194 54 discriminator 2 view .LVU264
 1188              		.loc 1 196 3 discriminator 2 view .LVU265
 1189              		.loc 1 196 19 discriminator 2 view .LVU266
 1190              		.loc 1 200 3 discriminator 2 view .LVU267
 1191 0243 8B44243C 		movl	60(%esp), %eax
 1192              		.loc 1 202 18 is_stmt 0 discriminator 2 view .LVU268
 1193 0247 83EC0C   		subl	$12, %esp
 1194              		.cfi_def_cfa_offset 108
 1195              		.loc 1 200 3 discriminator 2 view .LVU269
 1196 024a C7000300 		movl	$3, (%eax)
 1196      0000
 1197              		.loc 1 202 5 is_stmt 1 discriminator 2 view .LVU270
 1198              	.LBB274:
 1199              	.LBI274:
 1200              		.loc 2 540 23 discriminator 2 view .LVU271
 1201              	.LBB275:
 1202              		.loc 2 542 3 discriminator 2 view .LVU272
 1203              	.LBB276:
 1204              	.LBI276:
GAS LISTING /tmp/ccZ945OD.s 			page 24


 1205              		.loc 2 527 25 discriminator 2 view .LVU273
 1206              	.LBB277:
 1207              		.loc 2 529 3 discriminator 2 view .LVU274
 1208              	.LBE277:
 1209              	.LBE276:
 1210              		.loc 2 542 37 is_stmt 0 discriminator 2 view .LVU275
 1211 0250 8B450C   		movl	12(%ebp), %eax
 1212              	.LBE275:
 1213              	.LBE274:
 1214              		.loc 1 202 18 discriminator 2 view .LVU276
 1215 0253 FF742430 		pushl	48(%esp)
 1216              		.cfi_def_cfa_offset 112
 1217 0257 57       		pushl	%edi
 1218              		.cfi_def_cfa_offset 116
 1219 0258 8B4008   		movl	8(%eax), %eax
 1220 025b 83E804   		subl	$4, %eax
 1221 025e 50       		pushl	%eax
 1222              		.cfi_def_cfa_offset 120
 1223 025f 68404100 		pushl	$16704
 1223      00
 1224              		.cfi_def_cfa_offset 124
 1225 0264 FF742430 		pushl	48(%esp)
 1226              		.cfi_def_cfa_offset 128
 1227 0268 E8FCFFFF 		call	chThdCreateStatic@PLT
 1227      FF
 1228              	.LVL43:
 1229              		.loc 1 203 18 discriminator 2 view .LVU277
 1230 026d 83C414   		addl	$20, %esp
 1231              		.cfi_def_cfa_offset 108
 1232              		.loc 1 202 16 discriminator 2 view .LVU278
 1233 0270 894604   		movl	%eax, 4(%esi)
 1234              		.loc 1 203 5 is_stmt 1 discriminator 2 view .LVU279
 1235              	.LBB278:
 1236              	.LBI278:
 1237              		.loc 2 540 23 discriminator 2 view .LVU280
 1238              	.LBB279:
 1239              		.loc 2 542 3 discriminator 2 view .LVU281
 1240              	.LBB280:
 1241              	.LBI280:
 1242              		.loc 2 527 25 discriminator 2 view .LVU282
 1243              	.LBB281:
 1244              		.loc 2 529 3 discriminator 2 view .LVU283
 1245              	.LBE281:
 1246              	.LBE280:
 1247              		.loc 2 542 37 is_stmt 0 discriminator 2 view .LVU284
 1248 0273 8B450C   		movl	12(%ebp), %eax
 1249              	.LBE279:
 1250              	.LBE278:
 1251              		.loc 1 203 18 discriminator 2 view .LVU285
 1252 0276 FF74242C 		pushl	44(%esp)
 1253              		.cfi_def_cfa_offset 112
 1254 027a 57       		pushl	%edi
 1255              		.cfi_def_cfa_offset 116
 1256 027b 8B4008   		movl	8(%eax), %eax
 1257 027e 83E805   		subl	$5, %eax
 1258 0281 50       		pushl	%eax
 1259              		.cfi_def_cfa_offset 120
GAS LISTING /tmp/ccZ945OD.s 			page 25


 1260 0282 68404100 		pushl	$16704
 1260      00
 1261              		.cfi_def_cfa_offset 124
 1262 0287 FF74242C 		pushl	44(%esp)
 1263              		.cfi_def_cfa_offset 128
 1264 028b E8FCFFFF 		call	chThdCreateStatic@PLT
 1264      FF
 1265              	.LVL44:
 1266              		.loc 1 204 18 discriminator 2 view .LVU286
 1267 0290 83C414   		addl	$20, %esp
 1268              		.cfi_def_cfa_offset 108
 1269              		.loc 1 203 16 discriminator 2 view .LVU287
 1270 0293 8906     		movl	%eax, (%esi)
 1271              		.loc 1 204 5 is_stmt 1 discriminator 2 view .LVU288
 1272              	.LBB282:
 1273              	.LBI282:
 1274              		.loc 2 540 23 discriminator 2 view .LVU289
 1275              	.LBB283:
 1276              		.loc 2 542 3 discriminator 2 view .LVU290
 1277              	.LBB284:
 1278              	.LBI284:
 1279              		.loc 2 527 25 discriminator 2 view .LVU291
 1280              	.LBB285:
 1281              		.loc 2 529 3 discriminator 2 view .LVU292
 1282              	.LBE285:
 1283              	.LBE284:
 1284              		.loc 2 542 37 is_stmt 0 discriminator 2 view .LVU293
 1285 0295 8B450C   		movl	12(%ebp), %eax
 1286              	.LBE283:
 1287              	.LBE282:
 1288              		.loc 1 204 18 discriminator 2 view .LVU294
 1289 0298 FF74243C 		pushl	60(%esp)
 1290              		.cfi_def_cfa_offset 112
 1291 029c 57       		pushl	%edi
 1292              		.cfi_def_cfa_offset 116
 1293 029d 8B4008   		movl	8(%eax), %eax
 1294 02a0 83E801   		subl	$1, %eax
 1295 02a3 50       		pushl	%eax
 1296              		.cfi_def_cfa_offset 120
 1297 02a4 68404100 		pushl	$16704
 1297      00
 1298              		.cfi_def_cfa_offset 124
 1299 02a9 FF742428 		pushl	40(%esp)
 1300              		.cfi_def_cfa_offset 128
 1301 02ad E8FCFFFF 		call	chThdCreateStatic@PLT
 1301      FF
 1302              	.LVL45:
 1303              		.loc 1 205 18 discriminator 2 view .LVU295
 1304 02b2 83C414   		addl	$20, %esp
 1305              		.cfi_def_cfa_offset 108
 1306              		.loc 1 204 16 discriminator 2 view .LVU296
 1307 02b5 894610   		movl	%eax, 16(%esi)
 1308              		.loc 1 205 5 is_stmt 1 discriminator 2 view .LVU297
 1309              	.LBB286:
 1310              	.LBI286:
 1311              		.loc 2 540 23 discriminator 2 view .LVU298
 1312              	.LBB287:
GAS LISTING /tmp/ccZ945OD.s 			page 26


 1313              		.loc 2 542 3 discriminator 2 view .LVU299
 1314              	.LBB288:
 1315              	.LBI288:
 1316              		.loc 2 527 25 discriminator 2 view .LVU300
 1317              	.LBB289:
 1318              		.loc 2 529 3 discriminator 2 view .LVU301
 1319              	.LBE289:
 1320              	.LBE288:
 1321              		.loc 2 542 37 is_stmt 0 discriminator 2 view .LVU302
 1322 02b8 8B450C   		movl	12(%ebp), %eax
 1323              	.LBE287:
 1324              	.LBE286:
 1325              		.loc 1 205 18 discriminator 2 view .LVU303
 1326 02bb FF742438 		pushl	56(%esp)
 1327              		.cfi_def_cfa_offset 112
 1328 02bf 57       		pushl	%edi
 1329              		.cfi_def_cfa_offset 116
 1330 02c0 8B4008   		movl	8(%eax), %eax
 1331 02c3 83E802   		subl	$2, %eax
 1332 02c6 50       		pushl	%eax
 1333              		.cfi_def_cfa_offset 120
 1334 02c7 68404100 		pushl	$16704
 1334      00
 1335              		.cfi_def_cfa_offset 124
 1336 02cc FF742438 		pushl	56(%esp)
 1337              		.cfi_def_cfa_offset 128
 1338 02d0 E8FCFFFF 		call	chThdCreateStatic@PLT
 1338      FF
 1339              	.LVL46:
 1340              		.loc 1 206 18 discriminator 2 view .LVU304
 1341 02d5 83C414   		addl	$20, %esp
 1342              		.cfi_def_cfa_offset 108
 1343              		.loc 1 205 16 discriminator 2 view .LVU305
 1344 02d8 89460C   		movl	%eax, 12(%esi)
 1345              		.loc 1 206 5 is_stmt 1 discriminator 2 view .LVU306
 1346              	.LBB290:
 1347              	.LBI290:
 1348              		.loc 2 540 23 discriminator 2 view .LVU307
 1349              	.LBB291:
 1350              		.loc 2 542 3 discriminator 2 view .LVU308
 1351              	.LBB292:
 1352              	.LBI292:
 1353              		.loc 2 527 25 discriminator 2 view .LVU309
 1354              	.LBB293:
 1355              		.loc 2 529 3 discriminator 2 view .LVU310
 1356              	.LBE293:
 1357              	.LBE292:
 1358              		.loc 2 542 37 is_stmt 0 discriminator 2 view .LVU311
 1359 02db 8B450C   		movl	12(%ebp), %eax
 1360              	.LBE291:
 1361              	.LBE290:
 1362              		.loc 1 206 18 discriminator 2 view .LVU312
 1363 02de FF742434 		pushl	52(%esp)
 1364              		.cfi_def_cfa_offset 112
 1365 02e2 57       		pushl	%edi
 1366              		.cfi_def_cfa_offset 116
 1367 02e3 8B4008   		movl	8(%eax), %eax
GAS LISTING /tmp/ccZ945OD.s 			page 27


 1368 02e6 83E803   		subl	$3, %eax
 1369 02e9 50       		pushl	%eax
 1370              		.cfi_def_cfa_offset 120
 1371 02ea 68404100 		pushl	$16704
 1371      00
 1372              		.cfi_def_cfa_offset 124
 1373 02ef FF742434 		pushl	52(%esp)
 1374              		.cfi_def_cfa_offset 128
 1375 02f3 E8FCFFFF 		call	chThdCreateStatic@PLT
 1375      FF
 1376              	.LVL47:
 1377              		.loc 1 207 5 discriminator 2 view .LVU313
 1378 02f8 83C420   		addl	$32, %esp
 1379              		.cfi_def_cfa_offset 96
 1380              		.loc 1 206 16 discriminator 2 view .LVU314
 1381 02fb 894608   		movl	%eax, 8(%esi)
 1382              		.loc 1 207 5 is_stmt 1 discriminator 2 view .LVU315
 1383 02fe E8FCFFFF 		call	test_wait_threads@PLT
 1383      FF
 1384              	.LVL48:
 1385              		.loc 1 208 5 discriminator 2 view .LVU316
 1386 0303 83EC08   		subl	$8, %esp
 1387              		.cfi_def_cfa_offset 104
 1388 0306 FF74243C 		pushl	60(%esp)
 1389              		.cfi_def_cfa_offset 108
 1390 030a FF742444 		pushl	68(%esp)
 1391              		.cfi_def_cfa_offset 112
 1392 030e E8FCFFFF 		call	__test_assert_sequence@PLT
 1392      FF
 1393              	.LVL49:
 1394 0313 83C410   		addl	$16, %esp
 1395              		.cfi_def_cfa_offset 96
 1396              		.loc 1 208 54 discriminator 2 view .LVU317
 1397              		.loc 1 210 3 discriminator 2 view .LVU318
 1398              		.loc 1 210 19 discriminator 2 view .LVU319
 1399              		.loc 1 211 1 is_stmt 0 discriminator 2 view .LVU320
 1400 0316 83C44C   		addl	$76, %esp
 1401              		.cfi_def_cfa_offset 20
 1402 0319 5B       		popl	%ebx
 1403              		.cfi_restore 3
 1404              		.cfi_def_cfa_offset 16
 1405 031a 5E       		popl	%esi
 1406              		.cfi_restore 6
 1407              		.cfi_def_cfa_offset 12
 1408 031b 5F       		popl	%edi
 1409              		.cfi_restore 7
 1410              		.cfi_def_cfa_offset 8
 1411 031c 5D       		popl	%ebp
 1412              		.cfi_restore 5
 1413              		.cfi_def_cfa_offset 4
 1414 031d C3       		ret
 1415              		.cfi_endproc
 1416              	.LFE305:
 1417              		.size	rt_test_005_002_execute, .-rt_test_005_002_execute
 1418              		.section	.text.thread,"ax",@progbits
 1419              		.p2align 4
 1420              		.type	thread, @function
GAS LISTING /tmp/ccZ945OD.s 			page 28


 1421              	thread:
 1422              	.LVL50:
 1423              	.LFB303:
 1424              		.loc 1 44 32 is_stmt 1 view -0
 1425              		.cfi_startproc
 1426              		.loc 1 46 3 view .LVU322
 1427              		.loc 1 44 32 is_stmt 0 view .LVU323
 1428 0000 53       		pushl	%ebx
 1429              		.cfi_def_cfa_offset 8
 1430              		.cfi_offset 3, -8
 1431 0001 E8FCFFFF 		call	__x86.get_pc_thunk.bx
 1431      FF
 1432 0006 81C30200 		addl	$_GLOBAL_OFFSET_TABLE_, %ebx
 1432      0000
 1433 000c 83EC14   		subl	$20, %esp
 1434              		.cfi_def_cfa_offset 28
 1435              		.loc 1 46 3 view .LVU324
 1436 000f 8B44241C 		movl	28(%esp), %eax
 1437 0013 0FBE00   		movsbl	(%eax), %eax
 1438 0016 50       		pushl	%eax
 1439              		.cfi_def_cfa_offset 32
 1440 0017 E8FCFFFF 		call	test_emit_token@PLT
 1440      FF
 1441              	.LVL51:
 1442              		.loc 1 47 1 view .LVU325
 1443 001c 83C418   		addl	$24, %esp
 1444              		.cfi_def_cfa_offset 8
 1445 001f 5B       		popl	%ebx
 1446              		.cfi_restore 3
 1447              		.cfi_def_cfa_offset 4
 1448 0020 C3       		ret
 1449              		.cfi_endproc
 1450              	.LFE303:
 1451              		.size	thread, .-thread
 1452              		.section	.rodata.rt_test_005_001_execute.str1.1,"aMS",@progbits,1
 1453              	.LC11:
 1454 0000 6F757420 		.string	"out of time window"
 1454      6F662074 
 1454      696D6520 
 1454      77696E64 
 1454      6F7700
 1455              		.section	.text.rt_test_005_001_execute,"ax",@progbits
 1456              		.p2align 4
 1457              		.type	rt_test_005_001_execute, @function
 1458              	rt_test_005_001_execute:
 1459              	.LFB304:
 1460              		.loc 1 76 43 is_stmt 1 view -0
 1461              		.cfi_startproc
 1462              		.loc 1 77 3 view .LVU327
 1463              		.loc 1 82 3 view .LVU328
 1464              		.loc 1 76 43 is_stmt 0 view .LVU329
 1465 0000 55       		pushl	%ebp
 1466              		.cfi_def_cfa_offset 8
 1467              		.cfi_offset 5, -8
 1468 0001 57       		pushl	%edi
 1469              		.cfi_def_cfa_offset 12
 1470              		.cfi_offset 7, -12
GAS LISTING /tmp/ccZ945OD.s 			page 29


 1471 0002 56       		pushl	%esi
 1472              		.cfi_def_cfa_offset 16
 1473              		.cfi_offset 6, -16
 1474 0003 53       		pushl	%ebx
 1475              		.cfi_def_cfa_offset 20
 1476              		.cfi_offset 3, -20
 1477 0004 E8FCFFFF 		call	__x86.get_pc_thunk.bx
 1477      FF
 1478 0009 81C30200 		addl	$_GLOBAL_OFFSET_TABLE_, %ebx
 1478      0000
 1479 000f 83EC28   		subl	$40, %esp
 1480              		.cfi_def_cfa_offset 60
 1481              	.LBB334:
 1482              	.LBB335:
 1483              		.file 5 "../../../os/rt/include/chvt.h"
 1484              		.loc 5 138 26 view .LVU330
 1485 0012 8BBB0000 		movl	ch0@GOT(%ebx), %edi
 1485      0000
 1486              	.LBE335:
 1487              	.LBE334:
 1488              		.loc 1 82 3 view .LVU331
 1489 0018 8BAB0000 		movl	chtest@GOT(%ebx), %ebp
 1489      0000
 1490              		.loc 1 86 5 view .LVU332
 1491 001e 8DB30000 		leal	.LC11@GOTOFF(%ebx), %esi
 1491      0000
 1492              	.LBB338:
 1493              	.LBB336:
 1494              		.loc 5 138 26 view .LVU333
 1495 0024 8B471C   		movl	28(%edi), %eax
 1496              	.LBE336:
 1497              	.LBE338:
 1498              		.loc 1 82 3 view .LVU334
 1499 0027 C7450001 		movl	$1, 0(%ebp)
 1499      000000
 1500              		.loc 1 84 5 is_stmt 1 view .LVU335
 1501              	.LBB339:
 1502              	.LBI334:
 1503              		.loc 5 135 25 view .LVU336
 1504              	.LBB337:
 1505              		.loc 5 138 3 view .LVU337
 1506              		.loc 5 138 26 is_stmt 0 view .LVU338
 1507 002e 89442418 		movl	%eax, 24(%esp)
 1508              	.LVL52:
 1509              		.loc 5 138 26 view .LVU339
 1510              	.LBE337:
 1511              	.LBE339:
 1512              		.loc 1 85 5 is_stmt 1 view .LVU340
 1513 0032 6A64     		pushl	$100
 1514              		.cfi_def_cfa_offset 64
 1515 0034 E8FCFFFF 		call	chThdSleep@PLT
 1515      FF
 1516              	.LVL53:
 1517              		.loc 1 86 5 view .LVU341
 1518              	.LBB340:
 1519              	.LBI340:
 1520              		.file 6 "../../../os/rt/include/chtime.h"
GAS LISTING /tmp/ccZ945OD.s 			page 30


 1521              		.loc 6 442 25 view .LVU342
 1522              	.LBB341:
 1523              		.loc 6 449 3 view .LVU343
 1524              		.loc 6 449 3 is_stmt 0 view .LVU344
 1525              	.LBE341:
 1526              	.LBE340:
 1527              	.LBB343:
 1528              	.LBI343:
 1529              		.loc 6 442 25 is_stmt 1 view .LVU345
 1530              	.LBB344:
 1531              		.loc 6 449 3 view .LVU346
 1532              		.loc 6 449 3 is_stmt 0 view .LVU347
 1533              	.LBE344:
 1534              	.LBE343:
 1535              		.loc 1 86 5 view .LVU348
 1536 0039 83C40C   		addl	$12, %esp
 1537              		.cfi_def_cfa_offset 52
 1538 003c 56       		pushl	%esi
 1539              		.cfi_def_cfa_offset 56
 1540              	.LBB346:
 1541              	.LBB342:
 1542              		.loc 6 449 18 view .LVU349
 1543 003d 8B442414 		movl	20(%esp), %eax
 1544 0041 8D5065   		leal	101(%eax), %edx
 1545              	.LBE342:
 1546              	.LBE346:
 1547              	.LBB347:
 1548              	.LBB345:
 1549 0044 83C064   		addl	$100, %eax
 1550              	.LBE345:
 1551              	.LBE347:
 1552              		.loc 1 86 5 view .LVU350
 1553 0047 52       		pushl	%edx
 1554              		.cfi_def_cfa_offset 60
 1555 0048 50       		pushl	%eax
 1556              		.cfi_def_cfa_offset 64
 1557 0049 E8FCFFFF 		call	__test_assert_time_window@PLT
 1557      FF
 1558              	.LVL54:
 1559 004e 83C410   		addl	$16, %esp
 1560              		.cfi_def_cfa_offset 48
 1561 0051 84C0     		testb	%al, %al
 1562 0053 740B     		je	.L27
 1563              	.LVL55:
 1564              	.L22:
 1565              		.loc 1 141 1 view .LVU351
 1566 0055 83C41C   		addl	$28, %esp
 1567              		.cfi_remember_state
 1568              		.cfi_def_cfa_offset 20
 1569 0058 5B       		popl	%ebx
 1570              		.cfi_restore 3
 1571              		.cfi_def_cfa_offset 16
 1572 0059 5E       		popl	%esi
 1573              		.cfi_restore 6
 1574              		.cfi_def_cfa_offset 12
 1575 005a 5F       		popl	%edi
 1576              		.cfi_restore 7
GAS LISTING /tmp/ccZ945OD.s 			page 31


 1577              		.cfi_def_cfa_offset 8
 1578 005b 5D       		popl	%ebp
 1579              		.cfi_restore 5
 1580              		.cfi_def_cfa_offset 4
 1581 005c C3       		ret
 1582              	.LVL56:
 1583 005d 8D7600   		.p2align 4,,10
 1584              		.p2align 3
 1585              	.L27:
 1586              		.cfi_restore_state
 1587              	.LBB348:
 1588              	.LBI348:
 1589              		.loc 1 76 13 is_stmt 1 view .LVU352
 1590              	.LBB349:
 1591              		.loc 1 88 50 view .LVU353
 1592              		.loc 1 90 3 view .LVU354
 1593              		.loc 1 90 19 view .LVU355
 1594              		.loc 1 95 3 view .LVU356
 1595              	.LBB350:
 1596              	.LBB351:
 1597              		.loc 5 138 26 is_stmt 0 view .LVU357
 1598 0060 8B471C   		movl	28(%edi), %eax
 1599              	.LBE351:
 1600              	.LBE350:
 1601              		.loc 1 98 5 view .LVU358
 1602 0063 83EC0C   		subl	$12, %esp
 1603              		.cfi_def_cfa_offset 60
 1604              		.loc 1 95 3 view .LVU359
 1605 0066 C7450002 		movl	$2, 0(%ebp)
 1605      000000
 1606              		.loc 1 97 5 is_stmt 1 view .LVU360
 1607              	.LBB353:
 1608              	.LBI350:
 1609              		.loc 5 135 25 view .LVU361
 1610              	.LBB352:
 1611              		.loc 5 138 3 view .LVU362
 1612              		.loc 5 138 26 is_stmt 0 view .LVU363
 1613 006d 89442418 		movl	%eax, 24(%esp)
 1614              	.LVL57:
 1615              		.loc 5 138 26 view .LVU364
 1616              	.LBE352:
 1617              	.LBE353:
 1618              		.loc 1 98 5 is_stmt 1 view .LVU365
 1619 0071 6A64     		pushl	$100
 1620              		.cfi_def_cfa_offset 64
 1621 0073 E8FCFFFF 		call	chThdSleep@PLT
 1621      FF
 1622              	.LVL58:
 1623              		.loc 1 99 5 view .LVU366
 1624              	.LBB354:
 1625              	.LBI354:
 1626              		.loc 6 442 25 view .LVU367
 1627              	.LBB355:
 1628              		.loc 6 449 3 view .LVU368
 1629              		.loc 6 449 3 is_stmt 0 view .LVU369
 1630              	.LBE355:
 1631              	.LBE354:
GAS LISTING /tmp/ccZ945OD.s 			page 32


 1632              	.LBB357:
 1633              	.LBI357:
 1634              		.loc 6 442 25 is_stmt 1 view .LVU370
 1635              	.LBB358:
 1636              		.loc 6 449 3 view .LVU371
 1637              		.loc 6 449 3 is_stmt 0 view .LVU372
 1638              	.LBE358:
 1639              	.LBE357:
 1640              		.loc 1 99 5 view .LVU373
 1641 0078 83C40C   		addl	$12, %esp
 1642              		.cfi_def_cfa_offset 52
 1643 007b 56       		pushl	%esi
 1644              		.cfi_def_cfa_offset 56
 1645              	.LBB360:
 1646              	.LBB356:
 1647              		.loc 6 449 18 view .LVU374
 1648 007c 8B442414 		movl	20(%esp), %eax
 1649 0080 8D5065   		leal	101(%eax), %edx
 1650              	.LBE356:
 1651              	.LBE360:
 1652              	.LBB361:
 1653              	.LBB359:
 1654 0083 83C064   		addl	$100, %eax
 1655              	.LBE359:
 1656              	.LBE361:
 1657              		.loc 1 99 5 view .LVU375
 1658 0086 52       		pushl	%edx
 1659              		.cfi_def_cfa_offset 60
 1660 0087 50       		pushl	%eax
 1661              		.cfi_def_cfa_offset 64
 1662 0088 E8FCFFFF 		call	__test_assert_time_window@PLT
 1662      FF
 1663              	.LVL59:
 1664 008d 83C410   		addl	$16, %esp
 1665              		.cfi_def_cfa_offset 48
 1666 0090 84C0     		testb	%al, %al
 1667 0092 75C1     		jne	.L22
 1668              		.loc 1 101 50 is_stmt 1 view .LVU376
 1669              		.loc 1 103 3 view .LVU377
 1670              		.loc 1 103 19 view .LVU378
 1671              		.loc 1 108 3 view .LVU379
 1672              	.LBB362:
 1673              	.LBB363:
 1674              		.loc 5 138 26 is_stmt 0 view .LVU380
 1675 0094 8B471C   		movl	28(%edi), %eax
 1676              	.LBE363:
 1677              	.LBE362:
 1678              		.loc 1 111 5 view .LVU381
 1679 0097 83EC0C   		subl	$12, %esp
 1680              		.cfi_def_cfa_offset 60
 1681              		.loc 1 108 3 view .LVU382
 1682 009a C7450003 		movl	$3, 0(%ebp)
 1682      000000
 1683              		.loc 1 110 5 is_stmt 1 view .LVU383
 1684              	.LBB365:
 1685              	.LBI362:
 1686              		.loc 5 135 25 view .LVU384
GAS LISTING /tmp/ccZ945OD.s 			page 33


 1687              	.LBB364:
 1688              		.loc 5 138 3 view .LVU385
 1689              		.loc 5 138 26 is_stmt 0 view .LVU386
 1690 00a1 89442418 		movl	%eax, 24(%esp)
 1691              	.LBE364:
 1692              	.LBE365:
 1693              		.loc 1 111 5 is_stmt 1 view .LVU387
 1694 00a5 6A64     		pushl	$100
 1695              		.cfi_def_cfa_offset 64
 1696 00a7 E8FCFFFF 		call	chThdSleep@PLT
 1696      FF
 1697              	.LVL60:
 1698              		.loc 1 112 5 view .LVU388
 1699              	.LBB366:
 1700              	.LBI366:
 1701              		.loc 6 442 25 view .LVU389
 1702              	.LBB367:
 1703              		.loc 6 449 3 view .LVU390
 1704              		.loc 6 449 3 is_stmt 0 view .LVU391
 1705              	.LBE367:
 1706              	.LBE366:
 1707              	.LBB369:
 1708              	.LBI369:
 1709              		.loc 6 442 25 is_stmt 1 view .LVU392
 1710              	.LBB370:
 1711              		.loc 6 449 3 view .LVU393
 1712              		.loc 6 449 3 is_stmt 0 view .LVU394
 1713              	.LBE370:
 1714              	.LBE369:
 1715              		.loc 1 112 5 view .LVU395
 1716 00ac 83C40C   		addl	$12, %esp
 1717              		.cfi_def_cfa_offset 52
 1718 00af 56       		pushl	%esi
 1719              		.cfi_def_cfa_offset 56
 1720              	.LBB372:
 1721              	.LBB368:
 1722              		.loc 6 449 18 view .LVU396
 1723 00b0 8B442414 		movl	20(%esp), %eax
 1724 00b4 8D5065   		leal	101(%eax), %edx
 1725              	.LBE368:
 1726              	.LBE372:
 1727              	.LBB373:
 1728              	.LBB371:
 1729 00b7 83C064   		addl	$100, %eax
 1730              	.LBE371:
 1731              	.LBE373:
 1732              		.loc 1 112 5 view .LVU397
 1733 00ba 52       		pushl	%edx
 1734              		.cfi_def_cfa_offset 60
 1735 00bb 50       		pushl	%eax
 1736              		.cfi_def_cfa_offset 64
 1737 00bc E8FCFFFF 		call	__test_assert_time_window@PLT
 1737      FF
 1738              	.LVL61:
 1739 00c1 83C410   		addl	$16, %esp
 1740              		.cfi_def_cfa_offset 48
 1741 00c4 84C0     		testb	%al, %al
GAS LISTING /tmp/ccZ945OD.s 			page 34


 1742 00c6 758D     		jne	.L22
 1743              		.loc 1 114 50 is_stmt 1 view .LVU398
 1744              		.loc 1 116 3 view .LVU399
 1745              		.loc 1 116 19 view .LVU400
 1746              		.loc 1 120 3 view .LVU401
 1747              	.LBB374:
 1748              	.LBB375:
 1749              		.loc 5 138 26 is_stmt 0 view .LVU402
 1750 00c8 8B471C   		movl	28(%edi), %eax
 1751              	.LBE375:
 1752              	.LBE374:
 1753              		.loc 1 123 5 view .LVU403
 1754 00cb 83EC0C   		subl	$12, %esp
 1755              		.cfi_def_cfa_offset 60
 1756              		.loc 1 120 3 view .LVU404
 1757 00ce C7450004 		movl	$4, 0(%ebp)
 1757      000000
 1758              		.loc 1 122 5 is_stmt 1 view .LVU405
 1759              	.LBB377:
 1760              	.LBI374:
 1761              		.loc 5 135 25 view .LVU406
 1762              	.LBB376:
 1763              		.loc 5 138 3 view .LVU407
 1764              		.loc 5 138 26 is_stmt 0 view .LVU408
 1765 00d5 89442418 		movl	%eax, 24(%esp)
 1766              	.LBE376:
 1767              	.LBE377:
 1768              		.loc 1 123 5 is_stmt 1 view .LVU409
 1769 00d9 68E80300 		pushl	$1000
 1769      00
 1770              		.cfi_def_cfa_offset 64
 1771 00de E8FCFFFF 		call	chThdSleep@PLT
 1771      FF
 1772              	.LVL62:
 1773              		.loc 1 124 5 view .LVU410
 1774              	.LBB378:
 1775              	.LBI378:
 1776              		.loc 6 442 25 view .LVU411
 1777              	.LBB379:
 1778              		.loc 6 449 3 view .LVU412
 1779              		.loc 6 449 3 is_stmt 0 view .LVU413
 1780              	.LBE379:
 1781              	.LBE378:
 1782              	.LBB381:
 1783              	.LBI381:
 1784              		.loc 6 442 25 is_stmt 1 view .LVU414
 1785              	.LBB382:
 1786              		.loc 6 449 3 view .LVU415
 1787              		.loc 6 449 3 is_stmt 0 view .LVU416
 1788              	.LBE382:
 1789              	.LBE381:
 1790              		.loc 1 124 5 view .LVU417
 1791 00e3 83C40C   		addl	$12, %esp
 1792              		.cfi_def_cfa_offset 52
 1793 00e6 56       		pushl	%esi
 1794              		.cfi_def_cfa_offset 56
 1795              	.LBB384:
GAS LISTING /tmp/ccZ945OD.s 			page 35


 1796              	.LBB380:
 1797              		.loc 6 449 18 view .LVU418
 1798 00e7 8B442414 		movl	20(%esp), %eax
 1799 00eb 8D90E903 		leal	1001(%eax), %edx
 1799      0000
 1800              	.LBE380:
 1801              	.LBE384:
 1802              	.LBB385:
 1803              	.LBB383:
 1804 00f1 05E80300 		addl	$1000, %eax
 1804      00
 1805              	.LBE383:
 1806              	.LBE385:
 1807              		.loc 1 124 5 view .LVU419
 1808 00f6 52       		pushl	%edx
 1809              		.cfi_def_cfa_offset 60
 1810 00f7 50       		pushl	%eax
 1811              		.cfi_def_cfa_offset 64
 1812 00f8 E8FCFFFF 		call	__test_assert_time_window@PLT
 1812      FF
 1813              	.LVL63:
 1814 00fd 83C410   		addl	$16, %esp
 1815              		.cfi_def_cfa_offset 48
 1816 0100 84C0     		testb	%al, %al
 1817 0102 0F854DFF 		jne	.L22
 1817      FFFF
 1818              		.loc 1 126 50 is_stmt 1 view .LVU420
 1819              		.loc 1 128 3 view .LVU421
 1820              		.loc 1 128 19 view .LVU422
 1821              		.loc 1 132 3 view .LVU423
 1822              	.LBB386:
 1823              	.LBB387:
 1824              		.loc 5 138 26 is_stmt 0 view .LVU424
 1825 0108 8B7F1C   		movl	28(%edi), %edi
 1826              	.LBE387:
 1827              	.LBE386:
 1828              		.loc 1 132 3 view .LVU425
 1829 010b C7450005 		movl	$5, 0(%ebp)
 1829      000000
 1830              		.loc 1 134 5 is_stmt 1 view .LVU426
 1831              	.LBB389:
 1832              	.LBI386:
 1833              		.loc 5 135 25 view .LVU427
 1834              	.LBB388:
 1835              		.loc 5 138 3 view .LVU428
 1836              	.LVL64:
 1837              		.loc 5 138 3 is_stmt 0 view .LVU429
 1838              	.LBE388:
 1839              	.LBE389:
 1840              		.loc 1 135 5 is_stmt 1 view .LVU430
 1841              	.LBB390:
 1842              	.LBI390:
 1843              		.loc 6 442 25 view .LVU431
 1844              	.LBB391:
 1845              		.loc 6 449 3 view .LVU432
 1846              	.LBE391:
 1847              	.LBE390:
GAS LISTING /tmp/ccZ945OD.s 			page 36


 1848              		.loc 1 135 5 is_stmt 0 view .LVU433
 1849 0112 83EC0C   		subl	$12, %esp
 1850              		.cfi_def_cfa_offset 60
 1851              	.LBB393:
 1852              	.LBB392:
 1853              		.loc 6 449 18 view .LVU434
 1854 0115 8D6F64   		leal	100(%edi), %ebp
 1855              	.LVL65:
 1856              		.loc 6 449 18 view .LVU435
 1857              	.LBE392:
 1858              	.LBE393:
 1859              	.LBB394:
 1860              	.LBB395:
 1861 0118 83C765   		addl	$101, %edi
 1862              	.LVL66:
 1863              		.loc 6 449 18 view .LVU436
 1864              	.LBE395:
 1865              	.LBE394:
 1866              		.loc 1 135 5 view .LVU437
 1867 011b 55       		pushl	%ebp
 1868              		.cfi_def_cfa_offset 64
 1869 011c E8FCFFFF 		call	chThdSleepUntil@PLT
 1869      FF
 1870              	.LVL67:
 1871              		.loc 1 136 5 is_stmt 1 view .LVU438
 1872              	.LBB397:
 1873              	.LBI394:
 1874              		.loc 6 442 25 view .LVU439
 1875              	.LBB396:
 1876              		.loc 6 449 3 view .LVU440
 1877              		.loc 6 449 3 is_stmt 0 view .LVU441
 1878              	.LBE396:
 1879              	.LBE397:
 1880              		.loc 1 136 5 view .LVU442
 1881 0121 83C40C   		addl	$12, %esp
 1882              		.cfi_def_cfa_offset 52
 1883 0124 56       		pushl	%esi
 1884              		.cfi_def_cfa_offset 56
 1885 0125 57       		pushl	%edi
 1886              		.cfi_def_cfa_offset 60
 1887 0126 55       		pushl	%ebp
 1888              		.cfi_def_cfa_offset 64
 1889 0127 E8FCFFFF 		call	__test_assert_time_window@PLT
 1889      FF
 1890              	.LVL68:
 1891 012c 83C410   		addl	$16, %esp
 1892              		.cfi_def_cfa_offset 48
 1893              	.LVL69:
 1894              		.loc 1 136 5 view .LVU443
 1895              	.LBE349:
 1896              	.LBE348:
 1897              		.loc 1 138 50 is_stmt 1 view .LVU444
 1898              		.loc 1 140 3 view .LVU445
 1899              		.loc 1 140 19 view .LVU446
 1900              	.LBB399:
 1901              	.LBB398:
 1902 012f E921FFFF 		jmp	.L22
GAS LISTING /tmp/ccZ945OD.s 			page 37


 1902      FF
 1903              	.LBE398:
 1904              	.LBE399:
 1905              		.cfi_endproc
 1906              	.LFE304:
 1907              		.size	rt_test_005_001_execute, .-rt_test_005_001_execute
 1908              		.globl	rt_test_sequence_005
 1909              		.section	.rodata.str1.1,"aMS",@progbits,1
 1910              	.LC12:
 1911 0000 54687265 		.string	"Threads Functionality"
 1911      61647320 
 1911      46756E63 
 1911      74696F6E 
 1911      616C6974 
 1912              		.section	.data.rel.ro.local.rt_test_sequence_005,"aw"
 1913              		.align 4
 1914              		.type	rt_test_sequence_005, @object
 1915              		.size	rt_test_sequence_005, 8
 1916              	rt_test_sequence_005:
 1917 0000 00000000 		.long	.LC12
 1918 0004 00000000 		.long	rt_test_sequence_005_array
 1919              		.globl	rt_test_sequence_005_array
 1920              		.section	.data.rel.ro.local.rt_test_sequence_005_array,"aw"
 1921              		.align 4
 1922              		.type	rt_test_sequence_005_array, @object
 1923              		.size	rt_test_sequence_005_array, 20
 1924              	rt_test_sequence_005_array:
 1925 0000 00000000 		.long	rt_test_005_001
 1926 0004 00000000 		.long	rt_test_005_002
 1927 0008 00000000 		.long	rt_test_005_003
 1928 000c 00000000 		.long	rt_test_005_004
 1929 0010 00000000 		.long	0
 1930              		.section	.rodata.str1.4,"aMS",@progbits,1
 1931              		.align 4
 1932              	.LC13:
 1933 0000 5072696F 		.string	"Priority change test with Priority Inheritance"
 1933      72697479 
 1933      20636861 
 1933      6E676520 
 1933      74657374 
 1934              		.section	.data.rel.ro.local.rt_test_005_004,"aw"
 1935              		.align 4
 1936              		.type	rt_test_005_004, @object
 1937              		.size	rt_test_005_004, 16
 1938              	rt_test_005_004:
 1939 0000 00000000 		.long	.LC13
 1940 0004 00000000 		.long	0
 1941 0008 00000000 		.long	0
 1942 000c 00000000 		.long	rt_test_005_004_execute
 1943              		.section	.rodata.str1.1
 1944              	.LC14:
 1945 0016 5072696F 		.string	"Priority change test"
 1945      72697479 
 1945      20636861 
 1945      6E676520 
 1945      74657374 
 1946              		.section	.data.rel.ro.local.rt_test_005_003,"aw"
GAS LISTING /tmp/ccZ945OD.s 			page 38


 1947              		.align 4
 1948              		.type	rt_test_005_003, @object
 1949              		.size	rt_test_005_003, 16
 1950              	rt_test_005_003:
 1951 0000 16000000 		.long	.LC14
 1952 0004 00000000 		.long	0
 1953 0008 00000000 		.long	0
 1954 000c 00000000 		.long	rt_test_005_003_execute
 1955              		.section	.rodata.str1.4
 1956 002f 00       		.align 4
 1957              	.LC15:
 1958 0030 52656164 		.string	"Ready List functionality, threads priority order"
 1958      79204C69 
 1958      73742066 
 1958      756E6374 
 1958      696F6E61 
 1959              		.section	.data.rel.ro.local.rt_test_005_002,"aw"
 1960              		.align 4
 1961              		.type	rt_test_005_002, @object
 1962              		.size	rt_test_005_002, 16
 1963              	rt_test_005_002:
 1964 0000 30000000 		.long	.LC15
 1965 0004 00000000 		.long	0
 1966 0008 00000000 		.long	0
 1967 000c 00000000 		.long	rt_test_005_002_execute
 1968              		.section	.rodata.str1.1
 1969              	.LC16:
 1970 002b 54687265 		.string	"Thread Sleep functionality"
 1970      61642053 
 1970      6C656570 
 1970      2066756E 
 1970      6374696F 
 1971              		.section	.data.rel.ro.local.rt_test_005_001,"aw"
 1972              		.align 4
 1973              		.type	rt_test_005_001, @object
 1974              		.size	rt_test_005_001, 16
 1975              	rt_test_005_001:
 1976 0000 2B000000 		.long	.LC16
 1977 0004 00000000 		.long	0
 1978 0008 00000000 		.long	0
 1979 000c 00000000 		.long	rt_test_005_001_execute
 1980              		.section	.text.__x86.get_pc_thunk.bx,"axG",@progbits,__x86.get_pc_thunk.bx,comdat
 1981              		.globl	__x86.get_pc_thunk.bx
 1982              		.hidden	__x86.get_pc_thunk.bx
 1983              		.type	__x86.get_pc_thunk.bx, @function
 1984              	__x86.get_pc_thunk.bx:
 1985              	.LFB309:
 1986              		.cfi_startproc
 1987 0000 8B1C24   		movl	(%esp), %ebx
 1988 0003 C3       		ret
 1989              		.cfi_endproc
 1990              	.LFE309:
 1991              		.text
 1992              	.Letext0:
 1993              		.file 7 "/usr/lib/gcc/x86_64-linux-gnu/11/include/stddef.h"
 1994              		.file 8 "/usr/include/bits/types.h"
 1995              		.file 9 "/usr/include/bits/stdint-intn.h"
GAS LISTING /tmp/ccZ945OD.s 			page 39


 1996              		.file 10 "/usr/include/bits/stdint-uintn.h"
 1997              		.file 11 "../../../os/common/ports/SIMIA32/compilers/GCC/chtypes.h"
 1998              		.file 12 "../../../os/rt/include/chearly.h"
 1999              		.file 13 "../../../os/rt/include/chobjects.h"
 2000              		.file 14 "../../../os/rt/include/chrfcu.h"
 2001              		.file 15 "../../../os/rt/include/chdebug.h"
 2002              		.file 16 "../../../os/rt/include/chlists.h"
 2003              		.file 17 "../../../os/rt/include/chsem.h"
 2004              		.file 18 "../../../os/rt/include/chmtx.h"
 2005              		.file 19 "../../../os/hal/include/hal_streams.h"
 2006              		.file 20 "../../../os/test/include/ch_test.h"
 2007              		.file 21 "../../../test/rt/source/test/rt_test_sequence_005.h"
 2008              		.file 22 "../../../test/rt/source/test/rt_test_root.h"
 6559 0063 2F686F6D 		.section	.note.GNU-stack,"",@progbits
 6559      652F616C 
 6559      65782F43 
 6559      68696269 
 6559      4F532F64 
GAS LISTING /tmp/ccZ945OD.s 			page 126

