GAS LISTING /tmp/cchBzYti.s 			page 1


   1              		.file	"rt_test_sequence_004.c"
   2              		.text
   3              	.Ltext0:
   4              		.file 0 "/home/alex/ChibiOS/demos/various/LAB2_VARIANT2" "../../../test/rt/source/test/rt_test_seq
   5              		.section	.rodata.rt_test_004_001_execute.str1.1,"aMS",@progbits,1
   6              	.LC0:
   7 0000 6E6F7420 		.string	"not monotonic"
   7      6D6F6E6F 
   7      746F6E69 
   7      6300
   8              		.section	.text.rt_test_004_001_execute,"ax",@progbits
   9              		.p2align 4
  10              		.type	rt_test_004_001_execute, @function
  11              	rt_test_004_001_execute:
  12              	.LFB303:
  13              		.file 1 "../../../test/rt/source/test/rt_test_sequence_004.c"
  14              		.loc 1 66 43 view -0
  15              		.cfi_startproc
  16              		.loc 1 69 3 view .LVU1
  17              		.loc 1 66 43 is_stmt 0 view .LVU2
  18 0000 55       		pushl	%ebp
  19              		.cfi_def_cfa_offset 8
  20              		.cfi_offset 5, -8
  21 0001 57       		pushl	%edi
  22              		.cfi_def_cfa_offset 12
  23              		.cfi_offset 7, -12
  24 0002 56       		pushl	%esi
  25              		.cfi_def_cfa_offset 16
  26              		.cfi_offset 6, -16
  27 0003 53       		pushl	%ebx
  28              		.cfi_def_cfa_offset 20
  29              		.cfi_offset 3, -20
  30 0004 E8FCFFFF 		call	__x86.get_pc_thunk.bx
  30      FF
  31 0009 81C30200 		addl	$_GLOBAL_OFFSET_TABLE_, %ebx
  31      0000
  32 000f 83EC2C   		subl	$44, %esp
  33              		.cfi_def_cfa_offset 64
  34              	.LBB45:
  35              	.LBB46:
  36              	.LBB47:
  37              	.LBB48:
  38              	.LBB49:
  39              	.LBB50:
  40              		.file 2 "../../../os/common/ports/SIMIA32/chcore.h"
  41              		.loc 2 363 16 view .LVU3
  42 0012 8BBB0000 		movl	port_irq_sts@GOT(%ebx), %edi
  42      0000
  43              	.LBE50:
  44              	.LBE49:
  45              	.LBE48:
  46              	.LBE47:
  47              	.LBE46:
  48              	.LBE45:
  49              		.loc 1 69 3 view .LVU4
  50 0018 8B830000 		movl	chtest@GOT(%ebx), %eax
  50      0000
GAS LISTING /tmp/cchBzYti.s 			page 2


  51              	.LBB96:
  52              	.LBB67:
  53              	.LBB65:
  54              	.LBB55:
  55              	.LBB53:
  56              	.LBB51:
  57              		.loc 2 363 16 view .LVU5
  58 001e C7070100 		movl	$1, (%edi)
  58      0000
  59              	.LBE51:
  60              	.LBE53:
  61              	.LBE55:
  62              	.LBE65:
  63              	.LBE67:
  64              	.LBE96:
  65              		.loc 1 69 3 view .LVU6
  66 0024 C7000100 		movl	$1, (%eax)
  66      0000
  67              	.LBB97:
  68              		.loc 1 71 5 is_stmt 1 view .LVU7
  69              		.loc 1 72 5 view .LVU8
  70              		.loc 1 73 5 view .LVU9
  71              		.loc 1 75 5 view .LVU10
  72              	.LBB68:
  73              	.LBI46:
  74              		.file 3 "../../../os/rt/include/chvt.h"
  75              		.loc 3 483 30 view .LVU11
  76              	.LBB66:
  77              		.loc 3 484 3 view .LVU12
  78              		.loc 3 486 3 view .LVU13
  79              	.LBB56:
  80              	.LBI48:
  81              		.file 4 "../../../os/rt/include/chsys.h"
  82              		.loc 4 407 20 view .LVU14
  83              		.loc 4 409 3 view .LVU15
  84              	.LBB54:
  85              	.LBI49:
  86              		.loc 2 361 20 view .LVU16
  87              	.LBB52:
  88              		.loc 2 363 3 view .LVU17
  89              	.LBE52:
  90              	.LBE54:
  91              		.loc 4 410 35 view .LVU18
  92              		.loc 4 411 21 view .LVU19
  93              	.LBE56:
  94              		.loc 3 488 3 view .LVU20
  95              		.loc 3 488 11 is_stmt 0 view .LVU21
  96 002a E8FCFFFF 		call	chVTGetTimeStampI@PLT
  96      FF
  97              	.LVL0:
  98              	.LBB57:
  99              	.LBB58:
 100              	.LBB59:
 101              	.LBB60:
 102              		.loc 2 372 16 view .LVU22
 103 002f C7070000 		movl	$0, (%edi)
 103      0000
GAS LISTING /tmp/cchBzYti.s 			page 3


 104              	.LBE60:
 105              	.LBE59:
 106              	.LBE58:
 107              	.LBE57:
 108              		.loc 3 488 11 view .LVU23
 109 0035 89C5     		movl	%eax, %ebp
 110 0037 89D6     		movl	%edx, %esi
 111              	.LVL1:
 112              		.loc 3 490 3 is_stmt 1 view .LVU24
 113              	.LBB64:
 114              	.LBI57:
 115              		.loc 4 421 20 view .LVU25
 116              	.LBB63:
 117              		.loc 4 423 23 view .LVU26
 118              		.loc 4 424 34 view .LVU27
 119              		.loc 4 430 3 view .LVU28
 120              		.loc 4 430 3 view .LVU29
 121              		.loc 4 430 3 view .LVU30
 122              		.loc 4 434 3 view .LVU31
 123              	.LBB62:
 124              	.LBI59:
 125              		.loc 2 370 20 view .LVU32
 126              	.LBB61:
 127              		.loc 2 372 3 view .LVU33
 128              	.LBE61:
 129              	.LBE62:
 130              	.LBE63:
 131              	.LBE64:
 132              		.loc 3 492 3 view .LVU34
 133              		.loc 3 492 3 is_stmt 0 view .LVU35
 134              	.LBE66:
 135              	.LBE68:
 136              		.loc 1 76 5 is_stmt 1 view .LVU36
 137              		.loc 1 76 13 is_stmt 0 view .LVU37
 138 0039 E8FCFFFF 		call	test_wait_tick@PLT
 138      FF
 139              	.LVL2:
 140              		.loc 1 76 13 view .LVU38
 141 003e 89442418 		movl	%eax, 24(%esp)
 142              	.LVL3:
 143              		.loc 1 77 5 is_stmt 1 view .LVU39
 144              		.loc 1 78 5 view .LVU40
 145              		.loc 1 79 7 view .LVU41
 146              		.loc 1 81 5 view .LVU42
 147              		.loc 1 81 5 is_stmt 0 view .LVU43
 148 0042 8D830000 		leal	.LC0@GOTOFF(%ebx), %eax
 148      0000
 149              	.LVL4:
 150              		.loc 1 81 5 view .LVU44
 151 0048 89442414 		movl	%eax, 20(%esp)
 152              	.LBB69:
 153              	.LBB70:
 154              	.LBB71:
 155              		.loc 3 138 26 view .LVU45
 156 004c 8B830000 		movl	ch0@GOT(%ebx), %eax
 156      0000
 157 0052 8944241C 		movl	%eax, 28(%esp)
GAS LISTING /tmp/cchBzYti.s 			page 4


 158 0056 EB1F     		jmp	.L4
 159              	.LVL5:
 160 0058 8DB42600 		.p2align 4,,10
 160      00000090 
 161              		.p2align 3
 162              	.L8:
 163              		.loc 3 138 26 view .LVU46
 164              	.LBE71:
 165              	.LBE70:
 166              	.LBE69:
 167              		.loc 1 84 48 is_stmt 1 discriminator 2 view .LVU47
 168              		.loc 1 85 7 discriminator 2 view .LVU48
 169              		.loc 1 87 7 discriminator 2 view .LVU49
 170 0060 E8FCFFFF 		call	_sim_check_for_interrupts@PLT
 170      FF
 171              	.LVL6:
 172              		.loc 1 89 14 discriminator 2 view .LVU50
 173              	.LBB76:
 174              	.LBI69:
 175              		.loc 3 190 20 discriminator 2 view .LVU51
 176              		.loc 3 192 3 discriminator 2 view .LVU52
 177              	.LBB73:
 178              	.LBI70:
 179              		.loc 3 135 25 discriminator 2 view .LVU53
 180              	.LBB72:
 181              		.loc 3 138 3 discriminator 2 view .LVU54
 182              		.loc 3 138 26 is_stmt 0 discriminator 2 view .LVU55
 183 0065 8B44241C 		movl	28(%esp), %eax
 184 0069 8B401C   		movl	28(%eax), %eax
 185              	.LVL7:
 186              		.loc 3 138 26 discriminator 2 view .LVU56
 187              	.LBE72:
 188              	.LBE73:
 189              	.LBB74:
 190              	.LBI74:
 191              		.file 5 "../../../os/rt/include/chtime.h"
 192              		.loc 5 484 20 is_stmt 1 discriminator 2 view .LVU57
 193              	.LBB75:
 194              		.loc 5 488 3 discriminator 2 view .LVU58
 195              		.loc 5 488 17 is_stmt 0 discriminator 2 view .LVU59
 196 006c 2B442418 		subl	24(%esp), %eax
 197              	.LBE75:
 198              	.LBE74:
 199              	.LBE76:
 200              		.loc 1 89 14 discriminator 2 view .LVU60
 201 0070 3DE70300 		cmpl	$999, %eax
 201      00
 202 0075 7741     		ja	.L1
 203              	.LVL8:
 204              	.L4:
 205              		.loc 1 82 5 is_stmt 1 view .LVU61
 206              		.loc 1 83 7 view .LVU62
 207              	.LBB77:
 208              	.LBI77:
 209              		.loc 3 483 30 view .LVU63
 210              	.LBB78:
 211              		.loc 3 484 3 view .LVU64
GAS LISTING /tmp/cchBzYti.s 			page 5


 212              		.loc 3 486 3 view .LVU65
 213              	.LBB79:
 214              	.LBI79:
 215              		.loc 4 407 20 view .LVU66
 216              		.loc 4 409 3 view .LVU67
 217              	.LBB80:
 218              	.LBI80:
 219              		.loc 2 361 20 view .LVU68
 220              	.LBB81:
 221              		.loc 2 363 3 view .LVU69
 222 0077 896C240C 		movl	%ebp, 12(%esp)
 223 007b 89742410 		movl	%esi, 16(%esp)
 224              		.loc 2 363 16 is_stmt 0 view .LVU70
 225 007f C7070100 		movl	$1, (%edi)
 225      0000
 226              	.LBE81:
 227              	.LBE80:
 228              		.loc 4 410 35 is_stmt 1 view .LVU71
 229              		.loc 4 411 21 view .LVU72
 230              	.LBE79:
 231              		.loc 3 488 3 view .LVU73
 232              		.loc 3 488 11 is_stmt 0 view .LVU74
 233 0085 E8FCFFFF 		call	chVTGetTimeStampI@PLT
 233      FF
 234              	.LVL9:
 235              	.LBE78:
 236              	.LBE77:
 237              		.loc 1 84 7 view .LVU75
 238 008a 83EC08   		subl	$8, %esp
 239              		.cfi_def_cfa_offset 72
 240              	.LBB93:
 241              	.LBB90:
 242              	.LBB82:
 243              	.LBB83:
 244              	.LBB84:
 245              	.LBB85:
 246              		.loc 2 372 16 view .LVU76
 247 008d C7070000 		movl	$0, (%edi)
 247      0000
 248              	.LBE85:
 249              	.LBE84:
 250              	.LBE83:
 251              	.LBE82:
 252              	.LBE90:
 253              	.LBE93:
 254              		.loc 1 84 7 view .LVU77
 255 0093 FF74241C 		pushl	28(%esp)
 256              		.cfi_def_cfa_offset 76
 257              	.LBB94:
 258              	.LBB91:
 259              		.loc 3 488 11 view .LVU78
 260 0097 89C5     		movl	%eax, %ebp
 261              	.LVL10:
 262              		.loc 3 488 11 view .LVU79
 263              	.LBE91:
 264              	.LBE94:
 265              		.loc 1 84 7 view .LVU80
GAS LISTING /tmp/cchBzYti.s 			page 6


 266 0099 3B442418 		cmpl	24(%esp), %eax
 267 009d 89D0     		movl	%edx, %eax
 268 009f 1B44241C 		sbbl	28(%esp), %eax
 269              	.LBB95:
 270              	.LBB92:
 271              		.loc 3 488 11 view .LVU81
 272 00a3 89D6     		movl	%edx, %esi
 273              	.LVL11:
 274              		.loc 3 490 3 is_stmt 1 view .LVU82
 275              	.LBB89:
 276              	.LBI82:
 277              		.loc 4 421 20 view .LVU83
 278              	.LBB88:
 279              		.loc 4 423 23 view .LVU84
 280              		.loc 4 424 34 view .LVU85
 281              		.loc 4 430 3 view .LVU86
 282              		.loc 4 430 3 view .LVU87
 283              		.loc 4 430 3 view .LVU88
 284              		.loc 4 434 3 view .LVU89
 285              	.LBB87:
 286              	.LBI84:
 287              		.loc 2 370 20 view .LVU90
 288              	.LBB86:
 289              		.loc 2 372 3 view .LVU91
 290              	.LBE86:
 291              	.LBE87:
 292              	.LBE88:
 293              	.LBE89:
 294              		.loc 3 492 3 view .LVU92
 295              	.LBE92:
 296              	.LBE95:
 297              		.loc 1 84 7 view .LVU93
 298 00a5 0F93C0   		setnc	%al
 299 00a8 0FB6C0   		movzbl	%al, %eax
 300 00ab 50       		pushl	%eax
 301              		.cfi_def_cfa_offset 80
 302 00ac E8FCFFFF 		call	__test_assert@PLT
 302      FF
 303              	.LVL12:
 304 00b1 83C410   		addl	$16, %esp
 305              		.cfi_def_cfa_offset 64
 306 00b4 84C0     		testb	%al, %al
 307 00b6 74A8     		je	.L8
 308              	.LVL13:
 309              	.L1:
 310              		.loc 1 84 7 is_stmt 0 view .LVU94
 311              	.LBE97:
 312              		.loc 1 92 1 view .LVU95
 313 00b8 83C42C   		addl	$44, %esp
 314              		.cfi_def_cfa_offset 20
 315 00bb 5B       		popl	%ebx
 316              		.cfi_restore 3
 317              		.cfi_def_cfa_offset 16
 318 00bc 5E       		popl	%esi
 319              		.cfi_restore 6
 320              		.cfi_def_cfa_offset 12
 321 00bd 5F       		popl	%edi
GAS LISTING /tmp/cchBzYti.s 			page 7


 322              		.cfi_restore 7
 323              		.cfi_def_cfa_offset 8
 324 00be 5D       		popl	%ebp
 325              		.cfi_restore 5
 326              		.cfi_def_cfa_offset 4
 327 00bf C3       		ret
 328              		.cfi_endproc
 329              	.LFE303:
 330              		.size	rt_test_004_001_execute, .-rt_test_004_001_execute
 331              		.globl	rt_test_sequence_004
 332              		.section	.rodata.str1.1,"aMS",@progbits,1
 333              	.LC1:
 334 0000 54696D65 		.string	"Time Stamps Functionality"
 334      20537461 
 334      6D707320 
 334      46756E63 
 334      74696F6E 
 335              		.section	.data.rel.ro.local.rt_test_sequence_004,"aw"
 336              		.align 4
 337              		.type	rt_test_sequence_004, @object
 338              		.size	rt_test_sequence_004, 8
 339              	rt_test_sequence_004:
 340 0000 00000000 		.long	.LC1
 341 0004 00000000 		.long	rt_test_sequence_004_array
 342              		.globl	rt_test_sequence_004_array
 343              		.section	.data.rel.ro.local.rt_test_sequence_004_array,"aw"
 344              		.align 4
 345              		.type	rt_test_sequence_004_array, @object
 346              		.size	rt_test_sequence_004_array, 8
 347              	rt_test_sequence_004_array:
 348 0000 00000000 		.long	rt_test_004_001
 349 0004 00000000 		.long	0
 350              		.section	.rodata.str1.1
 351              	.LC2:
 352 001a 54696D65 		.string	"Time Stamps functionality"
 352      20537461 
 352      6D707320 
 352      66756E63 
 352      74696F6E 
 353              		.section	.data.rel.ro.local.rt_test_004_001,"aw"
 354              		.align 4
 355              		.type	rt_test_004_001, @object
 356              		.size	rt_test_004_001, 16
 357              	rt_test_004_001:
 358 0000 1A000000 		.long	.LC2
 359 0004 00000000 		.long	0
 360 0008 00000000 		.long	0
 361 000c 00000000 		.long	rt_test_004_001_execute
 362              		.section	.text.__x86.get_pc_thunk.bx,"axG",@progbits,__x86.get_pc_thunk.bx,comdat
 363              		.globl	__x86.get_pc_thunk.bx
 364              		.hidden	__x86.get_pc_thunk.bx
 365              		.type	__x86.get_pc_thunk.bx, @function
 366              	__x86.get_pc_thunk.bx:
 367              	.LFB304:
 368              		.cfi_startproc
 369 0000 8B1C24   		movl	(%esp), %ebx
 370 0003 C3       		ret
GAS LISTING /tmp/cchBzYti.s 			page 8


 371              		.cfi_endproc
 372              	.LFE304:
 373              		.text
 374              	.Letext0:
 375              		.file 6 "/usr/lib/gcc/x86_64-linux-gnu/11/include/stddef.h"
 376              		.file 7 "/usr/include/bits/types.h"
 377              		.file 8 "/usr/include/bits/stdint-intn.h"
 378              		.file 9 "/usr/include/bits/stdint-uintn.h"
 379              		.file 10 "../../../os/common/ports/SIMIA32/compilers/GCC/chtypes.h"
 380              		.file 11 "../../../os/rt/include/chearly.h"
 381              		.file 12 "../../../os/rt/include/chobjects.h"
 382              		.file 13 "../../../os/rt/include/chrfcu.h"
 383              		.file 14 "../../../os/rt/include/chdebug.h"
 384              		.file 15 "../../../os/rt/include/chlists.h"
 385              		.file 16 "../../../os/rt/include/chsem.h"
 386              		.file 17 "../../../os/rt/include/chmtx.h"
 387              		.file 18 "../../../os/hal/include/hal_streams.h"
 388              		.file 19 "../../../os/test/include/ch_test.h"
 389              		.file 20 "../../../test/rt/source/test/rt_test_sequence_004.h"
 390              		.file 21 "../../../test/rt/source/test/rt_test_root.h"
 391              		.file 22 "../../../os/hal/ports/simulator/posix/hal_lld.h"
 3772 0063 2F686F6D 		.section	.note.GNU-stack,"",@progbits
 3772      652F616C 
 3772      65782F43 
 3772      68696269 
 3772      4F532F64 
GAS LISTING /tmp/cchBzYti.s 			page 74

