GAS LISTING /tmp/ccTSiLmo.s 			page 1


   1              		.file	"ch_test.c"
   2              		.text
   3              	.Ltext0:
   4              		.file 0 "/home/alex/ChibiOS/demos/various/LAB1" "../../../os/test/src/ch_test.c"
   5              		.section	.text.test_stream_putchar,"ax",@progbits
   6              		.p2align 4
   7              		.type	test_stream_putchar, @function
   8              	test_stream_putchar:
   9              	.LVL0:
  10              	.LFB303:
  11              		.file 1 "../../../os/test/src/ch_test.c"
  12              		.loc 1 56 39 view -0
  13              		.cfi_startproc
  14              		.loc 1 58 3 view .LVU1
  15 0000 E8FCFFFF 		call	__x86.get_pc_thunk.ax
  15      FF
  16 0005 05010000 		addl	$_GLOBAL_OFFSET_TABLE_, %eax
  16      00
  17              		.loc 1 56 39 is_stmt 0 view .LVU2
  18 000a 53       		pushl	%ebx
  19              		.cfi_def_cfa_offset 8
  20              		.cfi_offset 3, -8
  21 000b 83EC10   		subl	$16, %esp
  22              		.cfi_def_cfa_offset 24
  23              		.loc 1 56 39 view .LVU3
  24 000e 8B5C2418 		movl	24(%esp), %ebx
  25              		.loc 1 58 3 view .LVU4
  26 0012 8B802400 		movl	36+chtest@GOTOFF(%eax), %eax
  26      0000
  27 0018 0FB6CB   		movzbl	%bl, %ecx
  28 001b 8B10     		movl	(%eax), %edx
  29 001d 51       		pushl	%ecx
  30              		.cfi_def_cfa_offset 28
  31 001e 50       		pushl	%eax
  32              		.cfi_def_cfa_offset 32
  33 001f FF520C   		call	*12(%edx)
  34              	.LVL1:
  35              		.loc 1 60 3 is_stmt 1 view .LVU5
  36              		.loc 1 61 1 is_stmt 0 view .LVU6
  37 0022 89D8     		movl	%ebx, %eax
  38 0024 83C418   		addl	$24, %esp
  39              		.cfi_def_cfa_offset 8
  40 0027 5B       		popl	%ebx
  41              		.cfi_restore 3
  42              		.cfi_def_cfa_offset 4
  43 0028 C3       		ret
  44              		.cfi_endproc
  45              	.LFE303:
  46              		.size	test_stream_putchar, .-test_stream_putchar
  47              		.section	.rodata.test_execute_inner.str1.1,"aMS",@progbits,1
  48              	.LC0:
  49 0000 0D0A00   		.string	"\r\n"
  50              	.LC1:
  51 0003 4641494C 		.string	"FAILURE"
  51      55524500 
  52              	.LC2:
  53 000b 53554343 		.string	"SUCCESS"
GAS LISTING /tmp/ccTSiLmo.s 			page 2


  53      45535300 
  54              	.LC3:
  55 0013 2A2A2A20 		.string	"*** %s\r\n"
  55      25730D0A 
  55      00
  56              	.LC4:
  57 001c 2A2A2A20 		.string	"*** Test Suite\r\n"
  57      54657374 
  57      20537569 
  57      74650D0A 
  57      00
  58              	.LC5:
  59 002d 2A2A2A0D 		.string	"***\r\n"
  59      0A00
  60              	.LC6:
  61 0033 41707220 		.string	"Apr  2 2025 - 22:33:46"
  61      20322032 
  61      30323520 
  61      2D203232 
  61      3A33333A 
  62              	.LC7:
  63 004a 2A2A2A20 		.string	"*** Compiled:     %s\r\n"
  63      436F6D70 
  63      696C6564 
  63      3A202020 
  63      20202573 
  64              	.LC8:
  65 0061 506F7369 		.string	"Posix Simulator"
  65      78205369 
  65      6D756C61 
  65      746F7200 
  66              	.LC9:
  67 0071 2A2A2A20 		.string	"*** Platform:     %s\r\n"
  67      506C6174 
  67      666F726D 
  67      3A202020 
  67      20202573 
  68              	.LC10:
  69 0088 3D3D3D20 		.string	"=== Test Sequence %u (%s)\r\n"
  69      54657374 
  69      20536571 
  69      75656E63 
  69      65202575 
  70              	.LC11:
  71 00a4 2D2D2D20 		.string	"--- Test Case %u.%u (%s)\r\n"
  71      54657374 
  71      20436173 
  71      65202575 
  71      2E257520 
  72              	.LC12:
  73 00bf 00       		.string	""
  74              	.LC13:
  75 00c0 2D2D2D20 		.string	"--- Result: FAILURE (#%u ["
  75      52657375 
  75      6C743A20 
  75      4641494C 
  75      55524520 
GAS LISTING /tmp/ccTSiLmo.s 			page 3


  76              	.LC14:
  77 00db 5D202225 		.string	"] \"%s\")\r\n"
  77      7322290D 
  77      0A00
  78              	.LC15:
  79 00e5 2D2D2D20 		.string	"--- Result: SUCCESS\r\n"
  79      52657375 
  79      6C743A20 
  79      53554343 
  79      4553530D 
  80              	.LC16:
  81 00fb 46696E61 		.string	"Final result: %s\r\n"
  81      6C207265 
  81      73756C74 
  81      3A202573 
  81      0D0A00
  82              		.section	.text.test_execute_inner,"ax",@progbits
  83              		.p2align 4
  84              		.type	test_execute_inner, @function
  85              	test_execute_inner:
  86              	.LVL2:
  87              	.LFB310:
  88              		.loc 1 127 56 is_stmt 1 view -0
  89              		.cfi_startproc
  90              		.loc 1 128 3 view .LVU8
  91              		.loc 1 131 3 view .LVU9
  92              		.loc 1 127 56 is_stmt 0 view .LVU10
  93 0000 55       		pushl	%ebp
  94              		.cfi_def_cfa_offset 8
  95              		.cfi_offset 5, -8
  96 0001 57       		pushl	%edi
  97              		.cfi_def_cfa_offset 12
  98              		.cfi_offset 7, -12
  99 0002 89C7     		movl	%eax, %edi
 100 0004 56       		pushl	%esi
 101              		.cfi_def_cfa_offset 16
 102              		.cfi_offset 6, -16
 103 0005 53       		pushl	%ebx
 104              		.cfi_def_cfa_offset 20
 105              		.cfi_offset 3, -20
 106 0006 E8FCFFFF 		call	__x86.get_pc_thunk.bx
 106      FF
 107 000b 81C30200 		addl	$_GLOBAL_OFFSET_TABLE_, %ebx
 107      0000
 108 0011 83EC48   		subl	$72, %esp
 109              		.cfi_def_cfa_offset 92
 110              		.loc 1 127 56 view .LVU11
 111 0014 89442434 		movl	%eax, 52(%esp)
 112              		.loc 1 131 3 view .LVU12
 113 0018 8D930000 		leal	.LC0@GOTOFF(%ebx), %edx
 113      0000
 114 001e 89542424 		movl	%edx, 36(%esp)
 115 0022 52       		pushl	%edx
 116              		.cfi_def_cfa_offset 96
 117 0023 E8FCFFFF 		call	test_printf@PLT
 117      FF
 118              	.LVL3:
GAS LISTING /tmp/ccTSiLmo.s 			page 4


 119              		.loc 1 132 3 is_stmt 1 view .LVU13
 120              		.loc 1 132 10 is_stmt 0 view .LVU14
 121 0028 8B07     		movl	(%edi), %eax
 122              		.loc 1 132 6 view .LVU15
 123 002a 83C410   		addl	$16, %esp
 124              		.cfi_def_cfa_offset 80
 125 002d 85C0     		testl	%eax, %eax
 126 002f 0F842303 		je	.L5
 126      0000
 127              		.loc 1 133 5 is_stmt 1 view .LVU16
 128 0035 83EC08   		subl	$8, %esp
 129              		.cfi_def_cfa_offset 88
 130 0038 50       		pushl	%eax
 131              		.cfi_def_cfa_offset 92
 132 0039 8D830000 		leal	.LC3@GOTOFF(%ebx), %eax
 132      0000
 133 003f 50       		pushl	%eax
 134              		.cfi_def_cfa_offset 96
 135 0040 E8FCFFFF 		call	test_printf@PLT
 135      FF
 136              	.LVL4:
 137 0045 83C410   		addl	$16, %esp
 138              		.cfi_def_cfa_offset 80
 139              	.L6:
 140              		.loc 1 138 3 view .LVU17
 141 0048 83EC0C   		subl	$12, %esp
 142              		.cfi_def_cfa_offset 92
 143 004b 8D830000 		leal	.LC5@GOTOFF(%ebx), %eax
 143      0000
 144 0051 50       		pushl	%eax
 145              		.cfi_def_cfa_offset 96
 146 0052 E8FCFFFF 		call	test_printf@PLT
 146      FF
 147              	.LVL5:
 148              		.loc 1 139 3 view .LVU18
 149 0057 8D830000 		leal	.LC6@GOTOFF(%ebx), %eax
 149      0000
 150 005d 5E       		popl	%esi
 151              		.cfi_def_cfa_offset 92
 152 005e 5F       		popl	%edi
 153              		.cfi_def_cfa_offset 88
 154              	.LVL6:
 155              		.loc 1 139 3 is_stmt 0 view .LVU19
 156 005f 50       		pushl	%eax
 157              		.cfi_def_cfa_offset 92
 158 0060 8D830000 		leal	.LC7@GOTOFF(%ebx), %eax
 158      0000
 159 0066 50       		pushl	%eax
 160              		.cfi_def_cfa_offset 96
 161 0067 E8FCFFFF 		call	test_printf@PLT
 161      FF
 162              	.LVL7:
 163              		.loc 1 141 3 is_stmt 1 view .LVU20
 164 006c 5D       		popl	%ebp
 165              		.cfi_def_cfa_offset 92
 166 006d 58       		popl	%eax
 167              		.cfi_def_cfa_offset 88
GAS LISTING /tmp/ccTSiLmo.s 			page 5


 168 006e 8D830000 		leal	.LC8@GOTOFF(%ebx), %eax
 168      0000
 169 0074 50       		pushl	%eax
 170              		.cfi_def_cfa_offset 92
 171 0075 8D830000 		leal	.LC9@GOTOFF(%ebx), %eax
 171      0000
 172 007b 50       		pushl	%eax
 173              		.cfi_def_cfa_offset 96
 174 007c E8FCFFFF 		call	test_printf@PLT
 174      FF
 175              	.LVL8:
 176              		.loc 1 162 3 view .LVU21
 177 0081 58       		popl	%eax
 178              		.cfi_def_cfa_offset 92
 179 0082 FF742424 		pushl	36(%esp)
 180              		.cfi_def_cfa_offset 96
 181 0086 E8FCFFFF 		call	test_printf@PLT
 181      FF
 182              	.LVL9:
 183              		.loc 1 164 3 view .LVU22
 184              		.loc 1 166 24 is_stmt 0 view .LVU23
 185 008b 8B442438 		movl	56(%esp), %eax
 186              		.loc 1 166 31 view .LVU24
 187 008f 83C410   		addl	$16, %esp
 188              		.cfi_def_cfa_offset 80
 189 0092 8D930000 		leal	.LC10@GOTOFF(%ebx), %edx
 189      0000
 190              		.loc 1 164 22 view .LVU25
 191 0098 C6830400 		movb	$0, 4+chtest@GOTOFF(%ebx)
 191      000000
 192              		.loc 1 165 3 is_stmt 1 view .LVU26
 193              	.LVL10:
 194              		.loc 1 166 3 view .LVU27
 195              		.loc 1 166 31 view .LVU28
 196              		.loc 1 166 24 is_stmt 0 view .LVU29
 197 009f 8B4004   		movl	4(%eax), %eax
 198 00a2 8954242C 		movl	%edx, 44(%esp)
 199              		.loc 1 191 9 view .LVU30
 200 00a6 8D930000 		leal	.LC15@GOTOFF(%ebx), %edx
 200      0000
 201 00ac 89542424 		movl	%edx, 36(%esp)
 202              		.loc 1 166 31 view .LVU31
 203 00b0 8B00     		movl	(%eax), %eax
 204              		.loc 1 165 8 view .LVU32
 205 00b2 C7442414 		movl	$0, 20(%esp)
 205      00000000 
 206              		.loc 1 166 31 view .LVU33
 207 00ba 85C0     		testl	%eax, %eax
 208 00bc 0F840902 		je	.L21
 208      0000
 209              	.LVL11:
 210              	.L7:
 211              		.loc 1 166 31 view .LVU34
 212 00c2 8B442414 		movl	20(%esp), %eax
 213              		.loc 1 165 8 view .LVU35
 214 00c6 BF4C0000 		movl	$76, %edi
 214      00
GAS LISTING /tmp/ccTSiLmo.s 			page 6


 215 00cb C1E002   		sall	$2, %eax
 216 00ce 8944240C 		movl	%eax, 12(%esp)
 217              	.LVL12:
 218              		.p2align 4,,10
 219 00d2 8DB60000 		.p2align 3
 219      0000
 220              	.L9:
 221              	.LBB50:
 222              	.LBB51:
 223              		.loc 1 114 5 is_stmt 1 view .LVU36
 224 00d8 83EC0C   		subl	$12, %esp
 225              		.cfi_def_cfa_offset 92
 226 00db 6A3D     		pushl	$61
 227              		.cfi_def_cfa_offset 96
 228 00dd E8FCFFFF 		call	test_putchar@PLT
 228      FF
 229              	.LVL13:
 230              		.loc 1 113 24 view .LVU37
 231              		.loc 1 113 17 view .LVU38
 232 00e2 83C410   		addl	$16, %esp
 233              		.cfi_def_cfa_offset 80
 234 00e5 83EF01   		subl	$1, %edi
 235              	.LVL14:
 236              		.loc 1 113 17 is_stmt 0 view .LVU39
 237 00e8 75EE     		jne	.L9
 238 00ea 8B742418 		movl	24(%esp), %esi
 239              	.LBB52:
 240              	.LBB53:
 241              		.loc 1 95 13 view .LVU40
 242 00ee B80D0000 		movl	$13, %eax
 242      00
 243              		.p2align 4,,10
 244 00f3 8D742600 		.p2align 3
 244      90
 245              	.L10:
 246              	.LVL15:
 247              		.loc 1 96 5 is_stmt 1 view .LVU41
 248 00f8 83EC0C   		subl	$12, %esp
 249              		.cfi_def_cfa_offset 92
 250              		.loc 1 97 6 is_stmt 0 view .LVU42
 251 00fb 83C601   		addl	$1, %esi
 252              	.LVL16:
 253              		.loc 1 96 5 view .LVU43
 254 00fe 50       		pushl	%eax
 255              		.cfi_def_cfa_offset 96
 256 00ff E8FCFFFF 		call	test_putchar@PLT
 256      FF
 257              	.LVL17:
 258              		.loc 1 97 5 is_stmt 1 view .LVU44
 259              		.loc 1 95 19 view .LVU45
 260              		.loc 1 95 13 is_stmt 0 view .LVU46
 261 0104 0FBE06   		movsbl	(%esi), %eax
 262              	.LVL18:
 263              		.loc 1 95 19 view .LVU47
 264 0107 83C410   		addl	$16, %esp
 265              		.cfi_def_cfa_offset 80
 266 010a 84C0     		testb	%al, %al
GAS LISTING /tmp/ccTSiLmo.s 			page 7


 267 010c 75EA     		jne	.L10
 268              	.LVL19:
 269              		.loc 1 95 19 view .LVU48
 270              	.LBE53:
 271              	.LBE52:
 272              	.LBE51:
 273              	.LBE50:
 274              		.loc 1 172 5 is_stmt 1 view .LVU49
 275 010e 83442414 		addl	$1, 20(%esp)
 275      01
 276              	.LVL20:
 277              		.loc 1 172 5 is_stmt 0 view .LVU50
 278 0113 83EC04   		subl	$4, %esp
 279              		.cfi_def_cfa_offset 84
 280 0116 8B542418 		movl	24(%esp), %edx
 281              		.loc 1 172 90 view .LVU51
 282 011a 8B74242C 		movl	44(%esp), %esi
 283              		.loc 1 172 96 view .LVU52
 284 011e 8B6C2410 		movl	16(%esp), %ebp
 285              		.loc 1 172 90 view .LVU53
 286 0122 8B4604   		movl	4(%esi), %eax
 287              		.loc 1 172 96 view .LVU54
 288 0125 8B0428   		movl	(%eax,%ebp), %eax
 289              		.loc 1 172 5 view .LVU55
 290 0128 FF30     		pushl	(%eax)
 291              		.cfi_def_cfa_offset 88
 292 012a 52       		pushl	%edx
 293              		.cfi_def_cfa_offset 92
 294 012b FF742438 		pushl	56(%esp)
 295              		.cfi_def_cfa_offset 96
 296 012f E8FCFFFF 		call	test_printf@PLT
 296      FF
 297              	.LVL21:
 298              		.loc 1 174 5 is_stmt 1 view .LVU56
 299              		.loc 1 175 5 view .LVU57
 300              		.loc 1 175 47 view .LVU58
 301              		.loc 1 175 15 is_stmt 0 view .LVU59
 302 0134 8B4604   		movl	4(%esi), %eax
 303              		.loc 1 175 47 view .LVU60
 304 0137 83C410   		addl	$16, %esp
 305              		.cfi_def_cfa_offset 80
 306              		.loc 1 175 32 view .LVU61
 307 013a 8B1428   		movl	(%eax,%ebp), %edx
 308              		.loc 1 175 39 view .LVU62
 309 013d 8B5204   		movl	4(%edx), %edx
 310              		.loc 1 175 47 view .LVU63
 311 0140 8B0A     		movl	(%edx), %ecx
 312 0142 85C9     		testl	%ecx, %ecx
 313 0144 0F847101 		je	.L11
 313      0000
 314 014a 8D830000 		leal	.LC11@GOTOFF(%ebx), %eax
 314      0000
 315              		.loc 1 186 9 view .LVU64
 316 0150 897C2404 		movl	%edi, 4(%esp)
 317 0154 89F7     		movl	%esi, %edi
 318 0156 8D2D0000 		leal	chtest@GOTOFF, %ebp
 318      0000
GAS LISTING /tmp/ccTSiLmo.s 			page 8


 319 015c 8944241C 		movl	%eax, 28(%esp)
 320 0160 8D831000 		leal	16+chtest@GOTOFF(%ebx), %eax
 320      0000
 321 0166 89442410 		movl	%eax, 16(%esp)
 322 016a 8D830000 		leal	.LC12@GOTOFF(%ebx), %eax
 322      0000
 323 0170 89442420 		movl	%eax, 32(%esp)
 324              	.LVL22:
 325              		.p2align 4,,10
 326 0174 8D742600 		.p2align 3
 327              	.L20:
 328              		.loc 1 186 9 view .LVU65
 329 0178 8B442404 		movl	4(%esp), %eax
 330              	.LBB57:
 331              	.LBB56:
 332              	.LBB55:
 333              	.LBB54:
 334              		.loc 1 95 13 view .LVU66
 335 017c BE4C0000 		movl	$76, %esi
 335      00
 336 0181 C1E002   		sall	$2, %eax
 337 0184 89442408 		movl	%eax, 8(%esp)
 338              	.LVL23:
 339 0188 8DB42600 		.p2align 4,,10
 339      00000090 
 340              		.p2align 3
 341              	.L12:
 342              		.loc 1 95 13 view .LVU67
 343              	.LBE54:
 344              	.LBE55:
 345              	.LBE56:
 346              	.LBE57:
 347              	.LBB58:
 348              	.LBB59:
 349              		.loc 1 105 5 is_stmt 1 view .LVU68
 350 0190 83EC0C   		subl	$12, %esp
 351              		.cfi_def_cfa_offset 92
 352 0193 6A2D     		pushl	$45
 353              		.cfi_def_cfa_offset 96
 354 0195 E8FCFFFF 		call	test_putchar@PLT
 354      FF
 355              	.LVL24:
 356              		.loc 1 104 24 view .LVU69
 357              		.loc 1 104 17 view .LVU70
 358 019a 83C410   		addl	$16, %esp
 359              		.cfi_def_cfa_offset 80
 360 019d 83EE01   		subl	$1, %esi
 361              	.LVL25:
 362              		.loc 1 104 17 is_stmt 0 view .LVU71
 363 01a0 75EE     		jne	.L12
 364 01a2 8B742418 		movl	24(%esp), %esi
 365              	.LVL26:
 366              	.LBB60:
 367              	.LBB61:
 368              		.loc 1 95 13 view .LVU72
 369 01a6 B80D0000 		movl	$13, %eax
 369      00
GAS LISTING /tmp/ccTSiLmo.s 			page 9


 370 01ab 8D742600 		.p2align 4,,10
 370      90
 371              		.p2align 3
 372              	.L13:
 373              	.LVL27:
 374              		.loc 1 96 5 is_stmt 1 view .LVU73
 375 01b0 83EC0C   		subl	$12, %esp
 376              		.cfi_def_cfa_offset 92
 377              		.loc 1 97 6 is_stmt 0 view .LVU74
 378 01b3 83C601   		addl	$1, %esi
 379              	.LVL28:
 380              		.loc 1 96 5 view .LVU75
 381 01b6 50       		pushl	%eax
 382              		.cfi_def_cfa_offset 96
 383 01b7 E8FCFFFF 		call	test_putchar@PLT
 383      FF
 384              	.LVL29:
 385              		.loc 1 97 5 is_stmt 1 view .LVU76
 386              		.loc 1 95 19 view .LVU77
 387              		.loc 1 95 13 is_stmt 0 view .LVU78
 388 01bc 0FBE06   		movsbl	(%esi), %eax
 389              	.LVL30:
 390              		.loc 1 95 19 view .LVU79
 391 01bf 83C410   		addl	$16, %esp
 392              		.cfi_def_cfa_offset 80
 393 01c2 84C0     		testb	%al, %al
 394 01c4 75EA     		jne	.L13
 395              	.LVL31:
 396              		.loc 1 95 19 view .LVU80
 397              	.LBE61:
 398              	.LBE60:
 399              	.LBE59:
 400              	.LBE58:
 401              		.loc 1 177 7 is_stmt 1 view .LVU81
 402              		.loc 1 177 109 is_stmt 0 view .LVU82
 403 01c6 8B74240C 		movl	12(%esp), %esi
 404              		.loc 1 177 103 view .LVU83
 405 01ca 8B4704   		movl	4(%edi), %eax
 406              		.loc 1 177 123 view .LVU84
 407 01cd 8B542408 		movl	8(%esp), %edx
 408              		.loc 1 177 7 view .LVU85
 409 01d1 83442404 		addl	$1, 4(%esp)
 409      01
 410              	.LVL32:
 411              		.loc 1 177 109 view .LVU86
 412 01d6 8B0430   		movl	(%eax,%esi), %eax
 413              		.loc 1 177 7 view .LVU87
 414 01d9 8B4C2404 		movl	4(%esp), %ecx
 415              		.loc 1 177 116 view .LVU88
 416 01dd 8B4004   		movl	4(%eax), %eax
 417              		.loc 1 177 123 view .LVU89
 418 01e0 8B0410   		movl	(%eax,%edx), %eax
 419              		.loc 1 177 7 view .LVU90
 420 01e3 FF30     		pushl	(%eax)
 421              		.cfi_def_cfa_offset 84
 422 01e5 51       		pushl	%ecx
 423              		.cfi_def_cfa_offset 88
GAS LISTING /tmp/ccTSiLmo.s 			page 10


 424 01e6 FF74241C 		pushl	28(%esp)
 425              		.cfi_def_cfa_offset 92
 426 01ea FF742428 		pushl	40(%esp)
 427              		.cfi_def_cfa_offset 96
 428 01ee E8FCFFFF 		call	test_printf@PLT
 428      FF
 429              	.LVL33:
 430              		.loc 1 179 7 is_stmt 1 view .LVU91
 431              	.LBB62:
 432              	.LBI62:
 433              		.file 2 "../../../os/hal/osal/rt-nil/osal.h"
 434              		.loc 2 782 20 view .LVU92
 435              	.LBB63:
 436              		.loc 2 784 3 view .LVU93
 437 01f3 C70424C8 		movl	$200, (%esp)
 437      000000
 438 01fa E8FCFFFF 		call	chThdSleep@PLT
 438      FF
 439              	.LVL34:
 440              		.loc 2 784 3 is_stmt 0 view .LVU94
 441              	.LBE63:
 442              	.LBE62:
 443              		.loc 1 184 7 is_stmt 1 view .LVU95
 444              		.loc 1 184 39 is_stmt 0 view .LVU96
 445 01ff 8B4704   		movl	4(%edi), %eax
 446              		.loc 1 184 7 view .LVU97
 447 0202 8B542418 		movl	24(%esp), %edx
 448              		.loc 1 184 45 view .LVU98
 449 0206 8B0430   		movl	(%eax,%esi), %eax
 450              		.loc 1 184 7 view .LVU99
 451 0209 8B4004   		movl	4(%eax), %eax
 452 020c 8B3410   		movl	(%eax,%edx), %esi
 453              	.LVL35:
 454              	.LBB64:
 455              	.LBI64:
 456              		.loc 1 77 13 is_stmt 1 view .LVU100
 457              	.LBB65:
 458              		.loc 1 80 3 view .LVU101
 459              	.LBB66:
 460              	.LBI66:
 461              		.loc 1 64 13 view .LVU102
 462              	.LBB67:
 463              		.loc 1 66 3 view .LVU103
 464              		.loc 1 66 15 is_stmt 0 view .LVU104
 465 020f 8B442420 		movl	32(%esp), %eax
 466              	.LBE67:
 467              	.LBE66:
 468              		.loc 1 81 21 view .LVU105
 469 0213 C6441D05 		movb	$0, 5(%ebp,%ebx)
 469      00
 470              		.loc 1 83 6 view .LVU106
 471 0218 83C410   		addl	$16, %esp
 472              		.cfi_def_cfa_offset 80
 473              	.LBB69:
 474              	.LBB68:
 475              		.loc 1 66 15 view .LVU107
 476 021b 89441D0C 		movl	%eax, 12(%ebp,%ebx)
GAS LISTING /tmp/ccTSiLmo.s 			page 11


 477              	.LBE68:
 478              	.LBE69:
 479              		.loc 1 81 3 is_stmt 1 view .LVU108
 480              		.loc 1 83 3 view .LVU109
 481              		.loc 1 83 10 is_stmt 0 view .LVU110
 482 021f 8B4604   		movl	4(%esi), %eax
 483              		.loc 1 83 6 view .LVU111
 484 0222 85C0     		testl	%eax, %eax
 485 0224 7402     		je	.L14
 486              		.loc 1 84 5 is_stmt 1 view .LVU112
 487 0226 FFD0     		call	*%eax
 488              	.LVL36:
 489              	.L14:
 490              		.loc 1 86 3 view .LVU113
 491 0228 FF560C   		call	*12(%esi)
 492              	.LVL37:
 493              		.loc 1 87 3 view .LVU114
 494              		.loc 1 87 10 is_stmt 0 view .LVU115
 495 022b 8B4608   		movl	8(%esi), %eax
 496              		.loc 1 87 6 view .LVU116
 497 022e 85C0     		testl	%eax, %eax
 498 0230 7402     		je	.L15
 499              		.loc 1 88 5 is_stmt 1 view .LVU117
 500 0232 FFD0     		call	*%eax
 501              	.LVL38:
 502              	.L15:
 503              		.loc 1 88 5 is_stmt 0 view .LVU118
 504              	.LBE65:
 505              	.LBE64:
 506              		.loc 1 185 7 is_stmt 1 view .LVU119
 507              		.loc 1 185 10 is_stmt 0 view .LVU120
 508 0234 807C1D05 		cmpb	$0, 5(%ebp,%ebx)
 508      00
 509 0239 0F840501 		je	.L16
 509      0000
 510              		.loc 1 186 9 is_stmt 1 view .LVU121
 511 023f 8D830000 		leal	.LC13@GOTOFF(%ebx), %eax
 511      0000
 512 0245 FF741D08 		pushl	8(%ebp,%ebx)
 513              		.cfi_def_cfa_offset 84
 514 0249 FF742424 		pushl	36(%esp)
 515              		.cfi_def_cfa_offset 88
 516 024d FF741D00 		pushl	0(%ebp,%ebx)
 517              		.cfi_def_cfa_offset 92
 518 0251 50       		pushl	%eax
 519              		.cfi_def_cfa_offset 96
 520 0252 E8FCFFFF 		call	test_printf@PLT
 520      FF
 521              	.LVL39:
 522              		.loc 1 187 9 view .LVU122
 523              	.LBB70:
 524              	.LBI70:
 525              		.loc 1 69 13 view .LVU123
 526              	.LBB71:
 527              		.loc 1 70 3 view .LVU124
 528              		.loc 1 72 3 view .LVU125
 529              		.loc 1 72 13 view .LVU126
GAS LISTING /tmp/ccTSiLmo.s 			page 12


 530              		.loc 1 70 9 is_stmt 0 view .LVU127
 531 0257 8B442420 		movl	32(%esp), %eax
 532              		.loc 1 72 13 view .LVU128
 533 025b 83C410   		addl	$16, %esp
 534              		.cfi_def_cfa_offset 80
 535              		.loc 1 70 9 view .LVU129
 536 025e 89C6     		movl	%eax, %esi
 537              		.loc 1 72 13 view .LVU130
 538 0260 39441D0C 		cmpl	%eax, 12(%ebp,%ebx)
 539 0264 7622     		jbe	.L19
 540              	.LVL40:
 541 0266 8DB42600 		.p2align 4,,10
 541      0000008D 
 541      7600
 542              		.p2align 3
 543              	.L17:
 544              		.loc 1 73 5 is_stmt 1 view .LVU131
 545 0270 0FBE06   		movsbl	(%esi), %eax
 546 0273 83EC0C   		subl	$12, %esp
 547              		.cfi_def_cfa_offset 92
 548              		.loc 1 73 21 is_stmt 0 view .LVU132
 549 0276 83C601   		addl	$1, %esi
 550              	.LVL41:
 551              		.loc 1 73 5 view .LVU133
 552 0279 50       		pushl	%eax
 553              		.cfi_def_cfa_offset 96
 554 027a E8FCFFFF 		call	test_putchar@PLT
 554      FF
 555              	.LVL42:
 556              		.loc 1 72 13 is_stmt 1 view .LVU134
 557 027f 83C410   		addl	$16, %esp
 558              		.cfi_def_cfa_offset 80
 559 0282 3B741D0C 		cmpl	12(%ebp,%ebx), %esi
 560 0286 72E8     		jb	.L17
 561              	.LVL43:
 562              	.L19:
 563              		.loc 1 72 13 is_stmt 0 view .LVU135
 564              	.LBE71:
 565              	.LBE70:
 566              		.loc 1 188 9 is_stmt 1 view .LVU136
 567 0288 83EC08   		subl	$8, %esp
 568              		.cfi_def_cfa_offset 88
 569 028b 8D830000 		leal	.LC14@GOTOFF(%ebx), %eax
 569      0000
 570 0291 FF741D08 		pushl	8(%ebp,%ebx)
 571              		.cfi_def_cfa_offset 92
 572 0295 50       		pushl	%eax
 573              		.cfi_def_cfa_offset 96
 574 0296 E8FCFFFF 		call	test_printf@PLT
 574      FF
 575              	.LVL44:
 576 029b 83C410   		addl	$16, %esp
 577              		.cfi_def_cfa_offset 80
 578              	.L18:
 579              	.LVL45:
 580              		.loc 1 175 47 view .LVU137
 581              		.loc 1 175 32 is_stmt 0 view .LVU138
GAS LISTING /tmp/ccTSiLmo.s 			page 13


 582 029e 8B4C240C 		movl	12(%esp), %ecx
 583              		.loc 1 175 15 view .LVU139
 584 02a2 8B4704   		movl	4(%edi), %eax
 585              		.loc 1 175 32 view .LVU140
 586 02a5 8B1408   		movl	(%eax,%ecx), %edx
 587              		.loc 1 175 47 view .LVU141
 588 02a8 8B4C2408 		movl	8(%esp), %ecx
 589              		.loc 1 175 39 view .LVU142
 590 02ac 8B5204   		movl	4(%edx), %edx
 591              		.loc 1 175 47 view .LVU143
 592 02af 8B540A04 		movl	4(%edx,%ecx), %edx
 593 02b3 85D2     		testl	%edx, %edx
 594 02b5 0F85BDFE 		jne	.L20
 594      FFFF
 595              	.LVL46:
 596              	.L11:
 597              		.loc 1 166 31 is_stmt 1 view .LVU144
 598 02bb 8B54240C 		movl	12(%esp), %edx
 599 02bf 8B441004 		movl	4(%eax,%edx), %eax
 600 02c3 85C0     		testl	%eax, %eax
 601 02c5 0F85F7FD 		jne	.L7
 601      FFFF
 602              	.LVL47:
 603              	.L21:
 604              	.LBB73:
 605              	.LBB72:
 606              		.loc 1 70 9 is_stmt 0 view .LVU145
 607 02cb BE4C0000 		movl	$76, %esi
 607      00
 608              		.p2align 4,,10
 609              		.p2align 3
 610              	.L8:
 611              	.LVL48:
 612              		.loc 1 70 9 view .LVU146
 613              	.LBE72:
 614              	.LBE73:
 615              	.LBB74:
 616              	.LBB75:
 617              		.loc 1 105 5 is_stmt 1 view .LVU147
 618 02d0 83EC0C   		subl	$12, %esp
 619              		.cfi_def_cfa_offset 92
 620 02d3 6A2D     		pushl	$45
 621              		.cfi_def_cfa_offset 96
 622 02d5 E8FCFFFF 		call	test_putchar@PLT
 622      FF
 623              	.LVL49:
 624              		.loc 1 104 24 view .LVU148
 625              		.loc 1 104 17 view .LVU149
 626 02da 83C410   		addl	$16, %esp
 627              		.cfi_def_cfa_offset 80
 628 02dd 83EE01   		subl	$1, %esi
 629              	.LVL50:
 630              		.loc 1 104 17 is_stmt 0 view .LVU150
 631 02e0 75EE     		jne	.L8
 632 02e2 8B742418 		movl	24(%esp), %esi
 633              	.LVL51:
 634              	.LBB76:
GAS LISTING /tmp/ccTSiLmo.s 			page 14


 635              	.LBB77:
 636              		.loc 1 95 13 view .LVU151
 637 02e6 B80D0000 		movl	$13, %eax
 637      00
 638              	.L22:
 639              	.LVL52:
 640              		.loc 1 96 5 is_stmt 1 view .LVU152
 641 02eb 83EC0C   		subl	$12, %esp
 642              		.cfi_def_cfa_offset 92
 643              		.loc 1 97 6 is_stmt 0 view .LVU153
 644 02ee 83C601   		addl	$1, %esi
 645              	.LVL53:
 646              		.loc 1 96 5 view .LVU154
 647 02f1 50       		pushl	%eax
 648              		.cfi_def_cfa_offset 96
 649 02f2 E8FCFFFF 		call	test_putchar@PLT
 649      FF
 650              	.LVL54:
 651              		.loc 1 97 5 is_stmt 1 view .LVU155
 652              		.loc 1 95 19 view .LVU156
 653              		.loc 1 95 13 is_stmt 0 view .LVU157
 654 02f7 0FBE06   		movsbl	(%esi), %eax
 655              	.LVL55:
 656              		.loc 1 95 19 view .LVU158
 657 02fa 83C410   		addl	$16, %esp
 658              		.cfi_def_cfa_offset 80
 659 02fd 84C0     		testb	%al, %al
 660 02ff 75EA     		jne	.L22
 661              	.LVL56:
 662              		.loc 1 95 19 view .LVU159
 663              	.LBE77:
 664              	.LBE76:
 665              	.LBE75:
 666              	.LBE74:
 667              		.loc 1 198 3 is_stmt 1 view .LVU160
 668 0301 83EC0C   		subl	$12, %esp
 669              		.cfi_def_cfa_offset 92
 670 0304 FF742424 		pushl	36(%esp)
 671              		.cfi_def_cfa_offset 96
 672 0308 E8FCFFFF 		call	test_printf@PLT
 672      FF
 673              	.LVL57:
 674              		.loc 1 199 3 view .LVU161
 675 030d 83C410   		addl	$16, %esp
 676              		.cfi_def_cfa_offset 80
 677 0310 80BB0400 		cmpb	$0, 4+chtest@GOTOFF(%ebx)
 677      000000
 678 0317 8D830000 		leal	.LC1@GOTOFF(%ebx), %eax
 678      0000
 679 031d 7506     		jne	.L23
 680 031f 8D830000 		leal	.LC2@GOTOFF(%ebx), %eax
 680      0000
 681              	.L23:
 682              		.loc 1 199 3 is_stmt 0 discriminator 4 view .LVU162
 683 0325 83EC08   		subl	$8, %esp
 684              		.cfi_def_cfa_offset 88
 685 0328 50       		pushl	%eax
GAS LISTING /tmp/ccTSiLmo.s 			page 15


 686              		.cfi_def_cfa_offset 92
 687 0329 8D830000 		leal	.LC16@GOTOFF(%ebx), %eax
 687      0000
 688 032f 50       		pushl	%eax
 689              		.cfi_def_cfa_offset 96
 690 0330 E8FCFFFF 		call	test_printf@PLT
 690      FF
 691              	.LVL58:
 692              		.loc 1 206 3 is_stmt 1 discriminator 4 view .LVU163
 693              		.loc 1 206 16 is_stmt 0 discriminator 4 view .LVU164
 694 0335 0FB68304 		movzbl	4+chtest@GOTOFF(%ebx), %eax
 694      000000
 695              		.loc 1 207 1 discriminator 4 view .LVU165
 696 033c 83C44C   		addl	$76, %esp
 697              		.cfi_def_cfa_offset 20
 698 033f 5B       		popl	%ebx
 699              		.cfi_restore 3
 700              		.cfi_def_cfa_offset 16
 701 0340 5E       		popl	%esi
 702              		.cfi_restore 6
 703              		.cfi_def_cfa_offset 12
 704 0341 5F       		popl	%edi
 705              		.cfi_restore 7
 706              		.cfi_def_cfa_offset 8
 707 0342 5D       		popl	%ebp
 708              		.cfi_restore 5
 709              		.cfi_def_cfa_offset 4
 710 0343 C3       		ret
 711              	.L16:
 712              		.cfi_def_cfa_offset 80
 713              		.cfi_offset 3, -20
 714              		.cfi_offset 5, -8
 715              		.cfi_offset 6, -16
 716              		.cfi_offset 7, -12
 717              		.loc 1 191 9 is_stmt 1 view .LVU166
 718 0344 83EC0C   		subl	$12, %esp
 719              		.cfi_def_cfa_offset 92
 720 0347 FF742430 		pushl	48(%esp)
 721              		.cfi_def_cfa_offset 96
 722 034b E8FCFFFF 		call	test_printf@PLT
 722      FF
 723              	.LVL59:
 724 0350 83C410   		addl	$16, %esp
 725              		.cfi_def_cfa_offset 80
 726 0353 E946FFFF 		jmp	.L18
 726      FF
 727              	.LVL60:
 728              	.L5:
 729              		.loc 1 136 5 view .LVU167
 730 0358 83EC0C   		subl	$12, %esp
 731              		.cfi_def_cfa_offset 92
 732 035b 8D830000 		leal	.LC4@GOTOFF(%ebx), %eax
 732      0000
 733 0361 50       		pushl	%eax
 734              		.cfi_def_cfa_offset 96
 735 0362 E8FCFFFF 		call	test_printf@PLT
 735      FF
GAS LISTING /tmp/ccTSiLmo.s 			page 16


 736              	.LVL61:
 737 0367 83C410   		addl	$16, %esp
 738              		.cfi_def_cfa_offset 80
 739 036a E9D9FCFF 		jmp	.L6
 739      FF
 740              		.cfi_endproc
 741              	.LFE310:
 742              		.size	test_execute_inner, .-test_execute_inner
 743              		.section	.text.__test_fail,"ax",@progbits
 744              		.p2align 4
 745              		.globl	__test_fail
 746              		.type	__test_fail, @function
 747              	__test_fail:
 748              	.LVL62:
 749              	.LFB311:
 750              		.loc 1 213 35 view -0
 751              		.cfi_startproc
 752              		.loc 1 215 3 view .LVU169
 753              		.loc 1 216 3 view .LVU170
 754 0000 E8FCFFFF 		call	__x86.get_pc_thunk.ax
 754      FF
 755 0005 05010000 		addl	$_GLOBAL_OFFSET_TABLE_, %eax
 755      00
 756              		.loc 1 216 26 is_stmt 0 view .LVU171
 757 000a BA010100 		movl	$257, %edx
 757      00
 758 000f 66899004 		movw	%dx, 4+chtest@GOTOFF(%eax)
 758      000000
 759              		.loc 1 217 3 is_stmt 1 view .LVU172
 760              		.loc 1 217 26 is_stmt 0 view .LVU173
 761 0016 8B542404 		movl	4(%esp), %edx
 762 001a 89900800 		movl	%edx, 8+chtest@GOTOFF(%eax)
 762      0000
 763              		.loc 1 218 3 is_stmt 1 view .LVU174
 764              		.loc 1 219 1 is_stmt 0 view .LVU175
 765 0020 B8010000 		movl	$1, %eax
 765      00
 766 0025 C3       		ret
 767              		.cfi_endproc
 768              	.LFE311:
 769              		.size	__test_fail, .-__test_fail
 770              		.section	.text.__test_assert,"ax",@progbits
 771              		.p2align 4
 772              		.globl	__test_assert
 773              		.type	__test_assert, @function
 774              	__test_assert:
 775              	.LVL63:
 776              	.LFB312:
 777              		.loc 1 221 53 is_stmt 1 view -0
 778              		.cfi_startproc
 779              		.loc 1 223 3 view .LVU177
 780 0000 E8FCFFFF 		call	__x86.get_pc_thunk.dx
 780      FF
 781 0005 81C20200 		addl	$_GLOBAL_OFFSET_TABLE_, %edx
 781      0000
 782              		.loc 1 226 10 is_stmt 0 view .LVU178
 783 000b 31C0     		xorl	%eax, %eax
GAS LISTING /tmp/ccTSiLmo.s 			page 17


 784              		.loc 1 223 6 view .LVU179
 785 000d 807C2404 		cmpb	$0, 4(%esp)
 785      00
 786 0012 7404     		je	.L50
 787              		.loc 1 227 1 view .LVU180
 788 0014 C3       		ret
 789              		.p2align 4,,10
 790 0015 8D7600   		.p2align 3
 791              	.L50:
 792              		.loc 1 224 5 is_stmt 1 view .LVU181
 793              	.LVL64:
 794              	.LBB78:
 795              	.LBI78:
 796              		.loc 1 213 6 view .LVU182
 797              	.LBB79:
 798              		.loc 1 215 3 view .LVU183
 799              		.loc 1 216 3 view .LVU184
 800              		.loc 1 216 26 is_stmt 0 view .LVU185
 801 0018 B8010100 		movl	$257, %eax
 801      00
 802 001d 66898204 		movw	%ax, 4+chtest@GOTOFF(%edx)
 802      000000
 803              		.loc 1 217 3 is_stmt 1 view .LVU186
 804              		.loc 1 217 26 is_stmt 0 view .LVU187
 805 0024 8B442408 		movl	8(%esp), %eax
 806 0028 89820800 		movl	%eax, 8+chtest@GOTOFF(%edx)
 806      0000
 807              		.loc 1 218 3 is_stmt 1 view .LVU188
 808              	.LVL65:
 809              		.loc 1 218 3 is_stmt 0 view .LVU189
 810              	.LBE79:
 811              	.LBE78:
 812              		.loc 1 224 12 view .LVU190
 813 002e B8010000 		movl	$1, %eax
 813      00
 814              		.loc 1 227 1 view .LVU191
 815 0033 C3       		ret
 816              		.cfi_endproc
 817              	.LFE312:
 818              		.size	__test_assert, .-__test_assert
 819              		.section	.text.__test_assert_sequence,"ax",@progbits
 820              		.p2align 4
 821              		.globl	__test_assert_sequence
 822              		.type	__test_assert_sequence, @function
 823              	__test_assert_sequence:
 824              	.LVL66:
 825              	.LFB313:
 826              		.loc 1 229 62 is_stmt 1 view -0
 827              		.cfi_startproc
 828              		.loc 1 230 3 view .LVU193
 829              		.loc 1 232 3 view .LVU194
 830              		.loc 1 229 62 is_stmt 0 view .LVU195
 831 0000 57       		pushl	%edi
 832              		.cfi_def_cfa_offset 8
 833              		.cfi_offset 7, -8
 834 0001 56       		pushl	%esi
 835              		.cfi_def_cfa_offset 12
GAS LISTING /tmp/ccTSiLmo.s 			page 18


 836              		.cfi_offset 6, -12
 837 0002 E8FCFFFF 		call	__x86.get_pc_thunk.si
 837      FF
 838 0007 81C60200 		addl	$_GLOBAL_OFFSET_TABLE_, %esi
 838      0000
 839 000d 53       		pushl	%ebx
 840              		.cfi_def_cfa_offset 16
 841              		.cfi_offset 3, -16
 842              		.loc 1 229 62 view .LVU196
 843 000e 8B542410 		movl	16(%esp), %edx
 844              		.loc 1 230 9 view .LVU197
 845 0012 8DBE1000 		leal	16+chtest@GOTOFF(%esi), %edi
 845      0000
 846              		.loc 1 232 21 view .LVU198
 847 0018 8B9E0C00 		movl	12+chtest@GOTOFF(%esi), %ebx
 847      0000
 848              		.loc 1 230 9 view .LVU199
 849 001e 89F8     		movl	%edi, %eax
 850              		.loc 1 232 9 view .LVU200
 851 0020 EB11     		jmp	.L52
 852              	.LVL67:
 853              		.p2align 4,,10
 854 0022 8DB60000 		.p2align 3
 854      0000
 855              	.L54:
 856              		.loc 1 233 5 is_stmt 1 view .LVU201
 857              		.loc 1 233 12 is_stmt 0 view .LVU202
 858 0028 83C001   		addl	$1, %eax
 859              	.LVL68:
 860              		.loc 1 233 27 view .LVU203
 861 002b 83C201   		addl	$1, %edx
 862              	.LVL69:
 863              		.loc 1 233 8 view .LVU204
 864 002e 3A48FF   		cmpb	-1(%eax), %cl
 865 0031 751D     		jne	.L55
 866              	.LVL70:
 867              	.L52:
 868              		.loc 1 232 13 is_stmt 1 view .LVU205
 869              		.loc 1 233 18 is_stmt 0 view .LVU206
 870 0033 0FB60A   		movzbl	(%edx), %ecx
 871              		.loc 1 232 13 view .LVU207
 872 0036 39C3     		cmpl	%eax, %ebx
 873 0038 77EE     		ja	.L54
 874              		.loc 1 237 3 is_stmt 1 view .LVU208
 875              		.loc 1 237 6 is_stmt 0 view .LVU209
 876 003a 84C9     		testb	%cl, %cl
 877 003c 7512     		jne	.L55
 878              		.loc 1 241 3 is_stmt 1 view .LVU210
 879              	.LBB80:
 880              	.LBI80:
 881              		.loc 1 64 13 view .LVU211
 882              	.LBB81:
 883              		.loc 1 66 3 view .LVU212
 884              		.loc 1 66 15 is_stmt 0 view .LVU213
 885 003e 89BE0C00 		movl	%edi, 12+chtest@GOTOFF(%esi)
 885      0000
 886              	.LBE81:
GAS LISTING /tmp/ccTSiLmo.s 			page 19


 887              	.LBE80:
 888              		.loc 1 243 3 is_stmt 1 view .LVU214
 889              		.loc 1 244 1 is_stmt 0 view .LVU215
 890 0044 5B       		popl	%ebx
 891              		.cfi_remember_state
 892              		.cfi_restore 3
 893              		.cfi_def_cfa_offset 12
 894              		.loc 1 243 10 view .LVU216
 895 0045 31C0     		xorl	%eax, %eax
 896              	.LVL71:
 897              		.loc 1 244 1 view .LVU217
 898 0047 5E       		popl	%esi
 899              		.cfi_restore 6
 900              		.cfi_def_cfa_offset 8
 901 0048 5F       		popl	%edi
 902              		.cfi_restore 7
 903              		.cfi_def_cfa_offset 4
 904 0049 C3       		ret
 905              	.LVL72:
 906 004a 8DB60000 		.p2align 4,,10
 906      0000
 907              		.p2align 3
 908              	.L55:
 909              		.cfi_restore_state
 910              		.loc 1 234 6 is_stmt 1 view .LVU218
 911              	.LBB82:
 912              	.LBI82:
 913              		.loc 1 213 6 view .LVU219
 914              	.LBB83:
 915              		.loc 1 215 3 view .LVU220
 916              		.loc 1 216 3 view .LVU221
 917              		.loc 1 216 26 is_stmt 0 view .LVU222
 918 0050 B8010100 		movl	$257, %eax
 918      00
 919              	.LVL73:
 920              		.loc 1 216 26 view .LVU223
 921 0055 66898604 		movw	%ax, 4+chtest@GOTOFF(%esi)
 921      000000
 922              		.loc 1 217 3 is_stmt 1 view .LVU224
 923              		.loc 1 217 26 is_stmt 0 view .LVU225
 924 005c 8B442414 		movl	20(%esp), %eax
 925              	.LBE83:
 926              	.LBE82:
 927              		.loc 1 244 1 view .LVU226
 928 0060 5B       		popl	%ebx
 929              		.cfi_restore 3
 930              		.cfi_def_cfa_offset 12
 931              	.LBB85:
 932              	.LBB84:
 933              		.loc 1 217 26 view .LVU227
 934 0061 89860800 		movl	%eax, 8+chtest@GOTOFF(%esi)
 934      0000
 935              		.loc 1 218 3 is_stmt 1 view .LVU228
 936              	.LVL74:
 937              		.loc 1 218 3 is_stmt 0 view .LVU229
 938              	.LBE84:
 939              	.LBE85:
GAS LISTING /tmp/ccTSiLmo.s 			page 20


 940              		.loc 1 234 13 view .LVU230
 941 0067 B8010000 		movl	$1, %eax
 941      00
 942              		.loc 1 244 1 view .LVU231
 943 006c 5E       		popl	%esi
 944              		.cfi_restore 6
 945              		.cfi_def_cfa_offset 8
 946 006d 5F       		popl	%edi
 947              		.cfi_restore 7
 948              		.cfi_def_cfa_offset 4
 949 006e C3       		ret
 950              		.cfi_endproc
 951              	.LFE313:
 952              		.size	__test_assert_sequence, .-__test_assert_sequence
 953              		.section	.text.__test_assert_time_window,"ax",@progbits
 954              		.p2align 4
 955              		.globl	__test_assert_time_window
 956              		.type	__test_assert_time_window, @function
 957              	__test_assert_time_window:
 958              	.LVL75:
 959              	.LFB314:
 960              		.loc 1 249 49 is_stmt 1 view -0
 961              		.cfi_startproc
 962              		.loc 1 251 3 view .LVU233
 963              	.LBB86:
 964              	.LBI86:
 965              		.loc 2 698 25 view .LVU234
 966              		.loc 2 700 3 view .LVU235
 967              	.LBB87:
 968              	.LBI87:
 969              		.file 3 "../../../os/rt/include/chvt.h"
 970              		.loc 3 135 25 view .LVU236
 971              	.LBB88:
 972              		.loc 3 138 3 view .LVU237
 973 0000 E8FCFFFF 		call	__x86.get_pc_thunk.cx
 973      FF
 974 0005 81C10200 		addl	$_GLOBAL_OFFSET_TABLE_, %ecx
 974      0000
 975              	.LBE88:
 976              	.LBE87:
 977              	.LBE86:
 978              		.loc 1 249 49 is_stmt 0 view .LVU238
 979 000b 53       		pushl	%ebx
 980              		.cfi_def_cfa_offset 8
 981              		.cfi_offset 3, -8
 982 000c 31DB     		xorl	%ebx, %ebx
 983              	.LBB91:
 984              	.LBB90:
 985              	.LBB89:
 986              		.loc 3 138 26 view .LVU239
 987 000e 8B810000 		movl	ch0@GOT(%ecx), %eax
 987      0000
 988 0014 8B501C   		movl	28(%eax), %edx
 989              	.LVL76:
 990              		.loc 3 138 26 view .LVU240
 991              	.LBE89:
 992              	.LBE90:
GAS LISTING /tmp/ccTSiLmo.s 			page 21


 993              	.LBE91:
 994              	.LBB92:
 995              	.LBI92:
 996              		.loc 2 746 20 is_stmt 1 view .LVU241
 997              		.loc 2 750 3 view .LVU242
 998              	.LBB93:
 999              	.LBI93:
 1000              		.file 4 "../../../os/rt/include/chtime.h"
 1001              		.loc 4 484 20 view .LVU243
 1002              	.LBB94:
 1003              		.loc 4 488 3 view .LVU244
 1004              		.loc 4 488 3 is_stmt 0 view .LVU245
 1005              	.LBE94:
 1006              	.LBE93:
 1007              	.LBE92:
 1008              	.LBB97:
 1009              	.LBI97:
 1010              		.loc 1 221 6 is_stmt 1 view .LVU246
 1011              	.LBB98:
 1012              		.loc 1 223 3 view .LVU247
 1013              	.LBE98:
 1014              	.LBE97:
 1015              	.LBB104:
 1016              	.LBB96:
 1017              	.LBB95:
 1018              		.loc 4 489 17 is_stmt 0 view .LVU248
 1019 0017 8B44240C 		movl	12(%esp), %eax
 1020              		.loc 4 488 17 view .LVU249
 1021 001b 2B542408 		subl	8(%esp), %edx
 1022              	.LVL77:
 1023              		.loc 4 489 17 view .LVU250
 1024 001f 2B442408 		subl	8(%esp), %eax
 1025              	.LBE95:
 1026              	.LBE96:
 1027              	.LBE104:
 1028              	.LBB105:
 1029              	.LBB103:
 1030              		.loc 1 223 6 view .LVU251
 1031 0023 39C2     		cmpl	%eax, %edx
 1032 0025 721B     		jb	.L58
 1033              		.loc 1 224 5 is_stmt 1 view .LVU252
 1034              	.LVL78:
 1035              	.LBB99:
 1036              	.LBI99:
 1037              		.loc 1 213 6 view .LVU253
 1038              	.LBB100:
 1039              		.loc 1 215 3 view .LVU254
 1040              		.loc 1 216 3 view .LVU255
 1041              		.loc 1 216 26 is_stmt 0 view .LVU256
 1042 0027 B8010100 		movl	$257, %eax
 1042      00
 1043              	.LBE100:
 1044              	.LBE99:
 1045              		.loc 1 224 12 view .LVU257
 1046 002c BB010000 		movl	$1, %ebx
 1046      00
 1047              	.LBB102:
GAS LISTING /tmp/ccTSiLmo.s 			page 22


 1048              	.LBB101:
 1049              		.loc 1 216 26 view .LVU258
 1050 0031 66898104 		movw	%ax, 4+chtest@GOTOFF(%ecx)
 1050      000000
 1051              		.loc 1 217 3 is_stmt 1 view .LVU259
 1052              		.loc 1 217 26 is_stmt 0 view .LVU260
 1053 0038 8B442410 		movl	16(%esp), %eax
 1054 003c 89810800 		movl	%eax, 8+chtest@GOTOFF(%ecx)
 1054      0000
 1055              		.loc 1 218 3 is_stmt 1 view .LVU261
 1056              	.LVL79:
 1057              	.L58:
 1058              		.loc 1 218 3 is_stmt 0 view .LVU262
 1059              	.LBE101:
 1060              	.LBE102:
 1061              	.LBE103:
 1062              	.LBE105:
 1063              		.loc 1 253 1 view .LVU263
 1064 0042 89D8     		movl	%ebx, %eax
 1065 0044 5B       		popl	%ebx
 1066              		.cfi_restore 3
 1067              		.cfi_def_cfa_offset 4
 1068 0045 C3       		ret
 1069              		.cfi_endproc
 1070              	.LFE314:
 1071              		.size	__test_assert_time_window, .-__test_assert_time_window
 1072              		.section	.text.test_emit_token,"ax",@progbits
 1073              		.p2align 4
 1074              		.globl	test_emit_token
 1075              		.type	test_emit_token, @function
 1076              	test_emit_token:
 1077              	.LVL80:
 1078              	.LFB315:
 1079              		.loc 1 263 34 is_stmt 1 view -0
 1080              		.cfi_startproc
 1081              		.loc 1 265 3 view .LVU265
 1082 0000 E8FCFFFF 		call	__x86.get_pc_thunk.ax
 1082      FF
 1083 0005 05010000 		addl	$_GLOBAL_OFFSET_TABLE_, %eax
 1083      00
 1084              		.loc 1 263 34 is_stmt 0 view .LVU266
 1085 000a 53       		pushl	%ebx
 1086              		.cfi_def_cfa_offset 8
 1087              		.cfi_offset 3, -8
 1088              		.loc 1 263 34 view .LVU267
 1089 000b 8B5C2408 		movl	8(%esp), %ebx
 1090              		.loc 1 265 13 view .LVU268
 1091 000f 8B900C00 		movl	12+chtest@GOTOFF(%eax), %edx
 1091      0000
 1092              		.loc 1 265 6 view .LVU269
 1093 0015 8D882000 		leal	32+chtest@GOTOFF(%eax), %ecx
 1093      0000
 1094 001b 39CA     		cmpl	%ecx, %edx
 1095 001d 730B     		jnb	.L63
 1096              		.loc 1 266 5 is_stmt 1 view .LVU270
 1097              		.loc 1 266 17 is_stmt 0 view .LVU271
 1098 001f 8D4A01   		leal	1(%edx), %ecx
GAS LISTING /tmp/ccTSiLmo.s 			page 23


 1099 0022 89880C00 		movl	%ecx, 12+chtest@GOTOFF(%eax)
 1099      0000
 1100              		.loc 1 266 20 view .LVU272
 1101 0028 881A     		movb	%bl, (%edx)
 1102              	.L63:
 1103              		.loc 1 268 1 view .LVU273
 1104 002a 5B       		popl	%ebx
 1105              		.cfi_restore 3
 1106              		.cfi_def_cfa_offset 4
 1107 002b C3       		ret
 1108              		.cfi_endproc
 1109              	.LFE315:
 1110              		.size	test_emit_token, .-test_emit_token
 1111              		.section	.text.test_execute_putchar,"ax",@progbits
 1112              		.p2align 4
 1113              		.globl	test_execute_putchar
 1114              		.type	test_execute_putchar, @function
 1115              	test_execute_putchar:
 1116              	.LVL81:
 1117              	.LFB316:
 1118              		.loc 1 283 51 is_stmt 1 view -0
 1119              		.cfi_startproc
 1120              		.loc 1 286 3 view .LVU275
 1121 0000 E8FCFFFF 		call	__x86.get_pc_thunk.ax
 1121      FF
 1122 0005 05010000 		addl	$_GLOBAL_OFFSET_TABLE_, %eax
 1122      00
 1123              		.loc 1 287 18 is_stmt 0 view .LVU276
 1124 000a 8B542404 		movl	4(%esp), %edx
 1125              		.loc 1 286 18 view .LVU277
 1126 000e C7802400 		movl	$0, 36+chtest@GOTOFF(%eax)
 1126      00000000 
 1126      0000
 1127              		.loc 1 287 3 is_stmt 1 view .LVU278
 1128              		.loc 1 287 18 is_stmt 0 view .LVU279
 1129 0018 89902000 		movl	%edx, 32+chtest@GOTOFF(%eax)
 1129      0000
 1130              		.loc 1 290 3 is_stmt 1 view .LVU280
 1131              		.loc 1 290 10 is_stmt 0 view .LVU281
 1132 001e 8B442408 		movl	8(%esp), %eax
 1133 0022 E9FCFFFF 		jmp	test_execute_inner
 1133      FF
 1134              	.LVL82:
 1135              		.cfi_endproc
 1136              	.LFE316:
 1137              		.size	test_execute_putchar, .-test_execute_putchar
 1138              		.section	.text.test_execute_stream,"ax",@progbits
 1139              		.p2align 4
 1140              		.globl	test_execute_stream
 1141              		.type	test_execute_stream, @function
 1142              	test_execute_stream:
 1143              	.LVL83:
 1144              	.LFB317:
 1145              		.loc 1 307 50 is_stmt 1 view -0
 1146              		.cfi_startproc
 1147              		.loc 1 310 3 view .LVU283
 1148 0000 E8FCFFFF 		call	__x86.get_pc_thunk.ax
GAS LISTING /tmp/ccTSiLmo.s 			page 24


 1148      FF
 1149 0005 05010000 		addl	$_GLOBAL_OFFSET_TABLE_, %eax
 1149      00
 1150              		.loc 1 310 18 is_stmt 0 view .LVU284
 1151 000a 8B542404 		movl	4(%esp), %edx
 1152 000e 89902400 		movl	%edx, 36+chtest@GOTOFF(%eax)
 1152      0000
 1153              		.loc 1 311 3 is_stmt 1 view .LVU285
 1154              		.loc 1 311 18 is_stmt 0 view .LVU286
 1155 0014 8D900000 		leal	test_stream_putchar@GOTOFF(%eax), %edx
 1155      0000
 1156 001a 89902000 		movl	%edx, 32+chtest@GOTOFF(%eax)
 1156      0000
 1157              		.loc 1 314 3 is_stmt 1 view .LVU287
 1158              		.loc 1 314 10 is_stmt 0 view .LVU288
 1159 0020 8B442408 		movl	8(%esp), %eax
 1160 0024 E9FCFFFF 		jmp	test_execute_inner
 1160      FF
 1161              	.LVL84:
 1162              		.cfi_endproc
 1163              	.LFE317:
 1164              		.size	test_execute_stream, .-test_execute_stream
 1165              		.globl	chtest
 1166              		.section	.bss.chtest,"aw",@nobits
 1167              		.align 32
 1168              		.type	chtest, @object
 1169              		.size	chtest, 40
 1170              	chtest:
 1171 0000 00000000 		.zero	40
 1171      00000000 
 1171      00000000 
 1171      00000000 
 1171      00000000 
 1172              		.section	.text.__x86.get_pc_thunk.ax,"axG",@progbits,__x86.get_pc_thunk.ax,comdat
 1173              		.globl	__x86.get_pc_thunk.ax
 1174              		.hidden	__x86.get_pc_thunk.ax
 1175              		.type	__x86.get_pc_thunk.ax, @function
 1176              	__x86.get_pc_thunk.ax:
 1177              	.LFB319:
 1178              		.cfi_startproc
 1179 0000 8B0424   		movl	(%esp), %eax
 1180 0003 C3       		ret
 1181              		.cfi_endproc
 1182              	.LFE319:
 1183              		.section	.text.__x86.get_pc_thunk.dx,"axG",@progbits,__x86.get_pc_thunk.dx,comdat
 1184              		.globl	__x86.get_pc_thunk.dx
 1185              		.hidden	__x86.get_pc_thunk.dx
 1186              		.type	__x86.get_pc_thunk.dx, @function
 1187              	__x86.get_pc_thunk.dx:
 1188              	.LFB320:
 1189              		.cfi_startproc
 1190 0000 8B1424   		movl	(%esp), %edx
 1191 0003 C3       		ret
 1192              		.cfi_endproc
 1193              	.LFE320:
 1194              		.section	.text.__x86.get_pc_thunk.cx,"axG",@progbits,__x86.get_pc_thunk.cx,comdat
 1195              		.globl	__x86.get_pc_thunk.cx
GAS LISTING /tmp/ccTSiLmo.s 			page 25


 1196              		.hidden	__x86.get_pc_thunk.cx
 1197              		.type	__x86.get_pc_thunk.cx, @function
 1198              	__x86.get_pc_thunk.cx:
 1199              	.LFB321:
 1200              		.cfi_startproc
 1201 0000 8B0C24   		movl	(%esp), %ecx
 1202 0003 C3       		ret
 1203              		.cfi_endproc
 1204              	.LFE321:
 1205              		.section	.text.__x86.get_pc_thunk.bx,"axG",@progbits,__x86.get_pc_thunk.bx,comdat
 1206              		.globl	__x86.get_pc_thunk.bx
 1207              		.hidden	__x86.get_pc_thunk.bx
 1208              		.type	__x86.get_pc_thunk.bx, @function
 1209              	__x86.get_pc_thunk.bx:
 1210              	.LFB322:
 1211              		.cfi_startproc
 1212 0000 8B1C24   		movl	(%esp), %ebx
 1213 0003 C3       		ret
 1214              		.cfi_endproc
 1215              	.LFE322:
 1216              		.section	.text.__x86.get_pc_thunk.si,"axG",@progbits,__x86.get_pc_thunk.si,comdat
 1217              		.globl	__x86.get_pc_thunk.si
 1218              		.hidden	__x86.get_pc_thunk.si
 1219              		.type	__x86.get_pc_thunk.si, @function
 1220              	__x86.get_pc_thunk.si:
 1221              	.LFB323:
 1222              		.cfi_startproc
 1223 0000 8B3424   		movl	(%esp), %esi
 1224 0003 C3       		ret
 1225              		.cfi_endproc
 1226              	.LFE323:
 1227              		.text
 1228              	.Letext0:
 1229              		.file 5 "/usr/lib/gcc/x86_64-linux-gnu/11/include/stddef.h"
 1230              		.file 6 "/usr/include/bits/types.h"
 1231              		.file 7 "/usr/include/bits/stdint-intn.h"
 1232              		.file 8 "/usr/include/bits/stdint-uintn.h"
 1233              		.file 9 "../../../os/common/ports/SIMIA32/compilers/GCC/chtypes.h"
 1234              		.file 10 "../../../os/rt/include/chearly.h"
 1235              		.file 11 "../../../os/rt/include/chobjects.h"
 1236              		.file 12 "../../../os/rt/include/chrfcu.h"
 1237              		.file 13 "../../../os/rt/include/chdebug.h"
 1238              		.file 14 "../../../os/rt/include/chlists.h"
 1239              		.file 15 "../../../os/common/ports/SIMIA32/chcore.h"
 1240              		.file 16 "../../../os/rt/include/chsem.h"
 1241              		.file 17 "../../../os/rt/include/chmtx.h"
 1242              		.file 18 "../../../os/hal/include/hal_streams.h"
 1243              		.file 19 "../../../os/test/include/ch_test.h"
 1244              		.file 20 "../../../os/rt/include/chthreads.h"
 1245              		.file 21 "../../../os/rt/include/chsys.h"
 5661 0045 2F686F6D 		.section	.note.GNU-stack,"",@progbits
 5661      652F616C 
 5661      65782F43 
 5661      68696269 
GAS LISTING /tmp/ccTSiLmo.s 			page 110


 5661      4F532F64 
GAS LISTING /tmp/ccTSiLmo.s 			page 111

