GAS LISTING /tmp/ccN2CQgX.s 			page 1


   1              		.file	"chdelegates.c"
   2              		.text
   3              	.Ltext0:
   4              		.file 0 "/home/alex/ChibiOS/demos/various/LAB1" "../../../os/oslib/src/chdelegates.c"
   5              		.section	.text.__ch_delegate_fn0,"ax",@progbits
   6              		.p2align 4
   7              		.globl	__ch_delegate_fn0
   8              		.type	__ch_delegate_fn0, @function
   9              	__ch_delegate_fn0:
  10              	.LVL0:
  11              	.LFB203:
  12              		.file 1 "../../../os/oslib/src/chdelegates.c"
  13              		.loc 1 88 41 view -0
  14              		.cfi_startproc
  15              		.loc 1 89 3 view .LVU1
  16              		.loc 1 88 41 is_stmt 0 view .LVU2
  17 0000 8B542404 		movl	4(%esp), %edx
  18              		.loc 1 89 18 view .LVU3
  19 0004 8B02     		movl	(%edx), %eax
  20 0006 8D4804   		leal	4(%eax), %ecx
  21 0009 890A     		movl	%ecx, (%edx)
  22              		.loc 1 90 3 is_stmt 1 view .LVU4
  23              		.loc 1 90 10 is_stmt 0 view .LVU5
  24 000b FF20     		jmp	*(%eax)
  25              	.LVL1:
  26              		.cfi_endproc
  27              	.LFE203:
  28              		.size	__ch_delegate_fn0, .-__ch_delegate_fn0
  29              		.section	.text.__ch_delegate_fn1,"ax",@progbits
  30              		.p2align 4
  31              		.globl	__ch_delegate_fn1
  32              		.type	__ch_delegate_fn1, @function
  33              	__ch_delegate_fn1:
  34              	.LVL2:
  35              	.LFB204:
  36              		.loc 1 99 41 is_stmt 1 view -0
  37              		.cfi_startproc
  38              		.loc 1 100 3 view .LVU7
  39              		.loc 1 99 41 is_stmt 0 view .LVU8
  40 0000 53       		pushl	%ebx
  41              		.cfi_def_cfa_offset 8
  42              		.cfi_offset 3, -8
  43              		.loc 1 99 41 view .LVU9
  44 0001 8B542408 		movl	8(%esp), %edx
  45              		.loc 1 100 18 view .LVU10
  46 0005 8B02     		movl	(%edx), %eax
  47 0007 8B08     		movl	(%eax), %ecx
  48              		.loc 1 101 3 is_stmt 1 view .LVU11
  49              		.loc 1 101 9 is_stmt 0 view .LVU12
  50 0009 8D5808   		leal	8(%eax), %ebx
  51              		.loc 1 102 10 view .LVU13
  52 000c 8B4004   		movl	4(%eax), %eax
  53              		.loc 1 101 9 view .LVU14
  54 000f 891A     		movl	%ebx, (%edx)
  55              		.loc 1 102 3 is_stmt 1 view .LVU15
  56              		.loc 1 102 10 is_stmt 0 view .LVU16
  57 0011 89442408 		movl	%eax, 8(%esp)
GAS LISTING /tmp/ccN2CQgX.s 			page 2


  58              	.LVL3:
  59              		.loc 1 103 1 view .LVU17
  60 0015 5B       		popl	%ebx
  61              		.cfi_restore 3
  62              		.cfi_def_cfa_offset 4
  63              		.loc 1 102 10 view .LVU18
  64 0016 FFE1     		jmp	*%ecx
  65              	.LVL4:
  66              		.loc 1 102 10 view .LVU19
  67              		.cfi_endproc
  68              	.LFE204:
  69              		.size	__ch_delegate_fn1, .-__ch_delegate_fn1
  70              		.section	.text.__ch_delegate_fn2,"ax",@progbits
  71              		.p2align 4
  72              		.globl	__ch_delegate_fn2
  73              		.type	__ch_delegate_fn2, @function
  74              	__ch_delegate_fn2:
  75              	.LVL5:
  76              	.LFB205:
  77              		.loc 1 111 41 is_stmt 1 view -0
  78              		.cfi_startproc
  79              		.loc 1 112 3 view .LVU21
  80              		.loc 1 111 41 is_stmt 0 view .LVU22
  81 0000 56       		pushl	%esi
  82              		.cfi_def_cfa_offset 8
  83              		.cfi_offset 6, -8
  84 0001 53       		pushl	%ebx
  85              		.cfi_def_cfa_offset 12
  86              		.cfi_offset 3, -12
  87 0002 83EC0C   		subl	$12, %esp
  88              		.cfi_def_cfa_offset 24
  89              		.loc 1 111 41 view .LVU23
  90 0005 8B542418 		movl	24(%esp), %edx
  91              		.loc 1 112 18 view .LVU24
  92 0009 8B02     		movl	(%edx), %eax
  93              		.loc 1 113 9 view .LVU25
  94 000b 8B5804   		movl	4(%eax), %ebx
  95              		.loc 1 114 9 view .LVU26
  96 000e 8D700C   		leal	12(%eax), %esi
  97              		.loc 1 112 18 view .LVU27
  98 0011 8B08     		movl	(%eax), %ecx
  99              		.loc 1 113 3 is_stmt 1 view .LVU28
 100              		.loc 1 114 3 view .LVU29
 101              		.loc 1 114 9 is_stmt 0 view .LVU30
 102 0013 8932     		movl	%esi, (%edx)
 103              		.loc 1 115 3 is_stmt 1 view .LVU31
 104              		.loc 1 115 10 is_stmt 0 view .LVU32
 105 0015 FF7008   		pushl	8(%eax)
 106              		.cfi_def_cfa_offset 28
 107 0018 53       		pushl	%ebx
 108              		.cfi_def_cfa_offset 32
 109 0019 FFD1     		call	*%ecx
 110              	.LVL6:
 111              		.loc 1 116 1 view .LVU33
 112 001b 83C414   		addl	$20, %esp
 113              		.cfi_def_cfa_offset 12
 114 001e 5B       		popl	%ebx
GAS LISTING /tmp/ccN2CQgX.s 			page 3


 115              		.cfi_restore 3
 116              		.cfi_def_cfa_offset 8
 117 001f 5E       		popl	%esi
 118              		.cfi_restore 6
 119              		.cfi_def_cfa_offset 4
 120 0020 C3       		ret
 121              		.cfi_endproc
 122              	.LFE205:
 123              		.size	__ch_delegate_fn2, .-__ch_delegate_fn2
 124              		.section	.text.__ch_delegate_fn3,"ax",@progbits
 125              		.p2align 4
 126              		.globl	__ch_delegate_fn3
 127              		.type	__ch_delegate_fn3, @function
 128              	__ch_delegate_fn3:
 129              	.LVL7:
 130              	.LFB206:
 131              		.loc 1 124 41 is_stmt 1 view -0
 132              		.cfi_startproc
 133              		.loc 1 125 3 view .LVU35
 134              		.loc 1 124 41 is_stmt 0 view .LVU36
 135 0000 57       		pushl	%edi
 136              		.cfi_def_cfa_offset 8
 137              		.cfi_offset 7, -8
 138 0001 56       		pushl	%esi
 139              		.cfi_def_cfa_offset 12
 140              		.cfi_offset 6, -12
 141 0002 53       		pushl	%ebx
 142              		.cfi_def_cfa_offset 16
 143              		.cfi_offset 3, -16
 144              		.loc 1 124 41 view .LVU37
 145 0003 8B542410 		movl	16(%esp), %edx
 146              		.loc 1 125 18 view .LVU38
 147 0007 8B02     		movl	(%edx), %eax
 148              		.loc 1 129 10 view .LVU39
 149 0009 83EC04   		subl	$4, %esp
 150              		.cfi_def_cfa_offset 20
 151              		.loc 1 126 9 view .LVU40
 152 000c 8B5804   		movl	4(%eax), %ebx
 153              		.loc 1 127 9 view .LVU41
 154 000f 8B7008   		movl	8(%eax), %esi
 155              		.loc 1 128 9 view .LVU42
 156 0012 8D7810   		leal	16(%eax), %edi
 157              		.loc 1 125 18 view .LVU43
 158 0015 8B08     		movl	(%eax), %ecx
 159              		.loc 1 126 3 is_stmt 1 view .LVU44
 160              		.loc 1 127 3 view .LVU45
 161              		.loc 1 128 3 view .LVU46
 162              		.loc 1 128 9 is_stmt 0 view .LVU47
 163 0017 893A     		movl	%edi, (%edx)
 164              		.loc 1 129 3 is_stmt 1 view .LVU48
 165              		.loc 1 129 10 is_stmt 0 view .LVU49
 166 0019 FF700C   		pushl	12(%eax)
 167              		.cfi_def_cfa_offset 24
 168 001c 56       		pushl	%esi
 169              		.cfi_def_cfa_offset 28
 170 001d 53       		pushl	%ebx
 171              		.cfi_def_cfa_offset 32
GAS LISTING /tmp/ccN2CQgX.s 			page 4


 172 001e FFD1     		call	*%ecx
 173              	.LVL8:
 174 0020 83C410   		addl	$16, %esp
 175              		.cfi_def_cfa_offset 16
 176              		.loc 1 130 1 view .LVU50
 177 0023 5B       		popl	%ebx
 178              		.cfi_restore 3
 179              		.cfi_def_cfa_offset 12
 180 0024 5E       		popl	%esi
 181              		.cfi_restore 6
 182              		.cfi_def_cfa_offset 8
 183 0025 5F       		popl	%edi
 184              		.cfi_restore 7
 185              		.cfi_def_cfa_offset 4
 186 0026 C3       		ret
 187              		.cfi_endproc
 188              	.LFE206:
 189              		.size	__ch_delegate_fn3, .-__ch_delegate_fn3
 190              		.section	.text.__ch_delegate_fn4,"ax",@progbits
 191              		.p2align 4
 192              		.globl	__ch_delegate_fn4
 193              		.type	__ch_delegate_fn4, @function
 194              	__ch_delegate_fn4:
 195              	.LVL9:
 196              	.LFB207:
 197              		.loc 1 138 41 is_stmt 1 view -0
 198              		.cfi_startproc
 199              		.loc 1 139 3 view .LVU52
 200              		.loc 1 138 41 is_stmt 0 view .LVU53
 201 0000 55       		pushl	%ebp
 202              		.cfi_def_cfa_offset 8
 203              		.cfi_offset 5, -8
 204 0001 57       		pushl	%edi
 205              		.cfi_def_cfa_offset 12
 206              		.cfi_offset 7, -12
 207 0002 56       		pushl	%esi
 208              		.cfi_def_cfa_offset 16
 209              		.cfi_offset 6, -16
 210 0003 53       		pushl	%ebx
 211              		.cfi_def_cfa_offset 20
 212              		.cfi_offset 3, -20
 213 0004 83EC0C   		subl	$12, %esp
 214              		.cfi_def_cfa_offset 32
 215              		.loc 1 138 41 view .LVU54
 216 0007 8B542420 		movl	32(%esp), %edx
 217              		.loc 1 139 18 view .LVU55
 218 000b 8B02     		movl	(%edx), %eax
 219              		.loc 1 140 9 view .LVU56
 220 000d 8B5804   		movl	4(%eax), %ebx
 221              		.loc 1 141 9 view .LVU57
 222 0010 8B7008   		movl	8(%eax), %esi
 223              		.loc 1 143 9 view .LVU58
 224 0013 8D6814   		leal	20(%eax), %ebp
 225              		.loc 1 142 9 view .LVU59
 226 0016 8B780C   		movl	12(%eax), %edi
 227              		.loc 1 139 18 view .LVU60
 228 0019 8B08     		movl	(%eax), %ecx
GAS LISTING /tmp/ccN2CQgX.s 			page 5


 229              		.loc 1 140 3 is_stmt 1 view .LVU61
 230              		.loc 1 141 3 view .LVU62
 231              		.loc 1 142 3 view .LVU63
 232              		.loc 1 143 3 view .LVU64
 233              		.loc 1 143 9 is_stmt 0 view .LVU65
 234 001b 892A     		movl	%ebp, (%edx)
 235              		.loc 1 144 3 is_stmt 1 view .LVU66
 236              		.loc 1 144 10 is_stmt 0 view .LVU67
 237 001d FF7010   		pushl	16(%eax)
 238              		.cfi_def_cfa_offset 36
 239 0020 57       		pushl	%edi
 240              		.cfi_def_cfa_offset 40
 241 0021 56       		pushl	%esi
 242              		.cfi_def_cfa_offset 44
 243 0022 53       		pushl	%ebx
 244              		.cfi_def_cfa_offset 48
 245 0023 FFD1     		call	*%ecx
 246              	.LVL10:
 247              		.loc 1 145 1 view .LVU68
 248 0025 83C41C   		addl	$28, %esp
 249              		.cfi_def_cfa_offset 20
 250 0028 5B       		popl	%ebx
 251              		.cfi_restore 3
 252              		.cfi_def_cfa_offset 16
 253 0029 5E       		popl	%esi
 254              		.cfi_restore 6
 255              		.cfi_def_cfa_offset 12
 256 002a 5F       		popl	%edi
 257              		.cfi_restore 7
 258              		.cfi_def_cfa_offset 8
 259 002b 5D       		popl	%ebp
 260              		.cfi_restore 5
 261              		.cfi_def_cfa_offset 4
 262 002c C3       		ret
 263              		.cfi_endproc
 264              	.LFE207:
 265              		.size	__ch_delegate_fn4, .-__ch_delegate_fn4
 266              		.section	.text.chDelegateCallVeneer,"ax",@progbits
 267              		.p2align 4
 268              		.globl	chDelegateCallVeneer
 269              		.type	chDelegateCallVeneer, @function
 270              	chDelegateCallVeneer:
 271              	.LVL11:
 272              	.LFB208:
 273              		.loc 1 158 73 is_stmt 1 view -0
 274              		.cfi_startproc
 275              		.loc 1 158 73 is_stmt 0 view .LVU70
 276 0000 53       		pushl	%ebx
 277              		.cfi_def_cfa_offset 8
 278              		.cfi_offset 3, -8
 279 0001 E8FCFFFF 		call	__x86.get_pc_thunk.bx
 279      FF
 280 0006 81C30200 		addl	$_GLOBAL_OFFSET_TABLE_, %ebx
 280      0000
 281 000c 83EC18   		subl	$24, %esp
 282              		.cfi_def_cfa_offset 32
 283              		.loc 1 158 73 view .LVU71
GAS LISTING /tmp/ccN2CQgX.s 			page 6


 284 000f 65A11400 		movl	%gs:20, %eax
 284      0000
 285 0015 8944240C 		movl	%eax, 12(%esp)
 286 0019 31C0     		xorl	%eax, %eax
 287              		.loc 1 159 3 is_stmt 1 view .LVU72
 288              		.loc 1 160 3 view .LVU73
 289              		.loc 1 161 3 view .LVU74
 290              		.loc 1 163 3 view .LVU75
 291 001b 8D442428 		leal	40(%esp), %eax
 292 001f 890424   		movl	%eax, (%esp)
 293              		.loc 1 166 3 view .LVU76
 294              		.loc 1 166 13 is_stmt 0 view .LVU77
 295 0022 8B442424 		movl	36(%esp), %eax
 296 0026 89442404 		movl	%eax, 4(%esp)
 297              		.loc 1 167 3 is_stmt 1 view .LVU78
 298              		.loc 1 167 13 is_stmt 0 view .LVU79
 299 002a 89E0     		movl	%esp, %eax
 300              		.loc 1 172 9 view .LVU80
 301 002c 83EC08   		subl	$8, %esp
 302              		.cfi_def_cfa_offset 40
 303              		.loc 1 167 13 view .LVU81
 304 002f 89442410 		movl	%eax, 16(%esp)
 305              		.loc 1 168 3 is_stmt 1 view .LVU82
 306              		.loc 1 172 3 view .LVU83
 307              		.loc 1 172 9 is_stmt 0 view .LVU84
 308 0033 8D44240C 		leal	12(%esp), %eax
 309 0037 50       		pushl	%eax
 310              		.cfi_def_cfa_offset 44
 311 0038 FF74242C 		pushl	44(%esp)
 312              		.cfi_def_cfa_offset 48
 313 003c E8FCFFFF 		call	chMsgSend@PLT
 313      FF
 314              	.LVL12:
 315              		.loc 1 174 3 is_stmt 1 view .LVU85
 316              		.loc 1 176 3 view .LVU86
 317              		.loc 1 176 10 is_stmt 0 view .LVU87
 318 0041 83C410   		addl	$16, %esp
 319              		.cfi_def_cfa_offset 32
 320              		.loc 1 177 1 view .LVU88
 321 0044 8B54240C 		movl	12(%esp), %edx
 322 0048 652B1514 		subl	%gs:20, %edx
 322      000000
 323 004f 7505     		jne	.L14
 324 0051 83C418   		addl	$24, %esp
 325              		.cfi_remember_state
 326              		.cfi_def_cfa_offset 8
 327 0054 5B       		popl	%ebx
 328              		.cfi_restore 3
 329              		.cfi_def_cfa_offset 4
 330 0055 C3       		ret
 331              	.L14:
 332              		.cfi_restore_state
 333 0056 E8FCFFFF 		call	__stack_chk_fail_local
 333      FF
 334              	.LVL13:
 335              		.loc 1 177 1 view .LVU89
 336              		.cfi_endproc
GAS LISTING /tmp/ccN2CQgX.s 			page 7


 337              	.LFE208:
 338              		.size	chDelegateCallVeneer, .-chDelegateCallVeneer
 339              		.section	.text.chDelegateDispatch,"ax",@progbits
 340              		.p2align 4
 341              		.globl	chDelegateDispatch
 342              		.type	chDelegateDispatch, @function
 343              	chDelegateDispatch:
 344              	.LFB209:
 345              		.loc 1 190 31 is_stmt 1 view -0
 346              		.cfi_startproc
 347              		.loc 1 191 3 view .LVU91
 348              		.loc 1 192 3 view .LVU92
 349              		.loc 1 193 3 view .LVU93
 350              		.loc 1 195 3 view .LVU94
 351              	.LBB44:
 352              	.LBI44:
 353              		.file 2 "../../../os/rt/include/chmsg.h"
 354              		.loc 2 95 25 view .LVU95
 355              	.LBB45:
 356              		.loc 2 96 3 view .LVU96
 357              		.loc 2 98 3 view .LVU97
 358              	.LBB46:
 359              	.LBI46:
 360              		.file 3 "../../../os/rt/include/chsys.h"
 361              		.loc 3 407 20 view .LVU98
 362              		.loc 3 409 3 view .LVU99
 363              	.LBB47:
 364              	.LBI47:
 365              		.file 4 "../../../os/common/ports/SIMIA32/chcore.h"
 366              		.loc 4 361 20 view .LVU100
 367              	.LBB48:
 368              		.loc 4 363 3 view .LVU101
 369              	.LBE48:
 370              	.LBE47:
 371              	.LBE46:
 372              	.LBE45:
 373              	.LBE44:
 374              		.loc 1 190 31 is_stmt 0 view .LVU102
 375 0000 57       		pushl	%edi
 376              		.cfi_def_cfa_offset 8
 377              		.cfi_offset 7, -8
 378 0001 56       		pushl	%esi
 379              		.cfi_def_cfa_offset 12
 380              		.cfi_offset 6, -12
 381 0002 E8FCFFFF 		call	__x86.get_pc_thunk.si
 381      FF
 382 0007 81C60200 		addl	$_GLOBAL_OFFSET_TABLE_, %esi
 382      0000
 383 000d 53       		pushl	%ebx
 384              		.cfi_def_cfa_offset 16
 385              		.cfi_offset 3, -16
 386              	.LBB65:
 387              	.LBB63:
 388              	.LBB53:
 389              	.LBB51:
 390              	.LBB49:
 391              		.loc 4 363 16 view .LVU103
GAS LISTING /tmp/ccN2CQgX.s 			page 8


 392 000e 8BBE0000 		movl	port_irq_sts@GOT(%esi), %edi
 392      0000
 393              	.LBE49:
 394              	.LBE51:
 395              	.LBE53:
 396              		.loc 2 99 8 view .LVU104
 397 0014 89F3     		movl	%esi, %ebx
 398              	.LBB54:
 399              	.LBB52:
 400              	.LBB50:
 401              		.loc 4 363 16 view .LVU105
 402 0016 C7070100 		movl	$1, (%edi)
 402      0000
 403              	.LBE50:
 404              	.LBE52:
 405              		.loc 3 410 35 is_stmt 1 view .LVU106
 406              		.loc 3 411 21 view .LVU107
 407              	.LBE54:
 408              		.loc 2 99 3 view .LVU108
 409              		.loc 2 99 8 is_stmt 0 view .LVU109
 410 001c E8FCFFFF 		call	chMsgWaitS@PLT
 410      FF
 411              	.LVL14:
 412              	.LBE63:
 413              	.LBE65:
 414              		.loc 1 197 9 view .LVU110
 415 0021 83EC0C   		subl	$12, %esp
 416              		.cfi_def_cfa_offset 28
 417              	.LBB66:
 418              	.LBB64:
 419              	.LBB55:
 420              	.LBB56:
 421              	.LBB57:
 422              	.LBB58:
 423              		.loc 4 372 16 view .LVU111
 424 0024 C7070000 		movl	$0, (%edi)
 424      0000
 425              	.LBE58:
 426              	.LBE57:
 427              	.LBE56:
 428              	.LBE55:
 429              		.loc 2 99 8 view .LVU112
 430 002a 89C3     		movl	%eax, %ebx
 431              	.LVL15:
 432              		.loc 2 100 3 is_stmt 1 view .LVU113
 433              	.LBB62:
 434              	.LBI55:
 435              		.loc 3 421 20 view .LVU114
 436              	.LBB61:
 437              		.loc 3 423 23 view .LVU115
 438              		.loc 3 424 34 view .LVU116
 439              		.loc 3 430 3 view .LVU117
 440              		.loc 3 430 3 view .LVU118
 441              		.loc 3 430 3 view .LVU119
 442              		.loc 3 434 3 view .LVU120
 443              	.LBB60:
 444              	.LBI57:
GAS LISTING /tmp/ccN2CQgX.s 			page 9


 445              		.loc 4 370 20 view .LVU121
 446              	.LBB59:
 447              		.loc 4 372 3 view .LVU122
 448              	.LBE59:
 449              	.LBE60:
 450              	.LBE61:
 451              	.LBE62:
 452              		.loc 2 102 3 view .LVU123
 453              		.loc 2 102 3 is_stmt 0 view .LVU124
 454              	.LBE64:
 455              	.LBE66:
 456              		.loc 1 196 3 is_stmt 1 view .LVU125
 457              	.LBB67:
 458              	.LBI67:
 459              		.loc 2 189 21 view .LVU126
 460              	.LBB68:
 461              		.loc 2 191 3 view .LVU127
 462              		.loc 2 191 3 view .LVU128
 463              		.loc 2 191 3 view .LVU129
 464              		.loc 2 193 3 view .LVU130
 465              		.loc 2 193 3 is_stmt 0 view .LVU131
 466              	.LBE68:
 467              	.LBE67:
 468              		.loc 1 196 7 view .LVU132
 469 002c 8B4034   		movl	52(%eax), %eax
 470              	.LVL16:
 471              		.loc 1 197 3 is_stmt 1 view .LVU133
 472              		.loc 1 197 9 is_stmt 0 view .LVU134
 473 002f FF7004   		pushl	4(%eax)
 474              		.cfi_def_cfa_offset 32
 475 0032 FF10     		call	*(%eax)
 476              	.LVL17:
 477              		.loc 1 199 3 is_stmt 1 view .LVU135
 478 0034 5A       		popl	%edx
 479              		.cfi_def_cfa_offset 28
 480 0035 59       		popl	%ecx
 481              		.cfi_def_cfa_offset 24
 482 0036 50       		pushl	%eax
 483              		.cfi_def_cfa_offset 28
 484 0037 53       		pushl	%ebx
 485              		.cfi_def_cfa_offset 32
 486 0038 89F3     		movl	%esi, %ebx
 487              	.LVL18:
 488              		.loc 1 199 3 is_stmt 0 view .LVU136
 489 003a E8FCFFFF 		call	chMsgRelease@PLT
 489      FF
 490              	.LVL19:
 491              		.loc 1 200 1 view .LVU137
 492 003f 83C410   		addl	$16, %esp
 493              		.cfi_def_cfa_offset 16
 494 0042 5B       		popl	%ebx
 495              		.cfi_restore 3
 496              		.cfi_def_cfa_offset 12
 497 0043 5E       		popl	%esi
 498              		.cfi_restore 6
 499              		.cfi_def_cfa_offset 8
 500 0044 5F       		popl	%edi
GAS LISTING /tmp/ccN2CQgX.s 			page 10


 501              		.cfi_restore 7
 502              		.cfi_def_cfa_offset 4
 503 0045 C3       		ret
 504              		.cfi_endproc
 505              	.LFE209:
 506              		.size	chDelegateDispatch, .-chDelegateDispatch
 507              		.section	.text.chDelegateDispatchTimeout,"ax",@progbits
 508              		.p2align 4
 509              		.globl	chDelegateDispatchTimeout
 510              		.type	chDelegateDispatchTimeout, @function
 511              	chDelegateDispatchTimeout:
 512              	.LVL20:
 513              	.LFB210:
 514              		.loc 1 218 56 is_stmt 1 view -0
 515              		.cfi_startproc
 516              		.loc 1 219 3 view .LVU139
 517              		.loc 1 220 3 view .LVU140
 518              		.loc 1 221 3 view .LVU141
 519              		.loc 1 223 3 view .LVU142
 520              		.loc 1 218 56 is_stmt 0 view .LVU143
 521 0000 57       		pushl	%edi
 522              		.cfi_def_cfa_offset 8
 523              		.cfi_offset 7, -8
 524 0001 56       		pushl	%esi
 525              		.cfi_def_cfa_offset 12
 526              		.cfi_offset 6, -12
 527 0002 E8FCFFFF 		call	__x86.get_pc_thunk.si
 527      FF
 528 0007 81C60200 		addl	$_GLOBAL_OFFSET_TABLE_, %esi
 528      0000
 529 000d 53       		pushl	%ebx
 530              		.cfi_def_cfa_offset 16
 531              		.cfi_offset 3, -16
 532              	.LVL21:
 533              	.LBB69:
 534              	.LBI69:
 535              		.loc 2 127 25 is_stmt 1 view .LVU144
 536              	.LBB70:
 537              		.loc 2 128 3 view .LVU145
 538              		.loc 2 130 3 view .LVU146
 539              	.LBB71:
 540              	.LBI71:
 541              		.loc 3 407 20 view .LVU147
 542              		.loc 3 409 3 view .LVU148
 543              	.LBB72:
 544              	.LBI72:
 545              		.loc 4 361 20 view .LVU149
 546              	.LBB73:
 547              		.loc 4 363 3 view .LVU150
 548              	.LBE73:
 549              	.LBE72:
 550              	.LBE71:
 551              		.loc 2 131 8 is_stmt 0 view .LVU151
 552 000e 83EC0C   		subl	$12, %esp
 553              		.cfi_def_cfa_offset 28
 554 0011 FF74241C 		pushl	28(%esp)
 555              		.cfi_def_cfa_offset 32
GAS LISTING /tmp/ccN2CQgX.s 			page 11


 556              	.LBB78:
 557              	.LBB76:
 558              	.LBB74:
 559              		.loc 4 363 16 view .LVU152
 560 0015 8BBE0000 		movl	port_irq_sts@GOT(%esi), %edi
 560      0000
 561              	.LBE74:
 562              	.LBE76:
 563              	.LBE78:
 564              		.loc 2 131 8 view .LVU153
 565 001b 89F3     		movl	%esi, %ebx
 566              	.LBB79:
 567              	.LBB77:
 568              	.LBB75:
 569              		.loc 4 363 16 view .LVU154
 570 001d C7070100 		movl	$1, (%edi)
 570      0000
 571              	.LBE75:
 572              	.LBE77:
 573              		.loc 3 410 35 is_stmt 1 view .LVU155
 574              		.loc 3 411 21 view .LVU156
 575              	.LBE79:
 576              		.loc 2 131 3 view .LVU157
 577              		.loc 2 131 8 is_stmt 0 view .LVU158
 578 0023 E8FCFFFF 		call	chMsgWaitTimeoutS@PLT
 578      FF
 579              	.LVL22:
 580              		.loc 2 132 3 is_stmt 1 view .LVU159
 581              	.LBB80:
 582              	.LBI80:
 583              		.loc 3 421 20 view .LVU160
 584              	.LBB81:
 585              		.loc 3 423 23 view .LVU161
 586              		.loc 3 424 34 view .LVU162
 587              		.loc 3 430 3 view .LVU163
 588              		.loc 3 430 3 view .LVU164
 589              		.loc 3 430 3 view .LVU165
 590              		.loc 3 434 3 view .LVU166
 591              	.LBB82:
 592              	.LBI82:
 593              		.loc 4 370 20 view .LVU167
 594              	.LBB83:
 595              		.loc 4 372 3 view .LVU168
 596              		.loc 4 372 16 is_stmt 0 view .LVU169
 597 0028 C7070000 		movl	$0, (%edi)
 597      0000
 598              	.LBE83:
 599              	.LBE82:
 600              	.LBE81:
 601              	.LBE80:
 602              		.loc 2 134 3 is_stmt 1 view .LVU170
 603              	.LVL23:
 604              		.loc 2 134 3 is_stmt 0 view .LVU171
 605              	.LBE70:
 606              	.LBE69:
 607              		.loc 1 224 3 is_stmt 1 view .LVU172
 608              		.loc 1 224 6 is_stmt 0 view .LVU173
GAS LISTING /tmp/ccN2CQgX.s 			page 12


 609 002e 83C410   		addl	$16, %esp
 610              		.cfi_def_cfa_offset 16
 611 0031 85C0     		testl	%eax, %eax
 612 0033 7421     		je	.L19
 613 0035 89C3     		movl	%eax, %ebx
 614              		.loc 1 228 3 is_stmt 1 view .LVU174
 615              	.LVL24:
 616              	.LBB84:
 617              	.LBI84:
 618              		.loc 2 189 21 view .LVU175
 619              	.LBB85:
 620              		.loc 2 191 3 view .LVU176
 621              		.loc 2 191 3 view .LVU177
 622              		.loc 2 191 3 view .LVU178
 623              		.loc 2 193 3 view .LVU179
 624              		.loc 2 193 3 is_stmt 0 view .LVU180
 625              	.LBE85:
 626              	.LBE84:
 627              		.loc 1 228 7 view .LVU181
 628 0037 8B4034   		movl	52(%eax), %eax
 629              	.LVL25:
 630              		.loc 1 229 3 is_stmt 1 view .LVU182
 631              		.loc 1 229 9 is_stmt 0 view .LVU183
 632 003a 83EC0C   		subl	$12, %esp
 633              		.cfi_def_cfa_offset 28
 634 003d FF7004   		pushl	4(%eax)
 635              		.cfi_def_cfa_offset 32
 636 0040 FF10     		call	*(%eax)
 637              	.LVL26:
 638              		.loc 1 231 3 is_stmt 1 view .LVU184
 639 0042 5A       		popl	%edx
 640              		.cfi_def_cfa_offset 28
 641 0043 59       		popl	%ecx
 642              		.cfi_def_cfa_offset 24
 643 0044 50       		pushl	%eax
 644              		.cfi_def_cfa_offset 28
 645 0045 53       		pushl	%ebx
 646              		.cfi_def_cfa_offset 32
 647 0046 89F3     		movl	%esi, %ebx
 648              	.LVL27:
 649              		.loc 1 231 3 is_stmt 0 view .LVU185
 650 0048 E8FCFFFF 		call	chMsgRelease@PLT
 650      FF
 651              	.LVL28:
 652              		.loc 1 233 3 is_stmt 1 view .LVU186
 653              		.loc 1 233 10 is_stmt 0 view .LVU187
 654 004d 83C410   		addl	$16, %esp
 655              		.cfi_def_cfa_offset 16
 656 0050 31C0     		xorl	%eax, %eax
 657              	.L17:
 658              		.loc 1 234 1 view .LVU188
 659 0052 5B       		popl	%ebx
 660              		.cfi_remember_state
 661              		.cfi_restore 3
 662              		.cfi_def_cfa_offset 12
 663 0053 5E       		popl	%esi
 664              		.cfi_restore 6
GAS LISTING /tmp/ccN2CQgX.s 			page 13


 665              		.cfi_def_cfa_offset 8
 666 0054 5F       		popl	%edi
 667              		.cfi_restore 7
 668              		.cfi_def_cfa_offset 4
 669 0055 C3       		ret
 670              	.LVL29:
 671              	.L19:
 672              		.cfi_restore_state
 673              		.loc 1 225 12 view .LVU189
 674 0056 B8FFFFFF 		movl	$-1, %eax
 674      FF
 675              	.LVL30:
 676              		.loc 1 225 12 view .LVU190
 677 005b EBF5     		jmp	.L17
 678              		.cfi_endproc
 679              	.LFE210:
 680              		.size	chDelegateDispatchTimeout, .-chDelegateDispatchTimeout
 681              		.section	.text.__x86.get_pc_thunk.bx,"axG",@progbits,__x86.get_pc_thunk.bx,comdat
 682              		.globl	__x86.get_pc_thunk.bx
 683              		.hidden	__x86.get_pc_thunk.bx
 684              		.type	__x86.get_pc_thunk.bx, @function
 685              	__x86.get_pc_thunk.bx:
 686              	.LFB211:
 687              		.cfi_startproc
 688 0000 8B1C24   		movl	(%esp), %ebx
 689 0003 C3       		ret
 690              		.cfi_endproc
 691              	.LFE211:
 692              		.section	.text.__x86.get_pc_thunk.si,"axG",@progbits,__x86.get_pc_thunk.si,comdat
 693              		.globl	__x86.get_pc_thunk.si
 694              		.hidden	__x86.get_pc_thunk.si
 695              		.type	__x86.get_pc_thunk.si, @function
 696              	__x86.get_pc_thunk.si:
 697              	.LFB212:
 698              		.cfi_startproc
 699 0000 8B3424   		movl	(%esp), %esi
 700 0003 C3       		ret
 701              		.cfi_endproc
 702              	.LFE212:
 703              		.text
 704              	.Letext0:
 705              		.file 5 "/usr/include/bits/types.h"
 706              		.file 6 "/usr/include/bits/stdint-intn.h"
 707              		.file 7 "/usr/include/bits/stdint-uintn.h"
 708              		.file 8 "../../../os/common/ports/SIMIA32/compilers/GCC/chtypes.h"
 709              		.file 9 "../../../os/rt/include/chearly.h"
 710              		.file 10 "../../../os/rt/include/chobjects.h"
 711              		.file 11 "../../../os/rt/include/chrfcu.h"
 712              		.file 12 "../../../os/rt/include/chdebug.h"
 713              		.file 13 "../../../os/rt/include/chtime.h"
 714              		.file 14 "../../../os/rt/include/chlists.h"
 715              		.file 15 "../../../os/rt/include/chsem.h"
 716              		.file 16 "../../../os/rt/include/chmtx.h"
 717              		.file 17 "/usr/lib/gcc/x86_64-linux-gnu/11/include/stdarg.h"
 718              		.file 18 "../../../os/oslib/include/chdelegates.h"
 719              		.section	.debug_info,"",@progbits
 720              	.Ldebug_info0:
GAS LISTING /tmp/ccN2CQgX.s 			page 14


 721 0000 C60D0000 		.long	0xdc6
 722 0004 0500     		.value	0x5
 723 0006 01       		.byte	0x1
 724 0007 04       		.byte	0x4
 725 0008 00000000 		.long	.Ldebug_abbrev0
 726 000c 25       		.uleb128 0x25
 727 000d 9C040000 		.long	.LASF146
 728 0011 1D       		.byte	0x1d
 729 0012 26000000 		.long	.LASF0
 730 0016 00000000 		.long	.LASF1
 731 001a 45000000 		.long	.LLRL17
 732 001e 00000000 		.long	0
 733 0022 00000000 		.long	.Ldebug_line0
 734 0026 26       		.uleb128 0x26
 735 0027 04       		.byte	0x4
 736 0028 05       		.byte	0x5
 737 0029 696E7400 		.string	"int"
 738 002d 06       		.uleb128 0x6
 739 002e 04       		.byte	0x4
 740 002f 07       		.byte	0x7
 741 0030 6B000000 		.long	.LASF2
 742 0034 06       		.uleb128 0x6
 743 0035 04       		.byte	0x4
 744 0036 05       		.byte	0x5
 745 0037 87040000 		.long	.LASF3
 746 003b 06       		.uleb128 0x6
 747 003c 08       		.byte	0x8
 748 003d 05       		.byte	0x5
 749 003e 20030000 		.long	.LASF4
 750 0042 06       		.uleb128 0x6
 751 0043 0C       		.byte	0xc
 752 0044 04       		.byte	0x4
 753 0045 4F040000 		.long	.LASF5
 754 0049 06       		.uleb128 0x6
 755 004a 10       		.byte	0x10
 756 004b 04       		.byte	0x4
 757 004c 7D000000 		.long	.LASF6
 758 0050 06       		.uleb128 0x6
 759 0051 01       		.byte	0x1
 760 0052 08       		.byte	0x8
 761 0053 2E060000 		.long	.LASF7
 762 0057 06       		.uleb128 0x6
 763 0058 02       		.byte	0x2
 764 0059 07       		.byte	0x7
 765 005a C6060000 		.long	.LASF8
 766 005e 06       		.uleb128 0x6
 767 005f 04       		.byte	0x4
 768 0060 07       		.byte	0x7
 769 0061 D0050000 		.long	.LASF9
 770 0065 06       		.uleb128 0x6
 771 0066 01       		.byte	0x1
 772 0067 06       		.byte	0x6
 773 0068 B4060000 		.long	.LASF10
 774 006c 01       		.uleb128 0x1
 775 006d AA050000 		.long	.LASF12
 776 0071 05       		.byte	0x5
 777 0072 26       		.byte	0x26
GAS LISTING /tmp/ccN2CQgX.s 			page 15


 778 0073 17       		.byte	0x17
 779 0074 50000000 		.long	0x50
 780 0078 06       		.uleb128 0x6
 781 0079 02       		.byte	0x2
 782 007a 05       		.byte	0x5
 783 007b 7D040000 		.long	.LASF11
 784 007f 01       		.uleb128 0x1
 785 0080 98000000 		.long	.LASF13
 786 0084 05       		.byte	0x5
 787 0085 29       		.byte	0x29
 788 0086 14       		.byte	0x14
 789 0087 26000000 		.long	0x26
 790 008b 01       		.uleb128 0x1
 791 008c 3C060000 		.long	.LASF14
 792 0090 05       		.byte	0x5
 793 0091 2A       		.byte	0x2a
 794 0092 16       		.byte	0x16
 795 0093 2D000000 		.long	0x2d
 796 0097 01       		.uleb128 0x1
 797 0098 53020000 		.long	.LASF15
 798 009c 05       		.byte	0x5
 799 009d 30       		.byte	0x30
 800 009e 2E       		.byte	0x2e
 801 009f A3000000 		.long	0xa3
 802 00a3 06       		.uleb128 0x6
 803 00a4 08       		.byte	0x8
 804 00a5 07       		.byte	0x7
 805 00a6 91010000 		.long	.LASF16
 806 00aa 27       		.uleb128 0x27
 807 00ab 04       		.byte	0x4
 808 00ac 06       		.uleb128 0x6
 809 00ad 01       		.byte	0x1
 810 00ae 06       		.byte	0x6
 811 00af 8B020000 		.long	.LASF17
 812 00b3 0F       		.uleb128 0xf
 813 00b4 AC000000 		.long	0xac
 814 00b8 01       		.uleb128 0x1
 815 00b9 F5050000 		.long	.LASF18
 816 00bd 06       		.byte	0x6
 817 00be 1A       		.byte	0x1a
 818 00bf 13       		.byte	0x13
 819 00c0 7F000000 		.long	0x7f
 820 00c4 01       		.uleb128 0x1
 821 00c5 F6020000 		.long	.LASF19
 822 00c9 07       		.byte	0x7
 823 00ca 18       		.byte	0x18
 824 00cb 13       		.byte	0x13
 825 00cc 6C000000 		.long	0x6c
 826 00d0 01       		.uleb128 0x1
 827 00d1 4A010000 		.long	.LASF20
 828 00d5 07       		.byte	0x7
 829 00d6 1A       		.byte	0x1a
 830 00d7 14       		.byte	0x14
 831 00d8 8B000000 		.long	0x8b
 832 00dc 01       		.uleb128 0x1
 833 00dd 81050000 		.long	.LASF21
 834 00e1 07       		.byte	0x7
GAS LISTING /tmp/ccN2CQgX.s 			page 16


 835 00e2 1B       		.byte	0x1b
 836 00e3 14       		.byte	0x14
 837 00e4 97000000 		.long	0x97
 838 00e8 14       		.uleb128 0x14
 839 00e9 DC000000 		.long	0xdc
 840 00ed 01       		.uleb128 0x1
 841 00ee 87000000 		.long	.LASF22
 842 00f2 08       		.byte	0x8
 843 00f3 37       		.byte	0x37
 844 00f4 1D       		.byte	0x1d
 845 00f5 D0000000 		.long	0xd0
 846 00f9 01       		.uleb128 0x1
 847 00fa 1A040000 		.long	.LASF23
 848 00fe 08       		.byte	0x8
 849 00ff 38       		.byte	0x38
 850 0100 1D       		.byte	0x1d
 851 0101 C4000000 		.long	0xc4
 852 0105 01       		.uleb128 0x1
 853 0106 E6020000 		.long	.LASF24
 854 010a 08       		.byte	0x8
 855 010b 39       		.byte	0x39
 856 010c 1D       		.byte	0x1d
 857 010d C4000000 		.long	0xc4
 858 0111 01       		.uleb128 0x1
 859 0112 C8050000 		.long	.LASF25
 860 0116 08       		.byte	0x8
 861 0117 3A       		.byte	0x3a
 862 0118 1D       		.byte	0x1d
 863 0119 C4000000 		.long	0xc4
 864 011d 01       		.uleb128 0x1
 865 011e 74010000 		.long	.LASF26
 866 0122 08       		.byte	0x8
 867 0123 3C       		.byte	0x3c
 868 0124 1D       		.byte	0x1d
 869 0125 D0000000 		.long	0xd0
 870 0129 01       		.uleb128 0x1
 871 012a 40030000 		.long	.LASF27
 872 012e 08       		.byte	0x8
 873 012f 3D       		.byte	0x3d
 874 0130 1D       		.byte	0x1d
 875 0131 B8000000 		.long	0xb8
 876 0135 01       		.uleb128 0x1
 877 0136 5B010000 		.long	.LASF28
 878 013a 08       		.byte	0x8
 879 013b 3F       		.byte	0x3f
 880 013c 1D       		.byte	0x1d
 881 013d D0000000 		.long	0xd0
 882 0141 01       		.uleb128 0x1
 883 0142 B8010000 		.long	.LASF29
 884 0146 08       		.byte	0x8
 885 0147 41       		.byte	0x41
 886 0148 1D       		.byte	0x1d
 887 0149 B8000000 		.long	0xb8
 888 014d 01       		.uleb128 0x1
 889 014e 2F070000 		.long	.LASF30
 890 0152 09       		.byte	0x9
 891 0153 80       		.byte	0x80
GAS LISTING /tmp/ccN2CQgX.s 			page 17


 892 0154 12       		.byte	0x12
 893 0155 2D000000 		.long	0x2d
 894 0159 01       		.uleb128 0x1
 895 015a FE010000 		.long	.LASF31
 896 015e 09       		.byte	0x9
 897 015f 85       		.byte	0x85
 898 0160 1A       		.byte	0x1a
 899 0161 65010000 		.long	0x165
 900 0165 07       		.uleb128 0x7
 901 0166 07030000 		.long	.LASF48
 902 016a 50       		.byte	0x50
 903 016b 0A       		.byte	0xa
 904 016c A9       		.byte	0xa9
 905 016d 08       		.byte	0x8
 906 016e 5A020000 		.long	0x25a
 907 0172 09       		.uleb128 0x9
 908 0173 68647200 		.string	"hdr"
 909 0177 0A       		.byte	0xa
 910 0178 BA       		.byte	0xba
 911 0179 05       		.byte	0x5
 912 017a AE050000 		.long	0x5ae
 913 017e 00       		.byte	0
 914 017f 09       		.uleb128 0x9
 915 0180 63747800 		.string	"ctx"
 916 0184 0A       		.byte	0xa
 917 0185 BE       		.byte	0xbe
 918 0186 21       		.byte	0x21
 919 0187 E6040000 		.long	0x4e6
 920 018b 0C       		.byte	0xc
 921 018c 02       		.uleb128 0x2
 922 018d D4010000 		.long	.LASF32
 923 0191 0A       		.byte	0xa
 924 0192 C2       		.byte	0xc2
 925 0193 22       		.byte	0x22
 926 0194 AD060000 		.long	0x6ad
 927 0198 10       		.byte	0x10
 928 0199 02       		.uleb128 0x2
 929 019a BF020000 		.long	.LASF33
 930 019e 0A       		.byte	0xa
 931 019f C8       		.byte	0xc8
 932 01a0 22       		.byte	0x22
 933 01a1 B2060000 		.long	0x6b2
 934 01a5 14       		.byte	0x14
 935 01a6 02       		.uleb128 0x2
 936 01a7 54050000 		.long	.LASF34
 937 01ab 0A       		.byte	0xa
 938 01ac CD       		.byte	0xcd
 939 01ad 21       		.byte	0x21
 940 01ae B2060000 		.long	0x6b2
 941 01b2 18       		.byte	0x18
 942 01b3 02       		.uleb128 0x2
 943 01b4 78060000 		.long	.LASF35
 944 01b8 0A       		.byte	0xa
 945 01b9 D1       		.byte	0xd1
 946 01ba 21       		.byte	0x21
 947 01bb 05010000 		.long	0x105
 948 01bf 1C       		.byte	0x1c
GAS LISTING /tmp/ccN2CQgX.s 			page 18


 949 01c0 02       		.uleb128 0x2
 950 01c1 32000000 		.long	.LASF36
 951 01c5 0A       		.byte	0xa
 952 01c6 D5       		.byte	0xd5
 953 01c7 21       		.byte	0x21
 954 01c8 F9000000 		.long	0xf9
 955 01cc 1D       		.byte	0x1d
 956 01cd 02       		.uleb128 0x2
 957 01ce A2000000 		.long	.LASF37
 958 01d2 0A       		.byte	0xa
 959 01d3 DA       		.byte	0xda
 960 01d4 21       		.byte	0x21
 961 01d5 11010000 		.long	0x111
 962 01d9 1E       		.byte	0x1e
 963 01da 02       		.uleb128 0x2
 964 01db B4050000 		.long	.LASF38
 965 01df 0A       		.byte	0xa
 966 01e0 DE       		.byte	0xde
 967 01e1 22       		.byte	0x22
 968 01e2 36030000 		.long	0x336
 969 01e6 20       		.byte	0x20
 970 01e7 02       		.uleb128 0x2
 971 01e8 EF020000 		.long	.LASF39
 972 01ec 0A       		.byte	0xa
 973 01ed E2       		.byte	0xe2
 974 01ee 21       		.byte	0x21
 975 01ef 95030000 		.long	0x395
 976 01f3 24       		.byte	0x24
 977 01f4 02       		.uleb128 0x2
 978 01f5 13000000 		.long	.LASF40
 979 01f9 0A       		.byte	0xa
 980 01fa E8       		.byte	0xe8
 981 01fb 21       		.byte	0x21
 982 01fc 92050000 		.long	0x592
 983 0200 2C       		.byte	0x2c
 984 0201 02       		.uleb128 0x2
 985 0202 44020000 		.long	.LASF41
 986 0206 0A       		.byte	0xa
 987 0207 EE       		.byte	0xee
 988 0208 22       		.byte	0x22
 989 0209 AA000000 		.long	0xaa
 990 020d 30       		.byte	0x30
 991 020e 1D       		.uleb128 0x1d
 992 020f 7500     		.string	"u"
 993 0211 3F01     		.value	0x13f
 994 0213 D6050000 		.long	0x5d6
 995 0217 34       		.byte	0x34
 996 0218 04       		.uleb128 0x4
 997 0219 47060000 		.long	.LASF42
 998 021d 4401     		.value	0x144
 999 021f 21       		.byte	0x21
 1000 0220 69030000 		.long	0x369
 1001 0224 38       		.byte	0x38
 1002 0225 04       		.uleb128 0x4
 1003 0226 FE020000 		.long	.LASF43
 1004 022a 4A01     		.value	0x14a
 1005 022c 21       		.byte	0x21
GAS LISTING /tmp/ccN2CQgX.s 			page 19


 1006 022d 95030000 		.long	0x395
 1007 0231 3C       		.byte	0x3c
 1008 0232 04       		.uleb128 0x4
 1009 0233 62000000 		.long	.LASF44
 1010 0237 5001     		.value	0x150
 1011 0239 21       		.byte	0x21
 1012 023a 35010000 		.long	0x135
 1013 023e 44       		.byte	0x44
 1014 023f 04       		.uleb128 0x4
 1015 0240 DA010000 		.long	.LASF45
 1016 0244 5701     		.value	0x157
 1017 0246 22       		.byte	0x22
 1018 0247 A8060000 		.long	0x6a8
 1019 024b 48       		.byte	0x48
 1020 024c 04       		.uleb128 0x4
 1021 024d 59000000 		.long	.LASF46
 1022 0251 5B01     		.value	0x15b
 1023 0253 21       		.byte	0x21
 1024 0254 1D010000 		.long	0x11d
 1025 0258 4C       		.byte	0x4c
 1026 0259 00       		.byte	0
 1027 025a 01       		.uleb128 0x1
 1028 025b 7E060000 		.long	.LASF47
 1029 025f 09       		.byte	0x9
 1030 0260 8A       		.byte	0x8a
 1031 0261 1F       		.byte	0x1f
 1032 0262 66020000 		.long	0x266
 1033 0266 15       		.uleb128 0x15
 1034 0267 6D020000 		.long	.LASF49
 1035 026b E0       		.byte	0xe0
 1036 026c 9701     		.value	0x197
 1037 026e 08       		.byte	0x8
 1038 026f E8020000 		.long	0x2e8
 1039 0273 04       		.uleb128 0x4
 1040 0274 8A050000 		.long	.LASF50
 1041 0278 9B01     		.value	0x19b
 1042 027a 21       		.byte	0x21
 1043 027b DF060000 		.long	0x6df
 1044 027f 00       		.byte	0
 1045 0280 04       		.uleb128 0x4
 1046 0281 C2000000 		.long	.LASF51
 1047 0285 9F01     		.value	0x19f
 1048 0287 21       		.byte	0x21
 1049 0288 4E050000 		.long	0x54e
 1050 028c 10       		.byte	0x10
 1051 028d 04       		.uleb128 0x4
 1052 028e A6060000 		.long	.LASF52
 1053 0292 A601     		.value	0x1a6
 1054 0294 21       		.byte	0x21
 1055 0295 75050000 		.long	0x575
 1056 0299 28       		.byte	0x28
 1057 029a 04       		.uleb128 0x4
 1058 029b 90000000 		.long	.LASF53
 1059 029f AB01     		.value	0x1ab
 1060 02a1 21       		.byte	0x21
 1061 02a2 4D010000 		.long	0x14d
 1062 02a6 30       		.byte	0x30
GAS LISTING /tmp/ccN2CQgX.s 			page 20


 1063 02a7 04       		.uleb128 0x4
 1064 02a8 F9010000 		.long	.LASF54
 1065 02ac B101     		.value	0x1b1
 1066 02ae 21       		.byte	0x21
 1067 02af 0F030000 		.long	0x30f
 1068 02b3 34       		.byte	0x34
 1069 02b4 04       		.uleb128 0x4
 1070 02b5 76040000 		.long	.LASF55
 1071 02b9 B601     		.value	0x1b6
 1072 02bb 22       		.byte	0x22
 1073 02bc 49070000 		.long	0x749
 1074 02c0 38       		.byte	0x38
 1075 02c1 04       		.uleb128 0x4
 1076 02c2 2A040000 		.long	.LASF56
 1077 02c6 BA01     		.value	0x1ba
 1078 02c8 21       		.byte	0x21
 1079 02c9 59010000 		.long	0x159
 1080 02cd 3C       		.byte	0x3c
 1081 02ce 04       		.uleb128 0x4
 1082 02cf 6D060000 		.long	.LASF57
 1083 02d3 BF01     		.value	0x1bf
 1084 02d5 21       		.byte	0x21
 1085 02d6 59010000 		.long	0x159
 1086 02da 8C       		.byte	0x8c
 1087 02db 1D       		.uleb128 0x1d
 1088 02dc 64626700 		.string	"dbg"
 1089 02e0 C401     		.value	0x1c4
 1090 02e2 40030000 		.long	0x340
 1091 02e6 DC       		.byte	0xdc
 1092 02e7 00       		.byte	0
 1093 02e8 01       		.uleb128 0x1
 1094 02e9 A0020000 		.long	.LASF58
 1095 02ed 0B       		.byte	0xb
 1096 02ee 3F       		.byte	0x3f
 1097 02ef 12       		.byte	0x12
 1098 02f0 D0000000 		.long	0xd0
 1099 02f4 07       		.uleb128 0x7
 1100 02f5 4B020000 		.long	.LASF59
 1101 02f9 04       		.byte	0x4
 1102 02fa 0B       		.byte	0xb
 1103 02fb 44       		.byte	0x44
 1104 02fc 10       		.byte	0x10
 1105 02fd 0F030000 		.long	0x30f
 1106 0301 02       		.uleb128 0x2
 1107 0302 78030000 		.long	.LASF60
 1108 0306 0B       		.byte	0xb
 1109 0307 48       		.byte	0x48
 1110 0308 21       		.byte	0x21
 1111 0309 E8020000 		.long	0x2e8
 1112 030d 00       		.byte	0
 1113 030e 00       		.byte	0
 1114 030f 01       		.uleb128 0x1
 1115 0310 FD050000 		.long	.LASF61
 1116 0314 0B       		.byte	0xb
 1117 0315 49       		.byte	0x49
 1118 0316 03       		.byte	0x3
 1119 0317 F4020000 		.long	0x2f4
GAS LISTING /tmp/ccN2CQgX.s 			page 21


 1120 031b 07       		.uleb128 0x7
 1121 031c 27010000 		.long	.LASF62
 1122 0320 04       		.byte	0x4
 1123 0321 0C       		.byte	0xc
 1124 0322 3E       		.byte	0x3e
 1125 0323 10       		.byte	0x10
 1126 0324 36030000 		.long	0x336
 1127 0328 02       		.uleb128 0x2
 1128 0329 01040000 		.long	.LASF63
 1129 032d 0C       		.byte	0xc
 1130 032e 46       		.byte	0x46
 1131 032f 24       		.byte	0x24
 1132 0330 3B030000 		.long	0x33b
 1133 0334 00       		.byte	0
 1134 0335 00       		.byte	0
 1135 0336 03       		.uleb128 0x3
 1136 0337 B3000000 		.long	0xb3
 1137 033b 14       		.uleb128 0x14
 1138 033c 36030000 		.long	0x336
 1139 0340 01       		.uleb128 0x1
 1140 0341 11030000 		.long	.LASF64
 1141 0345 0C       		.byte	0xc
 1142 0346 51       		.byte	0x51
 1143 0347 03       		.byte	0x3
 1144 0348 1B030000 		.long	0x31b
 1145 034c 01       		.uleb128 0x1
 1146 034d 38000000 		.long	.LASF65
 1147 0351 0D       		.byte	0xd
 1148 0352 6D       		.byte	0x6d
 1149 0353 12       		.byte	0x12
 1150 0354 D0000000 		.long	0xd0
 1151 0358 14       		.uleb128 0x14
 1152 0359 4C030000 		.long	0x34c
 1153 035d 01       		.uleb128 0x1
 1154 035e E8030000 		.long	.LASF66
 1155 0362 0D       		.byte	0xd
 1156 0363 79       		.byte	0x79
 1157 0364 12       		.byte	0x12
 1158 0365 D0000000 		.long	0xd0
 1159 0369 01       		.uleb128 0x1
 1160 036a 5B040000 		.long	.LASF67
 1161 036e 0E       		.byte	0xe
 1162 036f 32       		.byte	0x32
 1163 0370 18       		.byte	0x18
 1164 0371 75030000 		.long	0x375
 1165 0375 07       		.uleb128 0x7
 1166 0376 E4000000 		.long	.LASF68
 1167 037a 04       		.byte	0x4
 1168 037b 0E       		.byte	0xe
 1169 037c 38       		.byte	0x38
 1170 037d 08       		.byte	0x8
 1171 037e 90030000 		.long	0x390
 1172 0382 02       		.uleb128 0x2
 1173 0383 78000000 		.long	.LASF69
 1174 0387 0E       		.byte	0xe
 1175 0388 39       		.byte	0x39
 1176 0389 1A       		.byte	0x1a
GAS LISTING /tmp/ccN2CQgX.s 			page 22


 1177 038a 90030000 		.long	0x390
 1178 038e 00       		.byte	0
 1179 038f 00       		.byte	0
 1180 0390 03       		.uleb128 0x3
 1181 0391 69030000 		.long	0x369
 1182 0395 01       		.uleb128 0x1
 1183 0396 F6030000 		.long	.LASF70
 1184 039a 0E       		.byte	0xe
 1185 039b 3F       		.byte	0x3f
 1186 039c 19       		.byte	0x19
 1187 039d A1030000 		.long	0x3a1
 1188 03a1 07       		.uleb128 0x7
 1189 03a2 1D060000 		.long	.LASF71
 1190 03a6 08       		.byte	0x8
 1191 03a7 0E       		.byte	0xe
 1192 03a8 45       		.byte	0x45
 1193 03a9 08       		.byte	0x8
 1194 03aa C9030000 		.long	0x3c9
 1195 03ae 02       		.uleb128 0x2
 1196 03af 78000000 		.long	.LASF69
 1197 03b3 0E       		.byte	0xe
 1198 03b4 46       		.byte	0x46
 1199 03b5 1A       		.byte	0x1a
 1200 03b6 C9030000 		.long	0x3c9
 1201 03ba 00       		.byte	0
 1202 03bb 02       		.uleb128 0x2
 1203 03bc 06010000 		.long	.LASF72
 1204 03c0 0E       		.byte	0xe
 1205 03c1 47       		.byte	0x47
 1206 03c2 1A       		.byte	0x1a
 1207 03c3 C9030000 		.long	0x3c9
 1208 03c7 04       		.byte	0x4
 1209 03c8 00       		.byte	0
 1210 03c9 03       		.uleb128 0x3
 1211 03ca 95030000 		.long	0x395
 1212 03ce 01       		.uleb128 0x1
 1213 03cf 1D020000 		.long	.LASF73
 1214 03d3 0E       		.byte	0xe
 1215 03d4 4E       		.byte	0x4e
 1216 03d5 22       		.byte	0x22
 1217 03d6 DA030000 		.long	0x3da
 1218 03da 07       		.uleb128 0x7
 1219 03db 0B060000 		.long	.LASF74
 1220 03df 0C       		.byte	0xc
 1221 03e0 0E       		.byte	0xe
 1222 03e1 55       		.byte	0x55
 1223 03e2 08       		.byte	0x8
 1224 03e3 0F040000 		.long	0x40f
 1225 03e7 02       		.uleb128 0x2
 1226 03e8 78000000 		.long	.LASF69
 1227 03ec 0E       		.byte	0xe
 1228 03ed 56       		.byte	0x56
 1229 03ee 1A       		.byte	0x1a
 1230 03ef 0F040000 		.long	0x40f
 1231 03f3 00       		.byte	0
 1232 03f4 02       		.uleb128 0x2
 1233 03f5 06010000 		.long	.LASF72
GAS LISTING /tmp/ccN2CQgX.s 			page 23


 1234 03f9 0E       		.byte	0xe
 1235 03fa 57       		.byte	0x57
 1236 03fb 1A       		.byte	0x1a
 1237 03fc 0F040000 		.long	0x40f
 1238 0400 04       		.byte	0x4
 1239 0401 02       		.uleb128 0x2
 1240 0402 86020000 		.long	.LASF75
 1241 0406 0E       		.byte	0xe
 1242 0407 58       		.byte	0x58
 1243 0408 19       		.byte	0x19
 1244 0409 1D010000 		.long	0x11d
 1245 040d 08       		.byte	0x8
 1246 040e 00       		.byte	0
 1247 040f 03       		.uleb128 0x3
 1248 0410 CE030000 		.long	0x3ce
 1249 0414 01       		.uleb128 0x1
 1250 0415 90020000 		.long	.LASF76
 1251 0419 0E       		.byte	0xe
 1252 041a 5F       		.byte	0x5f
 1253 041b 1E       		.byte	0x1e
 1254 041c 20040000 		.long	0x420
 1255 0420 07       		.uleb128 0x7
 1256 0421 3C010000 		.long	.LASF77
 1257 0425 0C       		.byte	0xc
 1258 0426 0E       		.byte	0xe
 1259 0427 64       		.byte	0x64
 1260 0428 08       		.byte	0x8
 1261 0429 55040000 		.long	0x455
 1262 042d 02       		.uleb128 0x2
 1263 042e 78000000 		.long	.LASF69
 1264 0432 0E       		.byte	0xe
 1265 0433 65       		.byte	0x65
 1266 0434 1A       		.byte	0x1a
 1267 0435 55040000 		.long	0x455
 1268 0439 00       		.byte	0
 1269 043a 02       		.uleb128 0x2
 1270 043b 06010000 		.long	.LASF72
 1271 043f 0E       		.byte	0xe
 1272 0440 66       		.byte	0x66
 1273 0441 1A       		.byte	0x1a
 1274 0442 55040000 		.long	0x455
 1275 0446 04       		.byte	0x4
 1276 0447 02       		.uleb128 0x2
 1277 0448 C0060000 		.long	.LASF78
 1278 044c 0E       		.byte	0xe
 1279 044d 67       		.byte	0x67
 1280 044e 19       		.byte	0x19
 1281 044f 5D030000 		.long	0x35d
 1282 0453 08       		.byte	0x8
 1283 0454 00       		.byte	0
 1284 0455 03       		.uleb128 0x3
 1285 0456 14040000 		.long	0x414
 1286 045a 1E       		.uleb128 0x1e
 1287 045b 10       		.byte	0x10
 1288 045c 04       		.byte	0x4
 1289 045d 87       		.byte	0x87
 1290 045e 6E040000 		.long	0x46e
GAS LISTING /tmp/ccN2CQgX.s 			page 24


 1291 0462 09       		.uleb128 0x9
 1292 0463 6100     		.string	"a"
 1293 0465 04       		.byte	0x4
 1294 0466 88       		.byte	0x88
 1295 0467 0B       		.byte	0xb
 1296 0468 6E040000 		.long	0x46e
 1297 046c 00       		.byte	0
 1298 046d 00       		.byte	0
 1299 046e 16       		.uleb128 0x16
 1300 046f C4000000 		.long	0xc4
 1301 0473 7E040000 		.long	0x47e
 1302 0477 17       		.uleb128 0x17
 1303 0478 2D000000 		.long	0x2d
 1304 047c 0F       		.byte	0xf
 1305 047d 00       		.byte	0
 1306 047e 28       		.uleb128 0x28
 1307 047f BE010000 		.long	.LASF147
 1308 0483 04       		.byte	0x4
 1309 0484 89       		.byte	0x89
 1310 0485 03       		.byte	0x3
 1311 0486 5A040000 		.long	0x45a
 1312 048a 10       		.byte	0x10
 1313 048b 01       		.uleb128 0x1
 1314 048c 9F060000 		.long	.LASF79
 1315 0490 04       		.byte	0x4
 1316 0491 8E       		.byte	0x8e
 1317 0492 0F       		.byte	0xf
 1318 0493 AA000000 		.long	0xaa
 1319 0497 07       		.uleb128 0x7
 1320 0498 90040000 		.long	.LASF80
 1321 049c 14       		.byte	0x14
 1322 049d 04       		.byte	0x4
 1323 049e 9D       		.byte	0x9d
 1324 049f 08       		.byte	0x8
 1325 04a0 E6040000 		.long	0x4e6
 1326 04a4 09       		.uleb128 0x9
 1327 04a5 65627800 		.string	"ebx"
 1328 04a9 04       		.byte	0x4
 1329 04aa 9E       		.byte	0x9e
 1330 04ab 0B       		.byte	0xb
 1331 04ac 8B040000 		.long	0x48b
 1332 04b0 00       		.byte	0
 1333 04b1 09       		.uleb128 0x9
 1334 04b2 65646900 		.string	"edi"
 1335 04b6 04       		.byte	0x4
 1336 04b7 9F       		.byte	0x9f
 1337 04b8 0B       		.byte	0xb
 1338 04b9 8B040000 		.long	0x48b
 1339 04bd 04       		.byte	0x4
 1340 04be 09       		.uleb128 0x9
 1341 04bf 65736900 		.string	"esi"
 1342 04c3 04       		.byte	0x4
 1343 04c4 A0       		.byte	0xa0
 1344 04c5 0B       		.byte	0xb
 1345 04c6 8B040000 		.long	0x48b
 1346 04ca 08       		.byte	0x8
 1347 04cb 09       		.uleb128 0x9
GAS LISTING /tmp/ccN2CQgX.s 			page 25


 1348 04cc 65627000 		.string	"ebp"
 1349 04d0 04       		.byte	0x4
 1350 04d1 A1       		.byte	0xa1
 1351 04d2 0B       		.byte	0xb
 1352 04d3 8B040000 		.long	0x48b
 1353 04d7 0C       		.byte	0xc
 1354 04d8 09       		.uleb128 0x9
 1355 04d9 65697000 		.string	"eip"
 1356 04dd 04       		.byte	0x4
 1357 04de A2       		.byte	0xa2
 1358 04df 0B       		.byte	0xb
 1359 04e0 8B040000 		.long	0x48b
 1360 04e4 10       		.byte	0x10
 1361 04e5 00       		.byte	0
 1362 04e6 07       		.uleb128 0x7
 1363 04e7 C9000000 		.long	.LASF81
 1364 04eb 04       		.byte	0x4
 1365 04ec 04       		.byte	0x4
 1366 04ed AA       		.byte	0xaa
 1367 04ee 08       		.byte	0x8
 1368 04ef 00050000 		.long	0x500
 1369 04f3 09       		.uleb128 0x9
 1370 04f4 737000   		.string	"sp"
 1371 04f7 04       		.byte	0x4
 1372 04f8 AB       		.byte	0xab
 1373 04f9 17       		.byte	0x17
 1374 04fa 00050000 		.long	0x500
 1375 04fe 00       		.byte	0
 1376 04ff 00       		.byte	0
 1377 0500 03       		.uleb128 0x3
 1378 0501 97040000 		.long	0x497
 1379 0505 06       		.uleb128 0x6
 1380 0506 01       		.byte	0x1
 1381 0507 02       		.byte	0x2
 1382 0508 31020000 		.long	.LASF82
 1383 050c 29       		.uleb128 0x29
 1384 050d 37020000 		.long	.LASF128
 1385 0511 04       		.byte	0x4
 1386 0512 1C01     		.value	0x11c
 1387 0514 11       		.byte	0x11
 1388 0515 ED000000 		.long	0xed
 1389 0519 07       		.uleb128 0x7
 1390 051a E2010000 		.long	.LASF83
 1391 051e 18       		.byte	0x18
 1392 051f 0A       		.byte	0xa
 1393 0520 64       		.byte	0x64
 1394 0521 10       		.byte	0x10
 1395 0522 4E050000 		.long	0x54e
 1396 0526 02       		.uleb128 0x2
 1397 0527 7B050000 		.long	.LASF84
 1398 052b 0A       		.byte	0xa
 1399 052c 68       		.byte	0x68
 1400 052d 21       		.byte	0x21
 1401 052e 14040000 		.long	0x414
 1402 0532 00       		.byte	0
 1403 0533 02       		.uleb128 0x2
 1404 0534 22040000 		.long	.LASF85
GAS LISTING /tmp/ccN2CQgX.s 			page 26


 1405 0538 0A       		.byte	0xa
 1406 0539 6D       		.byte	0x6d
 1407 053a 21       		.byte	0x21
 1408 053b 58030000 		.long	0x358
 1409 053f 0C       		.byte	0xc
 1410 0540 02       		.uleb128 0x2
 1411 0541 F5000000 		.long	.LASF86
 1412 0545 0A       		.byte	0xa
 1413 0546 81       		.byte	0x81
 1414 0547 21       		.byte	0x21
 1415 0548 E8000000 		.long	0xe8
 1416 054c 10       		.byte	0x10
 1417 054d 00       		.byte	0
 1418 054e 01       		.uleb128 0x1
 1419 054f 4F060000 		.long	.LASF87
 1420 0553 0A       		.byte	0xa
 1421 0554 83       		.byte	0x83
 1422 0555 03       		.byte	0x3
 1423 0556 19050000 		.long	0x519
 1424 055a 07       		.uleb128 0x7
 1425 055b 1B000000 		.long	.LASF88
 1426 055f 08       		.byte	0x8
 1427 0560 0A       		.byte	0xa
 1428 0561 88       		.byte	0x88
 1429 0562 10       		.byte	0x10
 1430 0563 75050000 		.long	0x575
 1431 0567 02       		.uleb128 0x2
 1432 0568 EF050000 		.long	.LASF89
 1433 056c 0A       		.byte	0xa
 1434 056d 8C       		.byte	0x8c
 1435 056e 21       		.byte	0x21
 1436 056f 95030000 		.long	0x395
 1437 0573 00       		.byte	0
 1438 0574 00       		.byte	0
 1439 0575 01       		.uleb128 0x1
 1440 0576 50030000 		.long	.LASF90
 1441 057a 0A       		.byte	0xa
 1442 057b 8D       		.byte	0x8d
 1443 057c 03       		.byte	0x3
 1444 057d 5A050000 		.long	0x55a
 1445 0581 01       		.uleb128 0x1
 1446 0582 AC020000 		.long	.LASF91
 1447 0586 0A       		.byte	0xa
 1448 0587 92       		.byte	0x92
 1449 0588 14       		.byte	0x14
 1450 0589 8D050000 		.long	0x58d
 1451 058d 03       		.uleb128 0x3
 1452 058e 59010000 		.long	0x159
 1453 0592 01       		.uleb128 0x1
 1454 0593 D7030000 		.long	.LASF92
 1455 0597 0A       		.byte	0xa
 1456 0598 A1       		.byte	0xa1
 1457 0599 10       		.byte	0x10
 1458 059a 9E050000 		.long	0x59e
 1459 059e 03       		.uleb128 0x3
 1460 059f A3050000 		.long	0x5a3
 1461 05a3 2A       		.uleb128 0x2a
GAS LISTING /tmp/ccN2CQgX.s 			page 27


 1462 05a4 AE050000 		.long	0x5ae
 1463 05a8 05       		.uleb128 0x5
 1464 05a9 8D050000 		.long	0x58d
 1465 05ad 00       		.byte	0
 1466 05ae 2B       		.uleb128 0x2b
 1467 05af 0C       		.byte	0xc
 1468 05b0 0A       		.byte	0xa
 1469 05b1 AD       		.byte	0xad
 1470 05b2 03       		.byte	0x3
 1471 05b3 D6050000 		.long	0x5d6
 1472 05b7 18       		.uleb128 0x18
 1473 05b8 37010000 		.long	.LASF93
 1474 05bc B1       		.byte	0xb1
 1475 05bd 69030000 		.long	0x369
 1476 05c1 18       		.uleb128 0x18
 1477 05c2 EF050000 		.long	.LASF89
 1478 05c6 B5       		.byte	0xb5
 1479 05c7 95030000 		.long	0x395
 1480 05cb 18       		.uleb128 0x18
 1481 05cc B1010000 		.long	.LASF94
 1482 05d0 B9       		.byte	0xb9
 1483 05d1 CE030000 		.long	0x3ce
 1484 05d5 00       		.byte	0
 1485 05d6 2C       		.uleb128 0x2c
 1486 05d7 04       		.byte	0x4
 1487 05d8 0A       		.byte	0xa
 1488 05d9 0201     		.value	0x102
 1489 05db 03       		.byte	0x3
 1490 05dc 41060000 		.long	0x641
 1491 05e0 0A       		.uleb128 0xa
 1492 05e1 16020000 		.long	.LASF95
 1493 05e5 0901     		.value	0x109
 1494 05e7 21       		.byte	0x21
 1495 05e8 29010000 		.long	0x129
 1496 05ec 0A       		.uleb128 0xa
 1497 05ed 26070000 		.long	.LASF96
 1498 05f1 1001     		.value	0x110
 1499 05f3 21       		.byte	0x21
 1500 05f4 29010000 		.long	0x129
 1501 05f8 0A       		.uleb128 0xa
 1502 05f9 B1000000 		.long	.LASF97
 1503 05fd 1701     		.value	0x117
 1504 05ff 22       		.byte	0x22
 1505 0600 AA000000 		.long	0xaa
 1506 0604 0A       		.uleb128 0xa
 1507 0605 AE060000 		.long	.LASF98
 1508 0609 1E01     		.value	0x11e
 1509 060b 22       		.byte	0x22
 1510 060c 41060000 		.long	0x641
 1511 0610 0A       		.uleb128 0xa
 1512 0611 53010000 		.long	.LASF99
 1513 0615 2301     		.value	0x123
 1514 0617 21       		.byte	0x21
 1515 0618 29010000 		.long	0x129
 1516 061c 0A       		.uleb128 0xa
 1517 061d 04060000 		.long	.LASF100
 1518 0621 2C01     		.value	0x12c
GAS LISTING /tmp/ccN2CQgX.s 			page 28


 1519 0623 22       		.byte	0x22
 1520 0624 6E060000 		.long	0x66e
 1521 0628 0A       		.uleb128 0xa
 1522 0629 0C000000 		.long	.LASF101
 1523 062d 3501     		.value	0x135
 1524 062f 22       		.byte	0x22
 1525 0630 A8060000 		.long	0x6a8
 1526 0634 0A       		.uleb128 0xa
 1527 0635 FF000000 		.long	.LASF102
 1528 0639 3D01     		.value	0x13d
 1529 063b 21       		.byte	0x21
 1530 063c 35010000 		.long	0x135
 1531 0640 00       		.byte	0
 1532 0641 03       		.uleb128 0x3
 1533 0642 81050000 		.long	0x581
 1534 0646 07       		.uleb128 0x7
 1535 0647 67010000 		.long	.LASF103
 1536 064b 0C       		.byte	0xc
 1537 064c 0F       		.byte	0xf
 1538 064d 34       		.byte	0x34
 1539 064e 10       		.byte	0x10
 1540 064f 6E060000 		.long	0x66e
 1541 0653 02       		.uleb128 0x2
 1542 0654 EF050000 		.long	.LASF89
 1543 0658 0F       		.byte	0xf
 1544 0659 35       		.byte	0x35
 1545 065a 19       		.byte	0x19
 1546 065b 95030000 		.long	0x395
 1547 065f 00       		.byte	0
 1548 0660 09       		.uleb128 0x9
 1549 0661 636E7400 		.string	"cnt"
 1550 0665 0F       		.byte	0xf
 1551 0666 37       		.byte	0x37
 1552 0667 19       		.byte	0x19
 1553 0668 41010000 		.long	0x141
 1554 066c 08       		.byte	0x8
 1555 066d 00       		.byte	0
 1556 066e 03       		.uleb128 0x3
 1557 066f 46060000 		.long	0x646
 1558 0673 07       		.uleb128 0x7
 1559 0674 EC000000 		.long	.LASF104
 1560 0678 10       		.byte	0x10
 1561 0679 10       		.byte	0x10
 1562 067a 39       		.byte	0x39
 1563 067b 08       		.byte	0x8
 1564 067c A8060000 		.long	0x6a8
 1565 0680 02       		.uleb128 0x2
 1566 0681 EF050000 		.long	.LASF89
 1567 0685 10       		.byte	0x10
 1568 0686 3A       		.byte	0x3a
 1569 0687 19       		.byte	0x19
 1570 0688 95030000 		.long	0x395
 1571 068c 00       		.byte	0
 1572 068d 02       		.uleb128 0x2
 1573 068e D4010000 		.long	.LASF32
 1574 0692 10       		.byte	0x10
 1575 0693 3C       		.byte	0x3c
GAS LISTING /tmp/ccN2CQgX.s 			page 29


 1576 0694 1A       		.byte	0x1a
 1577 0695 8D050000 		.long	0x58d
 1578 0699 08       		.byte	0x8
 1579 069a 02       		.uleb128 0x2
 1580 069b 78000000 		.long	.LASF69
 1581 069f 10       		.byte	0x10
 1582 06a0 3E       		.byte	0x3e
 1583 06a1 1A       		.byte	0x1a
 1584 06a2 5A070000 		.long	0x75a
 1585 06a6 0C       		.byte	0xc
 1586 06a7 00       		.byte	0
 1587 06a8 03       		.uleb128 0x3
 1588 06a9 73060000 		.long	0x673
 1589 06ad 03       		.uleb128 0x3
 1590 06ae 5A020000 		.long	0x25a
 1591 06b2 03       		.uleb128 0x3
 1592 06b3 7E040000 		.long	0x47e
 1593 06b7 15       		.uleb128 0x15
 1594 06b8 D6000000 		.long	.LASF105
 1595 06bc 10       		.byte	0x10
 1596 06bd 6C01     		.value	0x16c
 1597 06bf 10       		.byte	0x10
 1598 06c0 DF060000 		.long	0x6df
 1599 06c4 04       		.uleb128 0x4
 1600 06c5 B1010000 		.long	.LASF94
 1601 06c9 7101     		.value	0x171
 1602 06cb 21       		.byte	0x21
 1603 06cc CE030000 		.long	0x3ce
 1604 06d0 00       		.byte	0
 1605 06d1 04       		.uleb128 0x4
 1606 06d2 EB060000 		.long	.LASF106
 1607 06d6 7501     		.value	0x175
 1608 06d8 22       		.byte	0x22
 1609 06d9 8D050000 		.long	0x58d
 1610 06dd 0C       		.byte	0xc
 1611 06de 00       		.byte	0
 1612 06df 1F       		.uleb128 0x1f
 1613 06e0 E2050000 		.long	.LASF107
 1614 06e4 7601     		.value	0x176
 1615 06e6 B7060000 		.long	0x6b7
 1616 06ea 15       		.uleb128 0x15
 1617 06eb 65050000 		.long	.LASF108
 1618 06ef 14       		.byte	0x14
 1619 06f0 7B01     		.value	0x17b
 1620 06f2 10       		.byte	0x10
 1621 06f3 39070000 		.long	0x739
 1622 06f7 04       		.uleb128 0x4
 1623 06f8 B4050000 		.long	.LASF38
 1624 06fc 7F01     		.value	0x17f
 1625 06fe 22       		.byte	0x22
 1626 06ff 36030000 		.long	0x336
 1627 0703 00       		.byte	0
 1628 0704 04       		.uleb128 0x4
 1629 0705 00000000 		.long	.LASF109
 1630 0709 8301     		.value	0x183
 1631 070b 22       		.byte	0x22
 1632 070c B2060000 		.long	0x6b2
GAS LISTING /tmp/ccN2CQgX.s 			page 30


 1633 0710 04       		.byte	0x4
 1634 0711 04       		.uleb128 0x4
 1635 0712 5A050000 		.long	.LASF110
 1636 0716 8701     		.value	0x187
 1637 0718 22       		.byte	0x22
 1638 0719 B2060000 		.long	0x6b2
 1639 071d 08       		.byte	0x8
 1640 071e 04       		.uleb128 0x4
 1641 071f 0B040000 		.long	.LASF111
 1642 0723 8C01     		.value	0x18c
 1643 0725 22       		.byte	0x22
 1644 0726 B2060000 		.long	0x6b2
 1645 072a 0C       		.byte	0xc
 1646 072b 04       		.uleb128 0x4
 1647 072c 6A030000 		.long	.LASF112
 1648 0730 9001     		.value	0x190
 1649 0732 22       		.byte	0x22
 1650 0733 B2060000 		.long	0x6b2
 1651 0737 10       		.byte	0x10
 1652 0738 00       		.byte	0
 1653 0739 1F       		.uleb128 0x1f
 1654 073a 7C010000 		.long	.LASF113
 1655 073e 9201     		.value	0x192
 1656 0740 EA060000 		.long	0x6ea
 1657 0744 0F       		.uleb128 0xf
 1658 0745 39070000 		.long	0x739
 1659 0749 03       		.uleb128 0x3
 1660 074a 44070000 		.long	0x744
 1661 074e 01       		.uleb128 0x1
 1662 074f 26060000 		.long	.LASF114
 1663 0753 10       		.byte	0x10
 1664 0754 34       		.byte	0x34
 1665 0755 19       		.byte	0x19
 1666 0756 73060000 		.long	0x673
 1667 075a 03       		.uleb128 0x3
 1668 075b 4E070000 		.long	0x74e
 1669 075f 01       		.uleb128 0x1
 1670 0760 07020000 		.long	.LASF115
 1671 0764 11       		.byte	0x11
 1672 0765 28       		.byte	0x28
 1673 0766 1B       		.byte	0x1b
 1674 0767 6B070000 		.long	0x76b
 1675 076b 2D       		.uleb128 0x2d
 1676 076c 04       		.byte	0x4
 1677 076d D9060000 		.long	.LASF148
 1678 0771 AC000000 		.long	0xac
 1679 0775 01       		.uleb128 0x1
 1680 0776 DE020000 		.long	.LASF116
 1681 077a 11       		.byte	0x11
 1682 077b 63       		.byte	0x63
 1683 077c 18       		.byte	0x18
 1684 077d 5F070000 		.long	0x75f
 1685 0781 01       		.uleb128 0x1
 1686 0782 2E030000 		.long	.LASF117
 1687 0786 12       		.byte	0x12
 1688 0787 3C       		.byte	0x3c
 1689 0788 11       		.byte	0x11
GAS LISTING /tmp/ccN2CQgX.s 			page 31


 1690 0789 8D070000 		.long	0x78d
 1691 078d 03       		.uleb128 0x3
 1692 078e 92070000 		.long	0x792
 1693 0792 10       		.uleb128 0x10
 1694 0793 29010000 		.long	0x129
 1695 0797 A1070000 		.long	0x7a1
 1696 079b 05       		.uleb128 0x5
 1697 079c A1070000 		.long	0x7a1
 1698 07a0 00       		.byte	0
 1699 07a1 03       		.uleb128 0x3
 1700 07a2 75070000 		.long	0x775
 1701 07a6 01       		.uleb128 0x1
 1702 07a7 5E020000 		.long	.LASF118
 1703 07ab 12       		.byte	0x12
 1704 07ac 41       		.byte	0x41
 1705 07ad 11       		.byte	0x11
 1706 07ae B2070000 		.long	0x7b2
 1707 07b2 03       		.uleb128 0x3
 1708 07b3 B7070000 		.long	0x7b7
 1709 07b7 2E       		.uleb128 0x2e
 1710 07b8 29010000 		.long	0x129
 1711 07bc 01       		.uleb128 0x1
 1712 07bd B9050000 		.long	.LASF119
 1713 07c1 12       		.byte	0x12
 1714 07c2 46       		.byte	0x46
 1715 07c3 11       		.byte	0x11
 1716 07c4 C8070000 		.long	0x7c8
 1717 07c8 03       		.uleb128 0x3
 1718 07c9 CD070000 		.long	0x7cd
 1719 07cd 10       		.uleb128 0x10
 1720 07ce 29010000 		.long	0x129
 1721 07d2 DC070000 		.long	0x7dc
 1722 07d6 05       		.uleb128 0x5
 1723 07d7 29010000 		.long	0x129
 1724 07db 00       		.byte	0
 1725 07dc 01       		.uleb128 0x1
 1726 07dd 0B010000 		.long	.LASF120
 1727 07e1 12       		.byte	0x12
 1728 07e2 4B       		.byte	0x4b
 1729 07e3 11       		.byte	0x11
 1730 07e4 E8070000 		.long	0x7e8
 1731 07e8 03       		.uleb128 0x3
 1732 07e9 ED070000 		.long	0x7ed
 1733 07ed 10       		.uleb128 0x10
 1734 07ee 29010000 		.long	0x129
 1735 07f2 01080000 		.long	0x801
 1736 07f6 05       		.uleb128 0x5
 1737 07f7 29010000 		.long	0x129
 1738 07fb 05       		.uleb128 0x5
 1739 07fc 29010000 		.long	0x129
 1740 0800 00       		.byte	0
 1741 0801 01       		.uleb128 0x1
 1742 0802 5B030000 		.long	.LASF121
 1743 0806 12       		.byte	0x12
 1744 0807 50       		.byte	0x50
 1745 0808 11       		.byte	0x11
 1746 0809 0D080000 		.long	0x80d
GAS LISTING /tmp/ccN2CQgX.s 			page 32


 1747 080d 03       		.uleb128 0x3
 1748 080e 12080000 		.long	0x812
 1749 0812 10       		.uleb128 0x10
 1750 0813 29010000 		.long	0x129
 1751 0817 2B080000 		.long	0x82b
 1752 081b 05       		.uleb128 0x5
 1753 081c 29010000 		.long	0x129
 1754 0820 05       		.uleb128 0x5
 1755 0821 29010000 		.long	0x129
 1756 0825 05       		.uleb128 0x5
 1757 0826 29010000 		.long	0x129
 1758 082a 00       		.byte	0
 1759 082b 01       		.uleb128 0x1
 1760 082c 08070000 		.long	.LASF122
 1761 0830 12       		.byte	0x12
 1762 0831 55       		.byte	0x55
 1763 0832 11       		.byte	0x11
 1764 0833 37080000 		.long	0x837
 1765 0837 03       		.uleb128 0x3
 1766 0838 3C080000 		.long	0x83c
 1767 083c 10       		.uleb128 0x10
 1768 083d 29010000 		.long	0x129
 1769 0841 5A080000 		.long	0x85a
 1770 0845 05       		.uleb128 0x5
 1771 0846 29010000 		.long	0x129
 1772 084a 05       		.uleb128 0x5
 1773 084b 29010000 		.long	0x129
 1774 084f 05       		.uleb128 0x5
 1775 0850 29010000 		.long	0x129
 1776 0854 05       		.uleb128 0x5
 1777 0855 29010000 		.long	0x129
 1778 0859 00       		.byte	0
 1779 085a 1E       		.uleb128 0x1e
 1780 085b 08       		.byte	0x8
 1781 085c 01       		.byte	0x1
 1782 085d 39       		.byte	0x39
 1783 085e 7D080000 		.long	0x87d
 1784 0862 02       		.uleb128 0x2
 1785 0863 39070000 		.long	.LASF123
 1786 0867 01       		.byte	0x1
 1787 0868 3D       		.byte	0x3d
 1788 0869 15       		.byte	0x15
 1789 086a 81070000 		.long	0x781
 1790 086e 00       		.byte	0
 1791 086f 02       		.uleb128 0x2
 1792 0870 C6020000 		.long	.LASF124
 1793 0874 01       		.byte	0x1
 1794 0875 41       		.byte	0x41
 1795 0876 16       		.byte	0x16
 1796 0877 A1070000 		.long	0x7a1
 1797 087b 04       		.byte	0x4
 1798 087c 00       		.byte	0
 1799 087d 01       		.uleb128 0x1
 1800 087e 17070000 		.long	.LASF125
 1801 0882 01       		.byte	0x1
 1802 0883 42       		.byte	0x42
 1803 0884 03       		.byte	0x3
GAS LISTING /tmp/ccN2CQgX.s 			page 33


 1804 0885 5A080000 		.long	0x85a
 1805 0889 0F       		.uleb128 0xf
 1806 088a 7D080000 		.long	0x87d
 1807 088e 20       		.uleb128 0x20
 1808 088f CC020000 		.long	.LASF126
 1809 0893 44       		.byte	0x44
 1810 0894 0D       		.byte	0xd
 1811 0895 8D050000 		.long	0x58d
 1812 0899 A3080000 		.long	0x8a3
 1813 089d 05       		.uleb128 0x5
 1814 089e 5D030000 		.long	0x35d
 1815 08a2 00       		.byte	0
 1816 08a3 2F       		.uleb128 0x2f
 1817 08a4 27000000 		.long	.LASF149
 1818 08a8 02       		.byte	0x2
 1819 08a9 43       		.byte	0x43
 1820 08aa 0D       		.byte	0xd
 1821 08ab 8D050000 		.long	0x58d
 1822 08af 30       		.uleb128 0x30
 1823 08b0 1A010000 		.long	.LASF150
 1824 08b4 02       		.byte	0x2
 1825 08b5 46       		.byte	0x46
 1826 08b6 08       		.byte	0x8
 1827 08b7 C6080000 		.long	0x8c6
 1828 08bb 05       		.uleb128 0x5
 1829 08bc 8D050000 		.long	0x58d
 1830 08c0 05       		.uleb128 0x5
 1831 08c1 29010000 		.long	0x129
 1832 08c5 00       		.byte	0
 1833 08c6 20       		.uleb128 0x20
 1834 08c7 A7000000 		.long	.LASF127
 1835 08cb 42       		.byte	0x42
 1836 08cc 09       		.byte	0x9
 1837 08cd 29010000 		.long	0x129
 1838 08d1 E0080000 		.long	0x8e0
 1839 08d5 05       		.uleb128 0x5
 1840 08d6 8D050000 		.long	0x58d
 1841 08da 05       		.uleb128 0x5
 1842 08db 29010000 		.long	0x129
 1843 08df 00       		.byte	0
 1844 08e0 11       		.uleb128 0x11
 1845 08e1 90050000 		.long	.LASF129
 1846 08e5 DA       		.byte	0xda
 1847 08e6 29010000 		.long	0x129
 1848 08ea 00000000 		.long	.LFB210
 1849 08ee 5D000000 		.long	.LFE210-.LFB210
 1850 08f2 01       		.uleb128 0x1
 1851 08f3 9C       		.byte	0x9c
 1852 08f4 020A0000 		.long	0xa02
 1853 08f8 0D       		.uleb128 0xd
 1854 08f9 65060000 		.long	.LASF131
 1855 08fd DA       		.byte	0xda
 1856 08fe 2F       		.byte	0x2f
 1857 08ff 5D030000 		.long	0x35d
 1858 0903 02       		.uleb128 0x2
 1859 0904 91       		.byte	0x91
 1860 0905 00       		.sleb128 0
GAS LISTING /tmp/ccN2CQgX.s 			page 34


 1861 0906 0B       		.uleb128 0xb
 1862 0907 747000   		.string	"tp"
 1863 090a DB       		.byte	0xdb
 1864 090b 0D       		.byte	0xd
 1865 090c 8D050000 		.long	0x58d
 1866 0910 14000000 		.long	.LLST10
 1867 0914 0C000000 		.long	.LVUS10
 1868 0918 0B       		.uleb128 0xb
 1869 0919 636D7000 		.string	"cmp"
 1870 091d DC       		.byte	0xdc
 1871 091e 19       		.byte	0x19
 1872 091f 020A0000 		.long	0xa02
 1873 0923 31000000 		.long	.LLST11
 1874 0927 2F000000 		.long	.LVUS11
 1875 092b 0B       		.uleb128 0xb
 1876 092c 72657400 		.string	"ret"
 1877 0930 DD       		.byte	0xdd
 1878 0931 09       		.byte	0x9
 1879 0932 29010000 		.long	0x129
 1880 0936 3C000000 		.long	.LLST12
 1881 093a 3A000000 		.long	.LVUS12
 1882 093e 12       		.uleb128 0x12
 1883 093f 390D0000 		.long	0xd39
 1884 0943 0E000000 		.long	.LBI69
 1885 0947 00       		.byte	.LVU144
 1886 0948 0E000000 		.long	.LBB69
 1887 094c 20000000 		.long	.LBE69-.LBB69
 1888 0950 01       		.byte	0x1
 1889 0951 DF       		.byte	0xdf
 1890 0952 08       		.byte	0x8
 1891 0953 D1090000 		.long	0x9d1
 1892 0957 19       		.uleb128 0x19
 1893 0958 480D0000 		.long	0xd48
 1894 095c 47000000 		.long	.LLST13
 1895 0960 45000000 		.long	.LVUS13
 1896 0964 21       		.uleb128 0x21
 1897 0965 540D0000 		.long	0xd54
 1898 0969 53000000 		.long	.LLST14
 1899 096d 51000000 		.long	.LVUS14
 1900 0971 13       		.uleb128 0x13
 1901 0972 A80D0000 		.long	0xda8
 1902 0976 0E000000 		.long	.LBI71
 1903 097a 03       		.byte	.LVU147
 1904 097b 36000000 		.long	.LLRL15
 1905 097f 02       		.byte	0x2
 1906 0980 82       		.byte	0x82
 1907 0981 03       		.byte	0x3
 1908 0982 97090000 		.long	0x997
 1909 0986 1A       		.uleb128 0x1a
 1910 0987 B80D0000 		.long	0xdb8
 1911 098b 0E000000 		.long	.LBI72
 1912 098f 05       		.byte	.LVU149
 1913 0990 36000000 		.long	.LLRL15
 1914 0994 9901     		.value	0x199
 1915 0996 00       		.byte	0
 1916 0997 12       		.uleb128 0x12
 1917 0998 7B0D0000 		.long	0xd7b
GAS LISTING /tmp/ccN2CQgX.s 			page 35


 1918 099c 28000000 		.long	.LBI80
 1919 09a0 01       		.byte	.LVU160
 1920 09a1 28000000 		.long	.LBB80
 1921 09a5 06000000 		.long	.LBE80-.LBB80
 1922 09a9 02       		.byte	0x2
 1923 09aa 84       		.byte	0x84
 1924 09ab 03       		.byte	0x3
 1925 09ac C7090000 		.long	0x9c7
 1926 09b0 31       		.uleb128 0x31
 1927 09b1 B00D0000 		.long	0xdb0
 1928 09b5 28000000 		.long	.LBI82
 1929 09b9 08       		.byte	.LVU167
 1930 09ba 28000000 		.long	.LBB82
 1931 09be 06000000 		.long	.LBE82-.LBB82
 1932 09c2 03       		.byte	0x3
 1933 09c3 B201     		.value	0x1b2
 1934 09c5 03       		.byte	0x3
 1935 09c6 00       		.byte	0
 1936 09c7 0E       		.uleb128 0xe
 1937 09c8 28000000 		.long	.LVL22
 1938 09cc 8E080000 		.long	0x88e
 1939 09d0 00       		.byte	0
 1940 09d1 12       		.uleb128 0x12
 1941 09d2 000D0000 		.long	0xd00
 1942 09d6 37000000 		.long	.LBI84
 1943 09da 01       		.byte	.LVU175
 1944 09db 37000000 		.long	.LBB84
 1945 09df 00000000 		.long	.LBE84-.LBB84
 1946 09e3 01       		.byte	0x1
 1947 09e4 E4       		.byte	0xe4
 1948 09e5 21       		.byte	0x21
 1949 09e6 F8090000 		.long	0x9f8
 1950 09ea 19       		.uleb128 0x19
 1951 09eb 0F0D0000 		.long	0xd0f
 1952 09ef 5E000000 		.long	.LLST16
 1953 09f3 5C000000 		.long	.LVUS16
 1954 09f7 00       		.byte	0
 1955 09f8 0E       		.uleb128 0xe
 1956 09f9 4D000000 		.long	.LVL28
 1957 09fd AF080000 		.long	0x8af
 1958 0a01 00       		.byte	0
 1959 0a02 03       		.uleb128 0x3
 1960 0a03 89080000 		.long	0x889
 1961 0a07 32       		.uleb128 0x32
 1962 0a08 8C060000 		.long	.LASF136
 1963 0a0c 01       		.byte	0x1
 1964 0a0d BE       		.byte	0xbe
 1965 0a0e 06       		.byte	0x6
 1966 0a0f 00000000 		.long	.LFB209
 1967 0a13 46000000 		.long	.LFE209-.LFB209
 1968 0a17 01       		.uleb128 0x1
 1969 0a18 9C       		.byte	0x9c
 1970 0a19 0A0B0000 		.long	0xb0a
 1971 0a1d 0B       		.uleb128 0xb
 1972 0a1e 747000   		.string	"tp"
 1973 0a21 BF       		.byte	0xbf
 1974 0a22 0D       		.byte	0xd
GAS LISTING /tmp/ccN2CQgX.s 			page 36


 1975 0a23 8D050000 		.long	0x58d
 1976 0a27 6D000000 		.long	.LLST2
 1977 0a2b 67000000 		.long	.LVUS2
 1978 0a2f 0B       		.uleb128 0xb
 1979 0a30 636D7000 		.string	"cmp"
 1980 0a34 C0       		.byte	0xc0
 1981 0a35 19       		.byte	0x19
 1982 0a36 020A0000 		.long	0xa02
 1983 0a3a 85000000 		.long	.LLST3
 1984 0a3e 83000000 		.long	.LVUS3
 1985 0a42 0B       		.uleb128 0xb
 1986 0a43 72657400 		.string	"ret"
 1987 0a47 C1       		.byte	0xc1
 1988 0a48 09       		.byte	0x9
 1989 0a49 29010000 		.long	0x129
 1990 0a4d 90000000 		.long	.LLST4
 1991 0a51 8E000000 		.long	.LVUS4
 1992 0a55 13       		.uleb128 0x13
 1993 0a56 600D0000 		.long	0xd60
 1994 0a5a 00000000 		.long	.LBI44
 1995 0a5e 05       		.byte	.LVU95
 1996 0a5f 0C000000 		.long	.LLRL5
 1997 0a63 01       		.byte	0x1
 1998 0a64 C3       		.byte	0xc3
 1999 0a65 08       		.byte	0x8
 2000 0a66 D90A0000 		.long	0xad9
 2001 0a6a 22       		.uleb128 0x22
 2002 0a6b 0C000000 		.long	.LLRL5
 2003 0a6f 21       		.uleb128 0x21
 2004 0a70 6F0D0000 		.long	0xd6f
 2005 0a74 9B000000 		.long	.LLST6
 2006 0a78 99000000 		.long	.LVUS6
 2007 0a7c 13       		.uleb128 0x13
 2008 0a7d A80D0000 		.long	0xda8
 2009 0a81 00000000 		.long	.LBI46
 2010 0a85 08       		.byte	.LVU98
 2011 0a86 1B000000 		.long	.LLRL7
 2012 0a8a 02       		.byte	0x2
 2013 0a8b 62       		.byte	0x62
 2014 0a8c 03       		.byte	0x3
 2015 0a8d A20A0000 		.long	0xaa2
 2016 0a91 1A       		.uleb128 0x1a
 2017 0a92 B80D0000 		.long	0xdb8
 2018 0a96 00000000 		.long	.LBI47
 2019 0a9a 0A       		.byte	.LVU100
 2020 0a9b 1B000000 		.long	.LLRL7
 2021 0a9f 9901     		.value	0x199
 2022 0aa1 00       		.byte	0
 2023 0aa2 13       		.uleb128 0x13
 2024 0aa3 7B0D0000 		.long	0xd7b
 2025 0aa7 2C000000 		.long	.LBI55
 2026 0aab 01       		.byte	.LVU114
 2027 0aac 2A000000 		.long	.LLRL8
 2028 0ab0 02       		.byte	0x2
 2029 0ab1 64       		.byte	0x64
 2030 0ab2 03       		.byte	0x3
 2031 0ab3 CE0A0000 		.long	0xace
GAS LISTING /tmp/ccN2CQgX.s 			page 37


 2032 0ab7 22       		.uleb128 0x22
 2033 0ab8 2A000000 		.long	.LLRL8
 2034 0abc 1A       		.uleb128 0x1a
 2035 0abd B00D0000 		.long	0xdb0
 2036 0ac1 2C000000 		.long	.LBI57
 2037 0ac5 08       		.byte	.LVU121
 2038 0ac6 2A000000 		.long	.LLRL8
 2039 0aca B201     		.value	0x1b2
 2040 0acc 00       		.byte	0
 2041 0acd 00       		.byte	0
 2042 0ace 0E       		.uleb128 0xe
 2043 0acf 21000000 		.long	.LVL14
 2044 0ad3 A3080000 		.long	0x8a3
 2045 0ad7 00       		.byte	0
 2046 0ad8 00       		.byte	0
 2047 0ad9 12       		.uleb128 0x12
 2048 0ada 000D0000 		.long	0xd00
 2049 0ade 2C000000 		.long	.LBI67
 2050 0ae2 0D       		.byte	.LVU126
 2051 0ae3 2C000000 		.long	.LBB67
 2052 0ae7 00000000 		.long	.LBE67-.LBB67
 2053 0aeb 01       		.byte	0x1
 2054 0aec C4       		.byte	0xc4
 2055 0aed 21       		.byte	0x21
 2056 0aee 000B0000 		.long	0xb00
 2057 0af2 19       		.uleb128 0x19
 2058 0af3 0F0D0000 		.long	0xd0f
 2059 0af7 A6000000 		.long	.LLST9
 2060 0afb A4000000 		.long	.LVUS9
 2061 0aff 00       		.byte	0
 2062 0b00 0E       		.uleb128 0xe
 2063 0b01 3F000000 		.long	.LVL19
 2064 0b05 AF080000 		.long	0x8af
 2065 0b09 00       		.byte	0
 2066 0b0a 33       		.uleb128 0x33
 2067 0b0b 35040000 		.long	.LASF130
 2068 0b0f 01       		.byte	0x1
 2069 0b10 9E       		.byte	0x9e
 2070 0b11 07       		.byte	0x7
 2071 0b12 29010000 		.long	0x129
 2072 0b16 00000000 		.long	.LFB208
 2073 0b1a 5B000000 		.long	.LFE208-.LFB208
 2074 0b1e 01       		.uleb128 0x1
 2075 0b1f 9C       		.byte	0x9c
 2076 0b20 830B0000 		.long	0xb83
 2077 0b24 34       		.uleb128 0x34
 2078 0b25 747000   		.string	"tp"
 2079 0b28 01       		.byte	0x1
 2080 0b29 9E       		.byte	0x9e
 2081 0b2a 26       		.byte	0x26
 2082 0b2b 8D050000 		.long	0x58d
 2083 0b2f 02       		.uleb128 0x2
 2084 0b30 91       		.byte	0x91
 2085 0b31 00       		.sleb128 0
 2086 0b32 0D       		.uleb128 0xd
 2087 0b33 39070000 		.long	.LASF123
 2088 0b37 9E       		.byte	0x9e
GAS LISTING /tmp/ccN2CQgX.s 			page 38


 2089 0b38 3C       		.byte	0x3c
 2090 0b39 81070000 		.long	0x781
 2091 0b3d 02       		.uleb128 0x2
 2092 0b3e 91       		.byte	0x91
 2093 0b3f 04       		.sleb128 4
 2094 0b40 35       		.uleb128 0x35
 2095 0b41 36       		.uleb128 0x36
 2096 0b42 4A040000 		.long	.LASF132
 2097 0b46 01       		.byte	0x1
 2098 0b47 9F       		.byte	0x9f
 2099 0b48 0B       		.byte	0xb
 2100 0b49 75070000 		.long	0x775
 2101 0b4d 02       		.uleb128 0x2
 2102 0b4e 91       		.byte	0x91
 2103 0b4f 60       		.sleb128 -32
 2104 0b50 08       		.uleb128 0x8
 2105 0b51 636D00   		.string	"cm"
 2106 0b54 A0       		.byte	0xa0
 2107 0b55 12       		.byte	0x12
 2108 0b56 7D080000 		.long	0x87d
 2109 0b5a 02       		.uleb128 0x2
 2110 0b5b 91       		.byte	0x91
 2111 0b5c 64       		.sleb128 -28
 2112 0b5d 0B       		.uleb128 0xb
 2113 0b5e 6D736700 		.string	"msg"
 2114 0b62 A1       		.byte	0xa1
 2115 0b63 09       		.byte	0x9
 2116 0b64 29010000 		.long	0x129
 2117 0b68 B1000000 		.long	.LLST1
 2118 0b6c AF000000 		.long	.LVUS1
 2119 0b70 0E       		.uleb128 0xe
 2120 0b71 41000000 		.long	.LVL12
 2121 0b75 C6080000 		.long	0x8c6
 2122 0b79 0E       		.uleb128 0xe
 2123 0b7a 5B000000 		.long	.LVL13
 2124 0b7e C00D0000 		.long	0xdc0
 2125 0b82 00       		.byte	0
 2126 0b83 11       		.uleb128 0x11
 2127 0b84 C5030000 		.long	.LASF133
 2128 0b88 8A       		.byte	0x8a
 2129 0b89 29010000 		.long	0x129
 2130 0b8d 00000000 		.long	.LFB207
 2131 0b91 2D000000 		.long	.LFE207-.LFB207
 2132 0b95 01       		.uleb128 0x1
 2133 0b96 9C       		.byte	0x9c
 2134 0b97 E60B0000 		.long	0xbe6
 2135 0b9b 0D       		.uleb128 0xd
 2136 0b9c C6020000 		.long	.LASF124
 2137 0ba0 8A       		.byte	0x8a
 2138 0ba1 22       		.byte	0x22
 2139 0ba2 A1070000 		.long	0x7a1
 2140 0ba6 02       		.uleb128 0x2
 2141 0ba7 91       		.byte	0x91
 2142 0ba8 00       		.sleb128 0
 2143 0ba9 08       		.uleb128 0x8
 2144 0baa 666E3400 		.string	"fn4"
 2145 0bae 8B       		.byte	0x8b
GAS LISTING /tmp/ccN2CQgX.s 			page 39


 2146 0baf 12       		.byte	0x12
 2147 0bb0 2B080000 		.long	0x82b
 2148 0bb4 01       		.uleb128 0x1
 2149 0bb5 51       		.byte	0x51
 2150 0bb6 08       		.uleb128 0x8
 2151 0bb7 703100   		.string	"p1"
 2152 0bba 8C       		.byte	0x8c
 2153 0bbb 09       		.byte	0x9
 2154 0bbc 29010000 		.long	0x129
 2155 0bc0 01       		.uleb128 0x1
 2156 0bc1 53       		.byte	0x53
 2157 0bc2 08       		.uleb128 0x8
 2158 0bc3 703200   		.string	"p2"
 2159 0bc6 8D       		.byte	0x8d
 2160 0bc7 09       		.byte	0x9
 2161 0bc8 29010000 		.long	0x129
 2162 0bcc 01       		.uleb128 0x1
 2163 0bcd 56       		.byte	0x56
 2164 0bce 08       		.uleb128 0x8
 2165 0bcf 703300   		.string	"p3"
 2166 0bd2 8E       		.byte	0x8e
 2167 0bd3 09       		.byte	0x9
 2168 0bd4 29010000 		.long	0x129
 2169 0bd8 01       		.uleb128 0x1
 2170 0bd9 57       		.byte	0x57
 2171 0bda 0C       		.uleb128 0xc
 2172 0bdb 703400   		.string	"p4"
 2173 0bde 01       		.byte	0x1
 2174 0bdf 8F       		.byte	0x8f
 2175 0be0 09       		.byte	0x9
 2176 0be1 29010000 		.long	0x129
 2177 0be5 00       		.byte	0
 2178 0be6 11       		.uleb128 0x11
 2179 0be7 B3030000 		.long	.LASF134
 2180 0beb 7C       		.byte	0x7c
 2181 0bec 29010000 		.long	0x129
 2182 0bf0 00000000 		.long	.LFB206
 2183 0bf4 27000000 		.long	.LFE206-.LFB206
 2184 0bf8 01       		.uleb128 0x1
 2185 0bf9 9C       		.byte	0x9c
 2186 0bfa 3D0C0000 		.long	0xc3d
 2187 0bfe 0D       		.uleb128 0xd
 2188 0bff C6020000 		.long	.LASF124
 2189 0c03 7C       		.byte	0x7c
 2190 0c04 22       		.byte	0x22
 2191 0c05 A1070000 		.long	0x7a1
 2192 0c09 02       		.uleb128 0x2
 2193 0c0a 91       		.byte	0x91
 2194 0c0b 00       		.sleb128 0
 2195 0c0c 08       		.uleb128 0x8
 2196 0c0d 666E3300 		.string	"fn3"
 2197 0c11 7D       		.byte	0x7d
 2198 0c12 12       		.byte	0x12
 2199 0c13 01080000 		.long	0x801
 2200 0c17 01       		.uleb128 0x1
 2201 0c18 51       		.byte	0x51
 2202 0c19 08       		.uleb128 0x8
GAS LISTING /tmp/ccN2CQgX.s 			page 40


 2203 0c1a 703100   		.string	"p1"
 2204 0c1d 7E       		.byte	0x7e
 2205 0c1e 09       		.byte	0x9
 2206 0c1f 29010000 		.long	0x129
 2207 0c23 01       		.uleb128 0x1
 2208 0c24 53       		.byte	0x53
 2209 0c25 08       		.uleb128 0x8
 2210 0c26 703200   		.string	"p2"
 2211 0c29 7F       		.byte	0x7f
 2212 0c2a 09       		.byte	0x9
 2213 0c2b 29010000 		.long	0x129
 2214 0c2f 01       		.uleb128 0x1
 2215 0c30 56       		.byte	0x56
 2216 0c31 0C       		.uleb128 0xc
 2217 0c32 703300   		.string	"p3"
 2218 0c35 01       		.byte	0x1
 2219 0c36 80       		.byte	0x80
 2220 0c37 09       		.byte	0x9
 2221 0c38 29010000 		.long	0x129
 2222 0c3c 00       		.byte	0
 2223 0c3d 11       		.uleb128 0x11
 2224 0c3e A1030000 		.long	.LASF135
 2225 0c42 6F       		.byte	0x6f
 2226 0c43 29010000 		.long	0x129
 2227 0c47 00000000 		.long	.LFB205
 2228 0c4b 21000000 		.long	.LFE205-.LFB205
 2229 0c4f 01       		.uleb128 0x1
 2230 0c50 9C       		.byte	0x9c
 2231 0c51 880C0000 		.long	0xc88
 2232 0c55 0D       		.uleb128 0xd
 2233 0c56 C6020000 		.long	.LASF124
 2234 0c5a 6F       		.byte	0x6f
 2235 0c5b 22       		.byte	0x22
 2236 0c5c A1070000 		.long	0x7a1
 2237 0c60 02       		.uleb128 0x2
 2238 0c61 91       		.byte	0x91
 2239 0c62 00       		.sleb128 0
 2240 0c63 08       		.uleb128 0x8
 2241 0c64 666E3200 		.string	"fn2"
 2242 0c68 70       		.byte	0x70
 2243 0c69 12       		.byte	0x12
 2244 0c6a DC070000 		.long	0x7dc
 2245 0c6e 01       		.uleb128 0x1
 2246 0c6f 51       		.byte	0x51
 2247 0c70 08       		.uleb128 0x8
 2248 0c71 703100   		.string	"p1"
 2249 0c74 71       		.byte	0x71
 2250 0c75 09       		.byte	0x9
 2251 0c76 29010000 		.long	0x129
 2252 0c7a 01       		.uleb128 0x1
 2253 0c7b 53       		.byte	0x53
 2254 0c7c 0C       		.uleb128 0xc
 2255 0c7d 703200   		.string	"p2"
 2256 0c80 01       		.byte	0x1
 2257 0c81 72       		.byte	0x72
 2258 0c82 09       		.byte	0x9
 2259 0c83 29010000 		.long	0x129
GAS LISTING /tmp/ccN2CQgX.s 			page 41


 2260 0c87 00       		.byte	0
 2261 0c88 23       		.uleb128 0x23
 2262 0c89 8F030000 		.long	.LASF137
 2263 0c8d 63       		.byte	0x63
 2264 0c8e 29010000 		.long	0x129
 2265 0c92 00000000 		.long	.LFB204
 2266 0c96 18000000 		.long	.LFE204-.LFB204
 2267 0c9a 01       		.uleb128 0x1
 2268 0c9b 9C       		.byte	0x9c
 2269 0c9c CD0C0000 		.long	0xccd
 2270 0ca0 37       		.uleb128 0x37
 2271 0ca1 C6020000 		.long	.LASF124
 2272 0ca5 01       		.byte	0x1
 2273 0ca6 63       		.byte	0x63
 2274 0ca7 22       		.byte	0x22
 2275 0ca8 A1070000 		.long	0x7a1
 2276 0cac BE000000 		.long	.LLST0
 2277 0cb0 BA000000 		.long	.LVUS0
 2278 0cb4 08       		.uleb128 0x8
 2279 0cb5 666E3100 		.string	"fn1"
 2280 0cb9 64       		.byte	0x64
 2281 0cba 12       		.byte	0x12
 2282 0cbb BC070000 		.long	0x7bc
 2283 0cbf 01       		.uleb128 0x1
 2284 0cc0 51       		.byte	0x51
 2285 0cc1 0C       		.uleb128 0xc
 2286 0cc2 703100   		.string	"p1"
 2287 0cc5 01       		.byte	0x1
 2288 0cc6 65       		.byte	0x65
 2289 0cc7 09       		.byte	0x9
 2290 0cc8 29010000 		.long	0x129
 2291 0ccc 00       		.byte	0
 2292 0ccd 23       		.uleb128 0x23
 2293 0cce 7D030000 		.long	.LASF138
 2294 0cd2 58       		.byte	0x58
 2295 0cd3 29010000 		.long	0x129
 2296 0cd7 00000000 		.long	.LFB203
 2297 0cdb 0D000000 		.long	.LFE203-.LFB203
 2298 0cdf 01       		.uleb128 0x1
 2299 0ce0 9C       		.byte	0x9c
 2300 0ce1 000D0000 		.long	0xd00
 2301 0ce5 0D       		.uleb128 0xd
 2302 0ce6 C6020000 		.long	.LASF124
 2303 0cea 58       		.byte	0x58
 2304 0ceb 22       		.byte	0x22
 2305 0cec A1070000 		.long	0x7a1
 2306 0cf0 02       		.uleb128 0x2
 2307 0cf1 91       		.byte	0x91
 2308 0cf2 00       		.sleb128 0
 2309 0cf3 0C       		.uleb128 0xc
 2310 0cf4 666E3000 		.string	"fn0"
 2311 0cf8 01       		.byte	0x1
 2312 0cf9 59       		.byte	0x59
 2313 0cfa 12       		.byte	0x12
 2314 0cfb A6070000 		.long	0x7a6
 2315 0cff 00       		.byte	0
 2316 0d00 1B       		.uleb128 0x1b
GAS LISTING /tmp/ccN2CQgX.s 			page 42


 2317 0d01 A8010000 		.long	.LASF139
 2318 0d05 BD       		.byte	0xbd
 2319 0d06 15       		.byte	0x15
 2320 0d07 29010000 		.long	0x129
 2321 0d0b 240D0000 		.long	0xd24
 2322 0d0f 38       		.uleb128 0x38
 2323 0d10 747000   		.string	"tp"
 2324 0d13 02       		.byte	0x2
 2325 0d14 BD       		.byte	0xbd
 2326 0d15 28       		.byte	0x28
 2327 0d16 8D050000 		.long	0x58d
 2328 0d1a 24       		.uleb128 0x24
 2329 0d1b F3060000 		.long	.LASF142
 2330 0d1f 340D0000 		.long	0xd34
 2331 0d23 00       		.byte	0
 2332 0d24 16       		.uleb128 0x16
 2333 0d25 B3000000 		.long	0xb3
 2334 0d29 340D0000 		.long	0xd34
 2335 0d2d 17       		.uleb128 0x17
 2336 0d2e 2D000000 		.long	0x2d
 2337 0d32 08       		.byte	0x8
 2338 0d33 00       		.byte	0
 2339 0d34 0F       		.uleb128 0xf
 2340 0d35 240D0000 		.long	0xd24
 2341 0d39 1B       		.uleb128 0x1b
 2342 0d3a 65040000 		.long	.LASF140
 2343 0d3e 7F       		.byte	0x7f
 2344 0d3f 19       		.byte	0x19
 2345 0d40 8D050000 		.long	0x58d
 2346 0d44 600D0000 		.long	0xd60
 2347 0d48 39       		.uleb128 0x39
 2348 0d49 65060000 		.long	.LASF131
 2349 0d4d 02       		.byte	0x2
 2350 0d4e 7F       		.byte	0x7f
 2351 0d4f 38       		.byte	0x38
 2352 0d50 5D030000 		.long	0x35d
 2353 0d54 0C       		.uleb128 0xc
 2354 0d55 747000   		.string	"tp"
 2355 0d58 02       		.byte	0x2
 2356 0d59 80       		.byte	0x80
 2357 0d5a 0D       		.byte	0xd
 2358 0d5b 8D050000 		.long	0x58d
 2359 0d5f 00       		.byte	0
 2360 0d60 1B       		.uleb128 0x1b
 2361 0d61 46030000 		.long	.LASF141
 2362 0d65 5F       		.byte	0x5f
 2363 0d66 19       		.byte	0x19
 2364 0d67 8D050000 		.long	0x58d
 2365 0d6b 7B0D0000 		.long	0xd7b
 2366 0d6f 0C       		.uleb128 0xc
 2367 0d70 747000   		.string	"tp"
 2368 0d73 02       		.byte	0x2
 2369 0d74 60       		.byte	0x60
 2370 0d75 0D       		.byte	0xd
 2371 0d76 8D050000 		.long	0x58d
 2372 0d7a 00       		.byte	0
 2373 0d7b 3A       		.uleb128 0x3a
GAS LISTING /tmp/ccN2CQgX.s 			page 43


 2374 0d7c C8010000 		.long	.LASF151
 2375 0d80 03       		.byte	0x3
 2376 0d81 A501     		.value	0x1a5
 2377 0d83 14       		.byte	0x14
 2378 0d84 03       		.byte	0x3
 2379 0d85 930D0000 		.long	0xd93
 2380 0d89 24       		.uleb128 0x24
 2381 0d8a F3060000 		.long	.LASF142
 2382 0d8e A30D0000 		.long	0xda3
 2383 0d92 00       		.byte	0
 2384 0d93 16       		.uleb128 0x16
 2385 0d94 B3000000 		.long	0xb3
 2386 0d98 A30D0000 		.long	0xda3
 2387 0d9c 17       		.uleb128 0x17
 2388 0d9d 2D000000 		.long	0x2d
 2389 0da1 0B       		.byte	0xb
 2390 0da2 00       		.byte	0
 2391 0da3 0F       		.uleb128 0xf
 2392 0da4 930D0000 		.long	0xd93
 2393 0da8 1C       		.uleb128 0x1c
 2394 0da9 7C020000 		.long	.LASF143
 2395 0dad 03       		.byte	0x3
 2396 0dae 9701     		.value	0x197
 2397 0db0 1C       		.uleb128 0x1c
 2398 0db1 FC060000 		.long	.LASF144
 2399 0db5 04       		.byte	0x4
 2400 0db6 7201     		.value	0x172
 2401 0db8 1C       		.uleb128 0x1c
 2402 0db9 B8000000 		.long	.LASF145
 2403 0dbd 04       		.byte	0x4
 2404 0dbe 6901     		.value	0x169
 2405 0dc0 3B       		.uleb128 0x3b
 2406 0dc1 42000000 		.long	.LASF152
 2407 0dc5 42000000 		.long	.LASF152
 2408 0dc9 00       		.byte	0
 2409              		.section	.debug_abbrev,"",@progbits
 2410              	.Ldebug_abbrev0:
 2411 0000 01       		.uleb128 0x1
 2412 0001 16       		.uleb128 0x16
 2413 0002 00       		.byte	0
 2414 0003 03       		.uleb128 0x3
 2415 0004 0E       		.uleb128 0xe
 2416 0005 3A       		.uleb128 0x3a
 2417 0006 0B       		.uleb128 0xb
 2418 0007 3B       		.uleb128 0x3b
 2419 0008 0B       		.uleb128 0xb
 2420 0009 39       		.uleb128 0x39
 2421 000a 0B       		.uleb128 0xb
 2422 000b 49       		.uleb128 0x49
 2423 000c 13       		.uleb128 0x13
 2424 000d 00       		.byte	0
 2425 000e 00       		.byte	0
 2426 000f 02       		.uleb128 0x2
 2427 0010 0D       		.uleb128 0xd
 2428 0011 00       		.byte	0
 2429 0012 03       		.uleb128 0x3
 2430 0013 0E       		.uleb128 0xe
GAS LISTING /tmp/ccN2CQgX.s 			page 44


 2431 0014 3A       		.uleb128 0x3a
 2432 0015 0B       		.uleb128 0xb
 2433 0016 3B       		.uleb128 0x3b
 2434 0017 0B       		.uleb128 0xb
 2435 0018 39       		.uleb128 0x39
 2436 0019 0B       		.uleb128 0xb
 2437 001a 49       		.uleb128 0x49
 2438 001b 13       		.uleb128 0x13
 2439 001c 38       		.uleb128 0x38
 2440 001d 0B       		.uleb128 0xb
 2441 001e 00       		.byte	0
 2442 001f 00       		.byte	0
 2443 0020 03       		.uleb128 0x3
 2444 0021 0F       		.uleb128 0xf
 2445 0022 00       		.byte	0
 2446 0023 0B       		.uleb128 0xb
 2447 0024 21       		.uleb128 0x21
 2448 0025 04       		.sleb128 4
 2449 0026 49       		.uleb128 0x49
 2450 0027 13       		.uleb128 0x13
 2451 0028 00       		.byte	0
 2452 0029 00       		.byte	0
 2453 002a 04       		.uleb128 0x4
 2454 002b 0D       		.uleb128 0xd
 2455 002c 00       		.byte	0
 2456 002d 03       		.uleb128 0x3
 2457 002e 0E       		.uleb128 0xe
 2458 002f 3A       		.uleb128 0x3a
 2459 0030 21       		.uleb128 0x21
 2460 0031 0A       		.sleb128 10
 2461 0032 3B       		.uleb128 0x3b
 2462 0033 05       		.uleb128 0x5
 2463 0034 39       		.uleb128 0x39
 2464 0035 0B       		.uleb128 0xb
 2465 0036 49       		.uleb128 0x49
 2466 0037 13       		.uleb128 0x13
 2467 0038 38       		.uleb128 0x38
 2468 0039 0B       		.uleb128 0xb
 2469 003a 00       		.byte	0
 2470 003b 00       		.byte	0
 2471 003c 05       		.uleb128 0x5
 2472 003d 05       		.uleb128 0x5
 2473 003e 00       		.byte	0
 2474 003f 49       		.uleb128 0x49
 2475 0040 13       		.uleb128 0x13
 2476 0041 00       		.byte	0
 2477 0042 00       		.byte	0
 2478 0043 06       		.uleb128 0x6
 2479 0044 24       		.uleb128 0x24
 2480 0045 00       		.byte	0
 2481 0046 0B       		.uleb128 0xb
 2482 0047 0B       		.uleb128 0xb
 2483 0048 3E       		.uleb128 0x3e
 2484 0049 0B       		.uleb128 0xb
 2485 004a 03       		.uleb128 0x3
 2486 004b 0E       		.uleb128 0xe
 2487 004c 00       		.byte	0
GAS LISTING /tmp/ccN2CQgX.s 			page 45


 2488 004d 00       		.byte	0
 2489 004e 07       		.uleb128 0x7
 2490 004f 13       		.uleb128 0x13
 2491 0050 01       		.byte	0x1
 2492 0051 03       		.uleb128 0x3
 2493 0052 0E       		.uleb128 0xe
 2494 0053 0B       		.uleb128 0xb
 2495 0054 0B       		.uleb128 0xb
 2496 0055 3A       		.uleb128 0x3a
 2497 0056 0B       		.uleb128 0xb
 2498 0057 3B       		.uleb128 0x3b
 2499 0058 0B       		.uleb128 0xb
 2500 0059 39       		.uleb128 0x39
 2501 005a 0B       		.uleb128 0xb
 2502 005b 01       		.uleb128 0x1
 2503 005c 13       		.uleb128 0x13
 2504 005d 00       		.byte	0
 2505 005e 00       		.byte	0
 2506 005f 08       		.uleb128 0x8
 2507 0060 34       		.uleb128 0x34
 2508 0061 00       		.byte	0
 2509 0062 03       		.uleb128 0x3
 2510 0063 08       		.uleb128 0x8
 2511 0064 3A       		.uleb128 0x3a
 2512 0065 21       		.uleb128 0x21
 2513 0066 01       		.sleb128 1
 2514 0067 3B       		.uleb128 0x3b
 2515 0068 0B       		.uleb128 0xb
 2516 0069 39       		.uleb128 0x39
 2517 006a 0B       		.uleb128 0xb
 2518 006b 49       		.uleb128 0x49
 2519 006c 13       		.uleb128 0x13
 2520 006d 02       		.uleb128 0x2
 2521 006e 18       		.uleb128 0x18
 2522 006f 00       		.byte	0
 2523 0070 00       		.byte	0
 2524 0071 09       		.uleb128 0x9
 2525 0072 0D       		.uleb128 0xd
 2526 0073 00       		.byte	0
 2527 0074 03       		.uleb128 0x3
 2528 0075 08       		.uleb128 0x8
 2529 0076 3A       		.uleb128 0x3a
 2530 0077 0B       		.uleb128 0xb
 2531 0078 3B       		.uleb128 0x3b
 2532 0079 0B       		.uleb128 0xb
 2533 007a 39       		.uleb128 0x39
 2534 007b 0B       		.uleb128 0xb
 2535 007c 49       		.uleb128 0x49
 2536 007d 13       		.uleb128 0x13
 2537 007e 38       		.uleb128 0x38
 2538 007f 0B       		.uleb128 0xb
 2539 0080 00       		.byte	0
 2540 0081 00       		.byte	0
 2541 0082 0A       		.uleb128 0xa
 2542 0083 0D       		.uleb128 0xd
 2543 0084 00       		.byte	0
 2544 0085 03       		.uleb128 0x3
GAS LISTING /tmp/ccN2CQgX.s 			page 46


 2545 0086 0E       		.uleb128 0xe
 2546 0087 3A       		.uleb128 0x3a
 2547 0088 21       		.uleb128 0x21
 2548 0089 0A       		.sleb128 10
 2549 008a 3B       		.uleb128 0x3b
 2550 008b 05       		.uleb128 0x5
 2551 008c 39       		.uleb128 0x39
 2552 008d 0B       		.uleb128 0xb
 2553 008e 49       		.uleb128 0x49
 2554 008f 13       		.uleb128 0x13
 2555 0090 00       		.byte	0
 2556 0091 00       		.byte	0
 2557 0092 0B       		.uleb128 0xb
 2558 0093 34       		.uleb128 0x34
 2559 0094 00       		.byte	0
 2560 0095 03       		.uleb128 0x3
 2561 0096 08       		.uleb128 0x8
 2562 0097 3A       		.uleb128 0x3a
 2563 0098 21       		.uleb128 0x21
 2564 0099 01       		.sleb128 1
 2565 009a 3B       		.uleb128 0x3b
 2566 009b 0B       		.uleb128 0xb
 2567 009c 39       		.uleb128 0x39
 2568 009d 0B       		.uleb128 0xb
 2569 009e 49       		.uleb128 0x49
 2570 009f 13       		.uleb128 0x13
 2571 00a0 02       		.uleb128 0x2
 2572 00a1 17       		.uleb128 0x17
 2573 00a2 B742     		.uleb128 0x2137
 2574 00a4 17       		.uleb128 0x17
 2575 00a5 00       		.byte	0
 2576 00a6 00       		.byte	0
 2577 00a7 0C       		.uleb128 0xc
 2578 00a8 34       		.uleb128 0x34
 2579 00a9 00       		.byte	0
 2580 00aa 03       		.uleb128 0x3
 2581 00ab 08       		.uleb128 0x8
 2582 00ac 3A       		.uleb128 0x3a
 2583 00ad 0B       		.uleb128 0xb
 2584 00ae 3B       		.uleb128 0x3b
 2585 00af 0B       		.uleb128 0xb
 2586 00b0 39       		.uleb128 0x39
 2587 00b1 0B       		.uleb128 0xb
 2588 00b2 49       		.uleb128 0x49
 2589 00b3 13       		.uleb128 0x13
 2590 00b4 00       		.byte	0
 2591 00b5 00       		.byte	0
 2592 00b6 0D       		.uleb128 0xd
 2593 00b7 05       		.uleb128 0x5
 2594 00b8 00       		.byte	0
 2595 00b9 03       		.uleb128 0x3
 2596 00ba 0E       		.uleb128 0xe
 2597 00bb 3A       		.uleb128 0x3a
 2598 00bc 21       		.uleb128 0x21
 2599 00bd 01       		.sleb128 1
 2600 00be 3B       		.uleb128 0x3b
 2601 00bf 0B       		.uleb128 0xb
GAS LISTING /tmp/ccN2CQgX.s 			page 47


 2602 00c0 39       		.uleb128 0x39
 2603 00c1 0B       		.uleb128 0xb
 2604 00c2 49       		.uleb128 0x49
 2605 00c3 13       		.uleb128 0x13
 2606 00c4 02       		.uleb128 0x2
 2607 00c5 18       		.uleb128 0x18
 2608 00c6 00       		.byte	0
 2609 00c7 00       		.byte	0
 2610 00c8 0E       		.uleb128 0xe
 2611 00c9 48       		.uleb128 0x48
 2612 00ca 00       		.byte	0
 2613 00cb 7D       		.uleb128 0x7d
 2614 00cc 01       		.uleb128 0x1
 2615 00cd 7F       		.uleb128 0x7f
 2616 00ce 13       		.uleb128 0x13
 2617 00cf 00       		.byte	0
 2618 00d0 00       		.byte	0
 2619 00d1 0F       		.uleb128 0xf
 2620 00d2 26       		.uleb128 0x26
 2621 00d3 00       		.byte	0
 2622 00d4 49       		.uleb128 0x49
 2623 00d5 13       		.uleb128 0x13
 2624 00d6 00       		.byte	0
 2625 00d7 00       		.byte	0
 2626 00d8 10       		.uleb128 0x10
 2627 00d9 15       		.uleb128 0x15
 2628 00da 01       		.byte	0x1
 2629 00db 27       		.uleb128 0x27
 2630 00dc 19       		.uleb128 0x19
 2631 00dd 49       		.uleb128 0x49
 2632 00de 13       		.uleb128 0x13
 2633 00df 01       		.uleb128 0x1
 2634 00e0 13       		.uleb128 0x13
 2635 00e1 00       		.byte	0
 2636 00e2 00       		.byte	0
 2637 00e3 11       		.uleb128 0x11
 2638 00e4 2E       		.uleb128 0x2e
 2639 00e5 01       		.byte	0x1
 2640 00e6 3F       		.uleb128 0x3f
 2641 00e7 19       		.uleb128 0x19
 2642 00e8 03       		.uleb128 0x3
 2643 00e9 0E       		.uleb128 0xe
 2644 00ea 3A       		.uleb128 0x3a
 2645 00eb 21       		.uleb128 0x21
 2646 00ec 01       		.sleb128 1
 2647 00ed 3B       		.uleb128 0x3b
 2648 00ee 0B       		.uleb128 0xb
 2649 00ef 39       		.uleb128 0x39
 2650 00f0 21       		.uleb128 0x21
 2651 00f1 07       		.sleb128 7
 2652 00f2 27       		.uleb128 0x27
 2653 00f3 19       		.uleb128 0x19
 2654 00f4 49       		.uleb128 0x49
 2655 00f5 13       		.uleb128 0x13
 2656 00f6 11       		.uleb128 0x11
 2657 00f7 01       		.uleb128 0x1
 2658 00f8 12       		.uleb128 0x12
GAS LISTING /tmp/ccN2CQgX.s 			page 48


 2659 00f9 06       		.uleb128 0x6
 2660 00fa 40       		.uleb128 0x40
 2661 00fb 18       		.uleb128 0x18
 2662 00fc 7C       		.uleb128 0x7c
 2663 00fd 19       		.uleb128 0x19
 2664 00fe 01       		.uleb128 0x1
 2665 00ff 13       		.uleb128 0x13
 2666 0100 00       		.byte	0
 2667 0101 00       		.byte	0
 2668 0102 12       		.uleb128 0x12
 2669 0103 1D       		.uleb128 0x1d
 2670 0104 01       		.byte	0x1
 2671 0105 31       		.uleb128 0x31
 2672 0106 13       		.uleb128 0x13
 2673 0107 52       		.uleb128 0x52
 2674 0108 01       		.uleb128 0x1
 2675 0109 B842     		.uleb128 0x2138
 2676 010b 0B       		.uleb128 0xb
 2677 010c 11       		.uleb128 0x11
 2678 010d 01       		.uleb128 0x1
 2679 010e 12       		.uleb128 0x12
 2680 010f 06       		.uleb128 0x6
 2681 0110 58       		.uleb128 0x58
 2682 0111 0B       		.uleb128 0xb
 2683 0112 59       		.uleb128 0x59
 2684 0113 0B       		.uleb128 0xb
 2685 0114 57       		.uleb128 0x57
 2686 0115 0B       		.uleb128 0xb
 2687 0116 01       		.uleb128 0x1
 2688 0117 13       		.uleb128 0x13
 2689 0118 00       		.byte	0
 2690 0119 00       		.byte	0
 2691 011a 13       		.uleb128 0x13
 2692 011b 1D       		.uleb128 0x1d
 2693 011c 01       		.byte	0x1
 2694 011d 31       		.uleb128 0x31
 2695 011e 13       		.uleb128 0x13
 2696 011f 52       		.uleb128 0x52
 2697 0120 01       		.uleb128 0x1
 2698 0121 B842     		.uleb128 0x2138
 2699 0123 0B       		.uleb128 0xb
 2700 0124 55       		.uleb128 0x55
 2701 0125 17       		.uleb128 0x17
 2702 0126 58       		.uleb128 0x58
 2703 0127 0B       		.uleb128 0xb
 2704 0128 59       		.uleb128 0x59
 2705 0129 0B       		.uleb128 0xb
 2706 012a 57       		.uleb128 0x57
 2707 012b 0B       		.uleb128 0xb
 2708 012c 01       		.uleb128 0x1
 2709 012d 13       		.uleb128 0x13
 2710 012e 00       		.byte	0
 2711 012f 00       		.byte	0
 2712 0130 14       		.uleb128 0x14
 2713 0131 35       		.uleb128 0x35
 2714 0132 00       		.byte	0
 2715 0133 49       		.uleb128 0x49
GAS LISTING /tmp/ccN2CQgX.s 			page 49


 2716 0134 13       		.uleb128 0x13
 2717 0135 00       		.byte	0
 2718 0136 00       		.byte	0
 2719 0137 15       		.uleb128 0x15
 2720 0138 13       		.uleb128 0x13
 2721 0139 01       		.byte	0x1
 2722 013a 03       		.uleb128 0x3
 2723 013b 0E       		.uleb128 0xe
 2724 013c 0B       		.uleb128 0xb
 2725 013d 0B       		.uleb128 0xb
 2726 013e 3A       		.uleb128 0x3a
 2727 013f 21       		.uleb128 0x21
 2728 0140 0A       		.sleb128 10
 2729 0141 3B       		.uleb128 0x3b
 2730 0142 05       		.uleb128 0x5
 2731 0143 39       		.uleb128 0x39
 2732 0144 0B       		.uleb128 0xb
 2733 0145 01       		.uleb128 0x1
 2734 0146 13       		.uleb128 0x13
 2735 0147 00       		.byte	0
 2736 0148 00       		.byte	0
 2737 0149 16       		.uleb128 0x16
 2738 014a 01       		.uleb128 0x1
 2739 014b 01       		.byte	0x1
 2740 014c 49       		.uleb128 0x49
 2741 014d 13       		.uleb128 0x13
 2742 014e 01       		.uleb128 0x1
 2743 014f 13       		.uleb128 0x13
 2744 0150 00       		.byte	0
 2745 0151 00       		.byte	0
 2746 0152 17       		.uleb128 0x17
 2747 0153 21       		.uleb128 0x21
 2748 0154 00       		.byte	0
 2749 0155 49       		.uleb128 0x49
 2750 0156 13       		.uleb128 0x13
 2751 0157 2F       		.uleb128 0x2f
 2752 0158 0B       		.uleb128 0xb
 2753 0159 00       		.byte	0
 2754 015a 00       		.byte	0
 2755 015b 18       		.uleb128 0x18
 2756 015c 0D       		.uleb128 0xd
 2757 015d 00       		.byte	0
 2758 015e 03       		.uleb128 0x3
 2759 015f 0E       		.uleb128 0xe
 2760 0160 3A       		.uleb128 0x3a
 2761 0161 21       		.uleb128 0x21
 2762 0162 0A       		.sleb128 10
 2763 0163 3B       		.uleb128 0x3b
 2764 0164 0B       		.uleb128 0xb
 2765 0165 39       		.uleb128 0x39
 2766 0166 21       		.uleb128 0x21
 2767 0167 21       		.sleb128 33
 2768 0168 49       		.uleb128 0x49
 2769 0169 13       		.uleb128 0x13
 2770 016a 00       		.byte	0
 2771 016b 00       		.byte	0
 2772 016c 19       		.uleb128 0x19
GAS LISTING /tmp/ccN2CQgX.s 			page 50


 2773 016d 05       		.uleb128 0x5
 2774 016e 00       		.byte	0
 2775 016f 31       		.uleb128 0x31
 2776 0170 13       		.uleb128 0x13
 2777 0171 02       		.uleb128 0x2
 2778 0172 17       		.uleb128 0x17
 2779 0173 B742     		.uleb128 0x2137
 2780 0175 17       		.uleb128 0x17
 2781 0176 00       		.byte	0
 2782 0177 00       		.byte	0
 2783 0178 1A       		.uleb128 0x1a
 2784 0179 1D       		.uleb128 0x1d
 2785 017a 00       		.byte	0
 2786 017b 31       		.uleb128 0x31
 2787 017c 13       		.uleb128 0x13
 2788 017d 52       		.uleb128 0x52
 2789 017e 01       		.uleb128 0x1
 2790 017f B842     		.uleb128 0x2138
 2791 0181 0B       		.uleb128 0xb
 2792 0182 55       		.uleb128 0x55
 2793 0183 17       		.uleb128 0x17
 2794 0184 58       		.uleb128 0x58
 2795 0185 21       		.uleb128 0x21
 2796 0186 03       		.sleb128 3
 2797 0187 59       		.uleb128 0x59
 2798 0188 05       		.uleb128 0x5
 2799 0189 57       		.uleb128 0x57
 2800 018a 21       		.uleb128 0x21
 2801 018b 03       		.sleb128 3
 2802 018c 00       		.byte	0
 2803 018d 00       		.byte	0
 2804 018e 1B       		.uleb128 0x1b
 2805 018f 2E       		.uleb128 0x2e
 2806 0190 01       		.byte	0x1
 2807 0191 03       		.uleb128 0x3
 2808 0192 0E       		.uleb128 0xe
 2809 0193 3A       		.uleb128 0x3a
 2810 0194 21       		.uleb128 0x21
 2811 0195 02       		.sleb128 2
 2812 0196 3B       		.uleb128 0x3b
 2813 0197 0B       		.uleb128 0xb
 2814 0198 39       		.uleb128 0x39
 2815 0199 0B       		.uleb128 0xb
 2816 019a 27       		.uleb128 0x27
 2817 019b 19       		.uleb128 0x19
 2818 019c 49       		.uleb128 0x49
 2819 019d 13       		.uleb128 0x13
 2820 019e 20       		.uleb128 0x20
 2821 019f 21       		.uleb128 0x21
 2822 01a0 03       		.sleb128 3
 2823 01a1 01       		.uleb128 0x1
 2824 01a2 13       		.uleb128 0x13
 2825 01a3 00       		.byte	0
 2826 01a4 00       		.byte	0
 2827 01a5 1C       		.uleb128 0x1c
 2828 01a6 2E       		.uleb128 0x2e
 2829 01a7 00       		.byte	0
GAS LISTING /tmp/ccN2CQgX.s 			page 51


 2830 01a8 03       		.uleb128 0x3
 2831 01a9 0E       		.uleb128 0xe
 2832 01aa 3A       		.uleb128 0x3a
 2833 01ab 0B       		.uleb128 0xb
 2834 01ac 3B       		.uleb128 0x3b
 2835 01ad 05       		.uleb128 0x5
 2836 01ae 39       		.uleb128 0x39
 2837 01af 21       		.uleb128 0x21
 2838 01b0 14       		.sleb128 20
 2839 01b1 27       		.uleb128 0x27
 2840 01b2 19       		.uleb128 0x19
 2841 01b3 20       		.uleb128 0x20
 2842 01b4 21       		.uleb128 0x21
 2843 01b5 03       		.sleb128 3
 2844 01b6 00       		.byte	0
 2845 01b7 00       		.byte	0
 2846 01b8 1D       		.uleb128 0x1d
 2847 01b9 0D       		.uleb128 0xd
 2848 01ba 00       		.byte	0
 2849 01bb 03       		.uleb128 0x3
 2850 01bc 08       		.uleb128 0x8
 2851 01bd 3A       		.uleb128 0x3a
 2852 01be 21       		.uleb128 0x21
 2853 01bf 0A       		.sleb128 10
 2854 01c0 3B       		.uleb128 0x3b
 2855 01c1 05       		.uleb128 0x5
 2856 01c2 39       		.uleb128 0x39
 2857 01c3 21       		.uleb128 0x21
 2858 01c4 21       		.sleb128 33
 2859 01c5 49       		.uleb128 0x49
 2860 01c6 13       		.uleb128 0x13
 2861 01c7 38       		.uleb128 0x38
 2862 01c8 0B       		.uleb128 0xb
 2863 01c9 00       		.byte	0
 2864 01ca 00       		.byte	0
 2865 01cb 1E       		.uleb128 0x1e
 2866 01cc 13       		.uleb128 0x13
 2867 01cd 01       		.byte	0x1
 2868 01ce 0B       		.uleb128 0xb
 2869 01cf 0B       		.uleb128 0xb
 2870 01d0 3A       		.uleb128 0x3a
 2871 01d1 0B       		.uleb128 0xb
 2872 01d2 3B       		.uleb128 0x3b
 2873 01d3 0B       		.uleb128 0xb
 2874 01d4 39       		.uleb128 0x39
 2875 01d5 21       		.uleb128 0x21
 2876 01d6 09       		.sleb128 9
 2877 01d7 01       		.uleb128 0x1
 2878 01d8 13       		.uleb128 0x13
 2879 01d9 00       		.byte	0
 2880 01da 00       		.byte	0
 2881 01db 1F       		.uleb128 0x1f
 2882 01dc 16       		.uleb128 0x16
 2883 01dd 00       		.byte	0
 2884 01de 03       		.uleb128 0x3
 2885 01df 0E       		.uleb128 0xe
 2886 01e0 3A       		.uleb128 0x3a
GAS LISTING /tmp/ccN2CQgX.s 			page 52


 2887 01e1 21       		.uleb128 0x21
 2888 01e2 0A       		.sleb128 10
 2889 01e3 3B       		.uleb128 0x3b
 2890 01e4 05       		.uleb128 0x5
 2891 01e5 39       		.uleb128 0x39
 2892 01e6 21       		.uleb128 0x21
 2893 01e7 03       		.sleb128 3
 2894 01e8 49       		.uleb128 0x49
 2895 01e9 13       		.uleb128 0x13
 2896 01ea 00       		.byte	0
 2897 01eb 00       		.byte	0
 2898 01ec 20       		.uleb128 0x20
 2899 01ed 2E       		.uleb128 0x2e
 2900 01ee 01       		.byte	0x1
 2901 01ef 3F       		.uleb128 0x3f
 2902 01f0 19       		.uleb128 0x19
 2903 01f1 03       		.uleb128 0x3
 2904 01f2 0E       		.uleb128 0xe
 2905 01f3 3A       		.uleb128 0x3a
 2906 01f4 21       		.uleb128 0x21
 2907 01f5 02       		.sleb128 2
 2908 01f6 3B       		.uleb128 0x3b
 2909 01f7 0B       		.uleb128 0xb
 2910 01f8 39       		.uleb128 0x39
 2911 01f9 0B       		.uleb128 0xb
 2912 01fa 27       		.uleb128 0x27
 2913 01fb 19       		.uleb128 0x19
 2914 01fc 49       		.uleb128 0x49
 2915 01fd 13       		.uleb128 0x13
 2916 01fe 3C       		.uleb128 0x3c
 2917 01ff 19       		.uleb128 0x19
 2918 0200 01       		.uleb128 0x1
 2919 0201 13       		.uleb128 0x13
 2920 0202 00       		.byte	0
 2921 0203 00       		.byte	0
 2922 0204 21       		.uleb128 0x21
 2923 0205 34       		.uleb128 0x34
 2924 0206 00       		.byte	0
 2925 0207 31       		.uleb128 0x31
 2926 0208 13       		.uleb128 0x13
 2927 0209 02       		.uleb128 0x2
 2928 020a 17       		.uleb128 0x17
 2929 020b B742     		.uleb128 0x2137
 2930 020d 17       		.uleb128 0x17
 2931 020e 00       		.byte	0
 2932 020f 00       		.byte	0
 2933 0210 22       		.uleb128 0x22
 2934 0211 0B       		.uleb128 0xb
 2935 0212 01       		.byte	0x1
 2936 0213 55       		.uleb128 0x55
 2937 0214 17       		.uleb128 0x17
 2938 0215 00       		.byte	0
 2939 0216 00       		.byte	0
 2940 0217 23       		.uleb128 0x23
 2941 0218 2E       		.uleb128 0x2e
 2942 0219 01       		.byte	0x1
 2943 021a 3F       		.uleb128 0x3f
GAS LISTING /tmp/ccN2CQgX.s 			page 53


 2944 021b 19       		.uleb128 0x19
 2945 021c 03       		.uleb128 0x3
 2946 021d 0E       		.uleb128 0xe
 2947 021e 3A       		.uleb128 0x3a
 2948 021f 21       		.uleb128 0x21
 2949 0220 01       		.sleb128 1
 2950 0221 3B       		.uleb128 0x3b
 2951 0222 0B       		.uleb128 0xb
 2952 0223 39       		.uleb128 0x39
 2953 0224 21       		.uleb128 0x21
 2954 0225 07       		.sleb128 7
 2955 0226 27       		.uleb128 0x27
 2956 0227 19       		.uleb128 0x19
 2957 0228 49       		.uleb128 0x49
 2958 0229 13       		.uleb128 0x13
 2959 022a 11       		.uleb128 0x11
 2960 022b 01       		.uleb128 0x1
 2961 022c 12       		.uleb128 0x12
 2962 022d 06       		.uleb128 0x6
 2963 022e 40       		.uleb128 0x40
 2964 022f 18       		.uleb128 0x18
 2965 0230 01       		.uleb128 0x1
 2966 0231 13       		.uleb128 0x13
 2967 0232 00       		.byte	0
 2968 0233 00       		.byte	0
 2969 0234 24       		.uleb128 0x24
 2970 0235 34       		.uleb128 0x34
 2971 0236 00       		.byte	0
 2972 0237 03       		.uleb128 0x3
 2973 0238 0E       		.uleb128 0xe
 2974 0239 49       		.uleb128 0x49
 2975 023a 13       		.uleb128 0x13
 2976 023b 34       		.uleb128 0x34
 2977 023c 19       		.uleb128 0x19
 2978 023d 00       		.byte	0
 2979 023e 00       		.byte	0
 2980 023f 25       		.uleb128 0x25
 2981 0240 11       		.uleb128 0x11
 2982 0241 01       		.byte	0x1
 2983 0242 25       		.uleb128 0x25
 2984 0243 0E       		.uleb128 0xe
 2985 0244 13       		.uleb128 0x13
 2986 0245 0B       		.uleb128 0xb
 2987 0246 03       		.uleb128 0x3
 2988 0247 1F       		.uleb128 0x1f
 2989 0248 1B       		.uleb128 0x1b
 2990 0249 1F       		.uleb128 0x1f
 2991 024a 55       		.uleb128 0x55
 2992 024b 17       		.uleb128 0x17
 2993 024c 11       		.uleb128 0x11
 2994 024d 01       		.uleb128 0x1
 2995 024e 10       		.uleb128 0x10
 2996 024f 17       		.uleb128 0x17
 2997 0250 00       		.byte	0
 2998 0251 00       		.byte	0
 2999 0252 26       		.uleb128 0x26
 3000 0253 24       		.uleb128 0x24
GAS LISTING /tmp/ccN2CQgX.s 			page 54


 3001 0254 00       		.byte	0
 3002 0255 0B       		.uleb128 0xb
 3003 0256 0B       		.uleb128 0xb
 3004 0257 3E       		.uleb128 0x3e
 3005 0258 0B       		.uleb128 0xb
 3006 0259 03       		.uleb128 0x3
 3007 025a 08       		.uleb128 0x8
 3008 025b 00       		.byte	0
 3009 025c 00       		.byte	0
 3010 025d 27       		.uleb128 0x27
 3011 025e 0F       		.uleb128 0xf
 3012 025f 00       		.byte	0
 3013 0260 0B       		.uleb128 0xb
 3014 0261 0B       		.uleb128 0xb
 3015 0262 00       		.byte	0
 3016 0263 00       		.byte	0
 3017 0264 28       		.uleb128 0x28
 3018 0265 16       		.uleb128 0x16
 3019 0266 00       		.byte	0
 3020 0267 03       		.uleb128 0x3
 3021 0268 0E       		.uleb128 0xe
 3022 0269 3A       		.uleb128 0x3a
 3023 026a 0B       		.uleb128 0xb
 3024 026b 3B       		.uleb128 0x3b
 3025 026c 0B       		.uleb128 0xb
 3026 026d 39       		.uleb128 0x39
 3027 026e 0B       		.uleb128 0xb
 3028 026f 49       		.uleb128 0x49
 3029 0270 13       		.uleb128 0x13
 3030 0271 8801     		.uleb128 0x88
 3031 0273 0B       		.uleb128 0xb
 3032 0274 00       		.byte	0
 3033 0275 00       		.byte	0
 3034 0276 29       		.uleb128 0x29
 3035 0277 34       		.uleb128 0x34
 3036 0278 00       		.byte	0
 3037 0279 03       		.uleb128 0x3
 3038 027a 0E       		.uleb128 0xe
 3039 027b 3A       		.uleb128 0x3a
 3040 027c 0B       		.uleb128 0xb
 3041 027d 3B       		.uleb128 0x3b
 3042 027e 05       		.uleb128 0x5
 3043 027f 39       		.uleb128 0x39
 3044 0280 0B       		.uleb128 0xb
 3045 0281 49       		.uleb128 0x49
 3046 0282 13       		.uleb128 0x13
 3047 0283 3F       		.uleb128 0x3f
 3048 0284 19       		.uleb128 0x19
 3049 0285 3C       		.uleb128 0x3c
 3050 0286 19       		.uleb128 0x19
 3051 0287 00       		.byte	0
 3052 0288 00       		.byte	0
 3053 0289 2A       		.uleb128 0x2a
 3054 028a 15       		.uleb128 0x15
 3055 028b 01       		.byte	0x1
 3056 028c 27       		.uleb128 0x27
 3057 028d 19       		.uleb128 0x19
GAS LISTING /tmp/ccN2CQgX.s 			page 55


 3058 028e 01       		.uleb128 0x1
 3059 028f 13       		.uleb128 0x13
 3060 0290 00       		.byte	0
 3061 0291 00       		.byte	0
 3062 0292 2B       		.uleb128 0x2b
 3063 0293 17       		.uleb128 0x17
 3064 0294 01       		.byte	0x1
 3065 0295 0B       		.uleb128 0xb
 3066 0296 0B       		.uleb128 0xb
 3067 0297 3A       		.uleb128 0x3a
 3068 0298 0B       		.uleb128 0xb
 3069 0299 3B       		.uleb128 0x3b
 3070 029a 0B       		.uleb128 0xb
 3071 029b 39       		.uleb128 0x39
 3072 029c 0B       		.uleb128 0xb
 3073 029d 01       		.uleb128 0x1
 3074 029e 13       		.uleb128 0x13
 3075 029f 00       		.byte	0
 3076 02a0 00       		.byte	0
 3077 02a1 2C       		.uleb128 0x2c
 3078 02a2 17       		.uleb128 0x17
 3079 02a3 01       		.byte	0x1
 3080 02a4 0B       		.uleb128 0xb
 3081 02a5 0B       		.uleb128 0xb
 3082 02a6 3A       		.uleb128 0x3a
 3083 02a7 0B       		.uleb128 0xb
 3084 02a8 3B       		.uleb128 0x3b
 3085 02a9 05       		.uleb128 0x5
 3086 02aa 39       		.uleb128 0x39
 3087 02ab 0B       		.uleb128 0xb
 3088 02ac 01       		.uleb128 0x1
 3089 02ad 13       		.uleb128 0x13
 3090 02ae 00       		.byte	0
 3091 02af 00       		.byte	0
 3092 02b0 2D       		.uleb128 0x2d
 3093 02b1 0F       		.uleb128 0xf
 3094 02b2 00       		.byte	0
 3095 02b3 0B       		.uleb128 0xb
 3096 02b4 0B       		.uleb128 0xb
 3097 02b5 03       		.uleb128 0x3
 3098 02b6 0E       		.uleb128 0xe
 3099 02b7 49       		.uleb128 0x49
 3100 02b8 13       		.uleb128 0x13
 3101 02b9 00       		.byte	0
 3102 02ba 00       		.byte	0
 3103 02bb 2E       		.uleb128 0x2e
 3104 02bc 15       		.uleb128 0x15
 3105 02bd 00       		.byte	0
 3106 02be 27       		.uleb128 0x27
 3107 02bf 19       		.uleb128 0x19
 3108 02c0 49       		.uleb128 0x49
 3109 02c1 13       		.uleb128 0x13
 3110 02c2 00       		.byte	0
 3111 02c3 00       		.byte	0
 3112 02c4 2F       		.uleb128 0x2f
 3113 02c5 2E       		.uleb128 0x2e
 3114 02c6 00       		.byte	0
GAS LISTING /tmp/ccN2CQgX.s 			page 56


 3115 02c7 3F       		.uleb128 0x3f
 3116 02c8 19       		.uleb128 0x19
 3117 02c9 03       		.uleb128 0x3
 3118 02ca 0E       		.uleb128 0xe
 3119 02cb 3A       		.uleb128 0x3a
 3120 02cc 0B       		.uleb128 0xb
 3121 02cd 3B       		.uleb128 0x3b
 3122 02ce 0B       		.uleb128 0xb
 3123 02cf 39       		.uleb128 0x39
 3124 02d0 0B       		.uleb128 0xb
 3125 02d1 27       		.uleb128 0x27
 3126 02d2 19       		.uleb128 0x19
 3127 02d3 49       		.uleb128 0x49
 3128 02d4 13       		.uleb128 0x13
 3129 02d5 3C       		.uleb128 0x3c
 3130 02d6 19       		.uleb128 0x19
 3131 02d7 00       		.byte	0
 3132 02d8 00       		.byte	0
 3133 02d9 30       		.uleb128 0x30
 3134 02da 2E       		.uleb128 0x2e
 3135 02db 01       		.byte	0x1
 3136 02dc 3F       		.uleb128 0x3f
 3137 02dd 19       		.uleb128 0x19
 3138 02de 03       		.uleb128 0x3
 3139 02df 0E       		.uleb128 0xe
 3140 02e0 3A       		.uleb128 0x3a
 3141 02e1 0B       		.uleb128 0xb
 3142 02e2 3B       		.uleb128 0x3b
 3143 02e3 0B       		.uleb128 0xb
 3144 02e4 39       		.uleb128 0x39
 3145 02e5 0B       		.uleb128 0xb
 3146 02e6 27       		.uleb128 0x27
 3147 02e7 19       		.uleb128 0x19
 3148 02e8 3C       		.uleb128 0x3c
 3149 02e9 19       		.uleb128 0x19
 3150 02ea 01       		.uleb128 0x1
 3151 02eb 13       		.uleb128 0x13
 3152 02ec 00       		.byte	0
 3153 02ed 00       		.byte	0
 3154 02ee 31       		.uleb128 0x31
 3155 02ef 1D       		.uleb128 0x1d
 3156 02f0 00       		.byte	0
 3157 02f1 31       		.uleb128 0x31
 3158 02f2 13       		.uleb128 0x13
 3159 02f3 52       		.uleb128 0x52
 3160 02f4 01       		.uleb128 0x1
 3161 02f5 B842     		.uleb128 0x2138
 3162 02f7 0B       		.uleb128 0xb
 3163 02f8 11       		.uleb128 0x11
 3164 02f9 01       		.uleb128 0x1
 3165 02fa 12       		.uleb128 0x12
 3166 02fb 06       		.uleb128 0x6
 3167 02fc 58       		.uleb128 0x58
 3168 02fd 0B       		.uleb128 0xb
 3169 02fe 59       		.uleb128 0x59
 3170 02ff 05       		.uleb128 0x5
 3171 0300 57       		.uleb128 0x57
GAS LISTING /tmp/ccN2CQgX.s 			page 57


 3172 0301 0B       		.uleb128 0xb
 3173 0302 00       		.byte	0
 3174 0303 00       		.byte	0
 3175 0304 32       		.uleb128 0x32
 3176 0305 2E       		.uleb128 0x2e
 3177 0306 01       		.byte	0x1
 3178 0307 3F       		.uleb128 0x3f
 3179 0308 19       		.uleb128 0x19
 3180 0309 03       		.uleb128 0x3
 3181 030a 0E       		.uleb128 0xe
 3182 030b 3A       		.uleb128 0x3a
 3183 030c 0B       		.uleb128 0xb
 3184 030d 3B       		.uleb128 0x3b
 3185 030e 0B       		.uleb128 0xb
 3186 030f 39       		.uleb128 0x39
 3187 0310 0B       		.uleb128 0xb
 3188 0311 27       		.uleb128 0x27
 3189 0312 19       		.uleb128 0x19
 3190 0313 11       		.uleb128 0x11
 3191 0314 01       		.uleb128 0x1
 3192 0315 12       		.uleb128 0x12
 3193 0316 06       		.uleb128 0x6
 3194 0317 40       		.uleb128 0x40
 3195 0318 18       		.uleb128 0x18
 3196 0319 7C       		.uleb128 0x7c
 3197 031a 19       		.uleb128 0x19
 3198 031b 01       		.uleb128 0x1
 3199 031c 13       		.uleb128 0x13
 3200 031d 00       		.byte	0
 3201 031e 00       		.byte	0
 3202 031f 33       		.uleb128 0x33
 3203 0320 2E       		.uleb128 0x2e
 3204 0321 01       		.byte	0x1
 3205 0322 3F       		.uleb128 0x3f
 3206 0323 19       		.uleb128 0x19
 3207 0324 03       		.uleb128 0x3
 3208 0325 0E       		.uleb128 0xe
 3209 0326 3A       		.uleb128 0x3a
 3210 0327 0B       		.uleb128 0xb
 3211 0328 3B       		.uleb128 0x3b
 3212 0329 0B       		.uleb128 0xb
 3213 032a 39       		.uleb128 0x39
 3214 032b 0B       		.uleb128 0xb
 3215 032c 27       		.uleb128 0x27
 3216 032d 19       		.uleb128 0x19
 3217 032e 49       		.uleb128 0x49
 3218 032f 13       		.uleb128 0x13
 3219 0330 11       		.uleb128 0x11
 3220 0331 01       		.uleb128 0x1
 3221 0332 12       		.uleb128 0x12
 3222 0333 06       		.uleb128 0x6
 3223 0334 40       		.uleb128 0x40
 3224 0335 18       		.uleb128 0x18
 3225 0336 7A       		.uleb128 0x7a
 3226 0337 19       		.uleb128 0x19
 3227 0338 01       		.uleb128 0x1
 3228 0339 13       		.uleb128 0x13
GAS LISTING /tmp/ccN2CQgX.s 			page 58


 3229 033a 00       		.byte	0
 3230 033b 00       		.byte	0
 3231 033c 34       		.uleb128 0x34
 3232 033d 05       		.uleb128 0x5
 3233 033e 00       		.byte	0
 3234 033f 03       		.uleb128 0x3
 3235 0340 08       		.uleb128 0x8
 3236 0341 3A       		.uleb128 0x3a
 3237 0342 0B       		.uleb128 0xb
 3238 0343 3B       		.uleb128 0x3b
 3239 0344 0B       		.uleb128 0xb
 3240 0345 39       		.uleb128 0x39
 3241 0346 0B       		.uleb128 0xb
 3242 0347 49       		.uleb128 0x49
 3243 0348 13       		.uleb128 0x13
 3244 0349 02       		.uleb128 0x2
 3245 034a 18       		.uleb128 0x18
 3246 034b 00       		.byte	0
 3247 034c 00       		.byte	0
 3248 034d 35       		.uleb128 0x35
 3249 034e 18       		.uleb128 0x18
 3250 034f 00       		.byte	0
 3251 0350 00       		.byte	0
 3252 0351 00       		.byte	0
 3253 0352 36       		.uleb128 0x36
 3254 0353 34       		.uleb128 0x34
 3255 0354 00       		.byte	0
 3256 0355 03       		.uleb128 0x3
 3257 0356 0E       		.uleb128 0xe
 3258 0357 3A       		.uleb128 0x3a
 3259 0358 0B       		.uleb128 0xb
 3260 0359 3B       		.uleb128 0x3b
 3261 035a 0B       		.uleb128 0xb
 3262 035b 39       		.uleb128 0x39
 3263 035c 0B       		.uleb128 0xb
 3264 035d 49       		.uleb128 0x49
 3265 035e 13       		.uleb128 0x13
 3266 035f 02       		.uleb128 0x2
 3267 0360 18       		.uleb128 0x18
 3268 0361 00       		.byte	0
 3269 0362 00       		.byte	0
 3270 0363 37       		.uleb128 0x37
 3271 0364 05       		.uleb128 0x5
 3272 0365 00       		.byte	0
 3273 0366 03       		.uleb128 0x3
 3274 0367 0E       		.uleb128 0xe
 3275 0368 3A       		.uleb128 0x3a
 3276 0369 0B       		.uleb128 0xb
 3277 036a 3B       		.uleb128 0x3b
 3278 036b 0B       		.uleb128 0xb
 3279 036c 39       		.uleb128 0x39
 3280 036d 0B       		.uleb128 0xb
 3281 036e 49       		.uleb128 0x49
 3282 036f 13       		.uleb128 0x13
 3283 0370 02       		.uleb128 0x2
 3284 0371 17       		.uleb128 0x17
 3285 0372 B742     		.uleb128 0x2137
GAS LISTING /tmp/ccN2CQgX.s 			page 59


 3286 0374 17       		.uleb128 0x17
 3287 0375 00       		.byte	0
 3288 0376 00       		.byte	0
 3289 0377 38       		.uleb128 0x38
 3290 0378 05       		.uleb128 0x5
 3291 0379 00       		.byte	0
 3292 037a 03       		.uleb128 0x3
 3293 037b 08       		.uleb128 0x8
 3294 037c 3A       		.uleb128 0x3a
 3295 037d 0B       		.uleb128 0xb
 3296 037e 3B       		.uleb128 0x3b
 3297 037f 0B       		.uleb128 0xb
 3298 0380 39       		.uleb128 0x39
 3299 0381 0B       		.uleb128 0xb
 3300 0382 49       		.uleb128 0x49
 3301 0383 13       		.uleb128 0x13
 3302 0384 00       		.byte	0
 3303 0385 00       		.byte	0
 3304 0386 39       		.uleb128 0x39
 3305 0387 05       		.uleb128 0x5
 3306 0388 00       		.byte	0
 3307 0389 03       		.uleb128 0x3
 3308 038a 0E       		.uleb128 0xe
 3309 038b 3A       		.uleb128 0x3a
 3310 038c 0B       		.uleb128 0xb
 3311 038d 3B       		.uleb128 0x3b
 3312 038e 0B       		.uleb128 0xb
 3313 038f 39       		.uleb128 0x39
 3314 0390 0B       		.uleb128 0xb
 3315 0391 49       		.uleb128 0x49
 3316 0392 13       		.uleb128 0x13
 3317 0393 00       		.byte	0
 3318 0394 00       		.byte	0
 3319 0395 3A       		.uleb128 0x3a
 3320 0396 2E       		.uleb128 0x2e
 3321 0397 01       		.byte	0x1
 3322 0398 03       		.uleb128 0x3
 3323 0399 0E       		.uleb128 0xe
 3324 039a 3A       		.uleb128 0x3a
 3325 039b 0B       		.uleb128 0xb
 3326 039c 3B       		.uleb128 0x3b
 3327 039d 05       		.uleb128 0x5
 3328 039e 39       		.uleb128 0x39
 3329 039f 0B       		.uleb128 0xb
 3330 03a0 27       		.uleb128 0x27
 3331 03a1 19       		.uleb128 0x19
 3332 03a2 20       		.uleb128 0x20
 3333 03a3 0B       		.uleb128 0xb
 3334 03a4 01       		.uleb128 0x1
 3335 03a5 13       		.uleb128 0x13
 3336 03a6 00       		.byte	0
 3337 03a7 00       		.byte	0
 3338 03a8 3B       		.uleb128 0x3b
 3339 03a9 2E       		.uleb128 0x2e
 3340 03aa 00       		.byte	0
 3341 03ab 3F       		.uleb128 0x3f
 3342 03ac 19       		.uleb128 0x19
GAS LISTING /tmp/ccN2CQgX.s 			page 60


 3343 03ad 3C       		.uleb128 0x3c
 3344 03ae 19       		.uleb128 0x19
 3345 03af 6E       		.uleb128 0x6e
 3346 03b0 0E       		.uleb128 0xe
 3347 03b1 03       		.uleb128 0x3
 3348 03b2 0E       		.uleb128 0xe
 3349 03b3 00       		.byte	0
 3350 03b4 00       		.byte	0
 3351 03b5 00       		.byte	0
 3352              		.section	.debug_loclists,"",@progbits
 3353 0000 CB000000 		.long	.Ldebug_loc3-.Ldebug_loc2
 3354              	.Ldebug_loc2:
 3355 0004 0500     		.value	0x5
 3356 0006 04       		.byte	0x4
 3357 0007 00       		.byte	0
 3358 0008 00000000 		.long	0
 3359              	.Ldebug_loc0:
 3360              	.LVUS10:
 3361 000c 01       		.uleb128 .LVU171
 3362 000d 00       		.uleb128 .LVU182
 3363 000e 00       		.uleb128 .LVU182
 3364 000f 00       		.uleb128 .LVU185
 3365 0010 00       		.uleb128 .LVU185
 3366 0011 00       		.uleb128 .LVU186
 3367 0012 00       		.uleb128 .LVU189
 3368 0013 00       		.uleb128 .LVU190
 3369              	.LLST10:
 3370 0014 06       		.byte	0x6
 3371 0015 2E000000 		.long	.LVL23
 3372 0019 04       		.byte	0x4
 3373 001a 00       		.uleb128 .LVL23-.LVL23
 3374 001b 0C       		.uleb128 .LVL25-.LVL23
 3375 001c 01       		.uleb128 0x1
 3376 001d 50       		.byte	0x50
 3377 001e 04       		.byte	0x4
 3378 001f 0C       		.uleb128 .LVL25-.LVL23
 3379 0020 1A       		.uleb128 .LVL27-.LVL23
 3380 0021 01       		.uleb128 0x1
 3381 0022 53       		.byte	0x53
 3382 0023 04       		.byte	0x4
 3383 0024 1A       		.uleb128 .LVL27-.LVL23
 3384 0025 1E       		.uleb128 .LVL28-1-.LVL23
 3385 0026 02       		.uleb128 0x2
 3386 0027 91       		.byte	0x91
 3387 0028 60       		.sleb128 -32
 3388 0029 04       		.byte	0x4
 3389 002a 28       		.uleb128 .LVL29-.LVL23
 3390 002b 2D       		.uleb128 .LVL30-.LVL23
 3391 002c 01       		.uleb128 0x1
 3392 002d 50       		.byte	0x50
 3393 002e 00       		.byte	0
 3394              	.LVUS11:
 3395 002f 00       		.uleb128 .LVU182
 3396 0030 00       		.uleb128 .LVU184
 3397              	.LLST11:
 3398 0031 08       		.byte	0x8
 3399 0032 3A000000 		.long	.LVL25
GAS LISTING /tmp/ccN2CQgX.s 			page 61


 3400 0036 07       		.uleb128 .LVL26-1-.LVL25
 3401 0037 01       		.uleb128 0x1
 3402 0038 50       		.byte	0x50
 3403 0039 00       		.byte	0
 3404              	.LVUS12:
 3405 003a 00       		.uleb128 .LVU184
 3406 003b 00       		.uleb128 .LVU186
 3407              	.LLST12:
 3408 003c 08       		.byte	0x8
 3409 003d 42000000 		.long	.LVL26
 3410 0041 0A       		.uleb128 .LVL28-1-.LVL26
 3411 0042 01       		.uleb128 0x1
 3412 0043 50       		.byte	0x50
 3413 0044 00       		.byte	0
 3414              	.LVUS13:
 3415 0045 00       		.uleb128 .LVU144
 3416 0046 01       		.uleb128 .LVU171
 3417              	.LLST13:
 3418 0047 08       		.byte	0x8
 3419 0048 0E000000 		.long	.LVL21
 3420 004c 20       		.uleb128 .LVL23-.LVL21
 3421 004d 02       		.uleb128 0x2
 3422 004e 91       		.byte	0x91
 3423 004f 00       		.sleb128 0
 3424 0050 00       		.byte	0
 3425              	.LVUS14:
 3426 0051 00       		.uleb128 .LVU159
 3427 0052 01       		.uleb128 .LVU171
 3428              	.LLST14:
 3429 0053 08       		.byte	0x8
 3430 0054 28000000 		.long	.LVL22
 3431 0058 06       		.uleb128 .LVL23-.LVL22
 3432 0059 01       		.uleb128 0x1
 3433 005a 50       		.byte	0x50
 3434 005b 00       		.byte	0
 3435              	.LVUS16:
 3436 005c 01       		.uleb128 .LVU175
 3437 005d 06       		.uleb128 .LVU180
 3438              	.LLST16:
 3439 005e 08       		.byte	0x8
 3440 005f 37000000 		.long	.LVL24
 3441 0063 00       		.uleb128 .LVL24-.LVL24
 3442 0064 01       		.uleb128 0x1
 3443 0065 50       		.byte	0x50
 3444 0066 00       		.byte	0
 3445              	.LVUS2:
 3446 0067 0B       		.uleb128 .LVU124
 3447 0068 00       		.uleb128 .LVU133
 3448 0069 00       		.uleb128 .LVU133
 3449 006a 00       		.uleb128 .LVU136
 3450 006b 00       		.uleb128 .LVU136
 3451 006c 00       		.uleb128 .LVU137
 3452              	.LLST2:
 3453 006d 06       		.byte	0x6
 3454 006e 2C000000 		.long	.LVL15
 3455 0072 04       		.byte	0x4
 3456 0073 00       		.uleb128 .LVL15-.LVL15
GAS LISTING /tmp/ccN2CQgX.s 			page 62


 3457 0074 03       		.uleb128 .LVL16-.LVL15
 3458 0075 01       		.uleb128 0x1
 3459 0076 50       		.byte	0x50
 3460 0077 04       		.byte	0x4
 3461 0078 03       		.uleb128 .LVL16-.LVL15
 3462 0079 0E       		.uleb128 .LVL18-.LVL15
 3463 007a 01       		.uleb128 0x1
 3464 007b 53       		.byte	0x53
 3465 007c 04       		.byte	0x4
 3466 007d 0E       		.uleb128 .LVL18-.LVL15
 3467 007e 12       		.uleb128 .LVL19-1-.LVL15
 3468 007f 02       		.uleb128 0x2
 3469 0080 91       		.byte	0x91
 3470 0081 60       		.sleb128 -32
 3471 0082 00       		.byte	0
 3472              	.LVUS3:
 3473 0083 00       		.uleb128 .LVU133
 3474 0084 00       		.uleb128 .LVU135
 3475              	.LLST3:
 3476 0085 08       		.byte	0x8
 3477 0086 2F000000 		.long	.LVL16
 3478 008a 04       		.uleb128 .LVL17-1-.LVL16
 3479 008b 01       		.uleb128 0x1
 3480 008c 50       		.byte	0x50
 3481 008d 00       		.byte	0
 3482              	.LVUS4:
 3483 008e 00       		.uleb128 .LVU135
 3484 008f 00       		.uleb128 .LVU137
 3485              	.LLST4:
 3486 0090 08       		.byte	0x8
 3487 0091 34000000 		.long	.LVL17
 3488 0095 0A       		.uleb128 .LVL19-1-.LVL17
 3489 0096 01       		.uleb128 0x1
 3490 0097 50       		.byte	0x50
 3491 0098 00       		.byte	0
 3492              	.LVUS6:
 3493 0099 00       		.uleb128 .LVU113
 3494 009a 0B       		.uleb128 .LVU124
 3495              	.LLST6:
 3496 009b 08       		.byte	0x8
 3497 009c 2C000000 		.long	.LVL15
 3498 00a0 00       		.uleb128 .LVL15-.LVL15
 3499 00a1 01       		.uleb128 0x1
 3500 00a2 50       		.byte	0x50
 3501 00a3 00       		.byte	0
 3502              	.LVUS9:
 3503 00a4 0D       		.uleb128 .LVU126
 3504 00a5 12       		.uleb128 .LVU131
 3505              	.LLST9:
 3506 00a6 08       		.byte	0x8
 3507 00a7 2C000000 		.long	.LVL15
 3508 00ab 00       		.uleb128 .LVL15-.LVL15
 3509 00ac 01       		.uleb128 0x1
 3510 00ad 50       		.byte	0x50
 3511 00ae 00       		.byte	0
 3512              	.LVUS1:
 3513 00af 00       		.uleb128 .LVU85
GAS LISTING /tmp/ccN2CQgX.s 			page 63


 3514 00b0 00       		.uleb128 .LVU89
 3515              	.LLST1:
 3516 00b1 08       		.byte	0x8
 3517 00b2 41000000 		.long	.LVL12
 3518 00b6 19       		.uleb128 .LVL13-1-.LVL12
 3519 00b7 01       		.uleb128 0x1
 3520 00b8 50       		.byte	0x50
 3521 00b9 00       		.byte	0
 3522              	.LVUS0:
 3523 00ba 00       		.uleb128 0
 3524 00bb 00       		.uleb128 .LVU17
 3525 00bc 00       		.uleb128 .LVU17
 3526 00bd 00       		.uleb128 .LVU19
 3527              	.LLST0:
 3528 00be 06       		.byte	0x6
 3529 00bf 00000000 		.long	.LVL2
 3530 00c3 04       		.byte	0x4
 3531 00c4 00       		.uleb128 .LVL2-.LVL2
 3532 00c5 15       		.uleb128 .LVL3-.LVL2
 3533 00c6 02       		.uleb128 0x2
 3534 00c7 91       		.byte	0x91
 3535 00c8 00       		.sleb128 0
 3536 00c9 04       		.byte	0x4
 3537 00ca 15       		.uleb128 .LVL3-.LVL2
 3538 00cb 17       		.uleb128 .LVL4-1-.LVL2
 3539 00cc 01       		.uleb128 0x1
 3540 00cd 52       		.byte	0x52
 3541 00ce 00       		.byte	0
 3542              	.Ldebug_loc3:
 3543              		.section	.debug_aranges,"",@progbits
 3544 0000 54000000 		.long	0x54
 3545 0004 0200     		.value	0x2
 3546 0006 00000000 		.long	.Ldebug_info0
 3547 000a 04       		.byte	0x4
 3548 000b 00       		.byte	0
 3549 000c 0000     		.value	0
 3550 000e 0000     		.value	0
 3551 0010 00000000 		.long	.LFB203
 3552 0014 0D000000 		.long	.LFE203-.LFB203
 3553 0018 00000000 		.long	.LFB204
 3554 001c 18000000 		.long	.LFE204-.LFB204
 3555 0020 00000000 		.long	.LFB205
 3556 0024 21000000 		.long	.LFE205-.LFB205
 3557 0028 00000000 		.long	.LFB206
 3558 002c 27000000 		.long	.LFE206-.LFB206
 3559 0030 00000000 		.long	.LFB207
 3560 0034 2D000000 		.long	.LFE207-.LFB207
 3561 0038 00000000 		.long	.LFB208
 3562 003c 5B000000 		.long	.LFE208-.LFB208
 3563 0040 00000000 		.long	.LFB209
 3564 0044 46000000 		.long	.LFE209-.LFB209
 3565 0048 00000000 		.long	.LFB210
 3566 004c 5D000000 		.long	.LFE210-.LFB210
 3567 0050 00000000 		.long	0
 3568 0054 00000000 		.long	0
 3569              		.section	.debug_rnglists,"",@progbits
 3570              	.Ldebug_ranges0:
GAS LISTING /tmp/ccN2CQgX.s 			page 64


 3571 0000 72000000 		.long	.Ldebug_ranges3-.Ldebug_ranges2
 3572              	.Ldebug_ranges2:
 3573 0004 0500     		.value	0x5
 3574 0006 04       		.byte	0x4
 3575 0007 00       		.byte	0
 3576 0008 00000000 		.long	0
 3577              	.LLRL5:
 3578 000c 05       		.byte	0x5
 3579 000d 00000000 		.long	.LBB44
 3580 0011 04       		.byte	0x4
 3581 0012 00       		.uleb128 .LBB44-.LBB44
 3582 0013 00       		.uleb128 .LBE44-.LBB44
 3583 0014 04       		.byte	0x4
 3584 0015 0E       		.uleb128 .LBB65-.LBB44
 3585 0016 21       		.uleb128 .LBE65-.LBB44
 3586 0017 04       		.byte	0x4
 3587 0018 24       		.uleb128 .LBB66-.LBB44
 3588 0019 2C       		.uleb128 .LBE66-.LBB44
 3589 001a 00       		.byte	0
 3590              	.LLRL7:
 3591 001b 05       		.byte	0x5
 3592 001c 00000000 		.long	.LBB46
 3593 0020 04       		.byte	0x4
 3594 0021 00       		.uleb128 .LBB46-.LBB46
 3595 0022 00       		.uleb128 .LBE46-.LBB46
 3596 0023 04       		.byte	0x4
 3597 0024 0E       		.uleb128 .LBB53-.LBB46
 3598 0025 14       		.uleb128 .LBE53-.LBB46
 3599 0026 04       		.byte	0x4
 3600 0027 16       		.uleb128 .LBB54-.LBB46
 3601 0028 1C       		.uleb128 .LBE54-.LBB46
 3602 0029 00       		.byte	0
 3603              	.LLRL8:
 3604 002a 05       		.byte	0x5
 3605 002b 24000000 		.long	.LBB55
 3606 002f 04       		.byte	0x4
 3607 0030 00       		.uleb128 .LBB55-.LBB55
 3608 0031 06       		.uleb128 .LBE55-.LBB55
 3609 0032 04       		.byte	0x4
 3610 0033 08       		.uleb128 .LBB62-.LBB55
 3611 0034 08       		.uleb128 .LBE62-.LBB55
 3612 0035 00       		.byte	0
 3613              	.LLRL15:
 3614 0036 05       		.byte	0x5
 3615 0037 0E000000 		.long	.LBB71
 3616 003b 04       		.byte	0x4
 3617 003c 00       		.uleb128 .LBB71-.LBB71
 3618 003d 00       		.uleb128 .LBE71-.LBB71
 3619 003e 04       		.byte	0x4
 3620 003f 07       		.uleb128 .LBB78-.LBB71
 3621 0040 0D       		.uleb128 .LBE78-.LBB71
 3622 0041 04       		.byte	0x4
 3623 0042 0F       		.uleb128 .LBB79-.LBB71
 3624 0043 15       		.uleb128 .LBE79-.LBB71
 3625 0044 00       		.byte	0
 3626              	.LLRL17:
 3627 0045 07       		.byte	0x7
GAS LISTING /tmp/ccN2CQgX.s 			page 65


 3628 0046 00000000 		.long	.LFB203
 3629 004a 0D       		.uleb128 .LFE203-.LFB203
 3630 004b 07       		.byte	0x7
 3631 004c 00000000 		.long	.LFB204
 3632 0050 18       		.uleb128 .LFE204-.LFB204
 3633 0051 07       		.byte	0x7
 3634 0052 00000000 		.long	.LFB205
 3635 0056 21       		.uleb128 .LFE205-.LFB205
 3636 0057 07       		.byte	0x7
 3637 0058 00000000 		.long	.LFB206
 3638 005c 27       		.uleb128 .LFE206-.LFB206
 3639 005d 07       		.byte	0x7
 3640 005e 00000000 		.long	.LFB207
 3641 0062 2D       		.uleb128 .LFE207-.LFB207
 3642 0063 07       		.byte	0x7
 3643 0064 00000000 		.long	.LFB208
 3644 0068 5B       		.uleb128 .LFE208-.LFB208
 3645 0069 07       		.byte	0x7
 3646 006a 00000000 		.long	.LFB209
 3647 006e 46       		.uleb128 .LFE209-.LFB209
 3648 006f 07       		.byte	0x7
 3649 0070 00000000 		.long	.LFB210
 3650 0074 5D       		.uleb128 .LFE210-.LFB210
 3651 0075 00       		.byte	0
 3652              	.Ldebug_ranges3:
 3653              		.section	.debug_line,"",@progbits
 3654              	.Ldebug_line0:
 3655 0000 BC030000 		.section	.debug_str,"MS",@progbits,1
 3655      05000400 
 3655      9B000000 
 3655      010101FB 
 3655      0E0D0001 
 3656              	.LASF109:
 3657 0000 63737461 		.string	"cstack_base"
 3657      636B5F62 
 3657      61736500 
 3658              	.LASF101:
 3659 000c 77746D74 		.string	"wtmtxp"
 3659      787000
 3660              	.LASF40:
 3661 0013 64697370 		.string	"dispose"
 3661      6F736500 
 3662              	.LASF88:
 3663 001b 63685F72 		.string	"ch_registry"
 3663      65676973 
 3663      74727900 
 3664              	.LASF149:
 3665 0027 63684D73 		.string	"chMsgWaitS"
 3665      67576169 
 3665      745300
 3666              	.LASF36:
 3667 0032 666C6167 		.string	"flags"
 3667      7300
 3668              	.LASF65:
 3669 0038 73797374 		.string	"systime_t"
 3669      696D655F 
 3669      7400
GAS LISTING /tmp/ccN2CQgX.s 			page 66


 3670              	.LASF152:
 3671 0042 5F5F7374 		.string	"__stack_chk_fail_local"
 3671      61636B5F 
 3671      63686B5F 
 3671      6661696C 
 3671      5F6C6F63 
 3672              	.LASF46:
 3673 0059 7265616C 		.string	"realprio"
 3673      7072696F 
 3673      00
 3674              	.LASF44:
 3675 0062 6570656E 		.string	"epending"
 3675      64696E67 
 3675      00
 3676              	.LASF2:
 3677 006b 756E7369 		.string	"unsigned int"
 3677      676E6564 
 3677      20696E74 
 3677      00
 3678              	.LASF69:
 3679 0078 6E657874 		.string	"next"
 3679      00
 3680              	.LASF6:
 3681 007d 5F466C6F 		.string	"_Float128"
 3681      61743132 
 3681      3800
 3682              	.LASF22:
 3683 0087 73797373 		.string	"syssts_t"
 3683      74735F74 
 3683      00
 3684              	.LASF53:
 3685 0090 636F7265 		.string	"core_id"
 3685      5F696400 
 3686              	.LASF13:
 3687 0098 5F5F696E 		.string	"__int32_t"
 3687      7433325F 
 3687      7400
 3688              	.LASF37:
 3689 00a2 72656673 		.string	"refs"
 3689      00
 3690              	.LASF127:
 3691 00a7 63684D73 		.string	"chMsgSend"
 3691      6753656E 
 3691      6400
 3692              	.LASF97:
 3693 00b1 77746F62 		.string	"wtobjp"
 3693      6A7000
 3694              	.LASF145:
 3695 00b8 706F7274 		.string	"port_lock"
 3695      5F6C6F63 
 3695      6B00
 3696              	.LASF51:
 3697 00c2 76746C69 		.string	"vtlist"
 3697      737400
 3698              	.LASF81:
 3699 00c9 706F7274 		.string	"port_context"
 3699      5F636F6E 
GAS LISTING /tmp/ccN2CQgX.s 			page 67


 3699      74657874 
 3699      00
 3700              	.LASF105:
 3701 00d6 63685F72 		.string	"ch_ready_list"
 3701      65616479 
 3701      5F6C6973 
 3701      7400
 3702              	.LASF68:
 3703 00e4 63685F6C 		.string	"ch_list"
 3703      69737400 
 3704              	.LASF104:
 3705 00ec 63685F6D 		.string	"ch_mutex"
 3705      75746578 
 3705      00
 3706              	.LASF86:
 3707 00f5 6C617374 		.string	"laststamp"
 3707      7374616D 
 3707      7000
 3708              	.LASF102:
 3709 00ff 65776D61 		.string	"ewmask"
 3709      736B00
 3710              	.LASF72:
 3711 0106 70726576 		.string	"prev"
 3711      00
 3712              	.LASF120:
 3713 010b 64656C65 		.string	"delegate_fn2_t"
 3713      67617465 
 3713      5F666E32 
 3713      5F7400
 3714              	.LASF150:
 3715 011a 63684D73 		.string	"chMsgRelease"
 3715      6752656C 
 3715      65617365 
 3715      00
 3716              	.LASF62:
 3717 0127 63685F73 		.string	"ch_system_debug"
 3717      79737465 
 3717      6D5F6465 
 3717      62756700 
 3718              	.LASF93:
 3719 0137 6C697374 		.string	"list"
 3719      00
 3720              	.LASF77:
 3721 013c 63685F64 		.string	"ch_delta_list"
 3721      656C7461 
 3721      5F6C6973 
 3721      7400
 3722              	.LASF20:
 3723 014a 75696E74 		.string	"uint32_t"
 3723      33325F74 
 3723      00
 3724              	.LASF99:
 3725 0153 73656E74 		.string	"sentmsg"
 3725      6D736700 
 3726              	.LASF28:
 3727 015b 6576656E 		.string	"eventmask_t"
 3727      746D6173 
GAS LISTING /tmp/ccN2CQgX.s 			page 68


 3727      6B5F7400 
 3728              	.LASF103:
 3729 0167 63685F73 		.string	"ch_semaphore"
 3729      656D6170 
 3729      686F7265 
 3729      00
 3730              	.LASF26:
 3731 0174 74707269 		.string	"tprio_t"
 3731      6F5F7400 
 3732              	.LASF113:
 3733 017c 6F735F69 		.string	"os_instance_config_t"
 3733      6E737461 
 3733      6E63655F 
 3733      636F6E66 
 3733      69675F74 
 3734              	.LASF16:
 3735 0191 6C6F6E67 		.string	"long long unsigned int"
 3735      206C6F6E 
 3735      6720756E 
 3735      7369676E 
 3735      65642069 
 3736              	.LASF139:
 3737 01a8 63684D73 		.string	"chMsgGet"
 3737      67476574 
 3737      00
 3738              	.LASF94:
 3739 01b1 70717565 		.string	"pqueue"
 3739      756500
 3740              	.LASF29:
 3741 01b8 636E745F 		.string	"cnt_t"
 3741      7400
 3742              	.LASF147:
 3743 01be 73746B6C 		.string	"stkline_t"
 3743      696E655F 
 3743      7400
 3744              	.LASF151:
 3745 01c8 63685379 		.string	"chSysUnlock"
 3745      73556E6C 
 3745      6F636B00 
 3746              	.LASF32:
 3747 01d4 6F776E65 		.string	"owner"
 3747      7200
 3748              	.LASF45:
 3749 01da 6D74786C 		.string	"mtxlist"
 3749      69737400 
 3750              	.LASF83:
 3751 01e2 63685F76 		.string	"ch_virtual_timers_list"
 3751      69727475 
 3751      616C5F74 
 3751      696D6572 
 3751      735F6C69 
 3752              	.LASF54:
 3753 01f9 72666375 		.string	"rfcu"
 3753      00
 3754              	.LASF31:
 3755 01fe 74687265 		.string	"thread_t"
 3755      61645F74 
GAS LISTING /tmp/ccN2CQgX.s 			page 69


 3755      00
 3756              	.LASF115:
 3757 0207 5F5F676E 		.string	"__gnuc_va_list"
 3757      75635F76 
 3757      615F6C69 
 3757      737400
 3758              	.LASF95:
 3759 0216 7264796D 		.string	"rdymsg"
 3759      736700
 3760              	.LASF73:
 3761 021d 63685F70 		.string	"ch_priority_queue_t"
 3761      72696F72 
 3761      6974795F 
 3761      71756575 
 3761      655F7400 
 3762              	.LASF82:
 3763 0231 5F426F6F 		.string	"_Bool"
 3763      6C00
 3764              	.LASF128:
 3765 0237 706F7274 		.string	"port_irq_sts"
 3765      5F697271 
 3765      5F737473 
 3765      00
 3766              	.LASF41:
 3767 0244 6F626A65 		.string	"object"
 3767      637400
 3768              	.LASF59:
 3769 024b 63685F72 		.string	"ch_rfcu"
 3769      66637500 
 3770              	.LASF15:
 3771 0253 5F5F7569 		.string	"__uint64_t"
 3771      6E743634 
 3771      5F7400
 3772              	.LASF118:
 3773 025e 64656C65 		.string	"delegate_fn0_t"
 3773      67617465 
 3773      5F666E30 
 3773      5F7400
 3774              	.LASF49:
 3775 026d 63685F6F 		.string	"ch_os_instance"
 3775      735F696E 
 3775      7374616E 
 3775      636500
 3776              	.LASF143:
 3777 027c 63685379 		.string	"chSysLock"
 3777      734C6F63 
 3777      6B00
 3778              	.LASF75:
 3779 0286 7072696F 		.string	"prio"
 3779      00
 3780              	.LASF17:
 3781 028b 63686172 		.string	"char"
 3781      00
 3782              	.LASF76:
 3783 0290 63685F64 		.string	"ch_delta_list_t"
 3783      656C7461 
 3783      5F6C6973 
GAS LISTING /tmp/ccN2CQgX.s 			page 70


 3783      745F7400 
 3784              	.LASF58:
 3785 02a0 72666375 		.string	"rfcu_mask_t"
 3785      5F6D6173 
 3785      6B5F7400 
 3786              	.LASF91:
 3787 02ac 74687265 		.string	"thread_reference_t"
 3787      61645F72 
 3787      65666572 
 3787      656E6365 
 3787      5F7400
 3788              	.LASF33:
 3789 02bf 77616261 		.string	"wabase"
 3789      736500
 3790              	.LASF124:
 3791 02c6 61726773 		.string	"argsp"
 3791      7000
 3792              	.LASF126:
 3793 02cc 63684D73 		.string	"chMsgWaitTimeoutS"
 3793      67576169 
 3793      7454696D 
 3793      656F7574 
 3793      5300
 3794              	.LASF116:
 3795 02de 76615F6C 		.string	"va_list"
 3795      69737400 
 3796              	.LASF24:
 3797 02e6 74737461 		.string	"tstate_t"
 3797      74655F74 
 3797      00
 3798              	.LASF39:
 3799 02ef 72717565 		.string	"rqueue"
 3799      756500
 3800              	.LASF19:
 3801 02f6 75696E74 		.string	"uint8_t"
 3801      385F7400 
 3802              	.LASF43:
 3803 02fe 6D736771 		.string	"msgqueue"
 3803      75657565 
 3803      00
 3804              	.LASF48:
 3805 0307 63685F74 		.string	"ch_thread"
 3805      68726561 
 3805      6400
 3806              	.LASF64:
 3807 0311 73797374 		.string	"system_debug_t"
 3807      656D5F64 
 3807      65627567 
 3807      5F7400
 3808              	.LASF4:
 3809 0320 6C6F6E67 		.string	"long long int"
 3809      206C6F6E 
 3809      6720696E 
 3809      7400
 3810              	.LASF117:
 3811 032e 64656C65 		.string	"delegate_veneer_t"
 3811      67617465 
GAS LISTING /tmp/ccN2CQgX.s 			page 71


 3811      5F76656E 
 3811      6565725F 
 3811      7400
 3812              	.LASF27:
 3813 0340 6D73675F 		.string	"msg_t"
 3813      7400
 3814              	.LASF141:
 3815 0346 63684D73 		.string	"chMsgWait"
 3815      67576169 
 3815      7400
 3816              	.LASF90:
 3817 0350 72656769 		.string	"registry_t"
 3817      73747279 
 3817      5F7400
 3818              	.LASF121:
 3819 035b 64656C65 		.string	"delegate_fn3_t"
 3819      67617465 
 3819      5F666E33 
 3819      5F7400
 3820              	.LASF112:
 3821 036a 69646C65 		.string	"idlestack_end"
 3821      73746163 
 3821      6B5F656E 
 3821      6400
 3822              	.LASF60:
 3823 0378 6D61736B 		.string	"mask"
 3823      00
 3824              	.LASF138:
 3825 037d 5F5F6368 		.string	"__ch_delegate_fn0"
 3825      5F64656C 
 3825      65676174 
 3825      655F666E 
 3825      3000
 3826              	.LASF137:
 3827 038f 5F5F6368 		.string	"__ch_delegate_fn1"
 3827      5F64656C 
 3827      65676174 
 3827      655F666E 
 3827      3100
 3828              	.LASF135:
 3829 03a1 5F5F6368 		.string	"__ch_delegate_fn2"
 3829      5F64656C 
 3829      65676174 
 3829      655F666E 
 3829      3200
 3830              	.LASF134:
 3831 03b3 5F5F6368 		.string	"__ch_delegate_fn3"
 3831      5F64656C 
 3831      65676174 
 3831      655F666E 
 3831      3300
 3832              	.LASF133:
 3833 03c5 5F5F6368 		.string	"__ch_delegate_fn4"
 3833      5F64656C 
 3833      65676174 
 3833      655F666E 
 3833      3400
GAS LISTING /tmp/ccN2CQgX.s 			page 72


 3834              	.LASF92:
 3835 03d7 74687265 		.string	"thread_dispose_t"
 3835      61645F64 
 3835      6973706F 
 3835      73655F74 
 3835      00
 3836              	.LASF66:
 3837 03e8 73797369 		.string	"sysinterval_t"
 3837      6E746572 
 3837      76616C5F 
 3837      7400
 3838              	.LASF70:
 3839 03f6 63685F71 		.string	"ch_queue_t"
 3839      75657565 
 3839      5F7400
 3840              	.LASF63:
 3841 0401 70616E69 		.string	"panic_msg"
 3841      635F6D73 
 3841      6700
 3842              	.LASF111:
 3843 040b 69646C65 		.string	"idlestack_base"
 3843      73746163 
 3843      6B5F6261 
 3843      736500
 3844              	.LASF23:
 3845 041a 746D6F64 		.string	"tmode_t"
 3845      655F7400 
 3846              	.LASF85:
 3847 0422 73797374 		.string	"systime"
 3847      696D6500 
 3848              	.LASF56:
 3849 042a 69646C65 		.string	"idlethread"
 3849      74687265 
 3849      616400
 3850              	.LASF130:
 3851 0435 63684465 		.string	"chDelegateCallVeneer"
 3851      6C656761 
 3851      74654361 
 3851      6C6C5665 
 3851      6E656572 
 3852              	.LASF132:
 3853 044a 61726773 		.string	"args"
 3853      00
 3854              	.LASF5:
 3855 044f 6C6F6E67 		.string	"long double"
 3855      20646F75 
 3855      626C6500 
 3856              	.LASF67:
 3857 045b 63685F6C 		.string	"ch_list_t"
 3857      6973745F 
 3857      7400
 3858              	.LASF140:
 3859 0465 63684D73 		.string	"chMsgWaitTimeout"
 3859      67576169 
 3859      7454696D 
 3859      656F7574 
 3859      00
GAS LISTING /tmp/ccN2CQgX.s 			page 73


 3860              	.LASF55:
 3861 0476 636F6E66 		.string	"config"
 3861      696700
 3862              	.LASF11:
 3863 047d 73686F72 		.string	"short int"
 3863      7420696E 
 3863      7400
 3864              	.LASF3:
 3865 0487 6C6F6E67 		.string	"long int"
 3865      20696E74 
 3865      00
 3866              	.LASF80:
 3867 0490 706F7274 		.string	"port_intctx"
 3867      5F696E74 
 3867      63747800 
 3868              	.LASF146:
 3869 049c 474E5520 		.string	"GNU C17 11.4.0 -m32 -mtune=generic -march=i686 -ggdb -O2 -ffunction-sections -fdata-secti
 3869      43313720 
 3869      31312E34 
 3869      2E30202D 
 3869      6D333220 
 3870              	.LASF34:
 3871 0554 7761656E 		.string	"waend"
 3871      6400
 3872              	.LASF110:
 3873 055a 63737461 		.string	"cstack_end"
 3873      636B5F65 
 3873      6E6400
 3874              	.LASF108:
 3875 0565 63685F6F 		.string	"ch_os_instance_config"
 3875      735F696E 
 3875      7374616E 
 3875      63655F63 
 3875      6F6E6669 
 3876              	.LASF84:
 3877 057b 646C6973 		.string	"dlist"
 3877      7400
 3878              	.LASF21:
 3879 0581 75696E74 		.string	"uint64_t"
 3879      36345F74 
 3879      00
 3880              	.LASF50:
 3881 058a 726C6973 		.string	"rlist"
 3881      7400
 3882              	.LASF129:
 3883 0590 63684465 		.string	"chDelegateDispatchTimeout"
 3883      6C656761 
 3883      74654469 
 3883      73706174 
 3883      63685469 
 3884              	.LASF12:
 3885 05aa 5F5F7569 		.string	"__uint8_t"
 3885      6E74385F 
 3885      7400
 3886              	.LASF38:
 3887 05b4 6E616D65 		.string	"name"
 3887      00
GAS LISTING /tmp/ccN2CQgX.s 			page 74


 3888              	.LASF119:
 3889 05b9 64656C65 		.string	"delegate_fn1_t"
 3889      67617465 
 3889      5F666E31 
 3889      5F7400
 3890              	.LASF25:
 3891 05c8 74726566 		.string	"trefs_t"
 3891      735F7400 
 3892              	.LASF9:
 3893 05d0 6C6F6E67 		.string	"long unsigned int"
 3893      20756E73 
 3893      69676E65 
 3893      6420696E 
 3893      7400
 3894              	.LASF107:
 3895 05e2 72656164 		.string	"ready_list_t"
 3895      795F6C69 
 3895      73745F74 
 3895      00
 3896              	.LASF89:
 3897 05ef 71756575 		.string	"queue"
 3897      6500
 3898              	.LASF18:
 3899 05f5 696E7433 		.string	"int32_t"
 3899      325F7400 
 3900              	.LASF61:
 3901 05fd 72666375 		.string	"rfcu_t"
 3901      5F7400
 3902              	.LASF100:
 3903 0604 77747365 		.string	"wtsemp"
 3903      6D7000
 3904              	.LASF74:
 3905 060b 63685F70 		.string	"ch_priority_queue"
 3905      72696F72 
 3905      6974795F 
 3905      71756575 
 3905      6500
 3906              	.LASF71:
 3907 061d 63685F71 		.string	"ch_queue"
 3907      75657565 
 3907      00
 3908              	.LASF114:
 3909 0626 6D757465 		.string	"mutex_t"
 3909      785F7400 
 3910              	.LASF7:
 3911 062e 756E7369 		.string	"unsigned char"
 3911      676E6564 
 3911      20636861 
 3911      7200
 3912              	.LASF14:
 3913 063c 5F5F7569 		.string	"__uint32_t"
 3913      6E743332 
 3913      5F7400
 3914              	.LASF42:
 3915 0647 77616974 		.string	"waiting"
 3915      696E6700 
 3916              	.LASF87:
GAS LISTING /tmp/ccN2CQgX.s 			page 75


 3917 064f 76697274 		.string	"virtual_timers_list_t"
 3917      75616C5F 
 3917      74696D65 
 3917      72735F6C 
 3917      6973745F 
 3918              	.LASF131:
 3919 0665 74696D65 		.string	"timeout"
 3919      6F757400 
 3920              	.LASF57:
 3921 066d 6D61696E 		.string	"mainthread"
 3921      74687265 
 3921      616400
 3922              	.LASF35:
 3923 0678 73746174 		.string	"state"
 3923      6500
 3924              	.LASF47:
 3925 067e 6F735F69 		.string	"os_instance_t"
 3925      6E737461 
 3925      6E63655F 
 3925      7400
 3926              	.LASF136:
 3927 068c 63684465 		.string	"chDelegateDispatch"
 3927      6C656761 
 3927      74654469 
 3927      73706174 
 3927      636800
 3928              	.LASF79:
 3929 069f 72656778 		.string	"regx86"
 3929      383600
 3930              	.LASF52:
 3931 06a6 7265676C 		.string	"reglist"
 3931      69737400 
 3932              	.LASF98:
 3933 06ae 77747472 		.string	"wttrp"
 3933      7000
 3934              	.LASF10:
 3935 06b4 7369676E 		.string	"signed char"
 3935      65642063 
 3935      68617200 
 3936              	.LASF78:
 3937 06c0 64656C74 		.string	"delta"
 3937      6100
 3938              	.LASF8:
 3939 06c6 73686F72 		.string	"short unsigned int"
 3939      7420756E 
 3939      7369676E 
 3939      65642069 
 3939      6E7400
 3940              	.LASF148:
 3941 06d9 5F5F6275 		.string	"__builtin_va_list"
 3941      696C7469 
 3941      6E5F7661 
 3941      5F6C6973 
 3941      7400
 3942              	.LASF106:
 3943 06eb 63757272 		.string	"current"
 3943      656E7400 
GAS LISTING /tmp/ccN2CQgX.s 			page 76


 3944              	.LASF142:
 3945 06f3 5F5F6675 		.string	"__func__"
 3945      6E635F5F 
 3945      00
 3946              	.LASF144:
 3947 06fc 706F7274 		.string	"port_unlock"
 3947      5F756E6C 
 3947      6F636B00 
 3948              	.LASF122:
 3949 0708 64656C65 		.string	"delegate_fn4_t"
 3949      67617465 
 3949      5F666E34 
 3949      5F7400
 3950              	.LASF125:
 3951 0717 63616C6C 		.string	"call_message_t"
 3951      5F6D6573 
 3951      73616765 
 3951      5F7400
 3952              	.LASF96:
 3953 0726 65786974 		.string	"exitcode"
 3953      636F6465 
 3953      00
 3954              	.LASF30:
 3955 072f 636F7265 		.string	"core_id_t"
 3955      5F69645F 
 3955      7400
 3956              	.LASF123:
 3957 0739 76656E65 		.string	"veneer"
 3957      657200
 3958              		.section	.debug_line_str,"MS",@progbits,1
 3959              	.LASF1:
 3960 0000 2F686F6D 		.string	"/home/alex/ChibiOS/demos/various/LAB1"
 3960      652F616C 
 3960      65782F43 
 3960      68696269 
 3960      4F532F64 
 3961              	.LASF0:
 3962 0026 2E2E2F2E 		.string	"../../../os/oslib/src/chdelegates.c"
 3962      2E2F2E2E 
 3962      2F6F732F 
 3962      6F736C69 
 3962      622F7372 
 3963              		.hidden	__stack_chk_fail_local
 3964              		.ident	"GCC: (Ubuntu 11.4.0-1ubuntu1~22.04) 11.4.0"
 3965 004a 2F686F6D 		.section	.note.GNU-stack,"",@progbits
 3965      652F616C 
 3965      65782F43 
 3965      68696269 
 3965      4F532F64 
GAS LISTING /tmp/ccN2CQgX.s 			page 77


DEFINED SYMBOLS
                            *ABS*:0000000000000000 chdelegates.c
     /tmp/ccN2CQgX.s:9      .text.__ch_delegate_fn0:0000000000000000 __ch_delegate_fn0
     /tmp/ccN2CQgX.s:33     .text.__ch_delegate_fn1:0000000000000000 __ch_delegate_fn1
     /tmp/ccN2CQgX.s:74     .text.__ch_delegate_fn2:0000000000000000 __ch_delegate_fn2
     /tmp/ccN2CQgX.s:128    .text.__ch_delegate_fn3:0000000000000000 __ch_delegate_fn3
     /tmp/ccN2CQgX.s:194    .text.__ch_delegate_fn4:0000000000000000 __ch_delegate_fn4
     /tmp/ccN2CQgX.s:270    .text.chDelegateCallVeneer:0000000000000000 chDelegateCallVeneer
     /tmp/ccN2CQgX.s:685    .text.__x86.get_pc_thunk.bx:0000000000000000 __x86.get_pc_thunk.bx
     /tmp/ccN2CQgX.s:343    .text.chDelegateDispatch:0000000000000000 chDelegateDispatch
     /tmp/ccN2CQgX.s:696    .text.__x86.get_pc_thunk.si:0000000000000000 __x86.get_pc_thunk.si
     /tmp/ccN2CQgX.s:511    .text.chDelegateDispatchTimeout:0000000000000000 chDelegateDispatchTimeout

UNDEFINED SYMBOLS
_GLOBAL_OFFSET_TABLE_
chMsgSend
__stack_chk_fail_local
port_irq_sts
chMsgWaitS
chMsgRelease
chMsgWaitTimeoutS
