GAS LISTING /tmp/ccN2CQgX.s 			page 1


   1              		.file	"chdelegates.c"
   2              		.text
   3              	.Ltext0:
   4              		.file 0 "/home/alex/ChibiOS/demos/various/LAB1" "../../../os/oslib/src/chdelegates.c"
   5              		.section	.text.__ch_delegate_fn0,"ax",@progbits
   6              		.p2align 4
   7              		.globl	__ch_delegate_fn0
   8              		.type	__ch_delegate_fn0, @function
   9              	__ch_delegate_fn0:
  10              	.LVL0:
  11              	.LFB203:
  12              		.file 1 "../../../os/oslib/src/chdelegates.c"
  13              		.loc 1 88 41 view -0
  14              		.cfi_startproc
  15              		.loc 1 89 3 view .LVU1
  16              		.loc 1 88 41 is_stmt 0 view .LVU2
  17 0000 8B542404 		movl	4(%esp), %edx
  18              		.loc 1 89 18 view .LVU3
  19 0004 8B02     		movl	(%edx), %eax
  20 0006 8D4804   		leal	4(%eax), %ecx
  21 0009 890A     		movl	%ecx, (%edx)
  22              		.loc 1 90 3 is_stmt 1 view .LVU4
  23              		.loc 1 90 10 is_stmt 0 view .LVU5
  24 000b FF20     		jmp	*(%eax)
  25              	.LVL1:
  26              		.cfi_endproc
  27              	.LFE203:
  28              		.size	__ch_delegate_fn0, .-__ch_delegate_fn0
  29              		.section	.text.__ch_delegate_fn1,"ax",@progbits
  30              		.p2align 4
  31              		.globl	__ch_delegate_fn1
  32              		.type	__ch_delegate_fn1, @function
  33              	__ch_delegate_fn1:
  34              	.LVL2:
  35              	.LFB204:
  36              		.loc 1 99 41 is_stmt 1 view -0
  37              		.cfi_startproc
  38              		.loc 1 100 3 view .LVU7
  39              		.loc 1 99 41 is_stmt 0 view .LVU8
  40 0000 53       		pushl	%ebx
  41              		.cfi_def_cfa_offset 8
  42              		.cfi_offset 3, -8
  43              		.loc 1 99 41 view .LVU9
  44 0001 8B542408 		movl	8(%esp), %edx
  45              		.loc 1 100 18 view .LVU10
  46 0005 8B02     		movl	(%edx), %eax
  47 0007 8B08     		movl	(%eax), %ecx
  48              		.loc 1 101 3 is_stmt 1 view .LVU11
  49              		.loc 1 101 9 is_stmt 0 view .LVU12
  50 0009 8D5808   		leal	8(%eax), %ebx
  51              		.loc 1 102 10 view .LVU13
  52 000c 8B4004   		movl	4(%eax), %eax
  53              		.loc 1 101 9 view .LVU14
  54 000f 891A     		movl	%ebx, (%edx)
  55              		.loc 1 102 3 is_stmt 1 view .LVU15
  56              		.loc 1 102 10 is_stmt 0 view .LVU16
  57 0011 89442408 		movl	%eax, 8(%esp)
GAS LISTING /tmp/ccN2CQgX.s 			page 2


  58              	.LVL3:
  59              		.loc 1 103 1 view .LVU17
  60 0015 5B       		popl	%ebx
  61              		.cfi_restore 3
  62              		.cfi_def_cfa_offset 4
  63              		.loc 1 102 10 view .LVU18
  64 0016 FFE1     		jmp	*%ecx
  65              	.LVL4:
  66              		.loc 1 102 10 view .LVU19
  67              		.cfi_endproc
  68              	.LFE204:
  69              		.size	__ch_delegate_fn1, .-__ch_delegate_fn1
  70              		.section	.text.__ch_delegate_fn2,"ax",@progbits
  71              		.p2align 4
  72              		.globl	__ch_delegate_fn2
  73              		.type	__ch_delegate_fn2, @function
  74              	__ch_delegate_fn2:
  75              	.LVL5:
  76              	.LFB205:
  77              		.loc 1 111 41 is_stmt 1 view -0
  78              		.cfi_startproc
  79              		.loc 1 112 3 view .LVU21
  80              		.loc 1 111 41 is_stmt 0 view .LVU22
  81 0000 56       		pushl	%esi
  82              		.cfi_def_cfa_offset 8
  83              		.cfi_offset 6, -8
  84 0001 53       		pushl	%ebx
  85              		.cfi_def_cfa_offset 12
  86              		.cfi_offset 3, -12
  87 0002 83EC0C   		subl	$12, %esp
  88              		.cfi_def_cfa_offset 24
  89              		.loc 1 111 41 view .LVU23
  90 0005 8B542418 		movl	24(%esp), %edx
  91              		.loc 1 112 18 view .LVU24
  92 0009 8B02     		movl	(%edx), %eax
  93              		.loc 1 113 9 view .LVU25
  94 000b 8B5804   		movl	4(%eax), %ebx
  95              		.loc 1 114 9 view .LVU26
  96 000e 8D700C   		leal	12(%eax), %esi
  97              		.loc 1 112 18 view .LVU27
  98 0011 8B08     		movl	(%eax), %ecx
  99              		.loc 1 113 3 is_stmt 1 view .LVU28
 100              		.loc 1 114 3 view .LVU29
 101              		.loc 1 114 9 is_stmt 0 view .LVU30
 102 0013 8932     		movl	%esi, (%edx)
 103              		.loc 1 115 3 is_stmt 1 view .LVU31
 104              		.loc 1 115 10 is_stmt 0 view .LVU32
 105 0015 FF7008   		pushl	8(%eax)
 106              		.cfi_def_cfa_offset 28
 107 0018 53       		pushl	%ebx
 108              		.cfi_def_cfa_offset 32
 109 0019 FFD1     		call	*%ecx
 110              	.LVL6:
 111              		.loc 1 116 1 view .LVU33
 112 001b 83C414   		addl	$20, %esp
 113              		.cfi_def_cfa_offset 12
 114 001e 5B       		popl	%ebx
GAS LISTING /tmp/ccN2CQgX.s 			page 3


 115              		.cfi_restore 3
 116              		.cfi_def_cfa_offset 8
 117 001f 5E       		popl	%esi
 118              		.cfi_restore 6
 119              		.cfi_def_cfa_offset 4
 120 0020 C3       		ret
 121              		.cfi_endproc
 122              	.LFE205:
 123              		.size	__ch_delegate_fn2, .-__ch_delegate_fn2
 124              		.section	.text.__ch_delegate_fn3,"ax",@progbits
 125              		.p2align 4
 126              		.globl	__ch_delegate_fn3
 127              		.type	__ch_delegate_fn3, @function
 128              	__ch_delegate_fn3:
 129              	.LVL7:
 130              	.LFB206:
 131              		.loc 1 124 41 is_stmt 1 view -0
 132              		.cfi_startproc
 133              		.loc 1 125 3 view .LVU35
 134              		.loc 1 124 41 is_stmt 0 view .LVU36
 135 0000 57       		pushl	%edi
 136              		.cfi_def_cfa_offset 8
 137              		.cfi_offset 7, -8
 138 0001 56       		pushl	%esi
 139              		.cfi_def_cfa_offset 12
 140              		.cfi_offset 6, -12
 141 0002 53       		pushl	%ebx
 142              		.cfi_def_cfa_offset 16
 143              		.cfi_offset 3, -16
 144              		.loc 1 124 41 view .LVU37
 145 0003 8B542410 		movl	16(%esp), %edx
 146              		.loc 1 125 18 view .LVU38
 147 0007 8B02     		movl	(%edx), %eax
 148              		.loc 1 129 10 view .LVU39
 149 0009 83EC04   		subl	$4, %esp
 150              		.cfi_def_cfa_offset 20
 151              		.loc 1 126 9 view .LVU40
 152 000c 8B5804   		movl	4(%eax), %ebx
 153              		.loc 1 127 9 view .LVU41
 154 000f 8B7008   		movl	8(%eax), %esi
 155              		.loc 1 128 9 view .LVU42
 156 0012 8D7810   		leal	16(%eax), %edi
 157              		.loc 1 125 18 view .LVU43
 158 0015 8B08     		movl	(%eax), %ecx
 159              		.loc 1 126 3 is_stmt 1 view .LVU44
 160              		.loc 1 127 3 view .LVU45
 161              		.loc 1 128 3 view .LVU46
 162              		.loc 1 128 9 is_stmt 0 view .LVU47
 163 0017 893A     		movl	%edi, (%edx)
 164              		.loc 1 129 3 is_stmt 1 view .LVU48
 165              		.loc 1 129 10 is_stmt 0 view .LVU49
 166 0019 FF700C   		pushl	12(%eax)
 167              		.cfi_def_cfa_offset 24
 168 001c 56       		pushl	%esi
 169              		.cfi_def_cfa_offset 28
 170 001d 53       		pushl	%ebx
 171              		.cfi_def_cfa_offset 32
GAS LISTING /tmp/ccN2CQgX.s 			page 4


 172 001e FFD1     		call	*%ecx
 173              	.LVL8:
 174 0020 83C410   		addl	$16, %esp
 175              		.cfi_def_cfa_offset 16
 176              		.loc 1 130 1 view .LVU50
 177 0023 5B       		popl	%ebx
 178              		.cfi_restore 3
 179              		.cfi_def_cfa_offset 12
 180 0024 5E       		popl	%esi
 181              		.cfi_restore 6
 182              		.cfi_def_cfa_offset 8
 183 0025 5F       		popl	%edi
 184              		.cfi_restore 7
 185              		.cfi_def_cfa_offset 4
 186 0026 C3       		ret
 187              		.cfi_endproc
 188              	.LFE206:
 189              		.size	__ch_delegate_fn3, .-__ch_delegate_fn3
 190              		.section	.text.__ch_delegate_fn4,"ax",@progbits
 191              		.p2align 4
 192              		.globl	__ch_delegate_fn4
 193              		.type	__ch_delegate_fn4, @function
 194              	__ch_delegate_fn4:
 195              	.LVL9:
 196              	.LFB207:
 197              		.loc 1 138 41 is_stmt 1 view -0
 198              		.cfi_startproc
 199              		.loc 1 139 3 view .LVU52
 200              		.loc 1 138 41 is_stmt 0 view .LVU53
 201 0000 55       		pushl	%ebp
 202              		.cfi_def_cfa_offset 8
 203              		.cfi_offset 5, -8
 204 0001 57       		pushl	%edi
 205              		.cfi_def_cfa_offset 12
 206              		.cfi_offset 7, -12
 207 0002 56       		pushl	%esi
 208              		.cfi_def_cfa_offset 16
 209              		.cfi_offset 6, -16
 210 0003 53       		pushl	%ebx
 211              		.cfi_def_cfa_offset 20
 212              		.cfi_offset 3, -20
 213 0004 83EC0C   		subl	$12, %esp
 214              		.cfi_def_cfa_offset 32
 215              		.loc 1 138 41 view .LVU54
 216 0007 8B542420 		movl	32(%esp), %edx
 217              		.loc 1 139 18 view .LVU55
 218 000b 8B02     		movl	(%edx), %eax
 219              		.loc 1 140 9 view .LVU56
 220 000d 8B5804   		movl	4(%eax), %ebx
 221              		.loc 1 141 9 view .LVU57
 222 0010 8B7008   		movl	8(%eax), %esi
 223              		.loc 1 143 9 view .LVU58
 224 0013 8D6814   		leal	20(%eax), %ebp
 225              		.loc 1 142 9 view .LVU59
 226 0016 8B780C   		movl	12(%eax), %edi
 227              		.loc 1 139 18 view .LVU60
 228 0019 8B08     		movl	(%eax), %ecx
GAS LISTING /tmp/ccN2CQgX.s 			page 5


 229              		.loc 1 140 3 is_stmt 1 view .LVU61
 230              		.loc 1 141 3 view .LVU62
 231              		.loc 1 142 3 view .LVU63
 232              		.loc 1 143 3 view .LVU64
 233              		.loc 1 143 9 is_stmt 0 view .LVU65
 234 001b 892A     		movl	%ebp, (%edx)
 235              		.loc 1 144 3 is_stmt 1 view .LVU66
 236              		.loc 1 144 10 is_stmt 0 view .LVU67
 237 001d FF7010   		pushl	16(%eax)
 238              		.cfi_def_cfa_offset 36
 239 0020 57       		pushl	%edi
 240              		.cfi_def_cfa_offset 40
 241 0021 56       		pushl	%esi
 242              		.cfi_def_cfa_offset 44
 243 0022 53       		pushl	%ebx
 244              		.cfi_def_cfa_offset 48
 245 0023 FFD1     		call	*%ecx
 246              	.LVL10:
 247              		.loc 1 145 1 view .LVU68
 248 0025 83C41C   		addl	$28, %esp
 249              		.cfi_def_cfa_offset 20
 250 0028 5B       		popl	%ebx
 251              		.cfi_restore 3
 252              		.cfi_def_cfa_offset 16
 253 0029 5E       		popl	%esi
 254              		.cfi_restore 6
 255              		.cfi_def_cfa_offset 12
 256 002a 5F       		popl	%edi
 257              		.cfi_restore 7
 258              		.cfi_def_cfa_offset 8
 259 002b 5D       		popl	%ebp
 260              		.cfi_restore 5
 261              		.cfi_def_cfa_offset 4
 262 002c C3       		ret
 263              		.cfi_endproc
 264              	.LFE207:
 265              		.size	__ch_delegate_fn4, .-__ch_delegate_fn4
 266              		.section	.text.chDelegateCallVeneer,"ax",@progbits
 267              		.p2align 4
 268              		.globl	chDelegateCallVeneer
 269              		.type	chDelegateCallVeneer, @function
 270              	chDelegateCallVeneer:
 271              	.LVL11:
 272              	.LFB208:
 273              		.loc 1 158 73 is_stmt 1 view -0
 274              		.cfi_startproc
 275              		.loc 1 158 73 is_stmt 0 view .LVU70
 276 0000 53       		pushl	%ebx
 277              		.cfi_def_cfa_offset 8
 278              		.cfi_offset 3, -8
 279 0001 E8FCFFFF 		call	__x86.get_pc_thunk.bx
 279      FF
 280 0006 81C30200 		addl	$_GLOBAL_OFFSET_TABLE_, %ebx
 280      0000
 281 000c 83EC18   		subl	$24, %esp
 282              		.cfi_def_cfa_offset 32
 283              		.loc 1 158 73 view .LVU71
GAS LISTING /tmp/ccN2CQgX.s 			page 6


 284 000f 65A11400 		movl	%gs:20, %eax
 284      0000
 285 0015 8944240C 		movl	%eax, 12(%esp)
 286 0019 31C0     		xorl	%eax, %eax
 287              		.loc 1 159 3 is_stmt 1 view .LVU72
 288              		.loc 1 160 3 view .LVU73
 289              		.loc 1 161 3 view .LVU74
 290              		.loc 1 163 3 view .LVU75
 291 001b 8D442428 		leal	40(%esp), %eax
 292 001f 890424   		movl	%eax, (%esp)
 293              		.loc 1 166 3 view .LVU76
 294              		.loc 1 166 13 is_stmt 0 view .LVU77
 295 0022 8B442424 		movl	36(%esp), %eax
 296 0026 89442404 		movl	%eax, 4(%esp)
 297              		.loc 1 167 3 is_stmt 1 view .LVU78
 298              		.loc 1 167 13 is_stmt 0 view .LVU79
 299 002a 89E0     		movl	%esp, %eax
 300              		.loc 1 172 9 view .LVU80
 301 002c 83EC08   		subl	$8, %esp
 302              		.cfi_def_cfa_offset 40
 303              		.loc 1 167 13 view .LVU81
 304 002f 89442410 		movl	%eax, 16(%esp)
 305              		.loc 1 168 3 is_stmt 1 view .LVU82
 306              		.loc 1 172 3 view .LVU83
 307              		.loc 1 172 9 is_stmt 0 view .LVU84
 308 0033 8D44240C 		leal	12(%esp), %eax
 309 0037 50       		pushl	%eax
 310              		.cfi_def_cfa_offset 44
 311 0038 FF74242C 		pushl	44(%esp)
 312              		.cfi_def_cfa_offset 48
 313 003c E8FCFFFF 		call	chMsgSend@PLT
 313      FF
 314              	.LVL12:
 315              		.loc 1 174 3 is_stmt 1 view .LVU85
 316              		.loc 1 176 3 view .LVU86
 317              		.loc 1 176 10 is_stmt 0 view .LVU87
 318 0041 83C410   		addl	$16, %esp
 319              		.cfi_def_cfa_offset 32
 320              		.loc 1 177 1 view .LVU88
 321 0044 8B54240C 		movl	12(%esp), %edx
 322 0048 652B1514 		subl	%gs:20, %edx
 322      000000
 323 004f 7505     		jne	.L14
 324 0051 83C418   		addl	$24, %esp
 325              		.cfi_remember_state
 326              		.cfi_def_cfa_offset 8
 327 0054 5B       		popl	%ebx
 328              		.cfi_restore 3
 329              		.cfi_def_cfa_offset 4
 330 0055 C3       		ret
 331              	.L14:
 332              		.cfi_restore_state
 333 0056 E8FCFFFF 		call	__stack_chk_fail_local
 333      FF
 334              	.LVL13:
 335              		.loc 1 177 1 view .LVU89
 336              		.cfi_endproc
GAS LISTING /tmp/ccN2CQgX.s 			page 7


 337              	.LFE208:
 338              		.size	chDelegateCallVeneer, .-chDelegateCallVeneer
 339              		.section	.text.chDelegateDispatch,"ax",@progbits
 340              		.p2align 4
 341              		.globl	chDelegateDispatch
 342              		.type	chDelegateDispatch, @function
 343              	chDelegateDispatch:
 344              	.LFB209:
 345              		.loc 1 190 31 is_stmt 1 view -0
 346              		.cfi_startproc
 347              		.loc 1 191 3 view .LVU91
 348              		.loc 1 192 3 view .LVU92
 349              		.loc 1 193 3 view .LVU93
 350              		.loc 1 195 3 view .LVU94
 351              	.LBB44:
 352              	.LBI44:
 353              		.file 2 "../../../os/rt/include/chmsg.h"
 354              		.loc 2 95 25 view .LVU95
 355              	.LBB45:
 356              		.loc 2 96 3 view .LVU96
 357              		.loc 2 98 3 view .LVU97
 358              	.LBB46:
 359              	.LBI46:
 360              		.file 3 "../../../os/rt/include/chsys.h"
 361              		.loc 3 407 20 view .LVU98
 362              		.loc 3 409 3 view .LVU99
 363              	.LBB47:
 364              	.LBI47:
 365              		.file 4 "../../../os/common/ports/SIMIA32/chcore.h"
 366              		.loc 4 361 20 view .LVU100
 367              	.LBB48:
 368              		.loc 4 363 3 view .LVU101
 369              	.LBE48:
 370              	.LBE47:
 371              	.LBE46:
 372              	.LBE45:
 373              	.LBE44:
 374              		.loc 1 190 31 is_stmt 0 view .LVU102
 375 0000 57       		pushl	%edi
 376              		.cfi_def_cfa_offset 8
 377              		.cfi_offset 7, -8
 378 0001 56       		pushl	%esi
 379              		.cfi_def_cfa_offset 12
 380              		.cfi_offset 6, -12
 381 0002 E8FCFFFF 		call	__x86.get_pc_thunk.si
 381      FF
 382 0007 81C60200 		addl	$_GLOBAL_OFFSET_TABLE_, %esi
 382      0000
 383 000d 53       		pushl	%ebx
 384              		.cfi_def_cfa_offset 16
 385              		.cfi_offset 3, -16
 386              	.LBB65:
 387              	.LBB63:
 388              	.LBB53:
 389              	.LBB51:
 390              	.LBB49:
 391              		.loc 4 363 16 view .LVU103
GAS LISTING /tmp/ccN2CQgX.s 			page 8


 392 000e 8BBE0000 		movl	port_irq_sts@GOT(%esi), %edi
 392      0000
 393              	.LBE49:
 394              	.LBE51:
 395              	.LBE53:
 396              		.loc 2 99 8 view .LVU104
 397 0014 89F3     		movl	%esi, %ebx
 398              	.LBB54:
 399              	.LBB52:
 400              	.LBB50:
 401              		.loc 4 363 16 view .LVU105
 402 0016 C7070100 		movl	$1, (%edi)
 402      0000
 403              	.LBE50:
 404              	.LBE52:
 405              		.loc 3 410 35 is_stmt 1 view .LVU106
 406              		.loc 3 411 21 view .LVU107
 407              	.LBE54:
 408              		.loc 2 99 3 view .LVU108
 409              		.loc 2 99 8 is_stmt 0 view .LVU109
 410 001c E8FCFFFF 		call	chMsgWaitS@PLT
 410      FF
 411              	.LVL14:
 412              	.LBE63:
 413              	.LBE65:
 414              		.loc 1 197 9 view .LVU110
 415 0021 83EC0C   		subl	$12, %esp
 416              		.cfi_def_cfa_offset 28
 417              	.LBB66:
 418              	.LBB64:
 419              	.LBB55:
 420              	.LBB56:
 421              	.LBB57:
 422              	.LBB58:
 423              		.loc 4 372 16 view .LVU111
 424 0024 C7070000 		movl	$0, (%edi)
 424      0000
 425              	.LBE58:
 426              	.LBE57:
 427              	.LBE56:
 428              	.LBE55:
 429              		.loc 2 99 8 view .LVU112
 430 002a 89C3     		movl	%eax, %ebx
 431              	.LVL15:
 432              		.loc 2 100 3 is_stmt 1 view .LVU113
 433              	.LBB62:
 434              	.LBI55:
 435              		.loc 3 421 20 view .LVU114
 436              	.LBB61:
 437              		.loc 3 423 23 view .LVU115
 438              		.loc 3 424 34 view .LVU116
 439              		.loc 3 430 3 view .LVU117
 440              		.loc 3 430 3 view .LVU118
 441              		.loc 3 430 3 view .LVU119
 442              		.loc 3 434 3 view .LVU120
 443              	.LBB60:
 444              	.LBI57:
GAS LISTING /tmp/ccN2CQgX.s 			page 9


 445              		.loc 4 370 20 view .LVU121
 446              	.LBB59:
 447              		.loc 4 372 3 view .LVU122
 448              	.LBE59:
 449              	.LBE60:
 450              	.LBE61:
 451              	.LBE62:
 452              		.loc 2 102 3 view .LVU123
 453              		.loc 2 102 3 is_stmt 0 view .LVU124
 454              	.LBE64:
 455              	.LBE66:
 456              		.loc 1 196 3 is_stmt 1 view .LVU125
 457              	.LBB67:
 458              	.LBI67:
 459              		.loc 2 189 21 view .LVU126
 460              	.LBB68:
 461              		.loc 2 191 3 view .LVU127
 462              		.loc 2 191 3 view .LVU128
 463              		.loc 2 191 3 view .LVU129
 464              		.loc 2 193 3 view .LVU130
 465              		.loc 2 193 3 is_stmt 0 view .LVU131
 466              	.LBE68:
 467              	.LBE67:
 468              		.loc 1 196 7 view .LVU132
 469 002c 8B4034   		movl	52(%eax), %eax
 470              	.LVL16:
 471              		.loc 1 197 3 is_stmt 1 view .LVU133
 472              		.loc 1 197 9 is_stmt 0 view .LVU134
 473 002f FF7004   		pushl	4(%eax)
 474              		.cfi_def_cfa_offset 32
 475 0032 FF10     		call	*(%eax)
 476              	.LVL17:
 477              		.loc 1 199 3 is_stmt 1 view .LVU135
 478 0034 5A       		popl	%edx
 479              		.cfi_def_cfa_offset 28
 480 0035 59       		popl	%ecx
 481              		.cfi_def_cfa_offset 24
 482 0036 50       		pushl	%eax
 483              		.cfi_def_cfa_offset 28
 484 0037 53       		pushl	%ebx
 485              		.cfi_def_cfa_offset 32
 486 0038 89F3     		movl	%esi, %ebx
 487              	.LVL18:
 488              		.loc 1 199 3 is_stmt 0 view .LVU136
 489 003a E8FCFFFF 		call	chMsgRelease@PLT
 489      FF
 490              	.LVL19:
 491              		.loc 1 200 1 view .LVU137
 492 003f 83C410   		addl	$16, %esp
 493              		.cfi_def_cfa_offset 16
 494 0042 5B       		popl	%ebx
 495              		.cfi_restore 3
 496              		.cfi_def_cfa_offset 12
 497 0043 5E       		popl	%esi
 498              		.cfi_restore 6
 499              		.cfi_def_cfa_offset 8
 500 0044 5F       		popl	%edi
GAS LISTING /tmp/ccN2CQgX.s 			page 10


 501              		.cfi_restore 7
 502              		.cfi_def_cfa_offset 4
 503 0045 C3       		ret
 504              		.cfi_endproc
 505              	.LFE209:
 506              		.size	chDelegateDispatch, .-chDelegateDispatch
 507              		.section	.text.chDelegateDispatchTimeout,"ax",@progbits
 508              		.p2align 4
 509              		.globl	chDelegateDispatchTimeout
 510              		.type	chDelegateDispatchTimeout, @function
 511              	chDelegateDispatchTimeout:
 512              	.LVL20:
 513              	.LFB210:
 514              		.loc 1 218 56 is_stmt 1 view -0
 515              		.cfi_startproc
 516              		.loc 1 219 3 view .LVU139
 517              		.loc 1 220 3 view .LVU140
 518              		.loc 1 221 3 view .LVU141
 519              		.loc 1 223 3 view .LVU142
 520              		.loc 1 218 56 is_stmt 0 view .LVU143
 521 0000 57       		pushl	%edi
 522              		.cfi_def_cfa_offset 8
 523              		.cfi_offset 7, -8
 524 0001 56       		pushl	%esi
 525              		.cfi_def_cfa_offset 12
 526              		.cfi_offset 6, -12
 527 0002 E8FCFFFF 		call	__x86.get_pc_thunk.si
 527      FF
 528 0007 81C60200 		addl	$_GLOBAL_OFFSET_TABLE_, %esi
 528      0000
 529 000d 53       		pushl	%ebx
 530              		.cfi_def_cfa_offset 16
 531              		.cfi_offset 3, -16
 532              	.LVL21:
 533              	.LBB69:
 534              	.LBI69:
 535              		.loc 2 127 25 is_stmt 1 view .LVU144
 536              	.LBB70:
 537              		.loc 2 128 3 view .LVU145
 538              		.loc 2 130 3 view .LVU146
 539              	.LBB71:
 540              	.LBI71:
 541              		.loc 3 407 20 view .LVU147
 542              		.loc 3 409 3 view .LVU148
 543              	.LBB72:
 544              	.LBI72:
 545              		.loc 4 361 20 view .LVU149
 546              	.LBB73:
 547              		.loc 4 363 3 view .LVU150
 548              	.LBE73:
 549              	.LBE72:
 550              	.LBE71:
 551              		.loc 2 131 8 is_stmt 0 view .LVU151
 552 000e 83EC0C   		subl	$12, %esp
 553              		.cfi_def_cfa_offset 28
 554 0011 FF74241C 		pushl	28(%esp)
 555              		.cfi_def_cfa_offset 32
GAS LISTING /tmp/ccN2CQgX.s 			page 11


 556              	.LBB78:
 557              	.LBB76:
 558              	.LBB74:
 559              		.loc 4 363 16 view .LVU152
 560 0015 8BBE0000 		movl	port_irq_sts@GOT(%esi), %edi
 560      0000
 561              	.LBE74:
 562              	.LBE76:
 563              	.LBE78:
 564              		.loc 2 131 8 view .LVU153
 565 001b 89F3     		movl	%esi, %ebx
 566              	.LBB79:
 567              	.LBB77:
 568              	.LBB75:
 569              		.loc 4 363 16 view .LVU154
 570 001d C7070100 		movl	$1, (%edi)
 570      0000
 571              	.LBE75:
 572              	.LBE77:
 573              		.loc 3 410 35 is_stmt 1 view .LVU155
 574              		.loc 3 411 21 view .LVU156
 575              	.LBE79:
 576              		.loc 2 131 3 view .LVU157
 577              		.loc 2 131 8 is_stmt 0 view .LVU158
 578 0023 E8FCFFFF 		call	chMsgWaitTimeoutS@PLT
 578      FF
 579              	.LVL22:
 580              		.loc 2 132 3 is_stmt 1 view .LVU159
 581              	.LBB80:
 582              	.LBI80:
 583              		.loc 3 421 20 view .LVU160
 584              	.LBB81:
 585              		.loc 3 423 23 view .LVU161
 586              		.loc 3 424 34 view .LVU162
 587              		.loc 3 430 3 view .LVU163
 588              		.loc 3 430 3 view .LVU164
 589              		.loc 3 430 3 view .LVU165
 590              		.loc 3 434 3 view .LVU166
 591              	.LBB82:
 592              	.LBI82:
 593              		.loc 4 370 20 view .LVU167
 594              	.LBB83:
 595              		.loc 4 372 3 view .LVU168
 596              		.loc 4 372 16 is_stmt 0 view .LVU169
 597 0028 C7070000 		movl	$0, (%edi)
 597      0000
 598              	.LBE83:
 599              	.LBE82:
 600              	.LBE81:
 601              	.LBE80:
 602              		.loc 2 134 3 is_stmt 1 view .LVU170
 603              	.LVL23:
 604              		.loc 2 134 3 is_stmt 0 view .LVU171
 605              	.LBE70:
 606              	.LBE69:
 607              		.loc 1 224 3 is_stmt 1 view .LVU172
 608              		.loc 1 224 6 is_stmt 0 view .LVU173
GAS LISTING /tmp/ccN2CQgX.s 			page 12


 609 002e 83C410   		addl	$16, %esp
 610              		.cfi_def_cfa_offset 16
 611 0031 85C0     		testl	%eax, %eax
 612 0033 7421     		je	.L19
 613 0035 89C3     		movl	%eax, %ebx
 614              		.loc 1 228 3 is_stmt 1 view .LVU174
 615              	.LVL24:
 616              	.LBB84:
 617              	.LBI84:
 618              		.loc 2 189 21 view .LVU175
 619              	.LBB85:
 620              		.loc 2 191 3 view .LVU176
 621              		.loc 2 191 3 view .LVU177
 622              		.loc 2 191 3 view .LVU178
 623              		.loc 2 193 3 view .LVU179
 624              		.loc 2 193 3 is_stmt 0 view .LVU180
 625              	.LBE85:
 626              	.LBE84:
 627              		.loc 1 228 7 view .LVU181
 628 0037 8B4034   		movl	52(%eax), %eax
 629              	.LVL25:
 630              		.loc 1 229 3 is_stmt 1 view .LVU182
 631              		.loc 1 229 9 is_stmt 0 view .LVU183
 632 003a 83EC0C   		subl	$12, %esp
 633              		.cfi_def_cfa_offset 28
 634 003d FF7004   		pushl	4(%eax)
 635              		.cfi_def_cfa_offset 32
 636 0040 FF10     		call	*(%eax)
 637              	.LVL26:
 638              		.loc 1 231 3 is_stmt 1 view .LVU184
 639 0042 5A       		popl	%edx
 640              		.cfi_def_cfa_offset 28
 641 0043 59       		popl	%ecx
 642              		.cfi_def_cfa_offset 24
 643 0044 50       		pushl	%eax
 644              		.cfi_def_cfa_offset 28
 645 0045 53       		pushl	%ebx
 646              		.cfi_def_cfa_offset 32
 647 0046 89F3     		movl	%esi, %ebx
 648              	.LVL27:
 649              		.loc 1 231 3 is_stmt 0 view .LVU185
 650 0048 E8FCFFFF 		call	chMsgRelease@PLT
 650      FF
 651              	.LVL28:
 652              		.loc 1 233 3 is_stmt 1 view .LVU186
 653              		.loc 1 233 10 is_stmt 0 view .LVU187
 654 004d 83C410   		addl	$16, %esp
 655              		.cfi_def_cfa_offset 16
 656 0050 31C0     		xorl	%eax, %eax
 657              	.L17:
 658              		.loc 1 234 1 view .LVU188
 659 0052 5B       		popl	%ebx
 660              		.cfi_remember_state
 661              		.cfi_restore 3
 662              		.cfi_def_cfa_offset 12
 663 0053 5E       		popl	%esi
 664              		.cfi_restore 6
GAS LISTING /tmp/ccN2CQgX.s 			page 13


 665              		.cfi_def_cfa_offset 8
 666 0054 5F       		popl	%edi
 667              		.cfi_restore 7
 668              		.cfi_def_cfa_offset 4
 669 0055 C3       		ret
 670              	.LVL29:
 671              	.L19:
 672              		.cfi_restore_state
 673              		.loc 1 225 12 view .LVU189
 674 0056 B8FFFFFF 		movl	$-1, %eax
 674      FF
 675              	.LVL30:
 676              		.loc 1 225 12 view .LVU190
 677 005b EBF5     		jmp	.L17
 678              		.cfi_endproc
 679              	.LFE210:
 680              		.size	chDelegateDispatchTimeout, .-chDelegateDispatchTimeout
 681              		.section	.text.__x86.get_pc_thunk.bx,"axG",@progbits,__x86.get_pc_thunk.bx,comdat
 682              		.globl	__x86.get_pc_thunk.bx
 683              		.hidden	__x86.get_pc_thunk.bx
 684              		.type	__x86.get_pc_thunk.bx, @function
 685              	__x86.get_pc_thunk.bx:
 686              	.LFB211:
 687              		.cfi_startproc
 688 0000 8B1C24   		movl	(%esp), %ebx
 689 0003 C3       		ret
 690              		.cfi_endproc
 691              	.LFE211:
 692              		.section	.text.__x86.get_pc_thunk.si,"axG",@progbits,__x86.get_pc_thunk.si,comdat
 693              		.globl	__x86.get_pc_thunk.si
 694              		.hidden	__x86.get_pc_thunk.si
 695              		.type	__x86.get_pc_thunk.si, @function
 696              	__x86.get_pc_thunk.si:
 697              	.LFB212:
 698              		.cfi_startproc
 699 0000 8B3424   		movl	(%esp), %esi
 700 0003 C3       		ret
 701              		.cfi_endproc
 702              	.LFE212:
 703              		.text
 704              	.Letext0:
 705              		.file 5 "/usr/include/bits/types.h"
 706              		.file 6 "/usr/include/bits/stdint-intn.h"
 707              		.file 7 "/usr/include/bits/stdint-uintn.h"
 708              		.file 8 "../../../os/common/ports/SIMIA32/compilers/GCC/chtypes.h"
 709              		.file 9 "../../../os/rt/include/chearly.h"
 710              		.file 10 "../../../os/rt/include/chobjects.h"
 711              		.file 11 "../../../os/rt/include/chrfcu.h"
 712              		.file 12 "../../../os/rt/include/chdebug.h"
 713              		.file 13 "../../../os/rt/include/chtime.h"
 714              		.file 14 "../../../os/rt/include/chlists.h"
 715              		.file 15 "../../../os/rt/include/chsem.h"
 716              		.file 16 "../../../os/rt/include/chmtx.h"
 717              		.file 17 "/usr/lib/gcc/x86_64-linux-gnu/11/include/stdarg.h"
 718              		.file 18 "../../../os/oslib/include/chdelegates.h"
 3965 004a 2F686F6D 		.section	.note.GNU-stack,"",@progbits
 3965      652F616C 
 3965      65782F43 
 3965      68696269 
 3965      4F532F64 
GAS LISTING /tmp/ccN2CQgX.s 			page 77

