GAS LISTING /tmp/ccVdk8wa.s 			page 1


   1              		.file	"chinstances.c"
   2              		.text
   3              	.Ltext0:
   4              		.file 0 "/home/alex/ChibiOS/demos/various/LAB1" "../../../os/rt/src/chinstances.c"
   5              		.section	.text.__idle_thread,"ax",@progbits
   6              		.p2align 4
   7              		.type	__idle_thread, @function
   8              	__idle_thread:
   9              	.LVL0:
  10              	.LFB203:
  11              		.file 1 "../../../os/rt/src/chinstances.c"
  12              		.loc 1 62 36 view -0
  13              		.cfi_startproc
  14              		.loc 1 62 36 is_stmt 0 view .LVU1
  15 0000 53       		pushl	%ebx
  16              		.cfi_def_cfa_offset 8
  17              		.cfi_offset 3, -8
  18 0001 E8FCFFFF 		call	__x86.get_pc_thunk.bx
  18      FF
  19 0006 81C30200 		addl	$_GLOBAL_OFFSET_TABLE_, %ebx
  19      0000
  20 000c 83EC08   		subl	$8, %esp
  21              		.cfi_def_cfa_offset 16
  22 000f 90       		.p2align 4,,10
  23              		.p2align 3
  24              	.L2:
  25              		.loc 1 64 3 is_stmt 1 discriminator 1 view .LVU2
  26              		.loc 1 66 3 discriminator 1 view .LVU3
  27              		.loc 1 69 5 discriminator 1 view .LVU4
  28              	.LBB32:
  29              	.LBI32:
  30              		.file 2 "../../../os/common/ports/SIMIA32/chcore.h"
  31              		.loc 2 427 20 discriminator 1 view .LVU5
  32              	.LBB33:
  33              		.loc 2 429 3 discriminator 1 view .LVU6
  34 0010 E8FCFFFF 		call	_sim_check_for_interrupts@PLT
  34      FF
  35              	.LVL1:
  36 0015 EBF9     		jmp	.L2
  37              	.LBE33:
  38              	.LBE32:
  39              		.cfi_endproc
  40              	.LFE203:
  41              		.size	__idle_thread, .-__idle_thread
  42              		.section	.rodata.chInstanceObjectInit.str1.1,"aMS",@progbits,1
  43              	.LC0:
  44 0000 6D61696E 		.string	"main"
  44      00
  45              	.LC1:
  46 0005 69646C65 		.string	"idle"
  46      00
  47              		.section	.text.chInstanceObjectInit,"ax",@progbits
  48              		.p2align 4
  49              		.globl	chInstanceObjectInit
  50              		.type	chInstanceObjectInit, @function
  51              	chInstanceObjectInit:
  52              	.LVL2:
GAS LISTING /tmp/ccVdk8wa.s 			page 2


  53              	.LFB204:
  54              		.loc 1 90 61 view -0
  55              		.cfi_startproc
  56              		.loc 1 90 61 is_stmt 0 view .LVU8
  57 0000 55       		pushl	%ebp
  58              		.cfi_def_cfa_offset 8
  59              		.cfi_offset 5, -8
  60              	.LBB34:
  61              	.LBB35:
  62              		.file 3 "../../../os/rt/include/chvt.h"
  63              		.loc 3 547 21 view .LVU9
  64 0001 31D2     		xorl	%edx, %edx
  65              	.LBE35:
  66              	.LBE34:
  67              		.loc 1 90 61 view .LVU10
  68 0003 57       		pushl	%edi
  69              		.cfi_def_cfa_offset 12
  70              		.cfi_offset 7, -12
  71 0004 56       		pushl	%esi
  72              		.cfi_def_cfa_offset 16
  73              		.cfi_offset 6, -16
  74 0005 53       		pushl	%ebx
  75              		.cfi_def_cfa_offset 20
  76              		.cfi_offset 3, -20
  77 0006 E8FCFFFF 		call	__x86.get_pc_thunk.bx
  77      FF
  78 000b 81C30200 		addl	$_GLOBAL_OFFSET_TABLE_, %ebx
  78      0000
  79 0011 83EC44   		subl	$68, %esp
  80              		.cfi_def_cfa_offset 88
  81              		.loc 1 90 61 view .LVU11
  82 0014 8B742458 		movl	88(%esp), %esi
  83 0018 8B7C245C 		movl	92(%esp), %edi
  84              	.LBB54:
  85              	.LBB55:
  86              		.file 4 "../../../os/rt/include/chregistry.h"
  87              		.loc 4 154 3 view .LVU12
  88 001c 8D6E28   		leal	40(%esi), %ebp
  89              	.LBE55:
  90              	.LBE54:
  91              		.loc 1 100 32 view .LVU13
  92 001f 65A11400 		movl	%gs:20, %eax
  92      0000
  93 0025 89442434 		movl	%eax, 52(%esp)
  94 0029 8B830000 		movl	ch_system@GOT(%ebx), %eax
  94      0000
  95              	.LBB62:
  96              	.LBB48:
  97              		.loc 3 541 17 view .LVU14
  98 002f C7461C00 		movl	$0, 28(%esi)
  98      000000
  99              	.LBE48:
 100              	.LBE62:
 101              	.LBB63:
 102              	.LBB60:
 103              	.LBB56:
 104              	.LBB57:
GAS LISTING /tmp/ccVdk8wa.s 			page 3


 105              		.file 5 "../../../os/rt/include/chlists.h"
 106              		.loc 5 284 12 view .LVU15
 107 0036 896E28   		movl	%ebp, 40(%esi)
 108              		.loc 5 285 12 view .LVU16
 109 0039 896E2C   		movl	%ebp, 44(%esi)
 110              	.LBE57:
 111              	.LBE56:
 112              	.LBE60:
 113              	.LBE63:
 114              		.loc 1 103 16 view .LVU17
 115 003c C7463000 		movl	$0, 48(%esi)
 115      000000
 116              		.loc 1 106 15 view .LVU18
 117 0043 897E38   		movl	%edi, 56(%esi)
 118              	.LBB64:
 119              	.LBB65:
 120              		.loc 5 400 13 view .LVU19
 121 0046 C7460800 		movl	$0, 8(%esi)
 121      000000
 122              	.LBE65:
 123              	.LBE64:
 124              		.loc 1 100 32 view .LVU20
 125 004d 897004   		movl	%esi, 4(%eax)
 126              		.loc 1 103 3 is_stmt 1 view .LVU21
 127              		.loc 1 106 3 view .LVU22
 128              		.loc 1 109 3 view .LVU23
 129              	.LVL3:
 130              	.LBB69:
 131              	.LBI69:
 132              		.loc 2 313 20 view .LVU24
 133              	.LBB70:
 134              		.loc 2 315 3 view .LVU25
 135              		.loc 2 317 3 view .LVU26
 136              		.loc 2 317 16 is_stmt 0 view .LVU27
 137 0050 8B830000 		movl	port_irq_sts@GOT(%ebx), %eax
 137      0000
 138              	.LBE70:
 139              	.LBE69:
 140              	.LBB73:
 141              	.LBB74:
 142              		.file 6 "../../../os/rt/include/chrfcu.h"
 143              		.loc 6 106 15 view .LVU28
 144 0056 C7463400 		movl	$0, 52(%esi)
 144      000000
 145              	.LBE74:
 146              	.LBE73:
 147              	.LBB76:
 148              	.LBB71:
 149              		.loc 2 317 16 view .LVU29
 150 005d C7000000 		movl	$0, (%eax)
 150      0000
 151              		.loc 2 318 3 is_stmt 1 view .LVU30
 152              		.loc 2 318 25 is_stmt 0 view .LVU31
 153 0063 8B830000 		movl	port_isr_context_flag@GOT(%ebx), %eax
 153      0000
 154              	.LBE71:
 155              	.LBE76:
GAS LISTING /tmp/ccVdk8wa.s 			page 4


 156              	.LBB77:
 157              	.LBB49:
 158              	.LBB36:
 159              	.LBB37:
 160              		.loc 5 490 15 view .LVU32
 161 0069 C74618FF 		movl	$-1, 24(%esi)
 161      FFFFFF
 162              	.LBE37:
 163              	.LBE36:
 164              	.LBE49:
 165              	.LBE77:
 166              	.LBB78:
 167              	.LBB72:
 168              		.loc 2 318 25 view .LVU33
 169 0070 C60000   		movb	$0, (%eax)
 170              	.LVL4:
 171              		.loc 2 318 25 view .LVU34
 172              	.LBE72:
 173              	.LBE78:
 174              		.loc 1 112 3 is_stmt 1 view .LVU35
 175              	.LBB79:
 176              	.LBI64:
 177              		.loc 5 396 20 view .LVU36
 178              	.LBB66:
 179              		.loc 5 398 3 view .LVU37
 180              	.LBE66:
 181              	.LBE79:
 182              	.LBB80:
 183              	.LBB50:
 184              		.loc 3 539 3 is_stmt 0 view .LVU38
 185 0073 8D4610   		leal	16(%esi), %eax
 186              	.LBB40:
 187              	.LBB38:
 188              		.loc 5 488 15 view .LVU39
 189 0076 894610   		movl	%eax, 16(%esi)
 190              		.loc 5 489 15 view .LVU40
 191 0079 894614   		movl	%eax, 20(%esi)
 192              	.LBE38:
 193              	.LBE40:
 194              	.LBB41:
 195              	.LBB42:
 196              		.loc 3 138 26 view .LVU41
 197 007c 8B830000 		movl	ch0@GOT(%ebx), %eax
 197      0000
 198              	.LBE42:
 199              	.LBE41:
 200              	.LBE50:
 201              	.LBE80:
 202              	.LBB81:
 203              	.LBB67:
 204              		.loc 5 398 13 view .LVU42
 205 0082 8936     		movl	%esi, (%esi)
 206              		.loc 5 399 3 is_stmt 1 view .LVU43
 207              	.LBE67:
 208              	.LBE81:
 209              	.LBB82:
 210              	.LBB51:
GAS LISTING /tmp/ccVdk8wa.s 			page 5


 211              	.LBB45:
 212              	.LBB43:
 213              		.loc 3 138 26 is_stmt 0 view .LVU44
 214 0084 8B401C   		movl	28(%eax), %eax
 215              	.LBE43:
 216              	.LBE45:
 217              	.LBE51:
 218              	.LBE82:
 219              	.LBB83:
 220              	.LBB68:
 221              		.loc 5 399 13 view .LVU45
 222 0087 897604   		movl	%esi, 4(%esi)
 223              		.loc 5 400 3 is_stmt 1 view .LVU46
 224              	.LVL5:
 225              		.loc 5 400 3 is_stmt 0 view .LVU47
 226              	.LBE68:
 227              	.LBE83:
 228              		.loc 1 116 3 is_stmt 1 view .LVU48
 229              	.LBB84:
 230              	.LBI54:
 231              		.loc 4 152 20 view .LVU49
 232              	.LBB61:
 233              		.loc 4 154 3 view .LVU50
 234              	.LBB59:
 235              	.LBI56:
 236              		.loc 5 282 20 view .LVU51
 237              	.LBB58:
 238              		.loc 5 284 3 view .LVU52
 239              		.loc 5 285 3 view .LVU53
 240              		.loc 5 285 3 is_stmt 0 view .LVU54
 241              	.LBE58:
 242              	.LBE59:
 243              	.LBE61:
 244              	.LBE84:
 245              		.loc 1 121 3 is_stmt 1 view .LVU55
 246              	.LBB85:
 247              	.LBI73:
 248              		.loc 6 104 20 view .LVU56
 249              	.LBB75:
 250              		.loc 6 106 3 view .LVU57
 251              		.loc 6 106 3 is_stmt 0 view .LVU58
 252              	.LBE75:
 253              	.LBE85:
 254              		.loc 1 125 3 is_stmt 1 view .LVU59
 255              	.LBB86:
 256              	.LBI34:
 257              		.loc 3 537 20 view .LVU60
 258              	.LBB52:
 259              		.loc 3 539 3 view .LVU61
 260              	.LBB46:
 261              	.LBI36:
 262              		.loc 5 486 20 view .LVU62
 263              	.LBB39:
 264              		.loc 5 488 3 view .LVU63
 265              		.loc 5 489 3 view .LVU64
 266              		.loc 5 490 3 view .LVU65
 267              	.LBE39:
GAS LISTING /tmp/ccVdk8wa.s 			page 6


 268              	.LBE46:
 269              		.loc 3 541 3 view .LVU66
 270              		.loc 3 547 3 view .LVU67
 271              	.LBB47:
 272              	.LBI41:
 273              		.loc 3 135 25 view .LVU68
 274              	.LBB44:
 275              		.loc 3 138 3 view .LVU69
 276              	.LBE44:
 277              	.LBE47:
 278              		.loc 3 547 19 is_stmt 0 view .LVU70
 279 008a 894620   		movl	%eax, 32(%esi)
 280              	.LBE52:
 281              	.LBE86:
 282              	.LBB87:
 283              		.loc 1 144 11 view .LVU71
 284 008d 8D830000 		leal	.LC0@GOTOFF(%ebx), %eax
 284      0000
 285              	.LBE87:
 286              	.LBB88:
 287              	.LBB53:
 288              		.loc 3 547 19 view .LVU72
 289 0093 895624   		movl	%edx, 36(%esi)
 290              	.LVL6:
 291              		.loc 3 547 19 view .LVU73
 292              	.LBE53:
 293              	.LBE88:
 294              		.loc 1 128 3 is_stmt 1 view .LVU74
 295              	.LBB89:
 296              	.LBI89:
 297              		.file 7 "../../../os/rt/include/chdebug.h"
 298              		.loc 7 192 20 view .LVU75
 299              	.LBB90:
 300              		.loc 7 194 3 view .LVU76
 301              	.LBE90:
 302              	.LBE89:
 303              	.LBB92:
 304              		.loc 1 149 26 is_stmt 0 view .LVU77
 305 0096 8D542418 		leal	24(%esp), %edx
 306              	.LBE92:
 307              	.LBB93:
 308              	.LBB91:
 309              		.loc 7 194 18 view .LVU78
 310 009a C786DC00 		movl	$0, 220(%esi)
 310      00000000 
 310      0000
 311              	.LVL7:
 312              		.loc 7 194 18 view .LVU79
 313              	.LBE91:
 314              	.LBE93:
 315              	.LBB94:
 316              		.loc 1 144 5 is_stmt 1 view .LVU80
 317              		.loc 1 144 11 is_stmt 0 view .LVU81
 318 00a4 89442418 		movl	%eax, 24(%esp)
 319 00a8 8B4704   		movl	4(%edi), %eax
 320 00ab 89742430 		movl	%esi, 48(%esp)
 321              		.loc 1 149 5 is_stmt 1 view .LVU82
GAS LISTING /tmp/ccVdk8wa.s 			page 7


 322              		.loc 1 144 11 is_stmt 0 view .LVU83
 323 00af 8944241C 		movl	%eax, 28(%esp)
 324 00b3 8B4708   		movl	8(%edi), %eax
 325 00b6 C7442424 		movl	$128, 36(%esp)
 325      80000000 
 326 00be 89442420 		movl	%eax, 32(%esp)
 327              		.loc 1 149 26 view .LVU84
 328 00c2 8D868C00 		leal	140(%esi), %eax
 328      0000
 329              		.loc 1 144 11 view .LVU85
 330 00c8 C7442428 		movl	$0, 40(%esp)
 330      00000000 
 331 00d0 C744242C 		movl	$0, 44(%esp)
 331      00000000 
 332              		.loc 1 149 26 view .LVU86
 333 00d8 52       		pushl	%edx
 334              		.cfi_def_cfa_offset 92
 335 00d9 89542418 		movl	%edx, 24(%esp)
 336 00dd 50       		pushl	%eax
 337              		.cfi_def_cfa_offset 96
 338 00de E8FCFFFF 		call	chThdObjectInit@PLT
 338      FF
 339              	.LVL8:
 340              		.loc 1 149 24 view .LVU87
 341 00e3 89460C   		movl	%eax, 12(%esi)
 342              	.LBE94:
 343              		.loc 1 161 3 is_stmt 1 view .LVU88
 344 00e6 8D4824   		leal	36(%eax), %ecx
 345              	.LVL9:
 346              	.LBB95:
 347              	.LBI95:
 348              		.loc 5 322 20 view .LVU89
 349              	.LBB96:
 350              		.loc 5 324 3 view .LVU90
 351              		.loc 5 324 17 is_stmt 0 view .LVU91
 352 00e9 896824   		movl	%ebp, 36(%eax)
 353              		.loc 5 325 3 is_stmt 1 view .LVU92
 354              		.loc 5 325 21 is_stmt 0 view .LVU93
 355 00ec 8B6E2C   		movl	44(%esi), %ebp
 356              	.LVL10:
 357              		.loc 5 325 17 view .LVU94
 358 00ef 896828   		movl	%ebp, 40(%eax)
 359              		.loc 5 326 3 is_stmt 1 view .LVU95
 360              		.loc 5 326 17 is_stmt 0 view .LVU96
 361 00f2 894D00   		movl	%ecx, 0(%ebp)
 362              	.LVL11:
 363              		.loc 5 327 3 is_stmt 1 view .LVU97
 364              		.loc 5 327 17 is_stmt 0 view .LVU98
 365 00f5 894E2C   		movl	%ecx, 44(%esi)
 366              	.LVL12:
 367              		.loc 5 327 17 view .LVU99
 368              	.LBE96:
 369              	.LBE95:
 370              		.loc 1 165 3 is_stmt 1 view .LVU100
 371              		.loc 1 165 29 is_stmt 0 view .LVU101
 372 00f8 C6401C01 		movb	$1, 28(%eax)
 373              		.loc 1 173 3 is_stmt 1 view .LVU102
GAS LISTING /tmp/ccVdk8wa.s 			page 8


 374              		.loc 1 173 36 view .LVU103
 375              	.LBB97:
 376              		.loc 1 177 5 view .LVU104
 377              		.loc 1 177 11 is_stmt 0 view .LVU105
 378 00fc 8D830000 		leal	.LC1@GOTOFF(%ebx), %eax
 378      0000
 379 0102 89442420 		movl	%eax, 32(%esp)
 380 0106 8B470C   		movl	12(%edi), %eax
 381 0109 89742438 		movl	%esi, 56(%esp)
 382              		.loc 1 190 5 is_stmt 1 view .LVU106
 383              		.loc 1 190 12 is_stmt 0 view .LVU107
 384 010d 83C63C   		addl	$60, %esi
 385              		.loc 1 177 11 view .LVU108
 386 0110 89442424 		movl	%eax, 36(%esp)
 387 0114 8B4710   		movl	16(%edi), %eax
 388 0117 C744242C 		movl	$1, 44(%esp)
 388      01000000 
 389 011f 89442428 		movl	%eax, 40(%esp)
 390 0123 8D830000 		leal	__idle_thread@GOTOFF(%ebx), %eax
 390      0000
 391 0129 89442430 		movl	%eax, 48(%esp)
 392 012d C7442434 		movl	$0, 52(%esp)
 392      00000000 
 393              		.loc 1 190 12 view .LVU109
 394 0135 58       		popl	%eax
 395              		.cfi_def_cfa_offset 92
 396 0136 5A       		popl	%edx
 397              		.cfi_def_cfa_offset 88
 398 0137 8B542414 		movl	20(%esp), %edx
 399 013b 52       		pushl	%edx
 400              		.cfi_def_cfa_offset 92
 401 013c 56       		pushl	%esi
 402              		.cfi_def_cfa_offset 96
 403 013d E8FCFFFF 		call	chThdSpawnRunningI@PLT
 403      FF
 404              	.LVL13:
 405              	.LBE97:
 406              		.loc 1 193 1 view .LVU110
 407 0142 83C410   		addl	$16, %esp
 408              		.cfi_def_cfa_offset 80
 409 0145 8B44242C 		movl	44(%esp), %eax
 410 0149 652B0514 		subl	%gs:20, %eax
 410      000000
 411 0150 7508     		jne	.L8
 412 0152 83C43C   		addl	$60, %esp
 413              		.cfi_remember_state
 414              		.cfi_def_cfa_offset 20
 415 0155 5B       		popl	%ebx
 416              		.cfi_restore 3
 417              		.cfi_def_cfa_offset 16
 418 0156 5E       		popl	%esi
 419              		.cfi_restore 6
 420              		.cfi_def_cfa_offset 12
 421 0157 5F       		popl	%edi
 422              		.cfi_restore 7
 423              		.cfi_def_cfa_offset 8
 424 0158 5D       		popl	%ebp
GAS LISTING /tmp/ccVdk8wa.s 			page 9


 425              		.cfi_restore 5
 426              		.cfi_def_cfa_offset 4
 427 0159 C3       		ret
 428              	.L8:
 429              		.cfi_restore_state
 430 015a E8FCFFFF 		call	__stack_chk_fail_local
 430      FF
 431              	.LVL14:
 432              		.cfi_endproc
 433              	.LFE204:
 434              		.size	chInstanceObjectInit, .-chInstanceObjectInit
 435              		.section	.text.__x86.get_pc_thunk.bx,"axG",@progbits,__x86.get_pc_thunk.bx,comdat
 436              		.globl	__x86.get_pc_thunk.bx
 437              		.hidden	__x86.get_pc_thunk.bx
 438              		.type	__x86.get_pc_thunk.bx, @function
 439              	__x86.get_pc_thunk.bx:
 440              	.LFB205:
 441              		.cfi_startproc
 442 0000 8B1C24   		movl	(%esp), %ebx
 443 0003 C3       		ret
 444              		.cfi_endproc
 445              	.LFE205:
 446              		.text
 447              	.Letext0:
 448              		.file 8 "/usr/include/bits/types.h"
 449              		.file 9 "/usr/include/bits/stdint-intn.h"
 450              		.file 10 "/usr/include/bits/stdint-uintn.h"
 451              		.file 11 "../../../os/common/ports/SIMIA32/compilers/GCC/chtypes.h"
 452              		.file 12 "../../../os/rt/include/chearly.h"
 453              		.file 13 "../../../os/rt/include/chobjects.h"
 454              		.file 14 "../../../os/rt/include/chtime.h"
 455              		.file 15 "../../../os/rt/include/chtm.h"
 456              		.file 16 "../../../os/rt/include/chsem.h"
 457              		.file 17 "../../../os/rt/include/chmtx.h"
 458              		.file 18 "../../../os/rt/include/chsys.h"
 459              		.file 19 "../../../os/rt/include/chthreads.h"
 3522 0047 2F686F6D 		.section	.note.GNU-stack,"",@progbits
 3522      652F616C 
 3522      65782F43 
 3522      68696269 
 3522      4F532F64 
GAS LISTING /tmp/ccVdk8wa.s 			page 70

