GAS LISTING /tmp/ccp0CFqy.s 			page 1


   1              		.file	"chmemchecks.c"
   2              		.text
   3              	.Ltext0:
   4              		.file 0 "/home/alex/ChibiOS/demos/various/LAB1" "../../../os/oslib/src/chmemchecks.c"
   5              		.section	.text.chMemIsStringWithinX,"ax",@progbits
   6              		.p2align 4
   7              		.globl	chMemIsStringWithinX
   8              		.type	chMemIsStringWithinX, @function
   9              	chMemIsStringWithinX:
  10              	.LVL0:
  11              	.LFB203:
  12              		.file 1 "../../../os/oslib/src/chmemchecks.c"
  13              		.loc 1 106 41 view -0
  14              		.cfi_startproc
  15              		.loc 1 107 3 view .LVU1
  16              		.loc 1 106 41 is_stmt 0 view .LVU2
  17 0000 56       		pushl	%esi
  18              		.cfi_def_cfa_offset 8
  19              		.cfi_offset 6, -8
  20              		.loc 1 122 10 view .LVU3
  21 0001 31D2     		xorl	%edx, %edx
  22              		.loc 1 106 41 view .LVU4
  23 0003 53       		pushl	%ebx
  24              		.cfi_def_cfa_offset 12
  25              		.cfi_offset 3, -12
  26              		.loc 1 106 41 view .LVU5
  27 0004 8B74240C 		movl	12(%esp), %esi
  28 0008 8B442410 		movl	16(%esp), %eax
  29 000c 8B4C2414 		movl	20(%esp), %ecx
  30              		.loc 1 107 15 view .LVU6
  31 0010 8B1E     		movl	(%esi), %ebx
  32              	.LVL1:
  33              		.loc 1 108 3 is_stmt 1 view .LVU7
  34              		.loc 1 110 3 view .LVU8
  35              		.loc 1 110 6 is_stmt 0 view .LVU9
  36 0012 39C3     		cmpl	%eax, %ebx
  37 0014 771E     		ja	.L1
  38              		.loc 1 108 53 view .LVU10
  39 0016 8B7604   		movl	4(%esi), %esi
  40              		.loc 1 108 15 view .LVU11
  41 0019 8D5C33FF 		leal	-1(%ebx,%esi), %ebx
  42              	.LVL2:
  43 001d 8D7600   		.p2align 4,,10
  44              		.p2align 3
  45              	.L3:
  46              	.LBB2:
  47              		.loc 1 114 23 is_stmt 1 view .LVU12
  48 0020 39D8     		cmpl	%ebx, %eax
  49 0022 771C     		ja	.L7
  50              		.loc 1 114 23 is_stmt 0 view .LVU13
  51 0024 39CA     		cmpl	%ecx, %edx
  52 0026 7318     		jnb	.L7
  53              		.loc 1 115 7 is_stmt 1 view .LVU14
  54              		.loc 1 116 13 is_stmt 0 view .LVU15
  55 0028 83C001   		addl	$1, %eax
  56              	.LVL3:
  57              		.loc 1 115 8 view .LVU16
GAS LISTING /tmp/ccp0CFqy.s 			page 2


  58 002b 83C201   		addl	$1, %edx
  59              	.LVL4:
  60              		.loc 1 116 7 is_stmt 1 view .LVU17
  61              		.loc 1 116 10 is_stmt 0 view .LVU18
  62 002e 8078FF00 		cmpb	$0, -1(%eax)
  63 0032 75EC     		jne	.L3
  64              	.LVL5:
  65              	.L1:
  66              		.loc 1 116 10 view .LVU19
  67              	.LBE2:
  68              		.loc 1 123 1 view .LVU20
  69 0034 89D0     		movl	%edx, %eax
  70              	.LVL6:
  71              		.loc 1 123 1 view .LVU21
  72 0036 5B       		popl	%ebx
  73              		.cfi_remember_state
  74              		.cfi_restore 3
  75              		.cfi_def_cfa_offset 8
  76 0037 5E       		popl	%esi
  77              		.cfi_restore 6
  78              		.cfi_def_cfa_offset 4
  79 0038 C3       		ret
  80              	.LVL7:
  81 0039 8DB42600 		.p2align 4,,10
  81      000000
  82              		.p2align 3
  83              	.L7:
  84              		.cfi_restore_state
  85              		.loc 1 122 10 view .LVU22
  86 0040 31D2     		xorl	%edx, %edx
  87              	.LVL8:
  88              		.loc 1 123 1 view .LVU23
  89 0042 5B       		popl	%ebx
  90              		.cfi_restore 3
  91              		.cfi_def_cfa_offset 8
  92 0043 5E       		popl	%esi
  93              		.cfi_restore 6
  94              		.cfi_def_cfa_offset 4
  95              	.LVL9:
  96              		.loc 1 123 1 view .LVU24
  97 0044 89D0     		movl	%edx, %eax
  98              	.LVL10:
  99              		.loc 1 123 1 view .LVU25
 100 0046 C3       		ret
 101              		.cfi_endproc
 102              	.LFE203:
 103              		.size	chMemIsStringWithinX, .-chMemIsStringWithinX
 104              		.section	.text.chMemIsPointersArrayWithinX,"ax",@progbits
 105              		.p2align 4
 106              		.globl	chMemIsPointersArrayWithinX
 107              		.type	chMemIsPointersArrayWithinX, @function
 108              	chMemIsPointersArrayWithinX:
 109              	.LVL11:
 110              	.LFB204:
 111              		.loc 1 141 48 is_stmt 1 view -0
 112              		.cfi_startproc
 113              		.loc 1 142 3 view .LVU27
GAS LISTING /tmp/ccp0CFqy.s 			page 3


 114              		.loc 1 141 48 is_stmt 0 view .LVU28
 115 0000 56       		pushl	%esi
 116              		.cfi_def_cfa_offset 8
 117              		.cfi_offset 6, -8
 118              		.loc 1 157 10 view .LVU29
 119 0001 31D2     		xorl	%edx, %edx
 120              		.loc 1 141 48 view .LVU30
 121 0003 53       		pushl	%ebx
 122              		.cfi_def_cfa_offset 12
 123              		.cfi_offset 3, -12
 124              		.loc 1 141 48 view .LVU31
 125 0004 8B74240C 		movl	12(%esp), %esi
 126 0008 8B442410 		movl	16(%esp), %eax
 127 000c 8B4C2414 		movl	20(%esp), %ecx
 128              		.loc 1 142 16 view .LVU32
 129 0010 8B1E     		movl	(%esi), %ebx
 130              	.LVL12:
 131              		.loc 1 143 3 is_stmt 1 view .LVU33
 132              		.loc 1 145 3 view .LVU34
 133              		.loc 1 145 6 is_stmt 0 view .LVU35
 134 0012 39C3     		cmpl	%eax, %ebx
 135 0014 771E     		ja	.L13
 136              		.loc 1 143 69 view .LVU36
 137 0016 8B7604   		movl	4(%esi), %esi
 138              		.loc 1 143 16 view .LVU37
 139 0019 8D5C33FC 		leal	-4(%ebx,%esi), %ebx
 140              	.LVL13:
 141 001d 8D7600   		.p2align 4,,10
 142              		.p2align 3
 143              	.L15:
 144              	.LBB3:
 145              		.loc 1 149 24 is_stmt 1 view .LVU38
 146 0020 39D8     		cmpl	%ebx, %eax
 147 0022 771C     		ja	.L19
 148              		.loc 1 149 24 is_stmt 0 view .LVU39
 149 0024 39CA     		cmpl	%ecx, %edx
 150 0026 7318     		jnb	.L19
 151              		.loc 1 150 7 is_stmt 1 view .LVU40
 152              		.loc 1 151 10 is_stmt 0 view .LVU41
 153 0028 8B30     		movl	(%eax), %esi
 154              		.loc 1 151 14 view .LVU42
 155 002a 83C004   		addl	$4, %eax
 156              	.LVL14:
 157              		.loc 1 150 9 view .LVU43
 158 002d 83C204   		addl	$4, %edx
 159              	.LVL15:
 160              		.loc 1 151 7 is_stmt 1 view .LVU44
 161              		.loc 1 151 10 is_stmt 0 view .LVU45
 162 0030 85F6     		testl	%esi, %esi
 163 0032 75EC     		jne	.L15
 164              	.LVL16:
 165              	.L13:
 166              		.loc 1 151 10 view .LVU46
 167              	.LBE3:
 168              		.loc 1 158 1 view .LVU47
 169 0034 89D0     		movl	%edx, %eax
 170              	.LVL17:
GAS LISTING /tmp/ccp0CFqy.s 			page 4


 171              		.loc 1 158 1 view .LVU48
 172 0036 5B       		popl	%ebx
 173              		.cfi_remember_state
 174              		.cfi_restore 3
 175              		.cfi_def_cfa_offset 8
 176 0037 5E       		popl	%esi
 177              		.cfi_restore 6
 178              		.cfi_def_cfa_offset 4
 179 0038 C3       		ret
 180              	.LVL18:
 181 0039 8DB42600 		.p2align 4,,10
 181      000000
 182              		.p2align 3
 183              	.L19:
 184              		.cfi_restore_state
 185              		.loc 1 157 10 view .LVU49
 186 0040 31D2     		xorl	%edx, %edx
 187              	.LVL19:
 188              		.loc 1 158 1 view .LVU50
 189 0042 5B       		popl	%ebx
 190              		.cfi_restore 3
 191              		.cfi_def_cfa_offset 8
 192 0043 5E       		popl	%esi
 193              		.cfi_restore 6
 194              		.cfi_def_cfa_offset 4
 195 0044 89D0     		movl	%edx, %eax
 196              	.LVL20:
 197              		.loc 1 158 1 view .LVU51
 198 0046 C3       		ret
 199              		.cfi_endproc
 200              	.LFE204:
 201              		.size	chMemIsPointersArrayWithinX, .-chMemIsPointersArrayWithinX
 202              		.section	.text.chMemIsSpaceContainedX,"ax",@progbits
 203              		.p2align 4
 204              		.globl	chMemIsSpaceContainedX
 205              		.type	chMemIsSpaceContainedX, @function
 206              	chMemIsSpaceContainedX:
 207              	.LVL21:
 208              	.LFB205:
 209              		.loc 1 179 42 is_stmt 1 view -0
 210              		.cfi_startproc
 211              		.loc 1 179 42 is_stmt 0 view .LVU53
 212 0000 57       		pushl	%edi
 213              		.cfi_def_cfa_offset 8
 214              		.cfi_offset 7, -8
 215 0001 56       		pushl	%esi
 216              		.cfi_def_cfa_offset 12
 217              		.cfi_offset 6, -12
 218 0002 53       		pushl	%ebx
 219              		.cfi_def_cfa_offset 16
 220              		.cfi_offset 3, -16
 221              		.loc 1 179 42 view .LVU54
 222 0003 8B4C2410 		movl	16(%esp), %ecx
 223 0007 8B5C2414 		movl	20(%esp), %ebx
 224              		.loc 1 180 3 is_stmt 1 view .LVU55
 225              	.LVL22:
 226              		.loc 1 182 3 view .LVU56
GAS LISTING /tmp/ccp0CFqy.s 			page 5


 227              		.loc 1 182 3 view .LVU57
 228              		.loc 1 182 3 view .LVU58
 229              		.loc 1 185 3 view .LVU59
 230              		.loc 1 185 20 view .LVU60
 231              		.loc 1 185 13 is_stmt 0 view .LVU61
 232 000b 8B11     		movl	(%ecx), %edx
 233              		.loc 1 185 20 view .LVU62
 234 000d 83FAFF   		cmpl	$-1, %edx
 235 0010 743C     		je	.L28
 236              	.LBB6:
 237              	.LBB7:
 238              		.file 2 "../../../os/oslib/include/chmemchecks.h"
 239              		.loc 2 127 18 view .LVU63
 240 0012 8B442418 		movl	24(%esp), %eax
 241 0016 8D7403FF 		leal	-1(%ebx,%eax), %esi
 242              		.loc 2 131 23 view .LVU64
 243 001a 39F3     		cmpl	%esi, %ebx
 244 001c 0F96C0   		setbe	%al
 245 001f 89C7     		movl	%eax, %edi
 246 0021 EB10     		jmp	.L27
 247              	.LVL23:
 248              		.p2align 4,,10
 249 0023 8D742600 		.p2align 3
 249      90
 250              	.L26:
 251              		.loc 2 131 23 view .LVU65
 252              	.LBE7:
 253              	.LBE6:
 254              		.loc 1 189 5 is_stmt 1 view .LVU66
 255              		.loc 1 185 13 is_stmt 0 view .LVU67
 256 0028 8B5108   		movl	8(%ecx), %edx
 257              		.loc 1 189 8 view .LVU68
 258 002b 83C108   		addl	$8, %ecx
 259              	.LVL24:
 260              		.loc 1 185 20 is_stmt 1 view .LVU69
 261 002e 83FAFF   		cmpl	$-1, %edx
 262 0031 7417     		je	.L24
 263              	.LVL25:
 264              	.L27:
 265              		.loc 1 186 5 view .LVU70
 266              	.LBB9:
 267              	.LBI6:
 268              		.loc 2 121 20 view .LVU71
 269              	.LBB8:
 270              		.loc 2 124 3 view .LVU72
 271              		.loc 2 125 3 view .LVU73
 272              		.loc 2 126 3 view .LVU74
 273              		.loc 2 127 3 view .LVU75
 274              		.loc 2 129 3 view .LVU76
 275              		.loc 2 129 3 view .LVU77
 276              		.loc 2 129 3 view .LVU78
 277              		.loc 2 131 3 view .LVU79
 278              		.loc 2 125 50 is_stmt 0 view .LVU80
 279 0033 8B4104   		movl	4(%ecx), %eax
 280              		.loc 2 125 18 view .LVU81
 281 0036 8D4402FF 		leal	-1(%edx,%eax), %eax
 282              	.LVL26:
GAS LISTING /tmp/ccp0CFqy.s 			page 6


 283              		.loc 2 131 53 view .LVU82
 284 003a 39C6     		cmpl	%eax, %esi
 285 003c 0F96C0   		setbe	%al
 286              	.LVL27:
 287              		.loc 2 131 40 view .LVU83
 288 003f 39D3     		cmpl	%edx, %ebx
 289 0041 0F93C2   		setnb	%dl
 290              	.LVL28:
 291              		.loc 2 131 31 view .LVU84
 292 0044 21FA     		andl	%edi, %edx
 293              		.loc 2 131 53 view .LVU85
 294 0046 20D0     		andb	%dl, %al
 295 0048 74DE     		je	.L26
 296              	.LVL29:
 297              	.L24:
 298              		.loc 2 131 53 view .LVU86
 299              	.LBE8:
 300              	.LBE9:
 301              		.loc 1 193 1 view .LVU87
 302 004a 5B       		popl	%ebx
 303              		.cfi_remember_state
 304              		.cfi_restore 3
 305              		.cfi_def_cfa_offset 12
 306              	.LVL30:
 307              		.loc 1 193 1 view .LVU88
 308 004b 5E       		popl	%esi
 309              		.cfi_restore 6
 310              		.cfi_def_cfa_offset 8
 311 004c 5F       		popl	%edi
 312              		.cfi_restore 7
 313              		.cfi_def_cfa_offset 4
 314 004d C3       		ret
 315              	.LVL31:
 316              	.L28:
 317              		.cfi_restore_state
 318              		.loc 1 192 10 view .LVU89
 319 004e 31C0     		xorl	%eax, %eax
 320 0050 EBF8     		jmp	.L24
 321              		.cfi_endproc
 322              	.LFE205:
 323              		.size	chMemIsSpaceContainedX, .-chMemIsSpaceContainedX
 324              		.section	.text.chMemIsSpaceWritableX,"ax",@progbits
 325              		.p2align 4
 326              		.globl	chMemIsSpaceWritableX
 327              		.type	chMemIsSpaceWritableX, @function
 328              	chMemIsSpaceWritableX:
 329              	.LVL32:
 330              	.LFB206:
 331              		.loc 1 218 44 is_stmt 1 view -0
 332              		.cfi_startproc
 333              		.loc 1 218 44 is_stmt 0 view .LVU91
 334 0000 55       		pushl	%ebp
 335              		.cfi_def_cfa_offset 8
 336              		.cfi_offset 5, -8
 337 0001 57       		pushl	%edi
 338              		.cfi_def_cfa_offset 12
 339              		.cfi_offset 7, -12
GAS LISTING /tmp/ccp0CFqy.s 			page 7


 340 0002 E8FCFFFF 		call	__x86.get_pc_thunk.di
 340      FF
 341 0007 81C70200 		addl	$_GLOBAL_OFFSET_TABLE_, %edi
 341      0000
 342 000d 56       		pushl	%esi
 343              		.cfi_def_cfa_offset 16
 344              		.cfi_offset 6, -16
 345 000e 53       		pushl	%ebx
 346              		.cfi_def_cfa_offset 20
 347              		.cfi_offset 3, -20
 348 000f 83EC04   		subl	$4, %esp
 349              		.cfi_def_cfa_offset 24
 350              		.loc 1 222 8 view .LVU92
 351 0012 8B442420 		movl	32(%esp), %eax
 352              		.loc 1 218 44 view .LVU93
 353 0016 8B4C2418 		movl	24(%esp), %ecx
 354              		.loc 1 220 3 is_stmt 1 view .LVU94
 355              		.loc 1 220 3 view .LVU95
 356              		.loc 1 220 3 view .LVU96
 357              		.loc 1 222 3 view .LVU97
 358              		.loc 1 222 8 is_stmt 0 view .LVU98
 359 001a 8D50FF   		leal	-1(%eax), %edx
 360              		.loc 1 223 12 view .LVU99
 361 001d 31C0     		xorl	%eax, %eax
 362              		.loc 1 222 6 view .LVU100
 363 001f 85D1     		testl	%edx, %ecx
 364 0021 740D     		je	.L42
 365              	.L31:
 366              		.loc 1 227 1 view .LVU101
 367 0023 83C404   		addl	$4, %esp
 368              		.cfi_remember_state
 369              		.cfi_def_cfa_offset 20
 370 0026 5B       		popl	%ebx
 371              		.cfi_restore 3
 372              		.cfi_def_cfa_offset 16
 373 0027 5E       		popl	%esi
 374              		.cfi_restore 6
 375              		.cfi_def_cfa_offset 12
 376 0028 5F       		popl	%edi
 377              		.cfi_restore 7
 378              		.cfi_def_cfa_offset 8
 379 0029 5D       		popl	%ebp
 380              		.cfi_restore 5
 381              		.cfi_def_cfa_offset 4
 382 002a C3       		ret
 383 002b 8D742600 		.p2align 4,,10
 383      90
 384              		.p2align 3
 385              	.L42:
 386              		.cfi_restore_state
 387              	.LVL33:
 388              	.LBB14:
 389              	.LBB15:
 390              		.loc 1 185 20 is_stmt 1 view .LVU102
 391              		.loc 1 185 13 is_stmt 0 view .LVU103
 392 0030 8BAF0000 		movl	__ch_mem_writable_areas@GOTOFF(%edi), %ebp
 392      0000
GAS LISTING /tmp/ccp0CFqy.s 			page 8


 393              		.loc 1 185 20 view .LVU104
 394 0036 83FDFF   		cmpl	$-1, %ebp
 395 0039 74E8     		je	.L31
 396              	.LBB16:
 397              	.LBB17:
 398              		.loc 2 127 18 view .LVU105
 399 003b 8B44241C 		movl	28(%esp), %eax
 400              	.LBE17:
 401              	.LBE16:
 402              		.loc 1 180 24 view .LVU106
 403 003f 8D970000 		leal	__ch_mem_writable_areas@GOTOFF(%edi), %edx
 403      0000
 404              	.LBB20:
 405              	.LBB18:
 406              		.loc 2 127 18 view .LVU107
 407 0045 8D4401FF 		leal	-1(%ecx,%eax), %eax
 408              		.loc 2 131 23 view .LVU108
 409 0049 39C1     		cmpl	%eax, %ecx
 410              		.loc 2 127 18 view .LVU109
 411 004b 890424   		movl	%eax, (%esp)
 412              		.loc 2 131 23 view .LVU110
 413 004e 0F96C0   		setbe	%al
 414 0051 89C6     		movl	%eax, %esi
 415 0053 EB0E     		jmp	.L36
 416              	.LVL34:
 417              		.p2align 4,,10
 418 0055 8D7600   		.p2align 3
 419              	.L40:
 420              		.loc 2 131 23 view .LVU111
 421              	.LBE18:
 422              	.LBE20:
 423              		.loc 1 189 5 is_stmt 1 view .LVU112
 424              		.loc 1 185 13 is_stmt 0 view .LVU113
 425 0058 8B6A08   		movl	8(%edx), %ebp
 426              		.loc 1 189 8 view .LVU114
 427 005b 83C208   		addl	$8, %edx
 428              	.LVL35:
 429              		.loc 1 185 20 is_stmt 1 view .LVU115
 430 005e 83FDFF   		cmpl	$-1, %ebp
 431 0061 74C0     		je	.L31
 432              	.LVL36:
 433              	.L36:
 434              		.loc 1 186 5 view .LVU116
 435              	.LBB21:
 436              	.LBI16:
 437              		.loc 2 121 20 view .LVU117
 438              	.LBB19:
 439              		.loc 2 124 3 view .LVU118
 440              		.loc 2 125 3 view .LVU119
 441              		.loc 2 126 3 view .LVU120
 442              		.loc 2 127 3 view .LVU121
 443              		.loc 2 129 3 view .LVU122
 444              		.loc 2 129 3 view .LVU123
 445              		.loc 2 129 3 view .LVU124
 446              		.loc 2 131 3 view .LVU125
 447              		.loc 2 125 50 is_stmt 0 view .LVU126
 448 0063 8B4204   		movl	4(%edx), %eax
GAS LISTING /tmp/ccp0CFqy.s 			page 9


 449              		.loc 2 125 18 view .LVU127
 450 0066 8D4405FF 		leal	-1(%ebp,%eax), %eax
 451              	.LVL37:
 452              		.loc 2 131 53 view .LVU128
 453 006a 390424   		cmpl	%eax, (%esp)
 454 006d 0F96C0   		setbe	%al
 455              	.LVL38:
 456              		.loc 2 131 40 view .LVU129
 457 0070 39E9     		cmpl	%ebp, %ecx
 458              		.loc 2 131 53 view .LVU130
 459 0072 89C7     		movl	%eax, %edi
 460              		.loc 2 131 40 view .LVU131
 461 0074 0F93C0   		setnb	%al
 462              		.loc 2 131 31 view .LVU132
 463 0077 21F0     		andl	%esi, %eax
 464              		.loc 2 131 53 view .LVU133
 465 0079 89FB     		movl	%edi, %ebx
 466 007b 20D8     		andb	%bl, %al
 467 007d 74D9     		je	.L40
 468              	.LBE19:
 469              	.LBE21:
 470              	.LBE15:
 471              	.LBE14:
 472              		.loc 1 227 1 view .LVU134
 473 007f 83C404   		addl	$4, %esp
 474              		.cfi_def_cfa_offset 20
 475 0082 5B       		popl	%ebx
 476              		.cfi_restore 3
 477              		.cfi_def_cfa_offset 16
 478 0083 5E       		popl	%esi
 479              		.cfi_restore 6
 480              		.cfi_def_cfa_offset 12
 481 0084 5F       		popl	%edi
 482              		.cfi_restore 7
 483              		.cfi_def_cfa_offset 8
 484 0085 5D       		popl	%ebp
 485              		.cfi_restore 5
 486              		.cfi_def_cfa_offset 4
 487              	.LVL39:
 488              		.loc 1 227 1 view .LVU135
 489 0086 C3       		ret
 490              		.cfi_endproc
 491              	.LFE206:
 492              		.size	chMemIsSpaceWritableX, .-chMemIsSpaceWritableX
 493              		.section	.text.chMemIsSpaceReadableX,"ax",@progbits
 494              		.p2align 4
 495              		.globl	chMemIsSpaceReadableX
 496              		.type	chMemIsSpaceReadableX, @function
 497              	chMemIsSpaceReadableX:
 498              	.LVL40:
 499              	.LFB207:
 500              		.loc 1 250 44 is_stmt 1 view -0
 501              		.cfi_startproc
 502              		.loc 1 250 44 is_stmt 0 view .LVU137
 503 0000 55       		pushl	%ebp
 504              		.cfi_def_cfa_offset 8
 505              		.cfi_offset 5, -8
GAS LISTING /tmp/ccp0CFqy.s 			page 10


 506 0001 57       		pushl	%edi
 507              		.cfi_def_cfa_offset 12
 508              		.cfi_offset 7, -12
 509 0002 E8FCFFFF 		call	__x86.get_pc_thunk.di
 509      FF
 510 0007 81C70200 		addl	$_GLOBAL_OFFSET_TABLE_, %edi
 510      0000
 511 000d 56       		pushl	%esi
 512              		.cfi_def_cfa_offset 16
 513              		.cfi_offset 6, -16
 514 000e 53       		pushl	%ebx
 515              		.cfi_def_cfa_offset 20
 516              		.cfi_offset 3, -20
 517 000f 83EC04   		subl	$4, %esp
 518              		.cfi_def_cfa_offset 24
 519              		.loc 1 254 8 view .LVU138
 520 0012 8B442420 		movl	32(%esp), %eax
 521              		.loc 1 250 44 view .LVU139
 522 0016 8B4C2418 		movl	24(%esp), %ecx
 523              		.loc 1 252 3 is_stmt 1 view .LVU140
 524              		.loc 1 252 3 view .LVU141
 525              		.loc 1 252 3 view .LVU142
 526              		.loc 1 254 3 view .LVU143
 527              		.loc 1 254 8 is_stmt 0 view .LVU144
 528 001a 8D50FF   		leal	-1(%eax), %edx
 529              		.loc 1 255 12 view .LVU145
 530 001d 31C0     		xorl	%eax, %eax
 531              		.loc 1 254 6 view .LVU146
 532 001f 85D1     		testl	%edx, %ecx
 533 0021 740D     		je	.L54
 534              	.L43:
 535              		.loc 1 259 1 view .LVU147
 536 0023 83C404   		addl	$4, %esp
 537              		.cfi_remember_state
 538              		.cfi_def_cfa_offset 20
 539 0026 5B       		popl	%ebx
 540              		.cfi_restore 3
 541              		.cfi_def_cfa_offset 16
 542 0027 5E       		popl	%esi
 543              		.cfi_restore 6
 544              		.cfi_def_cfa_offset 12
 545 0028 5F       		popl	%edi
 546              		.cfi_restore 7
 547              		.cfi_def_cfa_offset 8
 548 0029 5D       		popl	%ebp
 549              		.cfi_restore 5
 550              		.cfi_def_cfa_offset 4
 551 002a C3       		ret
 552 002b 8D742600 		.p2align 4,,10
 552      90
 553              		.p2align 3
 554              	.L54:
 555              		.cfi_restore_state
 556              	.LVL41:
 557              	.LBB26:
 558              	.LBB27:
 559              		.loc 1 185 20 is_stmt 1 view .LVU148
GAS LISTING /tmp/ccp0CFqy.s 			page 11


 560              		.loc 1 185 13 is_stmt 0 view .LVU149
 561 0030 8BAF0000 		movl	__ch_mem_readable_areas@GOTOFF(%edi), %ebp
 561      0000
 562              		.loc 1 185 20 view .LVU150
 563 0036 83FDFF   		cmpl	$-1, %ebp
 564 0039 74E8     		je	.L43
 565              	.LBB28:
 566              	.LBB29:
 567              		.loc 2 127 18 view .LVU151
 568 003b 8B44241C 		movl	28(%esp), %eax
 569              	.LBE29:
 570              	.LBE28:
 571              		.loc 1 180 24 view .LVU152
 572 003f 8D970000 		leal	__ch_mem_readable_areas@GOTOFF(%edi), %edx
 572      0000
 573              	.LBB32:
 574              	.LBB30:
 575              		.loc 2 127 18 view .LVU153
 576 0045 8D4401FF 		leal	-1(%ecx,%eax), %eax
 577              		.loc 2 131 23 view .LVU154
 578 0049 39C1     		cmpl	%eax, %ecx
 579              		.loc 2 127 18 view .LVU155
 580 004b 890424   		movl	%eax, (%esp)
 581              		.loc 2 131 23 view .LVU156
 582 004e 0F96C0   		setbe	%al
 583 0051 89C6     		movl	%eax, %esi
 584 0053 EB0E     		jmp	.L48
 585              	.LVL42:
 586              		.p2align 4,,10
 587 0055 8D7600   		.p2align 3
 588              	.L52:
 589              		.loc 2 131 23 view .LVU157
 590              	.LBE30:
 591              	.LBE32:
 592              		.loc 1 189 5 is_stmt 1 view .LVU158
 593              		.loc 1 185 13 is_stmt 0 view .LVU159
 594 0058 8B6A08   		movl	8(%edx), %ebp
 595              		.loc 1 189 8 view .LVU160
 596 005b 83C208   		addl	$8, %edx
 597              	.LVL43:
 598              		.loc 1 185 20 is_stmt 1 view .LVU161
 599 005e 83FDFF   		cmpl	$-1, %ebp
 600 0061 74C0     		je	.L43
 601              	.LVL44:
 602              	.L48:
 603              		.loc 1 186 5 view .LVU162
 604              	.LBB33:
 605              	.LBI28:
 606              		.loc 2 121 20 view .LVU163
 607              	.LBB31:
 608              		.loc 2 124 3 view .LVU164
 609              		.loc 2 125 3 view .LVU165
 610              		.loc 2 126 3 view .LVU166
 611              		.loc 2 127 3 view .LVU167
 612              		.loc 2 129 3 view .LVU168
 613              		.loc 2 129 3 view .LVU169
 614              		.loc 2 129 3 view .LVU170
GAS LISTING /tmp/ccp0CFqy.s 			page 12


 615              		.loc 2 131 3 view .LVU171
 616              		.loc 2 125 50 is_stmt 0 view .LVU172
 617 0063 8B4204   		movl	4(%edx), %eax
 618              		.loc 2 125 18 view .LVU173
 619 0066 8D4405FF 		leal	-1(%ebp,%eax), %eax
 620              	.LVL45:
 621              		.loc 2 131 53 view .LVU174
 622 006a 390424   		cmpl	%eax, (%esp)
 623 006d 0F96C0   		setbe	%al
 624              	.LVL46:
 625              		.loc 2 131 40 view .LVU175
 626 0070 39E9     		cmpl	%ebp, %ecx
 627              		.loc 2 131 53 view .LVU176
 628 0072 89C7     		movl	%eax, %edi
 629              		.loc 2 131 40 view .LVU177
 630 0074 0F93C0   		setnb	%al
 631              		.loc 2 131 31 view .LVU178
 632 0077 21F0     		andl	%esi, %eax
 633              		.loc 2 131 53 view .LVU179
 634 0079 89FB     		movl	%edi, %ebx
 635 007b 20D8     		andb	%bl, %al
 636 007d 74D9     		je	.L52
 637              	.LBE31:
 638              	.LBE33:
 639              	.LBE27:
 640              	.LBE26:
 641              		.loc 1 259 1 view .LVU180
 642 007f 83C404   		addl	$4, %esp
 643              		.cfi_def_cfa_offset 20
 644 0082 5B       		popl	%ebx
 645              		.cfi_restore 3
 646              		.cfi_def_cfa_offset 16
 647 0083 5E       		popl	%esi
 648              		.cfi_restore 6
 649              		.cfi_def_cfa_offset 12
 650 0084 5F       		popl	%edi
 651              		.cfi_restore 7
 652              		.cfi_def_cfa_offset 8
 653 0085 5D       		popl	%ebp
 654              		.cfi_restore 5
 655              		.cfi_def_cfa_offset 4
 656              	.LVL47:
 657              		.loc 1 259 1 view .LVU181
 658 0086 C3       		ret
 659              		.cfi_endproc
 660              	.LFE207:
 661              		.size	chMemIsSpaceReadableX, .-chMemIsSpaceReadableX
 662              		.section	.text.chMemIsAddressExecutableX,"ax",@progbits
 663              		.p2align 4
 664              		.globl	chMemIsAddressExecutableX
 665              		.type	chMemIsAddressExecutableX, @function
 666              	chMemIsAddressExecutableX:
 667              	.LVL48:
 668              	.LFB208:
 669              		.loc 1 276 47 is_stmt 1 view -0
 670              		.cfi_startproc
 671              		.loc 1 279 3 view .LVU183
GAS LISTING /tmp/ccp0CFqy.s 			page 13


 672              		.loc 1 284 3 view .LVU184
 673              		.loc 1 284 3 is_stmt 0 view .LVU185
 674 0000 E8FCFFFF 		call	__x86.get_pc_thunk.ax
 674      FF
 675 0005 05010000 		addl	$_GLOBAL_OFFSET_TABLE_, %eax
 675      00
 676              		.loc 1 276 47 view .LVU186
 677 000a 53       		pushl	%ebx
 678              		.cfi_def_cfa_offset 8
 679              		.cfi_offset 3, -8
 680              		.loc 1 276 47 view .LVU187
 681 000b 8B5C2408 		movl	8(%esp), %ebx
 682              	.LVL49:
 683              	.LBB38:
 684              	.LBI38:
 685              		.loc 1 177 6 is_stmt 1 view .LVU188
 686              	.LBB39:
 687              		.loc 1 185 20 view .LVU189
 688              		.loc 1 185 13 is_stmt 0 view .LVU190
 689 000f 8B900000 		movl	__ch_mem_executable_areas@GOTOFF(%eax), %edx
 689      0000
 690              		.loc 1 185 20 view .LVU191
 691 0015 83FAFF   		cmpl	$-1, %edx
 692 0018 7430     		je	.L59
 693              		.loc 1 180 24 view .LVU192
 694 001a 8D880000 		leal	__ch_mem_executable_areas@GOTOFF(%eax), %ecx
 694      0000
 695 0020 EB11     		jmp	.L58
 696              	.LVL50:
 697              		.p2align 4,,10
 698 0022 8DB60000 		.p2align 3
 698      0000
 699              	.L57:
 700              		.loc 1 189 5 is_stmt 1 view .LVU193
 701              		.loc 1 185 13 is_stmt 0 view .LVU194
 702 0028 8B5108   		movl	8(%ecx), %edx
 703              		.loc 1 189 8 view .LVU195
 704 002b 83C108   		addl	$8, %ecx
 705              	.LVL51:
 706              		.loc 1 185 20 is_stmt 1 view .LVU196
 707 002e 83FAFF   		cmpl	$-1, %edx
 708 0031 7415     		je	.L55
 709              	.LVL52:
 710              	.L58:
 711              		.loc 1 186 5 view .LVU197
 712              	.LBB40:
 713              	.LBI40:
 714              		.loc 2 121 20 view .LVU198
 715              	.LBB41:
 716              		.loc 2 124 3 view .LVU199
 717              		.loc 2 125 3 view .LVU200
 718              		.loc 2 126 3 view .LVU201
 719              		.loc 2 127 3 view .LVU202
 720              		.loc 2 129 3 view .LVU203
 721              		.loc 2 129 3 view .LVU204
 722              		.loc 2 129 3 view .LVU205
 723              		.loc 2 131 3 view .LVU206
GAS LISTING /tmp/ccp0CFqy.s 			page 14


 724              		.loc 2 125 50 is_stmt 0 view .LVU207
 725 0033 8B4104   		movl	4(%ecx), %eax
 726              		.loc 2 125 18 view .LVU208
 727 0036 8D4402FF 		leal	-1(%edx,%eax), %eax
 728              	.LVL53:
 729              		.loc 2 131 53 view .LVU209
 730 003a 39C3     		cmpl	%eax, %ebx
 731 003c 0F96C0   		setbe	%al
 732              	.LVL54:
 733              		.loc 2 131 53 view .LVU210
 734 003f 39D3     		cmpl	%edx, %ebx
 735 0041 0F93C2   		setnb	%dl
 736              	.LVL55:
 737              		.loc 2 131 53 view .LVU211
 738 0044 20D0     		andb	%dl, %al
 739 0046 74E0     		je	.L57
 740              	.LVL56:
 741              	.L55:
 742              		.loc 2 131 53 view .LVU212
 743              	.LBE41:
 744              	.LBE40:
 745              	.LBE39:
 746              	.LBE38:
 747              		.loc 1 285 1 view .LVU213
 748 0048 5B       		popl	%ebx
 749              		.cfi_remember_state
 750              		.cfi_restore 3
 751              		.cfi_def_cfa_offset 4
 752              	.LVL57:
 753              		.loc 1 285 1 view .LVU214
 754 0049 C3       		ret
 755              	.LVL58:
 756              	.L59:
 757              		.cfi_restore_state
 758              	.LBB43:
 759              	.LBB42:
 760              		.loc 1 192 10 view .LVU215
 761 004a 31C0     		xorl	%eax, %eax
 762              	.LVL59:
 763              		.loc 1 192 10 view .LVU216
 764              	.LBE42:
 765              	.LBE43:
 766              		.loc 1 285 1 view .LVU217
 767 004c 5B       		popl	%ebx
 768              		.cfi_restore 3
 769              		.cfi_def_cfa_offset 4
 770              	.LVL60:
 771              		.loc 1 285 1 view .LVU218
 772 004d C3       		ret
 773              		.cfi_endproc
 774              	.LFE208:
 775              		.size	chMemIsAddressExecutableX, .-chMemIsAddressExecutableX
 776              		.weak	__ch_mem_executable_areas
 777              		.section	.rodata.__ch_mem_executable_areas,"a"
 778              		.align 4
 779              		.type	__ch_mem_executable_areas, @object
 780              		.size	__ch_mem_executable_areas, 16
GAS LISTING /tmp/ccp0CFqy.s 			page 15


 781              	__ch_mem_executable_areas:
 782 0000 00000000 		.long	0
 783 0004 00000000 		.long	0
 784 0008 FFFFFFFF 		.long	-1
 785 000c 00000000 		.long	0
 786              		.weak	__ch_mem_readable_areas
 787              		.section	.rodata.__ch_mem_readable_areas,"a"
 788              		.align 4
 789              		.type	__ch_mem_readable_areas, @object
 790              		.size	__ch_mem_readable_areas, 16
 791              	__ch_mem_readable_areas:
 792 0000 00000000 		.long	0
 793 0004 00000000 		.long	0
 794 0008 FFFFFFFF 		.long	-1
 795 000c 00000000 		.long	0
 796              		.weak	__ch_mem_writable_areas
 797              		.section	.rodata.__ch_mem_writable_areas,"a"
 798              		.align 4
 799              		.type	__ch_mem_writable_areas, @object
 800              		.size	__ch_mem_writable_areas, 16
 801              	__ch_mem_writable_areas:
 802 0000 00000000 		.long	0
 803 0004 00000000 		.long	0
 804 0008 FFFFFFFF 		.long	-1
 805 000c 00000000 		.long	0
 806              		.section	.text.__x86.get_pc_thunk.ax,"axG",@progbits,__x86.get_pc_thunk.ax,comdat
 807              		.globl	__x86.get_pc_thunk.ax
 808              		.hidden	__x86.get_pc_thunk.ax
 809              		.type	__x86.get_pc_thunk.ax, @function
 810              	__x86.get_pc_thunk.ax:
 811              	.LFB210:
 812              		.cfi_startproc
 813 0000 8B0424   		movl	(%esp), %eax
 814 0003 C3       		ret
 815              		.cfi_endproc
 816              	.LFE210:
 817              		.section	.text.__x86.get_pc_thunk.di,"axG",@progbits,__x86.get_pc_thunk.di,comdat
 818              		.globl	__x86.get_pc_thunk.di
 819              		.hidden	__x86.get_pc_thunk.di
 820              		.type	__x86.get_pc_thunk.di, @function
 821              	__x86.get_pc_thunk.di:
 822              	.LFB211:
 823              		.cfi_startproc
 824 0000 8B3C24   		movl	(%esp), %edi
 825 0003 C3       		ret
 826              		.cfi_endproc
 827              	.LFE211:
 828              		.text
 829              	.Letext0:
 830              		.file 3 "/usr/lib/gcc/x86_64-linux-gnu/11/include/stddef.h"
 831              		.file 4 "/usr/include/bits/types.h"
 832              		.file 5 "/usr/include/bits/stdint-uintn.h"
 3459 004a 2F686F6D 		.section	.note.GNU-stack,"",@progbits
 3459      652F616C 
 3459      65782F43 
 3459      68696269 
 3459      4F532F64 
GAS LISTING /tmp/ccp0CFqy.s 			page 64

