GAS LISTING /tmp/ccFllOnf.s 			page 1


   1              		.file	"chregistry.c"
   2              		.text
   3              	.Ltext0:
   4              		.file 0 "/home/alex/ChibiOS/demos/various/LAB1" "../../../os/rt/src/chregistry.c"
   5              		.section	.text.chRegGarbageCollect,"ax",@progbits
   6              		.p2align 4
   7              		.globl	chRegGarbageCollect
   8              		.type	chRegGarbageCollect, @function
   9              	chRegGarbageCollect:
  10              	.LVL0:
  11              	.LFB215:
  12              		.file 1 "../../../os/rt/src/chregistry.c"
  13              		.loc 1 163 42 view -0
  14              		.cfi_startproc
  15              		.loc 1 164 3 view .LVU1
  16              		.loc 1 165 3 view .LVU2
  17              		.loc 1 167 3 view .LVU3
  18              	.LBB68:
  19              	.LBI68:
  20              		.loc 1 199 11 view .LVU4
  21              	.LBB69:
  22              		.loc 1 200 3 view .LVU5
  23              		.loc 1 201 3 view .LVU6
  24              		.loc 1 203 3 view .LVU7
  25              		.loc 1 204 3 view .LVU8
  26              	.LBE69:
  27              	.LBE68:
  28              		.loc 1 163 42 is_stmt 0 view .LVU9
  29 0000 55       		pushl	%ebp
  30              		.cfi_def_cfa_offset 8
  31              		.cfi_offset 5, -8
  32 0001 57       		pushl	%edi
  33              		.cfi_def_cfa_offset 12
  34              		.cfi_offset 7, -12
  35 0002 56       		pushl	%esi
  36              		.cfi_def_cfa_offset 16
  37              		.cfi_offset 6, -16
  38 0003 53       		pushl	%ebx
  39              		.cfi_def_cfa_offset 20
  40              		.cfi_offset 3, -20
  41 0004 E8FCFFFF 		call	__x86.get_pc_thunk.bx
  41      FF
  42 0009 81C30200 		addl	$_GLOBAL_OFFSET_TABLE_, %ebx
  42      0000
  43 000f 83EC1C   		subl	$28, %esp
  44              		.cfi_def_cfa_offset 48
  45              		.loc 1 165 10 view .LVU10
  46 0012 C7442408 		movl	$0, 8(%esp)
  46      00000000 
  47              	.LBB80:
  48              	.LBB78:
  49              		.loc 1 204 5 view .LVU11
  50 001a 8B8B0000 		movl	ch0@GOT(%ebx), %ecx
  50      0000
  51              	.LBB70:
  52              	.LBB71:
  53              	.LBB72:
GAS LISTING /tmp/ccFllOnf.s 			page 2


  54              	.LBB73:
  55              		.file 2 "../../../os/common/ports/SIMIA32/chcore.h"
  56              		.loc 2 372 16 view .LVU12
  57 0020 8BBB0000 		movl	port_irq_sts@GOT(%ebx), %edi
  57      0000
  58              	.LBE73:
  59              	.LBE72:
  60              	.LBE71:
  61              	.LBE70:
  62              		.loc 1 204 5 view .LVU13
  63 0026 8B4128   		movl	40(%ecx), %eax
  64              	.LVL1:
  65              		.loc 1 206 3 is_stmt 1 view .LVU14
  66              	.LBE78:
  67              	.LBE80:
  68              	.LBB81:
  69              	.LBB82:
  70              		.loc 1 235 6 is_stmt 0 view .LVU15
  71 0029 8D6928   		leal	40(%ecx), %ebp
  72              	.LBE82:
  73              	.LBE81:
  74              	.LBB105:
  75              	.LBB79:
  76              		.loc 1 209 11 view .LVU16
  77 002c 8040FA01 		addb	$1, -6(%eax)
  78              		.loc 1 206 6 view .LVU17
  79 0030 8D50DC   		leal	-36(%eax), %edx
  80              	.LVL2:
  81              		.loc 1 209 3 is_stmt 1 view .LVU18
  82              		.loc 1 211 3 view .LVU19
  83              	.LBB77:
  84              	.LBI70:
  85              		.file 3 "../../../os/rt/include/chsys.h"
  86              		.loc 3 421 20 view .LVU20
  87              	.LBB76:
  88              		.loc 3 423 23 view .LVU21
  89              		.loc 3 424 34 view .LVU22
  90              		.loc 3 430 3 view .LVU23
  91              		.loc 3 430 3 view .LVU24
  92              		.loc 3 430 3 view .LVU25
  93              		.loc 3 434 3 view .LVU26
  94              	.LBB75:
  95              	.LBI72:
  96              		.loc 2 370 20 view .LVU27
  97              	.LBB74:
  98              		.loc 2 372 3 view .LVU28
  99              		.loc 2 372 16 is_stmt 0 view .LVU29
 100 0033 C7070000 		movl	$0, (%edi)
 100      0000
 101              	.LBE74:
 102              	.LBE75:
 103              	.LBE76:
 104              	.LBE77:
 105              		.loc 1 213 3 is_stmt 1 view .LVU30
 106              	.LVL3:
 107              		.loc 1 213 3 is_stmt 0 view .LVU31
 108 0039 EB27     		jmp	.L3
GAS LISTING /tmp/ccFllOnf.s 			page 3


 109              	.LVL4:
 110 003b 8D742600 		.p2align 4,,10
 110      90
 111              		.p2align 3
 112              	.L2:
 113              		.loc 1 213 3 view .LVU32
 114              	.LBE79:
 115              	.LBE105:
 116              		.loc 1 181 5 is_stmt 1 view .LVU33
 117              	.LBB106:
 118              	.LBI81:
 119              		.loc 1 227 11 view .LVU34
 120              	.LBB102:
 121              		.loc 1 228 3 view .LVU35
 122              		.loc 1 229 3 view .LVU36
 123              		.loc 1 231 3 view .LVU37
 124              		.loc 1 234 3 view .LVU38
 125              		.loc 1 234 7 is_stmt 0 view .LVU39
 126 0040 8B4224   		movl	36(%edx), %eax
 127              	.LVL5:
 128              		.loc 1 235 3 is_stmt 1 view .LVU40
 129              		.loc 1 235 6 is_stmt 0 view .LVU41
 130 0043 39E8     		cmpl	%ebp, %eax
 131 0045 744A     		je	.L10
 132              	.LVL6:
 133              	.L7:
 134              	.LBB83:
 135              		.loc 1 239 5 is_stmt 1 view .LVU42
 136              		.loc 1 241 5 view .LVU43
 137              		.loc 1 247 14 is_stmt 0 view .LVU44
 138 0047 8040FA01 		addb	$1, -6(%eax)
 139              	.LBE83:
 140              		.loc 1 252 3 view .LVU45
 141 004b 83EC0C   		subl	$12, %esp
 142              		.cfi_def_cfa_offset 60
 143              	.LBB84:
 144              		.loc 1 241 9 view .LVU46
 145 004e 8D70DC   		leal	-36(%eax), %esi
 146              	.LVL7:
 147              		.loc 1 245 5 is_stmt 1 view .LVU47
 148              		.loc 1 245 5 view .LVU48
 149              		.loc 1 245 5 view .LVU49
 150              		.loc 1 247 5 view .LVU50
 151              		.loc 1 247 5 is_stmt 0 view .LVU51
 152              	.LBE84:
 153              		.loc 1 250 3 is_stmt 1 view .LVU52
 154              	.LBB85:
 155              	.LBI85:
 156              		.loc 3 421 20 view .LVU53
 157              	.LBB86:
 158              		.loc 3 423 23 view .LVU54
 159              		.loc 3 424 34 view .LVU55
 160              		.loc 3 430 3 view .LVU56
 161              		.loc 3 430 3 view .LVU57
 162              		.loc 3 430 3 view .LVU58
 163              		.loc 3 434 3 view .LVU59
 164              	.LBB87:
GAS LISTING /tmp/ccFllOnf.s 			page 4


 165              	.LBI87:
 166              		.loc 2 370 20 view .LVU60
 167              	.LBB88:
 168              		.loc 2 372 3 view .LVU61
 169              	.LBE88:
 170              	.LBE87:
 171              	.LBE86:
 172              	.LBE85:
 173              		.loc 1 252 3 is_stmt 0 view .LVU62
 174 0051 52       		pushl	%edx
 175              		.cfi_def_cfa_offset 64
 176              	.LBB98:
 177              	.LBB95:
 178              	.LBB92:
 179              	.LBB89:
 180              		.loc 2 372 16 view .LVU63
 181 0052 C7070000 		movl	$0, (%edi)
 181      0000
 182              	.LBE89:
 183              	.LBE92:
 184              	.LBE95:
 185              	.LBE98:
 186              		.loc 1 252 3 is_stmt 1 view .LVU64
 187 0058 E8FCFFFF 		call	chThdRelease@PLT
 187      FF
 188              	.LVL8:
 189              		.loc 1 255 3 view .LVU65
 190              		.loc 1 255 3 is_stmt 0 view .LVU66
 191              	.LBE102:
 192              	.LBE106:
 193              		.loc 1 182 15 is_stmt 1 view .LVU67
 194              	.LBB107:
 195              	.LBB103:
 196              		.loc 1 252 3 is_stmt 0 view .LVU68
 197 005d 83C410   		addl	$16, %esp
 198              		.cfi_def_cfa_offset 48
 199              	.LBB99:
 200              		.loc 1 241 9 view .LVU69
 201 0060 89F2     		movl	%esi, %edx
 202              	.LVL9:
 203              	.L3:
 204              		.loc 1 241 9 view .LVU70
 205              	.LBE99:
 206              	.LBE103:
 207              	.LBE107:
 208              		.loc 1 168 3 is_stmt 1 view .LVU71
 209              		.loc 1 169 5 view .LVU72
 210              	.LBB108:
 211              	.LBI108:
 212              		.file 4 "../../../os/rt/include/chthreads.h"
 213              		.loc 4 514 21 view .LVU73
 214              	.LBB109:
 215              		.loc 4 516 3 view .LVU74
 216              		.loc 4 516 3 is_stmt 0 view .LVU75
 217              	.LBE109:
 218              	.LBE108:
 219              		.loc 1 169 8 view .LVU76
GAS LISTING /tmp/ccFllOnf.s 			page 5


 220 0062 8B4230   		movl	48(%edx), %eax
 221 0065 39442430 		cmpl	%eax, 48(%esp)
 222 0069 75D5     		jne	.L2
 223              		.loc 1 172 7 is_stmt 1 view .LVU77
 224              		.loc 1 177 7 view .LVU78
 225              		.loc 1 172 8 is_stmt 0 view .LVU79
 226 006b 83442408 		addl	$1, 8(%esp)
 226      01
 227              	.LVL10:
 228              		.loc 1 177 10 view .LVU80
 229 0070 807A1E01 		cmpb	$1, 30(%edx)
 230 0074 76CA     		jbe	.L2
 231              		.loc 1 178 9 is_stmt 1 view .LVU81
 232 0076 83EC0C   		subl	$12, %esp
 233              		.cfi_def_cfa_offset 60
 234 0079 52       		pushl	%edx
 235              		.cfi_def_cfa_offset 64
 236 007a 8954241C 		movl	%edx, 28(%esp)
 237 007e E8FCFFFF 		call	chThdRelease@PLT
 237      FF
 238              	.LVL11:
 239              		.loc 1 178 9 is_stmt 0 view .LVU82
 240 0083 8B54241C 		movl	28(%esp), %edx
 241 0087 83C410   		addl	$16, %esp
 242              		.cfi_def_cfa_offset 48
 243              	.LVL12:
 244              		.loc 1 181 5 is_stmt 1 view .LVU83
 245              	.LBB110:
 246              		.loc 1 227 11 view .LVU84
 247              	.LBB104:
 248              		.loc 1 228 3 view .LVU85
 249              		.loc 1 229 3 view .LVU86
 250              		.loc 1 231 3 view .LVU87
 251              		.loc 1 234 3 view .LVU88
 252              		.loc 1 234 7 is_stmt 0 view .LVU89
 253 008a 8B4224   		movl	36(%edx), %eax
 254              	.LVL13:
 255              		.loc 1 235 3 is_stmt 1 view .LVU90
 256              		.loc 1 235 6 is_stmt 0 view .LVU91
 257 008d 39E8     		cmpl	%ebp, %eax
 258 008f 75B6     		jne	.L7
 259              	.LVL14:
 260              	.L10:
 261              		.loc 1 250 3 is_stmt 1 view .LVU92
 262              	.LBB100:
 263              		.loc 3 421 20 view .LVU93
 264              	.LBB96:
 265              		.loc 3 423 23 view .LVU94
 266              		.loc 3 424 34 view .LVU95
 267              		.loc 3 430 3 view .LVU96
 268              		.loc 3 430 3 view .LVU97
 269              		.loc 3 430 3 view .LVU98
 270              		.loc 3 434 3 view .LVU99
 271              	.LBB93:
 272              		.loc 2 370 20 view .LVU100
 273              	.LBB90:
 274              		.loc 2 372 3 view .LVU101
GAS LISTING /tmp/ccFllOnf.s 			page 6


 275              	.LBE90:
 276              	.LBE93:
 277              	.LBE96:
 278              	.LBE100:
 279              		.loc 1 252 3 is_stmt 0 view .LVU102
 280 0091 83EC0C   		subl	$12, %esp
 281              		.cfi_def_cfa_offset 60
 282              	.LBB101:
 283              	.LBB97:
 284              	.LBB94:
 285              	.LBB91:
 286              		.loc 2 372 16 view .LVU103
 287 0094 C7070000 		movl	$0, (%edi)
 287      0000
 288              	.LBE91:
 289              	.LBE94:
 290              	.LBE97:
 291              	.LBE101:
 292              		.loc 1 252 3 is_stmt 1 view .LVU104
 293 009a 52       		pushl	%edx
 294              		.cfi_def_cfa_offset 64
 295 009b E8FCFFFF 		call	chThdRelease@PLT
 295      FF
 296              	.LVL15:
 297              		.loc 1 255 3 view .LVU105
 298              		.loc 1 255 3 is_stmt 0 view .LVU106
 299              	.LBE104:
 300              	.LBE110:
 301              		.loc 1 182 15 is_stmt 1 view .LVU107
 302              		.loc 1 184 3 view .LVU108
 303              		.loc 1 185 1 is_stmt 0 view .LVU109
 304 00a0 8B442418 		movl	24(%esp), %eax
 305 00a4 83C42C   		addl	$44, %esp
 306              		.cfi_def_cfa_offset 20
 307 00a7 5B       		popl	%ebx
 308              		.cfi_restore 3
 309              		.cfi_def_cfa_offset 16
 310 00a8 5E       		popl	%esi
 311              		.cfi_restore 6
 312              		.cfi_def_cfa_offset 12
 313 00a9 5F       		popl	%edi
 314              		.cfi_restore 7
 315              		.cfi_def_cfa_offset 8
 316 00aa 5D       		popl	%ebp
 317              		.cfi_restore 5
 318              		.cfi_def_cfa_offset 4
 319 00ab C3       		ret
 320              		.cfi_endproc
 321              	.LFE215:
 322              		.size	chRegGarbageCollect, .-chRegGarbageCollect
 323              		.section	.text.chRegFirstThread,"ax",@progbits
 324              		.p2align 4
 325              		.globl	chRegFirstThread
 326              		.type	chRegFirstThread, @function
 327              	chRegFirstThread:
 328              	.LFB216:
 329              		.loc 1 199 34 is_stmt 1 view -0
GAS LISTING /tmp/ccFllOnf.s 			page 7


 330              		.cfi_startproc
 331              		.loc 1 200 3 view .LVU111
 332              		.loc 1 201 3 view .LVU112
 333              		.loc 1 203 3 view .LVU113
 334              		.loc 1 204 3 view .LVU114
 335 0000 E8FCFFFF 		call	__x86.get_pc_thunk.dx
 335      FF
 336 0005 81C20200 		addl	$_GLOBAL_OFFSET_TABLE_, %edx
 336      0000
 337              		.loc 1 204 5 is_stmt 0 view .LVU115
 338 000b 8B820000 		movl	ch0@GOT(%edx), %eax
 338      0000
 339              	.LBB111:
 340              	.LBB112:
 341              	.LBB113:
 342              	.LBB114:
 343              		.loc 2 372 16 view .LVU116
 344 0011 8B920000 		movl	port_irq_sts@GOT(%edx), %edx
 344      0000
 345              	.LBE114:
 346              	.LBE113:
 347              	.LBE112:
 348              	.LBE111:
 349              		.loc 1 204 5 view .LVU117
 350 0017 8B4028   		movl	40(%eax), %eax
 351              	.LVL16:
 352              		.loc 1 206 3 is_stmt 1 view .LVU118
 353              		.loc 1 209 3 view .LVU119
 354              		.loc 1 209 11 is_stmt 0 view .LVU120
 355 001a 8040FA01 		addb	$1, -6(%eax)
 356              		.loc 1 211 3 is_stmt 1 view .LVU121
 357              	.LBB121:
 358              	.LBI111:
 359              		.loc 3 421 20 view .LVU122
 360              	.LBB119:
 361              		.loc 3 423 23 view .LVU123
 362              		.loc 3 424 34 view .LVU124
 363              		.loc 3 430 3 view .LVU125
 364              		.loc 3 430 3 view .LVU126
 365              		.loc 3 430 3 view .LVU127
 366              		.loc 3 434 3 view .LVU128
 367              	.LBB117:
 368              	.LBI113:
 369              		.loc 2 370 20 view .LVU129
 370              	.LBB115:
 371              		.loc 2 372 3 view .LVU130
 372              	.LBE115:
 373              	.LBE117:
 374              	.LBE119:
 375              	.LBE121:
 376              		.loc 1 206 6 is_stmt 0 view .LVU131
 377 001e 83E824   		subl	$36, %eax
 378              	.LVL17:
 379              	.LBB122:
 380              	.LBB120:
 381              	.LBB118:
 382              	.LBB116:
GAS LISTING /tmp/ccFllOnf.s 			page 8


 383              		.loc 2 372 16 view .LVU132
 384 0021 C7020000 		movl	$0, (%edx)
 384      0000
 385              	.LBE116:
 386              	.LBE118:
 387              	.LBE120:
 388              	.LBE122:
 389              		.loc 1 213 3 is_stmt 1 view .LVU133
 390              		.loc 1 214 1 is_stmt 0 view .LVU134
 391 0027 C3       		ret
 392              		.cfi_endproc
 393              	.LFE216:
 394              		.size	chRegFirstThread, .-chRegFirstThread
 395              		.section	.text.chRegNextThread,"ax",@progbits
 396              		.p2align 4
 397              		.globl	chRegNextThread
 398              		.type	chRegNextThread, @function
 399              	chRegNextThread:
 400              	.LVL18:
 401              	.LFB217:
 402              		.loc 1 227 41 is_stmt 1 view -0
 403              		.cfi_startproc
 404              		.loc 1 228 3 view .LVU136
 405              		.loc 1 229 3 view .LVU137
 406              		.loc 1 231 3 view .LVU138
 407              		.loc 1 234 3 view .LVU139
 408              		.loc 1 227 41 is_stmt 0 view .LVU140
 409 0000 56       		pushl	%esi
 410              		.cfi_def_cfa_offset 8
 411              		.cfi_offset 6, -8
 412 0001 53       		pushl	%ebx
 413              		.cfi_def_cfa_offset 12
 414              		.cfi_offset 3, -12
 415 0002 E8FCFFFF 		call	__x86.get_pc_thunk.bx
 415      FF
 416 0007 81C30200 		addl	$_GLOBAL_OFFSET_TABLE_, %ebx
 416      0000
 417 000d 83EC04   		subl	$4, %esp
 418              		.cfi_def_cfa_offset 16
 419              		.loc 1 227 41 view .LVU141
 420 0010 8B542410 		movl	16(%esp), %edx
 421              		.loc 1 234 7 view .LVU142
 422 0014 8B4224   		movl	36(%edx), %eax
 423              	.LVL19:
 424              		.loc 1 235 3 is_stmt 1 view .LVU143
 425              		.loc 1 235 6 is_stmt 0 view .LVU144
 426 0017 8B8B0000 		movl	ch0@GOT(%ebx), %ecx
 426      0000
 427 001d 83C128   		addl	$40, %ecx
 428 0020 39C8     		cmpl	%ecx, %eax
 429 0022 742C     		je	.L14
 430              	.LBB128:
 431              		.loc 1 239 5 is_stmt 1 view .LVU145
 432              	.LVL20:
 433              		.loc 1 241 5 view .LVU146
 434              		.loc 1 247 14 is_stmt 0 view .LVU147
 435 0024 8040FA01 		addb	$1, -6(%eax)
GAS LISTING /tmp/ccFllOnf.s 			page 9


 436              		.loc 1 241 9 view .LVU148
 437 0028 8D70DC   		leal	-36(%eax), %esi
 438              	.LVL21:
 439              		.loc 1 245 5 is_stmt 1 view .LVU149
 440              		.loc 1 245 5 view .LVU150
 441              		.loc 1 245 5 view .LVU151
 442              		.loc 1 247 5 view .LVU152
 443              	.L13:
 444              		.loc 1 247 5 is_stmt 0 view .LVU153
 445              	.LBE128:
 446              		.loc 1 250 3 is_stmt 1 view .LVU154
 447              	.LBB129:
 448              	.LBI129:
 449              		.loc 3 421 20 view .LVU155
 450              	.LBB130:
 451              		.loc 3 423 23 view .LVU156
 452              		.loc 3 424 34 view .LVU157
 453              		.loc 3 430 3 view .LVU158
 454              		.loc 3 430 3 view .LVU159
 455              		.loc 3 430 3 view .LVU160
 456              		.loc 3 434 3 view .LVU161
 457              	.LBB131:
 458              	.LBI131:
 459              		.loc 2 370 20 view .LVU162
 460              	.LBB132:
 461              		.loc 2 372 3 view .LVU163
 462              		.loc 2 372 16 is_stmt 0 view .LVU164
 463 002b 8B830000 		movl	port_irq_sts@GOT(%ebx), %eax
 463      0000
 464              	.LVL22:
 465              		.loc 2 372 16 view .LVU165
 466              	.LBE132:
 467              	.LBE131:
 468              	.LBE130:
 469              	.LBE129:
 470              		.loc 1 252 3 view .LVU166
 471 0031 83EC0C   		subl	$12, %esp
 472              		.cfi_def_cfa_offset 28
 473              	.LBB136:
 474              	.LBB135:
 475              	.LBB134:
 476              	.LBB133:
 477              		.loc 2 372 16 view .LVU167
 478 0034 C7000000 		movl	$0, (%eax)
 478      0000
 479              	.LBE133:
 480              	.LBE134:
 481              	.LBE135:
 482              	.LBE136:
 483              		.loc 1 252 3 is_stmt 1 view .LVU168
 484 003a 52       		pushl	%edx
 485              		.cfi_def_cfa_offset 32
 486 003b E8FCFFFF 		call	chThdRelease@PLT
 486      FF
 487              	.LVL23:
 488              		.loc 1 255 3 view .LVU169
 489              		.loc 1 256 1 is_stmt 0 view .LVU170
GAS LISTING /tmp/ccFllOnf.s 			page 10


 490 0040 83C414   		addl	$20, %esp
 491              		.cfi_def_cfa_offset 12
 492 0043 89F0     		movl	%esi, %eax
 493 0045 5B       		popl	%ebx
 494              		.cfi_restore 3
 495              		.cfi_def_cfa_offset 8
 496 0046 5E       		popl	%esi
 497              		.cfi_restore 6
 498              		.cfi_def_cfa_offset 4
 499              	.LVL24:
 500              		.loc 1 256 1 view .LVU171
 501 0047 C3       		ret
 502              	.LVL25:
 503 0048 8DB42600 		.p2align 4,,10
 503      00000090 
 504              		.p2align 3
 505              	.L14:
 506              		.cfi_def_cfa_offset 16
 507              		.cfi_offset 3, -12
 508              		.cfi_offset 6, -8
 509              		.loc 1 236 9 view .LVU172
 510 0050 31F6     		xorl	%esi, %esi
 511 0052 EBD7     		jmp	.L13
 512              		.cfi_endproc
 513              	.LFE217:
 514              		.size	chRegNextThread, .-chRegNextThread
 515              		.section	.text.chRegFindThreadByName,"ax",@progbits
 516              		.p2align 4
 517              		.globl	chRegFindThreadByName
 518              		.type	chRegFindThreadByName, @function
 519              	chRegFindThreadByName:
 520              	.LVL26:
 521              	.LFB218:
 522              		.loc 1 270 51 is_stmt 1 view -0
 523              		.cfi_startproc
 524              		.loc 1 271 3 view .LVU174
 525              		.loc 1 274 3 view .LVU175
 526              	.LBB152:
 527              	.LBI152:
 528              		.loc 1 199 11 view .LVU176
 529              	.LBB153:
 530              		.loc 1 200 3 view .LVU177
 531              		.loc 1 201 3 view .LVU178
 532              		.loc 1 203 3 view .LVU179
 533              		.loc 1 204 3 view .LVU180
 534              	.LBE153:
 535              	.LBE152:
 536              		.loc 1 270 51 is_stmt 0 view .LVU181
 537 0000 55       		pushl	%ebp
 538              		.cfi_def_cfa_offset 8
 539              		.cfi_offset 5, -8
 540 0001 57       		pushl	%edi
 541              		.cfi_def_cfa_offset 12
 542              		.cfi_offset 7, -12
 543 0002 56       		pushl	%esi
 544              		.cfi_def_cfa_offset 16
 545              		.cfi_offset 6, -16
GAS LISTING /tmp/ccFllOnf.s 			page 11


 546 0003 53       		pushl	%ebx
 547              		.cfi_def_cfa_offset 20
 548              		.cfi_offset 3, -20
 549 0004 E8FCFFFF 		call	__x86.get_pc_thunk.bx
 549      FF
 550 0009 81C30200 		addl	$_GLOBAL_OFFSET_TABLE_, %ebx
 550      0000
 551 000f 83EC1C   		subl	$28, %esp
 552              		.cfi_def_cfa_offset 48
 553              	.LBB168:
 554              	.LBB166:
 555              		.loc 1 204 5 view .LVU182
 556 0012 8B8B0000 		movl	ch0@GOT(%ebx), %ecx
 556      0000
 557              	.LBB154:
 558              	.LBB155:
 559              	.LBB156:
 560              	.LBB157:
 561              		.loc 2 372 16 view .LVU183
 562 0018 8BBB0000 		movl	port_irq_sts@GOT(%ebx), %edi
 562      0000
 563              	.LBE157:
 564              	.LBE156:
 565              	.LBE155:
 566              	.LBE154:
 567              		.loc 1 204 5 view .LVU184
 568 001e 8B4128   		movl	40(%ecx), %eax
 569              	.LVL27:
 570              		.loc 1 206 3 is_stmt 1 view .LVU185
 571              		.loc 1 209 11 is_stmt 0 view .LVU186
 572 0021 8040FA01 		addb	$1, -6(%eax)
 573              		.loc 1 206 6 view .LVU187
 574 0025 8D68DC   		leal	-36(%eax), %ebp
 575              	.LVL28:
 576              		.loc 1 209 3 is_stmt 1 view .LVU188
 577              		.loc 1 211 3 view .LVU189
 578              	.LBB164:
 579              	.LBI154:
 580              		.loc 3 421 20 view .LVU190
 581              	.LBB162:
 582              		.loc 3 423 23 view .LVU191
 583              		.loc 3 424 34 view .LVU192
 584              		.loc 3 430 3 view .LVU193
 585              		.loc 3 430 3 view .LVU194
 586              		.loc 3 430 3 view .LVU195
 587              		.loc 3 434 3 view .LVU196
 588              	.LBB160:
 589              	.LBI156:
 590              		.loc 2 370 20 view .LVU197
 591              	.LBB158:
 592              		.loc 2 372 3 view .LVU198
 593              	.LBE158:
 594              	.LBE160:
 595              	.LBE162:
 596              	.LBE164:
 597              	.LBE166:
 598              	.LBE168:
GAS LISTING /tmp/ccFllOnf.s 			page 12


 599              	.LBB169:
 600              	.LBB170:
 601              		.loc 1 235 6 is_stmt 0 view .LVU199
 602 0028 8D4128   		leal	40(%ecx), %eax
 603              	.LVL29:
 604              		.loc 1 235 6 view .LVU200
 605              	.LBE170:
 606              	.LBE169:
 607              	.LBB194:
 608              	.LBB167:
 609              	.LBB165:
 610              	.LBB163:
 611              	.LBB161:
 612              	.LBB159:
 613              		.loc 2 372 16 view .LVU201
 614 002b C7070000 		movl	$0, (%edi)
 614      0000
 615              	.LBE159:
 616              	.LBE161:
 617              	.LBE163:
 618              	.LBE165:
 619              		.loc 1 213 3 is_stmt 1 view .LVU202
 620              	.LVL30:
 621              		.loc 1 213 3 is_stmt 0 view .LVU203
 622              	.LBE167:
 623              	.LBE194:
 624              	.LBB195:
 625              	.LBB189:
 626              		.loc 1 235 6 view .LVU204
 627 0031 8944240C 		movl	%eax, 12(%esp)
 628 0035 EB24     		jmp	.L19
 629              	.LVL31:
 630 0037 8DB42600 		.p2align 4,,10
 630      00000066 
 630      90
 631              		.p2align 3
 632              	.L18:
 633              	.LBB171:
 634              		.loc 1 239 5 is_stmt 1 view .LVU205
 635              		.loc 1 241 5 view .LVU206
 636              		.loc 1 247 14 is_stmt 0 view .LVU207
 637 0040 8040FA01 		addb	$1, -6(%eax)
 638              	.LBE171:
 639              		.loc 1 252 3 view .LVU208
 640 0044 83EC0C   		subl	$12, %esp
 641              		.cfi_def_cfa_offset 60
 642              	.LBB172:
 643              		.loc 1 241 9 view .LVU209
 644 0047 8D70DC   		leal	-36(%eax), %esi
 645              	.LVL32:
 646              		.loc 1 245 5 is_stmt 1 view .LVU210
 647              		.loc 1 245 5 view .LVU211
 648              		.loc 1 245 5 view .LVU212
 649              		.loc 1 247 5 view .LVU213
 650              		.loc 1 247 5 is_stmt 0 view .LVU214
 651              	.LBE172:
 652              		.loc 1 250 3 is_stmt 1 view .LVU215
GAS LISTING /tmp/ccFllOnf.s 			page 13


 653              	.LBB173:
 654              	.LBI173:
 655              		.loc 3 421 20 view .LVU216
 656              	.LBB174:
 657              		.loc 3 423 23 view .LVU217
 658              		.loc 3 424 34 view .LVU218
 659              		.loc 3 430 3 view .LVU219
 660              		.loc 3 430 3 view .LVU220
 661              		.loc 3 430 3 view .LVU221
 662              		.loc 3 434 3 view .LVU222
 663              	.LBB175:
 664              	.LBI175:
 665              		.loc 2 370 20 view .LVU223
 666              	.LBB176:
 667              		.loc 2 372 3 view .LVU224
 668              	.LBE176:
 669              	.LBE175:
 670              	.LBE174:
 671              	.LBE173:
 672              		.loc 1 252 3 is_stmt 0 view .LVU225
 673 004a 55       		pushl	%ebp
 674              		.cfi_def_cfa_offset 64
 675 004b 89F5     		movl	%esi, %ebp
 676              	.LVL33:
 677              	.LBB186:
 678              	.LBB183:
 679              	.LBB180:
 680              	.LBB177:
 681              		.loc 2 372 16 view .LVU226
 682 004d C7070000 		movl	$0, (%edi)
 682      0000
 683              	.LBE177:
 684              	.LBE180:
 685              	.LBE183:
 686              	.LBE186:
 687              		.loc 1 252 3 is_stmt 1 view .LVU227
 688 0053 E8FCFFFF 		call	chThdRelease@PLT
 688      FF
 689              	.LVL34:
 690              		.loc 1 255 3 view .LVU228
 691              		.loc 1 255 3 is_stmt 0 view .LVU229
 692              	.LBE189:
 693              	.LBE195:
 694              		.loc 1 280 16 is_stmt 1 view .LVU230
 695              	.LBB196:
 696              	.LBB190:
 697              		.loc 1 252 3 is_stmt 0 view .LVU231
 698 0058 83C410   		addl	$16, %esp
 699              		.cfi_def_cfa_offset 48
 700              	.LVL35:
 701              	.L19:
 702              		.loc 1 252 3 view .LVU232
 703              	.LBE190:
 704              	.LBE196:
 705              		.loc 1 275 3 is_stmt 1 view .LVU233
 706              		.loc 1 276 5 view .LVU234
 707              	.LBB197:
GAS LISTING /tmp/ccFllOnf.s 			page 14


 708              	.LBI197:
 709              		.file 5 "../../../os/rt/include/chregistry.h"
 710              		.loc 5 186 27 view .LVU235
 711              	.LBB198:
 712              		.loc 5 189 3 view .LVU236
 713              		.loc 5 189 3 is_stmt 0 view .LVU237
 714              	.LBE198:
 715              	.LBE197:
 716              		.loc 1 276 9 view .LVU238
 717 005b 83EC08   		subl	$8, %esp
 718              		.cfi_def_cfa_offset 56
 719 005e FF742438 		pushl	56(%esp)
 720              		.cfi_def_cfa_offset 60
 721 0062 FF7520   		pushl	32(%ebp)
 722              		.cfi_def_cfa_offset 64
 723 0065 E8FCFFFF 		call	strcmp@PLT
 723      FF
 724              	.LVL36:
 725 006a 83C410   		addl	$16, %esp
 726              		.cfi_def_cfa_offset 48
 727              		.loc 1 276 8 view .LVU239
 728 006d 85C0     		testl	%eax, %eax
 729 006f 741D     		je	.L16
 730              		.loc 1 279 5 is_stmt 1 view .LVU240
 731              	.LVL37:
 732              	.LBB199:
 733              	.LBI169:
 734              		.loc 1 227 11 view .LVU241
 735              	.LBB191:
 736              		.loc 1 228 3 view .LVU242
 737              		.loc 1 229 3 view .LVU243
 738              		.loc 1 231 3 view .LVU244
 739              		.loc 1 234 3 view .LVU245
 740              		.loc 1 234 7 is_stmt 0 view .LVU246
 741 0071 8B4524   		movl	36(%ebp), %eax
 742              	.LVL38:
 743              		.loc 1 235 3 is_stmt 1 view .LVU247
 744              		.loc 1 235 6 is_stmt 0 view .LVU248
 745 0074 3B44240C 		cmpl	12(%esp), %eax
 746 0078 75C6     		jne	.L18
 747              	.LVL39:
 748              		.loc 1 250 3 is_stmt 1 view .LVU249
 749              	.LBB187:
 750              		.loc 3 421 20 view .LVU250
 751              	.LBB184:
 752              		.loc 3 423 23 view .LVU251
 753              		.loc 3 424 34 view .LVU252
 754              		.loc 3 430 3 view .LVU253
 755              		.loc 3 430 3 view .LVU254
 756              		.loc 3 430 3 view .LVU255
 757              		.loc 3 434 3 view .LVU256
 758              	.LBB181:
 759              		.loc 2 370 20 view .LVU257
 760              	.LBB178:
 761              		.loc 2 372 3 view .LVU258
 762              	.LBE178:
 763              	.LBE181:
GAS LISTING /tmp/ccFllOnf.s 			page 15


 764              	.LBE184:
 765              	.LBE187:
 766              		.loc 1 252 3 is_stmt 0 view .LVU259
 767 007a 83EC0C   		subl	$12, %esp
 768              		.cfi_def_cfa_offset 60
 769              	.LBB188:
 770              	.LBB185:
 771              	.LBB182:
 772              	.LBB179:
 773              		.loc 2 372 16 view .LVU260
 774 007d C7070000 		movl	$0, (%edi)
 774      0000
 775              	.LBE179:
 776              	.LBE182:
 777              	.LBE185:
 778              	.LBE188:
 779              		.loc 1 252 3 is_stmt 1 view .LVU261
 780 0083 55       		pushl	%ebp
 781              		.cfi_def_cfa_offset 64
 782              	.LBE191:
 783              	.LBE199:
 784              		.loc 1 282 10 is_stmt 0 view .LVU262
 785 0084 31ED     		xorl	%ebp, %ebp
 786              	.LVL40:
 787              	.LBB200:
 788              	.LBB192:
 789              		.loc 1 252 3 view .LVU263
 790 0086 E8FCFFFF 		call	chThdRelease@PLT
 790      FF
 791              	.LVL41:
 792              		.loc 1 255 3 is_stmt 1 view .LVU264
 793              		.loc 1 255 3 is_stmt 0 view .LVU265
 794              	.LBE192:
 795              	.LBE200:
 796              		.loc 1 280 16 is_stmt 1 view .LVU266
 797              	.LBB201:
 798              	.LBB193:
 799              		.loc 1 252 3 is_stmt 0 view .LVU267
 800 008b 83C410   		addl	$16, %esp
 801              		.cfi_def_cfa_offset 48
 802              	.LVL42:
 803              	.L16:
 804              		.loc 1 252 3 view .LVU268
 805              	.LBE193:
 806              	.LBE201:
 807              		.loc 1 283 1 view .LVU269
 808 008e 83C41C   		addl	$28, %esp
 809              		.cfi_def_cfa_offset 20
 810 0091 89E8     		movl	%ebp, %eax
 811 0093 5B       		popl	%ebx
 812              		.cfi_restore 3
 813              		.cfi_def_cfa_offset 16
 814 0094 5E       		popl	%esi
 815              		.cfi_restore 6
 816              		.cfi_def_cfa_offset 12
 817 0095 5F       		popl	%edi
 818              		.cfi_restore 7
GAS LISTING /tmp/ccFllOnf.s 			page 16


 819              		.cfi_def_cfa_offset 8
 820 0096 5D       		popl	%ebp
 821              		.cfi_restore 5
 822              		.cfi_def_cfa_offset 4
 823 0097 C3       		ret
 824              		.cfi_endproc
 825              	.LFE218:
 826              		.size	chRegFindThreadByName, .-chRegFindThreadByName
 827              		.section	.text.chRegFindThreadByPointer,"ax",@progbits
 828              		.p2align 4
 829              		.globl	chRegFindThreadByPointer
 830              		.type	chRegFindThreadByPointer, @function
 831              	chRegFindThreadByPointer:
 832              	.LVL43:
 833              	.LFB219:
 834              		.loc 1 297 50 is_stmt 1 view -0
 835              		.cfi_startproc
 836              		.loc 1 298 3 view .LVU271
 837              		.loc 1 301 3 view .LVU272
 838              	.LBB215:
 839              	.LBI215:
 840              		.loc 1 199 11 view .LVU273
 841              	.LBB216:
 842              		.loc 1 200 3 view .LVU274
 843              		.loc 1 201 3 view .LVU275
 844              		.loc 1 203 3 view .LVU276
 845              		.loc 1 204 3 view .LVU277
 846              	.LBE216:
 847              	.LBE215:
 848              		.loc 1 297 50 is_stmt 0 view .LVU278
 849 0000 55       		pushl	%ebp
 850              		.cfi_def_cfa_offset 8
 851              		.cfi_offset 5, -8
 852 0001 57       		pushl	%edi
 853              		.cfi_def_cfa_offset 12
 854              		.cfi_offset 7, -12
 855 0002 56       		pushl	%esi
 856              		.cfi_def_cfa_offset 16
 857              		.cfi_offset 6, -16
 858 0003 53       		pushl	%ebx
 859              		.cfi_def_cfa_offset 20
 860              		.cfi_offset 3, -20
 861 0004 E8FCFFFF 		call	__x86.get_pc_thunk.bx
 861      FF
 862 0009 81C30200 		addl	$_GLOBAL_OFFSET_TABLE_, %ebx
 862      0000
 863 000f 83EC0C   		subl	$12, %esp
 864              		.cfi_def_cfa_offset 32
 865              	.LBB226:
 866              	.LBB225:
 867              		.loc 1 204 5 view .LVU279
 868 0012 8B8B0000 		movl	ch0@GOT(%ebx), %ecx
 868      0000
 869              	.LBB217:
 870              	.LBB218:
 871              	.LBB219:
 872              	.LBB220:
GAS LISTING /tmp/ccFllOnf.s 			page 17


 873              		.loc 2 372 16 view .LVU280
 874 0018 8BB30000 		movl	port_irq_sts@GOT(%ebx), %esi
 874      0000
 875              	.LBE220:
 876              	.LBE219:
 877              	.LBE218:
 878              	.LBE217:
 879              		.loc 1 204 5 view .LVU281
 880 001e 8B4128   		movl	40(%ecx), %eax
 881              	.LVL44:
 882              		.loc 1 206 3 is_stmt 1 view .LVU282
 883              		.loc 1 209 11 is_stmt 0 view .LVU283
 884 0021 8040FA01 		addb	$1, -6(%eax)
 885              		.loc 1 206 6 view .LVU284
 886 0025 8D50DC   		leal	-36(%eax), %edx
 887              	.LVL45:
 888              		.loc 1 209 3 is_stmt 1 view .LVU285
 889              		.loc 1 211 3 view .LVU286
 890              	.LBB224:
 891              	.LBI217:
 892              		.loc 3 421 20 view .LVU287
 893              	.LBB223:
 894              		.loc 3 423 23 view .LVU288
 895              		.loc 3 424 34 view .LVU289
 896              		.loc 3 430 3 view .LVU290
 897              		.loc 3 430 3 view .LVU291
 898              		.loc 3 430 3 view .LVU292
 899              		.loc 3 434 3 view .LVU293
 900              	.LBB222:
 901              	.LBI219:
 902              		.loc 2 370 20 view .LVU294
 903              	.LBB221:
 904              		.loc 2 372 3 view .LVU295
 905              		.loc 2 372 16 is_stmt 0 view .LVU296
 906 0028 C7060000 		movl	$0, (%esi)
 906      0000
 907              	.LBE221:
 908              	.LBE222:
 909              	.LBE223:
 910              	.LBE224:
 911              		.loc 1 213 3 is_stmt 1 view .LVU297
 912              	.LVL46:
 913              		.loc 1 213 3 is_stmt 0 view .LVU298
 914              	.LBE225:
 915              	.LBE226:
 916              		.loc 1 302 3 is_stmt 1 view .LVU299
 917              		.loc 1 303 5 view .LVU300
 918              		.loc 1 303 8 is_stmt 0 view .LVU301
 919 002e 39542420 		cmpl	%edx, 32(%esp)
 920 0032 7452     		je	.L28
 921              	.LBB227:
 922              	.LBB228:
 923              		.loc 1 235 6 view .LVU302
 924 0034 8D6928   		leal	40(%ecx), %ebp
 925 0037 EB28     		jmp	.L27
 926              	.LVL47:
 927 0039 8DB42600 		.p2align 4,,10
GAS LISTING /tmp/ccFllOnf.s 			page 18


 927      000000
 928              		.p2align 3
 929              	.L26:
 930              	.LBB229:
 931              		.loc 1 239 5 is_stmt 1 view .LVU303
 932              		.loc 1 241 5 view .LVU304
 933              		.loc 1 247 14 is_stmt 0 view .LVU305
 934 0040 8040FA01 		addb	$1, -6(%eax)
 935              	.LBE229:
 936              		.loc 1 252 3 view .LVU306
 937 0044 83EC0C   		subl	$12, %esp
 938              		.cfi_def_cfa_offset 44
 939              	.LBB230:
 940              		.loc 1 241 9 view .LVU307
 941 0047 8D78DC   		leal	-36(%eax), %edi
 942              	.LVL48:
 943              		.loc 1 245 5 is_stmt 1 view .LVU308
 944              		.loc 1 245 5 view .LVU309
 945              		.loc 1 245 5 view .LVU310
 946              		.loc 1 247 5 view .LVU311
 947              		.loc 1 247 5 is_stmt 0 view .LVU312
 948              	.LBE230:
 949              		.loc 1 250 3 is_stmt 1 view .LVU313
 950              	.LBB231:
 951              	.LBI231:
 952              		.loc 3 421 20 view .LVU314
 953              	.LBB232:
 954              		.loc 3 423 23 view .LVU315
 955              		.loc 3 424 34 view .LVU316
 956              		.loc 3 430 3 view .LVU317
 957              		.loc 3 430 3 view .LVU318
 958              		.loc 3 430 3 view .LVU319
 959              		.loc 3 434 3 view .LVU320
 960              	.LBB233:
 961              	.LBI233:
 962              		.loc 2 370 20 view .LVU321
 963              	.LBB234:
 964              		.loc 2 372 3 view .LVU322
 965              	.LBE234:
 966              	.LBE233:
 967              	.LBE232:
 968              	.LBE231:
 969              		.loc 1 252 3 is_stmt 0 view .LVU323
 970 004a 52       		pushl	%edx
 971              		.cfi_def_cfa_offset 48
 972              	.LBB244:
 973              	.LBB241:
 974              	.LBB238:
 975              	.LBB235:
 976              		.loc 2 372 16 view .LVU324
 977 004b C7060000 		movl	$0, (%esi)
 977      0000
 978              	.LBE235:
 979              	.LBE238:
 980              	.LBE241:
 981              	.LBE244:
 982              		.loc 1 252 3 is_stmt 1 view .LVU325
GAS LISTING /tmp/ccFllOnf.s 			page 19


 983 0051 E8FCFFFF 		call	chThdRelease@PLT
 983      FF
 984              	.LVL49:
 985              		.loc 1 255 3 view .LVU326
 986              		.loc 1 255 3 is_stmt 0 view .LVU327
 987              	.LBE228:
 988              	.LBE227:
 989              		.loc 1 307 16 is_stmt 1 view .LVU328
 990              		.loc 1 302 3 view .LVU329
 991              		.loc 1 303 5 view .LVU330
 992              		.loc 1 303 8 is_stmt 0 view .LVU331
 993 0056 83C410   		addl	$16, %esp
 994              		.cfi_def_cfa_offset 32
 995 0059 397C2420 		cmpl	%edi, 32(%esp)
 996 005d 741D     		je	.L24
 997 005f 89FA     		movl	%edi, %edx
 998              	.LVL50:
 999              	.L27:
 1000              		.loc 1 306 5 is_stmt 1 view .LVU332
 1001              	.LBB250:
 1002              	.LBI227:
 1003              		.loc 1 227 11 view .LVU333
 1004              	.LBB247:
 1005              		.loc 1 228 3 view .LVU334
 1006              		.loc 1 229 3 view .LVU335
 1007              		.loc 1 231 3 view .LVU336
 1008              		.loc 1 234 3 view .LVU337
 1009              		.loc 1 234 7 is_stmt 0 view .LVU338
 1010 0061 8B4224   		movl	36(%edx), %eax
 1011              	.LVL51:
 1012              		.loc 1 235 3 is_stmt 1 view .LVU339
 1013              		.loc 1 235 6 is_stmt 0 view .LVU340
 1014 0064 39E8     		cmpl	%ebp, %eax
 1015 0066 75D8     		jne	.L26
 1016              	.LVL52:
 1017              		.loc 1 250 3 is_stmt 1 view .LVU341
 1018              	.LBB245:
 1019              		.loc 3 421 20 view .LVU342
 1020              	.LBB242:
 1021              		.loc 3 423 23 view .LVU343
 1022              		.loc 3 424 34 view .LVU344
 1023              		.loc 3 430 3 view .LVU345
 1024              		.loc 3 430 3 view .LVU346
 1025              		.loc 3 430 3 view .LVU347
 1026              		.loc 3 434 3 view .LVU348
 1027              	.LBB239:
 1028              		.loc 2 370 20 view .LVU349
 1029              	.LBB236:
 1030              		.loc 2 372 3 view .LVU350
 1031              	.LBE236:
 1032              	.LBE239:
 1033              	.LBE242:
 1034              	.LBE245:
 1035              		.loc 1 252 3 is_stmt 0 view .LVU351
 1036 0068 83EC0C   		subl	$12, %esp
 1037              		.cfi_def_cfa_offset 44
 1038              	.LBB246:
GAS LISTING /tmp/ccFllOnf.s 			page 20


 1039              	.LBB243:
 1040              	.LBB240:
 1041              	.LBB237:
 1042              		.loc 2 372 16 view .LVU352
 1043 006b C7060000 		movl	$0, (%esi)
 1043      0000
 1044              	.LBE237:
 1045              	.LBE240:
 1046              	.LBE243:
 1047              	.LBE246:
 1048              		.loc 1 252 3 is_stmt 1 view .LVU353
 1049              	.LBE247:
 1050              	.LBE250:
 1051              		.loc 1 309 10 is_stmt 0 view .LVU354
 1052 0071 31FF     		xorl	%edi, %edi
 1053              	.LBB251:
 1054              	.LBB248:
 1055              		.loc 1 252 3 view .LVU355
 1056 0073 52       		pushl	%edx
 1057              		.cfi_def_cfa_offset 48
 1058 0074 E8FCFFFF 		call	chThdRelease@PLT
 1058      FF
 1059              	.LVL53:
 1060              		.loc 1 255 3 is_stmt 1 view .LVU356
 1061              		.loc 1 255 3 is_stmt 0 view .LVU357
 1062              	.LBE248:
 1063              	.LBE251:
 1064              		.loc 1 307 16 is_stmt 1 view .LVU358
 1065              	.LBB252:
 1066              	.LBB249:
 1067              		.loc 1 252 3 is_stmt 0 view .LVU359
 1068 0079 83C410   		addl	$16, %esp
 1069              		.cfi_def_cfa_offset 32
 1070              	.LVL54:
 1071              	.L24:
 1072              		.loc 1 252 3 view .LVU360
 1073              	.LBE249:
 1074              	.LBE252:
 1075              		.loc 1 310 1 view .LVU361
 1076 007c 83C40C   		addl	$12, %esp
 1077              		.cfi_remember_state
 1078              		.cfi_def_cfa_offset 20
 1079 007f 89F8     		movl	%edi, %eax
 1080 0081 5B       		popl	%ebx
 1081              		.cfi_restore 3
 1082              		.cfi_def_cfa_offset 16
 1083 0082 5E       		popl	%esi
 1084              		.cfi_restore 6
 1085              		.cfi_def_cfa_offset 12
 1086 0083 5F       		popl	%edi
 1087              		.cfi_restore 7
 1088              		.cfi_def_cfa_offset 8
 1089 0084 5D       		popl	%ebp
 1090              		.cfi_restore 5
 1091              		.cfi_def_cfa_offset 4
 1092 0085 C3       		ret
 1093              	.LVL55:
GAS LISTING /tmp/ccFllOnf.s 			page 21


 1094              	.L28:
 1095              		.cfi_restore_state
 1096              		.loc 1 303 8 view .LVU362
 1097 0086 8B7C2420 		movl	32(%esp), %edi
 1098 008a EBF0     		jmp	.L24
 1099              		.cfi_endproc
 1100              	.LFE219:
 1101              		.size	chRegFindThreadByPointer, .-chRegFindThreadByPointer
 1102              		.section	.text.chRegFindThreadByWorkingArea,"ax",@progbits
 1103              		.p2align 4
 1104              		.globl	chRegFindThreadByWorkingArea
 1105              		.type	chRegFindThreadByWorkingArea, @function
 1106              	chRegFindThreadByWorkingArea:
 1107              	.LVL56:
 1108              	.LFB220:
 1109              		.loc 1 324 55 is_stmt 1 view -0
 1110              		.cfi_startproc
 1111              		.loc 1 325 3 view .LVU364
 1112              		.loc 1 328 3 view .LVU365
 1113              	.LBB268:
 1114              	.LBI268:
 1115              		.loc 1 199 11 view .LVU366
 1116              	.LBB269:
 1117              		.loc 1 200 3 view .LVU367
 1118              		.loc 1 201 3 view .LVU368
 1119              		.loc 1 203 3 view .LVU369
 1120              		.loc 1 204 3 view .LVU370
 1121              	.LBE269:
 1122              	.LBE268:
 1123              		.loc 1 324 55 is_stmt 0 view .LVU371
 1124 0000 55       		pushl	%ebp
 1125              		.cfi_def_cfa_offset 8
 1126              		.cfi_offset 5, -8
 1127 0001 57       		pushl	%edi
 1128              		.cfi_def_cfa_offset 12
 1129              		.cfi_offset 7, -12
 1130 0002 56       		pushl	%esi
 1131              		.cfi_def_cfa_offset 16
 1132              		.cfi_offset 6, -16
 1133 0003 53       		pushl	%ebx
 1134              		.cfi_def_cfa_offset 20
 1135              		.cfi_offset 3, -20
 1136 0004 E8FCFFFF 		call	__x86.get_pc_thunk.bx
 1136      FF
 1137 0009 81C30200 		addl	$_GLOBAL_OFFSET_TABLE_, %ebx
 1137      0000
 1138 000f 83EC1C   		subl	$28, %esp
 1139              		.cfi_def_cfa_offset 48
 1140              	.LBB284:
 1141              	.LBB282:
 1142              		.loc 1 204 5 view .LVU372
 1143 0012 8B8B0000 		movl	ch0@GOT(%ebx), %ecx
 1143      0000
 1144              	.LBB270:
 1145              	.LBB271:
 1146              	.LBB272:
 1147              	.LBB273:
GAS LISTING /tmp/ccFllOnf.s 			page 22


 1148              		.loc 2 372 16 view .LVU373
 1149 0018 8BB30000 		movl	port_irq_sts@GOT(%ebx), %esi
 1149      0000
 1150              	.LBE273:
 1151              	.LBE272:
 1152              	.LBE271:
 1153              	.LBE270:
 1154              		.loc 1 204 5 view .LVU374
 1155 001e 8B4128   		movl	40(%ecx), %eax
 1156              	.LVL57:
 1157              		.loc 1 206 3 is_stmt 1 view .LVU375
 1158              		.loc 1 209 11 is_stmt 0 view .LVU376
 1159 0021 8040FA01 		addb	$1, -6(%eax)
 1160              		.loc 1 206 6 view .LVU377
 1161 0025 8D50DC   		leal	-36(%eax), %edx
 1162              	.LVL58:
 1163              		.loc 1 209 3 is_stmt 1 view .LVU378
 1164              		.loc 1 211 3 view .LVU379
 1165              	.LBB280:
 1166              	.LBI270:
 1167              		.loc 3 421 20 view .LVU380
 1168              	.LBB278:
 1169              		.loc 3 423 23 view .LVU381
 1170              		.loc 3 424 34 view .LVU382
 1171              		.loc 3 430 3 view .LVU383
 1172              		.loc 3 430 3 view .LVU384
 1173              		.loc 3 430 3 view .LVU385
 1174              		.loc 3 434 3 view .LVU386
 1175              	.LBB276:
 1176              	.LBI272:
 1177              		.loc 2 370 20 view .LVU387
 1178              	.LBB274:
 1179              		.loc 2 372 3 view .LVU388
 1180              	.LBE274:
 1181              	.LBE276:
 1182              	.LBE278:
 1183              	.LBE280:
 1184              	.LBE282:
 1185              	.LBE284:
 1186              		.loc 1 330 8 is_stmt 0 view .LVU389
 1187 0028 8B40F0   		movl	-16(%eax), %eax
 1188              	.LVL59:
 1189              	.LBB285:
 1190              	.LBB283:
 1191              	.LBB281:
 1192              	.LBB279:
 1193              	.LBB277:
 1194              	.LBB275:
 1195              		.loc 2 372 16 view .LVU390
 1196 002b C7060000 		movl	$0, (%esi)
 1196      0000
 1197              	.LBE275:
 1198              	.LBE277:
 1199              	.LBE279:
 1200              	.LBE281:
 1201              		.loc 1 213 3 is_stmt 1 view .LVU391
 1202              	.LVL60:
GAS LISTING /tmp/ccFllOnf.s 			page 23


 1203              		.loc 1 213 3 is_stmt 0 view .LVU392
 1204              	.LBE283:
 1205              	.LBE285:
 1206              		.loc 1 329 3 is_stmt 1 view .LVU393
 1207              		.loc 1 330 5 view .LVU394
 1208              	.LBB286:
 1209              	.LBI286:
 1210              		.loc 4 570 26 view .LVU395
 1211              	.LBB287:
 1212              		.loc 4 572 3 view .LVU396
 1213              		.loc 4 572 3 is_stmt 0 view .LVU397
 1214              	.LBE287:
 1215              	.LBE286:
 1216              		.loc 1 330 8 view .LVU398
 1217 0031 39442430 		cmpl	%eax, 48(%esp)
 1218 0035 7454     		je	.L35
 1219              	.LBB289:
 1220              	.LBB290:
 1221              		.loc 1 235 6 view .LVU399
 1222 0037 8D4128   		leal	40(%ecx), %eax
 1223 003a 8944240C 		movl	%eax, 12(%esp)
 1224 003e EB24     		jmp	.L34
 1225              	.LVL61:
 1226              		.p2align 4,,10
 1227              		.p2align 3
 1228              	.L33:
 1229              	.LBB291:
 1230              		.loc 1 239 5 is_stmt 1 view .LVU400
 1231              		.loc 1 241 5 view .LVU401
 1232              		.loc 1 247 14 is_stmt 0 view .LVU402
 1233 0040 8047FA01 		addb	$1, -6(%edi)
 1234              	.LBE291:
 1235              		.loc 1 252 3 view .LVU403
 1236 0044 83EC0C   		subl	$12, %esp
 1237              		.cfi_def_cfa_offset 60
 1238              	.LBB292:
 1239              		.loc 1 241 9 view .LVU404
 1240 0047 8D6FDC   		leal	-36(%edi), %ebp
 1241              	.LVL62:
 1242              		.loc 1 245 5 is_stmt 1 view .LVU405
 1243              		.loc 1 245 5 view .LVU406
 1244              		.loc 1 245 5 view .LVU407
 1245              		.loc 1 247 5 view .LVU408
 1246              		.loc 1 247 5 is_stmt 0 view .LVU409
 1247              	.LBE292:
 1248              		.loc 1 250 3 is_stmt 1 view .LVU410
 1249              	.LBB293:
 1250              	.LBI293:
 1251              		.loc 3 421 20 view .LVU411
 1252              	.LBB294:
 1253              		.loc 3 423 23 view .LVU412
 1254              		.loc 3 424 34 view .LVU413
 1255              		.loc 3 430 3 view .LVU414
 1256              		.loc 3 430 3 view .LVU415
 1257              		.loc 3 430 3 view .LVU416
 1258              		.loc 3 434 3 view .LVU417
 1259              	.LBB295:
GAS LISTING /tmp/ccFllOnf.s 			page 24


 1260              	.LBI295:
 1261              		.loc 2 370 20 view .LVU418
 1262              	.LBB296:
 1263              		.loc 2 372 3 view .LVU419
 1264              	.LBE296:
 1265              	.LBE295:
 1266              	.LBE294:
 1267              	.LBE293:
 1268              		.loc 1 252 3 is_stmt 0 view .LVU420
 1269 004a 52       		pushl	%edx
 1270              		.cfi_def_cfa_offset 64
 1271              	.LBB306:
 1272              	.LBB303:
 1273              	.LBB300:
 1274              	.LBB297:
 1275              		.loc 2 372 16 view .LVU421
 1276 004b C7060000 		movl	$0, (%esi)
 1276      0000
 1277              	.LBE297:
 1278              	.LBE300:
 1279              	.LBE303:
 1280              	.LBE306:
 1281              		.loc 1 252 3 is_stmt 1 view .LVU422
 1282 0051 E8FCFFFF 		call	chThdRelease@PLT
 1282      FF
 1283              	.LVL63:
 1284              		.loc 1 255 3 view .LVU423
 1285              		.loc 1 255 3 is_stmt 0 view .LVU424
 1286              	.LBE290:
 1287              	.LBE289:
 1288              		.loc 1 334 16 is_stmt 1 view .LVU425
 1289              		.loc 1 329 3 view .LVU426
 1290              		.loc 1 330 5 view .LVU427
 1291              	.LBB314:
 1292              		.loc 4 570 26 view .LVU428
 1293              	.LBB288:
 1294              		.loc 4 572 3 view .LVU429
 1295              		.loc 4 572 3 is_stmt 0 view .LVU430
 1296              	.LBE288:
 1297              	.LBE314:
 1298              		.loc 1 330 8 view .LVU431
 1299 0056 83C410   		addl	$16, %esp
 1300              		.cfi_def_cfa_offset 48
 1301 0059 8B47F0   		movl	-16(%edi), %eax
 1302 005c 39442430 		cmpl	%eax, 48(%esp)
 1303 0060 741F     		je	.L31
 1304              	.LBB315:
 1305              	.LBB310:
 1306              	.LBB307:
 1307              		.loc 1 241 9 view .LVU432
 1308 0062 89EA     		movl	%ebp, %edx
 1309              	.LVL64:
 1310              	.L34:
 1311              		.loc 1 241 9 view .LVU433
 1312              	.LBE307:
 1313              	.LBE310:
 1314              	.LBE315:
GAS LISTING /tmp/ccFllOnf.s 			page 25


 1315              		.loc 1 333 5 is_stmt 1 view .LVU434
 1316              	.LBB316:
 1317              	.LBI289:
 1318              		.loc 1 227 11 view .LVU435
 1319              	.LBB311:
 1320              		.loc 1 228 3 view .LVU436
 1321              		.loc 1 229 3 view .LVU437
 1322              		.loc 1 231 3 view .LVU438
 1323              		.loc 1 234 3 view .LVU439
 1324              		.loc 1 234 7 is_stmt 0 view .LVU440
 1325 0064 8B7A24   		movl	36(%edx), %edi
 1326              	.LVL65:
 1327              		.loc 1 235 3 is_stmt 1 view .LVU441
 1328              		.loc 1 235 6 is_stmt 0 view .LVU442
 1329 0067 3B7C240C 		cmpl	12(%esp), %edi
 1330 006b 75D3     		jne	.L33
 1331              	.LVL66:
 1332              		.loc 1 250 3 is_stmt 1 view .LVU443
 1333              	.LBB308:
 1334              		.loc 3 421 20 view .LVU444
 1335              	.LBB304:
 1336              		.loc 3 423 23 view .LVU445
 1337              		.loc 3 424 34 view .LVU446
 1338              		.loc 3 430 3 view .LVU447
 1339              		.loc 3 430 3 view .LVU448
 1340              		.loc 3 430 3 view .LVU449
 1341              		.loc 3 434 3 view .LVU450
 1342              	.LBB301:
 1343              		.loc 2 370 20 view .LVU451
 1344              	.LBB298:
 1345              		.loc 2 372 3 view .LVU452
 1346              	.LBE298:
 1347              	.LBE301:
 1348              	.LBE304:
 1349              	.LBE308:
 1350              		.loc 1 252 3 is_stmt 0 view .LVU453
 1351 006d 83EC0C   		subl	$12, %esp
 1352              		.cfi_def_cfa_offset 60
 1353              	.LBB309:
 1354              	.LBB305:
 1355              	.LBB302:
 1356              	.LBB299:
 1357              		.loc 2 372 16 view .LVU454
 1358 0070 C7060000 		movl	$0, (%esi)
 1358      0000
 1359              	.LBE299:
 1360              	.LBE302:
 1361              	.LBE305:
 1362              	.LBE309:
 1363              		.loc 1 252 3 is_stmt 1 view .LVU455
 1364              	.LBE311:
 1365              	.LBE316:
 1366              		.loc 1 336 10 is_stmt 0 view .LVU456
 1367 0076 31ED     		xorl	%ebp, %ebp
 1368              	.LBB317:
 1369              	.LBB312:
 1370              		.loc 1 252 3 view .LVU457
GAS LISTING /tmp/ccFllOnf.s 			page 26


 1371 0078 52       		pushl	%edx
 1372              		.cfi_def_cfa_offset 64
 1373 0079 E8FCFFFF 		call	chThdRelease@PLT
 1373      FF
 1374              	.LVL67:
 1375              		.loc 1 255 3 is_stmt 1 view .LVU458
 1376              		.loc 1 255 3 is_stmt 0 view .LVU459
 1377              	.LBE312:
 1378              	.LBE317:
 1379              		.loc 1 334 16 is_stmt 1 view .LVU460
 1380              	.LBB318:
 1381              	.LBB313:
 1382              		.loc 1 252 3 is_stmt 0 view .LVU461
 1383 007e 83C410   		addl	$16, %esp
 1384              		.cfi_def_cfa_offset 48
 1385              	.LVL68:
 1386              	.L31:
 1387              		.loc 1 252 3 view .LVU462
 1388              	.LBE313:
 1389              	.LBE318:
 1390              		.loc 1 337 1 view .LVU463
 1391 0081 83C41C   		addl	$28, %esp
 1392              		.cfi_remember_state
 1393              		.cfi_def_cfa_offset 20
 1394 0084 89E8     		movl	%ebp, %eax
 1395 0086 5B       		popl	%ebx
 1396              		.cfi_restore 3
 1397              		.cfi_def_cfa_offset 16
 1398 0087 5E       		popl	%esi
 1399              		.cfi_restore 6
 1400              		.cfi_def_cfa_offset 12
 1401 0088 5F       		popl	%edi
 1402              		.cfi_restore 7
 1403              		.cfi_def_cfa_offset 8
 1404 0089 5D       		popl	%ebp
 1405              		.cfi_restore 5
 1406              		.cfi_def_cfa_offset 4
 1407 008a C3       		ret
 1408              	.LVL69:
 1409              	.L35:
 1410              		.cfi_restore_state
 1411              		.loc 1 328 9 view .LVU464
 1412 008b 89D5     		movl	%edx, %ebp
 1413 008d EBF2     		jmp	.L31
 1414              		.cfi_endproc
 1415              	.LFE220:
 1416              		.size	chRegFindThreadByWorkingArea, .-chRegFindThreadByWorkingArea
 1417              		.globl	ch_debug
 1418              		.section	.rodata.ch_debug,"a"
 1419              		.align 32
 1420              		.type	ch_debug, @object
 1421              		.size	ch_debug, 44
 1422              	ch_debug:
 1423 0000 6D61696E 		.ascii	"main"
 1424 0004 00       		.byte	0
 1425 0005 2C       		.byte	44
 1426 0006 0040     		.value	16384
GAS LISTING /tmp/ccFllOnf.s 			page 27


 1427 0008 04       		.byte	4
 1428 0009 04       		.byte	4
 1429 000a 50       		.byte	80
 1430 000b 08       		.byte	8
 1431 000c 0C       		.byte	12
 1432 000d 24       		.byte	36
 1433 000e 28       		.byte	40
 1434 000f 20       		.byte	32
 1435 0010 14       		.byte	20
 1436 0011 1C       		.byte	28
 1437 0012 1D       		.byte	29
 1438 0013 1E       		.byte	30
 1439 0014 00       		.byte	0
 1440 0015 00       		.byte	0
 1441 0016 00       		.string	""
 1442 0017 00       		.string	""
 1443 0018 00       		.string	""
 1444 0019 00       		.string	""
 1445 001a 14       		.byte	20
 1446 001b 04       		.byte	4
 1447 001c 01       		.byte	1
 1448 001d 00       		.byte	0
 1449 001e 04       		.byte	4
 1450 001f 00       		.byte	0
 1451 0020 00       		.byte	0
 1452 0021 00       		.string	""
 1453 0022 00       		.string	""
 1454 0023 00       		.string	""
 1455 0024 00       		.string	""
 1456 0025 0C       		.byte	12
 1457 0026 00       		.byte	0
 1458 0027 10       		.byte	16
 1459 0028 28       		.byte	40
 1460 0029 30       		.byte	48
 1461 002a 34       		.byte	52
 1462 002b 00       		.zero	1
 1463              		.section	.text.__x86.get_pc_thunk.dx,"axG",@progbits,__x86.get_pc_thunk.dx,comdat
 1464              		.globl	__x86.get_pc_thunk.dx
 1465              		.hidden	__x86.get_pc_thunk.dx
 1466              		.type	__x86.get_pc_thunk.dx, @function
 1467              	__x86.get_pc_thunk.dx:
 1468              	.LFB222:
 1469              		.cfi_startproc
 1470 0000 8B1424   		movl	(%esp), %edx
 1471 0003 C3       		ret
 1472              		.cfi_endproc
 1473              	.LFE222:
 1474              		.section	.text.__x86.get_pc_thunk.bx,"axG",@progbits,__x86.get_pc_thunk.bx,comdat
 1475              		.globl	__x86.get_pc_thunk.bx
 1476              		.hidden	__x86.get_pc_thunk.bx
 1477              		.type	__x86.get_pc_thunk.bx, @function
 1478              	__x86.get_pc_thunk.bx:
 1479              	.LFB223:
 1480              		.cfi_startproc
 1481 0000 8B1C24   		movl	(%esp), %ebx
 1482 0003 C3       		ret
 1483              		.cfi_endproc
GAS LISTING /tmp/ccFllOnf.s 			page 28


 1484              	.LFE223:
 1485              		.text
 1486              	.Letext0:
 1487              		.file 6 "/usr/lib/gcc/x86_64-linux-gnu/11/include/stddef.h"
 1488              		.file 7 "/usr/include/bits/types.h"
 1489              		.file 8 "/usr/include/bits/stdint-intn.h"
 1490              		.file 9 "/usr/include/bits/stdint-uintn.h"
 1491              		.file 10 "../../../os/common/ports/SIMIA32/compilers/GCC/chtypes.h"
 1492              		.file 11 "../../../os/rt/include/chearly.h"
 1493              		.file 12 "../../../os/rt/include/chobjects.h"
 1494              		.file 13 "../../../os/rt/include/chrfcu.h"
 1495              		.file 14 "../../../os/rt/include/chdebug.h"
 1496              		.file 15 "../../../os/rt/include/chtime.h"
 1497              		.file 16 "../../../os/rt/include/chlists.h"
 1498              		.file 17 "../../../os/rt/include/chtm.h"
 1499              		.file 18 "../../../os/rt/include/chsem.h"
 1500              		.file 19 "../../../os/rt/include/chmtx.h"
 1501              		.file 20 "/usr/include/string.h"
 6180 0046 2F686F6D 		.section	.note.GNU-stack,"",@progbits
 6180      652F616C 
 6180      65782F43 
 6180      68696269 
 6180      4F532F64 
GAS LISTING /tmp/ccFllOnf.s 			page 118

