GAS LISTING /tmp/ccxHj4RT.s 			page 1


   1              		.file	"chvt.c"
   2              		.text
   3              	.Ltext0:
   4              		.file 0 "/home/alex/ChibiOS/demos/various/LAB1" "../../../os/rt/src/chvt.c"
   5              		.section	.text.chVTObjectInit,"ax",@progbits
   6              		.p2align 4
   7              		.globl	chVTObjectInit
   8              		.type	chVTObjectInit, @function
   9              	chVTObjectInit:
  10              	.LVL0:
  11              	.LFB216:
  12              		.file 1 "../../../os/rt/src/chvt.c"
  13              		.loc 1 280 43 view -0
  14              		.cfi_startproc
  15              		.loc 1 282 3 view .LVU1
  16              		.loc 1 282 19 is_stmt 0 view .LVU2
  17 0000 8B442404 		movl	4(%esp), %eax
  18 0004 C7000000 		movl	$0, (%eax)
  18      0000
  19              		.loc 1 283 1 view .LVU3
  20 000a C3       		ret
  21              		.cfi_endproc
  22              	.LFE216:
  23              		.size	chVTObjectInit, .-chVTObjectInit
  24              		.section	.text.chVTObjectDispose,"ax",@progbits
  25              		.p2align 4
  26              		.globl	chVTObjectDispose
  27              		.type	chVTObjectDispose, @function
  28              	chVTObjectDispose:
  29              	.LVL1:
  30              	.LFB217:
  31              		.loc 1 300 46 is_stmt 1 view -0
  32              		.cfi_startproc
  33              		.loc 1 302 3 view .LVU5
  34              		.loc 1 302 3 view .LVU6
  35              		.loc 1 302 3 view .LVU7
  36              		.loc 1 303 3 view .LVU8
  37              		.loc 1 303 3 view .LVU9
  38              		.loc 1 303 3 view .LVU10
  39              		.loc 1 308 1 is_stmt 0 view .LVU11
  40 0000 C3       		ret
  41              		.cfi_endproc
  42              	.LFE217:
  43              		.size	chVTObjectDispose, .-chVTObjectDispose
  44              		.section	.text.chVTDoSetI,"ax",@progbits
  45              		.p2align 4
  46              		.globl	chVTDoSetI
  47              		.type	chVTDoSetI, @function
  48              	chVTDoSetI:
  49              	.LVL2:
  50              	.LFB218:
  51              		.loc 1 332 45 is_stmt 1 view -0
  52              		.cfi_startproc
  53              		.loc 1 333 3 view .LVU13
  54              		.loc 1 335 21 view .LVU14
  55              		.loc 1 336 3 view .LVU15
  56              		.loc 1 336 3 view .LVU16
GAS LISTING /tmp/ccxHj4RT.s 			page 2


  57              		.loc 1 336 3 view .LVU17
  58              		.loc 1 339 3 view .LVU18
  59 0000 E8FCFFFF 		call	__x86.get_pc_thunk.ax
  59      FF
  60 0005 05010000 		addl	$_GLOBAL_OFFSET_TABLE_, %eax
  60      00
  61              		.loc 1 332 45 is_stmt 0 view .LVU19
  62 000a 56       		pushl	%esi
  63              		.cfi_def_cfa_offset 8
  64              		.cfi_offset 6, -8
  65 000b 53       		pushl	%ebx
  66              		.cfi_def_cfa_offset 12
  67              		.cfi_offset 3, -12
  68              		.loc 1 332 45 view .LVU20
  69 000c 8B5C240C 		movl	12(%esp), %ebx
  70              		.loc 1 339 16 view .LVU21
  71 0010 8B4C2418 		movl	24(%esp), %ecx
  72              		.loc 1 332 45 view .LVU22
  73 0014 8B542410 		movl	16(%esp), %edx
  74              		.loc 1 341 16 view .LVU23
  75 0018 C7431400 		movl	$0, 20(%ebx)
  75      000000
  76              		.loc 1 339 16 view .LVU24
  77 001f 894B10   		movl	%ecx, 16(%ebx)
  78              		.loc 1 340 3 is_stmt 1 view .LVU25
  79              		.loc 1 340 16 is_stmt 0 view .LVU26
  80 0022 8B4C2414 		movl	20(%esp), %ecx
  81              	.LBB41:
  82              	.LBB42:
  83              	.LBB43:
  84              	.LBB44:
  85              		.file 2 "../../../os/rt/include/chlists.h"
  86              		.loc 2 603 7 view .LVU27
  87 0026 8BB00000 		movl	ch0@GOT(%eax), %esi
  87      0000
  88              	.LBE44:
  89              	.LBE43:
  90              	.LBE42:
  91              	.LBE41:
  92              		.loc 1 340 16 view .LVU28
  93 002c 894B0C   		movl	%ecx, 12(%ebx)
  94              		.loc 1 341 3 is_stmt 1 view .LVU29
  95              		.loc 1 344 3 view .LVU30
  96              	.LVL3:
  97              	.LBB55:
  98              	.LBI41:
  99              		.loc 1 219 13 view .LVU31
 100              	.LBB53:
 101              		.loc 1 222 3 view .LVU32
 102              		.loc 1 259 3 view .LVU33
 103              		.loc 1 262 3 view .LVU34
 104              	.LBB51:
 105              	.LBI43:
 106              		.loc 2 596 20 view .LVU35
 107              	.LBB49:
 108              		.loc 2 599 3 view .LVU36
 109              		.loc 2 603 3 view .LVU37
GAS LISTING /tmp/ccxHj4RT.s 			page 3


 110              		.loc 2 603 7 is_stmt 0 view .LVU38
 111 002f 8B4610   		movl	16(%esi), %eax
 112              	.LVL4:
 113              		.loc 2 604 3 is_stmt 1 view .LVU39
 114              		.loc 2 604 10 view .LVU40
 115 0032 8B4808   		movl	8(%eax), %ecx
 116 0035 39CA     		cmpl	%ecx, %edx
 117 0037 7612     		jbe	.L5
 118              	.LVL5:
 119 0039 8DB42600 		.p2align 4,,10
 119      000000
 120              		.p2align 3
 121              	.L6:
 122              		.loc 2 606 5 view .LVU41
 123              		.loc 2 606 5 view .LVU42
 124              		.loc 2 606 5 view .LVU43
 125              		.loc 2 608 5 view .LVU44
 126              		.loc 2 609 9 is_stmt 0 view .LVU45
 127 0040 8B00     		movl	(%eax), %eax
 128              	.LVL6:
 129              		.loc 2 608 11 view .LVU46
 130 0042 29CA     		subl	%ecx, %edx
 131              	.LVL7:
 132              		.loc 2 609 5 is_stmt 1 view .LVU47
 133              		.loc 2 604 10 view .LVU48
 134 0044 8B4808   		movl	8(%eax), %ecx
 135 0047 39D1     		cmpl	%edx, %ecx
 136 0049 72F5     		jb	.L6
 137              	.L5:
 138              		.loc 2 613 3 view .LVU49
 139              	.LVL8:
 140              	.LBB45:
 141              	.LBI45:
 142              		.loc 2 576 20 view .LVU50
 143              	.LBB46:
 144              		.loc 2 580 3 view .LVU51
 145              		.loc 2 582 30 is_stmt 0 view .LVU52
 146 004b 8B4804   		movl	4(%eax), %ecx
 147              		.loc 2 580 19 view .LVU53
 148 004e 895308   		movl	%edx, 8(%ebx)
 149              		.loc 2 581 3 is_stmt 1 view .LVU54
 150              		.loc 2 581 19 is_stmt 0 view .LVU55
 151 0051 8903     		movl	%eax, (%ebx)
 152              		.loc 2 582 3 is_stmt 1 view .LVU56
 153              		.loc 2 582 19 is_stmt 0 view .LVU57
 154 0053 894B04   		movl	%ecx, 4(%ebx)
 155              		.loc 2 583 3 is_stmt 1 view .LVU58
 156              		.loc 2 583 19 is_stmt 0 view .LVU59
 157 0056 8919     		movl	%ebx, (%ecx)
 158              		.loc 2 584 3 is_stmt 1 view .LVU60
 159              	.LBE46:
 160              	.LBE45:
 161              		.loc 2 616 14 is_stmt 0 view .LVU61
 162 0058 295008   		subl	%edx, 8(%eax)
 163              	.LBB48:
 164              	.LBB47:
 165              		.loc 2 584 19 view .LVU62
GAS LISTING /tmp/ccxHj4RT.s 			page 4


 166 005b 895804   		movl	%ebx, 4(%eax)
 167              	.LVL9:
 168              		.loc 2 584 19 view .LVU63
 169              	.LBE47:
 170              	.LBE48:
 171              		.loc 2 616 3 is_stmt 1 view .LVU64
 172              		.loc 2 621 3 view .LVU65
 173              	.LBE49:
 174              	.LBE51:
 175              	.LBE53:
 176              	.LBE55:
 177              		.loc 1 345 1 is_stmt 0 view .LVU66
 178 005e 5B       		popl	%ebx
 179              		.cfi_restore 3
 180              		.cfi_def_cfa_offset 8
 181              	.LBB56:
 182              	.LBB54:
 183              	.LBB52:
 184              	.LBB50:
 185              		.loc 2 621 15 view .LVU67
 186 005f C74618FF 		movl	$-1, 24(%esi)
 186      FFFFFF
 187              	.LVL10:
 188              		.loc 2 621 15 view .LVU68
 189              	.LBE50:
 190              	.LBE52:
 191              	.LBE54:
 192              	.LBE56:
 193              		.loc 1 345 1 view .LVU69
 194 0066 5E       		popl	%esi
 195              		.cfi_restore 6
 196              		.cfi_def_cfa_offset 4
 197 0067 C3       		ret
 198              		.cfi_endproc
 199              	.LFE218:
 200              		.size	chVTDoSetI, .-chVTDoSetI
 201              		.section	.text.chVTDoSetContinuousI,"ax",@progbits
 202              		.p2align 4
 203              		.globl	chVTDoSetContinuousI
 204              		.type	chVTDoSetContinuousI, @function
 205              	chVTDoSetContinuousI:
 206              	.LVL11:
 207              	.LFB219:
 208              		.loc 1 368 55 is_stmt 1 view -0
 209              		.cfi_startproc
 210              		.loc 1 369 3 view .LVU71
 211              		.loc 1 371 21 view .LVU72
 212              		.loc 1 372 3 view .LVU73
 213              		.loc 1 372 3 view .LVU74
 214              		.loc 1 372 3 view .LVU75
 215              		.loc 1 375 3 view .LVU76
 216 0000 E8FCFFFF 		call	__x86.get_pc_thunk.ax
 216      FF
 217 0005 05010000 		addl	$_GLOBAL_OFFSET_TABLE_, %eax
 217      00
 218              		.loc 1 368 55 is_stmt 0 view .LVU77
 219 000a 56       		pushl	%esi
GAS LISTING /tmp/ccxHj4RT.s 			page 5


 220              		.cfi_def_cfa_offset 8
 221              		.cfi_offset 6, -8
 222 000b 53       		pushl	%ebx
 223              		.cfi_def_cfa_offset 12
 224              		.cfi_offset 3, -12
 225              		.loc 1 368 55 view .LVU78
 226 000c 8B5C240C 		movl	12(%esp), %ebx
 227              		.loc 1 375 16 view .LVU79
 228 0010 8B4C2418 		movl	24(%esp), %ecx
 229              		.loc 1 368 55 view .LVU80
 230 0014 8B542410 		movl	16(%esp), %edx
 231              		.loc 1 375 16 view .LVU81
 232 0018 894B10   		movl	%ecx, 16(%ebx)
 233              		.loc 1 376 3 is_stmt 1 view .LVU82
 234              		.loc 1 376 16 is_stmt 0 view .LVU83
 235 001b 8B4C2414 		movl	20(%esp), %ecx
 236              		.loc 1 377 16 view .LVU84
 237 001f 895314   		movl	%edx, 20(%ebx)
 238              	.LBB63:
 239              	.LBB64:
 240              	.LBB65:
 241              	.LBB66:
 242              		.loc 2 603 7 view .LVU85
 243 0022 8BB00000 		movl	ch0@GOT(%eax), %esi
 243      0000
 244              	.LBE66:
 245              	.LBE65:
 246              	.LBE64:
 247              	.LBE63:
 248              		.loc 1 376 16 view .LVU86
 249 0028 894B0C   		movl	%ecx, 12(%ebx)
 250              		.loc 1 377 3 is_stmt 1 view .LVU87
 251              		.loc 1 380 3 view .LVU88
 252              	.LVL12:
 253              	.LBB77:
 254              	.LBI63:
 255              		.loc 1 219 13 view .LVU89
 256              	.LBB75:
 257              		.loc 1 222 3 view .LVU90
 258              		.loc 1 259 3 view .LVU91
 259              		.loc 1 262 3 view .LVU92
 260              	.LBB73:
 261              	.LBI65:
 262              		.loc 2 596 20 view .LVU93
 263              	.LBB71:
 264              		.loc 2 599 3 view .LVU94
 265              		.loc 2 603 3 view .LVU95
 266              		.loc 2 603 7 is_stmt 0 view .LVU96
 267 002b 8B4610   		movl	16(%esi), %eax
 268              	.LVL13:
 269              		.loc 2 604 3 is_stmt 1 view .LVU97
 270              		.loc 2 604 10 view .LVU98
 271 002e 8B4808   		movl	8(%eax), %ecx
 272 0031 39CA     		cmpl	%ecx, %edx
 273 0033 760E     		jbe	.L10
 274              	.LVL14:
 275              		.p2align 4,,10
GAS LISTING /tmp/ccxHj4RT.s 			page 6


 276 0035 8D7600   		.p2align 3
 277              	.L11:
 278              		.loc 2 606 5 view .LVU99
 279              		.loc 2 606 5 view .LVU100
 280              		.loc 2 606 5 view .LVU101
 281              		.loc 2 608 5 view .LVU102
 282              		.loc 2 609 9 is_stmt 0 view .LVU103
 283 0038 8B00     		movl	(%eax), %eax
 284              	.LVL15:
 285              		.loc 2 608 11 view .LVU104
 286 003a 29CA     		subl	%ecx, %edx
 287              	.LVL16:
 288              		.loc 2 609 5 is_stmt 1 view .LVU105
 289              		.loc 2 604 10 view .LVU106
 290 003c 8B4808   		movl	8(%eax), %ecx
 291 003f 39D1     		cmpl	%edx, %ecx
 292 0041 72F5     		jb	.L11
 293              	.L10:
 294              		.loc 2 613 3 view .LVU107
 295              	.LVL17:
 296              	.LBB67:
 297              	.LBI67:
 298              		.loc 2 576 20 view .LVU108
 299              	.LBB68:
 300              		.loc 2 580 3 view .LVU109
 301              		.loc 2 582 30 is_stmt 0 view .LVU110
 302 0043 8B4804   		movl	4(%eax), %ecx
 303              		.loc 2 580 19 view .LVU111
 304 0046 895308   		movl	%edx, 8(%ebx)
 305              		.loc 2 581 3 is_stmt 1 view .LVU112
 306              		.loc 2 581 19 is_stmt 0 view .LVU113
 307 0049 8903     		movl	%eax, (%ebx)
 308              		.loc 2 582 3 is_stmt 1 view .LVU114
 309              		.loc 2 582 19 is_stmt 0 view .LVU115
 310 004b 894B04   		movl	%ecx, 4(%ebx)
 311              		.loc 2 583 3 is_stmt 1 view .LVU116
 312              		.loc 2 583 19 is_stmt 0 view .LVU117
 313 004e 8919     		movl	%ebx, (%ecx)
 314              		.loc 2 584 3 is_stmt 1 view .LVU118
 315              	.LBE68:
 316              	.LBE67:
 317              		.loc 2 616 14 is_stmt 0 view .LVU119
 318 0050 295008   		subl	%edx, 8(%eax)
 319              	.LBB70:
 320              	.LBB69:
 321              		.loc 2 584 19 view .LVU120
 322 0053 895804   		movl	%ebx, 4(%eax)
 323              	.LVL18:
 324              		.loc 2 584 19 view .LVU121
 325              	.LBE69:
 326              	.LBE70:
 327              		.loc 2 616 3 is_stmt 1 view .LVU122
 328              		.loc 2 621 3 view .LVU123
 329              	.LBE71:
 330              	.LBE73:
 331              	.LBE75:
 332              	.LBE77:
GAS LISTING /tmp/ccxHj4RT.s 			page 7


 333              		.loc 1 381 1 is_stmt 0 view .LVU124
 334 0056 5B       		popl	%ebx
 335              		.cfi_restore 3
 336              		.cfi_def_cfa_offset 8
 337              	.LBB78:
 338              	.LBB76:
 339              	.LBB74:
 340              	.LBB72:
 341              		.loc 2 621 15 view .LVU125
 342 0057 C74618FF 		movl	$-1, 24(%esi)
 342      FFFFFF
 343              	.LVL19:
 344              		.loc 2 621 15 view .LVU126
 345              	.LBE72:
 346              	.LBE74:
 347              	.LBE76:
 348              	.LBE78:
 349              		.loc 1 381 1 view .LVU127
 350 005e 5E       		popl	%esi
 351              		.cfi_restore 6
 352              		.cfi_def_cfa_offset 4
 353 005f C3       		ret
 354              		.cfi_endproc
 355              	.LFE219:
 356              		.size	chVTDoSetContinuousI, .-chVTDoSetContinuousI
 357              		.section	.text.chVTDoResetI,"ax",@progbits
 358              		.p2align 4
 359              		.globl	chVTDoResetI
 360              		.type	chVTDoResetI, @function
 361              	chVTDoResetI:
 362              	.LVL20:
 363              	.LFB220:
 364              		.loc 1 391 41 is_stmt 1 view -0
 365              		.cfi_startproc
 366              		.loc 1 392 3 view .LVU129
 367              		.loc 1 394 21 view .LVU130
 368              		.loc 1 395 3 view .LVU131
 369              		.loc 1 395 3 view .LVU132
 370              		.loc 1 395 3 view .LVU133
 371              		.loc 1 396 3 view .LVU134
 372              		.loc 1 396 3 view .LVU135
 373              		.loc 1 396 3 view .LVU136
 374              		.loc 1 401 3 view .LVU137
 375              		.loc 1 391 41 is_stmt 0 view .LVU138
 376 0000 53       		pushl	%ebx
 377              		.cfi_def_cfa_offset 8
 378              		.cfi_offset 3, -8
 379              		.loc 1 391 41 view .LVU139
 380 0001 8B442408 		movl	8(%esp), %eax
 381 0005 E8FCFFFF 		call	__x86.get_pc_thunk.bx
 381      FF
 382 000a 81C30200 		addl	$_GLOBAL_OFFSET_TABLE_, %ebx
 382      0000
 383              		.loc 1 401 13 view .LVU140
 384 0010 8B10     		movl	(%eax), %edx
 385              		.loc 1 401 26 view .LVU141
 386 0012 8B4808   		movl	8(%eax), %ecx
GAS LISTING /tmp/ccxHj4RT.s 			page 8


 387 0015 014A08   		addl	%ecx, 8(%edx)
 388              		.loc 1 404 3 is_stmt 1 view .LVU142
 389              	.LVL21:
 390              	.LBB79:
 391              	.LBI79:
 392              		.loc 2 647 32 view .LVU143
 393              	.LBB80:
 394              		.loc 2 649 3 view .LVU144
 395              		.loc 2 649 6 is_stmt 0 view .LVU145
 396 0018 8B4804   		movl	4(%eax), %ecx
 397              		.loc 2 649 19 view .LVU146
 398 001b 8911     		movl	%edx, (%ecx)
 399              		.loc 2 650 3 is_stmt 1 view .LVU147
 400              		.loc 2 650 19 is_stmt 0 view .LVU148
 401 001d 894A04   		movl	%ecx, 4(%edx)
 402              		.loc 2 652 3 is_stmt 1 view .LVU149
 403              	.LVL22:
 404              		.loc 2 652 3 is_stmt 0 view .LVU150
 405              	.LBE80:
 406              	.LBE79:
 407              		.loc 1 405 3 is_stmt 1 view .LVU151
 408              		.loc 1 405 19 is_stmt 0 view .LVU152
 409 0020 C7000000 		movl	$0, (%eax)
 409      0000
 410              		.loc 1 409 3 is_stmt 1 view .LVU153
 411              		.loc 1 409 21 is_stmt 0 view .LVU154
 412 0026 8B830000 		movl	ch0@GOT(%ebx), %eax
 412      0000
 413 002c C74018FF 		movl	$-1, 24(%eax)
 413      FFFFFF
 414              		.loc 1 466 1 view .LVU155
 415 0033 5B       		popl	%ebx
 416              		.cfi_restore 3
 417              		.cfi_def_cfa_offset 4
 418 0034 C3       		ret
 419              		.cfi_endproc
 420              	.LFE220:
 421              		.size	chVTDoResetI, .-chVTDoResetI
 422              		.section	.text.chVTGetRemainingIntervalI,"ax",@progbits
 423              		.p2align 4
 424              		.globl	chVTGetRemainingIntervalI
 425              		.type	chVTGetRemainingIntervalI, @function
 426              	chVTGetRemainingIntervalI:
 427              	.LVL23:
 428              	.LFB221:
 429              		.loc 1 477 63 is_stmt 1 view -0
 430              		.cfi_startproc
 431              		.loc 1 478 3 view .LVU157
 432              		.loc 1 479 3 view .LVU158
 433              		.loc 1 480 3 view .LVU159
 434              		.loc 1 482 21 view .LVU160
 435              		.loc 1 484 3 view .LVU161
 436              		.loc 1 485 3 view .LVU162
 437 0000 E8FCFFFF 		call	__x86.get_pc_thunk.ax
 437      FF
 438 0005 05010000 		addl	$_GLOBAL_OFFSET_TABLE_, %eax
 438      00
GAS LISTING /tmp/ccxHj4RT.s 			page 9


 439              		.loc 1 477 63 is_stmt 0 view .LVU163
 440 000a 53       		pushl	%ebx
 441              		.cfi_def_cfa_offset 8
 442              		.cfi_offset 3, -8
 443              		.loc 1 484 9 view .LVU164
 444 000b 31D2     		xorl	%edx, %edx
 445              		.loc 1 477 63 view .LVU165
 446 000d 8B4C2408 		movl	8(%esp), %ecx
 447              		.loc 1 485 7 view .LVU166
 448 0011 8B980000 		movl	ch0@GOT(%eax), %ebx
 448      0000
 449 0017 8B4310   		movl	16(%ebx), %eax
 450              	.LVL24:
 451              		.loc 1 501 16 view .LVU167
 452 001a 83C310   		addl	$16, %ebx
 453 001d EB07     		jmp	.L18
 454              	.LVL25:
 455 001f 90       		.p2align 4,,10
 456              		.p2align 3
 457              	.L22:
 458              		.loc 1 500 5 is_stmt 1 view .LVU168
 459              		.loc 1 500 9 is_stmt 0 view .LVU169
 460 0020 8B00     		movl	(%eax), %eax
 461              	.LVL26:
 462              		.loc 1 501 16 is_stmt 1 view .LVU170
 463 0022 39D8     		cmpl	%ebx, %eax
 464 0024 7412     		je	.L21
 465              	.LVL27:
 466              	.L18:
 467              		.loc 1 486 3 view .LVU171
 468              		.loc 1 487 5 view .LVU172
 469              		.loc 1 487 11 is_stmt 0 view .LVU173
 470 0026 035008   		addl	8(%eax), %edx
 471              	.LVL28:
 472              		.loc 1 488 5 is_stmt 1 view .LVU174
 473              		.loc 1 488 8 is_stmt 0 view .LVU175
 474 0029 39C8     		cmpl	%ecx, %eax
 475 002b 75F3     		jne	.L22
 476              		.loc 1 506 1 view .LVU176
 477 002d 89D0     		movl	%edx, %eax
 478              	.LVL29:
 479              		.loc 1 506 1 view .LVU177
 480 002f 5B       		popl	%ebx
 481              		.cfi_remember_state
 482              		.cfi_restore 3
 483              		.cfi_def_cfa_offset 4
 484 0030 C3       		ret
 485              	.LVL30:
 486              		.p2align 4,,10
 487 0031 8DB42600 		.p2align 3
 487      000000
 488              	.L21:
 489              		.cfi_restore_state
 490              		.loc 1 505 10 view .LVU178
 491 0038 BAFFFFFF 		movl	$-1, %edx
 491      FF
 492              	.LVL31:
GAS LISTING /tmp/ccxHj4RT.s 			page 10


 493              		.loc 1 506 1 view .LVU179
 494 003d 5B       		popl	%ebx
 495              		.cfi_restore 3
 496              		.cfi_def_cfa_offset 4
 497 003e 89D0     		movl	%edx, %eax
 498              	.LVL32:
 499              		.loc 1 506 1 view .LVU180
 500 0040 C3       		ret
 501              		.cfi_endproc
 502              	.LFE221:
 503              		.size	chVTGetRemainingIntervalI, .-chVTGetRemainingIntervalI
 504              		.section	.text.chVTDoTickI,"ax",@progbits
 505              		.p2align 4
 506              		.globl	chVTDoTickI
 507              		.type	chVTDoTickI, @function
 508              	chVTDoTickI:
 509              	.LFB222:
 510              		.loc 1 517 24 is_stmt 1 view -0
 511              		.cfi_startproc
 512              		.loc 1 518 3 view .LVU182
 513              	.LVL33:
 514              		.loc 1 520 21 view .LVU183
 515              		.loc 1 523 3 view .LVU184
 516 0000 E8FCFFFF 		call	__x86.get_pc_thunk.dx
 516      FF
 517 0005 81C20200 		addl	$_GLOBAL_OFFSET_TABLE_, %edx
 517      0000
 518              		.loc 1 517 24 is_stmt 0 view .LVU185
 519 000b 57       		pushl	%edi
 520              		.cfi_def_cfa_offset 8
 521              		.cfi_offset 7, -8
 522 000c 56       		pushl	%esi
 523              		.cfi_def_cfa_offset 12
 524              		.cfi_offset 6, -12
 525 000d 53       		pushl	%ebx
 526              		.cfi_def_cfa_offset 16
 527              		.cfi_offset 3, -16
 528              		.loc 1 523 7 view .LVU186
 529 000e 8BB20000 		movl	ch0@GOT(%edx), %esi
 529      0000
 530 0014 8B461C   		movl	28(%esi), %eax
 531              	.LBB96:
 532              	.LBB97:
 533              		.loc 2 516 29 view .LVU187
 534 0017 8B5E10   		movl	16(%esi), %ebx
 535              	.LBE97:
 536              	.LBE96:
 537              		.loc 1 523 16 view .LVU188
 538 001a 83C001   		addl	$1, %eax
 539 001d 89461C   		movl	%eax, 28(%esi)
 540              		.loc 1 524 3 is_stmt 1 view .LVU189
 541              	.LVL34:
 542              	.LBB99:
 543              	.LBI96:
 544              		.loc 2 514 20 view .LVU190
 545              	.LBB98:
 546              		.loc 2 516 3 view .LVU191
GAS LISTING /tmp/ccxHj4RT.s 			page 11


 547              		.loc 2 516 3 is_stmt 0 view .LVU192
 548              	.LBE98:
 549              	.LBE99:
 550              		.loc 1 524 6 view .LVU193
 551 0020 8D4610   		leal	16(%esi), %eax
 552 0023 39C3     		cmpl	%eax, %ebx
 553 0025 7453     		je	.L23
 554              		.loc 1 526 5 is_stmt 1 view .LVU194
 555 0027 8B4308   		movl	8(%ebx), %eax
 556              	.LBB100:
 557              	.LBB101:
 558              	.LBB102:
 559              	.LBB103:
 560              		.file 3 "../../../os/common/ports/SIMIA32/chcore.h"
 561              		.loc 3 392 16 is_stmt 0 view .LVU195
 562 002a 8BBA0000 		movl	port_irq_sts@GOT(%edx), %edi
 562      0000
 563              	.LBE103:
 564              	.LBE102:
 565              	.LBE101:
 566              	.LBE100:
 567              		.loc 1 526 5 view .LVU196
 568 0030 83E801   		subl	$1, %eax
 569 0033 894308   		movl	%eax, 8(%ebx)
 570              		.loc 1 527 5 is_stmt 1 view .LVU197
 571              		.loc 1 527 11 is_stmt 0 view .LVU198
 572 0036 EB3E     		jmp	.L27
 573 0038 8DB42600 		.p2align 4,,10
 573      00000090 
 574              		.p2align 3
 575              	.L30:
 576              	.LBB126:
 577              		.loc 1 528 7 is_stmt 1 view .LVU199
 578              		.loc 1 531 7 view .LVU200
 579              	.LVL35:
 580              		.loc 1 534 7 view .LVU201
 581              	.LBB108:
 582              	.LBI108:
 583              		.loc 2 647 32 view .LVU202
 584              	.LBB109:
 585              		.loc 2 649 3 view .LVU203
 586              		.loc 2 649 24 is_stmt 0 view .LVU204
 587 0040 8B03     		movl	(%ebx), %eax
 588              		.loc 2 649 6 view .LVU205
 589 0042 8B5304   		movl	4(%ebx), %edx
 590              	.LBE109:
 591              	.LBE108:
 592              		.loc 1 538 7 view .LVU206
 593 0045 83EC08   		subl	$8, %esp
 594              		.cfi_def_cfa_offset 24
 595              	.LBB111:
 596              	.LBB110:
 597              		.loc 2 649 19 view .LVU207
 598 0048 8902     		movl	%eax, (%edx)
 599              	.LVL36:
 600              		.loc 2 650 3 is_stmt 1 view .LVU208
 601              		.loc 2 650 19 is_stmt 0 view .LVU209
GAS LISTING /tmp/ccxHj4RT.s 			page 12


 602 004a 895004   		movl	%edx, 4(%eax)
 603              		.loc 2 652 3 is_stmt 1 view .LVU210
 604              		.loc 2 652 3 is_stmt 0 view .LVU211
 605              	.LBE110:
 606              	.LBE111:
 607              		.loc 1 535 7 is_stmt 1 view .LVU212
 608              		.loc 1 535 23 is_stmt 0 view .LVU213
 609 004d C7030000 		movl	$0, (%ebx)
 609      0000
 610              		.loc 1 537 7 is_stmt 1 view .LVU214
 611              	.LBB112:
 612              	.LBI101:
 613              		.file 4 "../../../os/rt/include/chsys.h"
 614              		.loc 4 473 20 view .LVU215
 615              		.loc 4 475 32 view .LVU216
 616              		.loc 4 476 34 view .LVU217
 617              		.loc 4 477 3 view .LVU218
 618              	.LBB106:
 619              	.LBI102:
 620              		.loc 3 390 20 view .LVU219
 621              	.LBB104:
 622              		.loc 3 392 3 view .LVU220
 623              	.LBE104:
 624              	.LBE106:
 625              	.LBE112:
 626              		.loc 1 538 7 is_stmt 0 view .LVU221
 627 0053 FF7310   		pushl	16(%ebx)
 628              		.cfi_def_cfa_offset 28
 629 0056 53       		pushl	%ebx
 630              		.cfi_def_cfa_offset 32
 631              	.LBB113:
 632              	.LBB107:
 633              	.LBB105:
 634              		.loc 3 392 16 view .LVU222
 635 0057 C7070000 		movl	$0, (%edi)
 635      0000
 636              	.LBE105:
 637              	.LBE107:
 638              	.LBE113:
 639              		.loc 1 538 7 is_stmt 1 view .LVU223
 640 005d FF530C   		call	*12(%ebx)
 641              	.LVL37:
 642              		.loc 1 539 7 view .LVU224
 643              	.LBB114:
 644              	.LBI114:
 645              		.loc 4 451 20 view .LVU225
 646              		.loc 4 453 3 view .LVU226
 647              	.LBB115:
 648              	.LBI115:
 649              		.loc 3 380 20 view .LVU227
 650              	.LBB116:
 651              		.loc 3 382 3 view .LVU228
 652              	.LBE116:
 653              	.LBE115:
 654              	.LBE114:
 655              		.loc 1 542 14 is_stmt 0 view .LVU229
 656 0060 8B4314   		movl	20(%ebx), %eax
GAS LISTING /tmp/ccxHj4RT.s 			page 13


 657              	.LBB119:
 658              	.LBB118:
 659              	.LBB117:
 660              		.loc 3 382 16 view .LVU230
 661 0063 C7070100 		movl	$1, (%edi)
 661      0000
 662              	.LBE117:
 663              	.LBE118:
 664              		.loc 4 454 35 is_stmt 1 view .LVU231
 665              		.loc 4 455 30 view .LVU232
 666              	.LBE119:
 667              		.loc 1 542 7 view .LVU233
 668              		.loc 1 542 10 is_stmt 0 view .LVU234
 669 0069 83C410   		addl	$16, %esp
 670              		.cfi_def_cfa_offset 16
 671 006c 85C0     		testl	%eax, %eax
 672 006e 7510     		jne	.L26
 673              	.L34:
 674              	.LBE126:
 675              		.loc 1 527 23 view .LVU235
 676 0070 8B5E10   		movl	16(%esi), %ebx
 677              		.loc 1 527 28 view .LVU236
 678 0073 8B4308   		movl	8(%ebx), %eax
 679              	.L27:
 680              		.loc 1 527 36 is_stmt 1 view .LVU237
 681 0076 85C0     		testl	%eax, %eax
 682 0078 74C6     		je	.L30
 683              	.L23:
 684              		.loc 1 661 1 is_stmt 0 view .LVU238
 685 007a 5B       		popl	%ebx
 686              		.cfi_remember_state
 687              		.cfi_restore 3
 688              		.cfi_def_cfa_offset 12
 689 007b 5E       		popl	%esi
 690              		.cfi_restore 6
 691              		.cfi_def_cfa_offset 8
 692 007c 5F       		popl	%edi
 693              		.cfi_restore 7
 694              		.cfi_def_cfa_offset 4
 695 007d C3       		ret
 696 007e 6690     		.p2align 4,,10
 697              		.p2align 3
 698              	.L26:
 699              		.cfi_restore_state
 700              	.LBB127:
 701              		.loc 1 543 9 is_stmt 1 view .LVU239
 702              	.LVL38:
 703              	.LBB120:
 704              	.LBI120:
 705              		.loc 2 596 20 view .LVU240
 706              	.LBB121:
 707              		.loc 2 599 3 view .LVU241
 708              		.loc 2 603 3 view .LVU242
 709              		.loc 2 603 7 is_stmt 0 view .LVU243
 710 0080 8B5610   		movl	16(%esi), %edx
 711              	.LVL39:
 712              		.loc 2 604 3 is_stmt 1 view .LVU244
GAS LISTING /tmp/ccxHj4RT.s 			page 14


 713              		.loc 2 604 10 view .LVU245
 714 0083 8B4A08   		movl	8(%edx), %ecx
 715 0086 39C8     		cmpl	%ecx, %eax
 716 0088 7611     		jbe	.L28
 717 008a 8DB60000 		.p2align 4,,10
 717      0000
 718              		.p2align 3
 719              	.L29:
 720              		.loc 2 606 5 view .LVU246
 721              		.loc 2 606 5 view .LVU247
 722              		.loc 2 606 5 view .LVU248
 723              		.loc 2 608 5 view .LVU249
 724              		.loc 2 609 9 is_stmt 0 view .LVU250
 725 0090 8B12     		movl	(%edx), %edx
 726              	.LVL40:
 727              		.loc 2 608 11 view .LVU251
 728 0092 29C8     		subl	%ecx, %eax
 729              	.LVL41:
 730              		.loc 2 609 5 is_stmt 1 view .LVU252
 731              		.loc 2 604 10 view .LVU253
 732 0094 8B4A08   		movl	8(%edx), %ecx
 733 0097 39C1     		cmpl	%eax, %ecx
 734 0099 72F5     		jb	.L29
 735              	.L28:
 736              		.loc 2 613 3 view .LVU254
 737              	.LVL42:
 738              	.LBB122:
 739              	.LBI122:
 740              		.loc 2 576 20 view .LVU255
 741              	.LBB123:
 742              		.loc 2 580 3 view .LVU256
 743              		.loc 2 582 30 is_stmt 0 view .LVU257
 744 009b 8B4A04   		movl	4(%edx), %ecx
 745              		.loc 2 580 19 view .LVU258
 746 009e 894308   		movl	%eax, 8(%ebx)
 747              		.loc 2 581 3 is_stmt 1 view .LVU259
 748              		.loc 2 581 19 is_stmt 0 view .LVU260
 749 00a1 8913     		movl	%edx, (%ebx)
 750              		.loc 2 582 3 is_stmt 1 view .LVU261
 751              		.loc 2 582 19 is_stmt 0 view .LVU262
 752 00a3 894B04   		movl	%ecx, 4(%ebx)
 753              		.loc 2 583 3 is_stmt 1 view .LVU263
 754              		.loc 2 583 19 is_stmt 0 view .LVU264
 755 00a6 8919     		movl	%ebx, (%ecx)
 756              		.loc 2 584 3 is_stmt 1 view .LVU265
 757              	.LBE123:
 758              	.LBE122:
 759              		.loc 2 616 14 is_stmt 0 view .LVU266
 760 00a8 294208   		subl	%eax, 8(%edx)
 761              	.LBB125:
 762              	.LBB124:
 763              		.loc 2 584 19 view .LVU267
 764 00ab 895A04   		movl	%ebx, 4(%edx)
 765              	.LVL43:
 766              		.loc 2 584 19 view .LVU268
 767              	.LBE124:
 768              	.LBE125:
GAS LISTING /tmp/ccxHj4RT.s 			page 15


 769              		.loc 2 616 3 is_stmt 1 view .LVU269
 770              		.loc 2 621 3 view .LVU270
 771              		.loc 2 621 15 is_stmt 0 view .LVU271
 772 00ae C74618FF 		movl	$-1, 24(%esi)
 772      FFFFFF
 773 00b5 EBB9     		jmp	.L34
 774              	.LBE121:
 775              	.LBE120:
 776              	.LBE127:
 777              		.cfi_endproc
 778              	.LFE222:
 779              		.size	chVTDoTickI, .-chVTDoTickI
 780              		.section	.text.chVTGetTimeStampI,"ax",@progbits
 781              		.p2align 4
 782              		.globl	chVTGetTimeStampI
 783              		.type	chVTGetTimeStampI, @function
 784              	chVTGetTimeStampI:
 785              	.LFB223:
 786              		.loc 1 679 40 is_stmt 1 view -0
 787              		.cfi_startproc
 788              		.loc 1 680 3 view .LVU273
 789              	.LVL44:
 790              		.loc 1 681 3 view .LVU274
 791              		.loc 1 682 3 view .LVU275
 792              		.loc 1 684 21 view .LVU276
 793              		.loc 1 687 3 view .LVU277
 794              	.LBB128:
 795              	.LBI128:
 796              		.file 5 "../../../os/rt/include/chvt.h"
 797              		.loc 5 135 25 view .LVU278
 798              	.LBB129:
 799              		.loc 5 138 3 view .LVU279
 800 0000 E8FCFFFF 		call	__x86.get_pc_thunk.ax
 800      FF
 801 0005 05010000 		addl	$_GLOBAL_OFFSET_TABLE_, %eax
 801      00
 802              	.LBE129:
 803              	.LBE128:
 804              		.loc 1 679 40 is_stmt 0 view .LVU280
 805 000a 57       		pushl	%edi
 806              		.cfi_def_cfa_offset 8
 807              		.cfi_offset 7, -8
 808              		.loc 1 695 18 view .LVU281
 809 000b 31D2     		xorl	%edx, %edx
 810              		.loc 1 679 40 view .LVU282
 811 000d 56       		pushl	%esi
 812              		.cfi_def_cfa_offset 12
 813              		.cfi_offset 6, -12
 814              	.LBB131:
 815              	.LBB130:
 816              		.loc 5 138 26 view .LVU283
 817 000e 8B880000 		movl	ch0@GOT(%eax), %ecx
 817      0000
 818 0014 8B411C   		movl	28(%ecx), %eax
 819              	.LVL45:
 820              		.loc 5 138 26 view .LVU284
 821              	.LBE130:
GAS LISTING /tmp/ccxHj4RT.s 			page 16


 822              	.LBE131:
 823              		.loc 1 690 3 is_stmt 1 view .LVU285
 824              		.loc 1 690 8 is_stmt 0 view .LVU286
 825 0017 8B7120   		movl	32(%ecx), %esi
 826 001a 8B7924   		movl	36(%ecx), %edi
 827              	.LVL46:
 828              		.loc 1 695 3 is_stmt 1 view .LVU287
 829              	.LBB132:
 830              	.LBI132:
 831              		.file 6 "../../../os/rt/include/chtime.h"
 832              		.loc 6 461 29 view .LVU288
 833              	.LBB133:
 834              		.loc 6 465 3 view .LVU289
 835              		.loc 6 465 10 is_stmt 0 view .LVU290
 836 001d 29F0     		subl	%esi, %eax
 837              	.LVL47:
 838              		.loc 6 465 10 view .LVU291
 839              	.LBE133:
 840              	.LBE132:
 841              		.loc 1 695 9 view .LVU292
 842 001f 01F0     		addl	%esi, %eax
 843 0021 11FA     		adcl	%edi, %edx
 844              	.LVL48:
 845              		.loc 1 697 3 is_stmt 1 view .LVU293
 846              		.loc 1 697 3 view .LVU294
 847              		.loc 1 697 3 view .LVU295
 848              		.loc 1 700 3 view .LVU296
 849              		.loc 1 700 25 is_stmt 0 view .LVU297
 850 0023 894120   		movl	%eax, 32(%ecx)
 851 0026 895124   		movl	%edx, 36(%ecx)
 852              		.loc 1 702 3 is_stmt 1 view .LVU298
 853              		.loc 1 703 1 is_stmt 0 view .LVU299
 854 0029 5E       		popl	%esi
 855              		.cfi_restore 6
 856              		.cfi_def_cfa_offset 8
 857              	.LVL49:
 858              		.loc 1 703 1 view .LVU300
 859 002a 5F       		popl	%edi
 860              		.cfi_restore 7
 861              		.cfi_def_cfa_offset 4
 862 002b C3       		ret
 863              		.cfi_endproc
 864              	.LFE223:
 865              		.size	chVTGetTimeStampI, .-chVTGetTimeStampI
 866              		.section	.text.chVTResetTimeStampI,"ax",@progbits
 867              		.p2align 4
 868              		.globl	chVTResetTimeStampI
 869              		.type	chVTResetTimeStampI, @function
 870              	chVTResetTimeStampI:
 871              	.LFB224:
 872              		.loc 1 710 32 is_stmt 1 view -0
 873              		.cfi_startproc
 874              		.loc 1 712 21 view .LVU302
 875              		.loc 1 714 3 view .LVU303
 876              	.LBB134:
 877              	.LBI134:
 878              		.loc 5 135 25 view .LVU304
GAS LISTING /tmp/ccxHj4RT.s 			page 17


 879              	.LBB135:
 880              		.loc 5 138 3 view .LVU305
 881 0000 E8FCFFFF 		call	__x86.get_pc_thunk.ax
 881      FF
 882 0005 05010000 		addl	$_GLOBAL_OFFSET_TABLE_, %eax
 882      00
 883              	.LBE135:
 884              	.LBE134:
 885              		.loc 1 714 32 is_stmt 0 view .LVU306
 886 000a 31D2     		xorl	%edx, %edx
 887              	.LBB137:
 888              	.LBB136:
 889              		.loc 5 138 26 view .LVU307
 890 000c 8B880000 		movl	ch0@GOT(%eax), %ecx
 890      0000
 891 0012 8B411C   		movl	28(%ecx), %eax
 892              	.LBE136:
 893              	.LBE137:
 894              		.loc 1 714 30 view .LVU308
 895 0015 894120   		movl	%eax, 32(%ecx)
 896 0018 895124   		movl	%edx, 36(%ecx)
 897              		.loc 1 715 1 view .LVU309
 898 001b C3       		ret
 899              		.cfi_endproc
 900              	.LFE224:
 901              		.size	chVTResetTimeStampI, .-chVTResetTimeStampI
 902              		.section	.text.__x86.get_pc_thunk.ax,"axG",@progbits,__x86.get_pc_thunk.ax,comdat
 903              		.globl	__x86.get_pc_thunk.ax
 904              		.hidden	__x86.get_pc_thunk.ax
 905              		.type	__x86.get_pc_thunk.ax, @function
 906              	__x86.get_pc_thunk.ax:
 907              	.LFB226:
 908              		.cfi_startproc
 909 0000 8B0424   		movl	(%esp), %eax
 910 0003 C3       		ret
 911              		.cfi_endproc
 912              	.LFE226:
 913              		.section	.text.__x86.get_pc_thunk.dx,"axG",@progbits,__x86.get_pc_thunk.dx,comdat
 914              		.globl	__x86.get_pc_thunk.dx
 915              		.hidden	__x86.get_pc_thunk.dx
 916              		.type	__x86.get_pc_thunk.dx, @function
 917              	__x86.get_pc_thunk.dx:
 918              	.LFB227:
 919              		.cfi_startproc
 920 0000 8B1424   		movl	(%esp), %edx
 921 0003 C3       		ret
 922              		.cfi_endproc
 923              	.LFE227:
 924              		.section	.text.__x86.get_pc_thunk.bx,"axG",@progbits,__x86.get_pc_thunk.bx,comdat
 925              		.globl	__x86.get_pc_thunk.bx
 926              		.hidden	__x86.get_pc_thunk.bx
 927              		.type	__x86.get_pc_thunk.bx, @function
 928              	__x86.get_pc_thunk.bx:
 929              	.LFB228:
 930              		.cfi_startproc
 931 0000 8B1C24   		movl	(%esp), %ebx
 932 0003 C3       		ret
GAS LISTING /tmp/ccxHj4RT.s 			page 18


 933              		.cfi_endproc
 934              	.LFE228:
 935              		.text
 936              	.Letext0:
 937              		.file 7 "/usr/include/bits/types.h"
 938              		.file 8 "/usr/include/bits/stdint-intn.h"
 939              		.file 9 "/usr/include/bits/stdint-uintn.h"
 940              		.file 10 "../../../os/common/ports/SIMIA32/compilers/GCC/chtypes.h"
 941              		.file 11 "../../../os/rt/include/chearly.h"
 942              		.file 12 "../../../os/rt/include/chobjects.h"
 943              		.file 13 "../../../os/rt/include/chrfcu.h"
 944              		.file 14 "../../../os/rt/include/chdebug.h"
 945              		.file 15 "../../../os/rt/include/chsem.h"
 946              		.file 16 "../../../os/rt/include/chmtx.h"
 4617 0040 2F686F6D 		.section	.note.GNU-stack,"",@progbits
 4617      652F616C 
 4617      65782F43 
 4617      68696269 
 4617      4F532F64 
GAS LISTING /tmp/ccxHj4RT.s 			page 89

