GAS LISTING /tmp/cchzXoU3.s 			page 1


   1              		.file	"hal_lld.c"
   2              		.text
   3              	.Ltext0:
   4              		.file 0 "/home/alex/ChibiOS/demos/various/LAB1" "../../../os/hal/ports/simulator/posix/hal_lld.c"
   5              		.section	.rodata.hal_lld_init.str1.1,"aMS",@progbits,1
   6              	.LC0:
   7 0000 43686962 		.string	"ChibiOS/RT simulator (Linux)\n"
   7      694F532F 
   7      52542073 
   7      696D756C 
   7      61746F72 
   8              		.section	.text.hal_lld_init,"ax",@progbits
   9              		.p2align 4
  10              		.globl	hal_lld_init
  11              		.type	hal_lld_init, @function
  12              	hal_lld_init:
  13              	.LFB309:
  14              		.file 1 "../../../os/hal/ports/simulator/posix/hal_lld.c"
  15              		.loc 1 57 25 view -0
  16              		.cfi_startproc
  17              		.loc 1 62 3 view .LVU1
  18              		.loc 1 57 25 is_stmt 0 view .LVU2
  19 0000 53       		pushl	%ebx
  20              		.cfi_def_cfa_offset 8
  21              		.cfi_offset 3, -8
  22 0001 E8FCFFFF 		call	__x86.get_pc_thunk.bx
  22      FF
  23 0006 81C30200 		addl	$_GLOBAL_OFFSET_TABLE_, %ebx
  23      0000
  24 000c 83EC14   		subl	$20, %esp
  25              		.cfi_def_cfa_offset 28
  26              		.loc 1 62 3 view .LVU3
  27 000f 8D830000 		leal	.LC0@GOTOFF(%ebx), %eax
  27      0000
  28 0015 50       		pushl	%eax
  29              		.cfi_def_cfa_offset 32
  30 0016 E8FCFFFF 		call	puts@PLT
  30      FF
  31              	.LVL0:
  32              		.loc 1 64 3 is_stmt 1 view .LVU4
  33 001b 58       		popl	%eax
  34              		.cfi_def_cfa_offset 28
  35 001c 8D830000 		leal	nextcnt@GOTOFF(%ebx), %eax
  35      0000
  36 0022 5A       		popl	%edx
  37              		.cfi_def_cfa_offset 24
  38 0023 6A00     		pushl	$0
  39              		.cfi_def_cfa_offset 28
  40 0025 50       		pushl	%eax
  41              		.cfi_def_cfa_offset 32
  42 0026 E8FCFFFF 		call	gettimeofday@PLT
  42      FF
  43              	.LVL1:
  44              		.loc 1 65 3 view .LVU5
  45              		.loc 1 65 3 view .LVU6
  46 002b 8B830400 		movl	4+nextcnt@GOTOFF(%ebx), %eax
  46      0000
GAS LISTING /tmp/cchzXoU3.s 			page 2


  47 0031 8B8B0000 		movl	nextcnt@GOTOFF(%ebx), %ecx
  47      0000
  48              		.loc 1 65 3 view .LVU7
  49 0037 83C410   		addl	$16, %esp
  50              		.cfi_def_cfa_offset 16
  51 003a 8D90E803 		leal	1000(%eax), %edx
  51      0000
  52 0040 89930400 		movl	%edx, 4+nextcnt@GOTOFF(%ebx)
  52      0000
  53              		.loc 1 65 3 view .LVU8
  54 0046 81FA3F42 		cmpl	$999999, %edx
  54      0F00
  55 004c 7E14     		jle	.L1
  56              		.loc 1 65 3 discriminator 1 view .LVU9
  57 004e 83C101   		addl	$1, %ecx
  58 0051 2D583E0F 		subl	$999000, %eax
  58      00
  59 0056 898B0000 		movl	%ecx, nextcnt@GOTOFF(%ebx)
  59      0000
  60              		.loc 1 65 3 discriminator 1 view .LVU10
  61 005c 89830400 		movl	%eax, 4+nextcnt@GOTOFF(%ebx)
  61      0000
  62              		.loc 1 65 3 discriminator 1 view .LVU11
  63              	.L1:
  64              		.loc 1 66 1 is_stmt 0 view .LVU12
  65 0062 83C408   		addl	$8, %esp
  66              		.cfi_def_cfa_offset 8
  67 0065 5B       		popl	%ebx
  68              		.cfi_restore 3
  69              		.cfi_def_cfa_offset 4
  70 0066 C3       		ret
  71              		.cfi_endproc
  72              	.LFE309:
  73              		.size	hal_lld_init, .-hal_lld_init
  74              		.section	.text._sim_check_for_interrupts,"ax",@progbits
  75              		.p2align 4
  76              		.globl	_sim_check_for_interrupts
  77              		.type	_sim_check_for_interrupts, @function
  78              	_sim_check_for_interrupts:
  79              	.LFB310:
  80              		.loc 1 71 38 is_stmt 1 view -0
  81              		.cfi_startproc
  82 0000 57       		pushl	%edi
  83              		.cfi_def_cfa_offset 8
  84              		.cfi_offset 7, -8
  85 0001 56       		pushl	%esi
  86              		.cfi_def_cfa_offset 12
  87              		.cfi_offset 6, -12
  88 0002 53       		pushl	%ebx
  89              		.cfi_def_cfa_offset 16
  90              		.cfi_offset 3, -16
  91 0003 E8FCFFFF 		call	__x86.get_pc_thunk.bx
  91      FF
  92 0008 81C30200 		addl	$_GLOBAL_OFFSET_TABLE_, %ebx
  92      0000
  93 000e 83EC10   		subl	$16, %esp
  94              		.cfi_def_cfa_offset 32
GAS LISTING /tmp/cchzXoU3.s 			page 3


  95              		.loc 1 71 38 is_stmt 0 view .LVU14
  96 0011 65A11400 		movl	%gs:20, %eax
  96      0000
  97 0017 8944240C 		movl	%eax, 12(%esp)
  98 001b 31C0     		xorl	%eax, %eax
  99              		.loc 1 72 3 is_stmt 1 view .LVU15
 100              		.loc 1 73 3 view .LVU16
 101              	.LVL2:
 102              		.loc 1 76 3 view .LVU17
 103              		.loc 1 76 7 is_stmt 0 view .LVU18
 104 001d E8FCFFFF 		call	sd_lld_interrupt_pending@PLT
 104      FF
 105              	.LVL3:
 106              		.loc 1 81 3 view .LVU19
 107 0022 83EC08   		subl	$8, %esp
 108              		.cfi_def_cfa_offset 40
 109 0025 6A00     		pushl	$0
 110              		.cfi_def_cfa_offset 44
 111              		.loc 1 76 7 view .LVU20
 112 0027 89C6     		movl	%eax, %esi
 113              	.LVL4:
 114              		.loc 1 81 3 is_stmt 1 view .LVU21
 115 0029 8D442410 		leal	16(%esp), %eax
 116              	.LVL5:
 117              		.loc 1 81 3 is_stmt 0 view .LVU22
 118 002d 50       		pushl	%eax
 119              		.cfi_def_cfa_offset 48
 120 002e E8FCFFFF 		call	gettimeofday@PLT
 120      FF
 121              	.LVL6:
 122              		.loc 1 82 3 is_stmt 1 view .LVU23
 123              		.loc 1 82 7 is_stmt 0 view .LVU24
 124 0033 83C410   		addl	$16, %esp
 125              		.cfi_def_cfa_offset 32
 126 0036 8B830000 		movl	nextcnt@GOTOFF(%ebx), %eax
 126      0000
 127 003c 39442404 		cmpl	%eax, 4(%esp)
 128 0040 747E     		je	.L18
 129              		.loc 1 82 6 discriminator 2 view .LVU25
 130 0042 0F8C8400 		jl	.L8
 130      0000
 131              		.loc 1 82 7 view .LVU26
 132 0048 8B930400 		movl	4+nextcnt@GOTOFF(%ebx), %edx
 132      0000
 133              	.L7:
 134              		.loc 1 83 5 is_stmt 1 view .LVU27
 135              	.LVL7:
 136              		.loc 1 84 5 view .LVU28
 137              		.loc 1 84 5 view .LVU29
 138              		.loc 1 84 5 view .LVU30
 139 004e 8D8AE803 		leal	1000(%edx), %ecx
 139      0000
 140 0054 898B0400 		movl	%ecx, 4+nextcnt@GOTOFF(%ebx)
 140      0000
 141              		.loc 1 84 5 view .LVU31
 142 005a 81F93F42 		cmpl	$999999, %ecx
 142      0F00
GAS LISTING /tmp/cchzXoU3.s 			page 4


 143 0060 7E15     		jle	.L9
 144              		.loc 1 84 5 discriminator 1 view .LVU32
 145 0062 83C001   		addl	$1, %eax
 146 0065 81EA583E 		subl	$999000, %edx
 146      0F00
 147 006b 89830000 		movl	%eax, nextcnt@GOTOFF(%ebx)
 147      0000
 148              		.loc 1 84 5 discriminator 1 view .LVU33
 149 0071 89930400 		movl	%edx, 4+nextcnt@GOTOFF(%ebx)
 149      0000
 150              	.L9:
 151              		.loc 1 84 5 discriminator 3 view .LVU34
 152              		.loc 1 86 5 discriminator 3 view .LVU35
 153 0077 8BB30000 		movl	port_isr_context_flag@GOT(%ebx), %esi
 153      0000
 154              	.LBB14:
 155              	.LBB15:
 156              	.LBB16:
 157              		.file 2 "../../../os/common/ports/SIMIA32/chcore.h"
 158              		.loc 2 382 16 is_stmt 0 discriminator 3 view .LVU36
 159 007d 8BBB0000 		movl	port_irq_sts@GOT(%ebx), %edi
 159      0000
 160              	.LBE16:
 161              	.LBE15:
 162              	.LBE14:
 163              		.loc 1 86 5 discriminator 3 view .LVU37
 164 0083 C60601   		movb	$1, (%esi)
 165              		.loc 1 86 5 is_stmt 1 discriminator 3 view .LVU38
 166              		.loc 1 86 5 discriminator 3 view .LVU39
 167              		.loc 1 86 5 discriminator 3 view .LVU40
 168              		.loc 1 86 5 discriminator 3 view .LVU41
 169              		.loc 1 86 5 discriminator 3 view .LVU42
 170              		.loc 1 86 22 discriminator 3 view .LVU43
 171              		.loc 1 88 5 discriminator 3 view .LVU44
 172              	.LBB19:
 173              	.LBI14:
 174              		.file 3 "../../../os/rt/include/chsys.h"
 175              		.loc 3 451 20 discriminator 3 view .LVU45
 176              		.loc 3 453 3 discriminator 3 view .LVU46
 177              	.LBB18:
 178              	.LBI15:
 179              		.loc 2 380 20 discriminator 3 view .LVU47
 180              	.LBB17:
 181              		.loc 2 382 3 discriminator 3 view .LVU48
 182              		.loc 2 382 16 is_stmt 0 discriminator 3 view .LVU49
 183 0086 C7070100 		movl	$1, (%edi)
 183      0000
 184              	.LBE17:
 185              	.LBE18:
 186              		.loc 3 454 35 is_stmt 1 discriminator 3 view .LVU50
 187              		.loc 3 455 30 discriminator 3 view .LVU51
 188              	.LBE19:
 189              		.loc 1 89 5 discriminator 3 view .LVU52
 190 008c E8FCFFFF 		call	chSysTimerHandlerI@PLT
 190      FF
 191              	.LVL8:
 192              		.loc 1 90 5 discriminator 3 view .LVU53
GAS LISTING /tmp/cchzXoU3.s 			page 5


 193              	.LBB20:
 194              	.LBI20:
 195              		.loc 3 473 20 discriminator 3 view .LVU54
 196              		.loc 3 475 32 discriminator 3 view .LVU55
 197              		.loc 3 476 34 discriminator 3 view .LVU56
 198              		.loc 3 477 3 discriminator 3 view .LVU57
 199              	.LBB21:
 200              	.LBI21:
 201              		.loc 2 390 20 discriminator 3 view .LVU58
 202              	.LBB22:
 203              		.loc 2 392 3 discriminator 3 view .LVU59
 204              		.loc 2 392 16 is_stmt 0 discriminator 3 view .LVU60
 205 0091 C7070000 		movl	$0, (%edi)
 205      0000
 206              	.LBE22:
 207              	.LBE21:
 208              	.LBE20:
 209              		.loc 1 92 5 is_stmt 1 discriminator 3 view .LVU61
 210              		.loc 1 92 5 discriminator 3 view .LVU62
 211              		.loc 1 92 5 discriminator 3 view .LVU63
 212              		.loc 1 92 5 discriminator 3 view .LVU64
 213              		.loc 1 92 5 discriminator 3 view .LVU65
 214 0097 C60600   		movb	$0, (%esi)
 215              		.loc 1 92 22 discriminator 3 view .LVU66
 216              		.loc 1 95 3 discriminator 3 view .LVU67
 217              		.loc 1 96 23 discriminator 3 view .LVU68
 218              		.loc 1 97 5 discriminator 3 view .LVU69
 219              		.loc 1 97 9 is_stmt 0 discriminator 3 view .LVU70
 220 009a E8FCFFFF 		call	chSchIsPreemptionRequired@PLT
 220      FF
 221              	.LVL9:
 222              		.loc 1 97 8 discriminator 3 view .LVU71
 223 009f 84C0     		testb	%al, %al
 224 00a1 7538     		jne	.L19
 225              	.LVL10:
 226              	.L5:
 227              		.loc 1 101 1 view .LVU72
 228 00a3 8B44240C 		movl	12(%esp), %eax
 229 00a7 652B0514 		subl	%gs:20, %eax
 229      000000
 230 00ae 7532     		jne	.L20
 231 00b0 83C410   		addl	$16, %esp
 232              		.cfi_remember_state
 233              		.cfi_def_cfa_offset 16
 234 00b3 5B       		popl	%ebx
 235              		.cfi_restore 3
 236              		.cfi_def_cfa_offset 12
 237 00b4 5E       		popl	%esi
 238              		.cfi_restore 6
 239              		.cfi_def_cfa_offset 8
 240 00b5 5F       		popl	%edi
 241              		.cfi_restore 7
 242              		.cfi_def_cfa_offset 4
 243 00b6 C3       		ret
 244              	.LVL11:
 245 00b7 8DB42600 		.p2align 4,,10
 245      00000066 
GAS LISTING /tmp/cchzXoU3.s 			page 6


 245      90
 246              		.p2align 3
 247              	.L18:
 248              		.cfi_restore_state
 249              		.loc 1 82 7 discriminator 1 view .LVU73
 250 00c0 8B930400 		movl	4+nextcnt@GOTOFF(%ebx), %edx
 250      0000
 251              		.loc 1 82 6 discriminator 1 view .LVU74
 252 00c6 39542408 		cmpl	%edx, 8(%esp)
 253 00ca 7D82     		jge	.L7
 254              	.L8:
 255              		.loc 1 92 22 is_stmt 1 discriminator 1 view .LVU75
 256              		.loc 1 95 3 discriminator 1 view .LVU76
 257              		.loc 1 95 6 is_stmt 0 discriminator 1 view .LVU77
 258 00cc 89F0     		movl	%esi, %eax
 259 00ce 84C0     		testb	%al, %al
 260 00d0 74D1     		je	.L5
 261              	.LVL12:
 262              		.loc 1 96 23 is_stmt 1 view .LVU78
 263              		.loc 1 97 5 view .LVU79
 264              		.loc 1 97 9 is_stmt 0 view .LVU80
 265 00d2 E8FCFFFF 		call	chSchIsPreemptionRequired@PLT
 265      FF
 266              	.LVL13:
 267              		.loc 1 97 8 view .LVU81
 268 00d7 84C0     		testb	%al, %al
 269 00d9 74C8     		je	.L5
 270              	.LVL14:
 271              	.L19:
 272              		.loc 1 98 7 is_stmt 1 view .LVU82
 273 00db E8FCFFFF 		call	chSchDoPreemption@PLT
 273      FF
 274              	.LVL15:
 275              		.loc 1 99 25 view .LVU83
 276              		.loc 1 101 1 is_stmt 0 view .LVU84
 277 00e0 EBC1     		jmp	.L5
 278              	.L20:
 279 00e2 E8FCFFFF 		call	__stack_chk_fail_local
 279      FF
 280              	.LVL16:
 281              		.cfi_endproc
 282              	.LFE310:
 283              		.size	_sim_check_for_interrupts, .-_sim_check_for_interrupts
 284              		.section	.bss.nextcnt,"aw",@nobits
 285              		.align 4
 286              		.type	nextcnt, @object
 287              		.size	nextcnt, 8
 288              	nextcnt:
 289 0000 00000000 		.zero	8
 289      00000000 
 290              		.section	.text.__x86.get_pc_thunk.bx,"axG",@progbits,__x86.get_pc_thunk.bx,comdat
 291              		.globl	__x86.get_pc_thunk.bx
 292              		.hidden	__x86.get_pc_thunk.bx
 293              		.type	__x86.get_pc_thunk.bx, @function
 294              	__x86.get_pc_thunk.bx:
 295              	.LFB311:
 296              		.cfi_startproc
GAS LISTING /tmp/cchzXoU3.s 			page 7


 297 0000 8B1C24   		movl	(%esp), %ebx
 298 0003 C3       		ret
 299              		.cfi_endproc
 300              	.LFE311:
 301              		.text
 302              	.Letext0:
 303              		.file 4 "/usr/include/bits/types.h"
 304              		.file 5 "/usr/include/bits/types/struct_timeval.h"
 305              		.file 6 "/usr/include/bits/stdint-uintn.h"
 306              		.file 7 "../../../os/common/ports/SIMIA32/compilers/GCC/chtypes.h"
 307              		.file 8 "../../../os/rt/include/chschd.h"
 308              		.file 9 "../../../os/hal/ports/simulator/posix/hal_serial_lld.h"
 309              		.file 10 "/usr/include/sys/time.h"
 310              		.file 11 "/usr/include/stdio.h"
 1307 0056 2F686F6D 		.section	.note.GNU-stack,"",@progbits
 1307      652F616C 
 1307      65782F43 
 1307      68696269 
 1307      4F532F64 
GAS LISTING /tmp/cchzXoU3.s 			page 27

