GAS LISTING /tmp/cchzXoU3.s 			page 1


   1              		.file	"hal_lld.c"
   2              		.text
   3              	.Ltext0:
   4              		.file 0 "/home/alex/ChibiOS/demos/various/LAB1" "../../../os/hal/ports/simulator/posix/hal_lld.c"
   5              		.section	.rodata.hal_lld_init.str1.1,"aMS",@progbits,1
   6              	.LC0:
   7 0000 43686962 		.string	"ChibiOS/RT simulator (Linux)\n"
   7      694F532F 
   7      52542073 
   7      696D756C 
   7      61746F72 
   8              		.section	.text.hal_lld_init,"ax",@progbits
   9              		.p2align 4
  10              		.globl	hal_lld_init
  11              		.type	hal_lld_init, @function
  12              	hal_lld_init:
  13              	.LFB309:
  14              		.file 1 "../../../os/hal/ports/simulator/posix/hal_lld.c"
  15              		.loc 1 57 25 view -0
  16              		.cfi_startproc
  17              		.loc 1 62 3 view .LVU1
  18              		.loc 1 57 25 is_stmt 0 view .LVU2
  19 0000 53       		pushl	%ebx
  20              		.cfi_def_cfa_offset 8
  21              		.cfi_offset 3, -8
  22 0001 E8FCFFFF 		call	__x86.get_pc_thunk.bx
  22      FF
  23 0006 81C30200 		addl	$_GLOBAL_OFFSET_TABLE_, %ebx
  23      0000
  24 000c 83EC14   		subl	$20, %esp
  25              		.cfi_def_cfa_offset 28
  26              		.loc 1 62 3 view .LVU3
  27 000f 8D830000 		leal	.LC0@GOTOFF(%ebx), %eax
  27      0000
  28 0015 50       		pushl	%eax
  29              		.cfi_def_cfa_offset 32
  30 0016 E8FCFFFF 		call	puts@PLT
  30      FF
  31              	.LVL0:
  32              		.loc 1 64 3 is_stmt 1 view .LVU4
  33 001b 58       		popl	%eax
  34              		.cfi_def_cfa_offset 28
  35 001c 8D830000 		leal	nextcnt@GOTOFF(%ebx), %eax
  35      0000
  36 0022 5A       		popl	%edx
  37              		.cfi_def_cfa_offset 24
  38 0023 6A00     		pushl	$0
  39              		.cfi_def_cfa_offset 28
  40 0025 50       		pushl	%eax
  41              		.cfi_def_cfa_offset 32
  42 0026 E8FCFFFF 		call	gettimeofday@PLT
  42      FF
  43              	.LVL1:
  44              		.loc 1 65 3 view .LVU5
  45              		.loc 1 65 3 view .LVU6
  46 002b 8B830400 		movl	4+nextcnt@GOTOFF(%ebx), %eax
  46      0000
GAS LISTING /tmp/cchzXoU3.s 			page 2


  47 0031 8B8B0000 		movl	nextcnt@GOTOFF(%ebx), %ecx
  47      0000
  48              		.loc 1 65 3 view .LVU7
  49 0037 83C410   		addl	$16, %esp
  50              		.cfi_def_cfa_offset 16
  51 003a 8D90E803 		leal	1000(%eax), %edx
  51      0000
  52 0040 89930400 		movl	%edx, 4+nextcnt@GOTOFF(%ebx)
  52      0000
  53              		.loc 1 65 3 view .LVU8
  54 0046 81FA3F42 		cmpl	$999999, %edx
  54      0F00
  55 004c 7E14     		jle	.L1
  56              		.loc 1 65 3 discriminator 1 view .LVU9
  57 004e 83C101   		addl	$1, %ecx
  58 0051 2D583E0F 		subl	$999000, %eax
  58      00
  59 0056 898B0000 		movl	%ecx, nextcnt@GOTOFF(%ebx)
  59      0000
  60              		.loc 1 65 3 discriminator 1 view .LVU10
  61 005c 89830400 		movl	%eax, 4+nextcnt@GOTOFF(%ebx)
  61      0000
  62              		.loc 1 65 3 discriminator 1 view .LVU11
  63              	.L1:
  64              		.loc 1 66 1 is_stmt 0 view .LVU12
  65 0062 83C408   		addl	$8, %esp
  66              		.cfi_def_cfa_offset 8
  67 0065 5B       		popl	%ebx
  68              		.cfi_restore 3
  69              		.cfi_def_cfa_offset 4
  70 0066 C3       		ret
  71              		.cfi_endproc
  72              	.LFE309:
  73              		.size	hal_lld_init, .-hal_lld_init
  74              		.section	.text._sim_check_for_interrupts,"ax",@progbits
  75              		.p2align 4
  76              		.globl	_sim_check_for_interrupts
  77              		.type	_sim_check_for_interrupts, @function
  78              	_sim_check_for_interrupts:
  79              	.LFB310:
  80              		.loc 1 71 38 is_stmt 1 view -0
  81              		.cfi_startproc
  82 0000 57       		pushl	%edi
  83              		.cfi_def_cfa_offset 8
  84              		.cfi_offset 7, -8
  85 0001 56       		pushl	%esi
  86              		.cfi_def_cfa_offset 12
  87              		.cfi_offset 6, -12
  88 0002 53       		pushl	%ebx
  89              		.cfi_def_cfa_offset 16
  90              		.cfi_offset 3, -16
  91 0003 E8FCFFFF 		call	__x86.get_pc_thunk.bx
  91      FF
  92 0008 81C30200 		addl	$_GLOBAL_OFFSET_TABLE_, %ebx
  92      0000
  93 000e 83EC10   		subl	$16, %esp
  94              		.cfi_def_cfa_offset 32
GAS LISTING /tmp/cchzXoU3.s 			page 3


  95              		.loc 1 71 38 is_stmt 0 view .LVU14
  96 0011 65A11400 		movl	%gs:20, %eax
  96      0000
  97 0017 8944240C 		movl	%eax, 12(%esp)
  98 001b 31C0     		xorl	%eax, %eax
  99              		.loc 1 72 3 is_stmt 1 view .LVU15
 100              		.loc 1 73 3 view .LVU16
 101              	.LVL2:
 102              		.loc 1 76 3 view .LVU17
 103              		.loc 1 76 7 is_stmt 0 view .LVU18
 104 001d E8FCFFFF 		call	sd_lld_interrupt_pending@PLT
 104      FF
 105              	.LVL3:
 106              		.loc 1 81 3 view .LVU19
 107 0022 83EC08   		subl	$8, %esp
 108              		.cfi_def_cfa_offset 40
 109 0025 6A00     		pushl	$0
 110              		.cfi_def_cfa_offset 44
 111              		.loc 1 76 7 view .LVU20
 112 0027 89C6     		movl	%eax, %esi
 113              	.LVL4:
 114              		.loc 1 81 3 is_stmt 1 view .LVU21
 115 0029 8D442410 		leal	16(%esp), %eax
 116              	.LVL5:
 117              		.loc 1 81 3 is_stmt 0 view .LVU22
 118 002d 50       		pushl	%eax
 119              		.cfi_def_cfa_offset 48
 120 002e E8FCFFFF 		call	gettimeofday@PLT
 120      FF
 121              	.LVL6:
 122              		.loc 1 82 3 is_stmt 1 view .LVU23
 123              		.loc 1 82 7 is_stmt 0 view .LVU24
 124 0033 83C410   		addl	$16, %esp
 125              		.cfi_def_cfa_offset 32
 126 0036 8B830000 		movl	nextcnt@GOTOFF(%ebx), %eax
 126      0000
 127 003c 39442404 		cmpl	%eax, 4(%esp)
 128 0040 747E     		je	.L18
 129              		.loc 1 82 6 discriminator 2 view .LVU25
 130 0042 0F8C8400 		jl	.L8
 130      0000
 131              		.loc 1 82 7 view .LVU26
 132 0048 8B930400 		movl	4+nextcnt@GOTOFF(%ebx), %edx
 132      0000
 133              	.L7:
 134              		.loc 1 83 5 is_stmt 1 view .LVU27
 135              	.LVL7:
 136              		.loc 1 84 5 view .LVU28
 137              		.loc 1 84 5 view .LVU29
 138              		.loc 1 84 5 view .LVU30
 139 004e 8D8AE803 		leal	1000(%edx), %ecx
 139      0000
 140 0054 898B0400 		movl	%ecx, 4+nextcnt@GOTOFF(%ebx)
 140      0000
 141              		.loc 1 84 5 view .LVU31
 142 005a 81F93F42 		cmpl	$999999, %ecx
 142      0F00
GAS LISTING /tmp/cchzXoU3.s 			page 4


 143 0060 7E15     		jle	.L9
 144              		.loc 1 84 5 discriminator 1 view .LVU32
 145 0062 83C001   		addl	$1, %eax
 146 0065 81EA583E 		subl	$999000, %edx
 146      0F00
 147 006b 89830000 		movl	%eax, nextcnt@GOTOFF(%ebx)
 147      0000
 148              		.loc 1 84 5 discriminator 1 view .LVU33
 149 0071 89930400 		movl	%edx, 4+nextcnt@GOTOFF(%ebx)
 149      0000
 150              	.L9:
 151              		.loc 1 84 5 discriminator 3 view .LVU34
 152              		.loc 1 86 5 discriminator 3 view .LVU35
 153 0077 8BB30000 		movl	port_isr_context_flag@GOT(%ebx), %esi
 153      0000
 154              	.LBB14:
 155              	.LBB15:
 156              	.LBB16:
 157              		.file 2 "../../../os/common/ports/SIMIA32/chcore.h"
 158              		.loc 2 382 16 is_stmt 0 discriminator 3 view .LVU36
 159 007d 8BBB0000 		movl	port_irq_sts@GOT(%ebx), %edi
 159      0000
 160              	.LBE16:
 161              	.LBE15:
 162              	.LBE14:
 163              		.loc 1 86 5 discriminator 3 view .LVU37
 164 0083 C60601   		movb	$1, (%esi)
 165              		.loc 1 86 5 is_stmt 1 discriminator 3 view .LVU38
 166              		.loc 1 86 5 discriminator 3 view .LVU39
 167              		.loc 1 86 5 discriminator 3 view .LVU40
 168              		.loc 1 86 5 discriminator 3 view .LVU41
 169              		.loc 1 86 5 discriminator 3 view .LVU42
 170              		.loc 1 86 22 discriminator 3 view .LVU43
 171              		.loc 1 88 5 discriminator 3 view .LVU44
 172              	.LBB19:
 173              	.LBI14:
 174              		.file 3 "../../../os/rt/include/chsys.h"
 175              		.loc 3 451 20 discriminator 3 view .LVU45
 176              		.loc 3 453 3 discriminator 3 view .LVU46
 177              	.LBB18:
 178              	.LBI15:
 179              		.loc 2 380 20 discriminator 3 view .LVU47
 180              	.LBB17:
 181              		.loc 2 382 3 discriminator 3 view .LVU48
 182              		.loc 2 382 16 is_stmt 0 discriminator 3 view .LVU49
 183 0086 C7070100 		movl	$1, (%edi)
 183      0000
 184              	.LBE17:
 185              	.LBE18:
 186              		.loc 3 454 35 is_stmt 1 discriminator 3 view .LVU50
 187              		.loc 3 455 30 discriminator 3 view .LVU51
 188              	.LBE19:
 189              		.loc 1 89 5 discriminator 3 view .LVU52
 190 008c E8FCFFFF 		call	chSysTimerHandlerI@PLT
 190      FF
 191              	.LVL8:
 192              		.loc 1 90 5 discriminator 3 view .LVU53
GAS LISTING /tmp/cchzXoU3.s 			page 5


 193              	.LBB20:
 194              	.LBI20:
 195              		.loc 3 473 20 discriminator 3 view .LVU54
 196              		.loc 3 475 32 discriminator 3 view .LVU55
 197              		.loc 3 476 34 discriminator 3 view .LVU56
 198              		.loc 3 477 3 discriminator 3 view .LVU57
 199              	.LBB21:
 200              	.LBI21:
 201              		.loc 2 390 20 discriminator 3 view .LVU58
 202              	.LBB22:
 203              		.loc 2 392 3 discriminator 3 view .LVU59
 204              		.loc 2 392 16 is_stmt 0 discriminator 3 view .LVU60
 205 0091 C7070000 		movl	$0, (%edi)
 205      0000
 206              	.LBE22:
 207              	.LBE21:
 208              	.LBE20:
 209              		.loc 1 92 5 is_stmt 1 discriminator 3 view .LVU61
 210              		.loc 1 92 5 discriminator 3 view .LVU62
 211              		.loc 1 92 5 discriminator 3 view .LVU63
 212              		.loc 1 92 5 discriminator 3 view .LVU64
 213              		.loc 1 92 5 discriminator 3 view .LVU65
 214 0097 C60600   		movb	$0, (%esi)
 215              		.loc 1 92 22 discriminator 3 view .LVU66
 216              		.loc 1 95 3 discriminator 3 view .LVU67
 217              		.loc 1 96 23 discriminator 3 view .LVU68
 218              		.loc 1 97 5 discriminator 3 view .LVU69
 219              		.loc 1 97 9 is_stmt 0 discriminator 3 view .LVU70
 220 009a E8FCFFFF 		call	chSchIsPreemptionRequired@PLT
 220      FF
 221              	.LVL9:
 222              		.loc 1 97 8 discriminator 3 view .LVU71
 223 009f 84C0     		testb	%al, %al
 224 00a1 7538     		jne	.L19
 225              	.LVL10:
 226              	.L5:
 227              		.loc 1 101 1 view .LVU72
 228 00a3 8B44240C 		movl	12(%esp), %eax
 229 00a7 652B0514 		subl	%gs:20, %eax
 229      000000
 230 00ae 7532     		jne	.L20
 231 00b0 83C410   		addl	$16, %esp
 232              		.cfi_remember_state
 233              		.cfi_def_cfa_offset 16
 234 00b3 5B       		popl	%ebx
 235              		.cfi_restore 3
 236              		.cfi_def_cfa_offset 12
 237 00b4 5E       		popl	%esi
 238              		.cfi_restore 6
 239              		.cfi_def_cfa_offset 8
 240 00b5 5F       		popl	%edi
 241              		.cfi_restore 7
 242              		.cfi_def_cfa_offset 4
 243 00b6 C3       		ret
 244              	.LVL11:
 245 00b7 8DB42600 		.p2align 4,,10
 245      00000066 
GAS LISTING /tmp/cchzXoU3.s 			page 6


 245      90
 246              		.p2align 3
 247              	.L18:
 248              		.cfi_restore_state
 249              		.loc 1 82 7 discriminator 1 view .LVU73
 250 00c0 8B930400 		movl	4+nextcnt@GOTOFF(%ebx), %edx
 250      0000
 251              		.loc 1 82 6 discriminator 1 view .LVU74
 252 00c6 39542408 		cmpl	%edx, 8(%esp)
 253 00ca 7D82     		jge	.L7
 254              	.L8:
 255              		.loc 1 92 22 is_stmt 1 discriminator 1 view .LVU75
 256              		.loc 1 95 3 discriminator 1 view .LVU76
 257              		.loc 1 95 6 is_stmt 0 discriminator 1 view .LVU77
 258 00cc 89F0     		movl	%esi, %eax
 259 00ce 84C0     		testb	%al, %al
 260 00d0 74D1     		je	.L5
 261              	.LVL12:
 262              		.loc 1 96 23 is_stmt 1 view .LVU78
 263              		.loc 1 97 5 view .LVU79
 264              		.loc 1 97 9 is_stmt 0 view .LVU80
 265 00d2 E8FCFFFF 		call	chSchIsPreemptionRequired@PLT
 265      FF
 266              	.LVL13:
 267              		.loc 1 97 8 view .LVU81
 268 00d7 84C0     		testb	%al, %al
 269 00d9 74C8     		je	.L5
 270              	.LVL14:
 271              	.L19:
 272              		.loc 1 98 7 is_stmt 1 view .LVU82
 273 00db E8FCFFFF 		call	chSchDoPreemption@PLT
 273      FF
 274              	.LVL15:
 275              		.loc 1 99 25 view .LVU83
 276              		.loc 1 101 1 is_stmt 0 view .LVU84
 277 00e0 EBC1     		jmp	.L5
 278              	.L20:
 279 00e2 E8FCFFFF 		call	__stack_chk_fail_local
 279      FF
 280              	.LVL16:
 281              		.cfi_endproc
 282              	.LFE310:
 283              		.size	_sim_check_for_interrupts, .-_sim_check_for_interrupts
 284              		.section	.bss.nextcnt,"aw",@nobits
 285              		.align 4
 286              		.type	nextcnt, @object
 287              		.size	nextcnt, 8
 288              	nextcnt:
 289 0000 00000000 		.zero	8
 289      00000000 
 290              		.section	.text.__x86.get_pc_thunk.bx,"axG",@progbits,__x86.get_pc_thunk.bx,comdat
 291              		.globl	__x86.get_pc_thunk.bx
 292              		.hidden	__x86.get_pc_thunk.bx
 293              		.type	__x86.get_pc_thunk.bx, @function
 294              	__x86.get_pc_thunk.bx:
 295              	.LFB311:
 296              		.cfi_startproc
GAS LISTING /tmp/cchzXoU3.s 			page 7


 297 0000 8B1C24   		movl	(%esp), %ebx
 298 0003 C3       		ret
 299              		.cfi_endproc
 300              	.LFE311:
 301              		.text
 302              	.Letext0:
 303              		.file 4 "/usr/include/bits/types.h"
 304              		.file 5 "/usr/include/bits/types/struct_timeval.h"
 305              		.file 6 "/usr/include/bits/stdint-uintn.h"
 306              		.file 7 "../../../os/common/ports/SIMIA32/compilers/GCC/chtypes.h"
 307              		.file 8 "../../../os/rt/include/chschd.h"
 308              		.file 9 "../../../os/hal/ports/simulator/posix/hal_serial_lld.h"
 309              		.file 10 "/usr/include/sys/time.h"
 310              		.file 11 "/usr/include/stdio.h"
 311              		.section	.debug_info,"",@progbits
 312              	.Ldebug_info0:
 313 0000 AF020000 		.long	0x2af
 314 0004 0500     		.value	0x5
 315 0006 01       		.byte	0x1
 316 0007 04       		.byte	0x4
 317 0008 00000000 		.long	.Ldebug_abbrev0
 318 000c 0C       		.uleb128 0xc
 319 000d DE000000 		.long	.LASF38
 320 0011 1D       		.byte	0x1d
 321 0012 00000000 		.long	.LASF0
 322 0016 30000000 		.long	.LASF1
 323 001a 18000000 		.long	.LLRL2
 324 001e 00000000 		.long	0
 325 0022 00000000 		.long	.Ldebug_line0
 326 0026 01       		.uleb128 0x1
 327 0027 04       		.byte	0x4
 328 0028 07       		.byte	0x7
 329 0029 B5010000 		.long	.LASF2
 330 002d 01       		.uleb128 0x1
 331 002e 01       		.byte	0x1
 332 002f 06       		.byte	0x6
 333 0030 ED010000 		.long	.LASF3
 334 0034 0D       		.uleb128 0xd
 335 0035 2D000000 		.long	0x2d
 336 0039 01       		.uleb128 0x1
 337 003a 01       		.byte	0x1
 338 003b 08       		.byte	0x8
 339 003c 4D000000 		.long	.LASF4
 340 0040 01       		.uleb128 0x1
 341 0041 02       		.byte	0x2
 342 0042 07       		.byte	0x7
 343 0043 8B000000 		.long	.LASF5
 344 0047 01       		.uleb128 0x1
 345 0048 04       		.byte	0x4
 346 0049 07       		.byte	0x7
 347 004a 79000000 		.long	.LASF6
 348 004e 01       		.uleb128 0x1
 349 004f 01       		.byte	0x1
 350 0050 06       		.byte	0x6
 351 0051 A3020000 		.long	.LASF7
 352 0055 01       		.uleb128 0x1
 353 0056 02       		.byte	0x2
GAS LISTING /tmp/cchzXoU3.s 			page 8


 354 0057 05       		.byte	0x5
 355 0058 70020000 		.long	.LASF8
 356 005c 0E       		.uleb128 0xe
 357 005d 04       		.byte	0x4
 358 005e 05       		.byte	0x5
 359 005f 696E7400 		.string	"int"
 360 0063 03       		.uleb128 0x3
 361 0064 A2010000 		.long	.LASF12
 362 0068 04       		.byte	0x4
 363 0069 2A       		.byte	0x2a
 364 006a 16       		.byte	0x16
 365 006b 26000000 		.long	0x26
 366 006f 01       		.uleb128 0x1
 367 0070 08       		.byte	0x8
 368 0071 05       		.byte	0x5
 369 0072 3C020000 		.long	.LASF9
 370 0076 01       		.uleb128 0x1
 371 0077 08       		.byte	0x8
 372 0078 07       		.byte	0x7
 373 0079 36000000 		.long	.LASF10
 374 007d 01       		.uleb128 0x1
 375 007e 04       		.byte	0x4
 376 007f 05       		.byte	0x5
 377 0080 8D020000 		.long	.LASF11
 378 0084 03       		.uleb128 0x3
 379 0085 BA000000 		.long	.LASF13
 380 0089 04       		.byte	0x4
 381 008a A0       		.byte	0xa0
 382 008b 1A       		.byte	0x1a
 383 008c 7D000000 		.long	0x7d
 384 0090 03       		.uleb128 0x3
 385 0091 F2010000 		.long	.LASF14
 386 0095 04       		.byte	0x4
 387 0096 A2       		.byte	0xa2
 388 0097 1F       		.byte	0x1f
 389 0098 7D000000 		.long	0x7d
 390 009c 0F       		.uleb128 0xf
 391 009d 04       		.byte	0x4
 392 009e 06       		.uleb128 0x6
 393 009f 9C000000 		.long	0x9c
 394 00a3 10       		.uleb128 0x10
 395 00a4 AD010000 		.long	.LASF39
 396 00a8 08       		.byte	0x8
 397 00a9 05       		.byte	0x5
 398 00aa 08       		.byte	0x8
 399 00ab 08       		.byte	0x8
 400 00ac C9000000 		.long	0xc9
 401 00b0 07       		.uleb128 0x7
 402 00b1 35020000 		.long	.LASF15
 403 00b5 0E       		.byte	0xe
 404 00b6 0C       		.byte	0xc
 405 00b7 84000000 		.long	0x84
 406 00bb 00       		.byte	0
 407 00bc 07       		.uleb128 0x7
 408 00bd 00020000 		.long	.LASF16
 409 00c1 0F       		.byte	0xf
 410 00c2 11       		.byte	0x11
GAS LISTING /tmp/cchzXoU3.s 			page 9


 411 00c3 90000000 		.long	0x90
 412 00c7 04       		.byte	0x4
 413 00c8 00       		.byte	0
 414 00c9 01       		.uleb128 0x1
 415 00ca 0C       		.byte	0xc
 416 00cb 04       		.byte	0x4
 417 00cc 96010000 		.long	.LASF17
 418 00d0 01       		.uleb128 0x1
 419 00d1 10       		.byte	0x10
 420 00d2 04       		.byte	0x4
 421 00d3 00000000 		.long	.LASF18
 422 00d7 03       		.uleb128 0x3
 423 00d8 9E000000 		.long	.LASF19
 424 00dc 06       		.byte	0x6
 425 00dd 1A       		.byte	0x1a
 426 00de 14       		.byte	0x14
 427 00df 63000000 		.long	0x63
 428 00e3 03       		.uleb128 0x3
 429 00e4 70000000 		.long	.LASF20
 430 00e8 07       		.byte	0x7
 431 00e9 37       		.byte	0x37
 432 00ea 1D       		.byte	0x1d
 433 00eb D7000000 		.long	0xd7
 434 00ef 08       		.uleb128 0x8
 435 00f0 34000000 		.long	0x34
 436 00f4 09       		.uleb128 0x9
 437 00f5 C8000000 		.long	.LASF22
 438 00f9 1B01     		.value	0x11b
 439 00fb 0D       		.byte	0xd
 440 00fc 00010000 		.long	0x100
 441 0100 01       		.uleb128 0x1
 442 0101 01       		.byte	0x1
 443 0102 02       		.byte	0x2
 444 0103 C6020000 		.long	.LASF21
 445 0107 09       		.uleb128 0x9
 446 0108 28020000 		.long	.LASF23
 447 010c 1C01     		.value	0x11c
 448 010e 11       		.byte	0x11
 449 010f E3000000 		.long	0xe3
 450 0113 11       		.uleb128 0x11
 451 0114 9B020000 		.long	.LASF30
 452 0118 01       		.byte	0x1
 453 0119 27       		.byte	0x27
 454 011a 17       		.byte	0x17
 455 011b A3000000 		.long	0xa3
 456 011f 05       		.uleb128 0x5
 457 0120 03       		.byte	0x3
 458 0121 00000000 		.long	nextcnt
 459 0125 12       		.uleb128 0x12
 460 0126 C3000000 		.long	.LASF40
 461 012a 01       		.byte	0x1
 462 012b 28       		.byte	0x28
 463 012c 17       		.byte	0x17
 464 012d A3000000 		.long	0xa3
 465 0131 13       		.uleb128 0x13
 466 0132 0A000000 		.long	.LASF24
 467 0136 08       		.byte	0x8
GAS LISTING /tmp/cchzXoU3.s 			page 10


 468 0137 96       		.byte	0x96
 469 0138 08       		.byte	0x8
 470 0139 0A       		.uleb128 0xa
 471 013a C2010000 		.long	.LASF26
 472 013e 08       		.byte	0x8
 473 013f 95       		.byte	0x95
 474 0140 00010000 		.long	0x100
 475 0144 14       		.uleb128 0x14
 476 0145 A7000000 		.long	.LASF25
 477 0149 03       		.byte	0x3
 478 014a 5101     		.value	0x151
 479 014c 08       		.byte	0x8
 480 014d 0A       		.uleb128 0xa
 481 014e 4A020000 		.long	.LASF27
 482 0152 09       		.byte	0x9
 483 0153 86       		.byte	0x86
 484 0154 00010000 		.long	0x100
 485 0158 15       		.uleb128 0x15
 486 0159 1B020000 		.long	.LASF28
 487 015d 0A       		.byte	0xa
 488 015e 43       		.byte	0x43
 489 015f 0C       		.byte	0xc
 490 0160 5C000000 		.long	0x5c
 491 0164 73010000 		.long	0x173
 492 0168 05       		.uleb128 0x5
 493 0169 78010000 		.long	0x178
 494 016d 05       		.uleb128 0x5
 495 016e 9E000000 		.long	0x9e
 496 0172 00       		.byte	0
 497 0173 08       		.uleb128 0x8
 498 0174 A3000000 		.long	0xa3
 499 0178 06       		.uleb128 0x6
 500 0179 73010000 		.long	0x173
 501 017d 16       		.uleb128 0x16
 502 017e 96020000 		.long	.LASF29
 503 0182 0B       		.byte	0xb
 504 0183 9502     		.value	0x295
 505 0185 0C       		.byte	0xc
 506 0186 5C000000 		.long	0x5c
 507 018a 94010000 		.long	0x194
 508 018e 05       		.uleb128 0x5
 509 018f EF000000 		.long	0xef
 510 0193 00       		.byte	0
 511 0194 0B       		.uleb128 0xb
 512 0195 1C000000 		.long	.LASF32
 513 0199 47       		.byte	0x47
 514 019a 00000000 		.long	.LFB310
 515 019e E7000000 		.long	.LFE310-.LFB310
 516 01a2 01       		.uleb128 0x1
 517 01a3 9C       		.byte	0x9c
 518 01a4 62020000 		.long	0x262
 519 01a8 17       		.uleb128 0x17
 520 01a9 747600   		.string	"tv"
 521 01ac 01       		.byte	0x1
 522 01ad 48       		.byte	0x48
 523 01ae 12       		.byte	0x12
 524 01af A3000000 		.long	0xa3
GAS LISTING /tmp/cchzXoU3.s 			page 11


 525 01b3 02       		.uleb128 0x2
 526 01b4 91       		.byte	0x91
 527 01b5 64       		.sleb128 -28
 528 01b6 18       		.uleb128 0x18
 529 01b7 CC020000 		.long	.LASF31
 530 01bb 01       		.byte	0x1
 531 01bc 49       		.byte	0x49
 532 01bd 08       		.byte	0x8
 533 01be 00010000 		.long	0x100
 534 01c2 1A000000 		.long	.LLST0
 535 01c6 0C000000 		.long	.LVUS0
 536 01ca 19       		.uleb128 0x19
 537 01cb 91020000 		.long	0x291
 538 01cf 86000000 		.long	.LBI14
 539 01d3 07       		.byte	.LVU45
 540 01d4 0C000000 		.long	.LLRL1
 541 01d8 01       		.byte	0x1
 542 01d9 58       		.byte	0x58
 543 01da 05       		.byte	0x5
 544 01db F2010000 		.long	0x1f2
 545 01df 1A       		.uleb128 0x1a
 546 01e0 A1020000 		.long	0x2a1
 547 01e4 86000000 		.long	.LBI15
 548 01e8 09       		.byte	.LVU47
 549 01e9 0C000000 		.long	.LLRL1
 550 01ed 03       		.byte	0x3
 551 01ee C501     		.value	0x1c5
 552 01f0 03       		.byte	0x3
 553 01f1 00       		.byte	0
 554 01f2 1B       		.uleb128 0x1b
 555 01f3 89020000 		.long	0x289
 556 01f7 91000000 		.long	.LBI20
 557 01fb 01       		.byte	.LVU54
 558 01fc 91000000 		.long	.LBB20
 559 0200 06000000 		.long	.LBE20-.LBB20
 560 0204 01       		.byte	0x1
 561 0205 5A       		.byte	0x5a
 562 0206 05       		.byte	0x5
 563 0207 22020000 		.long	0x222
 564 020b 1C       		.uleb128 0x1c
 565 020c 99020000 		.long	0x299
 566 0210 91000000 		.long	.LBI21
 567 0214 05       		.byte	.LVU58
 568 0215 91000000 		.long	.LBB21
 569 0219 06000000 		.long	.LBE21-.LBB21
 570 021d 03       		.byte	0x3
 571 021e DD01     		.value	0x1dd
 572 0220 03       		.byte	0x3
 573 0221 00       		.byte	0
 574 0222 02       		.uleb128 0x2
 575 0223 22000000 		.long	.LVL3
 576 0227 4D010000 		.long	0x14d
 577 022b 02       		.uleb128 0x2
 578 022c 33000000 		.long	.LVL6
 579 0230 58010000 		.long	0x158
 580 0234 02       		.uleb128 0x2
 581 0235 91000000 		.long	.LVL8
GAS LISTING /tmp/cchzXoU3.s 			page 12


 582 0239 44010000 		.long	0x144
 583 023d 02       		.uleb128 0x2
 584 023e 9F000000 		.long	.LVL9
 585 0242 39010000 		.long	0x139
 586 0246 02       		.uleb128 0x2
 587 0247 D7000000 		.long	.LVL13
 588 024b 39010000 		.long	0x139
 589 024f 02       		.uleb128 0x2
 590 0250 E0000000 		.long	.LVL15
 591 0254 31010000 		.long	0x131
 592 0258 02       		.uleb128 0x2
 593 0259 E7000000 		.long	.LVL16
 594 025d A9020000 		.long	0x2a9
 595 0261 00       		.byte	0
 596 0262 0B       		.uleb128 0xb
 597 0263 63020000 		.long	.LASF33
 598 0267 39       		.byte	0x39
 599 0268 00000000 		.long	.LFB309
 600 026c 67000000 		.long	.LFE309-.LFB309
 601 0270 01       		.uleb128 0x1
 602 0271 9C       		.byte	0x9c
 603 0272 89020000 		.long	0x289
 604 0276 02       		.uleb128 0x2
 605 0277 1B000000 		.long	.LVL0
 606 027b 7D010000 		.long	0x17d
 607 027f 02       		.uleb128 0x2
 608 0280 2B000000 		.long	.LVL1
 609 0284 58010000 		.long	0x158
 610 0288 00       		.byte	0
 611 0289 04       		.uleb128 0x4
 612 028a 08020000 		.long	.LASF34
 613 028e 03       		.byte	0x3
 614 028f D901     		.value	0x1d9
 615 0291 04       		.uleb128 0x4
 616 0292 DC010000 		.long	.LASF35
 617 0296 03       		.byte	0x3
 618 0297 C301     		.value	0x1c3
 619 0299 04       		.uleb128 0x4
 620 029a 5B000000 		.long	.LASF36
 621 029e 02       		.byte	0x2
 622 029f 8601     		.value	0x186
 623 02a1 04       		.uleb128 0x4
 624 02a2 7A020000 		.long	.LASF37
 625 02a6 02       		.byte	0x2
 626 02a7 7C01     		.value	0x17c
 627 02a9 1D       		.uleb128 0x1d
 628 02aa AF020000 		.long	.LASF41
 629 02ae AF020000 		.long	.LASF41
 630 02b2 00       		.byte	0
 631              		.section	.debug_abbrev,"",@progbits
 632              	.Ldebug_abbrev0:
 633 0000 01       		.uleb128 0x1
 634 0001 24       		.uleb128 0x24
 635 0002 00       		.byte	0
 636 0003 0B       		.uleb128 0xb
 637 0004 0B       		.uleb128 0xb
 638 0005 3E       		.uleb128 0x3e
GAS LISTING /tmp/cchzXoU3.s 			page 13


 639 0006 0B       		.uleb128 0xb
 640 0007 03       		.uleb128 0x3
 641 0008 0E       		.uleb128 0xe
 642 0009 00       		.byte	0
 643 000a 00       		.byte	0
 644 000b 02       		.uleb128 0x2
 645 000c 48       		.uleb128 0x48
 646 000d 00       		.byte	0
 647 000e 7D       		.uleb128 0x7d
 648 000f 01       		.uleb128 0x1
 649 0010 7F       		.uleb128 0x7f
 650 0011 13       		.uleb128 0x13
 651 0012 00       		.byte	0
 652 0013 00       		.byte	0
 653 0014 03       		.uleb128 0x3
 654 0015 16       		.uleb128 0x16
 655 0016 00       		.byte	0
 656 0017 03       		.uleb128 0x3
 657 0018 0E       		.uleb128 0xe
 658 0019 3A       		.uleb128 0x3a
 659 001a 0B       		.uleb128 0xb
 660 001b 3B       		.uleb128 0x3b
 661 001c 0B       		.uleb128 0xb
 662 001d 39       		.uleb128 0x39
 663 001e 0B       		.uleb128 0xb
 664 001f 49       		.uleb128 0x49
 665 0020 13       		.uleb128 0x13
 666 0021 00       		.byte	0
 667 0022 00       		.byte	0
 668 0023 04       		.uleb128 0x4
 669 0024 2E       		.uleb128 0x2e
 670 0025 00       		.byte	0
 671 0026 03       		.uleb128 0x3
 672 0027 0E       		.uleb128 0xe
 673 0028 3A       		.uleb128 0x3a
 674 0029 0B       		.uleb128 0xb
 675 002a 3B       		.uleb128 0x3b
 676 002b 05       		.uleb128 0x5
 677 002c 39       		.uleb128 0x39
 678 002d 21       		.uleb128 0x21
 679 002e 14       		.sleb128 20
 680 002f 27       		.uleb128 0x27
 681 0030 19       		.uleb128 0x19
 682 0031 20       		.uleb128 0x20
 683 0032 21       		.uleb128 0x21
 684 0033 03       		.sleb128 3
 685 0034 00       		.byte	0
 686 0035 00       		.byte	0
 687 0036 05       		.uleb128 0x5
 688 0037 05       		.uleb128 0x5
 689 0038 00       		.byte	0
 690 0039 49       		.uleb128 0x49
 691 003a 13       		.uleb128 0x13
 692 003b 00       		.byte	0
 693 003c 00       		.byte	0
 694 003d 06       		.uleb128 0x6
 695 003e 37       		.uleb128 0x37
GAS LISTING /tmp/cchzXoU3.s 			page 14


 696 003f 00       		.byte	0
 697 0040 49       		.uleb128 0x49
 698 0041 13       		.uleb128 0x13
 699 0042 00       		.byte	0
 700 0043 00       		.byte	0
 701 0044 07       		.uleb128 0x7
 702 0045 0D       		.uleb128 0xd
 703 0046 00       		.byte	0
 704 0047 03       		.uleb128 0x3
 705 0048 0E       		.uleb128 0xe
 706 0049 3A       		.uleb128 0x3a
 707 004a 21       		.uleb128 0x21
 708 004b 05       		.sleb128 5
 709 004c 3B       		.uleb128 0x3b
 710 004d 0B       		.uleb128 0xb
 711 004e 39       		.uleb128 0x39
 712 004f 0B       		.uleb128 0xb
 713 0050 49       		.uleb128 0x49
 714 0051 13       		.uleb128 0x13
 715 0052 38       		.uleb128 0x38
 716 0053 0B       		.uleb128 0xb
 717 0054 00       		.byte	0
 718 0055 00       		.byte	0
 719 0056 08       		.uleb128 0x8
 720 0057 0F       		.uleb128 0xf
 721 0058 00       		.byte	0
 722 0059 0B       		.uleb128 0xb
 723 005a 21       		.uleb128 0x21
 724 005b 04       		.sleb128 4
 725 005c 49       		.uleb128 0x49
 726 005d 13       		.uleb128 0x13
 727 005e 00       		.byte	0
 728 005f 00       		.byte	0
 729 0060 09       		.uleb128 0x9
 730 0061 34       		.uleb128 0x34
 731 0062 00       		.byte	0
 732 0063 03       		.uleb128 0x3
 733 0064 0E       		.uleb128 0xe
 734 0065 3A       		.uleb128 0x3a
 735 0066 21       		.uleb128 0x21
 736 0067 02       		.sleb128 2
 737 0068 3B       		.uleb128 0x3b
 738 0069 05       		.uleb128 0x5
 739 006a 39       		.uleb128 0x39
 740 006b 0B       		.uleb128 0xb
 741 006c 49       		.uleb128 0x49
 742 006d 13       		.uleb128 0x13
 743 006e 3F       		.uleb128 0x3f
 744 006f 19       		.uleb128 0x19
 745 0070 3C       		.uleb128 0x3c
 746 0071 19       		.uleb128 0x19
 747 0072 00       		.byte	0
 748 0073 00       		.byte	0
 749 0074 0A       		.uleb128 0xa
 750 0075 2E       		.uleb128 0x2e
 751 0076 00       		.byte	0
 752 0077 3F       		.uleb128 0x3f
GAS LISTING /tmp/cchzXoU3.s 			page 15


 753 0078 19       		.uleb128 0x19
 754 0079 03       		.uleb128 0x3
 755 007a 0E       		.uleb128 0xe
 756 007b 3A       		.uleb128 0x3a
 757 007c 0B       		.uleb128 0xb
 758 007d 3B       		.uleb128 0x3b
 759 007e 0B       		.uleb128 0xb
 760 007f 39       		.uleb128 0x39
 761 0080 21       		.uleb128 0x21
 762 0081 08       		.sleb128 8
 763 0082 27       		.uleb128 0x27
 764 0083 19       		.uleb128 0x19
 765 0084 49       		.uleb128 0x49
 766 0085 13       		.uleb128 0x13
 767 0086 3C       		.uleb128 0x3c
 768 0087 19       		.uleb128 0x19
 769 0088 00       		.byte	0
 770 0089 00       		.byte	0
 771 008a 0B       		.uleb128 0xb
 772 008b 2E       		.uleb128 0x2e
 773 008c 01       		.byte	0x1
 774 008d 3F       		.uleb128 0x3f
 775 008e 19       		.uleb128 0x19
 776 008f 03       		.uleb128 0x3
 777 0090 0E       		.uleb128 0xe
 778 0091 3A       		.uleb128 0x3a
 779 0092 21       		.uleb128 0x21
 780 0093 01       		.sleb128 1
 781 0094 3B       		.uleb128 0x3b
 782 0095 0B       		.uleb128 0xb
 783 0096 39       		.uleb128 0x39
 784 0097 21       		.uleb128 0x21
 785 0098 06       		.sleb128 6
 786 0099 27       		.uleb128 0x27
 787 009a 19       		.uleb128 0x19
 788 009b 11       		.uleb128 0x11
 789 009c 01       		.uleb128 0x1
 790 009d 12       		.uleb128 0x12
 791 009e 06       		.uleb128 0x6
 792 009f 40       		.uleb128 0x40
 793 00a0 18       		.uleb128 0x18
 794 00a1 7A       		.uleb128 0x7a
 795 00a2 19       		.uleb128 0x19
 796 00a3 01       		.uleb128 0x1
 797 00a4 13       		.uleb128 0x13
 798 00a5 00       		.byte	0
 799 00a6 00       		.byte	0
 800 00a7 0C       		.uleb128 0xc
 801 00a8 11       		.uleb128 0x11
 802 00a9 01       		.byte	0x1
 803 00aa 25       		.uleb128 0x25
 804 00ab 0E       		.uleb128 0xe
 805 00ac 13       		.uleb128 0x13
 806 00ad 0B       		.uleb128 0xb
 807 00ae 03       		.uleb128 0x3
 808 00af 1F       		.uleb128 0x1f
 809 00b0 1B       		.uleb128 0x1b
GAS LISTING /tmp/cchzXoU3.s 			page 16


 810 00b1 1F       		.uleb128 0x1f
 811 00b2 55       		.uleb128 0x55
 812 00b3 17       		.uleb128 0x17
 813 00b4 11       		.uleb128 0x11
 814 00b5 01       		.uleb128 0x1
 815 00b6 10       		.uleb128 0x10
 816 00b7 17       		.uleb128 0x17
 817 00b8 00       		.byte	0
 818 00b9 00       		.byte	0
 819 00ba 0D       		.uleb128 0xd
 820 00bb 26       		.uleb128 0x26
 821 00bc 00       		.byte	0
 822 00bd 49       		.uleb128 0x49
 823 00be 13       		.uleb128 0x13
 824 00bf 00       		.byte	0
 825 00c0 00       		.byte	0
 826 00c1 0E       		.uleb128 0xe
 827 00c2 24       		.uleb128 0x24
 828 00c3 00       		.byte	0
 829 00c4 0B       		.uleb128 0xb
 830 00c5 0B       		.uleb128 0xb
 831 00c6 3E       		.uleb128 0x3e
 832 00c7 0B       		.uleb128 0xb
 833 00c8 03       		.uleb128 0x3
 834 00c9 08       		.uleb128 0x8
 835 00ca 00       		.byte	0
 836 00cb 00       		.byte	0
 837 00cc 0F       		.uleb128 0xf
 838 00cd 0F       		.uleb128 0xf
 839 00ce 00       		.byte	0
 840 00cf 0B       		.uleb128 0xb
 841 00d0 0B       		.uleb128 0xb
 842 00d1 00       		.byte	0
 843 00d2 00       		.byte	0
 844 00d3 10       		.uleb128 0x10
 845 00d4 13       		.uleb128 0x13
 846 00d5 01       		.byte	0x1
 847 00d6 03       		.uleb128 0x3
 848 00d7 0E       		.uleb128 0xe
 849 00d8 0B       		.uleb128 0xb
 850 00d9 0B       		.uleb128 0xb
 851 00da 3A       		.uleb128 0x3a
 852 00db 0B       		.uleb128 0xb
 853 00dc 3B       		.uleb128 0x3b
 854 00dd 0B       		.uleb128 0xb
 855 00de 39       		.uleb128 0x39
 856 00df 0B       		.uleb128 0xb
 857 00e0 01       		.uleb128 0x1
 858 00e1 13       		.uleb128 0x13
 859 00e2 00       		.byte	0
 860 00e3 00       		.byte	0
 861 00e4 11       		.uleb128 0x11
 862 00e5 34       		.uleb128 0x34
 863 00e6 00       		.byte	0
 864 00e7 03       		.uleb128 0x3
 865 00e8 0E       		.uleb128 0xe
 866 00e9 3A       		.uleb128 0x3a
GAS LISTING /tmp/cchzXoU3.s 			page 17


 867 00ea 0B       		.uleb128 0xb
 868 00eb 3B       		.uleb128 0x3b
 869 00ec 0B       		.uleb128 0xb
 870 00ed 39       		.uleb128 0x39
 871 00ee 0B       		.uleb128 0xb
 872 00ef 49       		.uleb128 0x49
 873 00f0 13       		.uleb128 0x13
 874 00f1 02       		.uleb128 0x2
 875 00f2 18       		.uleb128 0x18
 876 00f3 00       		.byte	0
 877 00f4 00       		.byte	0
 878 00f5 12       		.uleb128 0x12
 879 00f6 34       		.uleb128 0x34
 880 00f7 00       		.byte	0
 881 00f8 03       		.uleb128 0x3
 882 00f9 0E       		.uleb128 0xe
 883 00fa 3A       		.uleb128 0x3a
 884 00fb 0B       		.uleb128 0xb
 885 00fc 3B       		.uleb128 0x3b
 886 00fd 0B       		.uleb128 0xb
 887 00fe 39       		.uleb128 0x39
 888 00ff 0B       		.uleb128 0xb
 889 0100 49       		.uleb128 0x49
 890 0101 13       		.uleb128 0x13
 891 0102 00       		.byte	0
 892 0103 00       		.byte	0
 893 0104 13       		.uleb128 0x13
 894 0105 2E       		.uleb128 0x2e
 895 0106 00       		.byte	0
 896 0107 3F       		.uleb128 0x3f
 897 0108 19       		.uleb128 0x19
 898 0109 03       		.uleb128 0x3
 899 010a 0E       		.uleb128 0xe
 900 010b 3A       		.uleb128 0x3a
 901 010c 0B       		.uleb128 0xb
 902 010d 3B       		.uleb128 0x3b
 903 010e 0B       		.uleb128 0xb
 904 010f 39       		.uleb128 0x39
 905 0110 0B       		.uleb128 0xb
 906 0111 27       		.uleb128 0x27
 907 0112 19       		.uleb128 0x19
 908 0113 3C       		.uleb128 0x3c
 909 0114 19       		.uleb128 0x19
 910 0115 00       		.byte	0
 911 0116 00       		.byte	0
 912 0117 14       		.uleb128 0x14
 913 0118 2E       		.uleb128 0x2e
 914 0119 00       		.byte	0
 915 011a 3F       		.uleb128 0x3f
 916 011b 19       		.uleb128 0x19
 917 011c 03       		.uleb128 0x3
 918 011d 0E       		.uleb128 0xe
 919 011e 3A       		.uleb128 0x3a
 920 011f 0B       		.uleb128 0xb
 921 0120 3B       		.uleb128 0x3b
 922 0121 05       		.uleb128 0x5
 923 0122 39       		.uleb128 0x39
GAS LISTING /tmp/cchzXoU3.s 			page 18


 924 0123 0B       		.uleb128 0xb
 925 0124 27       		.uleb128 0x27
 926 0125 19       		.uleb128 0x19
 927 0126 3C       		.uleb128 0x3c
 928 0127 19       		.uleb128 0x19
 929 0128 00       		.byte	0
 930 0129 00       		.byte	0
 931 012a 15       		.uleb128 0x15
 932 012b 2E       		.uleb128 0x2e
 933 012c 01       		.byte	0x1
 934 012d 3F       		.uleb128 0x3f
 935 012e 19       		.uleb128 0x19
 936 012f 03       		.uleb128 0x3
 937 0130 0E       		.uleb128 0xe
 938 0131 3A       		.uleb128 0x3a
 939 0132 0B       		.uleb128 0xb
 940 0133 3B       		.uleb128 0x3b
 941 0134 0B       		.uleb128 0xb
 942 0135 39       		.uleb128 0x39
 943 0136 0B       		.uleb128 0xb
 944 0137 27       		.uleb128 0x27
 945 0138 19       		.uleb128 0x19
 946 0139 49       		.uleb128 0x49
 947 013a 13       		.uleb128 0x13
 948 013b 3C       		.uleb128 0x3c
 949 013c 19       		.uleb128 0x19
 950 013d 01       		.uleb128 0x1
 951 013e 13       		.uleb128 0x13
 952 013f 00       		.byte	0
 953 0140 00       		.byte	0
 954 0141 16       		.uleb128 0x16
 955 0142 2E       		.uleb128 0x2e
 956 0143 01       		.byte	0x1
 957 0144 3F       		.uleb128 0x3f
 958 0145 19       		.uleb128 0x19
 959 0146 03       		.uleb128 0x3
 960 0147 0E       		.uleb128 0xe
 961 0148 3A       		.uleb128 0x3a
 962 0149 0B       		.uleb128 0xb
 963 014a 3B       		.uleb128 0x3b
 964 014b 05       		.uleb128 0x5
 965 014c 39       		.uleb128 0x39
 966 014d 0B       		.uleb128 0xb
 967 014e 27       		.uleb128 0x27
 968 014f 19       		.uleb128 0x19
 969 0150 49       		.uleb128 0x49
 970 0151 13       		.uleb128 0x13
 971 0152 3C       		.uleb128 0x3c
 972 0153 19       		.uleb128 0x19
 973 0154 01       		.uleb128 0x1
 974 0155 13       		.uleb128 0x13
 975 0156 00       		.byte	0
 976 0157 00       		.byte	0
 977 0158 17       		.uleb128 0x17
 978 0159 34       		.uleb128 0x34
 979 015a 00       		.byte	0
 980 015b 03       		.uleb128 0x3
GAS LISTING /tmp/cchzXoU3.s 			page 19


 981 015c 08       		.uleb128 0x8
 982 015d 3A       		.uleb128 0x3a
 983 015e 0B       		.uleb128 0xb
 984 015f 3B       		.uleb128 0x3b
 985 0160 0B       		.uleb128 0xb
 986 0161 39       		.uleb128 0x39
 987 0162 0B       		.uleb128 0xb
 988 0163 49       		.uleb128 0x49
 989 0164 13       		.uleb128 0x13
 990 0165 02       		.uleb128 0x2
 991 0166 18       		.uleb128 0x18
 992 0167 00       		.byte	0
 993 0168 00       		.byte	0
 994 0169 18       		.uleb128 0x18
 995 016a 34       		.uleb128 0x34
 996 016b 00       		.byte	0
 997 016c 03       		.uleb128 0x3
 998 016d 0E       		.uleb128 0xe
 999 016e 3A       		.uleb128 0x3a
 1000 016f 0B       		.uleb128 0xb
 1001 0170 3B       		.uleb128 0x3b
 1002 0171 0B       		.uleb128 0xb
 1003 0172 39       		.uleb128 0x39
 1004 0173 0B       		.uleb128 0xb
 1005 0174 49       		.uleb128 0x49
 1006 0175 13       		.uleb128 0x13
 1007 0176 02       		.uleb128 0x2
 1008 0177 17       		.uleb128 0x17
 1009 0178 B742     		.uleb128 0x2137
 1010 017a 17       		.uleb128 0x17
 1011 017b 00       		.byte	0
 1012 017c 00       		.byte	0
 1013 017d 19       		.uleb128 0x19
 1014 017e 1D       		.uleb128 0x1d
 1015 017f 01       		.byte	0x1
 1016 0180 31       		.uleb128 0x31
 1017 0181 13       		.uleb128 0x13
 1018 0182 52       		.uleb128 0x52
 1019 0183 01       		.uleb128 0x1
 1020 0184 B842     		.uleb128 0x2138
 1021 0186 0B       		.uleb128 0xb
 1022 0187 55       		.uleb128 0x55
 1023 0188 17       		.uleb128 0x17
 1024 0189 58       		.uleb128 0x58
 1025 018a 0B       		.uleb128 0xb
 1026 018b 59       		.uleb128 0x59
 1027 018c 0B       		.uleb128 0xb
 1028 018d 57       		.uleb128 0x57
 1029 018e 0B       		.uleb128 0xb
 1030 018f 01       		.uleb128 0x1
 1031 0190 13       		.uleb128 0x13
 1032 0191 00       		.byte	0
 1033 0192 00       		.byte	0
 1034 0193 1A       		.uleb128 0x1a
 1035 0194 1D       		.uleb128 0x1d
 1036 0195 00       		.byte	0
 1037 0196 31       		.uleb128 0x31
GAS LISTING /tmp/cchzXoU3.s 			page 20


 1038 0197 13       		.uleb128 0x13
 1039 0198 52       		.uleb128 0x52
 1040 0199 01       		.uleb128 0x1
 1041 019a B842     		.uleb128 0x2138
 1042 019c 0B       		.uleb128 0xb
 1043 019d 55       		.uleb128 0x55
 1044 019e 17       		.uleb128 0x17
 1045 019f 58       		.uleb128 0x58
 1046 01a0 0B       		.uleb128 0xb
 1047 01a1 59       		.uleb128 0x59
 1048 01a2 05       		.uleb128 0x5
 1049 01a3 57       		.uleb128 0x57
 1050 01a4 0B       		.uleb128 0xb
 1051 01a5 00       		.byte	0
 1052 01a6 00       		.byte	0
 1053 01a7 1B       		.uleb128 0x1b
 1054 01a8 1D       		.uleb128 0x1d
 1055 01a9 01       		.byte	0x1
 1056 01aa 31       		.uleb128 0x31
 1057 01ab 13       		.uleb128 0x13
 1058 01ac 52       		.uleb128 0x52
 1059 01ad 01       		.uleb128 0x1
 1060 01ae B842     		.uleb128 0x2138
 1061 01b0 0B       		.uleb128 0xb
 1062 01b1 11       		.uleb128 0x11
 1063 01b2 01       		.uleb128 0x1
 1064 01b3 12       		.uleb128 0x12
 1065 01b4 06       		.uleb128 0x6
 1066 01b5 58       		.uleb128 0x58
 1067 01b6 0B       		.uleb128 0xb
 1068 01b7 59       		.uleb128 0x59
 1069 01b8 0B       		.uleb128 0xb
 1070 01b9 57       		.uleb128 0x57
 1071 01ba 0B       		.uleb128 0xb
 1072 01bb 01       		.uleb128 0x1
 1073 01bc 13       		.uleb128 0x13
 1074 01bd 00       		.byte	0
 1075 01be 00       		.byte	0
 1076 01bf 1C       		.uleb128 0x1c
 1077 01c0 1D       		.uleb128 0x1d
 1078 01c1 00       		.byte	0
 1079 01c2 31       		.uleb128 0x31
 1080 01c3 13       		.uleb128 0x13
 1081 01c4 52       		.uleb128 0x52
 1082 01c5 01       		.uleb128 0x1
 1083 01c6 B842     		.uleb128 0x2138
 1084 01c8 0B       		.uleb128 0xb
 1085 01c9 11       		.uleb128 0x11
 1086 01ca 01       		.uleb128 0x1
 1087 01cb 12       		.uleb128 0x12
 1088 01cc 06       		.uleb128 0x6
 1089 01cd 58       		.uleb128 0x58
 1090 01ce 0B       		.uleb128 0xb
 1091 01cf 59       		.uleb128 0x59
 1092 01d0 05       		.uleb128 0x5
 1093 01d1 57       		.uleb128 0x57
 1094 01d2 0B       		.uleb128 0xb
GAS LISTING /tmp/cchzXoU3.s 			page 21


 1095 01d3 00       		.byte	0
 1096 01d4 00       		.byte	0
 1097 01d5 1D       		.uleb128 0x1d
 1098 01d6 2E       		.uleb128 0x2e
 1099 01d7 00       		.byte	0
 1100 01d8 3F       		.uleb128 0x3f
 1101 01d9 19       		.uleb128 0x19
 1102 01da 3C       		.uleb128 0x3c
 1103 01db 19       		.uleb128 0x19
 1104 01dc 6E       		.uleb128 0x6e
 1105 01dd 0E       		.uleb128 0xe
 1106 01de 03       		.uleb128 0x3
 1107 01df 0E       		.uleb128 0xe
 1108 01e0 00       		.byte	0
 1109 01e1 00       		.byte	0
 1110 01e2 00       		.byte	0
 1111              		.section	.debug_loclists,"",@progbits
 1112 0000 48000000 		.long	.Ldebug_loc3-.Ldebug_loc2
 1113              	.Ldebug_loc2:
 1114 0004 0500     		.value	0x5
 1115 0006 04       		.byte	0x4
 1116 0007 00       		.byte	0
 1117 0008 00000000 		.long	0
 1118              	.Ldebug_loc0:
 1119              	.LVUS0:
 1120 000c 02       		.uleb128 .LVU17
 1121 000d 00       		.uleb128 .LVU21
 1122 000e 00       		.uleb128 .LVU21
 1123 000f 00       		.uleb128 .LVU22
 1124 0010 00       		.uleb128 .LVU22
 1125 0011 01       		.uleb128 .LVU28
 1126 0012 01       		.uleb128 .LVU28
 1127 0013 00       		.uleb128 .LVU72
 1128 0014 00       		.uleb128 .LVU73
 1129 0015 00       		.uleb128 .LVU78
 1130 0016 00       		.uleb128 .LVU78
 1131 0017 00       		.uleb128 .LVU81
 1132 0018 00       		.uleb128 .LVU81
 1133 0019 00       		.uleb128 .LVU82
 1134              	.LLST0:
 1135 001a 06       		.byte	0x6
 1136 001b 1D000000 		.long	.LVL2
 1137 001f 04       		.byte	0x4
 1138 0020 00       		.uleb128 .LVL2-.LVL2
 1139 0021 0C       		.uleb128 .LVL4-.LVL2
 1140 0022 02       		.uleb128 0x2
 1141 0023 30       		.byte	0x30
 1142 0024 9F       		.byte	0x9f
 1143 0025 04       		.byte	0x4
 1144 0026 0C       		.uleb128 .LVL4-.LVL2
 1145 0027 10       		.uleb128 .LVL5-.LVL2
 1146 0028 01       		.uleb128 0x1
 1147 0029 50       		.byte	0x50
 1148 002a 04       		.byte	0x4
 1149 002b 10       		.uleb128 .LVL5-.LVL2
 1150 002c 31       		.uleb128 .LVL7-.LVL2
 1151 002d 01       		.uleb128 0x1
GAS LISTING /tmp/cchzXoU3.s 			page 22


 1152 002e 56       		.byte	0x56
 1153 002f 04       		.byte	0x4
 1154 0030 31       		.uleb128 .LVL7-.LVL2
 1155 0031 8601     		.uleb128 .LVL10-.LVL2
 1156 0033 02       		.uleb128 0x2
 1157 0034 31       		.byte	0x31
 1158 0035 9F       		.byte	0x9f
 1159 0036 04       		.byte	0x4
 1160 0037 9A01     		.uleb128 .LVL11-.LVL2
 1161 0039 B501     		.uleb128 .LVL12-.LVL2
 1162 003b 01       		.uleb128 0x1
 1163 003c 56       		.byte	0x56
 1164 003d 04       		.byte	0x4
 1165 003e B501     		.uleb128 .LVL12-.LVL2
 1166 0040 B901     		.uleb128 .LVL13-1-.LVL2
 1167 0042 01       		.uleb128 0x1
 1168 0043 50       		.byte	0x50
 1169 0044 04       		.byte	0x4
 1170 0045 B901     		.uleb128 .LVL13-1-.LVL2
 1171 0047 BE01     		.uleb128 .LVL14-.LVL2
 1172 0049 01       		.uleb128 0x1
 1173 004a 56       		.byte	0x56
 1174 004b 00       		.byte	0
 1175              	.Ldebug_loc3:
 1176              		.section	.debug_aranges,"",@progbits
 1177 0000 24000000 		.long	0x24
 1178 0004 0200     		.value	0x2
 1179 0006 00000000 		.long	.Ldebug_info0
 1180 000a 04       		.byte	0x4
 1181 000b 00       		.byte	0
 1182 000c 0000     		.value	0
 1183 000e 0000     		.value	0
 1184 0010 00000000 		.long	.LFB309
 1185 0014 67000000 		.long	.LFE309-.LFB309
 1186 0018 00000000 		.long	.LFB310
 1187 001c E7000000 		.long	.LFE310-.LFB310
 1188 0020 00000000 		.long	0
 1189 0024 00000000 		.long	0
 1190              		.section	.debug_rnglists,"",@progbits
 1191              	.Ldebug_ranges0:
 1192 0000 22000000 		.long	.Ldebug_ranges3-.Ldebug_ranges2
 1193              	.Ldebug_ranges2:
 1194 0004 0500     		.value	0x5
 1195 0006 04       		.byte	0x4
 1196 0007 00       		.byte	0
 1197 0008 00000000 		.long	0
 1198              	.LLRL1:
 1199 000c 05       		.byte	0x5
 1200 000d 7D000000 		.long	.LBB14
 1201 0011 04       		.byte	0x4
 1202 0012 00       		.uleb128 .LBB14-.LBB14
 1203 0013 06       		.uleb128 .LBE14-.LBB14
 1204 0014 04       		.byte	0x4
 1205 0015 09       		.uleb128 .LBB19-.LBB14
 1206 0016 0F       		.uleb128 .LBE19-.LBB14
 1207 0017 00       		.byte	0
 1208              	.LLRL2:
GAS LISTING /tmp/cchzXoU3.s 			page 23


 1209 0018 07       		.byte	0x7
 1210 0019 00000000 		.long	.LFB309
 1211 001d 67       		.uleb128 .LFE309-.LFB309
 1212 001e 07       		.byte	0x7
 1213 001f 00000000 		.long	.LFB310
 1214 0023 E701     		.uleb128 .LFE310-.LFB310
 1215 0025 00       		.byte	0
 1216              	.Ldebug_ranges3:
 1217              		.section	.debug_line,"",@progbits
 1218              	.Ldebug_line0:
 1219 0000 71020000 		.section	.debug_str,"MS",@progbits,1
 1219      05000400 
 1219      7C000000 
 1219      010101FB 
 1219      0E0D0001 
 1220              	.LASF18:
 1221 0000 5F466C6F 		.string	"_Float128"
 1221      61743132 
 1221      3800
 1222              	.LASF24:
 1223 000a 63685363 		.string	"chSchDoPreemption"
 1223      68446F50 
 1223      7265656D 
 1223      7074696F 
 1223      6E00
 1224              	.LASF32:
 1225 001c 5F73696D 		.string	"_sim_check_for_interrupts"
 1225      5F636865 
 1225      636B5F66 
 1225      6F725F69 
 1225      6E746572 
 1226              	.LASF10:
 1227 0036 6C6F6E67 		.string	"long long unsigned int"
 1227      206C6F6E 
 1227      6720756E 
 1227      7369676E 
 1227      65642069 
 1228              	.LASF4:
 1229 004d 756E7369 		.string	"unsigned char"
 1229      676E6564 
 1229      20636861 
 1229      7200
 1230              	.LASF36:
 1231 005b 706F7274 		.string	"port_unlock_from_isr"
 1231      5F756E6C 
 1231      6F636B5F 
 1231      66726F6D 
 1231      5F697372 
 1232              	.LASF20:
 1233 0070 73797373 		.string	"syssts_t"
 1233      74735F74 
 1233      00
 1234              	.LASF6:
 1235 0079 6C6F6E67 		.string	"long unsigned int"
 1235      20756E73 
 1235      69676E65 
 1235      6420696E 
GAS LISTING /tmp/cchzXoU3.s 			page 24


 1235      7400
 1236              	.LASF5:
 1237 008b 73686F72 		.string	"short unsigned int"
 1237      7420756E 
 1237      7369676E 
 1237      65642069 
 1237      6E7400
 1238              	.LASF19:
 1239 009e 75696E74 		.string	"uint32_t"
 1239      33325F74 
 1239      00
 1240              	.LASF25:
 1241 00a7 63685379 		.string	"chSysTimerHandlerI"
 1241      7354696D 
 1241      65724861 
 1241      6E646C65 
 1241      724900
 1242              	.LASF13:
 1243 00ba 5F5F7469 		.string	"__time_t"
 1243      6D655F74 
 1243      00
 1244              	.LASF40:
 1245 00c3 7469636B 		.string	"tick"
 1245      00
 1246              	.LASF22:
 1247 00c8 706F7274 		.string	"port_isr_context_flag"
 1247      5F697372 
 1247      5F636F6E 
 1247      74657874 
 1247      5F666C61 
 1248              	.LASF38:
 1249 00de 474E5520 		.string	"GNU C17 11.4.0 -m32 -mtune=generic -march=i686 -ggdb -O2 -ffunction-sections -fdata-secti
 1249      43313720 
 1249      31312E34 
 1249      2E30202D 
 1249      6D333220 
 1250              	.LASF17:
 1251 0196 6C6F6E67 		.string	"long double"
 1251      20646F75 
 1251      626C6500 
 1252              	.LASF12:
 1253 01a2 5F5F7569 		.string	"__uint32_t"
 1253      6E743332 
 1253      5F7400
 1254              	.LASF39:
 1255 01ad 74696D65 		.string	"timeval"
 1255      76616C00 
 1256              	.LASF2:
 1257 01b5 756E7369 		.string	"unsigned int"
 1257      676E6564 
 1257      20696E74 
 1257      00
 1258              	.LASF26:
 1259 01c2 63685363 		.string	"chSchIsPreemptionRequired"
 1259      68497350 
 1259      7265656D 
 1259      7074696F 
GAS LISTING /tmp/cchzXoU3.s 			page 25


 1259      6E526571 
 1260              	.LASF35:
 1261 01dc 63685379 		.string	"chSysLockFromISR"
 1261      734C6F63 
 1261      6B46726F 
 1261      6D495352 
 1261      00
 1262              	.LASF3:
 1263 01ed 63686172 		.string	"char"
 1263      00
 1264              	.LASF14:
 1265 01f2 5F5F7375 		.string	"__suseconds_t"
 1265      7365636F 
 1265      6E64735F 
 1265      7400
 1266              	.LASF16:
 1267 0200 74765F75 		.string	"tv_usec"
 1267      73656300 
 1268              	.LASF34:
 1269 0208 63685379 		.string	"chSysUnlockFromISR"
 1269      73556E6C 
 1269      6F636B46 
 1269      726F6D49 
 1269      535200
 1270              	.LASF28:
 1271 021b 67657474 		.string	"gettimeofday"
 1271      696D656F 
 1271      66646179 
 1271      00
 1272              	.LASF23:
 1273 0228 706F7274 		.string	"port_irq_sts"
 1273      5F697271 
 1273      5F737473 
 1273      00
 1274              	.LASF15:
 1275 0235 74765F73 		.string	"tv_sec"
 1275      656300
 1276              	.LASF9:
 1277 023c 6C6F6E67 		.string	"long long int"
 1277      206C6F6E 
 1277      6720696E 
 1277      7400
 1278              	.LASF27:
 1279 024a 73645F6C 		.string	"sd_lld_interrupt_pending"
 1279      6C645F69 
 1279      6E746572 
 1279      72757074 
 1279      5F70656E 
 1280              	.LASF33:
 1281 0263 68616C5F 		.string	"hal_lld_init"
 1281      6C6C645F 
 1281      696E6974 
 1281      00
 1282              	.LASF8:
 1283 0270 73686F72 		.string	"short int"
 1283      7420696E 
 1283      7400
GAS LISTING /tmp/cchzXoU3.s 			page 26


 1284              	.LASF37:
 1285 027a 706F7274 		.string	"port_lock_from_isr"
 1285      5F6C6F63 
 1285      6B5F6672 
 1285      6F6D5F69 
 1285      737200
 1286              	.LASF11:
 1287 028d 6C6F6E67 		.string	"long int"
 1287      20696E74 
 1287      00
 1288              	.LASF29:
 1289 0296 70757473 		.string	"puts"
 1289      00
 1290              	.LASF30:
 1291 029b 6E657874 		.string	"nextcnt"
 1291      636E7400 
 1292              	.LASF7:
 1293 02a3 7369676E 		.string	"signed char"
 1293      65642063 
 1293      68617200 
 1294              	.LASF41:
 1295 02af 5F5F7374 		.string	"__stack_chk_fail_local"
 1295      61636B5F 
 1295      63686B5F 
 1295      6661696C 
 1295      5F6C6F63 
 1296              	.LASF21:
 1297 02c6 5F426F6F 		.string	"_Bool"
 1297      6C00
 1298              	.LASF31:
 1299 02cc 696E745F 		.string	"int_occurred"
 1299      6F636375 
 1299      72726564 
 1299      00
 1300              		.section	.debug_line_str,"MS",@progbits,1
 1301              	.LASF0:
 1302 0000 2E2E2F2E 		.string	"../../../os/hal/ports/simulator/posix/hal_lld.c"
 1302      2E2F2E2E 
 1302      2F6F732F 
 1302      68616C2F 
 1302      706F7274 
 1303              	.LASF1:
 1304 0030 2F686F6D 		.string	"/home/alex/ChibiOS/demos/various/LAB1"
 1304      652F616C 
 1304      65782F43 
 1304      68696269 
 1304      4F532F64 
 1305              		.hidden	__stack_chk_fail_local
 1306              		.ident	"GCC: (Ubuntu 11.4.0-1ubuntu1~22.04) 11.4.0"
 1307 0056 2F686F6D 		.section	.note.GNU-stack,"",@progbits
 1307      652F616C 
 1307      65782F43 
 1307      68696269 
 1307      4F532F64 
GAS LISTING /tmp/cchzXoU3.s 			page 27


DEFINED SYMBOLS
                            *ABS*:0000000000000000 hal_lld.c
     /tmp/cchzXoU3.s:12     .text.hal_lld_init:0000000000000000 hal_lld_init
     /tmp/cchzXoU3.s:294    .text.__x86.get_pc_thunk.bx:0000000000000000 __x86.get_pc_thunk.bx
     /tmp/cchzXoU3.s:288    .bss.nextcnt:0000000000000000 nextcnt
     /tmp/cchzXoU3.s:78     .text._sim_check_for_interrupts:0000000000000000 _sim_check_for_interrupts
     /tmp/cchzXoU3.s:6      .rodata.hal_lld_init.str1.1:0000000000000000 .LC0

UNDEFINED SYMBOLS
_GLOBAL_OFFSET_TABLE_
puts
gettimeofday
sd_lld_interrupt_pending
port_isr_context_flag
port_irq_sts
chSysTimerHandlerI
chSchIsPreemptionRequired
chSchDoPreemption
__stack_chk_fail_local
