GAS LISTING /tmp/cczQwsDB.s 			page 1


   1              		.file	"main.c"
   2              		.text
   3              	.Ltext0:
   4              		.file 0 "/home/alex/ChibiOS/demos/various/LAB1" "main.c"
   5              		.section	.rodata.Thread1.str1.1,"aMS",@progbits,1
   6              	.LC0:
   7 0000 48656C6C 		.string	"Hello world!\r\n"
   7      6F20776F 
   7      726C6421 
   7      0D0A00
   8              		.section	.text.Thread1,"ax",@progbits
   9              		.p2align 4
  10              		.type	Thread1, @function
  11              	Thread1:
  12              	.LVL0:
  13              	.LFB299:
  14              		.file 1 "main.c"
  15              		.loc 1 10 35 view -0
  16              		.cfi_startproc
  17              		.loc 1 10 35 is_stmt 0 view .LVU1
  18 0000 57       		pushl	%edi
  19              		.cfi_def_cfa_offset 8
  20              		.cfi_offset 7, -8
  21 0001 56       		pushl	%esi
  22              		.cfi_def_cfa_offset 12
  23              		.cfi_offset 6, -12
  24 0002 53       		pushl	%ebx
  25              		.cfi_def_cfa_offset 16
  26              		.cfi_offset 3, -16
  27 0003 E8FCFFFF 		call	__x86.get_pc_thunk.bx
  27      FF
  28 0008 81C30200 		addl	$_GLOBAL_OFFSET_TABLE_, %ebx
  28      0000
  29 000e 8BB30000 		movl	SD1@GOT(%ebx), %esi
  29      0000
  30 0014 8DBB0000 		leal	.LC0@GOTOFF(%ebx), %edi
  30      0000
  31 001a 8DB60000 		.p2align 4,,10
  31      0000
  32              		.p2align 3
  33              	.L2:
  34              		.loc 1 11 5 is_stmt 1 discriminator 1 view .LVU2
  35              		.loc 1 12 5 discriminator 1 view .LVU3
  36              		.loc 1 13 9 discriminator 1 view .LVU4
  37 0020 83EC08   		subl	$8, %esp
  38              		.cfi_def_cfa_offset 24
  39 0023 57       		pushl	%edi
  40              		.cfi_def_cfa_offset 28
  41 0024 56       		pushl	%esi
  42              		.cfi_def_cfa_offset 32
  43 0025 E8FCFFFF 		call	chprintf@PLT
  43      FF
  44              	.LVL1:
  45              		.loc 1 14 9 discriminator 1 view .LVU5
  46 002a C70424E8 		movl	$1000, (%esp)
  46      030000
  47 0031 E8FCFFFF 		call	chThdSleep@PLT
GAS LISTING /tmp/cczQwsDB.s 			page 2


  47      FF
  48              	.LVL2:
  49              		.loc 1 12 11 discriminator 1 view .LVU6
  50              		.loc 1 14 9 is_stmt 0 discriminator 1 view .LVU7
  51 0036 83C410   		addl	$16, %esp
  52              		.cfi_def_cfa_offset 16
  53 0039 EBE5     		jmp	.L2
  54              		.cfi_endproc
  55              	.LFE299:
  56              		.size	Thread1, .-Thread1
  57              		.section	.text.startup.main,"ax",@progbits
  58              		.p2align 4
  59              		.globl	main
  60              		.type	main, @function
  61              	main:
  62              	.LFB300:
  63              		.loc 1 18 16 is_stmt 1 view -0
  64              		.cfi_startproc
  65              		.loc 1 19 5 view .LVU9
  66              		.loc 1 18 16 is_stmt 0 view .LVU10
  67 0000 8D4C2404 		leal	4(%esp), %ecx
  68              		.cfi_def_cfa 1, 0
  69 0004 83E4F0   		andl	$-16, %esp
  70 0007 FF71FC   		pushl	-4(%ecx)
  71 000a 55       		pushl	%ebp
  72 000b 89E5     		movl	%esp, %ebp
  73              		.cfi_escape 0x10,0x5,0x2,0x75,0
  74 000d 53       		pushl	%ebx
  75              		.cfi_escape 0x10,0x3,0x2,0x75,0x7c
  76 000e E8FCFFFF 		call	__x86.get_pc_thunk.bx
  76      FF
  77 0013 81C30200 		addl	$_GLOBAL_OFFSET_TABLE_, %ebx
  77      0000
  78 0019 51       		pushl	%ecx
  79              		.cfi_escape 0xf,0x3,0x75,0x78,0x6
  80              		.loc 1 19 5 view .LVU11
  81 001a E8FCFFFF 		call	halInit@PLT
  81      FF
  82              	.LVL3:
  83              		.loc 1 20 5 is_stmt 1 view .LVU12
  84 001f E8FCFFFF 		call	chSysInit@PLT
  84      FF
  85              	.LVL4:
  86              		.loc 1 23 5 view .LVU13
  87 0024 83EC08   		subl	$8, %esp
  88 0027 6A00     		pushl	$0
  89 0029 FFB30000 		pushl	SD1@GOT(%ebx)
  89      0000
  90 002f E8FCFFFF 		call	sdStart@PLT
  90      FF
  91              	.LVL5:
  92              		.loc 1 26 5 view .LVU14
  93 0034 8D830000 		leal	Thread1@GOTOFF(%ebx), %eax
  93      0000
  94 003a C7042400 		movl	$0, (%esp)
  94      000000
  95 0041 50       		pushl	%eax
GAS LISTING /tmp/cczQwsDB.s 			page 3


  96 0042 8D830000 		leal	waThread1@GOTOFF(%ebx), %eax
  96      0000
  97 0048 68800000 		pushl	$128
  97      00
  98 004d 68004100 		pushl	$16640
  98      00
  99 0052 50       		pushl	%eax
 100 0053 E8FCFFFF 		call	chThdCreateStatic@PLT
 100      FF
 101              	.LVL6:
 102 0058 83C420   		addl	$32, %esp
 103 005b 8D742600 		.p2align 4,,10
 103      90
 104              		.p2align 3
 105              	.L6:
 106              		.loc 1 28 5 discriminator 1 view .LVU15
 107              		.loc 1 29 9 discriminator 1 view .LVU16
 108 0060 83EC0C   		subl	$12, %esp
 109 0063 68E80300 		pushl	$1000
 109      00
 110 0068 E8FCFFFF 		call	chThdSleep@PLT
 110      FF
 111              	.LVL7:
 112              		.loc 1 28 11 discriminator 1 view .LVU17
 113              		.loc 1 29 9 is_stmt 0 discriminator 1 view .LVU18
 114 006d 83C410   		addl	$16, %esp
 115 0070 EBEE     		jmp	.L6
 116              		.cfi_endproc
 117              	.LFE300:
 118              		.size	main, .-main
 119              		.section	.bss.waThread1,"aw",@nobits
 120              		.align 16
 121              		.type	waThread1, @object
 122              		.size	waThread1, 16640
 123              	waThread1:
 124 0000 00000000 		.zero	16640
 124      00000000 
 124      00000000 
 124      00000000 
 124      00000000 
 125              		.section	.text.__x86.get_pc_thunk.bx,"axG",@progbits,__x86.get_pc_thunk.bx,comdat
 126              		.globl	__x86.get_pc_thunk.bx
 127              		.hidden	__x86.get_pc_thunk.bx
 128              		.type	__x86.get_pc_thunk.bx, @function
 129              	__x86.get_pc_thunk.bx:
 130              	.LFB301:
 131              		.cfi_startproc
 132 0000 8B1C24   		movl	(%esp), %ebx
 133 0003 C3       		ret
 134              		.cfi_endproc
 135              	.LFE301:
 136              		.text
 137              	.Letext0:
 138              		.file 2 "/usr/lib/gcc/x86_64-linux-gnu/11/include/stddef.h"
 139              		.file 3 "/usr/include/bits/types.h"
 140              		.file 4 "/usr/include/bits/stdint-intn.h"
 141              		.file 5 "/usr/include/bits/stdint-uintn.h"
GAS LISTING /tmp/cczQwsDB.s 			page 4


 142              		.file 6 "../../../os/common/ports/SIMIA32/compilers/GCC/chtypes.h"
 143              		.file 7 "../../../os/rt/include/chearly.h"
 144              		.file 8 "../../../os/rt/include/chobjects.h"
 145              		.file 9 "../../../os/rt/include/chrfcu.h"
 146              		.file 10 "../../../os/rt/include/chdebug.h"
 147              		.file 11 "../../../os/rt/include/chtime.h"
 148              		.file 12 "../../../os/rt/include/chlists.h"
 149              		.file 13 "../../../os/common/ports/SIMIA32/chcore.h"
 150              		.file 14 "../../../os/rt/include/chsem.h"
 151              		.file 15 "../../../os/rt/include/chmtx.h"
 152              		.file 16 "../../../os/rt/include/chthreads.h"
 153              		.file 17 "../../../os/rt/include/chevents.h"
 154              		.file 18 "../../../os/hal/include/hal_streams.h"
 155              		.file 19 "../../../os/hal/include/hal_queues.h"
 156              		.file 20 "../../../os/hal/include/hal_serial.h"
 157              		.file 21 "../../../os/hal/ports/simulator/posix/hal_serial_lld.h"
 158              		.file 22 "../../../os/hal/lib/streams/chprintf.h"
 159              		.file 23 "../../../os/rt/include/chsys.h"
 160              		.file 24 "../../../os/hal/include/hal.h"
 2906 002d 2F686F6D 		.section	.note.GNU-stack,"",@progbits
 2906      652F616C 
 2906      65782F43 
 2906      68696269 
 2906      4F532F64 
GAS LISTING /tmp/cczQwsDB.s 			page 59

