GAS LISTING /tmp/cczQwsDB.s 			page 1


   1              		.file	"main.c"
   2              		.text
   3              	.Ltext0:
   4              		.file 0 "/home/alex/ChibiOS/demos/various/LAB1" "main.c"
   5              		.section	.rodata.Thread1.str1.1,"aMS",@progbits,1
   6              	.LC0:
   7 0000 48656C6C 		.string	"Hello world!\r\n"
   7      6F20776F 
   7      726C6421 
   7      0D0A00
   8              		.section	.text.Thread1,"ax",@progbits
   9              		.p2align 4
  10              		.type	Thread1, @function
  11              	Thread1:
  12              	.LVL0:
  13              	.LFB299:
  14              		.file 1 "main.c"
  15              		.loc 1 10 35 view -0
  16              		.cfi_startproc
  17              		.loc 1 10 35 is_stmt 0 view .LVU1
  18 0000 57       		pushl	%edi
  19              		.cfi_def_cfa_offset 8
  20              		.cfi_offset 7, -8
  21 0001 56       		pushl	%esi
  22              		.cfi_def_cfa_offset 12
  23              		.cfi_offset 6, -12
  24 0002 53       		pushl	%ebx
  25              		.cfi_def_cfa_offset 16
  26              		.cfi_offset 3, -16
  27 0003 E8FCFFFF 		call	__x86.get_pc_thunk.bx
  27      FF
  28 0008 81C30200 		addl	$_GLOBAL_OFFSET_TABLE_, %ebx
  28      0000
  29 000e 8BB30000 		movl	SD1@GOT(%ebx), %esi
  29      0000
  30 0014 8DBB0000 		leal	.LC0@GOTOFF(%ebx), %edi
  30      0000
  31 001a 8DB60000 		.p2align 4,,10
  31      0000
  32              		.p2align 3
  33              	.L2:
  34              		.loc 1 11 5 is_stmt 1 discriminator 1 view .LVU2
  35              		.loc 1 12 5 discriminator 1 view .LVU3
  36              		.loc 1 13 9 discriminator 1 view .LVU4
  37 0020 83EC08   		subl	$8, %esp
  38              		.cfi_def_cfa_offset 24
  39 0023 57       		pushl	%edi
  40              		.cfi_def_cfa_offset 28
  41 0024 56       		pushl	%esi
  42              		.cfi_def_cfa_offset 32
  43 0025 E8FCFFFF 		call	chprintf@PLT
  43      FF
  44              	.LVL1:
  45              		.loc 1 14 9 discriminator 1 view .LVU5
  46 002a C70424E8 		movl	$1000, (%esp)
  46      030000
  47 0031 E8FCFFFF 		call	chThdSleep@PLT
GAS LISTING /tmp/cczQwsDB.s 			page 2


  47      FF
  48              	.LVL2:
  49              		.loc 1 12 11 discriminator 1 view .LVU6
  50              		.loc 1 14 9 is_stmt 0 discriminator 1 view .LVU7
  51 0036 83C410   		addl	$16, %esp
  52              		.cfi_def_cfa_offset 16
  53 0039 EBE5     		jmp	.L2
  54              		.cfi_endproc
  55              	.LFE299:
  56              		.size	Thread1, .-Thread1
  57              		.section	.text.startup.main,"ax",@progbits
  58              		.p2align 4
  59              		.globl	main
  60              		.type	main, @function
  61              	main:
  62              	.LFB300:
  63              		.loc 1 18 16 is_stmt 1 view -0
  64              		.cfi_startproc
  65              		.loc 1 19 5 view .LVU9
  66              		.loc 1 18 16 is_stmt 0 view .LVU10
  67 0000 8D4C2404 		leal	4(%esp), %ecx
  68              		.cfi_def_cfa 1, 0
  69 0004 83E4F0   		andl	$-16, %esp
  70 0007 FF71FC   		pushl	-4(%ecx)
  71 000a 55       		pushl	%ebp
  72 000b 89E5     		movl	%esp, %ebp
  73              		.cfi_escape 0x10,0x5,0x2,0x75,0
  74 000d 53       		pushl	%ebx
  75              		.cfi_escape 0x10,0x3,0x2,0x75,0x7c
  76 000e E8FCFFFF 		call	__x86.get_pc_thunk.bx
  76      FF
  77 0013 81C30200 		addl	$_GLOBAL_OFFSET_TABLE_, %ebx
  77      0000
  78 0019 51       		pushl	%ecx
  79              		.cfi_escape 0xf,0x3,0x75,0x78,0x6
  80              		.loc 1 19 5 view .LVU11
  81 001a E8FCFFFF 		call	halInit@PLT
  81      FF
  82              	.LVL3:
  83              		.loc 1 20 5 is_stmt 1 view .LVU12
  84 001f E8FCFFFF 		call	chSysInit@PLT
  84      FF
  85              	.LVL4:
  86              		.loc 1 23 5 view .LVU13
  87 0024 83EC08   		subl	$8, %esp
  88 0027 6A00     		pushl	$0
  89 0029 FFB30000 		pushl	SD1@GOT(%ebx)
  89      0000
  90 002f E8FCFFFF 		call	sdStart@PLT
  90      FF
  91              	.LVL5:
  92              		.loc 1 26 5 view .LVU14
  93 0034 8D830000 		leal	Thread1@GOTOFF(%ebx), %eax
  93      0000
  94 003a C7042400 		movl	$0, (%esp)
  94      000000
  95 0041 50       		pushl	%eax
GAS LISTING /tmp/cczQwsDB.s 			page 3


  96 0042 8D830000 		leal	waThread1@GOTOFF(%ebx), %eax
  96      0000
  97 0048 68800000 		pushl	$128
  97      00
  98 004d 68004100 		pushl	$16640
  98      00
  99 0052 50       		pushl	%eax
 100 0053 E8FCFFFF 		call	chThdCreateStatic@PLT
 100      FF
 101              	.LVL6:
 102 0058 83C420   		addl	$32, %esp
 103 005b 8D742600 		.p2align 4,,10
 103      90
 104              		.p2align 3
 105              	.L6:
 106              		.loc 1 28 5 discriminator 1 view .LVU15
 107              		.loc 1 29 9 discriminator 1 view .LVU16
 108 0060 83EC0C   		subl	$12, %esp
 109 0063 68E80300 		pushl	$1000
 109      00
 110 0068 E8FCFFFF 		call	chThdSleep@PLT
 110      FF
 111              	.LVL7:
 112              		.loc 1 28 11 discriminator 1 view .LVU17
 113              		.loc 1 29 9 is_stmt 0 discriminator 1 view .LVU18
 114 006d 83C410   		addl	$16, %esp
 115 0070 EBEE     		jmp	.L6
 116              		.cfi_endproc
 117              	.LFE300:
 118              		.size	main, .-main
 119              		.section	.bss.waThread1,"aw",@nobits
 120              		.align 16
 121              		.type	waThread1, @object
 122              		.size	waThread1, 16640
 123              	waThread1:
 124 0000 00000000 		.zero	16640
 124      00000000 
 124      00000000 
 124      00000000 
 124      00000000 
 125              		.section	.text.__x86.get_pc_thunk.bx,"axG",@progbits,__x86.get_pc_thunk.bx,comdat
 126              		.globl	__x86.get_pc_thunk.bx
 127              		.hidden	__x86.get_pc_thunk.bx
 128              		.type	__x86.get_pc_thunk.bx, @function
 129              	__x86.get_pc_thunk.bx:
 130              	.LFB301:
 131              		.cfi_startproc
 132 0000 8B1C24   		movl	(%esp), %ebx
 133 0003 C3       		ret
 134              		.cfi_endproc
 135              	.LFE301:
 136              		.text
 137              	.Letext0:
 138              		.file 2 "/usr/lib/gcc/x86_64-linux-gnu/11/include/stddef.h"
 139              		.file 3 "/usr/include/bits/types.h"
 140              		.file 4 "/usr/include/bits/stdint-intn.h"
 141              		.file 5 "/usr/include/bits/stdint-uintn.h"
GAS LISTING /tmp/cczQwsDB.s 			page 4


 142              		.file 6 "../../../os/common/ports/SIMIA32/compilers/GCC/chtypes.h"
 143              		.file 7 "../../../os/rt/include/chearly.h"
 144              		.file 8 "../../../os/rt/include/chobjects.h"
 145              		.file 9 "../../../os/rt/include/chrfcu.h"
 146              		.file 10 "../../../os/rt/include/chdebug.h"
 147              		.file 11 "../../../os/rt/include/chtime.h"
 148              		.file 12 "../../../os/rt/include/chlists.h"
 149              		.file 13 "../../../os/common/ports/SIMIA32/chcore.h"
 150              		.file 14 "../../../os/rt/include/chsem.h"
 151              		.file 15 "../../../os/rt/include/chmtx.h"
 152              		.file 16 "../../../os/rt/include/chthreads.h"
 153              		.file 17 "../../../os/rt/include/chevents.h"
 154              		.file 18 "../../../os/hal/include/hal_streams.h"
 155              		.file 19 "../../../os/hal/include/hal_queues.h"
 156              		.file 20 "../../../os/hal/include/hal_serial.h"
 157              		.file 21 "../../../os/hal/ports/simulator/posix/hal_serial_lld.h"
 158              		.file 22 "../../../os/hal/lib/streams/chprintf.h"
 159              		.file 23 "../../../os/rt/include/chsys.h"
 160              		.file 24 "../../../os/hal/include/hal.h"
 161              		.section	.debug_info,"",@progbits
 162              	.Ldebug_info0:
 163 0000 590D0000 		.long	0xd59
 164 0004 0500     		.value	0x5
 165 0006 01       		.byte	0x1
 166 0007 04       		.byte	0x4
 167 0008 00000000 		.long	.Ldebug_abbrev0
 168 000c 18       		.uleb128 0x18
 169 000d AF030000 		.long	.LASF169
 170 0011 1D       		.byte	0x1d
 171 0012 26000000 		.long	.LASF0
 172 0016 00000000 		.long	.LASF1
 173 001a 0C000000 		.long	.LLRL0
 174 001e 00000000 		.long	0
 175 0022 00000000 		.long	.Ldebug_line0
 176 0026 19       		.uleb128 0x19
 177 0027 04       		.byte	0x4
 178 0028 05       		.byte	0x5
 179 0029 696E7400 		.string	"int"
 180 002d 02       		.uleb128 0x2
 181 002e 2F000000 		.long	.LASF11
 182 0032 02       		.byte	0x2
 183 0033 D1       		.byte	0xd1
 184 0034 17       		.byte	0x17
 185 0035 3E000000 		.long	0x3e
 186 0039 0D       		.uleb128 0xd
 187 003a 2D000000 		.long	0x2d
 188 003e 08       		.uleb128 0x8
 189 003f 04       		.byte	0x4
 190 0040 07       		.byte	0x7
 191 0041 79020000 		.long	.LASF2
 192 0045 08       		.uleb128 0x8
 193 0046 04       		.byte	0x4
 194 0047 05       		.byte	0x5
 195 0048 8F000000 		.long	.LASF3
 196 004c 08       		.uleb128 0x8
 197 004d 08       		.byte	0x8
 198 004e 05       		.byte	0x5
GAS LISTING /tmp/cczQwsDB.s 			page 5


 199 004f 3E010000 		.long	.LASF4
 200 0053 08       		.uleb128 0x8
 201 0054 0C       		.byte	0xc
 202 0055 04       		.byte	0x4
 203 0056 B9040000 		.long	.LASF5
 204 005a 08       		.uleb128 0x8
 205 005b 10       		.byte	0x10
 206 005c 04       		.byte	0x4
 207 005d AC000000 		.long	.LASF6
 208 0061 08       		.uleb128 0x8
 209 0062 01       		.byte	0x1
 210 0063 08       		.byte	0x8
 211 0064 84050000 		.long	.LASF7
 212 0068 08       		.uleb128 0x8
 213 0069 02       		.byte	0x2
 214 006a 07       		.byte	0x7
 215 006b EF020000 		.long	.LASF8
 216 006f 08       		.uleb128 0x8
 217 0070 04       		.byte	0x4
 218 0071 07       		.byte	0x7
 219 0072 2F060000 		.long	.LASF9
 220 0076 08       		.uleb128 0x8
 221 0077 01       		.byte	0x1
 222 0078 06       		.byte	0x6
 223 0079 4C010000 		.long	.LASF10
 224 007d 02       		.uleb128 0x2
 225 007e 4C000000 		.long	.LASF12
 226 0082 03       		.byte	0x3
 227 0083 26       		.byte	0x26
 228 0084 17       		.byte	0x17
 229 0085 61000000 		.long	0x61
 230 0089 08       		.uleb128 0x8
 231 008a 02       		.byte	0x2
 232 008b 05       		.byte	0x5
 233 008c 5E030000 		.long	.LASF13
 234 0090 02       		.uleb128 0x2
 235 0091 81060000 		.long	.LASF14
 236 0095 03       		.byte	0x3
 237 0096 29       		.byte	0x29
 238 0097 14       		.byte	0x14
 239 0098 26000000 		.long	0x26
 240 009c 02       		.uleb128 0x2
 241 009d 11020000 		.long	.LASF15
 242 00a1 03       		.byte	0x3
 243 00a2 2A       		.byte	0x2a
 244 00a3 16       		.byte	0x16
 245 00a4 3E000000 		.long	0x3e
 246 00a8 02       		.uleb128 0x2
 247 00a9 1C050000 		.long	.LASF16
 248 00ad 03       		.byte	0x3
 249 00ae 30       		.byte	0x30
 250 00af 2E       		.byte	0x2e
 251 00b0 B4000000 		.long	0xb4
 252 00b4 08       		.uleb128 0x8
 253 00b5 08       		.byte	0x8
 254 00b6 07       		.byte	0x7
 255 00b7 B6000000 		.long	.LASF17
GAS LISTING /tmp/cczQwsDB.s 			page 6


 256 00bb 1A       		.uleb128 0x1a
 257 00bc 04       		.byte	0x4
 258 00bd 08       		.uleb128 0x8
 259 00be 01       		.byte	0x1
 260 00bf 06       		.byte	0x6
 261 00c0 4D060000 		.long	.LASF18
 262 00c4 0C       		.uleb128 0xc
 263 00c5 BD000000 		.long	0xbd
 264 00c9 02       		.uleb128 0x2
 265 00ca 7C050000 		.long	.LASF19
 266 00ce 04       		.byte	0x4
 267 00cf 1A       		.byte	0x1a
 268 00d0 13       		.byte	0x13
 269 00d1 90000000 		.long	0x90
 270 00d5 02       		.uleb128 0x2
 271 00d6 60070000 		.long	.LASF20
 272 00da 05       		.byte	0x5
 273 00db 18       		.byte	0x18
 274 00dc 13       		.byte	0x13
 275 00dd 7D000000 		.long	0x7d
 276 00e1 0C       		.uleb128 0xc
 277 00e2 D5000000 		.long	0xd5
 278 00e6 02       		.uleb128 0x2
 279 00e7 F9050000 		.long	.LASF21
 280 00eb 05       		.byte	0x5
 281 00ec 1A       		.byte	0x1a
 282 00ed 14       		.byte	0x14
 283 00ee 9C000000 		.long	0x9c
 284 00f2 02       		.uleb128 0x2
 285 00f3 43000000 		.long	.LASF22
 286 00f7 05       		.byte	0x5
 287 00f8 1B       		.byte	0x1b
 288 00f9 14       		.byte	0x14
 289 00fa A8000000 		.long	0xa8
 290 00fe 0D       		.uleb128 0xd
 291 00ff F2000000 		.long	0xf2
 292 0103 02       		.uleb128 0x2
 293 0104 2C030000 		.long	.LASF23
 294 0108 06       		.byte	0x6
 295 0109 38       		.byte	0x38
 296 010a 1D       		.byte	0x1d
 297 010b D5000000 		.long	0xd5
 298 010f 02       		.uleb128 0x2
 299 0110 B4010000 		.long	.LASF24
 300 0114 06       		.byte	0x6
 301 0115 39       		.byte	0x39
 302 0116 1D       		.byte	0x1d
 303 0117 D5000000 		.long	0xd5
 304 011b 02       		.uleb128 0x2
 305 011c 3B050000 		.long	.LASF25
 306 0120 06       		.byte	0x6
 307 0121 3A       		.byte	0x3a
 308 0122 1D       		.byte	0x1d
 309 0123 D5000000 		.long	0xd5
 310 0127 02       		.uleb128 0x2
 311 0128 56050000 		.long	.LASF26
 312 012c 06       		.byte	0x6
GAS LISTING /tmp/cczQwsDB.s 			page 7


 313 012d 3C       		.byte	0x3c
 314 012e 1D       		.byte	0x1d
 315 012f E6000000 		.long	0xe6
 316 0133 02       		.uleb128 0x2
 317 0134 16030000 		.long	.LASF27
 318 0138 06       		.byte	0x6
 319 0139 3D       		.byte	0x3d
 320 013a 1D       		.byte	0x1d
 321 013b C9000000 		.long	0xc9
 322 013f 02       		.uleb128 0x2
 323 0140 52030000 		.long	.LASF28
 324 0144 06       		.byte	0x6
 325 0145 3F       		.byte	0x3f
 326 0146 1D       		.byte	0x1d
 327 0147 E6000000 		.long	0xe6
 328 014b 02       		.uleb128 0x2
 329 014c ED060000 		.long	.LASF29
 330 0150 06       		.byte	0x6
 331 0151 40       		.byte	0x40
 332 0152 1D       		.byte	0x1d
 333 0153 E6000000 		.long	0xe6
 334 0157 02       		.uleb128 0x2
 335 0158 73020000 		.long	.LASF30
 336 015c 06       		.byte	0x6
 337 015d 41       		.byte	0x41
 338 015e 1D       		.byte	0x1d
 339 015f C9000000 		.long	0xc9
 340 0163 02       		.uleb128 0x2
 341 0164 31050000 		.long	.LASF31
 342 0168 07       		.byte	0x7
 343 0169 80       		.byte	0x80
 344 016a 12       		.byte	0x12
 345 016b 3E000000 		.long	0x3e
 346 016f 02       		.uleb128 0x2
 347 0170 61060000 		.long	.LASF32
 348 0174 07       		.byte	0x7
 349 0175 85       		.byte	0x85
 350 0176 1A       		.byte	0x1a
 351 0177 7B010000 		.long	0x17b
 352 017b 05       		.uleb128 0x5
 353 017c 0C030000 		.long	.LASF49
 354 0180 50       		.byte	0x50
 355 0181 08       		.byte	0x8
 356 0182 A9       		.byte	0xa9
 357 0183 08       		.byte	0x8
 358 0184 70020000 		.long	0x270
 359 0188 07       		.uleb128 0x7
 360 0189 68647200 		.string	"hdr"
 361 018d 08       		.byte	0x8
 362 018e BA       		.byte	0xba
 363 018f 05       		.byte	0x5
 364 0190 EF050000 		.long	0x5ef
 365 0194 00       		.byte	0
 366 0195 07       		.uleb128 0x7
 367 0196 63747800 		.string	"ctx"
 368 019a 08       		.byte	0x8
 369 019b BE       		.byte	0xbe
GAS LISTING /tmp/cczQwsDB.s 			page 8


 370 019c 21       		.byte	0x21
 371 019d 0D050000 		.long	0x50d
 372 01a1 0C       		.byte	0xc
 373 01a2 01       		.uleb128 0x1
 374 01a3 13060000 		.long	.LASF33
 375 01a7 08       		.byte	0x8
 376 01a8 C2       		.byte	0xc2
 377 01a9 22       		.byte	0x22
 378 01aa EE060000 		.long	0x6ee
 379 01ae 10       		.byte	0x10
 380 01af 01       		.uleb128 0x1
 381 01b0 41060000 		.long	.LASF34
 382 01b4 08       		.byte	0x8
 383 01b5 C8       		.byte	0xc8
 384 01b6 22       		.byte	0x22
 385 01b7 F3060000 		.long	0x6f3
 386 01bb 14       		.byte	0x14
 387 01bc 01       		.uleb128 0x1
 388 01bd 1C020000 		.long	.LASF35
 389 01c1 08       		.byte	0x8
 390 01c2 CD       		.byte	0xcd
 391 01c3 21       		.byte	0x21
 392 01c4 F3060000 		.long	0x6f3
 393 01c8 18       		.byte	0x18
 394 01c9 01       		.uleb128 0x1
 395 01ca 92010000 		.long	.LASF36
 396 01ce 08       		.byte	0x8
 397 01cf D1       		.byte	0xd1
 398 01d0 21       		.byte	0x21
 399 01d1 0F010000 		.long	0x10f
 400 01d5 1C       		.byte	0x1c
 401 01d6 01       		.uleb128 0x1
 402 01d7 68070000 		.long	.LASF37
 403 01db 08       		.byte	0x8
 404 01dc D5       		.byte	0xd5
 405 01dd 21       		.byte	0x21
 406 01de 03010000 		.long	0x103
 407 01e2 1D       		.byte	0x1d
 408 01e3 01       		.uleb128 0x1
 409 01e4 24010000 		.long	.LASF38
 410 01e8 08       		.byte	0x8
 411 01e9 DA       		.byte	0xda
 412 01ea 21       		.byte	0x21
 413 01eb 1B010000 		.long	0x11b
 414 01ef 1E       		.byte	0x1e
 415 01f0 01       		.uleb128 0x1
 416 01f1 CD020000 		.long	.LASF39
 417 01f5 08       		.byte	0x8
 418 01f6 DE       		.byte	0xde
 419 01f7 22       		.byte	0x22
 420 01f8 4C030000 		.long	0x34c
 421 01fc 20       		.byte	0x20
 422 01fd 01       		.uleb128 0x1
 423 01fe AA020000 		.long	.LASF40
 424 0202 08       		.byte	0x8
 425 0203 E2       		.byte	0xe2
 426 0204 21       		.byte	0x21
GAS LISTING /tmp/cczQwsDB.s 			page 9


 427 0205 B7030000 		.long	0x3b7
 428 0209 24       		.byte	0x24
 429 020a 01       		.uleb128 0x1
 430 020b CD000000 		.long	.LASF41
 431 020f 08       		.byte	0x8
 432 0210 E8       		.byte	0xe8
 433 0211 21       		.byte	0x21
 434 0212 D3050000 		.long	0x5d3
 435 0216 2C       		.byte	0x2c
 436 0217 01       		.uleb128 0x1
 437 0218 17010000 		.long	.LASF42
 438 021c 08       		.byte	0x8
 439 021d EE       		.byte	0xee
 440 021e 22       		.byte	0x22
 441 021f BB000000 		.long	0xbb
 442 0223 30       		.byte	0x30
 443 0224 12       		.uleb128 0x12
 444 0225 7500     		.string	"u"
 445 0227 3F01     		.value	0x13f
 446 0229 17060000 		.long	0x617
 447 022d 34       		.byte	0x34
 448 022e 06       		.uleb128 0x6
 449 022f 22020000 		.long	.LASF43
 450 0233 4401     		.value	0x144
 451 0235 21       		.byte	0x21
 452 0236 8B030000 		.long	0x38b
 453 023a 38       		.byte	0x38
 454 023b 06       		.uleb128 0x6
 455 023c 89010000 		.long	.LASF44
 456 0240 4A01     		.value	0x14a
 457 0242 21       		.byte	0x21
 458 0243 B7030000 		.long	0x3b7
 459 0247 3C       		.byte	0x3c
 460 0248 06       		.uleb128 0x6
 461 0249 1C030000 		.long	.LASF45
 462 024d 5001     		.value	0x150
 463 024f 21       		.byte	0x21
 464 0250 3F010000 		.long	0x13f
 465 0254 44       		.byte	0x44
 466 0255 06       		.uleb128 0x6
 467 0256 96070000 		.long	.LASF46
 468 025a 5701     		.value	0x157
 469 025c 22       		.byte	0x22
 470 025d E9060000 		.long	0x6e9
 471 0261 48       		.byte	0x48
 472 0262 06       		.uleb128 0x6
 473 0263 26060000 		.long	.LASF47
 474 0267 5B01     		.value	0x15b
 475 0269 21       		.byte	0x21
 476 026a 27010000 		.long	0x127
 477 026e 4C       		.byte	0x4c
 478 026f 00       		.byte	0
 479 0270 02       		.uleb128 0x2
 480 0271 AB060000 		.long	.LASF48
 481 0275 07       		.byte	0x7
 482 0276 8A       		.byte	0x8a
 483 0277 1F       		.byte	0x1f
GAS LISTING /tmp/cczQwsDB.s 			page 10


 484 0278 7C020000 		.long	0x27c
 485 027c 0E       		.uleb128 0xe
 486 027d 9C060000 		.long	.LASF50
 487 0281 E0       		.byte	0xe0
 488 0282 9701     		.value	0x197
 489 0284 08       		.byte	0x8
 490 0285 FE020000 		.long	0x2fe
 491 0289 06       		.uleb128 0x6
 492 028a 4D070000 		.long	.LASF51
 493 028e 9B01     		.value	0x19b
 494 0290 21       		.byte	0x21
 495 0291 20070000 		.long	0x720
 496 0295 00       		.byte	0
 497 0296 06       		.uleb128 0x6
 498 0297 82010000 		.long	.LASF52
 499 029b 9F01     		.value	0x19f
 500 029d 21       		.byte	0x21
 501 029e 68050000 		.long	0x568
 502 02a2 10       		.byte	0x10
 503 02a3 06       		.uleb128 0x6
 504 02a4 CA060000 		.long	.LASF53
 505 02a8 A601     		.value	0x1a6
 506 02aa 21       		.byte	0x21
 507 02ab 8F050000 		.long	0x58f
 508 02af 28       		.byte	0x28
 509 02b0 06       		.uleb128 0x6
 510 02b1 87000000 		.long	.LASF54
 511 02b5 AB01     		.value	0x1ab
 512 02b7 21       		.byte	0x21
 513 02b8 63010000 		.long	0x163
 514 02bc 30       		.byte	0x30
 515 02bd 06       		.uleb128 0x6
 516 02be 2A000000 		.long	.LASF55
 517 02c2 B101     		.value	0x1b1
 518 02c4 21       		.byte	0x21
 519 02c5 25030000 		.long	0x325
 520 02c9 34       		.byte	0x34
 521 02ca 06       		.uleb128 0x6
 522 02cb 52060000 		.long	.LASF56
 523 02cf B601     		.value	0x1b6
 524 02d1 22       		.byte	0x22
 525 02d2 8A070000 		.long	0x78a
 526 02d6 38       		.byte	0x38
 527 02d7 06       		.uleb128 0x6
 528 02d8 4B050000 		.long	.LASF57
 529 02dc BA01     		.value	0x1ba
 530 02de 21       		.byte	0x21
 531 02df 6F010000 		.long	0x16f
 532 02e3 3C       		.byte	0x3c
 533 02e4 06       		.uleb128 0x6
 534 02e5 DE000000 		.long	.LASF58
 535 02e9 BF01     		.value	0x1bf
 536 02eb 21       		.byte	0x21
 537 02ec 6F010000 		.long	0x16f
 538 02f0 8C       		.byte	0x8c
 539 02f1 12       		.uleb128 0x12
 540 02f2 64626700 		.string	"dbg"
GAS LISTING /tmp/cczQwsDB.s 			page 11


 541 02f6 C401     		.value	0x1c4
 542 02f8 56030000 		.long	0x356
 543 02fc DC       		.byte	0xdc
 544 02fd 00       		.byte	0
 545 02fe 02       		.uleb128 0x2
 546 02ff 67040000 		.long	.LASF59
 547 0303 09       		.byte	0x9
 548 0304 3F       		.byte	0x3f
 549 0305 12       		.byte	0x12
 550 0306 E6000000 		.long	0xe6
 551 030a 05       		.uleb128 0x5
 552 030b BD010000 		.long	.LASF60
 553 030f 04       		.byte	0x4
 554 0310 09       		.byte	0x9
 555 0311 44       		.byte	0x44
 556 0312 10       		.byte	0x10
 557 0313 25030000 		.long	0x325
 558 0317 01       		.uleb128 0x1
 559 0318 36070000 		.long	.LASF61
 560 031c 09       		.byte	0x9
 561 031d 48       		.byte	0x48
 562 031e 21       		.byte	0x21
 563 031f FE020000 		.long	0x2fe
 564 0323 00       		.byte	0
 565 0324 00       		.byte	0
 566 0325 02       		.uleb128 0x2
 567 0326 92050000 		.long	.LASF62
 568 032a 09       		.byte	0x9
 569 032b 49       		.byte	0x49
 570 032c 03       		.byte	0x3
 571 032d 0A030000 		.long	0x30a
 572 0331 05       		.uleb128 0x5
 573 0332 66050000 		.long	.LASF63
 574 0336 04       		.byte	0x4
 575 0337 0A       		.byte	0xa
 576 0338 3E       		.byte	0x3e
 577 0339 10       		.byte	0x10
 578 033a 4C030000 		.long	0x34c
 579 033e 01       		.uleb128 0x1
 580 033f 8B060000 		.long	.LASF64
 581 0343 0A       		.byte	0xa
 582 0344 46       		.byte	0x46
 583 0345 24       		.byte	0x24
 584 0346 51030000 		.long	0x351
 585 034a 00       		.byte	0
 586 034b 00       		.byte	0
 587 034c 04       		.uleb128 0x4
 588 034d C4000000 		.long	0xc4
 589 0351 0D       		.uleb128 0xd
 590 0352 4C030000 		.long	0x34c
 591 0356 02       		.uleb128 0x2
 592 0357 78000000 		.long	.LASF65
 593 035b 0A       		.byte	0xa
 594 035c 51       		.byte	0x51
 595 035d 03       		.byte	0x3
 596 035e 31030000 		.long	0x331
 597 0362 02       		.uleb128 0x2
GAS LISTING /tmp/cczQwsDB.s 			page 12


 598 0363 70060000 		.long	.LASF66
 599 0367 0B       		.byte	0xb
 600 0368 6D       		.byte	0x6d
 601 0369 12       		.byte	0x12
 602 036a E6000000 		.long	0xe6
 603 036e 0D       		.uleb128 0xd
 604 036f 62030000 		.long	0x362
 605 0373 02       		.uleb128 0x2
 606 0374 65020000 		.long	.LASF67
 607 0378 0B       		.byte	0xb
 608 0379 79       		.byte	0x79
 609 037a 12       		.byte	0x12
 610 037b E6000000 		.long	0xe6
 611 037f 02       		.uleb128 0x2
 612 0380 BC020000 		.long	.LASF68
 613 0384 0B       		.byte	0xb
 614 0385 9B       		.byte	0x9b
 615 0386 12       		.byte	0x12
 616 0387 F2000000 		.long	0xf2
 617 038b 02       		.uleb128 0x2
 618 038c 02030000 		.long	.LASF69
 619 0390 0C       		.byte	0xc
 620 0391 32       		.byte	0x32
 621 0392 18       		.byte	0x18
 622 0393 97030000 		.long	0x397
 623 0397 05       		.uleb128 0x5
 624 0398 3C030000 		.long	.LASF70
 625 039c 04       		.byte	0x4
 626 039d 0C       		.byte	0xc
 627 039e 38       		.byte	0x38
 628 039f 08       		.byte	0x8
 629 03a0 B2030000 		.long	0x3b2
 630 03a4 01       		.uleb128 0x1
 631 03a5 12010000 		.long	.LASF71
 632 03a9 0C       		.byte	0xc
 633 03aa 39       		.byte	0x39
 634 03ab 1A       		.byte	0x1a
 635 03ac B2030000 		.long	0x3b2
 636 03b0 00       		.byte	0
 637 03b1 00       		.byte	0
 638 03b2 04       		.uleb128 0x4
 639 03b3 8B030000 		.long	0x38b
 640 03b7 02       		.uleb128 0x2
 641 03b8 B1020000 		.long	.LASF72
 642 03bc 0C       		.byte	0xc
 643 03bd 3F       		.byte	0x3f
 644 03be 19       		.byte	0x19
 645 03bf C3030000 		.long	0x3c3
 646 03c3 05       		.uleb128 0x5
 647 03c4 C5010000 		.long	.LASF73
 648 03c8 08       		.byte	0x8
 649 03c9 0C       		.byte	0xc
 650 03ca 45       		.byte	0x45
 651 03cb 08       		.byte	0x8
 652 03cc EB030000 		.long	0x3eb
 653 03d0 01       		.uleb128 0x1
 654 03d1 12010000 		.long	.LASF71
GAS LISTING /tmp/cczQwsDB.s 			page 13


 655 03d5 0C       		.byte	0xc
 656 03d6 46       		.byte	0x46
 657 03d7 1A       		.byte	0x1a
 658 03d8 EB030000 		.long	0x3eb
 659 03dc 00       		.byte	0
 660 03dd 01       		.uleb128 0x1
 661 03de 56000000 		.long	.LASF74
 662 03e2 0C       		.byte	0xc
 663 03e3 47       		.byte	0x47
 664 03e4 1A       		.byte	0x1a
 665 03e5 EB030000 		.long	0x3eb
 666 03e9 04       		.byte	0x4
 667 03ea 00       		.byte	0
 668 03eb 04       		.uleb128 0x4
 669 03ec B7030000 		.long	0x3b7
 670 03f0 02       		.uleb128 0x2
 671 03f1 98000000 		.long	.LASF75
 672 03f5 0C       		.byte	0xc
 673 03f6 4E       		.byte	0x4e
 674 03f7 22       		.byte	0x22
 675 03f8 FC030000 		.long	0x3fc
 676 03fc 05       		.uleb128 0x5
 677 03fd D2060000 		.long	.LASF76
 678 0401 0C       		.byte	0xc
 679 0402 0C       		.byte	0xc
 680 0403 55       		.byte	0x55
 681 0404 08       		.byte	0x8
 682 0405 31040000 		.long	0x431
 683 0409 01       		.uleb128 0x1
 684 040a 12010000 		.long	.LASF71
 685 040e 0C       		.byte	0xc
 686 040f 56       		.byte	0x56
 687 0410 1A       		.byte	0x1a
 688 0411 31040000 		.long	0x431
 689 0415 00       		.byte	0
 690 0416 01       		.uleb128 0x1
 691 0417 56000000 		.long	.LASF74
 692 041b 0C       		.byte	0xc
 693 041c 57       		.byte	0x57
 694 041d 1A       		.byte	0x1a
 695 041e 31040000 		.long	0x431
 696 0422 04       		.byte	0x4
 697 0423 01       		.uleb128 0x1
 698 0424 F4040000 		.long	.LASF77
 699 0428 0C       		.byte	0xc
 700 0429 58       		.byte	0x58
 701 042a 19       		.byte	0x19
 702 042b 27010000 		.long	0x127
 703 042f 08       		.byte	0x8
 704 0430 00       		.byte	0
 705 0431 04       		.uleb128 0x4
 706 0432 F0030000 		.long	0x3f0
 707 0436 02       		.uleb128 0x2
 708 0437 E6010000 		.long	.LASF78
 709 043b 0C       		.byte	0xc
 710 043c 5F       		.byte	0x5f
 711 043d 1E       		.byte	0x1e
GAS LISTING /tmp/cczQwsDB.s 			page 14


 712 043e 42040000 		.long	0x442
 713 0442 05       		.uleb128 0x5
 714 0443 74010000 		.long	.LASF79
 715 0447 0C       		.byte	0xc
 716 0448 0C       		.byte	0xc
 717 0449 64       		.byte	0x64
 718 044a 08       		.byte	0x8
 719 044b 77040000 		.long	0x477
 720 044f 01       		.uleb128 0x1
 721 0450 12010000 		.long	.LASF71
 722 0454 0C       		.byte	0xc
 723 0455 65       		.byte	0x65
 724 0456 1A       		.byte	0x1a
 725 0457 77040000 		.long	0x477
 726 045b 00       		.byte	0
 727 045c 01       		.uleb128 0x1
 728 045d 56000000 		.long	.LASF74
 729 0461 0C       		.byte	0xc
 730 0462 66       		.byte	0x66
 731 0463 1A       		.byte	0x1a
 732 0464 77040000 		.long	0x477
 733 0468 04       		.byte	0x4
 734 0469 01       		.uleb128 0x1
 735 046a 36000000 		.long	.LASF80
 736 046e 0C       		.byte	0xc
 737 046f 67       		.byte	0x67
 738 0470 19       		.byte	0x19
 739 0471 73030000 		.long	0x373
 740 0475 08       		.byte	0x8
 741 0476 00       		.byte	0
 742 0477 04       		.uleb128 0x4
 743 0478 36040000 		.long	0x436
 744 047c 04       		.uleb128 0x4
 745 047d D5000000 		.long	0xd5
 746 0481 13       		.uleb128 0x13
 747 0482 10       		.byte	0x10
 748 0483 0D       		.byte	0xd
 749 0484 87       		.byte	0x87
 750 0485 95040000 		.long	0x495
 751 0489 07       		.uleb128 0x7
 752 048a 6100     		.string	"a"
 753 048c 0D       		.byte	0xd
 754 048d 88       		.byte	0x88
 755 048e 0B       		.byte	0xb
 756 048f 95040000 		.long	0x495
 757 0493 00       		.byte	0
 758 0494 00       		.byte	0
 759 0495 14       		.uleb128 0x14
 760 0496 D5000000 		.long	0xd5
 761 049a A5040000 		.long	0x4a5
 762 049e 15       		.uleb128 0x15
 763 049f 3E000000 		.long	0x3e
 764 04a3 0F       		.byte	0xf
 765 04a4 00       		.byte	0
 766 04a5 1B       		.uleb128 0x1b
 767 04a6 98010000 		.long	.LASF170
 768 04aa 0D       		.byte	0xd
GAS LISTING /tmp/cczQwsDB.s 			page 15


 769 04ab 89       		.byte	0x89
 770 04ac 03       		.byte	0x3
 771 04ad 81040000 		.long	0x481
 772 04b1 10       		.byte	0x10
 773 04b2 02       		.uleb128 0x2
 774 04b3 7A060000 		.long	.LASF81
 775 04b7 0D       		.byte	0xd
 776 04b8 8E       		.byte	0x8e
 777 04b9 0F       		.byte	0xf
 778 04ba BB000000 		.long	0xbb
 779 04be 05       		.uleb128 0x5
 780 04bf 5B000000 		.long	.LASF82
 781 04c3 14       		.byte	0x14
 782 04c4 0D       		.byte	0xd
 783 04c5 9D       		.byte	0x9d
 784 04c6 08       		.byte	0x8
 785 04c7 0D050000 		.long	0x50d
 786 04cb 07       		.uleb128 0x7
 787 04cc 65627800 		.string	"ebx"
 788 04d0 0D       		.byte	0xd
 789 04d1 9E       		.byte	0x9e
 790 04d2 0B       		.byte	0xb
 791 04d3 B2040000 		.long	0x4b2
 792 04d7 00       		.byte	0
 793 04d8 07       		.uleb128 0x7
 794 04d9 65646900 		.string	"edi"
 795 04dd 0D       		.byte	0xd
 796 04de 9F       		.byte	0x9f
 797 04df 0B       		.byte	0xb
 798 04e0 B2040000 		.long	0x4b2
 799 04e4 04       		.byte	0x4
 800 04e5 07       		.uleb128 0x7
 801 04e6 65736900 		.string	"esi"
 802 04ea 0D       		.byte	0xd
 803 04eb A0       		.byte	0xa0
 804 04ec 0B       		.byte	0xb
 805 04ed B2040000 		.long	0x4b2
 806 04f1 08       		.byte	0x8
 807 04f2 07       		.uleb128 0x7
 808 04f3 65627000 		.string	"ebp"
 809 04f7 0D       		.byte	0xd
 810 04f8 A1       		.byte	0xa1
 811 04f9 0B       		.byte	0xb
 812 04fa B2040000 		.long	0x4b2
 813 04fe 0C       		.byte	0xc
 814 04ff 07       		.uleb128 0x7
 815 0500 65697000 		.string	"eip"
 816 0504 0D       		.byte	0xd
 817 0505 A2       		.byte	0xa2
 818 0506 0B       		.byte	0xb
 819 0507 B2040000 		.long	0x4b2
 820 050b 10       		.byte	0x10
 821 050c 00       		.byte	0
 822 050d 05       		.uleb128 0x5
 823 050e E7040000 		.long	.LASF83
 824 0512 04       		.byte	0x4
 825 0513 0D       		.byte	0xd
GAS LISTING /tmp/cczQwsDB.s 			page 16


 826 0514 AA       		.byte	0xaa
 827 0515 08       		.byte	0x8
 828 0516 27050000 		.long	0x527
 829 051a 07       		.uleb128 0x7
 830 051b 737000   		.string	"sp"
 831 051e 0D       		.byte	0xd
 832 051f AB       		.byte	0xab
 833 0520 17       		.byte	0x17
 834 0521 27050000 		.long	0x527
 835 0525 00       		.byte	0
 836 0526 00       		.byte	0
 837 0527 04       		.uleb128 0x4
 838 0528 BE040000 		.long	0x4be
 839 052c 08       		.uleb128 0x8
 840 052d 01       		.byte	0x1
 841 052e 02       		.byte	0x2
 842 052f 76050000 		.long	.LASF84
 843 0533 05       		.uleb128 0x5
 844 0534 98040000 		.long	.LASF85
 845 0538 18       		.byte	0x18
 846 0539 08       		.byte	0x8
 847 053a 64       		.byte	0x64
 848 053b 10       		.byte	0x10
 849 053c 68050000 		.long	0x568
 850 0540 01       		.uleb128 0x1
 851 0541 6A060000 		.long	.LASF86
 852 0545 08       		.byte	0x8
 853 0546 68       		.byte	0x68
 854 0547 21       		.byte	0x21
 855 0548 36040000 		.long	0x436
 856 054c 00       		.byte	0
 857 054d 01       		.uleb128 0x1
 858 054e 34030000 		.long	.LASF87
 859 0552 08       		.byte	0x8
 860 0553 6D       		.byte	0x6d
 861 0554 21       		.byte	0x21
 862 0555 6E030000 		.long	0x36e
 863 0559 0C       		.byte	0xc
 864 055a 01       		.uleb128 0x1
 865 055b 8C030000 		.long	.LASF88
 866 055f 08       		.byte	0x8
 867 0560 81       		.byte	0x81
 868 0561 21       		.byte	0x21
 869 0562 FE000000 		.long	0xfe
 870 0566 10       		.byte	0x10
 871 0567 00       		.byte	0
 872 0568 02       		.uleb128 0x2
 873 0569 F1000000 		.long	.LASF89
 874 056d 08       		.byte	0x8
 875 056e 83       		.byte	0x83
 876 056f 03       		.byte	0x3
 877 0570 33050000 		.long	0x533
 878 0574 05       		.uleb128 0x5
 879 0575 FE010000 		.long	.LASF90
 880 0579 08       		.byte	0x8
 881 057a 08       		.byte	0x8
 882 057b 88       		.byte	0x88
GAS LISTING /tmp/cczQwsDB.s 			page 17


 883 057c 10       		.byte	0x10
 884 057d 8F050000 		.long	0x58f
 885 0581 01       		.uleb128 0x1
 886 0582 E3020000 		.long	.LASF91
 887 0586 08       		.byte	0x8
 888 0587 8C       		.byte	0x8c
 889 0588 21       		.byte	0x21
 890 0589 B7030000 		.long	0x3b7
 891 058d 00       		.byte	0
 892 058e 00       		.byte	0
 893 058f 02       		.uleb128 0x2
 894 0590 E7050000 		.long	.LASF92
 895 0594 08       		.byte	0x8
 896 0595 8D       		.byte	0x8d
 897 0596 03       		.byte	0x3
 898 0597 74050000 		.long	0x574
 899 059b 02       		.uleb128 0x2
 900 059c 7C040000 		.long	.LASF93
 901 05a0 08       		.byte	0x8
 902 05a1 92       		.byte	0x92
 903 05a2 14       		.byte	0x14
 904 05a3 A7050000 		.long	0x5a7
 905 05a7 04       		.uleb128 0x4
 906 05a8 6F010000 		.long	0x16f
 907 05ac 05       		.uleb128 0x5
 908 05ad 67000000 		.long	.LASF94
 909 05b1 08       		.byte	0x8
 910 05b2 08       		.byte	0x8
 911 05b3 97       		.byte	0x97
 912 05b4 10       		.byte	0x10
 913 05b5 C7050000 		.long	0x5c7
 914 05b9 01       		.uleb128 0x1
 915 05ba E3020000 		.long	.LASF91
 916 05be 08       		.byte	0x8
 917 05bf 9B       		.byte	0x9b
 918 05c0 21       		.byte	0x21
 919 05c1 B7030000 		.long	0x3b7
 920 05c5 00       		.byte	0
 921 05c6 00       		.byte	0
 922 05c7 02       		.uleb128 0x2
 923 05c8 CA050000 		.long	.LASF95
 924 05cc 08       		.byte	0x8
 925 05cd 9C       		.byte	0x9c
 926 05ce 03       		.byte	0x3
 927 05cf AC050000 		.long	0x5ac
 928 05d3 02       		.uleb128 0x2
 929 05d4 D2020000 		.long	.LASF96
 930 05d8 08       		.byte	0x8
 931 05d9 A1       		.byte	0xa1
 932 05da 10       		.byte	0x10
 933 05db DF050000 		.long	0x5df
 934 05df 04       		.uleb128 0x4
 935 05e0 E4050000 		.long	0x5e4
 936 05e4 0F       		.uleb128 0xf
 937 05e5 EF050000 		.long	0x5ef
 938 05e9 03       		.uleb128 0x3
 939 05ea A7050000 		.long	0x5a7
GAS LISTING /tmp/cczQwsDB.s 			page 18


 940 05ee 00       		.byte	0
 941 05ef 1C       		.uleb128 0x1c
 942 05f0 0C       		.byte	0xc
 943 05f1 08       		.byte	0x8
 944 05f2 AD       		.byte	0xad
 945 05f3 03       		.byte	0x3
 946 05f4 17060000 		.long	0x617
 947 05f8 10       		.uleb128 0x10
 948 05f9 8C070000 		.long	.LASF97
 949 05fd B1       		.byte	0xb1
 950 05fe 8B030000 		.long	0x38b
 951 0602 10       		.uleb128 0x10
 952 0603 E3020000 		.long	.LASF91
 953 0607 B5       		.byte	0xb5
 954 0608 B7030000 		.long	0x3b7
 955 060c 10       		.uleb128 0x10
 956 060d 95060000 		.long	.LASF98
 957 0611 B9       		.byte	0xb9
 958 0612 F0030000 		.long	0x3f0
 959 0616 00       		.byte	0
 960 0617 1D       		.uleb128 0x1d
 961 0618 04       		.byte	0x4
 962 0619 08       		.byte	0x8
 963 061a 0201     		.value	0x102
 964 061c 03       		.byte	0x3
 965 061d 82060000 		.long	0x682
 966 0621 0A       		.uleb128 0xa
 967 0622 3C000000 		.long	.LASF99
 968 0626 0901     		.value	0x109
 969 0628 21       		.byte	0x21
 970 0629 33010000 		.long	0x133
 971 062d 0A       		.uleb128 0xa
 972 062e D5000000 		.long	.LASF100
 973 0632 1001     		.value	0x110
 974 0634 21       		.byte	0x21
 975 0635 33010000 		.long	0x133
 976 0639 0A       		.uleb128 0xa
 977 063a 75070000 		.long	.LASF101
 978 063e 1701     		.value	0x117
 979 0640 22       		.byte	0x22
 980 0641 BB000000 		.long	0xbb
 981 0645 0A       		.uleb128 0xa
 982 0646 A4020000 		.long	.LASF102
 983 064a 1E01     		.value	0x11e
 984 064c 22       		.byte	0x22
 985 064d 82060000 		.long	0x682
 986 0651 0A       		.uleb128 0xa
 987 0652 E9000000 		.long	.LASF103
 988 0656 2301     		.value	0x123
 989 0658 21       		.byte	0x21
 990 0659 33010000 		.long	0x133
 991 065d 0A       		.uleb128 0xa
 992 065e 96020000 		.long	.LASF104
 993 0662 2C01     		.value	0x12c
 994 0664 22       		.byte	0x22
 995 0665 AF060000 		.long	0x6af
 996 0669 0A       		.uleb128 0xa
GAS LISTING /tmp/cczQwsDB.s 			page 19


 997 066a 02060000 		.long	.LASF105
 998 066e 3501     		.value	0x135
 999 0670 22       		.byte	0x22
 1000 0671 E9060000 		.long	0x6e9
 1001 0675 0A       		.uleb128 0xa
 1002 0676 99050000 		.long	.LASF106
 1003 067a 3D01     		.value	0x13d
 1004 067c 21       		.byte	0x21
 1005 067d 3F010000 		.long	0x13f
 1006 0681 00       		.byte	0
 1007 0682 04       		.uleb128 0x4
 1008 0683 9B050000 		.long	0x59b
 1009 0687 05       		.uleb128 0x5
 1010 0688 DA050000 		.long	.LASF107
 1011 068c 0C       		.byte	0xc
 1012 068d 0E       		.byte	0xe
 1013 068e 34       		.byte	0x34
 1014 068f 10       		.byte	0x10
 1015 0690 AF060000 		.long	0x6af
 1016 0694 01       		.uleb128 0x1
 1017 0695 E3020000 		.long	.LASF91
 1018 0699 0E       		.byte	0xe
 1019 069a 35       		.byte	0x35
 1020 069b 19       		.byte	0x19
 1021 069c B7030000 		.long	0x3b7
 1022 06a0 00       		.byte	0
 1023 06a1 07       		.uleb128 0x7
 1024 06a2 636E7400 		.string	"cnt"
 1025 06a6 0E       		.byte	0xe
 1026 06a7 37       		.byte	0x37
 1027 06a8 19       		.byte	0x19
 1028 06a9 57010000 		.long	0x157
 1029 06ad 08       		.byte	0x8
 1030 06ae 00       		.byte	0
 1031 06af 04       		.uleb128 0x4
 1032 06b0 87060000 		.long	0x687
 1033 06b4 05       		.uleb128 0x5
 1034 06b5 2D070000 		.long	.LASF108
 1035 06b9 10       		.byte	0x10
 1036 06ba 0F       		.byte	0xf
 1037 06bb 39       		.byte	0x39
 1038 06bc 08       		.byte	0x8
 1039 06bd E9060000 		.long	0x6e9
 1040 06c1 01       		.uleb128 0x1
 1041 06c2 E3020000 		.long	.LASF91
 1042 06c6 0F       		.byte	0xf
 1043 06c7 3A       		.byte	0x3a
 1044 06c8 19       		.byte	0x19
 1045 06c9 B7030000 		.long	0x3b7
 1046 06cd 00       		.byte	0
 1047 06ce 01       		.uleb128 0x1
 1048 06cf 13060000 		.long	.LASF33
 1049 06d3 0F       		.byte	0xf
 1050 06d4 3C       		.byte	0x3c
 1051 06d5 1A       		.byte	0x1a
 1052 06d6 A7050000 		.long	0x5a7
 1053 06da 08       		.byte	0x8
GAS LISTING /tmp/cczQwsDB.s 			page 20


 1054 06db 01       		.uleb128 0x1
 1055 06dc 12010000 		.long	.LASF71
 1056 06e0 0F       		.byte	0xf
 1057 06e1 3E       		.byte	0x3e
 1058 06e2 1A       		.byte	0x1a
 1059 06e3 B7070000 		.long	0x7b7
 1060 06e7 0C       		.byte	0xc
 1061 06e8 00       		.byte	0
 1062 06e9 04       		.uleb128 0x4
 1063 06ea B4060000 		.long	0x6b4
 1064 06ee 04       		.uleb128 0x4
 1065 06ef 70020000 		.long	0x270
 1066 06f3 04       		.uleb128 0x4
 1067 06f4 A5040000 		.long	0x4a5
 1068 06f8 0E       		.uleb128 0xe
 1069 06f9 44030000 		.long	.LASF109
 1070 06fd 10       		.byte	0x10
 1071 06fe 6C01     		.value	0x16c
 1072 0700 10       		.byte	0x10
 1073 0701 20070000 		.long	0x720
 1074 0705 06       		.uleb128 0x6
 1075 0706 95060000 		.long	.LASF98
 1076 070a 7101     		.value	0x171
 1077 070c 21       		.byte	0x21
 1078 070d F0030000 		.long	0x3f0
 1079 0711 00       		.byte	0
 1080 0712 06       		.uleb128 0x6
 1081 0713 07050000 		.long	.LASF110
 1082 0717 7501     		.value	0x175
 1083 0719 22       		.byte	0x22
 1084 071a A7050000 		.long	0x5a7
 1085 071e 0C       		.byte	0xc
 1086 071f 00       		.byte	0
 1087 0720 16       		.uleb128 0x16
 1088 0721 1D000000 		.long	.LASF111
 1089 0725 7601     		.value	0x176
 1090 0727 F8060000 		.long	0x6f8
 1091 072b 0E       		.uleb128 0xe
 1092 072c D1040000 		.long	.LASF112
 1093 0730 14       		.byte	0x14
 1094 0731 7B01     		.value	0x17b
 1095 0733 10       		.byte	0x10
 1096 0734 7A070000 		.long	0x77a
 1097 0738 06       		.uleb128 0x6
 1098 0739 CD020000 		.long	.LASF39
 1099 073d 7F01     		.value	0x17f
 1100 073f 22       		.byte	0x22
 1101 0740 4C030000 		.long	0x34c
 1102 0744 00       		.byte	0
 1103 0745 06       		.uleb128 0x6
 1104 0746 C5040000 		.long	.LASF113
 1105 074a 8301     		.value	0x183
 1106 074c 22       		.byte	0x22
 1107 074d F3060000 		.long	0x6f3
 1108 0751 04       		.byte	0x4
 1109 0752 06       		.uleb128 0x6
 1110 0753 33010000 		.long	.LASF114
GAS LISTING /tmp/cczQwsDB.s 			page 21


 1111 0757 8701     		.value	0x187
 1112 0759 22       		.byte	0x22
 1113 075a F3060000 		.long	0x6f3
 1114 075e 08       		.byte	0x8
 1115 075f 06       		.uleb128 0x6
 1116 0760 2A020000 		.long	.LASF115
 1117 0764 8C01     		.value	0x18c
 1118 0766 22       		.byte	0x22
 1119 0767 F3060000 		.long	0x6f3
 1120 076b 0C       		.byte	0xc
 1121 076c 06       		.uleb128 0x6
 1122 076d F9040000 		.long	.LASF116
 1123 0771 9001     		.value	0x190
 1124 0773 22       		.byte	0x22
 1125 0774 F3060000 		.long	0x6f3
 1126 0778 10       		.byte	0x10
 1127 0779 00       		.byte	0
 1128 077a 16       		.uleb128 0x16
 1129 077b 12070000 		.long	.LASF117
 1130 077f 9201     		.value	0x192
 1131 0781 2B070000 		.long	0x72b
 1132 0785 0C       		.uleb128 0xc
 1133 0786 7A070000 		.long	0x77a
 1134 078a 04       		.uleb128 0x4
 1135 078b 85070000 		.long	0x785
 1136 078f 02       		.uleb128 0x2
 1137 0790 00000000 		.long	.LASF118
 1138 0794 10       		.byte	0x10
 1139 0795 34       		.byte	0x34
 1140 0796 10       		.byte	0x10
 1141 0797 9B070000 		.long	0x79b
 1142 079b 04       		.uleb128 0x4
 1143 079c A0070000 		.long	0x7a0
 1144 07a0 0F       		.uleb128 0xf
 1145 07a1 AB070000 		.long	0x7ab
 1146 07a5 03       		.uleb128 0x3
 1147 07a6 BB000000 		.long	0xbb
 1148 07aa 00       		.byte	0
 1149 07ab 02       		.uleb128 0x2
 1150 07ac 39020000 		.long	.LASF119
 1151 07b0 0F       		.byte	0xf
 1152 07b1 34       		.byte	0x34
 1153 07b2 19       		.byte	0x19
 1154 07b3 B4060000 		.long	0x6b4
 1155 07b7 04       		.uleb128 0x4
 1156 07b8 AB070000 		.long	0x7ab
 1157 07bc 02       		.uleb128 0x2
 1158 07bd B9060000 		.long	.LASF120
 1159 07c1 11       		.byte	0x11
 1160 07c2 37       		.byte	0x37
 1161 07c3 1F       		.byte	0x1f
 1162 07c4 C8070000 		.long	0x7c8
 1163 07c8 05       		.uleb128 0x5
 1164 07c9 9E070000 		.long	.LASF121
 1165 07cd 14       		.byte	0x14
 1166 07ce 11       		.byte	0x11
 1167 07cf 3C       		.byte	0x3c
GAS LISTING /tmp/cczQwsDB.s 			page 22


 1168 07d0 08       		.byte	0x8
 1169 07d1 17080000 		.long	0x817
 1170 07d5 01       		.uleb128 0x1
 1171 07d6 12010000 		.long	.LASF71
 1172 07da 11       		.byte	0x11
 1173 07db 3D       		.byte	0x3d
 1174 07dc 1A       		.byte	0x1a
 1175 07dd 17080000 		.long	0x817
 1176 07e1 00       		.byte	0
 1177 07e2 01       		.uleb128 0x1
 1178 07e3 8F040000 		.long	.LASF122
 1179 07e7 11       		.byte	0x11
 1180 07e8 40       		.byte	0x40
 1181 07e9 1A       		.byte	0x1a
 1182 07ea A7050000 		.long	0x5a7
 1183 07ee 04       		.byte	0x4
 1184 07ef 01       		.uleb128 0x1
 1185 07f0 F2050000 		.long	.LASF123
 1186 07f4 11       		.byte	0x11
 1187 07f5 42       		.byte	0x42
 1188 07f6 19       		.byte	0x19
 1189 07f7 3F010000 		.long	0x13f
 1190 07fb 08       		.byte	0x8
 1191 07fc 01       		.uleb128 0x1
 1192 07fd 68070000 		.long	.LASF37
 1193 0801 11       		.byte	0x11
 1194 0802 44       		.byte	0x44
 1195 0803 19       		.byte	0x19
 1196 0804 4B010000 		.long	0x14b
 1197 0808 0C       		.byte	0xc
 1198 0809 01       		.uleb128 0x1
 1199 080a 0A020000 		.long	.LASF124
 1200 080e 11       		.byte	0x11
 1201 080f 46       		.byte	0x46
 1202 0810 19       		.byte	0x19
 1203 0811 4B010000 		.long	0x14b
 1204 0815 10       		.byte	0x10
 1205 0816 00       		.byte	0
 1206 0817 04       		.uleb128 0x4
 1207 0818 BC070000 		.long	0x7bc
 1208 081c 05       		.uleb128 0x5
 1209 081d 53070000 		.long	.LASF125
 1210 0821 04       		.byte	0x4
 1211 0822 11       		.byte	0x11
 1212 0823 4D       		.byte	0x4d
 1213 0824 10       		.byte	0x10
 1214 0825 37080000 		.long	0x837
 1215 0829 01       		.uleb128 0x1
 1216 082a 12010000 		.long	.LASF71
 1217 082e 11       		.byte	0x11
 1218 082f 4E       		.byte	0x4e
 1219 0830 1A       		.byte	0x1a
 1220 0831 17080000 		.long	0x817
 1221 0835 00       		.byte	0
 1222 0836 00       		.byte	0
 1223 0837 02       		.uleb128 0x2
 1224 0838 56020000 		.long	.LASF126
GAS LISTING /tmp/cczQwsDB.s 			page 23


 1225 083c 11       		.byte	0x11
 1226 083d 51       		.byte	0x51
 1227 083e 03       		.byte	0x3
 1228 083f 1C080000 		.long	0x81c
 1229 0843 05       		.uleb128 0x5
 1230 0844 A7050000 		.long	.LASF127
 1231 0848 14       		.byte	0x14
 1232 0849 12       		.byte	0x12
 1233 084a 4F       		.byte	0x4f
 1234 084b 08       		.byte	0x8
 1235 084c 92080000 		.long	0x892
 1236 0850 01       		.uleb128 0x1
 1237 0851 7C070000 		.long	.LASF128
 1238 0855 12       		.byte	0x12
 1239 0856 50       		.byte	0x50
 1240 0857 03       		.byte	0x3
 1241 0858 2D000000 		.long	0x2d
 1242 085c 00       		.byte	0
 1243 085d 01       		.uleb128 0x1
 1244 085e 96030000 		.long	.LASF129
 1245 0862 12       		.byte	0x12
 1246 0863 50       		.byte	0x50
 1247 0864 03       		.byte	0x3
 1248 0865 B5080000 		.long	0x8b5
 1249 0869 04       		.byte	0x4
 1250 086a 01       		.uleb128 0x1
 1251 086b 48060000 		.long	.LASF130
 1252 086f 12       		.byte	0x12
 1253 0870 50       		.byte	0x50
 1254 0871 03       		.byte	0x3
 1255 0872 D3080000 		.long	0x8d3
 1256 0876 08       		.byte	0x8
 1257 0877 07       		.uleb128 0x7
 1258 0878 70757400 		.string	"put"
 1259 087c 12       		.byte	0x12
 1260 087d 50       		.byte	0x50
 1261 087e 03       		.byte	0x3
 1262 087f EC080000 		.long	0x8ec
 1263 0883 0C       		.byte	0xc
 1264 0884 07       		.uleb128 0x7
 1265 0885 67657400 		.string	"get"
 1266 0889 12       		.byte	0x12
 1267 088a 50       		.byte	0x50
 1268 088b 03       		.byte	0x3
 1269 088c 00090000 		.long	0x900
 1270 0890 10       		.byte	0x10
 1271 0891 00       		.byte	0
 1272 0892 0C       		.uleb128 0xc
 1273 0893 43080000 		.long	0x843
 1274 0897 09       		.uleb128 0x9
 1275 0898 2D000000 		.long	0x2d
 1276 089c B0080000 		.long	0x8b0
 1277 08a0 03       		.uleb128 0x3
 1278 08a1 BB000000 		.long	0xbb
 1279 08a5 03       		.uleb128 0x3
 1280 08a6 B0080000 		.long	0x8b0
 1281 08aa 03       		.uleb128 0x3
GAS LISTING /tmp/cczQwsDB.s 			page 24


 1282 08ab 2D000000 		.long	0x2d
 1283 08af 00       		.byte	0
 1284 08b0 04       		.uleb128 0x4
 1285 08b1 E1000000 		.long	0xe1
 1286 08b5 04       		.uleb128 0x4
 1287 08b6 97080000 		.long	0x897
 1288 08ba 09       		.uleb128 0x9
 1289 08bb 2D000000 		.long	0x2d
 1290 08bf D3080000 		.long	0x8d3
 1291 08c3 03       		.uleb128 0x3
 1292 08c4 BB000000 		.long	0xbb
 1293 08c8 03       		.uleb128 0x3
 1294 08c9 7C040000 		.long	0x47c
 1295 08cd 03       		.uleb128 0x3
 1296 08ce 2D000000 		.long	0x2d
 1297 08d2 00       		.byte	0
 1298 08d3 04       		.uleb128 0x4
 1299 08d4 BA080000 		.long	0x8ba
 1300 08d8 09       		.uleb128 0x9
 1301 08d9 33010000 		.long	0x133
 1302 08dd EC080000 		.long	0x8ec
 1303 08e1 03       		.uleb128 0x3
 1304 08e2 BB000000 		.long	0xbb
 1305 08e6 03       		.uleb128 0x3
 1306 08e7 D5000000 		.long	0xd5
 1307 08eb 00       		.byte	0
 1308 08ec 04       		.uleb128 0x4
 1309 08ed D8080000 		.long	0x8d8
 1310 08f1 09       		.uleb128 0x9
 1311 08f2 33010000 		.long	0x133
 1312 08f6 00090000 		.long	0x900
 1313 08fa 03       		.uleb128 0x3
 1314 08fb BB000000 		.long	0xbb
 1315 08ff 00       		.byte	0
 1316 0900 04       		.uleb128 0x4
 1317 0901 F1080000 		.long	0x8f1
 1318 0905 13       		.uleb128 0x13
 1319 0906 04       		.byte	0x4
 1320 0907 12       		.byte	0x12
 1321 0908 5A       		.byte	0x5a
 1322 0909 1B090000 		.long	0x91b
 1323 090d 07       		.uleb128 0x7
 1324 090e 766D7400 		.string	"vmt"
 1325 0912 12       		.byte	0x12
 1326 0913 5C       		.byte	0x5c
 1327 0914 29       		.byte	0x29
 1328 0915 1B090000 		.long	0x91b
 1329 0919 00       		.byte	0
 1330 091a 00       		.byte	0
 1331 091b 04       		.uleb128 0x4
 1332 091c 92080000 		.long	0x892
 1333 0920 02       		.uleb128 0x2
 1334 0921 41020000 		.long	.LASF131
 1335 0925 12       		.byte	0x12
 1336 0926 5E       		.byte	0x5e
 1337 0927 03       		.byte	0x3
 1338 0928 05090000 		.long	0x905
GAS LISTING /tmp/cczQwsDB.s 			page 25


 1339 092c 09       		.uleb128 0x9
 1340 092d 33010000 		.long	0x133
 1341 0931 45090000 		.long	0x945
 1342 0935 03       		.uleb128 0x3
 1343 0936 BB000000 		.long	0xbb
 1344 093a 03       		.uleb128 0x3
 1345 093b D5000000 		.long	0xd5
 1346 093f 03       		.uleb128 0x3
 1347 0940 73030000 		.long	0x373
 1348 0944 00       		.byte	0
 1349 0945 04       		.uleb128 0x4
 1350 0946 2C090000 		.long	0x92c
 1351 094a 09       		.uleb128 0x9
 1352 094b 33010000 		.long	0x133
 1353 094f 5E090000 		.long	0x95e
 1354 0953 03       		.uleb128 0x3
 1355 0954 BB000000 		.long	0xbb
 1356 0958 03       		.uleb128 0x3
 1357 0959 73030000 		.long	0x373
 1358 095d 00       		.byte	0
 1359 095e 04       		.uleb128 0x4
 1360 095f 4A090000 		.long	0x94a
 1361 0963 09       		.uleb128 0x9
 1362 0964 2D000000 		.long	0x2d
 1363 0968 81090000 		.long	0x981
 1364 096c 03       		.uleb128 0x3
 1365 096d BB000000 		.long	0xbb
 1366 0971 03       		.uleb128 0x3
 1367 0972 B0080000 		.long	0x8b0
 1368 0976 03       		.uleb128 0x3
 1369 0977 2D000000 		.long	0x2d
 1370 097b 03       		.uleb128 0x3
 1371 097c 73030000 		.long	0x373
 1372 0980 00       		.byte	0
 1373 0981 04       		.uleb128 0x4
 1374 0982 63090000 		.long	0x963
 1375 0986 09       		.uleb128 0x9
 1376 0987 2D000000 		.long	0x2d
 1377 098b A4090000 		.long	0x9a4
 1378 098f 03       		.uleb128 0x3
 1379 0990 BB000000 		.long	0xbb
 1380 0994 03       		.uleb128 0x3
 1381 0995 7C040000 		.long	0x47c
 1382 0999 03       		.uleb128 0x3
 1383 099a 2D000000 		.long	0x2d
 1384 099e 03       		.uleb128 0x3
 1385 099f 73030000 		.long	0x373
 1386 09a3 00       		.byte	0
 1387 09a4 04       		.uleb128 0x4
 1388 09a5 86090000 		.long	0x986
 1389 09a9 09       		.uleb128 0x9
 1390 09aa 33010000 		.long	0x133
 1391 09ae C2090000 		.long	0x9c2
 1392 09b2 03       		.uleb128 0x3
 1393 09b3 BB000000 		.long	0xbb
 1394 09b7 03       		.uleb128 0x3
 1395 09b8 3E000000 		.long	0x3e
GAS LISTING /tmp/cczQwsDB.s 			page 26


 1396 09bc 03       		.uleb128 0x3
 1397 09bd BB000000 		.long	0xbb
 1398 09c1 00       		.byte	0
 1399 09c2 04       		.uleb128 0x4
 1400 09c3 A9090000 		.long	0x9a9
 1401 09c7 02       		.uleb128 0x2
 1402 09c8 07010000 		.long	.LASF132
 1403 09cc 13       		.byte	0x13
 1404 09cd 3A       		.byte	0x3a
 1405 09ce 19       		.byte	0x19
 1406 09cf D3090000 		.long	0x9d3
 1407 09d3 05       		.uleb128 0x5
 1408 09d4 73040000 		.long	.LASF133
 1409 09d8 24       		.byte	0x24
 1410 09d9 13       		.byte	0x13
 1411 09da 4B       		.byte	0x4b
 1412 09db 08       		.byte	0x8
 1413 09dc 490A0000 		.long	0xa49
 1414 09e0 01       		.uleb128 0x1
 1415 09e1 29010000 		.long	.LASF134
 1416 09e5 13       		.byte	0x13
 1417 09e6 4C       		.byte	0x4c
 1418 09e7 19       		.byte	0x19
 1419 09e8 C7050000 		.long	0x5c7
 1420 09ec 00       		.byte	0
 1421 09ed 01       		.uleb128 0x1
 1422 09ee AF040000 		.long	.LASF135
 1423 09f2 13       		.byte	0x13
 1424 09f3 4D       		.byte	0x4d
 1425 09f4 19       		.byte	0x19
 1426 09f5 39000000 		.long	0x39
 1427 09f9 08       		.byte	0x8
 1428 09fa 01       		.uleb128 0x1
 1429 09fb CE010000 		.long	.LASF136
 1430 09ff 13       		.byte	0x13
 1431 0a00 4E       		.byte	0x4e
 1432 0a01 1A       		.byte	0x1a
 1433 0a02 7C040000 		.long	0x47c
 1434 0a06 0C       		.byte	0xc
 1435 0a07 01       		.uleb128 0x1
 1436 0a08 27070000 		.long	.LASF137
 1437 0a0c 13       		.byte	0x13
 1438 0a0d 4F       		.byte	0x4f
 1439 0a0e 1A       		.byte	0x1a
 1440 0a0f 7C040000 		.long	0x47c
 1441 0a13 10       		.byte	0x10
 1442 0a14 01       		.uleb128 0x1
 1443 0a15 D7010000 		.long	.LASF138
 1444 0a19 13       		.byte	0x13
 1445 0a1a 51       		.byte	0x51
 1446 0a1b 1A       		.byte	0x1a
 1447 0a1c 7C040000 		.long	0x47c
 1448 0a20 14       		.byte	0x14
 1449 0a21 01       		.uleb128 0x1
 1450 0a22 5E050000 		.long	.LASF139
 1451 0a26 13       		.byte	0x13
 1452 0a27 52       		.byte	0x52
GAS LISTING /tmp/cczQwsDB.s 			page 27


 1453 0a28 1A       		.byte	0x1a
 1454 0a29 7C040000 		.long	0x47c
 1455 0a2d 18       		.byte	0x18
 1456 0a2e 01       		.uleb128 0x1
 1457 0a2f 44070000 		.long	.LASF140
 1458 0a33 13       		.byte	0x13
 1459 0a34 53       		.byte	0x53
 1460 0a35 19       		.byte	0x19
 1461 0a36 490A0000 		.long	0xa49
 1462 0a3a 1C       		.byte	0x1c
 1463 0a3b 01       		.uleb128 0x1
 1464 0a3c DF010000 		.long	.LASF141
 1465 0a40 13       		.byte	0x13
 1466 0a41 54       		.byte	0x54
 1467 0a42 1A       		.byte	0x1a
 1468 0a43 BB000000 		.long	0xbb
 1469 0a47 20       		.byte	0x20
 1470 0a48 00       		.byte	0
 1471 0a49 02       		.uleb128 0x2
 1472 0a4a 68030000 		.long	.LASF142
 1473 0a4e 13       		.byte	0x13
 1474 0a4f 41       		.byte	0x41
 1475 0a50 10       		.byte	0x10
 1476 0a51 550A0000 		.long	0xa55
 1477 0a55 04       		.uleb128 0x4
 1478 0a56 5A0A0000 		.long	0xa5a
 1479 0a5a 0F       		.uleb128 0xf
 1480 0a5b 650A0000 		.long	0xa65
 1481 0a5f 03       		.uleb128 0x3
 1482 0a60 650A0000 		.long	0xa65
 1483 0a64 00       		.byte	0
 1484 0a65 04       		.uleb128 0x4
 1485 0a66 C7090000 		.long	0x9c7
 1486 0a6a 02       		.uleb128 0x2
 1487 0a6b 9C030000 		.long	.LASF143
 1488 0a6f 13       		.byte	0x13
 1489 0a70 61       		.byte	0x61
 1490 0a71 14       		.byte	0x14
 1491 0a72 C7090000 		.long	0x9c7
 1492 0a76 02       		.uleb128 0x2
 1493 0a77 FA060000 		.long	.LASF144
 1494 0a7b 13       		.byte	0x13
 1495 0a7c 6D       		.byte	0x6d
 1496 0a7d 14       		.byte	0x14
 1497 0a7e C7090000 		.long	0x9c7
 1498 0a82 1E       		.uleb128 0x1e
 1499 0a83 07       		.byte	0x7
 1500 0a84 04       		.byte	0x4
 1501 0a85 3E000000 		.long	0x3e
 1502 0a89 14       		.byte	0x14
 1503 0a8a 58       		.byte	0x58
 1504 0a8b 0E       		.byte	0xe
 1505 0a8c A30A0000 		.long	0xaa3
 1506 0a90 11       		.uleb128 0x11
 1507 0a91 13000000 		.long	.LASF145
 1508 0a95 00       		.byte	0
 1509 0a96 11       		.uleb128 0x11
GAS LISTING /tmp/cczQwsDB.s 			page 28


 1510 0a97 43050000 		.long	.LASF146
 1511 0a9b 01       		.byte	0x1
 1512 0a9c 11       		.uleb128 0x11
 1513 0a9d E4060000 		.long	.LASF147
 1514 0aa1 02       		.byte	0x2
 1515 0aa2 00       		.byte	0
 1516 0aa3 02       		.uleb128 0x2
 1517 0aa4 09060000 		.long	.LASF148
 1518 0aa8 14       		.byte	0x14
 1519 0aa9 5C       		.byte	0x5c
 1520 0aaa 03       		.byte	0x3
 1521 0aab 820A0000 		.long	0xa82
 1522 0aaf 02       		.uleb128 0x2
 1523 0ab0 19060000 		.long	.LASF149
 1524 0ab4 14       		.byte	0x14
 1525 0ab5 61       		.byte	0x61
 1526 0ab6 22       		.byte	0x22
 1527 0ab7 BB0A0000 		.long	0xabb
 1528 0abb 05       		.uleb128 0x5
 1529 0abc A2010000 		.long	.LASF150
 1530 0ac0 A0       		.byte	0xa0
 1531 0ac1 14       		.byte	0x14
 1532 0ac2 7B       		.byte	0x7b
 1533 0ac3 08       		.byte	0x8
 1534 0ac4 490B0000 		.long	0xb49
 1535 0ac8 07       		.uleb128 0x7
 1536 0ac9 766D7400 		.string	"vmt"
 1537 0acd 14       		.byte	0x14
 1538 0ace 7D       		.byte	0x7d
 1539 0acf 21       		.byte	0x21
 1540 0ad0 040C0000 		.long	0xc04
 1541 0ad4 00       		.byte	0
 1542 0ad5 01       		.uleb128 0x1
 1543 0ad6 E9020000 		.long	.LASF151
 1544 0ada 14       		.byte	0x14
 1545 0adb 7E       		.byte	0x7e
 1546 0adc 03       		.byte	0x3
 1547 0add 37080000 		.long	0x837
 1548 0ae1 04       		.byte	0x4
 1549 0ae2 01       		.uleb128 0x1
 1550 0ae3 92010000 		.long	.LASF36
 1551 0ae7 14       		.byte	0x14
 1552 0ae8 7E       		.byte	0x7e
 1553 0ae9 03       		.byte	0x3
 1554 0aea A30A0000 		.long	0xaa3
 1555 0aee 08       		.byte	0x8
 1556 0aef 01       		.uleb128 0x1
 1557 0af0 9D020000 		.long	.LASF152
 1558 0af4 14       		.byte	0x14
 1559 0af5 7E       		.byte	0x7e
 1560 0af6 03       		.byte	0x3
 1561 0af7 6A0A0000 		.long	0xa6a
 1562 0afb 0C       		.byte	0xc
 1563 0afc 01       		.uleb128 0x1
 1564 0afd A0050000 		.long	.LASF153
 1565 0b01 14       		.byte	0x14
 1566 0b02 7E       		.byte	0x7e
GAS LISTING /tmp/cczQwsDB.s 			page 29


 1567 0b03 03       		.byte	0x3
 1568 0b04 760A0000 		.long	0xa76
 1569 0b08 30       		.byte	0x30
 1570 0b09 07       		.uleb128 0x7
 1571 0b0a 696200   		.string	"ib"
 1572 0b0d 14       		.byte	0x14
 1573 0b0e 7E       		.byte	0x7e
 1574 0b0f 03       		.byte	0x3
 1575 0b10 090C0000 		.long	0xc09
 1576 0b14 54       		.byte	0x54
 1577 0b15 07       		.uleb128 0x7
 1578 0b16 6F6200   		.string	"ob"
 1579 0b19 14       		.byte	0x14
 1580 0b1a 7E       		.byte	0x7e
 1581 0b1b 03       		.byte	0x3
 1582 0b1c 090C0000 		.long	0xc09
 1583 0b20 74       		.byte	0x74
 1584 0b21 01       		.uleb128 0x1
 1585 0b22 BF050000 		.long	.LASF154
 1586 0b26 14       		.byte	0x14
 1587 0b27 7E       		.byte	0x7e
 1588 0b28 03       		.byte	0x3
 1589 0b29 26000000 		.long	0x26
 1590 0b2d 94       		.byte	0x94
 1591 0b2e 01       		.uleb128 0x1
 1592 0b2f 3B070000 		.long	.LASF155
 1593 0b33 14       		.byte	0x14
 1594 0b34 7E       		.byte	0x7e
 1595 0b35 03       		.byte	0x3
 1596 0b36 26000000 		.long	0x26
 1597 0b3a 98       		.byte	0x98
 1598 0b3b 01       		.uleb128 0x1
 1599 0b3c 09070000 		.long	.LASF156
 1600 0b40 14       		.byte	0x14
 1601 0b41 7E       		.byte	0x7e
 1602 0b42 03       		.byte	0x3
 1603 0b43 4C030000 		.long	0x34c
 1604 0b47 9C       		.byte	0x9c
 1605 0b48 00       		.byte	0
 1606 0b49 1F       		.uleb128 0x1f
 1607 0b4a 58010000 		.long	.LASF171
 1608 0b4e 00       		.byte	0
 1609 0b4f 15       		.byte	0x15
 1610 0b50 5B       		.byte	0x5b
 1611 0b51 10       		.byte	0x10
 1612 0b52 02       		.uleb128 0x2
 1613 0b53 0F050000 		.long	.LASF157
 1614 0b57 15       		.byte	0x15
 1615 0b58 5C       		.byte	0x5c
 1616 0b59 03       		.byte	0x3
 1617 0b5a 490B0000 		.long	0xb49
 1618 0b5e 0C       		.uleb128 0xc
 1619 0b5f 520B0000 		.long	0xb52
 1620 0b63 20       		.uleb128 0x20
 1621 0b64 53443100 		.string	"SD1"
 1622 0b68 15       		.byte	0x15
 1623 0b69 7A       		.byte	0x7a
GAS LISTING /tmp/cczQwsDB.s 			page 30


 1624 0b6a 15       		.byte	0x15
 1625 0b6b AF0A0000 		.long	0xaaf
 1626 0b6f 05       		.uleb128 0x5
 1627 0b70 86020000 		.long	.LASF158
 1628 0b74 28       		.byte	0x28
 1629 0b75 14       		.byte	0x14
 1630 0b76 70       		.byte	0x70
 1631 0b77 08       		.byte	0x8
 1632 0b78 FF0B0000 		.long	0xbff
 1633 0b7c 01       		.uleb128 0x1
 1634 0b7d 7C070000 		.long	.LASF128
 1635 0b81 14       		.byte	0x14
 1636 0b82 71       		.byte	0x71
 1637 0b83 03       		.byte	0x3
 1638 0b84 2D000000 		.long	0x2d
 1639 0b88 00       		.byte	0
 1640 0b89 01       		.uleb128 0x1
 1641 0b8a 96030000 		.long	.LASF129
 1642 0b8e 14       		.byte	0x14
 1643 0b8f 71       		.byte	0x71
 1644 0b90 03       		.byte	0x3
 1645 0b91 B5080000 		.long	0x8b5
 1646 0b95 04       		.byte	0x4
 1647 0b96 01       		.uleb128 0x1
 1648 0b97 48060000 		.long	.LASF130
 1649 0b9b 14       		.byte	0x14
 1650 0b9c 71       		.byte	0x71
 1651 0b9d 03       		.byte	0x3
 1652 0b9e D3080000 		.long	0x8d3
 1653 0ba2 08       		.byte	0x8
 1654 0ba3 07       		.uleb128 0x7
 1655 0ba4 70757400 		.string	"put"
 1656 0ba8 14       		.byte	0x14
 1657 0ba9 71       		.byte	0x71
 1658 0baa 03       		.byte	0x3
 1659 0bab EC080000 		.long	0x8ec
 1660 0baf 0C       		.byte	0xc
 1661 0bb0 07       		.uleb128 0x7
 1662 0bb1 67657400 		.string	"get"
 1663 0bb5 14       		.byte	0x14
 1664 0bb6 71       		.byte	0x71
 1665 0bb7 03       		.byte	0x3
 1666 0bb8 00090000 		.long	0x900
 1667 0bbc 10       		.byte	0x10
 1668 0bbd 01       		.uleb128 0x1
 1669 0bbe AA030000 		.long	.LASF159
 1670 0bc2 14       		.byte	0x14
 1671 0bc3 71       		.byte	0x71
 1672 0bc4 03       		.byte	0x3
 1673 0bc5 45090000 		.long	0x945
 1674 0bc9 14       		.byte	0x14
 1675 0bca 01       		.uleb128 0x1
 1676 0bcb C8020000 		.long	.LASF160
 1677 0bcf 14       		.byte	0x14
 1678 0bd0 71       		.byte	0x71
 1679 0bd1 03       		.byte	0x3
 1680 0bd2 5E090000 		.long	0x95e
GAS LISTING /tmp/cczQwsDB.s 			page 31


 1681 0bd6 18       		.byte	0x18
 1682 0bd7 01       		.uleb128 0x1
 1683 0bd8 25030000 		.long	.LASF161
 1684 0bdc 14       		.byte	0x14
 1685 0bdd 71       		.byte	0x71
 1686 0bde 03       		.byte	0x3
 1687 0bdf 81090000 		.long	0x981
 1688 0be3 1C       		.byte	0x1c
 1689 0be4 01       		.uleb128 0x1
 1690 0be5 1E010000 		.long	.LASF162
 1691 0be9 14       		.byte	0x14
 1692 0bea 71       		.byte	0x71
 1693 0beb 03       		.byte	0x3
 1694 0bec A4090000 		.long	0x9a4
 1695 0bf0 20       		.byte	0x20
 1696 0bf1 07       		.uleb128 0x7
 1697 0bf2 63746C00 		.string	"ctl"
 1698 0bf6 14       		.byte	0x14
 1699 0bf7 71       		.byte	0x71
 1700 0bf8 03       		.byte	0x3
 1701 0bf9 C2090000 		.long	0x9c2
 1702 0bfd 24       		.byte	0x24
 1703 0bfe 00       		.byte	0
 1704 0bff 0C       		.uleb128 0xc
 1705 0c00 6F0B0000 		.long	0xb6f
 1706 0c04 04       		.uleb128 0x4
 1707 0c05 FF0B0000 		.long	0xbff
 1708 0c09 14       		.uleb128 0x14
 1709 0c0a D5000000 		.long	0xd5
 1710 0c0e 190C0000 		.long	0xc19
 1711 0c12 15       		.uleb128 0x15
 1712 0c13 3E000000 		.long	0x3e
 1713 0c17 1F       		.byte	0x1f
 1714 0c18 00       		.byte	0
 1715 0c19 21       		.uleb128 0x21
 1716 0c1a 6E070000 		.long	.LASF172
 1717 0c1e 01       		.byte	0x1
 1718 0c1f 06       		.byte	0x6
 1719 0c20 1E       		.byte	0x1e
 1720 0c21 250C0000 		.long	0xc25
 1721 0c25 04       		.uleb128 0x4
 1722 0c26 20090000 		.long	0x920
 1723 0c2a 22       		.uleb128 0x22
 1724 0c2b A5040000 		.long	0x4a5
 1725 0c2f 10       		.byte	0x10
 1726 0c30 3C0C0000 		.long	0xc3c
 1727 0c34 23       		.uleb128 0x23
 1728 0c35 3E000000 		.long	0x3e
 1729 0c39 0F04     		.value	0x40f
 1730 0c3b 00       		.byte	0
 1731 0c3c 24       		.uleb128 0x24
 1732 0c3d 27050000 		.long	.LASF163
 1733 0c41 01       		.byte	0x1
 1734 0c42 09       		.byte	0x9
 1735 0c43 08       		.byte	0x8
 1736 0c44 2A0C0000 		.long	0xc2a
 1737 0c48 10       		.byte	0x10
GAS LISTING /tmp/cczQwsDB.s 			page 32


 1738 0c49 05       		.uleb128 0x5
 1739 0c4a 03       		.byte	0x3
 1740 0c4b 00000000 		.long	waThread1
 1741 0c4f 25       		.uleb128 0x25
 1742 0c50 AD070000 		.long	.LASF164
 1743 0c54 16       		.byte	0x16
 1744 0c55 2B       		.byte	0x2b
 1745 0c56 07       		.byte	0x7
 1746 0c57 26000000 		.long	0x26
 1747 0c5b 6B0C0000 		.long	0xc6b
 1748 0c5f 03       		.uleb128 0x3
 1749 0c60 250C0000 		.long	0xc25
 1750 0c64 03       		.uleb128 0x3
 1751 0c65 4C030000 		.long	0x34c
 1752 0c69 26       		.uleb128 0x26
 1753 0c6a 00       		.byte	0
 1754 0c6b 27       		.uleb128 0x27
 1755 0c6c 08000000 		.long	.LASF173
 1756 0c70 10       		.byte	0x10
 1757 0c71 DC01     		.value	0x1dc
 1758 0c73 08       		.byte	0x8
 1759 0c74 7E0C0000 		.long	0xc7e
 1760 0c78 03       		.uleb128 0x3
 1761 0c79 73030000 		.long	0x373
 1762 0c7d 00       		.byte	0
 1763 0c7e 17       		.uleb128 0x17
 1764 0c7f 7A030000 		.long	.LASF165
 1765 0c83 10       		.byte	0x10
 1766 0c84 C401     		.value	0x1c4
 1767 0c86 0D       		.byte	0xd
 1768 0c87 A7050000 		.long	0x5a7
 1769 0c8b A90C0000 		.long	0xca9
 1770 0c8f 03       		.uleb128 0x3
 1771 0c90 F3060000 		.long	0x6f3
 1772 0c94 03       		.uleb128 0x3
 1773 0c95 2D000000 		.long	0x2d
 1774 0c99 03       		.uleb128 0x3
 1775 0c9a 27010000 		.long	0x127
 1776 0c9e 03       		.uleb128 0x3
 1777 0c9f 8F070000 		.long	0x78f
 1778 0ca3 03       		.uleb128 0x3
 1779 0ca4 BB000000 		.long	0xbb
 1780 0ca8 00       		.byte	0
 1781 0ca9 17       		.uleb128 0x17
 1782 0caa 59060000 		.long	.LASF166
 1783 0cae 14       		.byte	0x14
 1784 0caf 8601     		.value	0x186
 1785 0cb1 09       		.byte	0x9
 1786 0cb2 33010000 		.long	0x133
 1787 0cb6 C50C0000 		.long	0xcc5
 1788 0cba 03       		.uleb128 0x3
 1789 0cbb C50C0000 		.long	0xcc5
 1790 0cbf 03       		.uleb128 0x3
 1791 0cc0 CA0C0000 		.long	0xcca
 1792 0cc4 00       		.byte	0
 1793 0cc5 04       		.uleb128 0x4
 1794 0cc6 AF0A0000 		.long	0xaaf
GAS LISTING /tmp/cczQwsDB.s 			page 33


 1795 0cca 04       		.uleb128 0x4
 1796 0ccb 5E0B0000 		.long	0xb5e
 1797 0ccf 28       		.uleb128 0x28
 1798 0cd0 6A010000 		.long	.LASF167
 1799 0cd4 17       		.byte	0x17
 1800 0cd5 4E01     		.value	0x14e
 1801 0cd7 08       		.byte	0x8
 1802 0cd8 29       		.uleb128 0x29
 1803 0cd9 F6010000 		.long	.LASF168
 1804 0cdd 18       		.byte	0x18
 1805 0cde FD       		.byte	0xfd
 1806 0cdf 08       		.byte	0x8
 1807 0ce0 2A       		.uleb128 0x2a
 1808 0ce1 91070000 		.long	.LASF174
 1809 0ce5 01       		.byte	0x1
 1810 0ce6 12       		.byte	0x12
 1811 0ce7 05       		.byte	0x5
 1812 0ce8 26000000 		.long	0x26
 1813 0cec 00000000 		.long	.LFB300
 1814 0cf0 72000000 		.long	.LFE300-.LFB300
 1815 0cf4 01       		.uleb128 0x1
 1816 0cf5 9C       		.byte	0x9c
 1817 0cf6 280D0000 		.long	0xd28
 1818 0cfa 0B       		.uleb128 0xb
 1819 0cfb 1F000000 		.long	.LVL3
 1820 0cff D80C0000 		.long	0xcd8
 1821 0d03 0B       		.uleb128 0xb
 1822 0d04 24000000 		.long	.LVL4
 1823 0d08 CF0C0000 		.long	0xccf
 1824 0d0c 0B       		.uleb128 0xb
 1825 0d0d 34000000 		.long	.LVL5
 1826 0d11 A90C0000 		.long	0xca9
 1827 0d15 0B       		.uleb128 0xb
 1828 0d16 58000000 		.long	.LVL6
 1829 0d1a 7E0C0000 		.long	0xc7e
 1830 0d1e 0B       		.uleb128 0xb
 1831 0d1f 6D000000 		.long	.LVL7
 1832 0d23 6B0C0000 		.long	0xc6b
 1833 0d27 00       		.byte	0
 1834 0d28 2B       		.uleb128 0x2b
 1835 0d29 72030000 		.long	.LASF175
 1836 0d2d 01       		.byte	0x1
 1837 0d2e 0A       		.byte	0xa
 1838 0d2f 08       		.byte	0x8
 1839 0d30 00000000 		.long	.LFB299
 1840 0d34 3B000000 		.long	.LFE299-.LFB299
 1841 0d38 01       		.uleb128 0x1
 1842 0d39 9C       		.byte	0x9c
 1843 0d3a 2C       		.uleb128 0x2c
 1844 0d3b 61726700 		.string	"arg"
 1845 0d3f 01       		.byte	0x1
 1846 0d40 0A       		.byte	0xa
 1847 0d41 08       		.byte	0x8
 1848 0d42 BB000000 		.long	0xbb
 1849 0d46 02       		.uleb128 0x2
 1850 0d47 91       		.byte	0x91
 1851 0d48 00       		.sleb128 0
GAS LISTING /tmp/cczQwsDB.s 			page 34


 1852 0d49 0B       		.uleb128 0xb
 1853 0d4a 2A000000 		.long	.LVL1
 1854 0d4e 4F0C0000 		.long	0xc4f
 1855 0d52 0B       		.uleb128 0xb
 1856 0d53 36000000 		.long	.LVL2
 1857 0d57 6B0C0000 		.long	0xc6b
 1858 0d5b 00       		.byte	0
 1859 0d5c 00       		.byte	0
 1860              		.section	.debug_abbrev,"",@progbits
 1861              	.Ldebug_abbrev0:
 1862 0000 01       		.uleb128 0x1
 1863 0001 0D       		.uleb128 0xd
 1864 0002 00       		.byte	0
 1865 0003 03       		.uleb128 0x3
 1866 0004 0E       		.uleb128 0xe
 1867 0005 3A       		.uleb128 0x3a
 1868 0006 0B       		.uleb128 0xb
 1869 0007 3B       		.uleb128 0x3b
 1870 0008 0B       		.uleb128 0xb
 1871 0009 39       		.uleb128 0x39
 1872 000a 0B       		.uleb128 0xb
 1873 000b 49       		.uleb128 0x49
 1874 000c 13       		.uleb128 0x13
 1875 000d 38       		.uleb128 0x38
 1876 000e 0B       		.uleb128 0xb
 1877 000f 00       		.byte	0
 1878 0010 00       		.byte	0
 1879 0011 02       		.uleb128 0x2
 1880 0012 16       		.uleb128 0x16
 1881 0013 00       		.byte	0
 1882 0014 03       		.uleb128 0x3
 1883 0015 0E       		.uleb128 0xe
 1884 0016 3A       		.uleb128 0x3a
 1885 0017 0B       		.uleb128 0xb
 1886 0018 3B       		.uleb128 0x3b
 1887 0019 0B       		.uleb128 0xb
 1888 001a 39       		.uleb128 0x39
 1889 001b 0B       		.uleb128 0xb
 1890 001c 49       		.uleb128 0x49
 1891 001d 13       		.uleb128 0x13
 1892 001e 00       		.byte	0
 1893 001f 00       		.byte	0
 1894 0020 03       		.uleb128 0x3
 1895 0021 05       		.uleb128 0x5
 1896 0022 00       		.byte	0
 1897 0023 49       		.uleb128 0x49
 1898 0024 13       		.uleb128 0x13
 1899 0025 00       		.byte	0
 1900 0026 00       		.byte	0
 1901 0027 04       		.uleb128 0x4
 1902 0028 0F       		.uleb128 0xf
 1903 0029 00       		.byte	0
 1904 002a 0B       		.uleb128 0xb
 1905 002b 21       		.uleb128 0x21
 1906 002c 04       		.sleb128 4
 1907 002d 49       		.uleb128 0x49
 1908 002e 13       		.uleb128 0x13
GAS LISTING /tmp/cczQwsDB.s 			page 35


 1909 002f 00       		.byte	0
 1910 0030 00       		.byte	0
 1911 0031 05       		.uleb128 0x5
 1912 0032 13       		.uleb128 0x13
 1913 0033 01       		.byte	0x1
 1914 0034 03       		.uleb128 0x3
 1915 0035 0E       		.uleb128 0xe
 1916 0036 0B       		.uleb128 0xb
 1917 0037 0B       		.uleb128 0xb
 1918 0038 3A       		.uleb128 0x3a
 1919 0039 0B       		.uleb128 0xb
 1920 003a 3B       		.uleb128 0x3b
 1921 003b 0B       		.uleb128 0xb
 1922 003c 39       		.uleb128 0x39
 1923 003d 0B       		.uleb128 0xb
 1924 003e 01       		.uleb128 0x1
 1925 003f 13       		.uleb128 0x13
 1926 0040 00       		.byte	0
 1927 0041 00       		.byte	0
 1928 0042 06       		.uleb128 0x6
 1929 0043 0D       		.uleb128 0xd
 1930 0044 00       		.byte	0
 1931 0045 03       		.uleb128 0x3
 1932 0046 0E       		.uleb128 0xe
 1933 0047 3A       		.uleb128 0x3a
 1934 0048 21       		.uleb128 0x21
 1935 0049 08       		.sleb128 8
 1936 004a 3B       		.uleb128 0x3b
 1937 004b 05       		.uleb128 0x5
 1938 004c 39       		.uleb128 0x39
 1939 004d 0B       		.uleb128 0xb
 1940 004e 49       		.uleb128 0x49
 1941 004f 13       		.uleb128 0x13
 1942 0050 38       		.uleb128 0x38
 1943 0051 0B       		.uleb128 0xb
 1944 0052 00       		.byte	0
 1945 0053 00       		.byte	0
 1946 0054 07       		.uleb128 0x7
 1947 0055 0D       		.uleb128 0xd
 1948 0056 00       		.byte	0
 1949 0057 03       		.uleb128 0x3
 1950 0058 08       		.uleb128 0x8
 1951 0059 3A       		.uleb128 0x3a
 1952 005a 0B       		.uleb128 0xb
 1953 005b 3B       		.uleb128 0x3b
 1954 005c 0B       		.uleb128 0xb
 1955 005d 39       		.uleb128 0x39
 1956 005e 0B       		.uleb128 0xb
 1957 005f 49       		.uleb128 0x49
 1958 0060 13       		.uleb128 0x13
 1959 0061 38       		.uleb128 0x38
 1960 0062 0B       		.uleb128 0xb
 1961 0063 00       		.byte	0
 1962 0064 00       		.byte	0
 1963 0065 08       		.uleb128 0x8
 1964 0066 24       		.uleb128 0x24
 1965 0067 00       		.byte	0
GAS LISTING /tmp/cczQwsDB.s 			page 36


 1966 0068 0B       		.uleb128 0xb
 1967 0069 0B       		.uleb128 0xb
 1968 006a 3E       		.uleb128 0x3e
 1969 006b 0B       		.uleb128 0xb
 1970 006c 03       		.uleb128 0x3
 1971 006d 0E       		.uleb128 0xe
 1972 006e 00       		.byte	0
 1973 006f 00       		.byte	0
 1974 0070 09       		.uleb128 0x9
 1975 0071 15       		.uleb128 0x15
 1976 0072 01       		.byte	0x1
 1977 0073 27       		.uleb128 0x27
 1978 0074 19       		.uleb128 0x19
 1979 0075 49       		.uleb128 0x49
 1980 0076 13       		.uleb128 0x13
 1981 0077 01       		.uleb128 0x1
 1982 0078 13       		.uleb128 0x13
 1983 0079 00       		.byte	0
 1984 007a 00       		.byte	0
 1985 007b 0A       		.uleb128 0xa
 1986 007c 0D       		.uleb128 0xd
 1987 007d 00       		.byte	0
 1988 007e 03       		.uleb128 0x3
 1989 007f 0E       		.uleb128 0xe
 1990 0080 3A       		.uleb128 0x3a
 1991 0081 21       		.uleb128 0x21
 1992 0082 08       		.sleb128 8
 1993 0083 3B       		.uleb128 0x3b
 1994 0084 05       		.uleb128 0x5
 1995 0085 39       		.uleb128 0x39
 1996 0086 0B       		.uleb128 0xb
 1997 0087 49       		.uleb128 0x49
 1998 0088 13       		.uleb128 0x13
 1999 0089 00       		.byte	0
 2000 008a 00       		.byte	0
 2001 008b 0B       		.uleb128 0xb
 2002 008c 48       		.uleb128 0x48
 2003 008d 00       		.byte	0
 2004 008e 7D       		.uleb128 0x7d
 2005 008f 01       		.uleb128 0x1
 2006 0090 7F       		.uleb128 0x7f
 2007 0091 13       		.uleb128 0x13
 2008 0092 00       		.byte	0
 2009 0093 00       		.byte	0
 2010 0094 0C       		.uleb128 0xc
 2011 0095 26       		.uleb128 0x26
 2012 0096 00       		.byte	0
 2013 0097 49       		.uleb128 0x49
 2014 0098 13       		.uleb128 0x13
 2015 0099 00       		.byte	0
 2016 009a 00       		.byte	0
 2017 009b 0D       		.uleb128 0xd
 2018 009c 35       		.uleb128 0x35
 2019 009d 00       		.byte	0
 2020 009e 49       		.uleb128 0x49
 2021 009f 13       		.uleb128 0x13
 2022 00a0 00       		.byte	0
GAS LISTING /tmp/cczQwsDB.s 			page 37


 2023 00a1 00       		.byte	0
 2024 00a2 0E       		.uleb128 0xe
 2025 00a3 13       		.uleb128 0x13
 2026 00a4 01       		.byte	0x1
 2027 00a5 03       		.uleb128 0x3
 2028 00a6 0E       		.uleb128 0xe
 2029 00a7 0B       		.uleb128 0xb
 2030 00a8 0B       		.uleb128 0xb
 2031 00a9 3A       		.uleb128 0x3a
 2032 00aa 21       		.uleb128 0x21
 2033 00ab 08       		.sleb128 8
 2034 00ac 3B       		.uleb128 0x3b
 2035 00ad 05       		.uleb128 0x5
 2036 00ae 39       		.uleb128 0x39
 2037 00af 0B       		.uleb128 0xb
 2038 00b0 01       		.uleb128 0x1
 2039 00b1 13       		.uleb128 0x13
 2040 00b2 00       		.byte	0
 2041 00b3 00       		.byte	0
 2042 00b4 0F       		.uleb128 0xf
 2043 00b5 15       		.uleb128 0x15
 2044 00b6 01       		.byte	0x1
 2045 00b7 27       		.uleb128 0x27
 2046 00b8 19       		.uleb128 0x19
 2047 00b9 01       		.uleb128 0x1
 2048 00ba 13       		.uleb128 0x13
 2049 00bb 00       		.byte	0
 2050 00bc 00       		.byte	0
 2051 00bd 10       		.uleb128 0x10
 2052 00be 0D       		.uleb128 0xd
 2053 00bf 00       		.byte	0
 2054 00c0 03       		.uleb128 0x3
 2055 00c1 0E       		.uleb128 0xe
 2056 00c2 3A       		.uleb128 0x3a
 2057 00c3 21       		.uleb128 0x21
 2058 00c4 08       		.sleb128 8
 2059 00c5 3B       		.uleb128 0x3b
 2060 00c6 0B       		.uleb128 0xb
 2061 00c7 39       		.uleb128 0x39
 2062 00c8 21       		.uleb128 0x21
 2063 00c9 21       		.sleb128 33
 2064 00ca 49       		.uleb128 0x49
 2065 00cb 13       		.uleb128 0x13
 2066 00cc 00       		.byte	0
 2067 00cd 00       		.byte	0
 2068 00ce 11       		.uleb128 0x11
 2069 00cf 28       		.uleb128 0x28
 2070 00d0 00       		.byte	0
 2071 00d1 03       		.uleb128 0x3
 2072 00d2 0E       		.uleb128 0xe
 2073 00d3 1C       		.uleb128 0x1c
 2074 00d4 0B       		.uleb128 0xb
 2075 00d5 00       		.byte	0
 2076 00d6 00       		.byte	0
 2077 00d7 12       		.uleb128 0x12
 2078 00d8 0D       		.uleb128 0xd
 2079 00d9 00       		.byte	0
GAS LISTING /tmp/cczQwsDB.s 			page 38


 2080 00da 03       		.uleb128 0x3
 2081 00db 08       		.uleb128 0x8
 2082 00dc 3A       		.uleb128 0x3a
 2083 00dd 21       		.uleb128 0x21
 2084 00de 08       		.sleb128 8
 2085 00df 3B       		.uleb128 0x3b
 2086 00e0 05       		.uleb128 0x5
 2087 00e1 39       		.uleb128 0x39
 2088 00e2 21       		.uleb128 0x21
 2089 00e3 21       		.sleb128 33
 2090 00e4 49       		.uleb128 0x49
 2091 00e5 13       		.uleb128 0x13
 2092 00e6 38       		.uleb128 0x38
 2093 00e7 0B       		.uleb128 0xb
 2094 00e8 00       		.byte	0
 2095 00e9 00       		.byte	0
 2096 00ea 13       		.uleb128 0x13
 2097 00eb 13       		.uleb128 0x13
 2098 00ec 01       		.byte	0x1
 2099 00ed 0B       		.uleb128 0xb
 2100 00ee 0B       		.uleb128 0xb
 2101 00ef 3A       		.uleb128 0x3a
 2102 00f0 0B       		.uleb128 0xb
 2103 00f1 3B       		.uleb128 0x3b
 2104 00f2 0B       		.uleb128 0xb
 2105 00f3 39       		.uleb128 0x39
 2106 00f4 21       		.uleb128 0x21
 2107 00f5 09       		.sleb128 9
 2108 00f6 01       		.uleb128 0x1
 2109 00f7 13       		.uleb128 0x13
 2110 00f8 00       		.byte	0
 2111 00f9 00       		.byte	0
 2112 00fa 14       		.uleb128 0x14
 2113 00fb 01       		.uleb128 0x1
 2114 00fc 01       		.byte	0x1
 2115 00fd 49       		.uleb128 0x49
 2116 00fe 13       		.uleb128 0x13
 2117 00ff 01       		.uleb128 0x1
 2118 0100 13       		.uleb128 0x13
 2119 0101 00       		.byte	0
 2120 0102 00       		.byte	0
 2121 0103 15       		.uleb128 0x15
 2122 0104 21       		.uleb128 0x21
 2123 0105 00       		.byte	0
 2124 0106 49       		.uleb128 0x49
 2125 0107 13       		.uleb128 0x13
 2126 0108 2F       		.uleb128 0x2f
 2127 0109 0B       		.uleb128 0xb
 2128 010a 00       		.byte	0
 2129 010b 00       		.byte	0
 2130 010c 16       		.uleb128 0x16
 2131 010d 16       		.uleb128 0x16
 2132 010e 00       		.byte	0
 2133 010f 03       		.uleb128 0x3
 2134 0110 0E       		.uleb128 0xe
 2135 0111 3A       		.uleb128 0x3a
 2136 0112 21       		.uleb128 0x21
GAS LISTING /tmp/cczQwsDB.s 			page 39


 2137 0113 08       		.sleb128 8
 2138 0114 3B       		.uleb128 0x3b
 2139 0115 05       		.uleb128 0x5
 2140 0116 39       		.uleb128 0x39
 2141 0117 21       		.uleb128 0x21
 2142 0118 03       		.sleb128 3
 2143 0119 49       		.uleb128 0x49
 2144 011a 13       		.uleb128 0x13
 2145 011b 00       		.byte	0
 2146 011c 00       		.byte	0
 2147 011d 17       		.uleb128 0x17
 2148 011e 2E       		.uleb128 0x2e
 2149 011f 01       		.byte	0x1
 2150 0120 3F       		.uleb128 0x3f
 2151 0121 19       		.uleb128 0x19
 2152 0122 03       		.uleb128 0x3
 2153 0123 0E       		.uleb128 0xe
 2154 0124 3A       		.uleb128 0x3a
 2155 0125 0B       		.uleb128 0xb
 2156 0126 3B       		.uleb128 0x3b
 2157 0127 05       		.uleb128 0x5
 2158 0128 39       		.uleb128 0x39
 2159 0129 0B       		.uleb128 0xb
 2160 012a 27       		.uleb128 0x27
 2161 012b 19       		.uleb128 0x19
 2162 012c 49       		.uleb128 0x49
 2163 012d 13       		.uleb128 0x13
 2164 012e 3C       		.uleb128 0x3c
 2165 012f 19       		.uleb128 0x19
 2166 0130 01       		.uleb128 0x1
 2167 0131 13       		.uleb128 0x13
 2168 0132 00       		.byte	0
 2169 0133 00       		.byte	0
 2170 0134 18       		.uleb128 0x18
 2171 0135 11       		.uleb128 0x11
 2172 0136 01       		.byte	0x1
 2173 0137 25       		.uleb128 0x25
 2174 0138 0E       		.uleb128 0xe
 2175 0139 13       		.uleb128 0x13
 2176 013a 0B       		.uleb128 0xb
 2177 013b 03       		.uleb128 0x3
 2178 013c 1F       		.uleb128 0x1f
 2179 013d 1B       		.uleb128 0x1b
 2180 013e 1F       		.uleb128 0x1f
 2181 013f 55       		.uleb128 0x55
 2182 0140 17       		.uleb128 0x17
 2183 0141 11       		.uleb128 0x11
 2184 0142 01       		.uleb128 0x1
 2185 0143 10       		.uleb128 0x10
 2186 0144 17       		.uleb128 0x17
 2187 0145 00       		.byte	0
 2188 0146 00       		.byte	0
 2189 0147 19       		.uleb128 0x19
 2190 0148 24       		.uleb128 0x24
 2191 0149 00       		.byte	0
 2192 014a 0B       		.uleb128 0xb
 2193 014b 0B       		.uleb128 0xb
GAS LISTING /tmp/cczQwsDB.s 			page 40


 2194 014c 3E       		.uleb128 0x3e
 2195 014d 0B       		.uleb128 0xb
 2196 014e 03       		.uleb128 0x3
 2197 014f 08       		.uleb128 0x8
 2198 0150 00       		.byte	0
 2199 0151 00       		.byte	0
 2200 0152 1A       		.uleb128 0x1a
 2201 0153 0F       		.uleb128 0xf
 2202 0154 00       		.byte	0
 2203 0155 0B       		.uleb128 0xb
 2204 0156 0B       		.uleb128 0xb
 2205 0157 00       		.byte	0
 2206 0158 00       		.byte	0
 2207 0159 1B       		.uleb128 0x1b
 2208 015a 16       		.uleb128 0x16
 2209 015b 00       		.byte	0
 2210 015c 03       		.uleb128 0x3
 2211 015d 0E       		.uleb128 0xe
 2212 015e 3A       		.uleb128 0x3a
 2213 015f 0B       		.uleb128 0xb
 2214 0160 3B       		.uleb128 0x3b
 2215 0161 0B       		.uleb128 0xb
 2216 0162 39       		.uleb128 0x39
 2217 0163 0B       		.uleb128 0xb
 2218 0164 49       		.uleb128 0x49
 2219 0165 13       		.uleb128 0x13
 2220 0166 8801     		.uleb128 0x88
 2221 0168 0B       		.uleb128 0xb
 2222 0169 00       		.byte	0
 2223 016a 00       		.byte	0
 2224 016b 1C       		.uleb128 0x1c
 2225 016c 17       		.uleb128 0x17
 2226 016d 01       		.byte	0x1
 2227 016e 0B       		.uleb128 0xb
 2228 016f 0B       		.uleb128 0xb
 2229 0170 3A       		.uleb128 0x3a
 2230 0171 0B       		.uleb128 0xb
 2231 0172 3B       		.uleb128 0x3b
 2232 0173 0B       		.uleb128 0xb
 2233 0174 39       		.uleb128 0x39
 2234 0175 0B       		.uleb128 0xb
 2235 0176 01       		.uleb128 0x1
 2236 0177 13       		.uleb128 0x13
 2237 0178 00       		.byte	0
 2238 0179 00       		.byte	0
 2239 017a 1D       		.uleb128 0x1d
 2240 017b 17       		.uleb128 0x17
 2241 017c 01       		.byte	0x1
 2242 017d 0B       		.uleb128 0xb
 2243 017e 0B       		.uleb128 0xb
 2244 017f 3A       		.uleb128 0x3a
 2245 0180 0B       		.uleb128 0xb
 2246 0181 3B       		.uleb128 0x3b
 2247 0182 05       		.uleb128 0x5
 2248 0183 39       		.uleb128 0x39
 2249 0184 0B       		.uleb128 0xb
 2250 0185 01       		.uleb128 0x1
GAS LISTING /tmp/cczQwsDB.s 			page 41


 2251 0186 13       		.uleb128 0x13
 2252 0187 00       		.byte	0
 2253 0188 00       		.byte	0
 2254 0189 1E       		.uleb128 0x1e
 2255 018a 04       		.uleb128 0x4
 2256 018b 01       		.byte	0x1
 2257 018c 3E       		.uleb128 0x3e
 2258 018d 0B       		.uleb128 0xb
 2259 018e 0B       		.uleb128 0xb
 2260 018f 0B       		.uleb128 0xb
 2261 0190 49       		.uleb128 0x49
 2262 0191 13       		.uleb128 0x13
 2263 0192 3A       		.uleb128 0x3a
 2264 0193 0B       		.uleb128 0xb
 2265 0194 3B       		.uleb128 0x3b
 2266 0195 0B       		.uleb128 0xb
 2267 0196 39       		.uleb128 0x39
 2268 0197 0B       		.uleb128 0xb
 2269 0198 01       		.uleb128 0x1
 2270 0199 13       		.uleb128 0x13
 2271 019a 00       		.byte	0
 2272 019b 00       		.byte	0
 2273 019c 1F       		.uleb128 0x1f
 2274 019d 13       		.uleb128 0x13
 2275 019e 00       		.byte	0
 2276 019f 03       		.uleb128 0x3
 2277 01a0 0E       		.uleb128 0xe
 2278 01a1 0B       		.uleb128 0xb
 2279 01a2 0B       		.uleb128 0xb
 2280 01a3 3A       		.uleb128 0x3a
 2281 01a4 0B       		.uleb128 0xb
 2282 01a5 3B       		.uleb128 0x3b
 2283 01a6 0B       		.uleb128 0xb
 2284 01a7 39       		.uleb128 0x39
 2285 01a8 0B       		.uleb128 0xb
 2286 01a9 00       		.byte	0
 2287 01aa 00       		.byte	0
 2288 01ab 20       		.uleb128 0x20
 2289 01ac 34       		.uleb128 0x34
 2290 01ad 00       		.byte	0
 2291 01ae 03       		.uleb128 0x3
 2292 01af 08       		.uleb128 0x8
 2293 01b0 3A       		.uleb128 0x3a
 2294 01b1 0B       		.uleb128 0xb
 2295 01b2 3B       		.uleb128 0x3b
 2296 01b3 0B       		.uleb128 0xb
 2297 01b4 39       		.uleb128 0x39
 2298 01b5 0B       		.uleb128 0xb
 2299 01b6 49       		.uleb128 0x49
 2300 01b7 13       		.uleb128 0x13
 2301 01b8 3F       		.uleb128 0x3f
 2302 01b9 19       		.uleb128 0x19
 2303 01ba 3C       		.uleb128 0x3c
 2304 01bb 19       		.uleb128 0x19
 2305 01bc 00       		.byte	0
 2306 01bd 00       		.byte	0
 2307 01be 21       		.uleb128 0x21
GAS LISTING /tmp/cczQwsDB.s 			page 42


 2308 01bf 34       		.uleb128 0x34
 2309 01c0 00       		.byte	0
 2310 01c1 03       		.uleb128 0x3
 2311 01c2 0E       		.uleb128 0xe
 2312 01c3 3A       		.uleb128 0x3a
 2313 01c4 0B       		.uleb128 0xb
 2314 01c5 3B       		.uleb128 0x3b
 2315 01c6 0B       		.uleb128 0xb
 2316 01c7 39       		.uleb128 0x39
 2317 01c8 0B       		.uleb128 0xb
 2318 01c9 49       		.uleb128 0x49
 2319 01ca 13       		.uleb128 0x13
 2320 01cb 00       		.byte	0
 2321 01cc 00       		.byte	0
 2322 01cd 22       		.uleb128 0x22
 2323 01ce 01       		.uleb128 0x1
 2324 01cf 01       		.byte	0x1
 2325 01d0 49       		.uleb128 0x49
 2326 01d1 13       		.uleb128 0x13
 2327 01d2 8801     		.uleb128 0x88
 2328 01d4 0B       		.uleb128 0xb
 2329 01d5 01       		.uleb128 0x1
 2330 01d6 13       		.uleb128 0x13
 2331 01d7 00       		.byte	0
 2332 01d8 00       		.byte	0
 2333 01d9 23       		.uleb128 0x23
 2334 01da 21       		.uleb128 0x21
 2335 01db 00       		.byte	0
 2336 01dc 49       		.uleb128 0x49
 2337 01dd 13       		.uleb128 0x13
 2338 01de 2F       		.uleb128 0x2f
 2339 01df 05       		.uleb128 0x5
 2340 01e0 00       		.byte	0
 2341 01e1 00       		.byte	0
 2342 01e2 24       		.uleb128 0x24
 2343 01e3 34       		.uleb128 0x34
 2344 01e4 00       		.byte	0
 2345 01e5 03       		.uleb128 0x3
 2346 01e6 0E       		.uleb128 0xe
 2347 01e7 3A       		.uleb128 0x3a
 2348 01e8 0B       		.uleb128 0xb
 2349 01e9 3B       		.uleb128 0x3b
 2350 01ea 0B       		.uleb128 0xb
 2351 01eb 39       		.uleb128 0x39
 2352 01ec 0B       		.uleb128 0xb
 2353 01ed 49       		.uleb128 0x49
 2354 01ee 13       		.uleb128 0x13
 2355 01ef 8801     		.uleb128 0x88
 2356 01f1 0B       		.uleb128 0xb
 2357 01f2 02       		.uleb128 0x2
 2358 01f3 18       		.uleb128 0x18
 2359 01f4 00       		.byte	0
 2360 01f5 00       		.byte	0
 2361 01f6 25       		.uleb128 0x25
 2362 01f7 2E       		.uleb128 0x2e
 2363 01f8 01       		.byte	0x1
 2364 01f9 3F       		.uleb128 0x3f
GAS LISTING /tmp/cczQwsDB.s 			page 43


 2365 01fa 19       		.uleb128 0x19
 2366 01fb 03       		.uleb128 0x3
 2367 01fc 0E       		.uleb128 0xe
 2368 01fd 3A       		.uleb128 0x3a
 2369 01fe 0B       		.uleb128 0xb
 2370 01ff 3B       		.uleb128 0x3b
 2371 0200 0B       		.uleb128 0xb
 2372 0201 39       		.uleb128 0x39
 2373 0202 0B       		.uleb128 0xb
 2374 0203 27       		.uleb128 0x27
 2375 0204 19       		.uleb128 0x19
 2376 0205 49       		.uleb128 0x49
 2377 0206 13       		.uleb128 0x13
 2378 0207 3C       		.uleb128 0x3c
 2379 0208 19       		.uleb128 0x19
 2380 0209 01       		.uleb128 0x1
 2381 020a 13       		.uleb128 0x13
 2382 020b 00       		.byte	0
 2383 020c 00       		.byte	0
 2384 020d 26       		.uleb128 0x26
 2385 020e 18       		.uleb128 0x18
 2386 020f 00       		.byte	0
 2387 0210 00       		.byte	0
 2388 0211 00       		.byte	0
 2389 0212 27       		.uleb128 0x27
 2390 0213 2E       		.uleb128 0x2e
 2391 0214 01       		.byte	0x1
 2392 0215 3F       		.uleb128 0x3f
 2393 0216 19       		.uleb128 0x19
 2394 0217 03       		.uleb128 0x3
 2395 0218 0E       		.uleb128 0xe
 2396 0219 3A       		.uleb128 0x3a
 2397 021a 0B       		.uleb128 0xb
 2398 021b 3B       		.uleb128 0x3b
 2399 021c 05       		.uleb128 0x5
 2400 021d 39       		.uleb128 0x39
 2401 021e 0B       		.uleb128 0xb
 2402 021f 27       		.uleb128 0x27
 2403 0220 19       		.uleb128 0x19
 2404 0221 3C       		.uleb128 0x3c
 2405 0222 19       		.uleb128 0x19
 2406 0223 01       		.uleb128 0x1
 2407 0224 13       		.uleb128 0x13
 2408 0225 00       		.byte	0
 2409 0226 00       		.byte	0
 2410 0227 28       		.uleb128 0x28
 2411 0228 2E       		.uleb128 0x2e
 2412 0229 00       		.byte	0
 2413 022a 3F       		.uleb128 0x3f
 2414 022b 19       		.uleb128 0x19
 2415 022c 03       		.uleb128 0x3
 2416 022d 0E       		.uleb128 0xe
 2417 022e 3A       		.uleb128 0x3a
 2418 022f 0B       		.uleb128 0xb
 2419 0230 3B       		.uleb128 0x3b
 2420 0231 05       		.uleb128 0x5
 2421 0232 39       		.uleb128 0x39
GAS LISTING /tmp/cczQwsDB.s 			page 44


 2422 0233 0B       		.uleb128 0xb
 2423 0234 27       		.uleb128 0x27
 2424 0235 19       		.uleb128 0x19
 2425 0236 3C       		.uleb128 0x3c
 2426 0237 19       		.uleb128 0x19
 2427 0238 00       		.byte	0
 2428 0239 00       		.byte	0
 2429 023a 29       		.uleb128 0x29
 2430 023b 2E       		.uleb128 0x2e
 2431 023c 00       		.byte	0
 2432 023d 3F       		.uleb128 0x3f
 2433 023e 19       		.uleb128 0x19
 2434 023f 03       		.uleb128 0x3
 2435 0240 0E       		.uleb128 0xe
 2436 0241 3A       		.uleb128 0x3a
 2437 0242 0B       		.uleb128 0xb
 2438 0243 3B       		.uleb128 0x3b
 2439 0244 0B       		.uleb128 0xb
 2440 0245 39       		.uleb128 0x39
 2441 0246 0B       		.uleb128 0xb
 2442 0247 27       		.uleb128 0x27
 2443 0248 19       		.uleb128 0x19
 2444 0249 3C       		.uleb128 0x3c
 2445 024a 19       		.uleb128 0x19
 2446 024b 00       		.byte	0
 2447 024c 00       		.byte	0
 2448 024d 2A       		.uleb128 0x2a
 2449 024e 2E       		.uleb128 0x2e
 2450 024f 01       		.byte	0x1
 2451 0250 3F       		.uleb128 0x3f
 2452 0251 19       		.uleb128 0x19
 2453 0252 03       		.uleb128 0x3
 2454 0253 0E       		.uleb128 0xe
 2455 0254 3A       		.uleb128 0x3a
 2456 0255 0B       		.uleb128 0xb
 2457 0256 3B       		.uleb128 0x3b
 2458 0257 0B       		.uleb128 0xb
 2459 0258 39       		.uleb128 0x39
 2460 0259 0B       		.uleb128 0xb
 2461 025a 27       		.uleb128 0x27
 2462 025b 19       		.uleb128 0x19
 2463 025c 49       		.uleb128 0x49
 2464 025d 13       		.uleb128 0x13
 2465 025e 11       		.uleb128 0x11
 2466 025f 01       		.uleb128 0x1
 2467 0260 12       		.uleb128 0x12
 2468 0261 06       		.uleb128 0x6
 2469 0262 40       		.uleb128 0x40
 2470 0263 18       		.uleb128 0x18
 2471 0264 7A       		.uleb128 0x7a
 2472 0265 19       		.uleb128 0x19
 2473 0266 01       		.uleb128 0x1
 2474 0267 13       		.uleb128 0x13
 2475 0268 00       		.byte	0
 2476 0269 00       		.byte	0
 2477 026a 2B       		.uleb128 0x2b
 2478 026b 2E       		.uleb128 0x2e
GAS LISTING /tmp/cczQwsDB.s 			page 45


 2479 026c 01       		.byte	0x1
 2480 026d 03       		.uleb128 0x3
 2481 026e 0E       		.uleb128 0xe
 2482 026f 3A       		.uleb128 0x3a
 2483 0270 0B       		.uleb128 0xb
 2484 0271 3B       		.uleb128 0x3b
 2485 0272 0B       		.uleb128 0xb
 2486 0273 39       		.uleb128 0x39
 2487 0274 0B       		.uleb128 0xb
 2488 0275 27       		.uleb128 0x27
 2489 0276 19       		.uleb128 0x19
 2490 0277 11       		.uleb128 0x11
 2491 0278 01       		.uleb128 0x1
 2492 0279 12       		.uleb128 0x12
 2493 027a 06       		.uleb128 0x6
 2494 027b 40       		.uleb128 0x40
 2495 027c 18       		.uleb128 0x18
 2496 027d 7A       		.uleb128 0x7a
 2497 027e 19       		.uleb128 0x19
 2498 027f 00       		.byte	0
 2499 0280 00       		.byte	0
 2500 0281 2C       		.uleb128 0x2c
 2501 0282 05       		.uleb128 0x5
 2502 0283 00       		.byte	0
 2503 0284 03       		.uleb128 0x3
 2504 0285 08       		.uleb128 0x8
 2505 0286 3A       		.uleb128 0x3a
 2506 0287 0B       		.uleb128 0xb
 2507 0288 3B       		.uleb128 0x3b
 2508 0289 0B       		.uleb128 0xb
 2509 028a 39       		.uleb128 0x39
 2510 028b 0B       		.uleb128 0xb
 2511 028c 49       		.uleb128 0x49
 2512 028d 13       		.uleb128 0x13
 2513 028e 02       		.uleb128 0x2
 2514 028f 18       		.uleb128 0x18
 2515 0290 00       		.byte	0
 2516 0291 00       		.byte	0
 2517 0292 00       		.byte	0
 2518              		.section	.debug_aranges,"",@progbits
 2519 0000 24000000 		.long	0x24
 2520 0004 0200     		.value	0x2
 2521 0006 00000000 		.long	.Ldebug_info0
 2522 000a 04       		.byte	0x4
 2523 000b 00       		.byte	0
 2524 000c 0000     		.value	0
 2525 000e 0000     		.value	0
 2526 0010 00000000 		.long	.LFB299
 2527 0014 3B000000 		.long	.LFE299-.LFB299
 2528 0018 00000000 		.long	.LFB300
 2529 001c 72000000 		.long	.LFE300-.LFB300
 2530 0020 00000000 		.long	0
 2531 0024 00000000 		.long	0
 2532              		.section	.debug_rnglists,"",@progbits
 2533              	.Ldebug_ranges0:
 2534 0000 15000000 		.long	.Ldebug_ranges3-.Ldebug_ranges2
 2535              	.Ldebug_ranges2:
GAS LISTING /tmp/cczQwsDB.s 			page 46


 2536 0004 0500     		.value	0x5
 2537 0006 04       		.byte	0x4
 2538 0007 00       		.byte	0
 2539 0008 00000000 		.long	0
 2540              	.LLRL0:
 2541 000c 07       		.byte	0x7
 2542 000d 00000000 		.long	.LFB299
 2543 0011 3B       		.uleb128 .LFE299-.LFB299
 2544 0012 07       		.byte	0x7
 2545 0013 00000000 		.long	.LFB300
 2546 0017 72       		.uleb128 .LFE300-.LFB300
 2547 0018 00       		.byte	0
 2548              	.Ldebug_ranges3:
 2549              		.section	.debug_line,"",@progbits
 2550              	.Ldebug_line0:
 2551 0000 3E010000 		.section	.debug_str,"MS",@progbits,1
 2551      05000400 
 2551      BD000000 
 2551      010101FB 
 2551      0E0D0001 
 2552              	.LASF118:
 2553 0000 7466756E 		.string	"tfunc_t"
 2553      635F7400 
 2554              	.LASF173:
 2555 0008 63685468 		.string	"chThdSleep"
 2555      64536C65 
 2555      657000
 2556              	.LASF145:
 2557 0013 53445F55 		.string	"SD_UNINIT"
 2557      4E494E49 
 2557      5400
 2558              	.LASF111:
 2559 001d 72656164 		.string	"ready_list_t"
 2559      795F6C69 
 2559      73745F74 
 2559      00
 2560              	.LASF55:
 2561 002a 72666375 		.string	"rfcu"
 2561      00
 2562              	.LASF11:
 2563 002f 73697A65 		.string	"size_t"
 2563      5F7400
 2564              	.LASF80:
 2565 0036 64656C74 		.string	"delta"
 2565      6100
 2566              	.LASF99:
 2567 003c 7264796D 		.string	"rdymsg"
 2567      736700
 2568              	.LASF22:
 2569 0043 75696E74 		.string	"uint64_t"
 2569      36345F74 
 2569      00
 2570              	.LASF12:
 2571 004c 5F5F7569 		.string	"__uint8_t"
 2571      6E74385F 
 2571      7400
 2572              	.LASF74:
GAS LISTING /tmp/cczQwsDB.s 			page 47


 2573 0056 70726576 		.string	"prev"
 2573      00
 2574              	.LASF82:
 2575 005b 706F7274 		.string	"port_intctx"
 2575      5F696E74 
 2575      63747800 
 2576              	.LASF94:
 2577 0067 63685F74 		.string	"ch_threads_queue"
 2577      68726561 
 2577      64735F71 
 2577      75657565 
 2577      00
 2578              	.LASF65:
 2579 0078 73797374 		.string	"system_debug_t"
 2579      656D5F64 
 2579      65627567 
 2579      5F7400
 2580              	.LASF54:
 2581 0087 636F7265 		.string	"core_id"
 2581      5F696400 
 2582              	.LASF3:
 2583 008f 6C6F6E67 		.string	"long int"
 2583      20696E74 
 2583      00
 2584              	.LASF75:
 2585 0098 63685F70 		.string	"ch_priority_queue_t"
 2585      72696F72 
 2585      6974795F 
 2585      71756575 
 2585      655F7400 
 2586              	.LASF6:
 2587 00ac 5F466C6F 		.string	"_Float128"
 2587      61743132 
 2587      3800
 2588              	.LASF17:
 2589 00b6 6C6F6E67 		.string	"long long unsigned int"
 2589      206C6F6E 
 2589      6720756E 
 2589      7369676E 
 2589      65642069 
 2590              	.LASF41:
 2591 00cd 64697370 		.string	"dispose"
 2591      6F736500 
 2592              	.LASF100:
 2593 00d5 65786974 		.string	"exitcode"
 2593      636F6465 
 2593      00
 2594              	.LASF58:
 2595 00de 6D61696E 		.string	"mainthread"
 2595      74687265 
 2595      616400
 2596              	.LASF103:
 2597 00e9 73656E74 		.string	"sentmsg"
 2597      6D736700 
 2598              	.LASF89:
 2599 00f1 76697274 		.string	"virtual_timers_list_t"
 2599      75616C5F 
GAS LISTING /tmp/cczQwsDB.s 			page 48


 2599      74696D65 
 2599      72735F6C 
 2599      6973745F 
 2600              	.LASF132:
 2601 0107 696F5F71 		.string	"io_queue_t"
 2601      75657565 
 2601      5F7400
 2602              	.LASF71:
 2603 0112 6E657874 		.string	"next"
 2603      00
 2604              	.LASF42:
 2605 0117 6F626A65 		.string	"object"
 2605      637400
 2606              	.LASF162:
 2607 011e 72656164 		.string	"readt"
 2607      7400
 2608              	.LASF38:
 2609 0124 72656673 		.string	"refs"
 2609      00
 2610              	.LASF134:
 2611 0129 715F7761 		.string	"q_waiting"
 2611      6974696E 
 2611      6700
 2612              	.LASF114:
 2613 0133 63737461 		.string	"cstack_end"
 2613      636B5F65 
 2613      6E6400
 2614              	.LASF4:
 2615 013e 6C6F6E67 		.string	"long long int"
 2615      206C6F6E 
 2615      6720696E 
 2615      7400
 2616              	.LASF10:
 2617 014c 7369676E 		.string	"signed char"
 2617      65642063 
 2617      68617200 
 2618              	.LASF171:
 2619 0158 68616C5F 		.string	"hal_serial_config"
 2619      73657269 
 2619      616C5F63 
 2619      6F6E6669 
 2619      6700
 2620              	.LASF167:
 2621 016a 63685379 		.string	"chSysInit"
 2621      73496E69 
 2621      7400
 2622              	.LASF79:
 2623 0174 63685F64 		.string	"ch_delta_list"
 2623      656C7461 
 2623      5F6C6973 
 2623      7400
 2624              	.LASF52:
 2625 0182 76746C69 		.string	"vtlist"
 2625      737400
 2626              	.LASF44:
 2627 0189 6D736771 		.string	"msgqueue"
 2627      75657565 
GAS LISTING /tmp/cczQwsDB.s 			page 49


 2627      00
 2628              	.LASF36:
 2629 0192 73746174 		.string	"state"
 2629      6500
 2630              	.LASF170:
 2631 0198 73746B6C 		.string	"stkline_t"
 2631      696E655F 
 2631      7400
 2632              	.LASF150:
 2633 01a2 68616C5F 		.string	"hal_serial_driver"
 2633      73657269 
 2633      616C5F64 
 2633      72697665 
 2633      7200
 2634              	.LASF24:
 2635 01b4 74737461 		.string	"tstate_t"
 2635      74655F74 
 2635      00
 2636              	.LASF60:
 2637 01bd 63685F72 		.string	"ch_rfcu"
 2637      66637500 
 2638              	.LASF73:
 2639 01c5 63685F71 		.string	"ch_queue"
 2639      75657565 
 2639      00
 2640              	.LASF136:
 2641 01ce 715F6275 		.string	"q_buffer"
 2641      66666572 
 2641      00
 2642              	.LASF138:
 2643 01d7 715F7772 		.string	"q_wrptr"
 2643      70747200 
 2644              	.LASF141:
 2645 01df 715F6C69 		.string	"q_link"
 2645      6E6B00
 2646              	.LASF78:
 2647 01e6 63685F64 		.string	"ch_delta_list_t"
 2647      656C7461 
 2647      5F6C6973 
 2647      745F7400 
 2648              	.LASF168:
 2649 01f6 68616C49 		.string	"halInit"
 2649      6E697400 
 2650              	.LASF90:
 2651 01fe 63685F72 		.string	"ch_registry"
 2651      65676973 
 2651      74727900 
 2652              	.LASF124:
 2653 020a 77666C61 		.string	"wflags"
 2653      677300
 2654              	.LASF15:
 2655 0211 5F5F7569 		.string	"__uint32_t"
 2655      6E743332 
 2655      5F7400
 2656              	.LASF35:
 2657 021c 7761656E 		.string	"waend"
 2657      6400
GAS LISTING /tmp/cczQwsDB.s 			page 50


 2658              	.LASF43:
 2659 0222 77616974 		.string	"waiting"
 2659      696E6700 
 2660              	.LASF115:
 2661 022a 69646C65 		.string	"idlestack_base"
 2661      73746163 
 2661      6B5F6261 
 2661      736500
 2662              	.LASF119:
 2663 0239 6D757465 		.string	"mutex_t"
 2663      785F7400 
 2664              	.LASF131:
 2665 0241 42617365 		.string	"BaseSequentialStream"
 2665      53657175 
 2665      656E7469 
 2665      616C5374 
 2665      7265616D 
 2666              	.LASF126:
 2667 0256 6576656E 		.string	"event_source_t"
 2667      745F736F 
 2667      75726365 
 2667      5F7400
 2668              	.LASF67:
 2669 0265 73797369 		.string	"sysinterval_t"
 2669      6E746572 
 2669      76616C5F 
 2669      7400
 2670              	.LASF30:
 2671 0273 636E745F 		.string	"cnt_t"
 2671      7400
 2672              	.LASF2:
 2673 0279 756E7369 		.string	"unsigned int"
 2673      676E6564 
 2673      20696E74 
 2673      00
 2674              	.LASF158:
 2675 0286 53657269 		.string	"SerialDriverVMT"
 2675      616C4472 
 2675      69766572 
 2675      564D5400 
 2676              	.LASF104:
 2677 0296 77747365 		.string	"wtsemp"
 2677      6D7000
 2678              	.LASF152:
 2679 029d 69717565 		.string	"iqueue"
 2679      756500
 2680              	.LASF102:
 2681 02a4 77747472 		.string	"wttrp"
 2681      7000
 2682              	.LASF40:
 2683 02aa 72717565 		.string	"rqueue"
 2683      756500
 2684              	.LASF72:
 2685 02b1 63685F71 		.string	"ch_queue_t"
 2685      75657565 
 2685      5F7400
 2686              	.LASF68:
GAS LISTING /tmp/cczQwsDB.s 			page 51


 2687 02bc 74696D65 		.string	"time_conv_t"
 2687      5F636F6E 
 2687      765F7400 
 2688              	.LASF160:
 2689 02c8 67657474 		.string	"gett"
 2689      00
 2690              	.LASF39:
 2691 02cd 6E616D65 		.string	"name"
 2691      00
 2692              	.LASF96:
 2693 02d2 74687265 		.string	"thread_dispose_t"
 2693      61645F64 
 2693      6973706F 
 2693      73655F74 
 2693      00
 2694              	.LASF91:
 2695 02e3 71756575 		.string	"queue"
 2695      6500
 2696              	.LASF151:
 2697 02e9 6576656E 		.string	"event"
 2697      7400
 2698              	.LASF8:
 2699 02ef 73686F72 		.string	"short unsigned int"
 2699      7420756E 
 2699      7369676E 
 2699      65642069 
 2699      6E7400
 2700              	.LASF69:
 2701 0302 63685F6C 		.string	"ch_list_t"
 2701      6973745F 
 2701      7400
 2702              	.LASF49:
 2703 030c 63685F74 		.string	"ch_thread"
 2703      68726561 
 2703      6400
 2704              	.LASF27:
 2705 0316 6D73675F 		.string	"msg_t"
 2705      7400
 2706              	.LASF45:
 2707 031c 6570656E 		.string	"epending"
 2707      64696E67 
 2707      00
 2708              	.LASF161:
 2709 0325 77726974 		.string	"writet"
 2709      657400
 2710              	.LASF23:
 2711 032c 746D6F64 		.string	"tmode_t"
 2711      655F7400 
 2712              	.LASF87:
 2713 0334 73797374 		.string	"systime"
 2713      696D6500 
 2714              	.LASF70:
 2715 033c 63685F6C 		.string	"ch_list"
 2715      69737400 
 2716              	.LASF109:
 2717 0344 63685F72 		.string	"ch_ready_list"
 2717      65616479 
GAS LISTING /tmp/cczQwsDB.s 			page 52


 2717      5F6C6973 
 2717      7400
 2718              	.LASF28:
 2719 0352 6576656E 		.string	"eventmask_t"
 2719      746D6173 
 2719      6B5F7400 
 2720              	.LASF13:
 2721 035e 73686F72 		.string	"short int"
 2721      7420696E 
 2721      7400
 2722              	.LASF142:
 2723 0368 716E6F74 		.string	"qnotify_t"
 2723      6966795F 
 2723      7400
 2724              	.LASF175:
 2725 0372 54687265 		.string	"Thread1"
 2725      61643100 
 2726              	.LASF165:
 2727 037a 63685468 		.string	"chThdCreateStatic"
 2727      64437265 
 2727      61746553 
 2727      74617469 
 2727      6300
 2728              	.LASF88:
 2729 038c 6C617374 		.string	"laststamp"
 2729      7374616D 
 2729      7000
 2730              	.LASF129:
 2731 0396 77726974 		.string	"write"
 2731      6500
 2732              	.LASF143:
 2733 039c 696E7075 		.string	"input_queue_t"
 2733      745F7175 
 2733      6575655F 
 2733      7400
 2734              	.LASF159:
 2735 03aa 70757474 		.string	"putt"
 2735      00
 2736              	.LASF169:
 2737 03af 474E5520 		.string	"GNU C17 11.4.0 -m32 -mtune=generic -march=i686 -ggdb -O2 -ffunction-sections -fdata-secti
 2737      43313720 
 2737      31312E34 
 2737      2E30202D 
 2737      6D333220 
 2738              	.LASF59:
 2739 0467 72666375 		.string	"rfcu_mask_t"
 2739      5F6D6173 
 2739      6B5F7400 
 2740              	.LASF133:
 2741 0473 696F5F71 		.string	"io_queue"
 2741      75657565 
 2741      00
 2742              	.LASF93:
 2743 047c 74687265 		.string	"thread_reference_t"
 2743      61645F72 
 2743      65666572 
 2743      656E6365 
GAS LISTING /tmp/cczQwsDB.s 			page 53


 2743      5F7400
 2744              	.LASF122:
 2745 048f 6C697374 		.string	"listener"
 2745      656E6572 
 2745      00
 2746              	.LASF85:
 2747 0498 63685F76 		.string	"ch_virtual_timers_list"
 2747      69727475 
 2747      616C5F74 
 2747      696D6572 
 2747      735F6C69 
 2748              	.LASF135:
 2749 04af 715F636F 		.string	"q_counter"
 2749      756E7465 
 2749      7200
 2750              	.LASF5:
 2751 04b9 6C6F6E67 		.string	"long double"
 2751      20646F75 
 2751      626C6500 
 2752              	.LASF113:
 2753 04c5 63737461 		.string	"cstack_base"
 2753      636B5F62 
 2753      61736500 
 2754              	.LASF112:
 2755 04d1 63685F6F 		.string	"ch_os_instance_config"
 2755      735F696E 
 2755      7374616E 
 2755      63655F63 
 2755      6F6E6669 
 2756              	.LASF83:
 2757 04e7 706F7274 		.string	"port_context"
 2757      5F636F6E 
 2757      74657874 
 2757      00
 2758              	.LASF77:
 2759 04f4 7072696F 		.string	"prio"
 2759      00
 2760              	.LASF116:
 2761 04f9 69646C65 		.string	"idlestack_end"
 2761      73746163 
 2761      6B5F656E 
 2761      6400
 2762              	.LASF110:
 2763 0507 63757272 		.string	"current"
 2763      656E7400 
 2764              	.LASF157:
 2765 050f 53657269 		.string	"SerialConfig"
 2765      616C436F 
 2765      6E666967 
 2765      00
 2766              	.LASF16:
 2767 051c 5F5F7569 		.string	"__uint64_t"
 2767      6E743634 
 2767      5F7400
 2768              	.LASF163:
 2769 0527 77615468 		.string	"waThread1"
 2769      72656164 
GAS LISTING /tmp/cczQwsDB.s 			page 54


 2769      3100
 2770              	.LASF31:
 2771 0531 636F7265 		.string	"core_id_t"
 2771      5F69645F 
 2771      7400
 2772              	.LASF25:
 2773 053b 74726566 		.string	"trefs_t"
 2773      735F7400 
 2774              	.LASF146:
 2775 0543 53445F53 		.string	"SD_STOP"
 2775      544F5000 
 2776              	.LASF57:
 2777 054b 69646C65 		.string	"idlethread"
 2777      74687265 
 2777      616400
 2778              	.LASF26:
 2779 0556 74707269 		.string	"tprio_t"
 2779      6F5F7400 
 2780              	.LASF139:
 2781 055e 715F7264 		.string	"q_rdptr"
 2781      70747200 
 2782              	.LASF63:
 2783 0566 63685F73 		.string	"ch_system_debug"
 2783      79737465 
 2783      6D5F6465 
 2783      62756700 
 2784              	.LASF84:
 2785 0576 5F426F6F 		.string	"_Bool"
 2785      6C00
 2786              	.LASF19:
 2787 057c 696E7433 		.string	"int32_t"
 2787      325F7400 
 2788              	.LASF7:
 2789 0584 756E7369 		.string	"unsigned char"
 2789      676E6564 
 2789      20636861 
 2789      7200
 2790              	.LASF62:
 2791 0592 72666375 		.string	"rfcu_t"
 2791      5F7400
 2792              	.LASF106:
 2793 0599 65776D61 		.string	"ewmask"
 2793      736B00
 2794              	.LASF153:
 2795 05a0 6F717565 		.string	"oqueue"
 2795      756500
 2796              	.LASF127:
 2797 05a7 42617365 		.string	"BaseSequentialStreamVMT"
 2797      53657175 
 2797      656E7469 
 2797      616C5374 
 2797      7265616D 
 2798              	.LASF154:
 2799 05bf 636F6D5F 		.string	"com_listen"
 2799      6C697374 
 2799      656E00
 2800              	.LASF95:
GAS LISTING /tmp/cczQwsDB.s 			page 55


 2801 05ca 74687265 		.string	"threads_queue_t"
 2801      6164735F 
 2801      71756575 
 2801      655F7400 
 2802              	.LASF107:
 2803 05da 63685F73 		.string	"ch_semaphore"
 2803      656D6170 
 2803      686F7265 
 2803      00
 2804              	.LASF92:
 2805 05e7 72656769 		.string	"registry_t"
 2805      73747279 
 2805      5F7400
 2806              	.LASF123:
 2807 05f2 6576656E 		.string	"events"
 2807      747300
 2808              	.LASF21:
 2809 05f9 75696E74 		.string	"uint32_t"
 2809      33325F74 
 2809      00
 2810              	.LASF105:
 2811 0602 77746D74 		.string	"wtmtxp"
 2811      787000
 2812              	.LASF148:
 2813 0609 73647374 		.string	"sdstate_t"
 2813      6174655F 
 2813      7400
 2814              	.LASF33:
 2815 0613 6F776E65 		.string	"owner"
 2815      7200
 2816              	.LASF149:
 2817 0619 53657269 		.string	"SerialDriver"
 2817      616C4472 
 2817      69766572 
 2817      00
 2818              	.LASF47:
 2819 0626 7265616C 		.string	"realprio"
 2819      7072696F 
 2819      00
 2820              	.LASF9:
 2821 062f 6C6F6E67 		.string	"long unsigned int"
 2821      20756E73 
 2821      69676E65 
 2821      6420696E 
 2821      7400
 2822              	.LASF34:
 2823 0641 77616261 		.string	"wabase"
 2823      736500
 2824              	.LASF130:
 2825 0648 72656164 		.string	"read"
 2825      00
 2826              	.LASF18:
 2827 064d 63686172 		.string	"char"
 2827      00
 2828              	.LASF56:
 2829 0652 636F6E66 		.string	"config"
 2829      696700
GAS LISTING /tmp/cczQwsDB.s 			page 56


 2830              	.LASF166:
 2831 0659 73645374 		.string	"sdStart"
 2831      61727400 
 2832              	.LASF32:
 2833 0661 74687265 		.string	"thread_t"
 2833      61645F74 
 2833      00
 2834              	.LASF86:
 2835 066a 646C6973 		.string	"dlist"
 2835      7400
 2836              	.LASF66:
 2837 0670 73797374 		.string	"systime_t"
 2837      696D655F 
 2837      7400
 2838              	.LASF81:
 2839 067a 72656778 		.string	"regx86"
 2839      383600
 2840              	.LASF14:
 2841 0681 5F5F696E 		.string	"__int32_t"
 2841      7433325F 
 2841      7400
 2842              	.LASF64:
 2843 068b 70616E69 		.string	"panic_msg"
 2843      635F6D73 
 2843      6700
 2844              	.LASF98:
 2845 0695 70717565 		.string	"pqueue"
 2845      756500
 2846              	.LASF50:
 2847 069c 63685F6F 		.string	"ch_os_instance"
 2847      735F696E 
 2847      7374616E 
 2847      636500
 2848              	.LASF48:
 2849 06ab 6F735F69 		.string	"os_instance_t"
 2849      6E737461 
 2849      6E63655F 
 2849      7400
 2850              	.LASF120:
 2851 06b9 6576656E 		.string	"event_listener_t"
 2851      745F6C69 
 2851      7374656E 
 2851      65725F74 
 2851      00
 2852              	.LASF53:
 2853 06ca 7265676C 		.string	"reglist"
 2853      69737400 
 2854              	.LASF76:
 2855 06d2 63685F70 		.string	"ch_priority_queue"
 2855      72696F72 
 2855      6974795F 
 2855      71756575 
 2855      6500
 2856              	.LASF147:
 2857 06e4 53445F52 		.string	"SD_READY"
 2857      45414459 
 2857      00
GAS LISTING /tmp/cczQwsDB.s 			page 57


 2858              	.LASF29:
 2859 06ed 6576656E 		.string	"eventflags_t"
 2859      74666C61 
 2859      67735F74 
 2859      00
 2860              	.LASF144:
 2861 06fa 6F757470 		.string	"output_queue_t"
 2861      75745F71 
 2861      75657565 
 2861      5F7400
 2862              	.LASF156:
 2863 0709 636F6D5F 		.string	"com_name"
 2863      6E616D65 
 2863      00
 2864              	.LASF117:
 2865 0712 6F735F69 		.string	"os_instance_config_t"
 2865      6E737461 
 2865      6E63655F 
 2865      636F6E66 
 2865      69675F74 
 2866              	.LASF137:
 2867 0727 715F746F 		.string	"q_top"
 2867      7000
 2868              	.LASF108:
 2869 072d 63685F6D 		.string	"ch_mutex"
 2869      75746578 
 2869      00
 2870              	.LASF61:
 2871 0736 6D61736B 		.string	"mask"
 2871      00
 2872              	.LASF155:
 2873 073b 636F6D5F 		.string	"com_data"
 2873      64617461 
 2873      00
 2874              	.LASF140:
 2875 0744 715F6E6F 		.string	"q_notify"
 2875      74696679 
 2875      00
 2876              	.LASF51:
 2877 074d 726C6973 		.string	"rlist"
 2877      7400
 2878              	.LASF125:
 2879 0753 6576656E 		.string	"event_source"
 2879      745F736F 
 2879      75726365 
 2879      00
 2880              	.LASF20:
 2881 0760 75696E74 		.string	"uint8_t"
 2881      385F7400 
 2882              	.LASF37:
 2883 0768 666C6167 		.string	"flags"
 2883      7300
 2884              	.LASF172:
 2885 076e 73657269 		.string	"serial"
 2885      616C00
 2886              	.LASF101:
 2887 0775 77746F62 		.string	"wtobjp"
GAS LISTING /tmp/cczQwsDB.s 			page 58


 2887      6A7000
 2888              	.LASF128:
 2889 077c 696E7374 		.string	"instance_offset"
 2889      616E6365 
 2889      5F6F6666 
 2889      73657400 
 2890              	.LASF97:
 2891 078c 6C697374 		.string	"list"
 2891      00
 2892              	.LASF174:
 2893 0791 6D61696E 		.string	"main"
 2893      00
 2894              	.LASF46:
 2895 0796 6D74786C 		.string	"mtxlist"
 2895      69737400 
 2896              	.LASF121:
 2897 079e 6576656E 		.string	"event_listener"
 2897      745F6C69 
 2897      7374656E 
 2897      657200
 2898              	.LASF164:
 2899 07ad 63687072 		.string	"chprintf"
 2899      696E7466 
 2899      00
 2900              		.section	.debug_line_str,"MS",@progbits,1
 2901              	.LASF1:
 2902 0000 2F686F6D 		.string	"/home/alex/ChibiOS/demos/various/LAB1"
 2902      652F616C 
 2902      65782F43 
 2902      68696269 
 2902      4F532F64 
 2903              	.LASF0:
 2904 0026 6D61696E 		.string	"main.c"
 2904      2E6300
 2905              		.ident	"GCC: (Ubuntu 11.4.0-1ubuntu1~22.04) 11.4.0"
 2906 002d 2F686F6D 		.section	.note.GNU-stack,"",@progbits
 2906      652F616C 
 2906      65782F43 
 2906      68696269 
 2906      4F532F64 
GAS LISTING /tmp/cczQwsDB.s 			page 59


DEFINED SYMBOLS
                            *ABS*:0000000000000000 main.c
     /tmp/cczQwsDB.s:11     .text.Thread1:0000000000000000 Thread1
     /tmp/cczQwsDB.s:129    .text.__x86.get_pc_thunk.bx:0000000000000000 __x86.get_pc_thunk.bx
     /tmp/cczQwsDB.s:61     .text.startup.main:0000000000000000 main
     /tmp/cczQwsDB.s:123    .bss.waThread1:0000000000000000 waThread1
     /tmp/cczQwsDB.s:6      .rodata.Thread1.str1.1:0000000000000000 .LC0

UNDEFINED SYMBOLS
_GLOBAL_OFFSET_TABLE_
SD1
chprintf
chThdSleep
halInit
chSysInit
sdStart
chThdCreateStatic
