GAS LISTING /tmp/cc3DArQA.s 			page 1


   1              		.file	"oslib_test_sequence_008.c"
   2              		.text
   3              	.Ltext0:
   4              		.file 0 "/home/alex/ChibiOS/demos/various/LAB1" "../../../test/oslib/source/test/oslib_test_sequen
   5              		.section	.rodata.oslib_test_008_002_execute.str1.1,"aMS",@progbits,1
   6              	.LC0:
   7 0000 616C6C6F 		.string	"allocation failed"
   7      63617469 
   7      6F6E2066 
   7      61696C65 
   7      6400
   8              	.LC1:
   9 0012 616C6C6F 		.string	"allocation not failed"
   9      63617469 
   9      6F6E206E 
   9      6F742066 
   9      61696C65 
  10              		.section	.text.oslib_test_008_002_execute,"ax",@progbits
  11              		.p2align 4
  12              		.type	oslib_test_008_002_execute, @function
  13              	oslib_test_008_002_execute:
  14              	.LFB305:
  15              		.file 1 "../../../test/oslib/source/test/oslib_test_sequence_008.c"
  16              		.loc 1 268 46 view -0
  17              		.cfi_startproc
  18 0000 57       		pushl	%edi
  19              		.cfi_def_cfa_offset 8
  20              		.cfi_offset 7, -8
  21 0001 56       		pushl	%esi
  22              		.cfi_def_cfa_offset 12
  23              		.cfi_offset 6, -12
  24 0002 53       		pushl	%ebx
  25              		.cfi_def_cfa_offset 16
  26              		.cfi_offset 3, -16
  27 0003 E8FCFFFF 		call	__x86.get_pc_thunk.bx
  27      FF
  28 0008 81C30200 		addl	$_GLOBAL_OFFSET_TABLE_, %ebx
  28      0000
  29 000e 83EC14   		subl	$20, %esp
  30              		.cfi_def_cfa_offset 36
  31              		.loc 1 268 46 is_stmt 0 view .LVU1
  32 0011 65A11400 		movl	%gs:20, %eax
  32      0000
  33 0017 89442410 		movl	%eax, 16(%esp)
  34 001b 31C0     		xorl	%eax, %eax
  35              		.loc 1 269 3 is_stmt 1 view .LVU2
  36              		.loc 1 270 3 view .LVU3
  37              		.loc 1 274 3 view .LVU4
  38              		.loc 1 276 11 is_stmt 0 view .LVU5
  39 001d 8D44240C 		leal	12(%esp), %eax
  40 0021 50       		pushl	%eax
  41              		.cfi_def_cfa_offset 40
  42              		.loc 1 274 3 view .LVU6
  43 0022 8BBB0000 		movl	chtest@GOT(%ebx), %edi
  43      0000
  44              		.loc 1 276 11 view .LVU7
  45 0028 8D44240C 		leal	12(%esp), %eax
GAS LISTING /tmp/cc3DArQA.s 			page 2


  46 002c 50       		pushl	%eax
  47              		.cfi_def_cfa_offset 44
  48 002d 6A00     		pushl	$0
  49              		.cfi_def_cfa_offset 48
  50              		.loc 1 274 3 view .LVU8
  51 002f C7070100 		movl	$1, (%edi)
  51      0000
  52              		.loc 1 276 5 is_stmt 1 view .LVU9
  53              		.loc 1 276 11 is_stmt 0 view .LVU10
  54 0035 E8FCFFFF 		call	chHeapStatus@PLT
  54      FF
  55              	.LVL0:
  56              		.loc 1 277 5 is_stmt 1 view .LVU11
  57              	.LBB37:
  58              	.LBI37:
  59              		.file 2 "../../../os/oslib/include/chmemheaps.h"
  60              		.loc 2 189 21 view .LVU12
  61              	.LBB38:
  62              		.loc 2 191 3 view .LVU13
  63              		.loc 2 191 10 is_stmt 0 view .LVU14
  64 003a 83C40C   		addl	$12, %esp
  65              		.cfi_def_cfa_offset 36
  66 003d 8D830000 		leal	test_heap@GOTOFF(%ebx), %eax
  66      0000
  67 0043 6A08     		pushl	$8
  68              		.cfi_def_cfa_offset 40
  69 0045 6A10     		pushl	$16
  70              		.cfi_def_cfa_offset 44
  71 0047 50       		pushl	%eax
  72              		.cfi_def_cfa_offset 48
  73 0048 E8FCFFFF 		call	chHeapAllocAligned@PLT
  73      FF
  74              	.LVL1:
  75 004d 89C6     		movl	%eax, %esi
  76              	.LVL2:
  77              		.loc 2 191 10 view .LVU15
  78              	.LBE38:
  79              	.LBE37:
  80              		.loc 1 278 5 is_stmt 1 view .LVU16
  81 004f 58       		popl	%eax
  82              		.cfi_def_cfa_offset 44
  83              	.LVL3:
  84              		.loc 1 278 5 is_stmt 0 view .LVU17
  85 0050 8D830000 		leal	.LC0@GOTOFF(%ebx), %eax
  85      0000
  86 0056 5A       		popl	%edx
  87              		.cfi_def_cfa_offset 40
  88 0057 50       		pushl	%eax
  89              		.cfi_def_cfa_offset 44
  90 0058 31C0     		xorl	%eax, %eax
  91 005a 85F6     		testl	%esi, %esi
  92 005c 0F95C0   		setne	%al
  93 005f 50       		pushl	%eax
  94              		.cfi_def_cfa_offset 48
  95 0060 E8FCFFFF 		call	__test_assert@PLT
  95      FF
  96              	.LVL4:
GAS LISTING /tmp/cc3DArQA.s 			page 3


  97 0065 83C410   		addl	$16, %esp
  98              		.cfi_def_cfa_offset 32
  99 0068 84C0     		testb	%al, %al
 100 006a 7414     		je	.L6
 101              	.LVL5:
 102              	.L1:
 103              		.loc 1 290 1 view .LVU18
 104 006c 8B44240C 		movl	12(%esp), %eax
 105 0070 652B0514 		subl	%gs:20, %eax
 105      000000
 106 0077 7543     		jne	.L7
 107 0079 83C410   		addl	$16, %esp
 108              		.cfi_remember_state
 109              		.cfi_def_cfa_offset 16
 110 007c 5B       		popl	%ebx
 111              		.cfi_restore 3
 112              		.cfi_def_cfa_offset 12
 113 007d 5E       		popl	%esi
 114              		.cfi_restore 6
 115              		.cfi_def_cfa_offset 8
 116 007e 5F       		popl	%edi
 117              		.cfi_restore 7
 118              		.cfi_def_cfa_offset 4
 119 007f C3       		ret
 120              	.LVL6:
 121              		.p2align 4,,10
 122              		.p2align 3
 123              	.L6:
 124              		.cfi_restore_state
 125              		.loc 1 278 49 is_stmt 1 discriminator 2 view .LVU19
 126              		.loc 1 279 5 discriminator 2 view .LVU20
 127 0080 83EC0C   		subl	$12, %esp
 128              		.cfi_def_cfa_offset 44
 129 0083 56       		pushl	%esi
 130              		.cfi_def_cfa_offset 48
 131 0084 E8FCFFFF 		call	chHeapFree@PLT
 131      FF
 132              	.LVL7:
 133              		.loc 1 281 3 discriminator 2 view .LVU21
 134              		.loc 1 281 19 discriminator 2 view .LVU22
 135              		.loc 1 284 3 discriminator 2 view .LVU23
 136              	.LBB39:
 137              	.LBB40:
 138              		.loc 2 191 10 is_stmt 0 discriminator 2 view .LVU24
 139 0089 83C40C   		addl	$12, %esp
 140              		.cfi_def_cfa_offset 36
 141              	.LBE40:
 142              	.LBE39:
 143              		.loc 1 284 3 discriminator 2 view .LVU25
 144 008c C7070200 		movl	$2, (%edi)
 144      0000
 145              		.loc 1 286 5 is_stmt 1 discriminator 2 view .LVU26
 146              	.LVL8:
 147              	.LBB42:
 148              	.LBI39:
 149              		.loc 2 189 21 discriminator 2 view .LVU27
 150              	.LBB41:
GAS LISTING /tmp/cc3DArQA.s 			page 4


 151              		.loc 2 191 3 discriminator 2 view .LVU28
 152              		.loc 2 191 10 is_stmt 0 discriminator 2 view .LVU29
 153 0092 6A08     		pushl	$8
 154              		.cfi_def_cfa_offset 40
 155 0094 6800FFFF 		pushl	$-256
 155      FF
 156              		.cfi_def_cfa_offset 44
 157 0099 6A00     		pushl	$0
 158              		.cfi_def_cfa_offset 48
 159 009b E8FCFFFF 		call	chHeapAllocAligned@PLT
 159      FF
 160              	.LVL9:
 161              		.loc 2 191 10 discriminator 2 view .LVU30
 162              	.LBE41:
 163              	.LBE42:
 164              		.loc 1 287 5 is_stmt 1 discriminator 2 view .LVU31
 165 00a0 5A       		popl	%edx
 166              		.cfi_def_cfa_offset 44
 167 00a1 8D930000 		leal	.LC1@GOTOFF(%ebx), %edx
 167      0000
 168 00a7 59       		popl	%ecx
 169              		.cfi_def_cfa_offset 40
 170 00a8 85C0     		testl	%eax, %eax
 171 00aa 52       		pushl	%edx
 172              		.cfi_def_cfa_offset 44
 173 00ab 0F94C0   		sete	%al
 174              	.LVL10:
 175              		.loc 1 287 5 is_stmt 0 discriminator 2 view .LVU32
 176 00ae 0FB6C0   		movzbl	%al, %eax
 177 00b1 50       		pushl	%eax
 178              		.cfi_def_cfa_offset 48
 179 00b2 E8FCFFFF 		call	__test_assert@PLT
 179      FF
 180              	.LVL11:
 181              		.loc 1 287 5 is_stmt 1 discriminator 2 view .LVU33
 182 00b7 83C410   		addl	$16, %esp
 183              		.cfi_def_cfa_offset 32
 184 00ba EBB0     		jmp	.L1
 185              	.L7:
 186              		.loc 1 290 1 is_stmt 0 view .LVU34
 187 00bc E8FCFFFF 		call	__stack_chk_fail_local
 187      FF
 188              	.LVL12:
 189              		.cfi_endproc
 190              	.LFE305:
 191              		.size	oslib_test_008_002_execute, .-oslib_test_008_002_execute
 192              		.section	.rodata.oslib_test_008_001_execute.str1.1,"aMS",@progbits,1
 193              	.LC2:
 194 0000 68656170 		.string	"heap fragmented"
 194      20667261 
 194      676D656E 
 194      74656400 
 195              	.LC3:
 196 0010 696E7465 		.string	"integrity failure"
 196      67726974 
 196      79206661 
 196      696C7572 
GAS LISTING /tmp/cc3DArQA.s 			page 5


 196      6500
 197              	.LC4:
 198 0022 6D697373 		.string	"missing free block"
 198      696E6720 
 198      66726565 
 198      20626C6F 
 198      636B00
 199              	.LC5:
 200 0035 756E6578 		.string	"unexpected heap state"
 200      70656374 
 200      65642068 
 200      65617020 
 200      73746174 
 201              	.LC6:
 202 004b 696E7661 		.string	"invalid state"
 202      6C696420 
 202      73746174 
 202      6500
 203              	.LC7:
 204 0059 6E6F7420 		.string	"not empty"
 204      656D7074 
 204      7900
 205              	.LC8:
 206 0063 73697A65 		.string	"size changed"
 206      20636861 
 206      6E676564 
 206      00
 207              		.section	.text.oslib_test_008_001_execute,"ax",@progbits
 208              		.p2align 4
 209              		.type	oslib_test_008_001_execute, @function
 210              	oslib_test_008_001_execute:
 211              	.LFB304:
 212              		.loc 1 103 46 is_stmt 1 view -0
 213              		.cfi_startproc
 214 0000 55       		pushl	%ebp
 215              		.cfi_def_cfa_offset 8
 216              		.cfi_offset 5, -8
 217 0001 57       		pushl	%edi
 218              		.cfi_def_cfa_offset 12
 219              		.cfi_offset 7, -12
 220 0002 56       		pushl	%esi
 221              		.cfi_def_cfa_offset 16
 222              		.cfi_offset 6, -16
 223 0003 53       		pushl	%ebx
 224              		.cfi_def_cfa_offset 20
 225              		.cfi_offset 3, -20
 226 0004 E8FCFFFF 		call	__x86.get_pc_thunk.bx
 226      FF
 227 0009 81C30200 		addl	$_GLOBAL_OFFSET_TABLE_, %ebx
 227      0000
 228 000f 83EC50   		subl	$80, %esp
 229              		.cfi_def_cfa_offset 100
 230              		.loc 1 103 46 is_stmt 0 view .LVU36
 231 0012 65A11400 		movl	%gs:20, %eax
 231      0000
 232 0018 89442440 		movl	%eax, 64(%esp)
 233 001c 31C0     		xorl	%eax, %eax
GAS LISTING /tmp/cc3DArQA.s 			page 6


 234              		.loc 1 104 3 is_stmt 1 view .LVU37
 235              		.loc 1 105 3 view .LVU38
 236              		.loc 1 110 3 view .LVU39
 237 001e 8BBB0000 		movl	chtest@GOT(%ebx), %edi
 237      0000
 238              		.loc 1 112 5 is_stmt 0 view .LVU40
 239 0024 8DB30000 		leal	test_heap@GOTOFF(%ebx), %esi
 239      0000
 240              		.loc 1 110 3 view .LVU41
 241 002a C7070100 		movl	$1, (%edi)
 241      0000
 242              		.loc 1 112 5 is_stmt 1 view .LVU42
 243 0030 6A00     		pushl	$0
 244              		.cfi_def_cfa_offset 104
 245 0032 8D442438 		leal	56(%esp), %eax
 246 0036 50       		pushl	%eax
 247              		.cfi_def_cfa_offset 108
 248 0037 56       		pushl	%esi
 249              		.cfi_def_cfa_offset 112
 250 0038 E8FCFFFF 		call	chHeapStatus@PLT
 250      FF
 251              	.LVL13:
 252 003d 5D       		popl	%ebp
 253              		.cfi_def_cfa_offset 108
 254 003e 8DAB0000 		leal	.LC2@GOTOFF(%ebx), %ebp
 254      0000
 255 0044 5A       		popl	%edx
 256              		.cfi_def_cfa_offset 104
 257 0045 83F801   		cmpl	$1, %eax
 258 0048 55       		pushl	%ebp
 259              		.cfi_def_cfa_offset 108
 260 0049 0F94C0   		sete	%al
 261 004c 0FB6C0   		movzbl	%al, %eax
 262 004f 50       		pushl	%eax
 263              		.cfi_def_cfa_offset 112
 264 0050 E8FCFFFF 		call	__test_assert@PLT
 264      FF
 265              	.LVL14:
 266 0055 83C410   		addl	$16, %esp
 267              		.cfi_def_cfa_offset 96
 268 0058 84C0     		testb	%al, %al
 269 005a 741C     		je	.L19
 270              	.L8:
 271              		.loc 1 245 1 is_stmt 0 view .LVU43
 272 005c 8B44243C 		movl	60(%esp), %eax
 273 0060 652B0514 		subl	%gs:20, %eax
 273      000000
 274 0067 0F852406 		jne	.L20
 274      0000
 275 006d 83C44C   		addl	$76, %esp
 276              		.cfi_remember_state
 277              		.cfi_def_cfa_offset 20
 278 0070 5B       		popl	%ebx
 279              		.cfi_restore 3
 280              		.cfi_def_cfa_offset 16
 281 0071 5E       		popl	%esi
 282              		.cfi_restore 6
GAS LISTING /tmp/cc3DArQA.s 			page 7


 283              		.cfi_def_cfa_offset 12
 284 0072 5F       		popl	%edi
 285              		.cfi_restore 7
 286              		.cfi_def_cfa_offset 8
 287 0073 5D       		popl	%ebp
 288              		.cfi_restore 5
 289              		.cfi_def_cfa_offset 4
 290 0074 C3       		ret
 291              		.p2align 4,,10
 292 0075 8D7600   		.p2align 3
 293              	.L19:
 294              		.cfi_restore_state
 295              		.loc 1 112 77 is_stmt 1 discriminator 2 view .LVU44
 296              		.loc 1 113 5 discriminator 2 view .LVU45
 297 0078 83EC0C   		subl	$12, %esp
 298              		.cfi_def_cfa_offset 108
 299 007b 56       		pushl	%esi
 300              		.cfi_def_cfa_offset 112
 301 007c E8FCFFFF 		call	chHeapIntegrityCheck@PLT
 301      FF
 302              	.LVL15:
 303 0081 5A       		popl	%edx
 304              		.cfi_def_cfa_offset 108
 305 0082 59       		popl	%ecx
 306              		.cfi_def_cfa_offset 104
 307 0083 8D8B0000 		leal	.LC3@GOTOFF(%ebx), %ecx
 307      0000
 308 0089 83F001   		xorl	$1, %eax
 309 008c 894C2410 		movl	%ecx, 16(%esp)
 310 0090 0FB6C0   		movzbl	%al, %eax
 311 0093 51       		pushl	%ecx
 312              		.cfi_def_cfa_offset 108
 313 0094 50       		pushl	%eax
 314              		.cfi_def_cfa_offset 112
 315 0095 E8FCFFFF 		call	__test_assert@PLT
 315      FF
 316              	.LVL16:
 317 009a 83C410   		addl	$16, %esp
 318              		.cfi_def_cfa_offset 96
 319 009d 84C0     		testb	%al, %al
 320 009f 75BB     		jne	.L8
 321              		.loc 1 113 72 discriminator 2 view .LVU46
 322              		.loc 1 115 3 discriminator 2 view .LVU47
 323              		.loc 1 115 19 discriminator 2 view .LVU48
 324              		.loc 1 119 3 discriminator 2 view .LVU49
 325              	.LBB43:
 326              	.LBB44:
 327              		.loc 2 191 10 is_stmt 0 discriminator 2 view .LVU50
 328 00a1 83EC04   		subl	$4, %esp
 329              		.cfi_def_cfa_offset 100
 330              	.LBE44:
 331              	.LBE43:
 332              		.loc 1 119 3 discriminator 2 view .LVU51
 333 00a4 C7070200 		movl	$2, (%edi)
 333      0000
 334              		.loc 1 121 5 is_stmt 1 discriminator 2 view .LVU52
 335              	.LVL17:
GAS LISTING /tmp/cc3DArQA.s 			page 8


 336              	.LBB46:
 337              	.LBI43:
 338              		.loc 2 189 21 discriminator 2 view .LVU53
 339              	.LBB45:
 340              		.loc 2 191 3 discriminator 2 view .LVU54
 341              		.loc 2 191 10 is_stmt 0 discriminator 2 view .LVU55
 342 00aa 6A08     		pushl	$8
 343              		.cfi_def_cfa_offset 104
 344 00ac 68000100 		pushl	$256
 344      00
 345              		.cfi_def_cfa_offset 108
 346 00b1 56       		pushl	%esi
 347              		.cfi_def_cfa_offset 112
 348 00b2 E8FCFFFF 		call	chHeapAllocAligned@PLT
 348      FF
 349              	.LVL18:
 350              		.loc 2 191 10 discriminator 2 view .LVU56
 351              	.LBE45:
 352              	.LBE46:
 353              		.loc 1 122 5 is_stmt 1 discriminator 2 view .LVU57
 354 00b7 5A       		popl	%edx
 355              		.cfi_def_cfa_offset 108
 356 00b8 8D930000 		leal	.LC1@GOTOFF(%ebx), %edx
 356      0000
 357 00be 59       		popl	%ecx
 358              		.cfi_def_cfa_offset 104
 359 00bf 85C0     		testl	%eax, %eax
 360 00c1 52       		pushl	%edx
 361              		.cfi_def_cfa_offset 108
 362 00c2 0F94C0   		sete	%al
 363              	.LVL19:
 364              		.loc 1 122 5 is_stmt 0 discriminator 2 view .LVU58
 365 00c5 0FB6C0   		movzbl	%al, %eax
 366 00c8 50       		pushl	%eax
 367              		.cfi_def_cfa_offset 112
 368 00c9 E8FCFFFF 		call	__test_assert@PLT
 368      FF
 369              	.LVL20:
 370 00ce 83C410   		addl	$16, %esp
 371              		.cfi_def_cfa_offset 96
 372 00d1 84C0     		testb	%al, %al
 373 00d3 7587     		jne	.L8
 374              		.loc 1 122 53 is_stmt 1 discriminator 2 view .LVU59
 375              		.loc 1 123 5 discriminator 2 view .LVU60
 376 00d5 83EC0C   		subl	$12, %esp
 377              		.cfi_def_cfa_offset 108
 378 00d8 56       		pushl	%esi
 379              		.cfi_def_cfa_offset 112
 380 00d9 E8FCFFFF 		call	chHeapIntegrityCheck@PLT
 380      FF
 381              	.LVL21:
 382 00de 5A       		popl	%edx
 383              		.cfi_def_cfa_offset 108
 384 00df 59       		popl	%ecx
 385              		.cfi_def_cfa_offset 104
 386 00e0 FF742410 		pushl	16(%esp)
 387              		.cfi_def_cfa_offset 108
GAS LISTING /tmp/cc3DArQA.s 			page 9


 388 00e4 83F001   		xorl	$1, %eax
 389 00e7 0FB6C0   		movzbl	%al, %eax
 390 00ea 50       		pushl	%eax
 391              		.cfi_def_cfa_offset 112
 392 00eb E8FCFFFF 		call	__test_assert@PLT
 392      FF
 393              	.LVL22:
 394 00f0 83C410   		addl	$16, %esp
 395              		.cfi_def_cfa_offset 96
 396 00f3 84C0     		testb	%al, %al
 397 00f5 0F8561FF 		jne	.L8
 397      FFFF
 398              		.loc 1 123 72 discriminator 2 view .LVU61
 399              		.loc 1 125 3 discriminator 2 view .LVU62
 400              		.loc 1 125 19 discriminator 2 view .LVU63
 401              		.loc 1 130 3 discriminator 2 view .LVU64
 402              	.LBB47:
 403              	.LBB48:
 404              		.loc 2 191 10 is_stmt 0 discriminator 2 view .LVU65
 405 00fb 83EC04   		subl	$4, %esp
 406              		.cfi_def_cfa_offset 100
 407              	.LBE48:
 408              	.LBE47:
 409              		.loc 1 130 3 discriminator 2 view .LVU66
 410 00fe C7070300 		movl	$3, (%edi)
 410      0000
 411              		.loc 1 132 5 is_stmt 1 discriminator 2 view .LVU67
 412              	.LVL23:
 413              	.LBB50:
 414              	.LBI47:
 415              		.loc 2 189 21 discriminator 2 view .LVU68
 416              	.LBB49:
 417              		.loc 2 191 3 discriminator 2 view .LVU69
 418              		.loc 2 191 10 is_stmt 0 discriminator 2 view .LVU70
 419 0104 6A08     		pushl	$8
 420              		.cfi_def_cfa_offset 104
 421 0106 6A10     		pushl	$16
 422              		.cfi_def_cfa_offset 108
 423 0108 56       		pushl	%esi
 424              		.cfi_def_cfa_offset 112
 425 0109 E8FCFFFF 		call	chHeapAllocAligned@PLT
 425      FF
 426              	.LVL24:
 427 010e 89C2     		movl	%eax, %edx
 428              	.LVL25:
 429              		.loc 2 191 10 discriminator 2 view .LVU71
 430              	.LBE49:
 431              	.LBE50:
 432              		.loc 1 133 5 is_stmt 1 discriminator 2 view .LVU72
 433 0110 58       		popl	%eax
 434              		.cfi_def_cfa_offset 108
 435              	.LVL26:
 436              		.loc 1 133 5 is_stmt 0 discriminator 2 view .LVU73
 437 0111 8D830000 		leal	.LC0@GOTOFF(%ebx), %eax
 437      0000
 438 0117 59       		popl	%ecx
 439              		.cfi_def_cfa_offset 104
GAS LISTING /tmp/cc3DArQA.s 			page 10


 440 0118 89442418 		movl	%eax, 24(%esp)
 441 011c 85D2     		testl	%edx, %edx
 442 011e 50       		pushl	%eax
 443              		.cfi_def_cfa_offset 108
 444 011f 0F95C0   		setne	%al
 445 0122 0FB6C0   		movzbl	%al, %eax
 446 0125 89542418 		movl	%edx, 24(%esp)
 447 0129 50       		pushl	%eax
 448              		.cfi_def_cfa_offset 112
 449 012a E8FCFFFF 		call	__test_assert@PLT
 449      FF
 450              	.LVL27:
 451              		.loc 1 133 5 discriminator 2 view .LVU74
 452 012f 83C410   		addl	$16, %esp
 453              		.cfi_def_cfa_offset 96
 454 0132 84C0     		testb	%al, %al
 455 0134 0F8522FF 		jne	.L8
 455      FFFF
 456              		.loc 1 133 49 is_stmt 1 discriminator 2 view .LVU75
 457              		.loc 1 134 5 discriminator 2 view .LVU76
 458 013a 83EC0C   		subl	$12, %esp
 459              		.cfi_def_cfa_offset 108
 460 013d 8B542418 		movl	24(%esp), %edx
 461 0141 52       		pushl	%edx
 462              		.cfi_def_cfa_offset 112
 463 0142 E8FCFFFF 		call	chHeapFree@PLT
 463      FF
 464              	.LVL28:
 465              		.loc 1 135 5 discriminator 2 view .LVU77
 466 0147 893424   		movl	%esi, (%esp)
 467 014a E8FCFFFF 		call	chHeapIntegrityCheck@PLT
 467      FF
 468              	.LVL29:
 469 014f 5A       		popl	%edx
 470              		.cfi_def_cfa_offset 108
 471 0150 59       		popl	%ecx
 472              		.cfi_def_cfa_offset 104
 473 0151 FF742410 		pushl	16(%esp)
 474              		.cfi_def_cfa_offset 108
 475 0155 83F001   		xorl	$1, %eax
 476 0158 0FB6C0   		movzbl	%al, %eax
 477 015b 50       		pushl	%eax
 478              		.cfi_def_cfa_offset 112
 479 015c E8FCFFFF 		call	__test_assert@PLT
 479      FF
 480              	.LVL30:
 481 0161 83C410   		addl	$16, %esp
 482              		.cfi_def_cfa_offset 96
 483 0164 84C0     		testb	%al, %al
 484 0166 0F85F0FE 		jne	.L8
 484      FFFF
 485              		.loc 1 135 72 discriminator 2 view .LVU78
 486              		.loc 1 137 3 discriminator 2 view .LVU79
 487              		.loc 1 137 19 discriminator 2 view .LVU80
 488              		.loc 1 142 3 discriminator 2 view .LVU81
 489              	.LBB51:
 490              		.loc 1 146 9 is_stmt 0 discriminator 2 view .LVU82
GAS LISTING /tmp/cc3DArQA.s 			page 11


 491 016c 83EC04   		subl	$4, %esp
 492              		.cfi_def_cfa_offset 100
 493              	.LBE51:
 494              		.loc 1 142 3 discriminator 2 view .LVU83
 495 016f C7070400 		movl	$4, (%edi)
 495      0000
 496              	.LBB52:
 497              		.loc 1 144 5 is_stmt 1 discriminator 2 view .LVU84
 498              		.loc 1 146 5 discriminator 2 view .LVU85
 499              		.loc 1 146 9 is_stmt 0 discriminator 2 view .LVU86
 500 0175 8D44243C 		leal	60(%esp), %eax
 501 0179 50       		pushl	%eax
 502              		.cfi_def_cfa_offset 104
 503 017a 8D44243C 		leal	60(%esp), %eax
 504 017e 50       		pushl	%eax
 505              		.cfi_def_cfa_offset 108
 506 017f 56       		pushl	%esi
 507              		.cfi_def_cfa_offset 112
 508 0180 E8FCFFFF 		call	chHeapStatus@PLT
 508      FF
 509              	.LVL31:
 510              		.loc 1 147 5 discriminator 2 view .LVU87
 511 0185 83F801   		cmpl	$1, %eax
 512              		.loc 1 146 7 discriminator 2 view .LVU88
 513 0188 8944243C 		movl	%eax, 60(%esp)
 514              		.loc 1 147 5 is_stmt 1 discriminator 2 view .LVU89
 515 018c 5A       		popl	%edx
 516              		.cfi_def_cfa_offset 108
 517 018d 8D930000 		leal	.LC4@GOTOFF(%ebx), %edx
 517      0000
 518 0193 0F94C0   		sete	%al
 519 0196 59       		popl	%ecx
 520              		.cfi_def_cfa_offset 104
 521 0197 52       		pushl	%edx
 522              		.cfi_def_cfa_offset 108
 523 0198 0FB6C0   		movzbl	%al, %eax
 524 019b 50       		pushl	%eax
 525              		.cfi_def_cfa_offset 112
 526 019c E8FCFFFF 		call	__test_assert@PLT
 526      FF
 527              	.LVL32:
 528 01a1 83C410   		addl	$16, %esp
 529              		.cfi_def_cfa_offset 96
 530 01a4 84C0     		testb	%al, %al
 531 01a6 0F85B0FE 		jne	.L8
 531      FFFF
 532              		.loc 1 147 46 discriminator 2 view .LVU90
 533              		.loc 1 148 5 discriminator 2 view .LVU91
 534 01ac 83EC08   		subl	$8, %esp
 535              		.cfi_def_cfa_offset 104
 536 01af 8D930000 		leal	.LC5@GOTOFF(%ebx), %edx
 536      0000
 537 01b5 31C0     		xorl	%eax, %eax
 538 01b7 52       		pushl	%edx
 539              		.cfi_def_cfa_offset 108
 540 01b8 837C2440 		cmpl	$15, 64(%esp)
 540      0F
GAS LISTING /tmp/cc3DArQA.s 			page 12


 541 01bd 0F97C0   		seta	%al
 542 01c0 89542418 		movl	%edx, 24(%esp)
 543              	.LVL33:
 544              		.loc 1 148 5 is_stmt 0 discriminator 2 view .LVU92
 545 01c4 50       		pushl	%eax
 546              		.cfi_def_cfa_offset 112
 547 01c5 E8FCFFFF 		call	__test_assert@PLT
 547      FF
 548              	.LVL34:
 549 01ca 83C410   		addl	$16, %esp
 550              		.cfi_def_cfa_offset 96
 551 01cd 84C0     		testb	%al, %al
 552 01cf 0F8587FE 		jne	.L8
 552      FFFF
 553              		.loc 1 148 67 is_stmt 1 discriminator 2 view .LVU93
 554              		.loc 1 149 5 discriminator 2 view .LVU94
 555 01d5 83EC08   		subl	$8, %esp
 556              		.cfi_def_cfa_offset 104
 557 01d8 8B542414 		movl	20(%esp), %edx
 558 01dc 52       		pushl	%edx
 559              		.cfi_def_cfa_offset 108
 560 01dd 8B442444 		movl	68(%esp), %eax
 561 01e1 39442440 		cmpl	%eax, 64(%esp)
 562 01e5 0F94C0   		sete	%al
 563 01e8 0FB6C0   		movzbl	%al, %eax
 564 01eb 50       		pushl	%eax
 565              		.cfi_def_cfa_offset 112
 566 01ec E8FCFFFF 		call	__test_assert@PLT
 566      FF
 567              	.LVL35:
 568 01f1 83C410   		addl	$16, %esp
 569              		.cfi_def_cfa_offset 96
 570 01f4 84C0     		testb	%al, %al
 571 01f6 0F8560FE 		jne	.L8
 571      FFFF
 572              		.loc 1 149 69 discriminator 2 view .LVU95
 573              		.loc 1 150 5 discriminator 2 view .LVU96
 574 01fc 83EC0C   		subl	$12, %esp
 575              		.cfi_def_cfa_offset 108
 576 01ff 56       		pushl	%esi
 577              		.cfi_def_cfa_offset 112
 578 0200 E8FCFFFF 		call	chHeapIntegrityCheck@PLT
 578      FF
 579              	.LVL36:
 580 0205 5A       		popl	%edx
 581              		.cfi_def_cfa_offset 108
 582 0206 59       		popl	%ecx
 583              		.cfi_def_cfa_offset 104
 584 0207 FF742410 		pushl	16(%esp)
 585              		.cfi_def_cfa_offset 108
 586 020b 83F001   		xorl	$1, %eax
 587 020e 0FB6C0   		movzbl	%al, %eax
 588 0211 50       		pushl	%eax
 589              		.cfi_def_cfa_offset 112
 590 0212 E8FCFFFF 		call	__test_assert@PLT
 590      FF
 591              	.LVL37:
GAS LISTING /tmp/cc3DArQA.s 			page 13


 592 0217 83C410   		addl	$16, %esp
 593              		.cfi_def_cfa_offset 96
 594 021a 84C0     		testb	%al, %al
 595 021c 0F853AFE 		jne	.L8
 595      FFFF
 596              		.loc 1 150 72 discriminator 2 view .LVU97
 597              	.LBE52:
 598              		.loc 1 152 3 discriminator 2 view .LVU98
 599              		.loc 1 152 19 discriminator 2 view .LVU99
 600              		.loc 1 156 3 discriminator 2 view .LVU100
 601 0222 C7070500 		movl	$5, (%edi)
 601      0000
 602              		.loc 1 158 5 discriminator 2 view .LVU101
 603              	.LVL38:
 604              	.LBB53:
 605              	.LBI53:
 606              		.loc 2 189 21 discriminator 2 view .LVU102
 607              	.LBB54:
 608              		.loc 2 191 3 discriminator 2 view .LVU103
 609              		.loc 2 191 10 is_stmt 0 discriminator 2 view .LVU104
 610 0228 50       		pushl	%eax
 611              		.cfi_def_cfa_offset 100
 612 0229 6A08     		pushl	$8
 613              		.cfi_def_cfa_offset 104
 614 022b 6A10     		pushl	$16
 615              		.cfi_def_cfa_offset 108
 616 022d 56       		pushl	%esi
 617              		.cfi_def_cfa_offset 112
 618 022e E8FCFFFF 		call	chHeapAllocAligned@PLT
 618      FF
 619              	.LVL39:
 620 0233 89442428 		movl	%eax, 40(%esp)
 621              	.LVL40:
 622              		.loc 2 191 10 discriminator 2 view .LVU105
 623              	.LBE54:
 624              	.LBE53:
 625              		.loc 1 159 5 is_stmt 1 discriminator 2 view .LVU106
 626              	.LBB55:
 627              	.LBI55:
 628              		.loc 2 189 21 discriminator 2 view .LVU107
 629              	.LBB56:
 630              		.loc 2 191 3 discriminator 2 view .LVU108
 631              		.loc 2 191 10 is_stmt 0 discriminator 2 view .LVU109
 632 0237 83C40C   		addl	$12, %esp
 633              		.cfi_def_cfa_offset 100
 634 023a 6A08     		pushl	$8
 635              		.cfi_def_cfa_offset 104
 636 023c 6A10     		pushl	$16
 637              		.cfi_def_cfa_offset 108
 638 023e 56       		pushl	%esi
 639              		.cfi_def_cfa_offset 112
 640 023f E8FCFFFF 		call	chHeapAllocAligned@PLT
 640      FF
 641              	.LVL41:
 642              		.loc 2 191 10 discriminator 2 view .LVU110
 643 0244 89442424 		movl	%eax, 36(%esp)
 644              	.LVL42:
GAS LISTING /tmp/cc3DArQA.s 			page 14


 645              		.loc 2 191 10 discriminator 2 view .LVU111
 646              	.LBE56:
 647              	.LBE55:
 648              		.loc 1 160 5 is_stmt 1 discriminator 2 view .LVU112
 649              	.LBB57:
 650              	.LBI57:
 651              		.loc 2 189 21 discriminator 2 view .LVU113
 652              	.LBB58:
 653              		.loc 2 191 3 discriminator 2 view .LVU114
 654              		.loc 2 191 10 is_stmt 0 discriminator 2 view .LVU115
 655 0248 83C40C   		addl	$12, %esp
 656              		.cfi_def_cfa_offset 100
 657 024b 6A08     		pushl	$8
 658              		.cfi_def_cfa_offset 104
 659 024d 6A10     		pushl	$16
 660              		.cfi_def_cfa_offset 108
 661 024f 56       		pushl	%esi
 662              		.cfi_def_cfa_offset 112
 663 0250 E8FCFFFF 		call	chHeapAllocAligned@PLT
 663      FF
 664              	.LVL43:
 665              		.loc 2 191 10 discriminator 2 view .LVU116
 666              	.LBE58:
 667              	.LBE57:
 668              		.loc 1 161 5 discriminator 2 view .LVU117
 669 0255 8B4C2428 		movl	40(%esp), %ecx
 670              	.LBB60:
 671              	.LBB59:
 672              		.loc 2 191 10 discriminator 2 view .LVU118
 673 0259 8944241C 		movl	%eax, 28(%esp)
 674              	.LVL44:
 675              		.loc 2 191 10 discriminator 2 view .LVU119
 676              	.LBE59:
 677              	.LBE60:
 678              		.loc 1 161 5 is_stmt 1 discriminator 2 view .LVU120
 679 025d 890C24   		movl	%ecx, (%esp)
 680 0260 E8FCFFFF 		call	chHeapFree@PLT
 680      FF
 681              	.LVL45:
 682              		.loc 1 162 5 discriminator 2 view .LVU121
 683 0265 8B542424 		movl	36(%esp), %edx
 684 0269 891424   		movl	%edx, (%esp)
 685 026c E8FCFFFF 		call	chHeapFree@PLT
 685      FF
 686              	.LVL46:
 687              		.loc 1 163 5 discriminator 2 view .LVU122
 688 0271 8B44241C 		movl	28(%esp), %eax
 689 0275 890424   		movl	%eax, (%esp)
 690 0278 E8FCFFFF 		call	chHeapFree@PLT
 690      FF
 691              	.LVL47:
 692              		.loc 1 164 5 discriminator 2 view .LVU123
 693 027d 83C40C   		addl	$12, %esp
 694              		.cfi_def_cfa_offset 100
 695 0280 6A00     		pushl	$0
 696              		.cfi_def_cfa_offset 104
 697 0282 8D442434 		leal	52(%esp), %eax
GAS LISTING /tmp/cc3DArQA.s 			page 15


 698 0286 89442414 		movl	%eax, 20(%esp)
 699              	.LVL48:
 700              		.loc 1 164 5 is_stmt 0 discriminator 2 view .LVU124
 701 028a 50       		pushl	%eax
 702              		.cfi_def_cfa_offset 108
 703 028b 56       		pushl	%esi
 704              		.cfi_def_cfa_offset 112
 705 028c E8FCFFFF 		call	chHeapStatus@PLT
 705      FF
 706              	.LVL49:
 707 0291 5A       		popl	%edx
 708              		.cfi_def_cfa_offset 108
 709 0292 59       		popl	%ecx
 710              		.cfi_def_cfa_offset 104
 711 0293 55       		pushl	%ebp
 712              		.cfi_def_cfa_offset 108
 713 0294 83E801   		subl	$1, %eax
 714 0297 0F94C0   		sete	%al
 715 029a 0FB6C0   		movzbl	%al, %eax
 716 029d 50       		pushl	%eax
 717              		.cfi_def_cfa_offset 112
 718 029e E8FCFFFF 		call	__test_assert@PLT
 718      FF
 719              	.LVL50:
 720 02a3 83C410   		addl	$16, %esp
 721              		.cfi_def_cfa_offset 96
 722 02a6 84C0     		testb	%al, %al
 723 02a8 0F85AEFD 		jne	.L8
 723      FFFF
 724              		.loc 1 164 76 is_stmt 1 view .LVU125
 725              		.loc 1 165 5 view .LVU126
 726 02ae 83EC0C   		subl	$12, %esp
 727              		.cfi_def_cfa_offset 108
 728 02b1 56       		pushl	%esi
 729              		.cfi_def_cfa_offset 112
 730 02b2 E8FCFFFF 		call	chHeapIntegrityCheck@PLT
 730      FF
 731              	.LVL51:
 732 02b7 5A       		popl	%edx
 733              		.cfi_def_cfa_offset 108
 734 02b8 59       		popl	%ecx
 735              		.cfi_def_cfa_offset 104
 736 02b9 FF742410 		pushl	16(%esp)
 737              		.cfi_def_cfa_offset 108
 738 02bd 83F001   		xorl	$1, %eax
 739 02c0 0FB6C0   		movzbl	%al, %eax
 740 02c3 50       		pushl	%eax
 741              		.cfi_def_cfa_offset 112
 742 02c4 E8FCFFFF 		call	__test_assert@PLT
 742      FF
 743              	.LVL52:
 744 02c9 83C410   		addl	$16, %esp
 745              		.cfi_def_cfa_offset 96
 746 02cc 84C0     		testb	%al, %al
 747 02ce 0F8588FD 		jne	.L8
 747      FFFF
 748              		.loc 1 165 72 discriminator 2 view .LVU127
GAS LISTING /tmp/cc3DArQA.s 			page 16


 749              		.loc 1 167 3 discriminator 2 view .LVU128
 750              		.loc 1 167 19 discriminator 2 view .LVU129
 751              		.loc 1 171 3 discriminator 2 view .LVU130
 752 02d4 C7070600 		movl	$6, (%edi)
 752      0000
 753              		.loc 1 173 5 discriminator 2 view .LVU131
 754              	.LVL53:
 755              	.LBB61:
 756              	.LBI61:
 757              		.loc 2 189 21 discriminator 2 view .LVU132
 758              	.LBB62:
 759              		.loc 2 191 3 discriminator 2 view .LVU133
 760              		.loc 2 191 10 is_stmt 0 discriminator 2 view .LVU134
 761 02da 50       		pushl	%eax
 762              		.cfi_def_cfa_offset 100
 763 02db 6A08     		pushl	$8
 764              		.cfi_def_cfa_offset 104
 765 02dd 6A10     		pushl	$16
 766              		.cfi_def_cfa_offset 108
 767 02df 56       		pushl	%esi
 768              		.cfi_def_cfa_offset 112
 769 02e0 E8FCFFFF 		call	chHeapAllocAligned@PLT
 769      FF
 770              	.LVL54:
 771 02e5 89442428 		movl	%eax, 40(%esp)
 772              	.LVL55:
 773              		.loc 2 191 10 discriminator 2 view .LVU135
 774              	.LBE62:
 775              	.LBE61:
 776              		.loc 1 174 5 is_stmt 1 discriminator 2 view .LVU136
 777              	.LBB63:
 778              	.LBI63:
 779              		.loc 2 189 21 discriminator 2 view .LVU137
 780              	.LBB64:
 781              		.loc 2 191 3 discriminator 2 view .LVU138
 782              		.loc 2 191 10 is_stmt 0 discriminator 2 view .LVU139
 783 02e9 83C40C   		addl	$12, %esp
 784              		.cfi_def_cfa_offset 100
 785 02ec 6A08     		pushl	$8
 786              		.cfi_def_cfa_offset 104
 787 02ee 6A10     		pushl	$16
 788              		.cfi_def_cfa_offset 108
 789 02f0 56       		pushl	%esi
 790              		.cfi_def_cfa_offset 112
 791 02f1 E8FCFFFF 		call	chHeapAllocAligned@PLT
 791      FF
 792              	.LVL56:
 793              		.loc 2 191 10 discriminator 2 view .LVU140
 794 02f6 89442424 		movl	%eax, 36(%esp)
 795              	.LVL57:
 796              		.loc 2 191 10 discriminator 2 view .LVU141
 797              	.LBE64:
 798              	.LBE63:
 799              		.loc 1 175 5 is_stmt 1 discriminator 2 view .LVU142
 800              	.LBB65:
 801              	.LBI65:
 802              		.loc 2 189 21 discriminator 2 view .LVU143
GAS LISTING /tmp/cc3DArQA.s 			page 17


 803              	.LBB66:
 804              		.loc 2 191 3 discriminator 2 view .LVU144
 805              		.loc 2 191 10 is_stmt 0 discriminator 2 view .LVU145
 806 02fa 83C40C   		addl	$12, %esp
 807              		.cfi_def_cfa_offset 100
 808 02fd 6A08     		pushl	$8
 809              		.cfi_def_cfa_offset 104
 810 02ff 6A10     		pushl	$16
 811              		.cfi_def_cfa_offset 108
 812 0301 56       		pushl	%esi
 813              		.cfi_def_cfa_offset 112
 814 0302 E8FCFFFF 		call	chHeapAllocAligned@PLT
 814      FF
 815              	.LVL58:
 816              		.loc 2 191 10 discriminator 2 view .LVU146
 817              	.LBE66:
 818              	.LBE65:
 819              		.loc 1 176 5 is_stmt 1 discriminator 2 view .LVU147
 820 0307 890424   		movl	%eax, (%esp)
 821 030a E8FCFFFF 		call	chHeapFree@PLT
 821      FF
 822              	.LVL59:
 823              		.loc 1 177 5 discriminator 2 view .LVU148
 824 030f 8B4C2424 		movl	36(%esp), %ecx
 825 0313 890C24   		movl	%ecx, (%esp)
 826 0316 E8FCFFFF 		call	chHeapFree@PLT
 826      FF
 827              	.LVL60:
 828              		.loc 1 178 5 discriminator 2 view .LVU149
 829 031b 8B542428 		movl	40(%esp), %edx
 830 031f 891424   		movl	%edx, (%esp)
 831 0322 E8FCFFFF 		call	chHeapFree@PLT
 831      FF
 832              	.LVL61:
 833              		.loc 1 179 5 discriminator 2 view .LVU150
 834 0327 83C40C   		addl	$12, %esp
 835              		.cfi_def_cfa_offset 100
 836 032a 6A00     		pushl	$0
 837              		.cfi_def_cfa_offset 104
 838 032c FF742414 		pushl	20(%esp)
 839              		.cfi_def_cfa_offset 108
 840 0330 56       		pushl	%esi
 841              		.cfi_def_cfa_offset 112
 842 0331 E8FCFFFF 		call	chHeapStatus@PLT
 842      FF
 843              	.LVL62:
 844 0336 5A       		popl	%edx
 845              		.cfi_def_cfa_offset 108
 846 0337 59       		popl	%ecx
 847              		.cfi_def_cfa_offset 104
 848 0338 55       		pushl	%ebp
 849              		.cfi_def_cfa_offset 108
 850 0339 83E801   		subl	$1, %eax
 851 033c 0F94C0   		sete	%al
 852 033f 0FB6C0   		movzbl	%al, %eax
 853 0342 50       		pushl	%eax
 854              		.cfi_def_cfa_offset 112
GAS LISTING /tmp/cc3DArQA.s 			page 18


 855 0343 E8FCFFFF 		call	__test_assert@PLT
 855      FF
 856              	.LVL63:
 857 0348 83C410   		addl	$16, %esp
 858              		.cfi_def_cfa_offset 96
 859 034b 84C0     		testb	%al, %al
 860 034d 0F8509FD 		jne	.L8
 860      FFFF
 861              		.loc 1 179 76 discriminator 2 view .LVU151
 862              		.loc 1 180 5 discriminator 2 view .LVU152
 863 0353 83EC0C   		subl	$12, %esp
 864              		.cfi_def_cfa_offset 108
 865 0356 56       		pushl	%esi
 866              		.cfi_def_cfa_offset 112
 867 0357 E8FCFFFF 		call	chHeapIntegrityCheck@PLT
 867      FF
 868              	.LVL64:
 869 035c 5A       		popl	%edx
 870              		.cfi_def_cfa_offset 108
 871 035d 59       		popl	%ecx
 872              		.cfi_def_cfa_offset 104
 873 035e FF742410 		pushl	16(%esp)
 874              		.cfi_def_cfa_offset 108
 875 0362 83F001   		xorl	$1, %eax
 876 0365 0FB6C0   		movzbl	%al, %eax
 877 0368 50       		pushl	%eax
 878              		.cfi_def_cfa_offset 112
 879 0369 E8FCFFFF 		call	__test_assert@PLT
 879      FF
 880              	.LVL65:
 881 036e 83C410   		addl	$16, %esp
 882              		.cfi_def_cfa_offset 96
 883 0371 84C0     		testb	%al, %al
 884 0373 0F85E3FC 		jne	.L8
 884      FFFF
 885              		.loc 1 180 72 discriminator 2 view .LVU153
 886              		.loc 1 182 3 discriminator 2 view .LVU154
 887              		.loc 1 182 19 discriminator 2 view .LVU155
 888              		.loc 1 187 3 discriminator 2 view .LVU156
 889 0379 C7070700 		movl	$7, (%edi)
 889      0000
 890              		.loc 1 189 5 discriminator 2 view .LVU157
 891              	.LVL66:
 892              	.LBB67:
 893              	.LBI67:
 894              		.loc 2 189 21 discriminator 2 view .LVU158
 895              	.LBB68:
 896              		.loc 2 191 3 discriminator 2 view .LVU159
 897              		.loc 2 191 10 is_stmt 0 discriminator 2 view .LVU160
 898 037f 50       		pushl	%eax
 899              		.cfi_def_cfa_offset 100
 900 0380 6A08     		pushl	$8
 901              		.cfi_def_cfa_offset 104
 902 0382 6A11     		pushl	$17
 903              		.cfi_def_cfa_offset 108
 904 0384 56       		pushl	%esi
 905              		.cfi_def_cfa_offset 112
GAS LISTING /tmp/cc3DArQA.s 			page 19


 906 0385 E8FCFFFF 		call	chHeapAllocAligned@PLT
 906      FF
 907              	.LVL67:
 908 038a 89442428 		movl	%eax, 40(%esp)
 909              	.LVL68:
 910              		.loc 2 191 10 discriminator 2 view .LVU161
 911              	.LBE68:
 912              	.LBE67:
 913              		.loc 1 190 5 is_stmt 1 discriminator 2 view .LVU162
 914              	.LBB69:
 915              	.LBI69:
 916              		.loc 2 189 21 discriminator 2 view .LVU163
 917              	.LBB70:
 918              		.loc 2 191 3 discriminator 2 view .LVU164
 919              		.loc 2 191 10 is_stmt 0 discriminator 2 view .LVU165
 920 038e 83C40C   		addl	$12, %esp
 921              		.cfi_def_cfa_offset 100
 922 0391 6A08     		pushl	$8
 923              		.cfi_def_cfa_offset 104
 924 0393 6A10     		pushl	$16
 925              		.cfi_def_cfa_offset 108
 926 0395 56       		pushl	%esi
 927              		.cfi_def_cfa_offset 112
 928 0396 E8FCFFFF 		call	chHeapAllocAligned@PLT
 928      FF
 929              	.LVL69:
 930              		.loc 2 191 10 discriminator 2 view .LVU166
 931              	.LBE70:
 932              	.LBE69:
 933              		.loc 1 191 5 discriminator 2 view .LVU167
 934 039b 8B542428 		movl	40(%esp), %edx
 935              	.LBB72:
 936              	.LBB71:
 937              		.loc 2 191 10 discriminator 2 view .LVU168
 938 039f 89442424 		movl	%eax, 36(%esp)
 939              	.LVL70:
 940              		.loc 2 191 10 discriminator 2 view .LVU169
 941              	.LBE71:
 942              	.LBE72:
 943              		.loc 1 191 5 is_stmt 1 discriminator 2 view .LVU170
 944 03a3 891424   		movl	%edx, (%esp)
 945 03a6 E8FCFFFF 		call	chHeapFree@PLT
 945      FF
 946              	.LVL71:
 947              		.loc 1 192 5 discriminator 2 view .LVU171
 948 03ab 83C40C   		addl	$12, %esp
 949              		.cfi_def_cfa_offset 100
 950 03ae 6A00     		pushl	$0
 951              		.cfi_def_cfa_offset 104
 952 03b0 FF742414 		pushl	20(%esp)
 953              		.cfi_def_cfa_offset 108
 954 03b4 56       		pushl	%esi
 955              		.cfi_def_cfa_offset 112
 956 03b5 E8FCFFFF 		call	chHeapStatus@PLT
 956      FF
 957              	.LVL72:
 958 03ba 5A       		popl	%edx
GAS LISTING /tmp/cc3DArQA.s 			page 20


 959              		.cfi_def_cfa_offset 108
 960 03bb 8D930000 		leal	.LC6@GOTOFF(%ebx), %edx
 960      0000
 961 03c1 59       		popl	%ecx
 962              		.cfi_def_cfa_offset 104
 963 03c2 83F802   		cmpl	$2, %eax
 964 03c5 89542424 		movl	%edx, 36(%esp)
 965 03c9 0F94C0   		sete	%al
 966 03cc 52       		pushl	%edx
 967              		.cfi_def_cfa_offset 108
 968 03cd 0FB6C0   		movzbl	%al, %eax
 969 03d0 50       		pushl	%eax
 970              		.cfi_def_cfa_offset 112
 971 03d1 E8FCFFFF 		call	__test_assert@PLT
 971      FF
 972              	.LVL73:
 973 03d6 83C410   		addl	$16, %esp
 974              		.cfi_def_cfa_offset 96
 975 03d9 84C0     		testb	%al, %al
 976 03db 0F857BFC 		jne	.L8
 976      FFFF
 977              		.loc 1 192 74 view .LVU172
 978              		.loc 1 193 5 view .LVU173
 979              	.LVL74:
 980              	.LBB73:
 981              	.LBI73:
 982              		.loc 2 189 21 view .LVU174
 983              	.LBB74:
 984              		.loc 2 191 3 view .LVU175
 985              		.loc 2 191 10 is_stmt 0 view .LVU176
 986 03e1 50       		pushl	%eax
 987              		.cfi_def_cfa_offset 100
 988 03e2 6A08     		pushl	$8
 989              		.cfi_def_cfa_offset 104
 990 03e4 6A10     		pushl	$16
 991              		.cfi_def_cfa_offset 108
 992 03e6 56       		pushl	%esi
 993              		.cfi_def_cfa_offset 112
 994 03e7 E8FCFFFF 		call	chHeapAllocAligned@PLT
 994      FF
 995              	.LVL75:
 996 03ec 89442428 		movl	%eax, 40(%esp)
 997              	.LVL76:
 998              		.loc 2 191 10 view .LVU177
 999              	.LBE74:
 1000              	.LBE73:
 1001              		.loc 1 196 5 is_stmt 1 view .LVU178
 1002 03f0 83C40C   		addl	$12, %esp
 1003              		.cfi_def_cfa_offset 100
 1004 03f3 6A00     		pushl	$0
 1005              		.cfi_def_cfa_offset 104
 1006 03f5 FF742414 		pushl	20(%esp)
 1007              		.cfi_def_cfa_offset 108
 1008 03f9 56       		pushl	%esi
 1009              		.cfi_def_cfa_offset 112
 1010 03fa E8FCFFFF 		call	chHeapStatus@PLT
 1010      FF
GAS LISTING /tmp/cc3DArQA.s 			page 21


 1011              	.LVL77:
 1012              		.loc 1 196 5 is_stmt 0 view .LVU179
 1013 03ff 83C410   		addl	$16, %esp
 1014              		.cfi_def_cfa_offset 96
 1015 0402 89C2     		movl	%eax, %edx
 1016 0404 B8010000 		movl	$1, %eax
 1016      00
 1017 0409 83EA01   		subl	$1, %edx
 1018 040c 7419     		je	.L14
 1019              		.loc 1 196 5 discriminator 2 view .LVU180
 1020 040e 51       		pushl	%ecx
 1021              		.cfi_def_cfa_offset 100
 1022 040f 6A00     		pushl	$0
 1023              		.cfi_def_cfa_offset 104
 1024 0411 FF742414 		pushl	20(%esp)
 1025              		.cfi_def_cfa_offset 108
 1026 0415 56       		pushl	%esi
 1027              		.cfi_def_cfa_offset 112
 1028 0416 E8FCFFFF 		call	chHeapStatus@PLT
 1028      FF
 1029              	.LVL78:
 1030 041b 83C410   		addl	$16, %esp
 1031              		.cfi_def_cfa_offset 96
 1032 041e 83F802   		cmpl	$2, %eax
 1033 0421 0F94C0   		sete	%al
 1034 0424 0FB6C0   		movzbl	%al, %eax
 1035              	.L14:
 1036              		.loc 1 196 5 discriminator 6 view .LVU181
 1037 0427 52       		pushl	%edx
 1038              		.cfi_def_cfa_offset 100
 1039 0428 52       		pushl	%edx
 1040              		.cfi_def_cfa_offset 104
 1041 0429 55       		pushl	%ebp
 1042              		.cfi_def_cfa_offset 108
 1043 042a 50       		pushl	%eax
 1044              		.cfi_def_cfa_offset 112
 1045 042b E8FCFFFF 		call	__test_assert@PLT
 1045      FF
 1046              	.LVL79:
 1047 0430 83C410   		addl	$16, %esp
 1048              		.cfi_def_cfa_offset 96
 1049 0433 84C0     		testb	%al, %al
 1050 0435 0F8521FC 		jne	.L8
 1050      FFFF
 1051              		.loc 1 197 78 is_stmt 1 view .LVU182
 1052              		.loc 1 198 5 view .LVU183
 1053 043b 83EC0C   		subl	$12, %esp
 1054              		.cfi_def_cfa_offset 108
 1055 043e FF742420 		pushl	32(%esp)
 1056              		.cfi_def_cfa_offset 112
 1057 0442 E8FCFFFF 		call	chHeapFree@PLT
 1057      FF
 1058              	.LVL80:
 1059              		.loc 1 199 5 view .LVU184
 1060 0447 58       		popl	%eax
 1061              		.cfi_def_cfa_offset 108
 1062 0448 FF742424 		pushl	36(%esp)
GAS LISTING /tmp/cc3DArQA.s 			page 22


 1063              		.cfi_def_cfa_offset 112
 1064 044c E8FCFFFF 		call	chHeapFree@PLT
 1064      FF
 1065              	.LVL81:
 1066              		.loc 1 200 5 view .LVU185
 1067 0451 83C40C   		addl	$12, %esp
 1068              		.cfi_def_cfa_offset 100
 1069 0454 6A00     		pushl	$0
 1070              		.cfi_def_cfa_offset 104
 1071 0456 FF742414 		pushl	20(%esp)
 1072              		.cfi_def_cfa_offset 108
 1073 045a 56       		pushl	%esi
 1074              		.cfi_def_cfa_offset 112
 1075 045b E8FCFFFF 		call	chHeapStatus@PLT
 1075      FF
 1076              	.LVL82:
 1077 0460 5A       		popl	%edx
 1078              		.cfi_def_cfa_offset 108
 1079 0461 59       		popl	%ecx
 1080              		.cfi_def_cfa_offset 104
 1081 0462 55       		pushl	%ebp
 1082              		.cfi_def_cfa_offset 108
 1083 0463 83E801   		subl	$1, %eax
 1084 0466 0F94C0   		sete	%al
 1085 0469 0FB6C0   		movzbl	%al, %eax
 1086 046c 50       		pushl	%eax
 1087              		.cfi_def_cfa_offset 112
 1088 046d E8FCFFFF 		call	__test_assert@PLT
 1088      FF
 1089              	.LVL83:
 1090 0472 83C410   		addl	$16, %esp
 1091              		.cfi_def_cfa_offset 96
 1092 0475 84C0     		testb	%al, %al
 1093 0477 0F85DFFB 		jne	.L8
 1093      FFFF
 1094              		.loc 1 200 76 discriminator 2 view .LVU186
 1095              		.loc 1 201 5 discriminator 2 view .LVU187
 1096 047d 83EC0C   		subl	$12, %esp
 1097              		.cfi_def_cfa_offset 108
 1098 0480 56       		pushl	%esi
 1099              		.cfi_def_cfa_offset 112
 1100 0481 E8FCFFFF 		call	chHeapIntegrityCheck@PLT
 1100      FF
 1101              	.LVL84:
 1102 0486 5A       		popl	%edx
 1103              		.cfi_def_cfa_offset 108
 1104 0487 59       		popl	%ecx
 1105              		.cfi_def_cfa_offset 104
 1106 0488 FF742410 		pushl	16(%esp)
 1107              		.cfi_def_cfa_offset 108
 1108 048c 83F001   		xorl	$1, %eax
 1109 048f 0FB6C0   		movzbl	%al, %eax
 1110 0492 50       		pushl	%eax
 1111              		.cfi_def_cfa_offset 112
 1112 0493 E8FCFFFF 		call	__test_assert@PLT
 1112      FF
 1113              	.LVL85:
GAS LISTING /tmp/cc3DArQA.s 			page 23


 1114 0498 83C410   		addl	$16, %esp
 1115              		.cfi_def_cfa_offset 96
 1116 049b 84C0     		testb	%al, %al
 1117 049d 0F85B9FB 		jne	.L8
 1117      FFFF
 1118              		.loc 1 201 72 discriminator 2 view .LVU188
 1119              		.loc 1 203 3 discriminator 2 view .LVU189
 1120              		.loc 1 203 19 discriminator 2 view .LVU190
 1121              		.loc 1 208 3 discriminator 2 view .LVU191
 1122 04a3 C7070800 		movl	$8, (%edi)
 1122      0000
 1123              		.loc 1 210 5 discriminator 2 view .LVU192
 1124              	.LVL86:
 1125              	.LBB75:
 1126              	.LBI75:
 1127              		.loc 2 189 21 discriminator 2 view .LVU193
 1128              	.LBB76:
 1129              		.loc 2 191 3 discriminator 2 view .LVU194
 1130              		.loc 2 191 10 is_stmt 0 discriminator 2 view .LVU195
 1131 04a9 50       		pushl	%eax
 1132              		.cfi_def_cfa_offset 100
 1133 04aa 6A08     		pushl	$8
 1134              		.cfi_def_cfa_offset 104
 1135 04ac 6A10     		pushl	$16
 1136              		.cfi_def_cfa_offset 108
 1137 04ae 56       		pushl	%esi
 1138              		.cfi_def_cfa_offset 112
 1139 04af E8FCFFFF 		call	chHeapAllocAligned@PLT
 1139      FF
 1140              	.LVL87:
 1141 04b4 89442428 		movl	%eax, 40(%esp)
 1142              	.LVL88:
 1143              		.loc 2 191 10 discriminator 2 view .LVU196
 1144              	.LBE76:
 1145              	.LBE75:
 1146              		.loc 1 211 5 is_stmt 1 discriminator 2 view .LVU197
 1147              	.LBB77:
 1148              	.LBI77:
 1149              		.loc 2 189 21 discriminator 2 view .LVU198
 1150              	.LBB78:
 1151              		.loc 2 191 3 discriminator 2 view .LVU199
 1152              		.loc 2 191 10 is_stmt 0 discriminator 2 view .LVU200
 1153 04b8 83C40C   		addl	$12, %esp
 1154              		.cfi_def_cfa_offset 100
 1155 04bb 6A08     		pushl	$8
 1156              		.cfi_def_cfa_offset 104
 1157 04bd 6A10     		pushl	$16
 1158              		.cfi_def_cfa_offset 108
 1159 04bf 56       		pushl	%esi
 1160              		.cfi_def_cfa_offset 112
 1161 04c0 E8FCFFFF 		call	chHeapAllocAligned@PLT
 1161      FF
 1162              	.LVL89:
 1163              		.loc 2 191 10 discriminator 2 view .LVU201
 1164              	.LBE78:
 1165              	.LBE77:
 1166              		.loc 1 212 5 is_stmt 1 discriminator 2 view .LVU202
GAS LISTING /tmp/cc3DArQA.s 			page 24


 1167 04c5 8B542428 		movl	40(%esp), %edx
 1168              	.LBB80:
 1169              	.LBB79:
 1170              		.loc 2 191 10 is_stmt 0 discriminator 2 view .LVU203
 1171 04c9 89442424 		movl	%eax, 36(%esp)
 1172              	.LVL90:
 1173              		.loc 2 191 10 discriminator 2 view .LVU204
 1174              	.LBE79:
 1175              	.LBE80:
 1176              		.loc 1 212 5 discriminator 2 view .LVU205
 1177 04cd 891424   		movl	%edx, (%esp)
 1178 04d0 E8FCFFFF 		call	chHeapFree@PLT
 1178      FF
 1179              	.LVL91:
 1180              		.loc 1 213 5 is_stmt 1 discriminator 2 view .LVU206
 1181 04d5 83C40C   		addl	$12, %esp
 1182              		.cfi_def_cfa_offset 100
 1183 04d8 6A00     		pushl	$0
 1184              		.cfi_def_cfa_offset 104
 1185 04da FF742414 		pushl	20(%esp)
 1186              		.cfi_def_cfa_offset 108
 1187 04de 56       		pushl	%esi
 1188              		.cfi_def_cfa_offset 112
 1189 04df E8FCFFFF 		call	chHeapStatus@PLT
 1189      FF
 1190              	.LVL92:
 1191 04e4 5A       		popl	%edx
 1192              		.cfi_def_cfa_offset 108
 1193 04e5 59       		popl	%ecx
 1194              		.cfi_def_cfa_offset 104
 1195 04e6 FF742424 		pushl	36(%esp)
 1196              		.cfi_def_cfa_offset 108
 1197 04ea 83F802   		cmpl	$2, %eax
 1198 04ed 0F94C0   		sete	%al
 1199 04f0 0FB6C0   		movzbl	%al, %eax
 1200 04f3 50       		pushl	%eax
 1201              		.cfi_def_cfa_offset 112
 1202 04f4 E8FCFFFF 		call	__test_assert@PLT
 1202      FF
 1203              	.LVL93:
 1204 04f9 83C410   		addl	$16, %esp
 1205              		.cfi_def_cfa_offset 96
 1206 04fc 84C0     		testb	%al, %al
 1207 04fe 0F8558FB 		jne	.L8
 1207      FFFF
 1208              		.loc 1 213 75 view .LVU207
 1209              		.loc 1 214 5 view .LVU208
 1210              	.LVL94:
 1211              	.LBB81:
 1212              	.LBI81:
 1213              		.loc 2 189 21 view .LVU209
 1214              	.LBB82:
 1215              		.loc 2 191 3 view .LVU210
 1216              		.loc 2 191 10 is_stmt 0 view .LVU211
 1217 0504 50       		pushl	%eax
 1218              		.cfi_def_cfa_offset 100
 1219 0505 6A08     		pushl	$8
GAS LISTING /tmp/cc3DArQA.s 			page 25


 1220              		.cfi_def_cfa_offset 104
 1221 0507 6A20     		pushl	$32
 1222              		.cfi_def_cfa_offset 108
 1223 0509 56       		pushl	%esi
 1224              		.cfi_def_cfa_offset 112
 1225 050a E8FCFFFF 		call	chHeapAllocAligned@PLT
 1225      FF
 1226              	.LVL95:
 1227              		.loc 2 191 10 view .LVU212
 1228              	.LBE82:
 1229              	.LBE81:
 1230              		.loc 1 215 5 is_stmt 1 view .LVU213
 1231 050f 890424   		movl	%eax, (%esp)
 1232 0512 E8FCFFFF 		call	chHeapFree@PLT
 1232      FF
 1233              	.LVL96:
 1234              		.loc 1 216 5 view .LVU214
 1235 0517 58       		popl	%eax
 1236              		.cfi_def_cfa_offset 108
 1237 0518 FF742420 		pushl	32(%esp)
 1238              		.cfi_def_cfa_offset 112
 1239 051c E8FCFFFF 		call	chHeapFree@PLT
 1239      FF
 1240              	.LVL97:
 1241              		.loc 1 217 5 view .LVU215
 1242 0521 83C40C   		addl	$12, %esp
 1243              		.cfi_def_cfa_offset 100
 1244 0524 6A00     		pushl	$0
 1245              		.cfi_def_cfa_offset 104
 1246 0526 FF742414 		pushl	20(%esp)
 1247              		.cfi_def_cfa_offset 108
 1248 052a 56       		pushl	%esi
 1249              		.cfi_def_cfa_offset 112
 1250 052b E8FCFFFF 		call	chHeapStatus@PLT
 1250      FF
 1251              	.LVL98:
 1252 0530 5A       		popl	%edx
 1253              		.cfi_def_cfa_offset 108
 1254 0531 59       		popl	%ecx
 1255              		.cfi_def_cfa_offset 104
 1256 0532 55       		pushl	%ebp
 1257              		.cfi_def_cfa_offset 108
 1258 0533 83E801   		subl	$1, %eax
 1259 0536 0F94C0   		sete	%al
 1260 0539 0FB6C0   		movzbl	%al, %eax
 1261 053c 50       		pushl	%eax
 1262              		.cfi_def_cfa_offset 112
 1263 053d E8FCFFFF 		call	__test_assert@PLT
 1263      FF
 1264              	.LVL99:
 1265 0542 83C410   		addl	$16, %esp
 1266              		.cfi_def_cfa_offset 96
 1267 0545 84C0     		testb	%al, %al
 1268 0547 0F850FFB 		jne	.L8
 1268      FFFF
 1269              		.loc 1 217 76 discriminator 2 view .LVU216
 1270              		.loc 1 218 5 discriminator 2 view .LVU217
GAS LISTING /tmp/cc3DArQA.s 			page 26


 1271 054d 83EC0C   		subl	$12, %esp
 1272              		.cfi_def_cfa_offset 108
 1273 0550 56       		pushl	%esi
 1274              		.cfi_def_cfa_offset 112
 1275 0551 E8FCFFFF 		call	chHeapIntegrityCheck@PLT
 1275      FF
 1276              	.LVL100:
 1277 0556 5A       		popl	%edx
 1278              		.cfi_def_cfa_offset 108
 1279 0557 59       		popl	%ecx
 1280              		.cfi_def_cfa_offset 104
 1281 0558 FF742410 		pushl	16(%esp)
 1282              		.cfi_def_cfa_offset 108
 1283 055c 83F001   		xorl	$1, %eax
 1284 055f 0FB6C0   		movzbl	%al, %eax
 1285 0562 50       		pushl	%eax
 1286              		.cfi_def_cfa_offset 112
 1287 0563 E8FCFFFF 		call	__test_assert@PLT
 1287      FF
 1288              	.LVL101:
 1289 0568 83C410   		addl	$16, %esp
 1290              		.cfi_def_cfa_offset 96
 1291 056b 84C0     		testb	%al, %al
 1292 056d 0F85E9FA 		jne	.L8
 1292      FFFF
 1293              		.loc 1 218 72 discriminator 2 view .LVU218
 1294              		.loc 1 220 3 discriminator 2 view .LVU219
 1295              		.loc 1 220 19 discriminator 2 view .LVU220
 1296              		.loc 1 224 3 discriminator 2 view .LVU221
 1297 0573 C7070900 		movl	$9, (%edi)
 1297      0000
 1298              		.loc 1 226 5 discriminator 2 view .LVU222
 1299              		.loc 1 226 11 is_stmt 0 discriminator 2 view .LVU223
 1300 0579 50       		pushl	%eax
 1301              		.cfi_def_cfa_offset 100
 1302 057a 6A00     		pushl	$0
 1303              		.cfi_def_cfa_offset 104
 1304 057c FF742414 		pushl	20(%esp)
 1305              		.cfi_def_cfa_offset 108
 1306 0580 56       		pushl	%esi
 1307              		.cfi_def_cfa_offset 112
 1308 0581 E8FCFFFF 		call	chHeapStatus@PLT
 1308      FF
 1309              	.LVL102:
 1310              		.loc 1 227 5 is_stmt 1 discriminator 2 view .LVU224
 1311              	.LBB83:
 1312              	.LBI83:
 1313              		.loc 2 189 21 discriminator 2 view .LVU225
 1314              	.LBB84:
 1315              		.loc 2 191 3 discriminator 2 view .LVU226
 1316              		.loc 2 191 10 is_stmt 0 discriminator 2 view .LVU227
 1317 0586 83C40C   		addl	$12, %esp
 1318              		.cfi_def_cfa_offset 100
 1319 0589 6A08     		pushl	$8
 1320              		.cfi_def_cfa_offset 104
 1321 058b FF742434 		pushl	52(%esp)
 1322              		.cfi_def_cfa_offset 108
GAS LISTING /tmp/cc3DArQA.s 			page 27


 1323 058f 56       		pushl	%esi
 1324              		.cfi_def_cfa_offset 112
 1325 0590 E8FCFFFF 		call	chHeapAllocAligned@PLT
 1325      FF
 1326              	.LVL103:
 1327              		.loc 2 191 10 discriminator 2 view .LVU228
 1328              	.LBE84:
 1329              	.LBE83:
 1330              		.loc 1 228 5 is_stmt 1 discriminator 2 view .LVU229
 1331 0595 5A       		popl	%edx
 1332              		.cfi_def_cfa_offset 108
 1333 0596 59       		popl	%ecx
 1334              		.cfi_def_cfa_offset 104
 1335 0597 FF742418 		pushl	24(%esp)
 1336              		.cfi_def_cfa_offset 108
 1337 059b 85C0     		testl	%eax, %eax
 1338 059d 8944241C 		movl	%eax, 28(%esp)
 1339 05a1 0F95C0   		setne	%al
 1340              	.LVL104:
 1341              		.loc 1 228 5 is_stmt 0 discriminator 2 view .LVU230
 1342 05a4 0FB6C0   		movzbl	%al, %eax
 1343 05a7 50       		pushl	%eax
 1344              		.cfi_def_cfa_offset 112
 1345 05a8 E8FCFFFF 		call	__test_assert@PLT
 1345      FF
 1346              	.LVL105:
 1347 05ad 83C410   		addl	$16, %esp
 1348              		.cfi_def_cfa_offset 96
 1349 05b0 84C0     		testb	%al, %al
 1350 05b2 0F85A4FA 		jne	.L8
 1350      FFFF
 1351              		.loc 1 228 49 is_stmt 1 discriminator 2 view .LVU231
 1352              		.loc 1 229 5 discriminator 2 view .LVU232
 1353 05b8 50       		pushl	%eax
 1354              		.cfi_def_cfa_offset 100
 1355 05b9 6A00     		pushl	$0
 1356              		.cfi_def_cfa_offset 104
 1357 05bb 6A00     		pushl	$0
 1358              		.cfi_def_cfa_offset 108
 1359 05bd 56       		pushl	%esi
 1360              		.cfi_def_cfa_offset 112
 1361 05be E8FCFFFF 		call	chHeapStatus@PLT
 1361      FF
 1362              	.LVL106:
 1363 05c3 5A       		popl	%edx
 1364              		.cfi_def_cfa_offset 108
 1365 05c4 8D930000 		leal	.LC7@GOTOFF(%ebx), %edx
 1365      0000
 1366 05ca 59       		popl	%ecx
 1367              		.cfi_def_cfa_offset 104
 1368 05cb 85C0     		testl	%eax, %eax
 1369 05cd 52       		pushl	%edx
 1370              		.cfi_def_cfa_offset 108
 1371 05ce 0F94C0   		sete	%al
 1372 05d1 0FB6C0   		movzbl	%al, %eax
 1373 05d4 50       		pushl	%eax
 1374              		.cfi_def_cfa_offset 112
GAS LISTING /tmp/cc3DArQA.s 			page 28


 1375 05d5 E8FCFFFF 		call	__test_assert@PLT
 1375      FF
 1376              	.LVL107:
 1377 05da 83C410   		addl	$16, %esp
 1378              		.cfi_def_cfa_offset 96
 1379 05dd 84C0     		testb	%al, %al
 1380 05df 0F8577FA 		jne	.L8
 1380      FFFF
 1381              		.loc 1 229 72 discriminator 2 view .LVU233
 1382              		.loc 1 230 5 discriminator 2 view .LVU234
 1383 05e5 83EC0C   		subl	$12, %esp
 1384              		.cfi_def_cfa_offset 108
 1385 05e8 FF74241C 		pushl	28(%esp)
 1386              		.cfi_def_cfa_offset 112
 1387 05ec E8FCFFFF 		call	chHeapFree@PLT
 1387      FF
 1388              	.LVL108:
 1389              		.loc 1 231 5 discriminator 2 view .LVU235
 1390 05f1 893424   		movl	%esi, (%esp)
 1391 05f4 E8FCFFFF 		call	chHeapIntegrityCheck@PLT
 1391      FF
 1392              	.LVL109:
 1393 05f9 5A       		popl	%edx
 1394              		.cfi_def_cfa_offset 108
 1395 05fa 59       		popl	%ecx
 1396              		.cfi_def_cfa_offset 104
 1397 05fb FF742410 		pushl	16(%esp)
 1398              		.cfi_def_cfa_offset 108
 1399 05ff 83F001   		xorl	$1, %eax
 1400 0602 0FB6C0   		movzbl	%al, %eax
 1401 0605 50       		pushl	%eax
 1402              		.cfi_def_cfa_offset 112
 1403 0606 E8FCFFFF 		call	__test_assert@PLT
 1403      FF
 1404              	.LVL110:
 1405 060b 83C410   		addl	$16, %esp
 1406              		.cfi_def_cfa_offset 96
 1407 060e 84C0     		testb	%al, %al
 1408 0610 0F8546FA 		jne	.L8
 1408      FFFF
 1409              		.loc 1 231 72 discriminator 2 view .LVU236
 1410              		.loc 1 233 3 discriminator 2 view .LVU237
 1411              		.loc 1 233 19 discriminator 2 view .LVU238
 1412              		.loc 1 238 3 discriminator 2 view .LVU239
 1413 0616 C7070A00 		movl	$10, (%edi)
 1413      0000
 1414              		.loc 1 240 5 discriminator 2 view .LVU240
 1415 061c 50       		pushl	%eax
 1416              		.cfi_def_cfa_offset 100
 1417 061d 6A00     		pushl	$0
 1418              		.cfi_def_cfa_offset 104
 1419 061f FF742414 		pushl	20(%esp)
 1420              		.cfi_def_cfa_offset 108
 1421 0623 56       		pushl	%esi
 1422              		.cfi_def_cfa_offset 112
 1423 0624 E8FCFFFF 		call	chHeapStatus@PLT
 1423      FF
GAS LISTING /tmp/cc3DArQA.s 			page 29


 1424              	.LVL111:
 1425 0629 5A       		popl	%edx
 1426              		.cfi_def_cfa_offset 108
 1427 062a 59       		popl	%ecx
 1428              		.cfi_def_cfa_offset 104
 1429 062b 55       		pushl	%ebp
 1430              		.cfi_def_cfa_offset 108
 1431 062c 83E801   		subl	$1, %eax
 1432 062f 0F94C0   		sete	%al
 1433 0632 0FB6C0   		movzbl	%al, %eax
 1434 0635 50       		pushl	%eax
 1435              		.cfi_def_cfa_offset 112
 1436 0636 E8FCFFFF 		call	__test_assert@PLT
 1436      FF
 1437              	.LVL112:
 1438 063b 83C410   		addl	$16, %esp
 1439              		.cfi_def_cfa_offset 96
 1440 063e 84C0     		testb	%al, %al
 1441 0640 0F8516FA 		jne	.L8
 1441      FFFF
 1442              		.loc 1 240 76 discriminator 2 view .LVU241
 1443              		.loc 1 241 5 discriminator 2 view .LVU242
 1444 0646 8D830000 		leal	.LC8@GOTOFF(%ebx), %eax
 1444      0000
 1445 064c 57       		pushl	%edi
 1446              		.cfi_def_cfa_offset 100
 1447 064d 57       		pushl	%edi
 1448              		.cfi_def_cfa_offset 104
 1449 064e 50       		pushl	%eax
 1450              		.cfi_def_cfa_offset 108
 1451 064f 8B44243C 		movl	60(%esp), %eax
 1452 0653 39442438 		cmpl	%eax, 56(%esp)
 1453 0657 0F94C0   		sete	%al
 1454 065a 0FB6C0   		movzbl	%al, %eax
 1455 065d 50       		pushl	%eax
 1456              		.cfi_def_cfa_offset 112
 1457 065e E8FCFFFF 		call	__test_assert@PLT
 1457      FF
 1458              	.LVL113:
 1459 0663 83C410   		addl	$16, %esp
 1460              		.cfi_def_cfa_offset 96
 1461 0666 84C0     		testb	%al, %al
 1462 0668 0F85EEF9 		jne	.L8
 1462      FFFF
 1463              		.loc 1 241 41 discriminator 2 view .LVU243
 1464              		.loc 1 242 5 discriminator 2 view .LVU244
 1465 066e 83EC0C   		subl	$12, %esp
 1466              		.cfi_def_cfa_offset 108
 1467 0671 56       		pushl	%esi
 1468              		.cfi_def_cfa_offset 112
 1469 0672 E8FCFFFF 		call	chHeapIntegrityCheck@PLT
 1469      FF
 1470              	.LVL114:
 1471 0677 5A       		popl	%edx
 1472              		.cfi_def_cfa_offset 108
 1473 0678 59       		popl	%ecx
 1474              		.cfi_def_cfa_offset 104
GAS LISTING /tmp/cc3DArQA.s 			page 30


 1475 0679 FF742410 		pushl	16(%esp)
 1476              		.cfi_def_cfa_offset 108
 1477 067d 83F001   		xorl	$1, %eax
 1478 0680 0FB6C0   		movzbl	%al, %eax
 1479 0683 50       		pushl	%eax
 1480              		.cfi_def_cfa_offset 112
 1481 0684 E8FCFFFF 		call	__test_assert@PLT
 1481      FF
 1482              	.LVL115:
 1483              		.loc 1 242 5 discriminator 2 view .LVU245
 1484 0689 83C410   		addl	$16, %esp
 1485              		.cfi_def_cfa_offset 96
 1486 068c E9CBF9FF 		jmp	.L8
 1486      FF
 1487              	.LVL116:
 1488              	.L20:
 1489              		.loc 1 245 1 is_stmt 0 view .LVU246
 1490 0691 E8FCFFFF 		call	__stack_chk_fail_local
 1490      FF
 1491              	.LVL117:
 1492              		.cfi_endproc
 1493              	.LFE304:
 1494              		.size	oslib_test_008_001_execute, .-oslib_test_008_001_execute
 1495              		.section	.text.oslib_test_008_001_setup,"ax",@progbits
 1496              		.p2align 4
 1497              		.type	oslib_test_008_001_setup, @function
 1498              	oslib_test_008_001_setup:
 1499              	.LFB303:
 1500              		.loc 1 99 44 is_stmt 1 view -0
 1501              		.cfi_startproc
 1502              		.loc 1 100 3 view .LVU248
 1503              		.loc 1 99 44 is_stmt 0 view .LVU249
 1504 0000 53       		pushl	%ebx
 1505              		.cfi_def_cfa_offset 8
 1506              		.cfi_offset 3, -8
 1507 0001 E8FCFFFF 		call	__x86.get_pc_thunk.bx
 1507      FF
 1508 0006 81C30200 		addl	$_GLOBAL_OFFSET_TABLE_, %ebx
 1508      0000
 1509 000c 83EC0C   		subl	$12, %esp
 1510              		.cfi_def_cfa_offset 20
 1511              		.loc 1 100 3 view .LVU250
 1512 000f 68800000 		pushl	$128
 1512      00
 1513              		.cfi_def_cfa_offset 24
 1514 0014 8D830000 		leal	test_heap_buffer@GOTOFF(%ebx), %eax
 1514      0000
 1515 001a 50       		pushl	%eax
 1516              		.cfi_def_cfa_offset 28
 1517 001b 8D830000 		leal	test_heap@GOTOFF(%ebx), %eax
 1517      0000
 1518 0021 50       		pushl	%eax
 1519              		.cfi_def_cfa_offset 32
 1520 0022 E8FCFFFF 		call	chHeapObjectInit@PLT
 1520      FF
 1521              	.LVL118:
 1522              		.loc 1 101 1 view .LVU251
GAS LISTING /tmp/cc3DArQA.s 			page 31


 1523 0027 83C418   		addl	$24, %esp
 1524              		.cfi_def_cfa_offset 8
 1525 002a 5B       		popl	%ebx
 1526              		.cfi_restore 3
 1527              		.cfi_def_cfa_offset 4
 1528 002b C3       		ret
 1529              		.cfi_endproc
 1530              	.LFE303:
 1531              		.size	oslib_test_008_001_setup, .-oslib_test_008_001_setup
 1532              		.globl	oslib_test_sequence_008
 1533              		.section	.rodata.str1.1,"aMS",@progbits,1
 1534              	.LC9:
 1535 0000 4D656D6F 		.string	"Memory Heaps"
 1535      72792048 
 1535      65617073 
 1535      00
 1536              		.section	.data.rel.ro.local.oslib_test_sequence_008,"aw"
 1537              		.align 4
 1538              		.type	oslib_test_sequence_008, @object
 1539              		.size	oslib_test_sequence_008, 8
 1540              	oslib_test_sequence_008:
 1541 0000 00000000 		.long	.LC9
 1542 0004 00000000 		.long	oslib_test_sequence_008_array
 1543              		.globl	oslib_test_sequence_008_array
 1544              		.section	.data.rel.ro.local.oslib_test_sequence_008_array,"aw"
 1545              		.align 4
 1546              		.type	oslib_test_sequence_008_array, @object
 1547              		.size	oslib_test_sequence_008_array, 12
 1548              	oslib_test_sequence_008_array:
 1549 0000 00000000 		.long	oslib_test_008_001
 1550 0004 00000000 		.long	oslib_test_008_002
 1551 0008 00000000 		.long	0
 1552              		.section	.rodata.str1.1
 1553              	.LC10:
 1554 000d 44656661 		.string	"Default Heap"
 1554      756C7420 
 1554      48656170 
 1554      00
 1555              		.section	.data.rel.ro.local.oslib_test_008_002,"aw"
 1556              		.align 4
 1557              		.type	oslib_test_008_002, @object
 1558              		.size	oslib_test_008_002, 16
 1559              	oslib_test_008_002:
 1560 0000 0D000000 		.long	.LC10
 1561 0004 00000000 		.long	0
 1562 0008 00000000 		.long	0
 1563 000c 00000000 		.long	oslib_test_008_002_execute
 1564              		.section	.rodata.str1.1
 1565              	.LC11:
 1566 001a 416C6C6F 		.string	"Allocation and fragmentation"
 1566      63617469 
 1566      6F6E2061 
 1566      6E642066 
 1566      7261676D 
 1567              		.section	.data.rel.ro.local.oslib_test_008_001,"aw"
 1568              		.align 4
 1569              		.type	oslib_test_008_001, @object
GAS LISTING /tmp/cc3DArQA.s 			page 32


 1570              		.size	oslib_test_008_001, 16
 1571              	oslib_test_008_001:
 1572 0000 1A000000 		.long	.LC11
 1573 0004 00000000 		.long	oslib_test_008_001_setup
 1574 0008 00000000 		.long	0
 1575 000c 00000000 		.long	oslib_test_008_001_execute
 1576              		.section	.bss.test_heap_buffer,"aw",@nobits
 1577              		.align 32
 1578              		.type	test_heap_buffer, @object
 1579              		.size	test_heap_buffer, 128
 1580              	test_heap_buffer:
 1581 0000 00000000 		.zero	128
 1581      00000000 
 1581      00000000 
 1581      00000000 
 1581      00000000 
 1582              		.section	.bss.test_heap,"aw",@nobits
 1583              		.align 32
 1584              		.type	test_heap, @object
 1585              		.size	test_heap, 36
 1586              	test_heap:
 1587 0000 00000000 		.zero	36
 1587      00000000 
 1587      00000000 
 1587      00000000 
 1587      00000000 
 1588              		.section	.text.__x86.get_pc_thunk.bx,"axG",@progbits,__x86.get_pc_thunk.bx,comdat
 1589              		.globl	__x86.get_pc_thunk.bx
 1590              		.hidden	__x86.get_pc_thunk.bx
 1591              		.type	__x86.get_pc_thunk.bx, @function
 1592              	__x86.get_pc_thunk.bx:
 1593              	.LFB306:
 1594              		.cfi_startproc
 1595 0000 8B1C24   		movl	(%esp), %ebx
 1596 0003 C3       		ret
 1597              		.cfi_endproc
 1598              	.LFE306:
 1599              		.text
 1600              	.Letext0:
 1601              		.file 3 "/usr/lib/gcc/x86_64-linux-gnu/11/include/stddef.h"
 1602              		.file 4 "/usr/include/bits/types.h"
 1603              		.file 5 "/usr/include/bits/stdint-intn.h"
 1604              		.file 6 "/usr/include/bits/stdint-uintn.h"
 1605              		.file 7 "../../../os/common/ports/SIMIA32/compilers/GCC/chtypes.h"
 1606              		.file 8 "../../../os/rt/include/chearly.h"
 1607              		.file 9 "../../../os/rt/include/chobjects.h"
 1608              		.file 10 "../../../os/rt/include/chrfcu.h"
 1609              		.file 11 "../../../os/rt/include/chdebug.h"
 1610              		.file 12 "../../../os/rt/include/chtime.h"
 1611              		.file 13 "../../../os/rt/include/chlists.h"
 1612              		.file 14 "../../../os/common/ports/SIMIA32/chcore.h"
 1613              		.file 15 "../../../os/rt/include/chsem.h"
 1614              		.file 16 "../../../os/rt/include/chmtx.h"
 1615              		.file 17 "../../../os/oslib/include/chmemchecks.h"
 1616              		.file 18 "../../../os/oslib/include/chmemcore.h"
 1617              		.file 19 "../../../os/hal/include/hal_streams.h"
 1618              		.file 20 "../../../os/test/include/ch_test.h"
GAS LISTING /tmp/cc3DArQA.s 			page 33


 1619              		.file 21 "../../../test/oslib/source/test/oslib_test_sequence_008.h"
 5783 0060 2F686F6D 		.section	.note.GNU-stack,"",@progbits
 5783      652F616C 
 5783      65782F43 
 5783      68696269 
 5783      4F532F64 
GAS LISTING /tmp/cc3DArQA.s 			page 113

