GAS LISTING /tmp/ccwdkvlB.s 			page 1


   1              		.file	"oslib_test_sequence_009.c"
   2              		.text
   3              	.Ltext0:
   4              		.file 0 "/home/alex/ChibiOS/demos/various/LAB1" "../../../test/oslib/source/test/oslib_test_sequen
   5              		.section	.rodata.oslib_test_009_006_teardown.str1.1,"aMS",@progbits,1
   6              	.LC0:
   7 0000 6D797069 		.string	"mypipe"
   7      706500
   8              		.section	.text.oslib_test_009_006_teardown,"ax",@progbits
   9              		.p2align 4
  10              		.type	oslib_test_009_006_teardown, @function
  11              	oslib_test_009_006_teardown:
  12              	.LFB313:
  13              		.file 1 "../../../test/oslib/source/test/oslib_test_sequence_009.c"
  14              		.loc 1 689 47 view -0
  15              		.cfi_startproc
  16              		.loc 1 690 3 view .LVU1
  17              		.loc 1 692 3 view .LVU2
  18              		.loc 1 689 47 is_stmt 0 view .LVU3
  19 0000 56       		pushl	%esi
  20              		.cfi_def_cfa_offset 8
  21              		.cfi_offset 6, -8
  22 0001 53       		pushl	%ebx
  23              		.cfi_def_cfa_offset 12
  24              		.cfi_offset 3, -12
  25 0002 E8FCFFFF 		call	__x86.get_pc_thunk.bx
  25      FF
  26 0007 81C30200 		addl	$_GLOBAL_OFFSET_TABLE_, %ebx
  26      0000
  27 000d 83EC10   		subl	$16, %esp
  28              		.cfi_def_cfa_offset 28
  29              		.loc 1 692 9 view .LVU4
  30 0010 8D830000 		leal	.LC0@GOTOFF(%ebx), %eax
  30      0000
  31 0016 50       		pushl	%eax
  32              		.cfi_def_cfa_offset 32
  33 0017 E8FCFFFF 		call	chFactoryFindPipe@PLT
  33      FF
  34              	.LVL0:
  35              		.loc 1 693 3 is_stmt 1 view .LVU5
  36              		.loc 1 693 6 is_stmt 0 view .LVU6
  37 001c 83C410   		addl	$16, %esp
  38              		.cfi_def_cfa_offset 16
  39 001f 85C0     		testl	%eax, %eax
  40 0021 7420     		je	.L1
  41              		.loc 1 694 30 view .LVU7
  42 0023 8B5004   		movl	4(%eax), %edx
  43 0026 89C6     		movl	%eax, %esi
  44              		.loc 1 694 30 is_stmt 1 view .LVU8
  45 0028 85D2     		testl	%edx, %edx
  46 002a 7417     		je	.L1
  47              	.LVL1:
  48 002c 8D742600 		.p2align 4,,10
  49              		.p2align 3
  50              	.L3:
  51              		.loc 1 695 7 view .LVU9
  52 0030 83EC0C   		subl	$12, %esp
GAS LISTING /tmp/ccwdkvlB.s 			page 2


  53              		.cfi_def_cfa_offset 28
  54 0033 56       		pushl	%esi
  55              		.cfi_def_cfa_offset 32
  56 0034 E8FCFFFF 		call	chFactoryReleasePipe@PLT
  56      FF
  57              	.LVL2:
  58              		.loc 1 694 30 view .LVU10
  59 0039 8B4604   		movl	4(%esi), %eax
  60 003c 83C410   		addl	$16, %esp
  61              		.cfi_def_cfa_offset 16
  62 003f 85C0     		testl	%eax, %eax
  63 0041 75ED     		jne	.L3
  64              	.LVL3:
  65              	.L1:
  66              		.loc 1 698 1 is_stmt 0 view .LVU11
  67 0043 83C404   		addl	$4, %esp
  68              		.cfi_def_cfa_offset 12
  69 0046 5B       		popl	%ebx
  70              		.cfi_restore 3
  71              		.cfi_def_cfa_offset 8
  72 0047 5E       		popl	%esi
  73              		.cfi_restore 6
  74              		.cfi_def_cfa_offset 4
  75 0048 C3       		ret
  76              		.cfi_endproc
  77              	.LFE313:
  78              		.size	oslib_test_009_006_teardown, .-oslib_test_009_006_teardown
  79              		.section	.rodata.oslib_test_009_005_teardown.str1.1,"aMS",@progbits,1
  80              	.LC1:
  81 0000 6D796669 		.string	"myfifo"
  81      666F00
  82              		.section	.text.oslib_test_009_005_teardown,"ax",@progbits
  83              		.p2align 4
  84              		.type	oslib_test_009_005_teardown, @function
  85              	oslib_test_009_005_teardown:
  86              	.LFB311:
  87              		.loc 1 570 47 is_stmt 1 view -0
  88              		.cfi_startproc
  89              		.loc 1 571 3 view .LVU13
  90              		.loc 1 573 3 view .LVU14
  91              		.loc 1 570 47 is_stmt 0 view .LVU15
  92 0000 56       		pushl	%esi
  93              		.cfi_def_cfa_offset 8
  94              		.cfi_offset 6, -8
  95 0001 53       		pushl	%ebx
  96              		.cfi_def_cfa_offset 12
  97              		.cfi_offset 3, -12
  98 0002 E8FCFFFF 		call	__x86.get_pc_thunk.bx
  98      FF
  99 0007 81C30200 		addl	$_GLOBAL_OFFSET_TABLE_, %ebx
  99      0000
 100 000d 83EC10   		subl	$16, %esp
 101              		.cfi_def_cfa_offset 28
 102              		.loc 1 573 10 view .LVU16
 103 0010 8D830000 		leal	.LC1@GOTOFF(%ebx), %eax
 103      0000
 104 0016 50       		pushl	%eax
GAS LISTING /tmp/ccwdkvlB.s 			page 3


 105              		.cfi_def_cfa_offset 32
 106 0017 E8FCFFFF 		call	chFactoryFindObjectsFIFO@PLT
 106      FF
 107              	.LVL4:
 108              		.loc 1 574 3 is_stmt 1 view .LVU17
 109              		.loc 1 574 6 is_stmt 0 view .LVU18
 110 001c 83C410   		addl	$16, %esp
 111              		.cfi_def_cfa_offset 16
 112 001f 85C0     		testl	%eax, %eax
 113 0021 7420     		je	.L10
 114              		.loc 1 575 31 view .LVU19
 115 0023 8B5004   		movl	4(%eax), %edx
 116 0026 89C6     		movl	%eax, %esi
 117              		.loc 1 575 31 is_stmt 1 view .LVU20
 118 0028 85D2     		testl	%edx, %edx
 119 002a 7417     		je	.L10
 120              	.LVL5:
 121 002c 8D742600 		.p2align 4,,10
 122              		.p2align 3
 123              	.L12:
 124              		.loc 1 576 7 view .LVU21
 125 0030 83EC0C   		subl	$12, %esp
 126              		.cfi_def_cfa_offset 28
 127 0033 56       		pushl	%esi
 128              		.cfi_def_cfa_offset 32
 129 0034 E8FCFFFF 		call	chFactoryReleaseObjectsFIFO@PLT
 129      FF
 130              	.LVL6:
 131              		.loc 1 575 31 view .LVU22
 132 0039 8B4604   		movl	4(%esi), %eax
 133 003c 83C410   		addl	$16, %esp
 134              		.cfi_def_cfa_offset 16
 135 003f 85C0     		testl	%eax, %eax
 136 0041 75ED     		jne	.L12
 137              	.LVL7:
 138              	.L10:
 139              		.loc 1 579 1 is_stmt 0 view .LVU23
 140 0043 83C404   		addl	$4, %esp
 141              		.cfi_def_cfa_offset 12
 142 0046 5B       		popl	%ebx
 143              		.cfi_restore 3
 144              		.cfi_def_cfa_offset 8
 145 0047 5E       		popl	%esi
 146              		.cfi_restore 6
 147              		.cfi_def_cfa_offset 4
 148 0048 C3       		ret
 149              		.cfi_endproc
 150              	.LFE311:
 151              		.size	oslib_test_009_005_teardown, .-oslib_test_009_005_teardown
 152              		.section	.rodata.oslib_test_009_004_teardown.str1.1,"aMS",@progbits,1
 153              	.LC2:
 154 0000 6D796D62 		.string	"mymbx"
 154      7800
 155              		.section	.text.oslib_test_009_004_teardown,"ax",@progbits
 156              		.p2align 4
 157              		.type	oslib_test_009_004_teardown, @function
 158              	oslib_test_009_004_teardown:
GAS LISTING /tmp/ccwdkvlB.s 			page 4


 159              	.LFB309:
 160              		.loc 1 449 47 is_stmt 1 view -0
 161              		.cfi_startproc
 162              		.loc 1 450 3 view .LVU25
 163              		.loc 1 452 3 view .LVU26
 164              		.loc 1 449 47 is_stmt 0 view .LVU27
 165 0000 56       		pushl	%esi
 166              		.cfi_def_cfa_offset 8
 167              		.cfi_offset 6, -8
 168 0001 53       		pushl	%ebx
 169              		.cfi_def_cfa_offset 12
 170              		.cfi_offset 3, -12
 171 0002 E8FCFFFF 		call	__x86.get_pc_thunk.bx
 171      FF
 172 0007 81C30200 		addl	$_GLOBAL_OFFSET_TABLE_, %ebx
 172      0000
 173 000d 83EC10   		subl	$16, %esp
 174              		.cfi_def_cfa_offset 28
 175              		.loc 1 452 9 view .LVU28
 176 0010 8D830000 		leal	.LC2@GOTOFF(%ebx), %eax
 176      0000
 177 0016 50       		pushl	%eax
 178              		.cfi_def_cfa_offset 32
 179 0017 E8FCFFFF 		call	chFactoryFindMailbox@PLT
 179      FF
 180              	.LVL8:
 181              		.loc 1 453 3 is_stmt 1 view .LVU29
 182              		.loc 1 453 6 is_stmt 0 view .LVU30
 183 001c 83C410   		addl	$16, %esp
 184              		.cfi_def_cfa_offset 16
 185 001f 85C0     		testl	%eax, %eax
 186 0021 7420     		je	.L18
 187              		.loc 1 454 30 view .LVU31
 188 0023 8B5004   		movl	4(%eax), %edx
 189 0026 89C6     		movl	%eax, %esi
 190              		.loc 1 454 30 is_stmt 1 view .LVU32
 191 0028 85D2     		testl	%edx, %edx
 192 002a 7417     		je	.L18
 193              	.LVL9:
 194 002c 8D742600 		.p2align 4,,10
 195              		.p2align 3
 196              	.L20:
 197              		.loc 1 455 7 view .LVU33
 198 0030 83EC0C   		subl	$12, %esp
 199              		.cfi_def_cfa_offset 28
 200 0033 56       		pushl	%esi
 201              		.cfi_def_cfa_offset 32
 202 0034 E8FCFFFF 		call	chFactoryReleaseMailbox@PLT
 202      FF
 203              	.LVL10:
 204              		.loc 1 454 30 view .LVU34
 205 0039 8B4604   		movl	4(%esi), %eax
 206 003c 83C410   		addl	$16, %esp
 207              		.cfi_def_cfa_offset 16
 208 003f 85C0     		testl	%eax, %eax
 209 0041 75ED     		jne	.L20
 210              	.LVL11:
GAS LISTING /tmp/ccwdkvlB.s 			page 5


 211              	.L18:
 212              		.loc 1 458 1 is_stmt 0 view .LVU35
 213 0043 83C404   		addl	$4, %esp
 214              		.cfi_def_cfa_offset 12
 215 0046 5B       		popl	%ebx
 216              		.cfi_restore 3
 217              		.cfi_def_cfa_offset 8
 218 0047 5E       		popl	%esi
 219              		.cfi_restore 6
 220              		.cfi_def_cfa_offset 4
 221 0048 C3       		ret
 222              		.cfi_endproc
 223              	.LFE309:
 224              		.size	oslib_test_009_004_teardown, .-oslib_test_009_004_teardown
 225              		.section	.rodata.oslib_test_009_003_teardown.str1.1,"aMS",@progbits,1
 226              	.LC3:
 227 0000 6D797365 		.string	"mysem"
 227      6D00
 228              		.section	.text.oslib_test_009_003_teardown,"ax",@progbits
 229              		.p2align 4
 230              		.type	oslib_test_009_003_teardown, @function
 231              	oslib_test_009_003_teardown:
 232              	.LFB307:
 233              		.loc 1 329 47 is_stmt 1 view -0
 234              		.cfi_startproc
 235              		.loc 1 330 3 view .LVU37
 236              		.loc 1 332 3 view .LVU38
 237              		.loc 1 329 47 is_stmt 0 view .LVU39
 238 0000 56       		pushl	%esi
 239              		.cfi_def_cfa_offset 8
 240              		.cfi_offset 6, -8
 241 0001 53       		pushl	%ebx
 242              		.cfi_def_cfa_offset 12
 243              		.cfi_offset 3, -12
 244 0002 E8FCFFFF 		call	__x86.get_pc_thunk.bx
 244      FF
 245 0007 81C30200 		addl	$_GLOBAL_OFFSET_TABLE_, %ebx
 245      0000
 246 000d 83EC10   		subl	$16, %esp
 247              		.cfi_def_cfa_offset 28
 248              		.loc 1 332 9 view .LVU40
 249 0010 8D830000 		leal	.LC3@GOTOFF(%ebx), %eax
 249      0000
 250 0016 50       		pushl	%eax
 251              		.cfi_def_cfa_offset 32
 252 0017 E8FCFFFF 		call	chFactoryFindSemaphore@PLT
 252      FF
 253              	.LVL12:
 254              		.loc 1 333 3 is_stmt 1 view .LVU41
 255              		.loc 1 333 6 is_stmt 0 view .LVU42
 256 001c 83C410   		addl	$16, %esp
 257              		.cfi_def_cfa_offset 16
 258 001f 85C0     		testl	%eax, %eax
 259 0021 7420     		je	.L26
 260              		.loc 1 334 30 view .LVU43
 261 0023 8B5004   		movl	4(%eax), %edx
 262 0026 89C6     		movl	%eax, %esi
GAS LISTING /tmp/ccwdkvlB.s 			page 6


 263              		.loc 1 334 30 is_stmt 1 view .LVU44
 264 0028 85D2     		testl	%edx, %edx
 265 002a 7417     		je	.L26
 266              	.LVL13:
 267 002c 8D742600 		.p2align 4,,10
 268              		.p2align 3
 269              	.L28:
 270              		.loc 1 335 7 view .LVU45
 271 0030 83EC0C   		subl	$12, %esp
 272              		.cfi_def_cfa_offset 28
 273 0033 56       		pushl	%esi
 274              		.cfi_def_cfa_offset 32
 275 0034 E8FCFFFF 		call	chFactoryReleaseSemaphore@PLT
 275      FF
 276              	.LVL14:
 277              		.loc 1 334 30 view .LVU46
 278 0039 8B4604   		movl	4(%esi), %eax
 279 003c 83C410   		addl	$16, %esp
 280              		.cfi_def_cfa_offset 16
 281 003f 85C0     		testl	%eax, %eax
 282 0041 75ED     		jne	.L28
 283              	.LVL15:
 284              	.L26:
 285              		.loc 1 338 1 is_stmt 0 view .LVU47
 286 0043 83C404   		addl	$4, %esp
 287              		.cfi_def_cfa_offset 12
 288 0046 5B       		popl	%ebx
 289              		.cfi_restore 3
 290              		.cfi_def_cfa_offset 8
 291 0047 5E       		popl	%esi
 292              		.cfi_restore 6
 293              		.cfi_def_cfa_offset 4
 294 0048 C3       		ret
 295              		.cfi_endproc
 296              	.LFE307:
 297              		.size	oslib_test_009_003_teardown, .-oslib_test_009_003_teardown
 298              		.section	.rodata.oslib_test_009_002_teardown.str1.1,"aMS",@progbits,1
 299              	.LC4:
 300 0000 6D796275 		.string	"mybuf"
 300      6600
 301              		.section	.text.oslib_test_009_002_teardown,"ax",@progbits
 302              		.p2align 4
 303              		.type	oslib_test_009_002_teardown, @function
 304              	oslib_test_009_002_teardown:
 305              	.LFB305:
 306              		.loc 1 209 47 is_stmt 1 view -0
 307              		.cfi_startproc
 308              		.loc 1 210 3 view .LVU49
 309              		.loc 1 212 3 view .LVU50
 310              		.loc 1 209 47 is_stmt 0 view .LVU51
 311 0000 56       		pushl	%esi
 312              		.cfi_def_cfa_offset 8
 313              		.cfi_offset 6, -8
 314 0001 53       		pushl	%ebx
 315              		.cfi_def_cfa_offset 12
 316              		.cfi_offset 3, -12
 317 0002 E8FCFFFF 		call	__x86.get_pc_thunk.bx
GAS LISTING /tmp/ccwdkvlB.s 			page 7


 317      FF
 318 0007 81C30200 		addl	$_GLOBAL_OFFSET_TABLE_, %ebx
 318      0000
 319 000d 83EC10   		subl	$16, %esp
 320              		.cfi_def_cfa_offset 28
 321              		.loc 1 212 9 view .LVU52
 322 0010 8D830000 		leal	.LC4@GOTOFF(%ebx), %eax
 322      0000
 323 0016 50       		pushl	%eax
 324              		.cfi_def_cfa_offset 32
 325 0017 E8FCFFFF 		call	chFactoryFindBuffer@PLT
 325      FF
 326              	.LVL16:
 327              		.loc 1 213 3 is_stmt 1 view .LVU53
 328              		.loc 1 213 6 is_stmt 0 view .LVU54
 329 001c 83C410   		addl	$16, %esp
 330              		.cfi_def_cfa_offset 16
 331 001f 85C0     		testl	%eax, %eax
 332 0021 7420     		je	.L34
 333              		.loc 1 214 30 view .LVU55
 334 0023 8B5004   		movl	4(%eax), %edx
 335 0026 89C6     		movl	%eax, %esi
 336              		.loc 1 214 30 is_stmt 1 view .LVU56
 337 0028 85D2     		testl	%edx, %edx
 338 002a 7417     		je	.L34
 339              	.LVL17:
 340 002c 8D742600 		.p2align 4,,10
 341              		.p2align 3
 342              	.L36:
 343              		.loc 1 215 7 view .LVU57
 344 0030 83EC0C   		subl	$12, %esp
 345              		.cfi_def_cfa_offset 28
 346 0033 56       		pushl	%esi
 347              		.cfi_def_cfa_offset 32
 348 0034 E8FCFFFF 		call	chFactoryReleaseBuffer@PLT
 348      FF
 349              	.LVL18:
 350              		.loc 1 214 30 view .LVU58
 351 0039 8B4604   		movl	4(%esi), %eax
 352 003c 83C410   		addl	$16, %esp
 353              		.cfi_def_cfa_offset 16
 354 003f 85C0     		testl	%eax, %eax
 355 0041 75ED     		jne	.L36
 356              	.LVL19:
 357              	.L34:
 358              		.loc 1 218 1 is_stmt 0 view .LVU59
 359 0043 83C404   		addl	$4, %esp
 360              		.cfi_def_cfa_offset 12
 361 0046 5B       		popl	%ebx
 362              		.cfi_restore 3
 363              		.cfi_def_cfa_offset 8
 364 0047 5E       		popl	%esi
 365              		.cfi_restore 6
 366              		.cfi_def_cfa_offset 4
 367 0048 C3       		ret
 368              		.cfi_endproc
 369              	.LFE305:
GAS LISTING /tmp/ccwdkvlB.s 			page 8


 370              		.size	oslib_test_009_002_teardown, .-oslib_test_009_002_teardown
 371              		.section	.rodata.oslib_test_009_001_teardown.str1.1,"aMS",@progbits,1
 372              	.LC5:
 373 0000 6D796F62 		.string	"myobj"
 373      6A00
 374              		.section	.text.oslib_test_009_001_teardown,"ax",@progbits
 375              		.p2align 4
 376              		.type	oslib_test_009_001_teardown, @function
 377              	oslib_test_009_001_teardown:
 378              	.LFB303:
 379              		.loc 1 86 47 is_stmt 1 view -0
 380              		.cfi_startproc
 381              		.loc 1 87 3 view .LVU61
 382              		.loc 1 89 3 view .LVU62
 383              		.loc 1 86 47 is_stmt 0 view .LVU63
 384 0000 56       		pushl	%esi
 385              		.cfi_def_cfa_offset 8
 386              		.cfi_offset 6, -8
 387 0001 53       		pushl	%ebx
 388              		.cfi_def_cfa_offset 12
 389              		.cfi_offset 3, -12
 390 0002 E8FCFFFF 		call	__x86.get_pc_thunk.bx
 390      FF
 391 0007 81C30200 		addl	$_GLOBAL_OFFSET_TABLE_, %ebx
 391      0000
 392 000d 83EC10   		subl	$16, %esp
 393              		.cfi_def_cfa_offset 28
 394              		.loc 1 89 9 view .LVU64
 395 0010 8D830000 		leal	.LC5@GOTOFF(%ebx), %eax
 395      0000
 396 0016 50       		pushl	%eax
 397              		.cfi_def_cfa_offset 32
 398 0017 E8FCFFFF 		call	chFactoryFindObject@PLT
 398      FF
 399              	.LVL20:
 400              		.loc 1 90 3 is_stmt 1 view .LVU65
 401              		.loc 1 90 6 is_stmt 0 view .LVU66
 402 001c 83C410   		addl	$16, %esp
 403              		.cfi_def_cfa_offset 16
 404 001f 85C0     		testl	%eax, %eax
 405 0021 7420     		je	.L42
 406              		.loc 1 91 30 view .LVU67
 407 0023 8B5004   		movl	4(%eax), %edx
 408 0026 89C6     		movl	%eax, %esi
 409              		.loc 1 91 30 is_stmt 1 view .LVU68
 410 0028 85D2     		testl	%edx, %edx
 411 002a 7417     		je	.L42
 412              	.LVL21:
 413 002c 8D742600 		.p2align 4,,10
 414              		.p2align 3
 415              	.L44:
 416              		.loc 1 92 7 view .LVU69
 417 0030 83EC0C   		subl	$12, %esp
 418              		.cfi_def_cfa_offset 28
 419 0033 56       		pushl	%esi
 420              		.cfi_def_cfa_offset 32
 421 0034 E8FCFFFF 		call	chFactoryReleaseObject@PLT
GAS LISTING /tmp/ccwdkvlB.s 			page 9


 421      FF
 422              	.LVL22:
 423              		.loc 1 91 30 view .LVU70
 424 0039 8B4604   		movl	4(%esi), %eax
 425 003c 83C410   		addl	$16, %esp
 426              		.cfi_def_cfa_offset 16
 427 003f 85C0     		testl	%eax, %eax
 428 0041 75ED     		jne	.L44
 429              	.LVL23:
 430              	.L42:
 431              		.loc 1 95 1 is_stmt 0 view .LVU71
 432 0043 83C404   		addl	$4, %esp
 433              		.cfi_def_cfa_offset 12
 434 0046 5B       		popl	%ebx
 435              		.cfi_restore 3
 436              		.cfi_def_cfa_offset 8
 437 0047 5E       		popl	%esi
 438              		.cfi_restore 6
 439              		.cfi_def_cfa_offset 4
 440 0048 C3       		ret
 441              		.cfi_endproc
 442              	.LFE303:
 443              		.size	oslib_test_009_001_teardown, .-oslib_test_009_001_teardown
 444              		.section	.rodata.oslib_test_009_006_execute.str1.1,"aMS",@progbits,1
 445              	.LC6:
 446 0000 666F756E 		.string	"found"
 446      6400
 447              	.LC7:
 448 0006 63616E6E 		.string	"cannot create"
 448      6F742063 
 448      72656174 
 448      6500
 449              	.LC8:
 450 0014 63616E20 		.string	"can create"
 450      63726561 
 450      746500
 451              	.LC9:
 452 001f 6E6F7420 		.string	"not found"
 452      666F756E 
 452      6400
 453              	.LC10:
 454 0029 6F626A65 		.string	"object reference mismatch"
 454      63742072 
 454      65666572 
 454      656E6365 
 454      206D6973 
 455              	.LC11:
 456 0043 72656665 		.string	"references mismatch"
 456      72656E63 
 456      6573206D 
 456      69736D61 
 456      74636800 
 457              		.section	.text.oslib_test_009_006_execute,"ax",@progbits
 458              		.p2align 4
 459              		.type	oslib_test_009_006_execute, @function
 460              	oslib_test_009_006_execute:
 461              	.LFB314:
GAS LISTING /tmp/ccwdkvlB.s 			page 10


 462              		.loc 1 700 46 is_stmt 1 view -0
 463              		.cfi_startproc
 464              		.loc 1 701 3 view .LVU73
 465              		.loc 1 704 3 view .LVU74
 466              		.loc 1 700 46 is_stmt 0 view .LVU75
 467 0000 55       		pushl	%ebp
 468              		.cfi_def_cfa_offset 8
 469              		.cfi_offset 5, -8
 470 0001 57       		pushl	%edi
 471              		.cfi_def_cfa_offset 12
 472              		.cfi_offset 7, -12
 473 0002 56       		pushl	%esi
 474              		.cfi_def_cfa_offset 16
 475              		.cfi_offset 6, -16
 476 0003 53       		pushl	%ebx
 477              		.cfi_def_cfa_offset 20
 478              		.cfi_offset 3, -20
 479 0004 E8FCFFFF 		call	__x86.get_pc_thunk.bx
 479      FF
 480 0009 81C30200 		addl	$_GLOBAL_OFFSET_TABLE_, %ebx
 480      0000
 481 000f 83EC28   		subl	$40, %esp
 482              		.cfi_def_cfa_offset 60
 483              		.loc 1 706 11 view .LVU76
 484 0012 8DBB0000 		leal	.LC0@GOTOFF(%ebx), %edi
 484      0000
 485              		.loc 1 704 3 view .LVU77
 486 0018 8BB30000 		movl	chtest@GOT(%ebx), %esi
 486      0000
 487              		.loc 1 706 11 view .LVU78
 488 001e 57       		pushl	%edi
 489              		.cfi_def_cfa_offset 64
 490              		.loc 1 704 3 view .LVU79
 491 001f C7060100 		movl	$1, (%esi)
 491      0000
 492              		.loc 1 706 5 is_stmt 1 view .LVU80
 493              		.loc 1 706 11 is_stmt 0 view .LVU81
 494 0025 E8FCFFFF 		call	chFactoryFindPipe@PLT
 494      FF
 495              	.LVL24:
 496              		.loc 1 707 5 is_stmt 1 view .LVU82
 497 002a 59       		popl	%ecx
 498              		.cfi_def_cfa_offset 60
 499 002b 5D       		popl	%ebp
 500              		.cfi_def_cfa_offset 56
 501 002c 8DAB0000 		leal	.LC6@GOTOFF(%ebx), %ebp
 501      0000
 502 0032 85C0     		testl	%eax, %eax
 503 0034 55       		pushl	%ebp
 504              		.cfi_def_cfa_offset 60
 505 0035 0F94C0   		sete	%al
 506              	.LVL25:
 507              		.loc 1 707 5 is_stmt 0 view .LVU83
 508 0038 0FB6C0   		movzbl	%al, %eax
 509 003b 50       		pushl	%eax
 510              		.cfi_def_cfa_offset 64
 511 003c E8FCFFFF 		call	__test_assert@PLT
GAS LISTING /tmp/ccwdkvlB.s 			page 11


 511      FF
 512              	.LVL26:
 513 0041 83C410   		addl	$16, %esp
 514              		.cfi_def_cfa_offset 48
 515 0044 84C0     		testb	%al, %al
 516 0046 7408     		je	.L55
 517              	.L50:
 518              		.loc 1 770 1 view .LVU84
 519 0048 83C41C   		addl	$28, %esp
 520              		.cfi_remember_state
 521              		.cfi_def_cfa_offset 20
 522 004b 5B       		popl	%ebx
 523              		.cfi_restore 3
 524              		.cfi_def_cfa_offset 16
 525 004c 5E       		popl	%esi
 526              		.cfi_restore 6
 527              		.cfi_def_cfa_offset 12
 528 004d 5F       		popl	%edi
 529              		.cfi_restore 7
 530              		.cfi_def_cfa_offset 8
 531 004e 5D       		popl	%ebp
 532              		.cfi_restore 5
 533              		.cfi_def_cfa_offset 4
 534 004f C3       		ret
 535              		.p2align 4,,10
 536              		.p2align 3
 537              	.L55:
 538              		.cfi_restore_state
 539              	.LBB58:
 540              	.LBI58:
 541              		.loc 1 700 13 is_stmt 1 view .LVU85
 542              	.LBB59:
 543              		.loc 1 707 38 view .LVU86
 544              		.loc 1 709 3 view .LVU87
 545              		.loc 1 709 19 view .LVU88
 546              		.loc 1 713 3 view .LVU89
 547              		.loc 1 715 11 is_stmt 0 view .LVU90
 548 0050 83EC08   		subl	$8, %esp
 549              		.cfi_def_cfa_offset 56
 550              		.loc 1 713 3 view .LVU91
 551 0053 C7060200 		movl	$2, (%esi)
 551      0000
 552              		.loc 1 715 5 is_stmt 1 view .LVU92
 553              		.loc 1 715 11 is_stmt 0 view .LVU93
 554 0059 6A10     		pushl	$16
 555              		.cfi_def_cfa_offset 60
 556 005b 57       		pushl	%edi
 557              		.cfi_def_cfa_offset 64
 558 005c E8FCFFFF 		call	chFactoryCreatePipe@PLT
 558      FF
 559              	.LVL27:
 560 0061 89C1     		movl	%eax, %ecx
 561              	.LVL28:
 562              		.loc 1 716 5 is_stmt 1 view .LVU94
 563 0063 58       		popl	%eax
 564              		.cfi_def_cfa_offset 60
 565              	.LVL29:
GAS LISTING /tmp/ccwdkvlB.s 			page 12


 566              		.loc 1 716 5 is_stmt 0 view .LVU95
 567 0064 8D830000 		leal	.LC7@GOTOFF(%ebx), %eax
 567      0000
 568 006a 5A       		popl	%edx
 569              		.cfi_def_cfa_offset 56
 570 006b 85C9     		testl	%ecx, %ecx
 571 006d 50       		pushl	%eax
 572              		.cfi_def_cfa_offset 60
 573 006e 0F95C0   		setne	%al
 574 0071 0FB6C0   		movzbl	%al, %eax
 575 0074 894C2410 		movl	%ecx, 16(%esp)
 576 0078 50       		pushl	%eax
 577              		.cfi_def_cfa_offset 64
 578 0079 E8FCFFFF 		call	__test_assert@PLT
 578      FF
 579              	.LVL30:
 580              		.loc 1 716 5 view .LVU96
 581 007e 83C410   		addl	$16, %esp
 582              		.cfi_def_cfa_offset 48
 583 0081 84C0     		testb	%al, %al
 584 0083 75C3     		jne	.L50
 585              		.loc 1 716 46 is_stmt 1 view .LVU97
 586              		.loc 1 718 3 view .LVU98
 587              		.loc 1 718 19 view .LVU99
 588              		.loc 1 721 3 view .LVU100
 589              	.LBB60:
 590              		.loc 1 725 12 is_stmt 0 view .LVU101
 591 0085 83EC08   		subl	$8, %esp
 592              		.cfi_def_cfa_offset 56
 593              	.LBE60:
 594              		.loc 1 721 3 view .LVU102
 595 0088 C7060300 		movl	$3, (%esi)
 595      0000
 596              	.LBB61:
 597              		.loc 1 723 5 is_stmt 1 view .LVU103
 598              		.loc 1 725 5 view .LVU104
 599              		.loc 1 725 12 is_stmt 0 view .LVU105
 600 008e 6A10     		pushl	$16
 601              		.cfi_def_cfa_offset 60
 602 0090 57       		pushl	%edi
 603              		.cfi_def_cfa_offset 64
 604 0091 E8FCFFFF 		call	chFactoryCreatePipe@PLT
 604      FF
 605              	.LVL31:
 606              		.loc 1 726 5 is_stmt 1 view .LVU106
 607 0096 5A       		popl	%edx
 608              		.cfi_def_cfa_offset 60
 609 0097 8D930000 		leal	.LC8@GOTOFF(%ebx), %edx
 609      0000
 610 009d 59       		popl	%ecx
 611              		.cfi_def_cfa_offset 56
 612 009e 85C0     		testl	%eax, %eax
 613 00a0 52       		pushl	%edx
 614              		.cfi_def_cfa_offset 60
 615 00a1 0F94C0   		sete	%al
 616              	.LVL32:
 617              		.loc 1 726 5 is_stmt 0 view .LVU107
GAS LISTING /tmp/ccwdkvlB.s 			page 13


 618 00a4 0FB6C0   		movzbl	%al, %eax
 619 00a7 50       		pushl	%eax
 620              		.cfi_def_cfa_offset 64
 621 00a8 E8FCFFFF 		call	__test_assert@PLT
 621      FF
 622              	.LVL33:
 623 00ad 83C410   		addl	$16, %esp
 624              		.cfi_def_cfa_offset 48
 625 00b0 84C0     		testb	%al, %al
 626 00b2 7594     		jne	.L50
 627              		.loc 1 726 44 is_stmt 1 view .LVU108
 628              	.LBE61:
 629              		.loc 1 728 3 view .LVU109
 630              		.loc 1 728 19 view .LVU110
 631              		.loc 1 733 3 view .LVU111
 632              	.LBB62:
 633              		.loc 1 737 12 is_stmt 0 view .LVU112
 634 00b4 83EC0C   		subl	$12, %esp
 635              		.cfi_def_cfa_offset 60
 636              	.LBE62:
 637              		.loc 1 733 3 view .LVU113
 638 00b7 C7060400 		movl	$4, (%esi)
 638      0000
 639              	.LBB67:
 640              		.loc 1 735 5 is_stmt 1 view .LVU114
 641              		.loc 1 737 5 view .LVU115
 642              		.loc 1 737 12 is_stmt 0 view .LVU116
 643 00bd 57       		pushl	%edi
 644              		.cfi_def_cfa_offset 64
 645 00be E8FCFFFF 		call	chFactoryFindPipe@PLT
 645      FF
 646              	.LVL34:
 647 00c3 89C2     		movl	%eax, %edx
 648              	.LVL35:
 649              		.loc 1 738 5 is_stmt 1 view .LVU117
 650 00c5 58       		popl	%eax
 651              		.cfi_def_cfa_offset 60
 652              	.LVL36:
 653              		.loc 1 738 5 is_stmt 0 view .LVU118
 654 00c6 8D830000 		leal	.LC9@GOTOFF(%ebx), %eax
 654      0000
 655 00cc 59       		popl	%ecx
 656              		.cfi_def_cfa_offset 56
 657 00cd 50       		pushl	%eax
 658              		.cfi_def_cfa_offset 60
 659 00ce 31C0     		xorl	%eax, %eax
 660 00d0 85D2     		testl	%edx, %edx
 661 00d2 0F95C0   		setne	%al
 662 00d5 89542414 		movl	%edx, 20(%esp)
 663 00d9 50       		pushl	%eax
 664              		.cfi_def_cfa_offset 64
 665 00da E8FCFFFF 		call	__test_assert@PLT
 665      FF
 666              	.LVL37:
 667              		.loc 1 738 5 view .LVU119
 668 00df 83C410   		addl	$16, %esp
 669              		.cfi_def_cfa_offset 48
GAS LISTING /tmp/ccwdkvlB.s 			page 14


 670 00e2 84C0     		testb	%al, %al
 671 00e4 0F855EFF 		jne	.L50
 671      FFFF
 672              		.loc 1 738 43 is_stmt 1 view .LVU120
 673              		.loc 1 739 5 view .LVU121
 674 00ea 83EC08   		subl	$8, %esp
 675              		.cfi_def_cfa_offset 56
 676 00ed 8D930000 		leal	.LC10@GOTOFF(%ebx), %edx
 676      0000
 677 00f3 31C0     		xorl	%eax, %eax
 678 00f5 89542414 		movl	%edx, 20(%esp)
 679 00f9 52       		pushl	%edx
 680              		.cfi_def_cfa_offset 60
 681 00fa 8B542414 		movl	20(%esp), %edx
 682 00fe 39542410 		cmpl	%edx, 16(%esp)
 683 0102 0F94C0   		sete	%al
 684 0105 50       		pushl	%eax
 685              		.cfi_def_cfa_offset 64
 686 0106 E8FCFFFF 		call	__test_assert@PLT
 686      FF
 687              	.LVL38:
 688 010b 83C410   		addl	$16, %esp
 689              		.cfi_def_cfa_offset 48
 690 010e 84C0     		testb	%al, %al
 691 0110 0F8532FF 		jne	.L50
 691      FFFF
 692              		.loc 1 739 58 view .LVU122
 693              		.loc 1 740 5 view .LVU123
 694 0116 83EC08   		subl	$8, %esp
 695              		.cfi_def_cfa_offset 56
 696 0119 31C0     		xorl	%eax, %eax
 697 011b FF742414 		pushl	20(%esp)
 698              		.cfi_def_cfa_offset 60
 699 011f 8B542414 		movl	20(%esp), %edx
 700 0123 837A0402 		cmpl	$2, 4(%edx)
 701 0127 0F94C0   		sete	%al
 702 012a 50       		pushl	%eax
 703              		.cfi_def_cfa_offset 64
 704 012b E8FCFFFF 		call	__test_assert@PLT
 704      FF
 705              	.LVL39:
 706 0130 83C410   		addl	$16, %esp
 707              		.cfi_def_cfa_offset 48
 708 0133 84C0     		testb	%al, %al
 709 0135 0F850DFF 		jne	.L50
 709      FFFF
 710              		.loc 1 740 70 view .LVU124
 711              		.loc 1 742 5 view .LVU125
 712              	.LVL40:
 713              	.LBB63:
 714              	.LBI63:
 715              		.file 2 "../../../os/oslib/include/chfactory.h"
 716              		.loc 2 409 30 view .LVU126
 717              	.LBB64:
 718              		.loc 2 411 3 view .LVU127
 719              		.loc 2 411 12 is_stmt 0 view .LVU128
 720 013b 8B542408 		movl	8(%esp), %edx
GAS LISTING /tmp/ccwdkvlB.s 			page 15


 721              	.LBE64:
 722              	.LBE63:
 723              		.loc 1 743 5 view .LVU129
 724 013f 83EC08   		subl	$8, %esp
 725              		.cfi_def_cfa_offset 56
 726              	.LBB66:
 727              	.LBB65:
 728              		.loc 2 411 12 view .LVU130
 729 0142 83420401 		addl	$1, 4(%edx)
 730              		.loc 2 413 3 is_stmt 1 view .LVU131
 731              	.LVL41:
 732              		.loc 2 413 3 is_stmt 0 view .LVU132
 733              	.LBE65:
 734              	.LBE66:
 735              		.loc 1 743 5 is_stmt 1 view .LVU133
 736 0146 FF742414 		pushl	20(%esp)
 737              		.cfi_def_cfa_offset 60
 738 014a 6A01     		pushl	$1
 739              		.cfi_def_cfa_offset 64
 740 014c E8FCFFFF 		call	__test_assert@PLT
 740      FF
 741              	.LVL42:
 742 0151 83C410   		addl	$16, %esp
 743              		.cfi_def_cfa_offset 48
 744 0154 84C0     		testb	%al, %al
 745 0156 0F85ECFE 		jne	.L50
 745      FFFF
 746              		.loc 1 743 59 view .LVU134
 747              		.loc 1 744 5 view .LVU135
 748 015c 83EC08   		subl	$8, %esp
 749              		.cfi_def_cfa_offset 56
 750 015f 31C0     		xorl	%eax, %eax
 751 0161 FF742414 		pushl	20(%esp)
 752              		.cfi_def_cfa_offset 60
 753 0165 8B542414 		movl	20(%esp), %edx
 754 0169 837A0403 		cmpl	$3, 4(%edx)
 755 016d 0F94C0   		sete	%al
 756 0170 50       		pushl	%eax
 757              		.cfi_def_cfa_offset 64
 758 0171 E8FCFFFF 		call	__test_assert@PLT
 758      FF
 759              	.LVL43:
 760 0176 83C410   		addl	$16, %esp
 761              		.cfi_def_cfa_offset 48
 762 0179 84C0     		testb	%al, %al
 763 017b 0F85C7FE 		jne	.L50
 763      FFFF
 764              		.loc 1 744 70 view .LVU136
 765              		.loc 1 746 5 view .LVU137
 766 0181 83EC0C   		subl	$12, %esp
 767              		.cfi_def_cfa_offset 60
 768 0184 FF742414 		pushl	20(%esp)
 769              		.cfi_def_cfa_offset 64
 770 0188 E8FCFFFF 		call	chFactoryReleasePipe@PLT
 770      FF
 771              	.LVL44:
 772              		.loc 1 747 5 view .LVU138
GAS LISTING /tmp/ccwdkvlB.s 			page 16


 773 018d 59       		popl	%ecx
 774              		.cfi_def_cfa_offset 60
 775 018e 8D930000 		leal	.LC11@GOTOFF(%ebx), %edx
 775      0000
 776 0194 58       		popl	%eax
 777              		.cfi_def_cfa_offset 56
 778 0195 89542414 		movl	%edx, 20(%esp)
 779 0199 31C0     		xorl	%eax, %eax
 780 019b 52       		pushl	%edx
 781              		.cfi_def_cfa_offset 60
 782 019c 8B542414 		movl	20(%esp), %edx
 783 01a0 837A0402 		cmpl	$2, 4(%edx)
 784 01a4 0F94C0   		sete	%al
 785 01a7 50       		pushl	%eax
 786              		.cfi_def_cfa_offset 64
 787 01a8 E8FCFFFF 		call	__test_assert@PLT
 787      FF
 788              	.LVL45:
 789 01ad 83C410   		addl	$16, %esp
 790              		.cfi_def_cfa_offset 48
 791 01b0 84C0     		testb	%al, %al
 792 01b2 0F8590FE 		jne	.L50
 792      FFFF
 793              		.loc 1 747 64 view .LVU139
 794              		.loc 1 749 5 view .LVU140
 795 01b8 83EC0C   		subl	$12, %esp
 796              		.cfi_def_cfa_offset 60
 797 01bb FF742414 		pushl	20(%esp)
 798              		.cfi_def_cfa_offset 64
 799 01bf E8FCFFFF 		call	chFactoryReleasePipe@PLT
 799      FF
 800              	.LVL46:
 801              		.loc 1 750 5 view .LVU141
 802 01c4 58       		popl	%eax
 803              		.cfi_def_cfa_offset 60
 804 01c5 5A       		popl	%edx
 805              		.cfi_def_cfa_offset 56
 806 01c6 FF742414 		pushl	20(%esp)
 807              		.cfi_def_cfa_offset 60
 808 01ca 8B442410 		movl	16(%esp), %eax
 809 01ce 83780401 		cmpl	$1, 4(%eax)
 810 01d2 0F94C0   		sete	%al
 811 01d5 0FB6C0   		movzbl	%al, %eax
 812 01d8 50       		pushl	%eax
 813              		.cfi_def_cfa_offset 64
 814 01d9 E8FCFFFF 		call	__test_assert@PLT
 814      FF
 815              	.LVL47:
 816 01de 83C410   		addl	$16, %esp
 817              		.cfi_def_cfa_offset 48
 818 01e1 84C0     		testb	%al, %al
 819 01e3 0F855FFE 		jne	.L50
 819      FFFF
 820              		.loc 1 750 63 view .LVU142
 821              	.LBE67:
 822              		.loc 1 752 3 view .LVU143
 823              		.loc 1 752 19 view .LVU144
GAS LISTING /tmp/ccwdkvlB.s 			page 17


 824              		.loc 1 756 3 view .LVU145
 825              		.loc 1 758 5 is_stmt 0 view .LVU146
 826 01e9 83EC0C   		subl	$12, %esp
 827              		.cfi_def_cfa_offset 60
 828              		.loc 1 756 3 view .LVU147
 829 01ec C7060500 		movl	$5, (%esi)
 829      0000
 830              		.loc 1 758 5 is_stmt 1 view .LVU148
 831 01f2 FF742410 		pushl	16(%esp)
 832              		.cfi_def_cfa_offset 64
 833 01f6 E8FCFFFF 		call	chFactoryReleasePipe@PLT
 833      FF
 834              	.LVL48:
 835              		.loc 1 760 3 view .LVU149
 836              		.loc 1 760 19 view .LVU150
 837              		.loc 1 764 3 view .LVU151
 838              		.loc 1 766 11 is_stmt 0 view .LVU152
 839 01fb 893C24   		movl	%edi, (%esp)
 840              		.loc 1 764 3 view .LVU153
 841 01fe C7060600 		movl	$6, (%esi)
 841      0000
 842              		.loc 1 766 5 is_stmt 1 view .LVU154
 843              		.loc 1 766 11 is_stmt 0 view .LVU155
 844 0204 E8FCFFFF 		call	chFactoryFindPipe@PLT
 844      FF
 845              	.LVL49:
 846              		.loc 1 767 5 is_stmt 1 view .LVU156
 847 0209 5A       		popl	%edx
 848              		.cfi_def_cfa_offset 60
 849 020a 59       		popl	%ecx
 850              		.cfi_def_cfa_offset 56
 851 020b 55       		pushl	%ebp
 852              		.cfi_def_cfa_offset 60
 853 020c 85C0     		testl	%eax, %eax
 854 020e 0F94C0   		sete	%al
 855              	.LVL50:
 856              		.loc 1 767 5 is_stmt 0 view .LVU157
 857 0211 0FB6C0   		movzbl	%al, %eax
 858 0214 50       		pushl	%eax
 859              		.cfi_def_cfa_offset 64
 860 0215 E8FCFFFF 		call	__test_assert@PLT
 860      FF
 861              	.LVL51:
 862 021a 83C410   		addl	$16, %esp
 863              		.cfi_def_cfa_offset 48
 864              	.LVL52:
 865              		.loc 1 767 5 view .LVU158
 866              	.LBE59:
 867              	.LBE58:
 868              		.loc 1 767 38 is_stmt 1 view .LVU159
 869              		.loc 1 769 3 view .LVU160
 870              		.loc 1 769 19 view .LVU161
 871              	.LBB69:
 872              	.LBB68:
 873 021d E926FEFF 		jmp	.L50
 873      FF
 874              	.LBE68:
GAS LISTING /tmp/ccwdkvlB.s 			page 18


 875              	.LBE69:
 876              		.cfi_endproc
 877              	.LFE314:
 878              		.size	oslib_test_009_006_execute, .-oslib_test_009_006_execute
 879              		.section	.text.oslib_test_009_005_execute,"ax",@progbits
 880              		.p2align 4
 881              		.type	oslib_test_009_005_execute, @function
 882              	oslib_test_009_005_execute:
 883              	.LFB312:
 884              		.loc 1 581 46 view -0
 885              		.cfi_startproc
 886              		.loc 1 582 3 view .LVU163
 887              		.loc 1 586 3 view .LVU164
 888              		.loc 1 581 46 is_stmt 0 view .LVU165
 889 0000 55       		pushl	%ebp
 890              		.cfi_def_cfa_offset 8
 891              		.cfi_offset 5, -8
 892 0001 57       		pushl	%edi
 893              		.cfi_def_cfa_offset 12
 894              		.cfi_offset 7, -12
 895 0002 56       		pushl	%esi
 896              		.cfi_def_cfa_offset 16
 897              		.cfi_offset 6, -16
 898 0003 53       		pushl	%ebx
 899              		.cfi_def_cfa_offset 20
 900              		.cfi_offset 3, -20
 901 0004 E8FCFFFF 		call	__x86.get_pc_thunk.bx
 901      FF
 902 0009 81C30200 		addl	$_GLOBAL_OFFSET_TABLE_, %ebx
 902      0000
 903 000f 83EC28   		subl	$40, %esp
 904              		.cfi_def_cfa_offset 60
 905              		.loc 1 588 12 view .LVU166
 906 0012 8DBB0000 		leal	.LC1@GOTOFF(%ebx), %edi
 906      0000
 907              		.loc 1 586 3 view .LVU167
 908 0018 8BB30000 		movl	chtest@GOT(%ebx), %esi
 908      0000
 909              		.loc 1 588 12 view .LVU168
 910 001e 57       		pushl	%edi
 911              		.cfi_def_cfa_offset 64
 912              		.loc 1 586 3 view .LVU169
 913 001f C7060100 		movl	$1, (%esi)
 913      0000
 914              		.loc 1 588 5 is_stmt 1 view .LVU170
 915              		.loc 1 588 12 is_stmt 0 view .LVU171
 916 0025 E8FCFFFF 		call	chFactoryFindObjectsFIFO@PLT
 916      FF
 917              	.LVL53:
 918              		.loc 1 589 5 is_stmt 1 view .LVU172
 919 002a 59       		popl	%ecx
 920              		.cfi_def_cfa_offset 60
 921 002b 5D       		popl	%ebp
 922              		.cfi_def_cfa_offset 56
 923 002c 8DAB0000 		leal	.LC6@GOTOFF(%ebx), %ebp
 923      0000
 924 0032 85C0     		testl	%eax, %eax
GAS LISTING /tmp/ccwdkvlB.s 			page 19


 925 0034 55       		pushl	%ebp
 926              		.cfi_def_cfa_offset 60
 927 0035 0F94C0   		sete	%al
 928              	.LVL54:
 929              		.loc 1 589 5 is_stmt 0 view .LVU173
 930 0038 0FB6C0   		movzbl	%al, %eax
 931 003b 50       		pushl	%eax
 932              		.cfi_def_cfa_offset 64
 933 003c E8FCFFFF 		call	__test_assert@PLT
 933      FF
 934              	.LVL55:
 935 0041 83C410   		addl	$16, %esp
 936              		.cfi_def_cfa_offset 48
 937 0044 84C0     		testb	%al, %al
 938 0046 7408     		je	.L61
 939              	.L56:
 940              		.loc 1 653 1 view .LVU174
 941 0048 83C41C   		addl	$28, %esp
 942              		.cfi_remember_state
 943              		.cfi_def_cfa_offset 20
 944 004b 5B       		popl	%ebx
 945              		.cfi_restore 3
 946              		.cfi_def_cfa_offset 16
 947 004c 5E       		popl	%esi
 948              		.cfi_restore 6
 949              		.cfi_def_cfa_offset 12
 950 004d 5F       		popl	%edi
 951              		.cfi_restore 7
 952              		.cfi_def_cfa_offset 8
 953 004e 5D       		popl	%ebp
 954              		.cfi_restore 5
 955              		.cfi_def_cfa_offset 4
 956 004f C3       		ret
 957              		.p2align 4,,10
 958              		.p2align 3
 959              	.L61:
 960              		.cfi_restore_state
 961              	.LBB76:
 962              	.LBI76:
 963              		.loc 1 581 13 is_stmt 1 view .LVU175
 964              	.LBB77:
 965              		.loc 1 589 39 view .LVU176
 966              		.loc 1 591 3 view .LVU177
 967              		.loc 1 591 19 view .LVU178
 968              		.loc 1 595 3 view .LVU179
 969              		.loc 1 597 12 is_stmt 0 view .LVU180
 970 0050 6A04     		pushl	$4
 971              		.cfi_def_cfa_offset 52
 972 0052 6A10     		pushl	$16
 973              		.cfi_def_cfa_offset 56
 974 0054 6A10     		pushl	$16
 975              		.cfi_def_cfa_offset 60
 976 0056 57       		pushl	%edi
 977              		.cfi_def_cfa_offset 64
 978              		.loc 1 595 3 view .LVU181
 979 0057 C7060200 		movl	$2, (%esi)
 979      0000
GAS LISTING /tmp/ccwdkvlB.s 			page 20


 980              		.loc 1 597 5 is_stmt 1 view .LVU182
 981              		.loc 1 597 12 is_stmt 0 view .LVU183
 982 005d E8FCFFFF 		call	chFactoryCreateObjectsFIFO@PLT
 982      FF
 983              	.LVL56:
 984 0062 89C1     		movl	%eax, %ecx
 985              	.LVL57:
 986              		.loc 1 598 5 is_stmt 1 view .LVU184
 987 0064 58       		popl	%eax
 988              		.cfi_def_cfa_offset 60
 989              	.LVL58:
 990              		.loc 1 598 5 is_stmt 0 view .LVU185
 991 0065 8D830000 		leal	.LC7@GOTOFF(%ebx), %eax
 991      0000
 992 006b 5A       		popl	%edx
 993              		.cfi_def_cfa_offset 56
 994 006c 85C9     		testl	%ecx, %ecx
 995 006e 50       		pushl	%eax
 996              		.cfi_def_cfa_offset 60
 997 006f 0F95C0   		setne	%al
 998 0072 0FB6C0   		movzbl	%al, %eax
 999 0075 894C2410 		movl	%ecx, 16(%esp)
 1000 0079 50       		pushl	%eax
 1001              		.cfi_def_cfa_offset 64
 1002 007a E8FCFFFF 		call	__test_assert@PLT
 1002      FF
 1003              	.LVL59:
 1004              		.loc 1 598 5 view .LVU186
 1005 007f 83C410   		addl	$16, %esp
 1006              		.cfi_def_cfa_offset 48
 1007 0082 84C0     		testb	%al, %al
 1008 0084 75C2     		jne	.L56
 1009              		.loc 1 598 47 is_stmt 1 view .LVU187
 1010              		.loc 1 600 3 view .LVU188
 1011              		.loc 1 600 19 view .LVU189
 1012              		.loc 1 604 3 view .LVU190
 1013              	.LBB78:
 1014              		.loc 1 608 13 is_stmt 0 view .LVU191
 1015 0086 6A04     		pushl	$4
 1016              		.cfi_def_cfa_offset 52
 1017 0088 6A10     		pushl	$16
 1018              		.cfi_def_cfa_offset 56
 1019 008a 6A10     		pushl	$16
 1020              		.cfi_def_cfa_offset 60
 1021 008c 57       		pushl	%edi
 1022              		.cfi_def_cfa_offset 64
 1023              	.LBE78:
 1024              		.loc 1 604 3 view .LVU192
 1025 008d C7060300 		movl	$3, (%esi)
 1025      0000
 1026              	.LBB79:
 1027              		.loc 1 606 5 is_stmt 1 view .LVU193
 1028              		.loc 1 608 5 view .LVU194
 1029              		.loc 1 608 13 is_stmt 0 view .LVU195
 1030 0093 E8FCFFFF 		call	chFactoryCreateObjectsFIFO@PLT
 1030      FF
 1031              	.LVL60:
GAS LISTING /tmp/ccwdkvlB.s 			page 21


 1032              		.loc 1 609 5 is_stmt 1 view .LVU196
 1033 0098 5A       		popl	%edx
 1034              		.cfi_def_cfa_offset 60
 1035 0099 8D930000 		leal	.LC8@GOTOFF(%ebx), %edx
 1035      0000
 1036 009f 59       		popl	%ecx
 1037              		.cfi_def_cfa_offset 56
 1038 00a0 85C0     		testl	%eax, %eax
 1039 00a2 52       		pushl	%edx
 1040              		.cfi_def_cfa_offset 60
 1041 00a3 0F94C0   		sete	%al
 1042              	.LVL61:
 1043              		.loc 1 609 5 is_stmt 0 view .LVU197
 1044 00a6 0FB6C0   		movzbl	%al, %eax
 1045 00a9 50       		pushl	%eax
 1046              		.cfi_def_cfa_offset 64
 1047 00aa E8FCFFFF 		call	__test_assert@PLT
 1047      FF
 1048              	.LVL62:
 1049 00af 83C410   		addl	$16, %esp
 1050              		.cfi_def_cfa_offset 48
 1051 00b2 84C0     		testb	%al, %al
 1052 00b4 7592     		jne	.L56
 1053              		.loc 1 609 45 is_stmt 1 view .LVU198
 1054              	.LBE79:
 1055              		.loc 1 611 3 view .LVU199
 1056              		.loc 1 611 19 view .LVU200
 1057              		.loc 1 616 3 view .LVU201
 1058              	.LBB80:
 1059              		.loc 1 620 13 is_stmt 0 view .LVU202
 1060 00b6 83EC0C   		subl	$12, %esp
 1061              		.cfi_def_cfa_offset 60
 1062              	.LBE80:
 1063              		.loc 1 616 3 view .LVU203
 1064 00b9 C7060400 		movl	$4, (%esi)
 1064      0000
 1065              	.LBB85:
 1066              		.loc 1 618 5 is_stmt 1 view .LVU204
 1067              		.loc 1 620 5 view .LVU205
 1068              		.loc 1 620 13 is_stmt 0 view .LVU206
 1069 00bf 57       		pushl	%edi
 1070              		.cfi_def_cfa_offset 64
 1071 00c0 E8FCFFFF 		call	chFactoryFindObjectsFIFO@PLT
 1071      FF
 1072              	.LVL63:
 1073 00c5 89C2     		movl	%eax, %edx
 1074              	.LVL64:
 1075              		.loc 1 621 5 is_stmt 1 view .LVU207
 1076 00c7 58       		popl	%eax
 1077              		.cfi_def_cfa_offset 60
 1078              	.LVL65:
 1079              		.loc 1 621 5 is_stmt 0 view .LVU208
 1080 00c8 8D830000 		leal	.LC9@GOTOFF(%ebx), %eax
 1080      0000
 1081 00ce 59       		popl	%ecx
 1082              		.cfi_def_cfa_offset 56
 1083 00cf 50       		pushl	%eax
GAS LISTING /tmp/ccwdkvlB.s 			page 22


 1084              		.cfi_def_cfa_offset 60
 1085 00d0 31C0     		xorl	%eax, %eax
 1086 00d2 85D2     		testl	%edx, %edx
 1087 00d4 0F95C0   		setne	%al
 1088 00d7 89542414 		movl	%edx, 20(%esp)
 1089 00db 50       		pushl	%eax
 1090              		.cfi_def_cfa_offset 64
 1091 00dc E8FCFFFF 		call	__test_assert@PLT
 1091      FF
 1092              	.LVL66:
 1093              		.loc 1 621 5 view .LVU209
 1094 00e1 83C410   		addl	$16, %esp
 1095              		.cfi_def_cfa_offset 48
 1096 00e4 84C0     		testb	%al, %al
 1097 00e6 0F855CFF 		jne	.L56
 1097      FFFF
 1098              		.loc 1 621 44 is_stmt 1 view .LVU210
 1099              		.loc 1 622 5 view .LVU211
 1100 00ec 83EC08   		subl	$8, %esp
 1101              		.cfi_def_cfa_offset 56
 1102 00ef 8D930000 		leal	.LC10@GOTOFF(%ebx), %edx
 1102      0000
 1103 00f5 31C0     		xorl	%eax, %eax
 1104 00f7 89542414 		movl	%edx, 20(%esp)
 1105 00fb 52       		pushl	%edx
 1106              		.cfi_def_cfa_offset 60
 1107 00fc 8B542414 		movl	20(%esp), %edx
 1108 0100 39542410 		cmpl	%edx, 16(%esp)
 1109 0104 0F94C0   		sete	%al
 1110 0107 50       		pushl	%eax
 1111              		.cfi_def_cfa_offset 64
 1112 0108 E8FCFFFF 		call	__test_assert@PLT
 1112      FF
 1113              	.LVL67:
 1114 010d 83C410   		addl	$16, %esp
 1115              		.cfi_def_cfa_offset 48
 1116 0110 84C0     		testb	%al, %al
 1117 0112 0F8530FF 		jne	.L56
 1117      FFFF
 1118              		.loc 1 622 60 view .LVU212
 1119              		.loc 1 623 5 view .LVU213
 1120 0118 83EC08   		subl	$8, %esp
 1121              		.cfi_def_cfa_offset 56
 1122 011b 31C0     		xorl	%eax, %eax
 1123 011d FF742414 		pushl	20(%esp)
 1124              		.cfi_def_cfa_offset 60
 1125 0121 8B542414 		movl	20(%esp), %edx
 1126 0125 837A0402 		cmpl	$2, 4(%edx)
 1127 0129 0F94C0   		sete	%al
 1128 012c 50       		pushl	%eax
 1129              		.cfi_def_cfa_offset 64
 1130 012d E8FCFFFF 		call	__test_assert@PLT
 1130      FF
 1131              	.LVL68:
 1132 0132 83C410   		addl	$16, %esp
 1133              		.cfi_def_cfa_offset 48
 1134 0135 84C0     		testb	%al, %al
GAS LISTING /tmp/ccwdkvlB.s 			page 23


 1135 0137 0F850BFF 		jne	.L56
 1135      FFFF
 1136              		.loc 1 623 71 view .LVU214
 1137              		.loc 1 625 5 view .LVU215
 1138              	.LVL69:
 1139              	.LBB81:
 1140              	.LBI81:
 1141              		.loc 2 409 30 view .LVU216
 1142              	.LBB82:
 1143              		.loc 2 411 3 view .LVU217
 1144              		.loc 2 411 12 is_stmt 0 view .LVU218
 1145 013d 8B542408 		movl	8(%esp), %edx
 1146              	.LBE82:
 1147              	.LBE81:
 1148              		.loc 1 626 5 view .LVU219
 1149 0141 83EC08   		subl	$8, %esp
 1150              		.cfi_def_cfa_offset 56
 1151              	.LBB84:
 1152              	.LBB83:
 1153              		.loc 2 411 12 view .LVU220
 1154 0144 83420401 		addl	$1, 4(%edx)
 1155              		.loc 2 413 3 is_stmt 1 view .LVU221
 1156              	.LVL70:
 1157              		.loc 2 413 3 is_stmt 0 view .LVU222
 1158              	.LBE83:
 1159              	.LBE84:
 1160              		.loc 1 626 5 is_stmt 1 view .LVU223
 1161 0148 FF742414 		pushl	20(%esp)
 1162              		.cfi_def_cfa_offset 60
 1163 014c 6A01     		pushl	$1
 1164              		.cfi_def_cfa_offset 64
 1165 014e E8FCFFFF 		call	__test_assert@PLT
 1165      FF
 1166              	.LVL71:
 1167 0153 83C410   		addl	$16, %esp
 1168              		.cfi_def_cfa_offset 48
 1169 0156 84C0     		testb	%al, %al
 1170 0158 0F85EAFE 		jne	.L56
 1170      FFFF
 1171              		.loc 1 626 61 view .LVU224
 1172              		.loc 1 627 5 view .LVU225
 1173 015e 83EC08   		subl	$8, %esp
 1174              		.cfi_def_cfa_offset 56
 1175 0161 31C0     		xorl	%eax, %eax
 1176 0163 FF742414 		pushl	20(%esp)
 1177              		.cfi_def_cfa_offset 60
 1178 0167 8B542414 		movl	20(%esp), %edx
 1179 016b 837A0403 		cmpl	$3, 4(%edx)
 1180 016f 0F94C0   		sete	%al
 1181 0172 50       		pushl	%eax
 1182              		.cfi_def_cfa_offset 64
 1183 0173 E8FCFFFF 		call	__test_assert@PLT
 1183      FF
 1184              	.LVL72:
 1185 0178 83C410   		addl	$16, %esp
 1186              		.cfi_def_cfa_offset 48
 1187 017b 84C0     		testb	%al, %al
GAS LISTING /tmp/ccwdkvlB.s 			page 24


 1188 017d 0F85C5FE 		jne	.L56
 1188      FFFF
 1189              		.loc 1 627 71 view .LVU226
 1190              		.loc 1 629 5 view .LVU227
 1191 0183 83EC0C   		subl	$12, %esp
 1192              		.cfi_def_cfa_offset 60
 1193 0186 FF742414 		pushl	20(%esp)
 1194              		.cfi_def_cfa_offset 64
 1195 018a E8FCFFFF 		call	chFactoryReleaseObjectsFIFO@PLT
 1195      FF
 1196              	.LVL73:
 1197              		.loc 1 630 5 view .LVU228
 1198 018f 59       		popl	%ecx
 1199              		.cfi_def_cfa_offset 60
 1200 0190 8D930000 		leal	.LC11@GOTOFF(%ebx), %edx
 1200      0000
 1201 0196 58       		popl	%eax
 1202              		.cfi_def_cfa_offset 56
 1203 0197 89542414 		movl	%edx, 20(%esp)
 1204 019b 31C0     		xorl	%eax, %eax
 1205 019d 52       		pushl	%edx
 1206              		.cfi_def_cfa_offset 60
 1207 019e 8B542414 		movl	20(%esp), %edx
 1208 01a2 837A0402 		cmpl	$2, 4(%edx)
 1209 01a6 0F94C0   		sete	%al
 1210 01a9 50       		pushl	%eax
 1211              		.cfi_def_cfa_offset 64
 1212 01aa E8FCFFFF 		call	__test_assert@PLT
 1212      FF
 1213              	.LVL74:
 1214 01af 83C410   		addl	$16, %esp
 1215              		.cfi_def_cfa_offset 48
 1216 01b2 84C0     		testb	%al, %al
 1217 01b4 0F858EFE 		jne	.L56
 1217      FFFF
 1218              		.loc 1 630 65 view .LVU229
 1219              		.loc 1 632 5 view .LVU230
 1220 01ba 83EC0C   		subl	$12, %esp
 1221              		.cfi_def_cfa_offset 60
 1222 01bd FF742414 		pushl	20(%esp)
 1223              		.cfi_def_cfa_offset 64
 1224 01c1 E8FCFFFF 		call	chFactoryReleaseObjectsFIFO@PLT
 1224      FF
 1225              	.LVL75:
 1226              		.loc 1 633 5 view .LVU231
 1227 01c6 58       		popl	%eax
 1228              		.cfi_def_cfa_offset 60
 1229 01c7 5A       		popl	%edx
 1230              		.cfi_def_cfa_offset 56
 1231 01c8 FF742414 		pushl	20(%esp)
 1232              		.cfi_def_cfa_offset 60
 1233 01cc 8B442410 		movl	16(%esp), %eax
 1234 01d0 83780401 		cmpl	$1, 4(%eax)
 1235 01d4 0F94C0   		sete	%al
 1236 01d7 0FB6C0   		movzbl	%al, %eax
 1237 01da 50       		pushl	%eax
 1238              		.cfi_def_cfa_offset 64
GAS LISTING /tmp/ccwdkvlB.s 			page 25


 1239 01db E8FCFFFF 		call	__test_assert@PLT
 1239      FF
 1240              	.LVL76:
 1241 01e0 83C410   		addl	$16, %esp
 1242              		.cfi_def_cfa_offset 48
 1243 01e3 84C0     		testb	%al, %al
 1244 01e5 0F855DFE 		jne	.L56
 1244      FFFF
 1245              		.loc 1 633 64 view .LVU232
 1246              	.LBE85:
 1247              		.loc 1 635 3 view .LVU233
 1248              		.loc 1 635 19 view .LVU234
 1249              		.loc 1 639 3 view .LVU235
 1250              		.loc 1 641 5 is_stmt 0 view .LVU236
 1251 01eb 83EC0C   		subl	$12, %esp
 1252              		.cfi_def_cfa_offset 60
 1253              		.loc 1 639 3 view .LVU237
 1254 01ee C7060500 		movl	$5, (%esi)
 1254      0000
 1255              		.loc 1 641 5 is_stmt 1 view .LVU238
 1256 01f4 FF742410 		pushl	16(%esp)
 1257              		.cfi_def_cfa_offset 64
 1258 01f8 E8FCFFFF 		call	chFactoryReleaseObjectsFIFO@PLT
 1258      FF
 1259              	.LVL77:
 1260              		.loc 1 643 3 view .LVU239
 1261              		.loc 1 643 19 view .LVU240
 1262              		.loc 1 647 3 view .LVU241
 1263              		.loc 1 649 12 is_stmt 0 view .LVU242
 1264 01fd 893C24   		movl	%edi, (%esp)
 1265              		.loc 1 647 3 view .LVU243
 1266 0200 C7060600 		movl	$6, (%esi)
 1266      0000
 1267              		.loc 1 649 5 is_stmt 1 view .LVU244
 1268              		.loc 1 649 12 is_stmt 0 view .LVU245
 1269 0206 E8FCFFFF 		call	chFactoryFindObjectsFIFO@PLT
 1269      FF
 1270              	.LVL78:
 1271              		.loc 1 650 5 is_stmt 1 view .LVU246
 1272 020b 5A       		popl	%edx
 1273              		.cfi_def_cfa_offset 60
 1274 020c 59       		popl	%ecx
 1275              		.cfi_def_cfa_offset 56
 1276 020d 55       		pushl	%ebp
 1277              		.cfi_def_cfa_offset 60
 1278 020e 85C0     		testl	%eax, %eax
 1279 0210 0F94C0   		sete	%al
 1280              	.LVL79:
 1281              		.loc 1 650 5 is_stmt 0 view .LVU247
 1282 0213 0FB6C0   		movzbl	%al, %eax
 1283 0216 50       		pushl	%eax
 1284              		.cfi_def_cfa_offset 64
 1285 0217 E8FCFFFF 		call	__test_assert@PLT
 1285      FF
 1286              	.LVL80:
 1287 021c 83C410   		addl	$16, %esp
 1288              		.cfi_def_cfa_offset 48
GAS LISTING /tmp/ccwdkvlB.s 			page 26


 1289              	.LVL81:
 1290              		.loc 1 650 5 view .LVU248
 1291              	.LBE77:
 1292              	.LBE76:
 1293              		.loc 1 650 39 is_stmt 1 view .LVU249
 1294              		.loc 1 652 3 view .LVU250
 1295              		.loc 1 652 19 view .LVU251
 1296              	.LBB87:
 1297              	.LBB86:
 1298 021f E924FEFF 		jmp	.L56
 1298      FF
 1299              	.LBE86:
 1300              	.LBE87:
 1301              		.cfi_endproc
 1302              	.LFE312:
 1303              		.size	oslib_test_009_005_execute, .-oslib_test_009_005_execute
 1304              		.section	.text.oslib_test_009_004_execute,"ax",@progbits
 1305              		.p2align 4
 1306              		.type	oslib_test_009_004_execute, @function
 1307              	oslib_test_009_004_execute:
 1308              	.LFB310:
 1309              		.loc 1 460 46 view -0
 1310              		.cfi_startproc
 1311              		.loc 1 461 3 view .LVU253
 1312              		.loc 1 464 3 view .LVU254
 1313              		.loc 1 460 46 is_stmt 0 view .LVU255
 1314 0000 55       		pushl	%ebp
 1315              		.cfi_def_cfa_offset 8
 1316              		.cfi_offset 5, -8
 1317 0001 57       		pushl	%edi
 1318              		.cfi_def_cfa_offset 12
 1319              		.cfi_offset 7, -12
 1320 0002 56       		pushl	%esi
 1321              		.cfi_def_cfa_offset 16
 1322              		.cfi_offset 6, -16
 1323 0003 53       		pushl	%ebx
 1324              		.cfi_def_cfa_offset 20
 1325              		.cfi_offset 3, -20
 1326 0004 E8FCFFFF 		call	__x86.get_pc_thunk.bx
 1326      FF
 1327 0009 81C30200 		addl	$_GLOBAL_OFFSET_TABLE_, %ebx
 1327      0000
 1328 000f 83EC28   		subl	$40, %esp
 1329              		.cfi_def_cfa_offset 60
 1330              		.loc 1 466 11 view .LVU256
 1331 0012 8DBB0000 		leal	.LC2@GOTOFF(%ebx), %edi
 1331      0000
 1332              		.loc 1 464 3 view .LVU257
 1333 0018 8BB30000 		movl	chtest@GOT(%ebx), %esi
 1333      0000
 1334              		.loc 1 466 11 view .LVU258
 1335 001e 57       		pushl	%edi
 1336              		.cfi_def_cfa_offset 64
 1337              		.loc 1 464 3 view .LVU259
 1338 001f C7060100 		movl	$1, (%esi)
 1338      0000
 1339              		.loc 1 466 5 is_stmt 1 view .LVU260
GAS LISTING /tmp/ccwdkvlB.s 			page 27


 1340              		.loc 1 466 11 is_stmt 0 view .LVU261
 1341 0025 E8FCFFFF 		call	chFactoryFindMailbox@PLT
 1341      FF
 1342              	.LVL82:
 1343              		.loc 1 467 5 is_stmt 1 view .LVU262
 1344 002a 59       		popl	%ecx
 1345              		.cfi_def_cfa_offset 60
 1346 002b 5D       		popl	%ebp
 1347              		.cfi_def_cfa_offset 56
 1348 002c 8DAB0000 		leal	.LC6@GOTOFF(%ebx), %ebp
 1348      0000
 1349 0032 85C0     		testl	%eax, %eax
 1350 0034 55       		pushl	%ebp
 1351              		.cfi_def_cfa_offset 60
 1352 0035 0F94C0   		sete	%al
 1353              	.LVL83:
 1354              		.loc 1 467 5 is_stmt 0 view .LVU263
 1355 0038 0FB6C0   		movzbl	%al, %eax
 1356 003b 50       		pushl	%eax
 1357              		.cfi_def_cfa_offset 64
 1358 003c E8FCFFFF 		call	__test_assert@PLT
 1358      FF
 1359              	.LVL84:
 1360 0041 83C410   		addl	$16, %esp
 1361              		.cfi_def_cfa_offset 48
 1362 0044 84C0     		testb	%al, %al
 1363 0046 7408     		je	.L67
 1364              	.L62:
 1365              		.loc 1 531 1 view .LVU264
 1366 0048 83C41C   		addl	$28, %esp
 1367              		.cfi_remember_state
 1368              		.cfi_def_cfa_offset 20
 1369 004b 5B       		popl	%ebx
 1370              		.cfi_restore 3
 1371              		.cfi_def_cfa_offset 16
 1372 004c 5E       		popl	%esi
 1373              		.cfi_restore 6
 1374              		.cfi_def_cfa_offset 12
 1375 004d 5F       		popl	%edi
 1376              		.cfi_restore 7
 1377              		.cfi_def_cfa_offset 8
 1378 004e 5D       		popl	%ebp
 1379              		.cfi_restore 5
 1380              		.cfi_def_cfa_offset 4
 1381 004f C3       		ret
 1382              		.p2align 4,,10
 1383              		.p2align 3
 1384              	.L67:
 1385              		.cfi_restore_state
 1386              	.LBB94:
 1387              	.LBI94:
 1388              		.loc 1 460 13 is_stmt 1 view .LVU265
 1389              	.LBB95:
 1390              		.loc 1 467 38 view .LVU266
 1391              		.loc 1 469 3 view .LVU267
 1392              		.loc 1 469 19 view .LVU268
 1393              		.loc 1 473 3 view .LVU269
GAS LISTING /tmp/ccwdkvlB.s 			page 28


 1394              		.loc 1 475 11 is_stmt 0 view .LVU270
 1395 0050 83EC08   		subl	$8, %esp
 1396              		.cfi_def_cfa_offset 56
 1397              		.loc 1 473 3 view .LVU271
 1398 0053 C7060200 		movl	$2, (%esi)
 1398      0000
 1399              		.loc 1 475 5 is_stmt 1 view .LVU272
 1400              		.loc 1 475 11 is_stmt 0 view .LVU273
 1401 0059 6A10     		pushl	$16
 1402              		.cfi_def_cfa_offset 60
 1403 005b 57       		pushl	%edi
 1404              		.cfi_def_cfa_offset 64
 1405 005c E8FCFFFF 		call	chFactoryCreateMailbox@PLT
 1405      FF
 1406              	.LVL85:
 1407 0061 89C1     		movl	%eax, %ecx
 1408              	.LVL86:
 1409              		.loc 1 476 5 is_stmt 1 view .LVU274
 1410 0063 58       		popl	%eax
 1411              		.cfi_def_cfa_offset 60
 1412              	.LVL87:
 1413              		.loc 1 476 5 is_stmt 0 view .LVU275
 1414 0064 8D830000 		leal	.LC7@GOTOFF(%ebx), %eax
 1414      0000
 1415 006a 5A       		popl	%edx
 1416              		.cfi_def_cfa_offset 56
 1417 006b 85C9     		testl	%ecx, %ecx
 1418 006d 50       		pushl	%eax
 1419              		.cfi_def_cfa_offset 60
 1420 006e 0F95C0   		setne	%al
 1421 0071 0FB6C0   		movzbl	%al, %eax
 1422 0074 894C2410 		movl	%ecx, 16(%esp)
 1423 0078 50       		pushl	%eax
 1424              		.cfi_def_cfa_offset 64
 1425 0079 E8FCFFFF 		call	__test_assert@PLT
 1425      FF
 1426              	.LVL88:
 1427              		.loc 1 476 5 view .LVU276
 1428 007e 83C410   		addl	$16, %esp
 1429              		.cfi_def_cfa_offset 48
 1430 0081 84C0     		testb	%al, %al
 1431 0083 75C3     		jne	.L62
 1432              		.loc 1 476 46 is_stmt 1 view .LVU277
 1433              		.loc 1 478 3 view .LVU278
 1434              		.loc 1 478 19 view .LVU279
 1435              		.loc 1 482 3 view .LVU280
 1436              	.LBB96:
 1437              		.loc 1 486 12 is_stmt 0 view .LVU281
 1438 0085 83EC08   		subl	$8, %esp
 1439              		.cfi_def_cfa_offset 56
 1440              	.LBE96:
 1441              		.loc 1 482 3 view .LVU282
 1442 0088 C7060300 		movl	$3, (%esi)
 1442      0000
 1443              	.LBB97:
 1444              		.loc 1 484 5 is_stmt 1 view .LVU283
 1445              		.loc 1 486 5 view .LVU284
GAS LISTING /tmp/ccwdkvlB.s 			page 29


 1446              		.loc 1 486 12 is_stmt 0 view .LVU285
 1447 008e 6A10     		pushl	$16
 1448              		.cfi_def_cfa_offset 60
 1449 0090 57       		pushl	%edi
 1450              		.cfi_def_cfa_offset 64
 1451 0091 E8FCFFFF 		call	chFactoryCreateMailbox@PLT
 1451      FF
 1452              	.LVL89:
 1453              		.loc 1 487 5 is_stmt 1 view .LVU286
 1454 0096 5A       		popl	%edx
 1455              		.cfi_def_cfa_offset 60
 1456 0097 8D930000 		leal	.LC8@GOTOFF(%ebx), %edx
 1456      0000
 1457 009d 59       		popl	%ecx
 1458              		.cfi_def_cfa_offset 56
 1459 009e 85C0     		testl	%eax, %eax
 1460 00a0 52       		pushl	%edx
 1461              		.cfi_def_cfa_offset 60
 1462 00a1 0F94C0   		sete	%al
 1463              	.LVL90:
 1464              		.loc 1 487 5 is_stmt 0 view .LVU287
 1465 00a4 0FB6C0   		movzbl	%al, %eax
 1466 00a7 50       		pushl	%eax
 1467              		.cfi_def_cfa_offset 64
 1468 00a8 E8FCFFFF 		call	__test_assert@PLT
 1468      FF
 1469              	.LVL91:
 1470 00ad 83C410   		addl	$16, %esp
 1471              		.cfi_def_cfa_offset 48
 1472 00b0 84C0     		testb	%al, %al
 1473 00b2 7594     		jne	.L62
 1474              		.loc 1 487 44 is_stmt 1 view .LVU288
 1475              	.LBE97:
 1476              		.loc 1 489 3 view .LVU289
 1477              		.loc 1 489 19 view .LVU290
 1478              		.loc 1 494 3 view .LVU291
 1479              	.LBB98:
 1480              		.loc 1 498 12 is_stmt 0 view .LVU292
 1481 00b4 83EC0C   		subl	$12, %esp
 1482              		.cfi_def_cfa_offset 60
 1483              	.LBE98:
 1484              		.loc 1 494 3 view .LVU293
 1485 00b7 C7060400 		movl	$4, (%esi)
 1485      0000
 1486              	.LBB103:
 1487              		.loc 1 496 5 is_stmt 1 view .LVU294
 1488              		.loc 1 498 5 view .LVU295
 1489              		.loc 1 498 12 is_stmt 0 view .LVU296
 1490 00bd 57       		pushl	%edi
 1491              		.cfi_def_cfa_offset 64
 1492 00be E8FCFFFF 		call	chFactoryFindMailbox@PLT
 1492      FF
 1493              	.LVL92:
 1494 00c3 89C2     		movl	%eax, %edx
 1495              	.LVL93:
 1496              		.loc 1 499 5 is_stmt 1 view .LVU297
 1497 00c5 58       		popl	%eax
GAS LISTING /tmp/ccwdkvlB.s 			page 30


 1498              		.cfi_def_cfa_offset 60
 1499              	.LVL94:
 1500              		.loc 1 499 5 is_stmt 0 view .LVU298
 1501 00c6 8D830000 		leal	.LC9@GOTOFF(%ebx), %eax
 1501      0000
 1502 00cc 59       		popl	%ecx
 1503              		.cfi_def_cfa_offset 56
 1504 00cd 50       		pushl	%eax
 1505              		.cfi_def_cfa_offset 60
 1506 00ce 31C0     		xorl	%eax, %eax
 1507 00d0 85D2     		testl	%edx, %edx
 1508 00d2 0F95C0   		setne	%al
 1509 00d5 89542414 		movl	%edx, 20(%esp)
 1510 00d9 50       		pushl	%eax
 1511              		.cfi_def_cfa_offset 64
 1512 00da E8FCFFFF 		call	__test_assert@PLT
 1512      FF
 1513              	.LVL95:
 1514              		.loc 1 499 5 view .LVU299
 1515 00df 83C410   		addl	$16, %esp
 1516              		.cfi_def_cfa_offset 48
 1517 00e2 84C0     		testb	%al, %al
 1518 00e4 0F855EFF 		jne	.L62
 1518      FFFF
 1519              		.loc 1 499 43 is_stmt 1 view .LVU300
 1520              		.loc 1 500 5 view .LVU301
 1521 00ea 83EC08   		subl	$8, %esp
 1522              		.cfi_def_cfa_offset 56
 1523 00ed 8D930000 		leal	.LC10@GOTOFF(%ebx), %edx
 1523      0000
 1524 00f3 31C0     		xorl	%eax, %eax
 1525 00f5 89542414 		movl	%edx, 20(%esp)
 1526 00f9 52       		pushl	%edx
 1527              		.cfi_def_cfa_offset 60
 1528 00fa 8B542414 		movl	20(%esp), %edx
 1529 00fe 39542410 		cmpl	%edx, 16(%esp)
 1530 0102 0F94C0   		sete	%al
 1531 0105 50       		pushl	%eax
 1532              		.cfi_def_cfa_offset 64
 1533 0106 E8FCFFFF 		call	__test_assert@PLT
 1533      FF
 1534              	.LVL96:
 1535 010b 83C410   		addl	$16, %esp
 1536              		.cfi_def_cfa_offset 48
 1537 010e 84C0     		testb	%al, %al
 1538 0110 0F8532FF 		jne	.L62
 1538      FFFF
 1539              		.loc 1 500 58 view .LVU302
 1540              		.loc 1 501 5 view .LVU303
 1541 0116 83EC08   		subl	$8, %esp
 1542              		.cfi_def_cfa_offset 56
 1543 0119 31C0     		xorl	%eax, %eax
 1544 011b FF742414 		pushl	20(%esp)
 1545              		.cfi_def_cfa_offset 60
 1546 011f 8B542414 		movl	20(%esp), %edx
 1547 0123 837A0402 		cmpl	$2, 4(%edx)
 1548 0127 0F94C0   		sete	%al
GAS LISTING /tmp/ccwdkvlB.s 			page 31


 1549 012a 50       		pushl	%eax
 1550              		.cfi_def_cfa_offset 64
 1551 012b E8FCFFFF 		call	__test_assert@PLT
 1551      FF
 1552              	.LVL97:
 1553 0130 83C410   		addl	$16, %esp
 1554              		.cfi_def_cfa_offset 48
 1555 0133 84C0     		testb	%al, %al
 1556 0135 0F850DFF 		jne	.L62
 1556      FFFF
 1557              		.loc 1 501 70 view .LVU304
 1558              		.loc 1 503 5 view .LVU305
 1559              	.LVL98:
 1560              	.LBB99:
 1561              	.LBI99:
 1562              		.loc 2 409 30 view .LVU306
 1563              	.LBB100:
 1564              		.loc 2 411 3 view .LVU307
 1565              		.loc 2 411 12 is_stmt 0 view .LVU308
 1566 013b 8B542408 		movl	8(%esp), %edx
 1567              	.LBE100:
 1568              	.LBE99:
 1569              		.loc 1 504 5 view .LVU309
 1570 013f 83EC08   		subl	$8, %esp
 1571              		.cfi_def_cfa_offset 56
 1572              	.LBB102:
 1573              	.LBB101:
 1574              		.loc 2 411 12 view .LVU310
 1575 0142 83420401 		addl	$1, 4(%edx)
 1576              		.loc 2 413 3 is_stmt 1 view .LVU311
 1577              	.LVL99:
 1578              		.loc 2 413 3 is_stmt 0 view .LVU312
 1579              	.LBE101:
 1580              	.LBE102:
 1581              		.loc 1 504 5 is_stmt 1 view .LVU313
 1582 0146 FF742414 		pushl	20(%esp)
 1583              		.cfi_def_cfa_offset 60
 1584 014a 6A01     		pushl	$1
 1585              		.cfi_def_cfa_offset 64
 1586 014c E8FCFFFF 		call	__test_assert@PLT
 1586      FF
 1587              	.LVL100:
 1588 0151 83C410   		addl	$16, %esp
 1589              		.cfi_def_cfa_offset 48
 1590 0154 84C0     		testb	%al, %al
 1591 0156 0F85ECFE 		jne	.L62
 1591      FFFF
 1592              		.loc 1 504 59 view .LVU314
 1593              		.loc 1 505 5 view .LVU315
 1594 015c 83EC08   		subl	$8, %esp
 1595              		.cfi_def_cfa_offset 56
 1596 015f 31C0     		xorl	%eax, %eax
 1597 0161 FF742414 		pushl	20(%esp)
 1598              		.cfi_def_cfa_offset 60
 1599 0165 8B542414 		movl	20(%esp), %edx
 1600 0169 837A0403 		cmpl	$3, 4(%edx)
 1601 016d 0F94C0   		sete	%al
GAS LISTING /tmp/ccwdkvlB.s 			page 32


 1602 0170 50       		pushl	%eax
 1603              		.cfi_def_cfa_offset 64
 1604 0171 E8FCFFFF 		call	__test_assert@PLT
 1604      FF
 1605              	.LVL101:
 1606 0176 83C410   		addl	$16, %esp
 1607              		.cfi_def_cfa_offset 48
 1608 0179 84C0     		testb	%al, %al
 1609 017b 0F85C7FE 		jne	.L62
 1609      FFFF
 1610              		.loc 1 505 70 view .LVU316
 1611              		.loc 1 507 5 view .LVU317
 1612 0181 83EC0C   		subl	$12, %esp
 1613              		.cfi_def_cfa_offset 60
 1614 0184 FF742414 		pushl	20(%esp)
 1615              		.cfi_def_cfa_offset 64
 1616 0188 E8FCFFFF 		call	chFactoryReleaseMailbox@PLT
 1616      FF
 1617              	.LVL102:
 1618              		.loc 1 508 5 view .LVU318
 1619 018d 59       		popl	%ecx
 1620              		.cfi_def_cfa_offset 60
 1621 018e 8D930000 		leal	.LC11@GOTOFF(%ebx), %edx
 1621      0000
 1622 0194 58       		popl	%eax
 1623              		.cfi_def_cfa_offset 56
 1624 0195 89542414 		movl	%edx, 20(%esp)
 1625 0199 31C0     		xorl	%eax, %eax
 1626 019b 52       		pushl	%edx
 1627              		.cfi_def_cfa_offset 60
 1628 019c 8B542414 		movl	20(%esp), %edx
 1629 01a0 837A0402 		cmpl	$2, 4(%edx)
 1630 01a4 0F94C0   		sete	%al
 1631 01a7 50       		pushl	%eax
 1632              		.cfi_def_cfa_offset 64
 1633 01a8 E8FCFFFF 		call	__test_assert@PLT
 1633      FF
 1634              	.LVL103:
 1635 01ad 83C410   		addl	$16, %esp
 1636              		.cfi_def_cfa_offset 48
 1637 01b0 84C0     		testb	%al, %al
 1638 01b2 0F8590FE 		jne	.L62
 1638      FFFF
 1639              		.loc 1 508 64 view .LVU319
 1640              		.loc 1 510 5 view .LVU320
 1641 01b8 83EC0C   		subl	$12, %esp
 1642              		.cfi_def_cfa_offset 60
 1643 01bb FF742414 		pushl	20(%esp)
 1644              		.cfi_def_cfa_offset 64
 1645 01bf E8FCFFFF 		call	chFactoryReleaseMailbox@PLT
 1645      FF
 1646              	.LVL104:
 1647              		.loc 1 511 5 view .LVU321
 1648 01c4 58       		popl	%eax
 1649              		.cfi_def_cfa_offset 60
 1650 01c5 5A       		popl	%edx
 1651              		.cfi_def_cfa_offset 56
GAS LISTING /tmp/ccwdkvlB.s 			page 33


 1652 01c6 FF742414 		pushl	20(%esp)
 1653              		.cfi_def_cfa_offset 60
 1654 01ca 8B442410 		movl	16(%esp), %eax
 1655 01ce 83780401 		cmpl	$1, 4(%eax)
 1656 01d2 0F94C0   		sete	%al
 1657 01d5 0FB6C0   		movzbl	%al, %eax
 1658 01d8 50       		pushl	%eax
 1659              		.cfi_def_cfa_offset 64
 1660 01d9 E8FCFFFF 		call	__test_assert@PLT
 1660      FF
 1661              	.LVL105:
 1662 01de 83C410   		addl	$16, %esp
 1663              		.cfi_def_cfa_offset 48
 1664 01e1 84C0     		testb	%al, %al
 1665 01e3 0F855FFE 		jne	.L62
 1665      FFFF
 1666              		.loc 1 511 63 view .LVU322
 1667              	.LBE103:
 1668              		.loc 1 513 3 view .LVU323
 1669              		.loc 1 513 19 view .LVU324
 1670              		.loc 1 517 3 view .LVU325
 1671              		.loc 1 519 5 is_stmt 0 view .LVU326
 1672 01e9 83EC0C   		subl	$12, %esp
 1673              		.cfi_def_cfa_offset 60
 1674              		.loc 1 517 3 view .LVU327
 1675 01ec C7060500 		movl	$5, (%esi)
 1675      0000
 1676              		.loc 1 519 5 is_stmt 1 view .LVU328
 1677 01f2 FF742410 		pushl	16(%esp)
 1678              		.cfi_def_cfa_offset 64
 1679 01f6 E8FCFFFF 		call	chFactoryReleaseMailbox@PLT
 1679      FF
 1680              	.LVL106:
 1681              		.loc 1 521 3 view .LVU329
 1682              		.loc 1 521 19 view .LVU330
 1683              		.loc 1 525 3 view .LVU331
 1684              		.loc 1 527 11 is_stmt 0 view .LVU332
 1685 01fb 893C24   		movl	%edi, (%esp)
 1686              		.loc 1 525 3 view .LVU333
 1687 01fe C7060600 		movl	$6, (%esi)
 1687      0000
 1688              		.loc 1 527 5 is_stmt 1 view .LVU334
 1689              		.loc 1 527 11 is_stmt 0 view .LVU335
 1690 0204 E8FCFFFF 		call	chFactoryFindMailbox@PLT
 1690      FF
 1691              	.LVL107:
 1692              		.loc 1 528 5 is_stmt 1 view .LVU336
 1693 0209 5A       		popl	%edx
 1694              		.cfi_def_cfa_offset 60
 1695 020a 59       		popl	%ecx
 1696              		.cfi_def_cfa_offset 56
 1697 020b 55       		pushl	%ebp
 1698              		.cfi_def_cfa_offset 60
 1699 020c 85C0     		testl	%eax, %eax
 1700 020e 0F94C0   		sete	%al
 1701              	.LVL108:
 1702              		.loc 1 528 5 is_stmt 0 view .LVU337
GAS LISTING /tmp/ccwdkvlB.s 			page 34


 1703 0211 0FB6C0   		movzbl	%al, %eax
 1704 0214 50       		pushl	%eax
 1705              		.cfi_def_cfa_offset 64
 1706 0215 E8FCFFFF 		call	__test_assert@PLT
 1706      FF
 1707              	.LVL109:
 1708 021a 83C410   		addl	$16, %esp
 1709              		.cfi_def_cfa_offset 48
 1710              	.LVL110:
 1711              		.loc 1 528 5 view .LVU338
 1712              	.LBE95:
 1713              	.LBE94:
 1714              		.loc 1 528 38 is_stmt 1 view .LVU339
 1715              		.loc 1 530 3 view .LVU340
 1716              		.loc 1 530 19 view .LVU341
 1717              	.LBB105:
 1718              	.LBB104:
 1719 021d E926FEFF 		jmp	.L62
 1719      FF
 1720              	.LBE104:
 1721              	.LBE105:
 1722              		.cfi_endproc
 1723              	.LFE310:
 1724              		.size	oslib_test_009_004_execute, .-oslib_test_009_004_execute
 1725              		.section	.text.oslib_test_009_003_execute,"ax",@progbits
 1726              		.p2align 4
 1727              		.type	oslib_test_009_003_execute, @function
 1728              	oslib_test_009_003_execute:
 1729              	.LFB308:
 1730              		.loc 1 340 46 view -0
 1731              		.cfi_startproc
 1732              		.loc 1 341 3 view .LVU343
 1733              		.loc 1 344 3 view .LVU344
 1734              		.loc 1 340 46 is_stmt 0 view .LVU345
 1735 0000 55       		pushl	%ebp
 1736              		.cfi_def_cfa_offset 8
 1737              		.cfi_offset 5, -8
 1738 0001 57       		pushl	%edi
 1739              		.cfi_def_cfa_offset 12
 1740              		.cfi_offset 7, -12
 1741 0002 56       		pushl	%esi
 1742              		.cfi_def_cfa_offset 16
 1743              		.cfi_offset 6, -16
 1744 0003 53       		pushl	%ebx
 1745              		.cfi_def_cfa_offset 20
 1746              		.cfi_offset 3, -20
 1747 0004 E8FCFFFF 		call	__x86.get_pc_thunk.bx
 1747      FF
 1748 0009 81C30200 		addl	$_GLOBAL_OFFSET_TABLE_, %ebx
 1748      0000
 1749 000f 83EC28   		subl	$40, %esp
 1750              		.cfi_def_cfa_offset 60
 1751              		.loc 1 346 11 view .LVU346
 1752 0012 8DBB0000 		leal	.LC3@GOTOFF(%ebx), %edi
 1752      0000
 1753              		.loc 1 344 3 view .LVU347
 1754 0018 8BB30000 		movl	chtest@GOT(%ebx), %esi
GAS LISTING /tmp/ccwdkvlB.s 			page 35


 1754      0000
 1755              		.loc 1 346 11 view .LVU348
 1756 001e 57       		pushl	%edi
 1757              		.cfi_def_cfa_offset 64
 1758              		.loc 1 344 3 view .LVU349
 1759 001f C7060100 		movl	$1, (%esi)
 1759      0000
 1760              		.loc 1 346 5 is_stmt 1 view .LVU350
 1761              		.loc 1 346 11 is_stmt 0 view .LVU351
 1762 0025 E8FCFFFF 		call	chFactoryFindSemaphore@PLT
 1762      FF
 1763              	.LVL111:
 1764              		.loc 1 347 5 is_stmt 1 view .LVU352
 1765 002a 59       		popl	%ecx
 1766              		.cfi_def_cfa_offset 60
 1767 002b 5D       		popl	%ebp
 1768              		.cfi_def_cfa_offset 56
 1769 002c 8DAB0000 		leal	.LC6@GOTOFF(%ebx), %ebp
 1769      0000
 1770 0032 85C0     		testl	%eax, %eax
 1771 0034 55       		pushl	%ebp
 1772              		.cfi_def_cfa_offset 60
 1773 0035 0F94C0   		sete	%al
 1774              	.LVL112:
 1775              		.loc 1 347 5 is_stmt 0 view .LVU353
 1776 0038 0FB6C0   		movzbl	%al, %eax
 1777 003b 50       		pushl	%eax
 1778              		.cfi_def_cfa_offset 64
 1779 003c E8FCFFFF 		call	__test_assert@PLT
 1779      FF
 1780              	.LVL113:
 1781 0041 83C410   		addl	$16, %esp
 1782              		.cfi_def_cfa_offset 48
 1783 0044 84C0     		testb	%al, %al
 1784 0046 7408     		je	.L73
 1785              	.L68:
 1786              		.loc 1 411 1 view .LVU354
 1787 0048 83C41C   		addl	$28, %esp
 1788              		.cfi_remember_state
 1789              		.cfi_def_cfa_offset 20
 1790 004b 5B       		popl	%ebx
 1791              		.cfi_restore 3
 1792              		.cfi_def_cfa_offset 16
 1793 004c 5E       		popl	%esi
 1794              		.cfi_restore 6
 1795              		.cfi_def_cfa_offset 12
 1796 004d 5F       		popl	%edi
 1797              		.cfi_restore 7
 1798              		.cfi_def_cfa_offset 8
 1799 004e 5D       		popl	%ebp
 1800              		.cfi_restore 5
 1801              		.cfi_def_cfa_offset 4
 1802 004f C3       		ret
 1803              		.p2align 4,,10
 1804              		.p2align 3
 1805              	.L73:
 1806              		.cfi_restore_state
GAS LISTING /tmp/ccwdkvlB.s 			page 36


 1807              	.LBB112:
 1808              	.LBI112:
 1809              		.loc 1 340 13 is_stmt 1 view .LVU355
 1810              	.LBB113:
 1811              		.loc 1 347 38 view .LVU356
 1812              		.loc 1 349 3 view .LVU357
 1813              		.loc 1 349 19 view .LVU358
 1814              		.loc 1 353 3 view .LVU359
 1815              		.loc 1 355 11 is_stmt 0 view .LVU360
 1816 0050 83EC08   		subl	$8, %esp
 1817              		.cfi_def_cfa_offset 56
 1818              		.loc 1 353 3 view .LVU361
 1819 0053 C7060200 		movl	$2, (%esi)
 1819      0000
 1820              		.loc 1 355 5 is_stmt 1 view .LVU362
 1821              		.loc 1 355 11 is_stmt 0 view .LVU363
 1822 0059 6A00     		pushl	$0
 1823              		.cfi_def_cfa_offset 60
 1824 005b 57       		pushl	%edi
 1825              		.cfi_def_cfa_offset 64
 1826 005c E8FCFFFF 		call	chFactoryCreateSemaphore@PLT
 1826      FF
 1827              	.LVL114:
 1828 0061 89C1     		movl	%eax, %ecx
 1829              	.LVL115:
 1830              		.loc 1 356 5 is_stmt 1 view .LVU364
 1831 0063 58       		popl	%eax
 1832              		.cfi_def_cfa_offset 60
 1833              	.LVL116:
 1834              		.loc 1 356 5 is_stmt 0 view .LVU365
 1835 0064 8D830000 		leal	.LC7@GOTOFF(%ebx), %eax
 1835      0000
 1836 006a 5A       		popl	%edx
 1837              		.cfi_def_cfa_offset 56
 1838 006b 85C9     		testl	%ecx, %ecx
 1839 006d 50       		pushl	%eax
 1840              		.cfi_def_cfa_offset 60
 1841 006e 0F95C0   		setne	%al
 1842 0071 0FB6C0   		movzbl	%al, %eax
 1843 0074 894C2410 		movl	%ecx, 16(%esp)
 1844 0078 50       		pushl	%eax
 1845              		.cfi_def_cfa_offset 64
 1846 0079 E8FCFFFF 		call	__test_assert@PLT
 1846      FF
 1847              	.LVL117:
 1848              		.loc 1 356 5 view .LVU366
 1849 007e 83C410   		addl	$16, %esp
 1850              		.cfi_def_cfa_offset 48
 1851 0081 84C0     		testb	%al, %al
 1852 0083 75C3     		jne	.L68
 1853              		.loc 1 356 46 is_stmt 1 view .LVU367
 1854              		.loc 1 358 3 view .LVU368
 1855              		.loc 1 358 19 view .LVU369
 1856              		.loc 1 362 3 view .LVU370
 1857              	.LBB114:
 1858              		.loc 1 366 12 is_stmt 0 view .LVU371
 1859 0085 83EC08   		subl	$8, %esp
GAS LISTING /tmp/ccwdkvlB.s 			page 37


 1860              		.cfi_def_cfa_offset 56
 1861              	.LBE114:
 1862              		.loc 1 362 3 view .LVU372
 1863 0088 C7060300 		movl	$3, (%esi)
 1863      0000
 1864              	.LBB115:
 1865              		.loc 1 364 5 is_stmt 1 view .LVU373
 1866              		.loc 1 366 5 view .LVU374
 1867              		.loc 1 366 12 is_stmt 0 view .LVU375
 1868 008e 6A00     		pushl	$0
 1869              		.cfi_def_cfa_offset 60
 1870 0090 57       		pushl	%edi
 1871              		.cfi_def_cfa_offset 64
 1872 0091 E8FCFFFF 		call	chFactoryCreateSemaphore@PLT
 1872      FF
 1873              	.LVL118:
 1874              		.loc 1 367 5 is_stmt 1 view .LVU376
 1875 0096 5A       		popl	%edx
 1876              		.cfi_def_cfa_offset 60
 1877 0097 8D930000 		leal	.LC8@GOTOFF(%ebx), %edx
 1877      0000
 1878 009d 59       		popl	%ecx
 1879              		.cfi_def_cfa_offset 56
 1880 009e 85C0     		testl	%eax, %eax
 1881 00a0 52       		pushl	%edx
 1882              		.cfi_def_cfa_offset 60
 1883 00a1 0F94C0   		sete	%al
 1884              	.LVL119:
 1885              		.loc 1 367 5 is_stmt 0 view .LVU377
 1886 00a4 0FB6C0   		movzbl	%al, %eax
 1887 00a7 50       		pushl	%eax
 1888              		.cfi_def_cfa_offset 64
 1889 00a8 E8FCFFFF 		call	__test_assert@PLT
 1889      FF
 1890              	.LVL120:
 1891 00ad 83C410   		addl	$16, %esp
 1892              		.cfi_def_cfa_offset 48
 1893 00b0 84C0     		testb	%al, %al
 1894 00b2 7594     		jne	.L68
 1895              		.loc 1 367 44 is_stmt 1 view .LVU378
 1896              	.LBE115:
 1897              		.loc 1 369 3 view .LVU379
 1898              		.loc 1 369 19 view .LVU380
 1899              		.loc 1 374 3 view .LVU381
 1900              	.LBB116:
 1901              		.loc 1 378 12 is_stmt 0 view .LVU382
 1902 00b4 83EC0C   		subl	$12, %esp
 1903              		.cfi_def_cfa_offset 60
 1904              	.LBE116:
 1905              		.loc 1 374 3 view .LVU383
 1906 00b7 C7060400 		movl	$4, (%esi)
 1906      0000
 1907              	.LBB121:
 1908              		.loc 1 376 5 is_stmt 1 view .LVU384
 1909              		.loc 1 378 5 view .LVU385
 1910              		.loc 1 378 12 is_stmt 0 view .LVU386
 1911 00bd 57       		pushl	%edi
GAS LISTING /tmp/ccwdkvlB.s 			page 38


 1912              		.cfi_def_cfa_offset 64
 1913 00be E8FCFFFF 		call	chFactoryFindSemaphore@PLT
 1913      FF
 1914              	.LVL121:
 1915 00c3 89C2     		movl	%eax, %edx
 1916              	.LVL122:
 1917              		.loc 1 379 5 is_stmt 1 view .LVU387
 1918 00c5 58       		popl	%eax
 1919              		.cfi_def_cfa_offset 60
 1920              	.LVL123:
 1921              		.loc 1 379 5 is_stmt 0 view .LVU388
 1922 00c6 8D830000 		leal	.LC9@GOTOFF(%ebx), %eax
 1922      0000
 1923 00cc 59       		popl	%ecx
 1924              		.cfi_def_cfa_offset 56
 1925 00cd 50       		pushl	%eax
 1926              		.cfi_def_cfa_offset 60
 1927 00ce 31C0     		xorl	%eax, %eax
 1928 00d0 85D2     		testl	%edx, %edx
 1929 00d2 0F95C0   		setne	%al
 1930 00d5 89542414 		movl	%edx, 20(%esp)
 1931 00d9 50       		pushl	%eax
 1932              		.cfi_def_cfa_offset 64
 1933 00da E8FCFFFF 		call	__test_assert@PLT
 1933      FF
 1934              	.LVL124:
 1935              		.loc 1 379 5 view .LVU389
 1936 00df 83C410   		addl	$16, %esp
 1937              		.cfi_def_cfa_offset 48
 1938 00e2 84C0     		testb	%al, %al
 1939 00e4 0F855EFF 		jne	.L68
 1939      FFFF
 1940              		.loc 1 379 43 is_stmt 1 view .LVU390
 1941              		.loc 1 380 5 view .LVU391
 1942 00ea 83EC08   		subl	$8, %esp
 1943              		.cfi_def_cfa_offset 56
 1944 00ed 8D930000 		leal	.LC10@GOTOFF(%ebx), %edx
 1944      0000
 1945 00f3 31C0     		xorl	%eax, %eax
 1946 00f5 89542414 		movl	%edx, 20(%esp)
 1947 00f9 52       		pushl	%edx
 1948              		.cfi_def_cfa_offset 60
 1949 00fa 8B542414 		movl	20(%esp), %edx
 1950 00fe 39542410 		cmpl	%edx, 16(%esp)
 1951 0102 0F94C0   		sete	%al
 1952 0105 50       		pushl	%eax
 1953              		.cfi_def_cfa_offset 64
 1954 0106 E8FCFFFF 		call	__test_assert@PLT
 1954      FF
 1955              	.LVL125:
 1956 010b 83C410   		addl	$16, %esp
 1957              		.cfi_def_cfa_offset 48
 1958 010e 84C0     		testb	%al, %al
 1959 0110 0F8532FF 		jne	.L68
 1959      FFFF
 1960              		.loc 1 380 58 view .LVU392
 1961              		.loc 1 381 5 view .LVU393
GAS LISTING /tmp/ccwdkvlB.s 			page 39


 1962 0116 83EC08   		subl	$8, %esp
 1963              		.cfi_def_cfa_offset 56
 1964 0119 31C0     		xorl	%eax, %eax
 1965 011b FF742414 		pushl	20(%esp)
 1966              		.cfi_def_cfa_offset 60
 1967 011f 8B542414 		movl	20(%esp), %edx
 1968 0123 837A0402 		cmpl	$2, 4(%edx)
 1969 0127 0F94C0   		sete	%al
 1970 012a 50       		pushl	%eax
 1971              		.cfi_def_cfa_offset 64
 1972 012b E8FCFFFF 		call	__test_assert@PLT
 1972      FF
 1973              	.LVL126:
 1974 0130 83C410   		addl	$16, %esp
 1975              		.cfi_def_cfa_offset 48
 1976 0133 84C0     		testb	%al, %al
 1977 0135 0F850DFF 		jne	.L68
 1977      FFFF
 1978              		.loc 1 381 70 view .LVU394
 1979              		.loc 1 383 5 view .LVU395
 1980              	.LVL127:
 1981              	.LBB117:
 1982              	.LBI117:
 1983              		.loc 2 409 30 view .LVU396
 1984              	.LBB118:
 1985              		.loc 2 411 3 view .LVU397
 1986              		.loc 2 411 12 is_stmt 0 view .LVU398
 1987 013b 8B542408 		movl	8(%esp), %edx
 1988              	.LBE118:
 1989              	.LBE117:
 1990              		.loc 1 384 5 view .LVU399
 1991 013f 83EC08   		subl	$8, %esp
 1992              		.cfi_def_cfa_offset 56
 1993              	.LBB120:
 1994              	.LBB119:
 1995              		.loc 2 411 12 view .LVU400
 1996 0142 83420401 		addl	$1, 4(%edx)
 1997              		.loc 2 413 3 is_stmt 1 view .LVU401
 1998              	.LVL128:
 1999              		.loc 2 413 3 is_stmt 0 view .LVU402
 2000              	.LBE119:
 2001              	.LBE120:
 2002              		.loc 1 384 5 is_stmt 1 view .LVU403
 2003 0146 FF742414 		pushl	20(%esp)
 2004              		.cfi_def_cfa_offset 60
 2005 014a 6A01     		pushl	$1
 2006              		.cfi_def_cfa_offset 64
 2007 014c E8FCFFFF 		call	__test_assert@PLT
 2007      FF
 2008              	.LVL129:
 2009 0151 83C410   		addl	$16, %esp
 2010              		.cfi_def_cfa_offset 48
 2011 0154 84C0     		testb	%al, %al
 2012 0156 0F85ECFE 		jne	.L68
 2012      FFFF
 2013              		.loc 1 384 59 view .LVU404
 2014              		.loc 1 385 5 view .LVU405
GAS LISTING /tmp/ccwdkvlB.s 			page 40


 2015 015c 83EC08   		subl	$8, %esp
 2016              		.cfi_def_cfa_offset 56
 2017 015f 31C0     		xorl	%eax, %eax
 2018 0161 FF742414 		pushl	20(%esp)
 2019              		.cfi_def_cfa_offset 60
 2020 0165 8B542414 		movl	20(%esp), %edx
 2021 0169 837A0403 		cmpl	$3, 4(%edx)
 2022 016d 0F94C0   		sete	%al
 2023 0170 50       		pushl	%eax
 2024              		.cfi_def_cfa_offset 64
 2025 0171 E8FCFFFF 		call	__test_assert@PLT
 2025      FF
 2026              	.LVL130:
 2027 0176 83C410   		addl	$16, %esp
 2028              		.cfi_def_cfa_offset 48
 2029 0179 84C0     		testb	%al, %al
 2030 017b 0F85C7FE 		jne	.L68
 2030      FFFF
 2031              		.loc 1 385 70 view .LVU406
 2032              		.loc 1 387 5 view .LVU407
 2033 0181 83EC0C   		subl	$12, %esp
 2034              		.cfi_def_cfa_offset 60
 2035 0184 FF742414 		pushl	20(%esp)
 2036              		.cfi_def_cfa_offset 64
 2037 0188 E8FCFFFF 		call	chFactoryReleaseSemaphore@PLT
 2037      FF
 2038              	.LVL131:
 2039              		.loc 1 388 5 view .LVU408
 2040 018d 59       		popl	%ecx
 2041              		.cfi_def_cfa_offset 60
 2042 018e 8D930000 		leal	.LC11@GOTOFF(%ebx), %edx
 2042      0000
 2043 0194 58       		popl	%eax
 2044              		.cfi_def_cfa_offset 56
 2045 0195 89542414 		movl	%edx, 20(%esp)
 2046 0199 31C0     		xorl	%eax, %eax
 2047 019b 52       		pushl	%edx
 2048              		.cfi_def_cfa_offset 60
 2049 019c 8B542414 		movl	20(%esp), %edx
 2050 01a0 837A0402 		cmpl	$2, 4(%edx)
 2051 01a4 0F94C0   		sete	%al
 2052 01a7 50       		pushl	%eax
 2053              		.cfi_def_cfa_offset 64
 2054 01a8 E8FCFFFF 		call	__test_assert@PLT
 2054      FF
 2055              	.LVL132:
 2056 01ad 83C410   		addl	$16, %esp
 2057              		.cfi_def_cfa_offset 48
 2058 01b0 84C0     		testb	%al, %al
 2059 01b2 0F8590FE 		jne	.L68
 2059      FFFF
 2060              		.loc 1 388 64 view .LVU409
 2061              		.loc 1 390 5 view .LVU410
 2062 01b8 83EC0C   		subl	$12, %esp
 2063              		.cfi_def_cfa_offset 60
 2064 01bb FF742414 		pushl	20(%esp)
 2065              		.cfi_def_cfa_offset 64
GAS LISTING /tmp/ccwdkvlB.s 			page 41


 2066 01bf E8FCFFFF 		call	chFactoryReleaseSemaphore@PLT
 2066      FF
 2067              	.LVL133:
 2068              		.loc 1 391 5 view .LVU411
 2069 01c4 58       		popl	%eax
 2070              		.cfi_def_cfa_offset 60
 2071 01c5 5A       		popl	%edx
 2072              		.cfi_def_cfa_offset 56
 2073 01c6 FF742414 		pushl	20(%esp)
 2074              		.cfi_def_cfa_offset 60
 2075 01ca 8B442410 		movl	16(%esp), %eax
 2076 01ce 83780401 		cmpl	$1, 4(%eax)
 2077 01d2 0F94C0   		sete	%al
 2078 01d5 0FB6C0   		movzbl	%al, %eax
 2079 01d8 50       		pushl	%eax
 2080              		.cfi_def_cfa_offset 64
 2081 01d9 E8FCFFFF 		call	__test_assert@PLT
 2081      FF
 2082              	.LVL134:
 2083 01de 83C410   		addl	$16, %esp
 2084              		.cfi_def_cfa_offset 48
 2085 01e1 84C0     		testb	%al, %al
 2086 01e3 0F855FFE 		jne	.L68
 2086      FFFF
 2087              		.loc 1 391 63 view .LVU412
 2088              	.LBE121:
 2089              		.loc 1 393 3 view .LVU413
 2090              		.loc 1 393 19 view .LVU414
 2091              		.loc 1 397 3 view .LVU415
 2092              		.loc 1 399 5 is_stmt 0 view .LVU416
 2093 01e9 83EC0C   		subl	$12, %esp
 2094              		.cfi_def_cfa_offset 60
 2095              		.loc 1 397 3 view .LVU417
 2096 01ec C7060500 		movl	$5, (%esi)
 2096      0000
 2097              		.loc 1 399 5 is_stmt 1 view .LVU418
 2098 01f2 FF742410 		pushl	16(%esp)
 2099              		.cfi_def_cfa_offset 64
 2100 01f6 E8FCFFFF 		call	chFactoryReleaseSemaphore@PLT
 2100      FF
 2101              	.LVL135:
 2102              		.loc 1 401 3 view .LVU419
 2103              		.loc 1 401 19 view .LVU420
 2104              		.loc 1 405 3 view .LVU421
 2105              		.loc 1 407 11 is_stmt 0 view .LVU422
 2106 01fb 893C24   		movl	%edi, (%esp)
 2107              		.loc 1 405 3 view .LVU423
 2108 01fe C7060600 		movl	$6, (%esi)
 2108      0000
 2109              		.loc 1 407 5 is_stmt 1 view .LVU424
 2110              		.loc 1 407 11 is_stmt 0 view .LVU425
 2111 0204 E8FCFFFF 		call	chFactoryFindSemaphore@PLT
 2111      FF
 2112              	.LVL136:
 2113              		.loc 1 408 5 is_stmt 1 view .LVU426
 2114 0209 5A       		popl	%edx
 2115              		.cfi_def_cfa_offset 60
GAS LISTING /tmp/ccwdkvlB.s 			page 42


 2116 020a 59       		popl	%ecx
 2117              		.cfi_def_cfa_offset 56
 2118 020b 55       		pushl	%ebp
 2119              		.cfi_def_cfa_offset 60
 2120 020c 85C0     		testl	%eax, %eax
 2121 020e 0F94C0   		sete	%al
 2122              	.LVL137:
 2123              		.loc 1 408 5 is_stmt 0 view .LVU427
 2124 0211 0FB6C0   		movzbl	%al, %eax
 2125 0214 50       		pushl	%eax
 2126              		.cfi_def_cfa_offset 64
 2127 0215 E8FCFFFF 		call	__test_assert@PLT
 2127      FF
 2128              	.LVL138:
 2129 021a 83C410   		addl	$16, %esp
 2130              		.cfi_def_cfa_offset 48
 2131              	.LVL139:
 2132              		.loc 1 408 5 view .LVU428
 2133              	.LBE113:
 2134              	.LBE112:
 2135              		.loc 1 408 38 is_stmt 1 view .LVU429
 2136              		.loc 1 410 3 view .LVU430
 2137              		.loc 1 410 19 view .LVU431
 2138              	.LBB123:
 2139              	.LBB122:
 2140 021d E926FEFF 		jmp	.L68
 2140      FF
 2141              	.LBE122:
 2142              	.LBE123:
 2143              		.cfi_endproc
 2144              	.LFE308:
 2145              		.size	oslib_test_009_003_execute, .-oslib_test_009_003_execute
 2146              		.section	.text.oslib_test_009_002_execute,"ax",@progbits
 2147              		.p2align 4
 2148              		.type	oslib_test_009_002_execute, @function
 2149              	oslib_test_009_002_execute:
 2150              	.LFB306:
 2151              		.loc 1 220 46 view -0
 2152              		.cfi_startproc
 2153              		.loc 1 221 3 view .LVU433
 2154              		.loc 1 224 3 view .LVU434
 2155              		.loc 1 220 46 is_stmt 0 view .LVU435
 2156 0000 55       		pushl	%ebp
 2157              		.cfi_def_cfa_offset 8
 2158              		.cfi_offset 5, -8
 2159 0001 57       		pushl	%edi
 2160              		.cfi_def_cfa_offset 12
 2161              		.cfi_offset 7, -12
 2162 0002 56       		pushl	%esi
 2163              		.cfi_def_cfa_offset 16
 2164              		.cfi_offset 6, -16
 2165 0003 53       		pushl	%ebx
 2166              		.cfi_def_cfa_offset 20
 2167              		.cfi_offset 3, -20
 2168 0004 E8FCFFFF 		call	__x86.get_pc_thunk.bx
 2168      FF
 2169 0009 81C30200 		addl	$_GLOBAL_OFFSET_TABLE_, %ebx
GAS LISTING /tmp/ccwdkvlB.s 			page 43


 2169      0000
 2170 000f 83EC28   		subl	$40, %esp
 2171              		.cfi_def_cfa_offset 60
 2172              		.loc 1 226 11 view .LVU436
 2173 0012 8DBB0000 		leal	.LC4@GOTOFF(%ebx), %edi
 2173      0000
 2174              		.loc 1 224 3 view .LVU437
 2175 0018 8BB30000 		movl	chtest@GOT(%ebx), %esi
 2175      0000
 2176              		.loc 1 226 11 view .LVU438
 2177 001e 57       		pushl	%edi
 2178              		.cfi_def_cfa_offset 64
 2179              		.loc 1 224 3 view .LVU439
 2180 001f C7060100 		movl	$1, (%esi)
 2180      0000
 2181              		.loc 1 226 5 is_stmt 1 view .LVU440
 2182              		.loc 1 226 11 is_stmt 0 view .LVU441
 2183 0025 E8FCFFFF 		call	chFactoryFindBuffer@PLT
 2183      FF
 2184              	.LVL140:
 2185              		.loc 1 227 5 is_stmt 1 view .LVU442
 2186 002a 59       		popl	%ecx
 2187              		.cfi_def_cfa_offset 60
 2188 002b 5D       		popl	%ebp
 2189              		.cfi_def_cfa_offset 56
 2190 002c 8DAB0000 		leal	.LC6@GOTOFF(%ebx), %ebp
 2190      0000
 2191 0032 85C0     		testl	%eax, %eax
 2192 0034 55       		pushl	%ebp
 2193              		.cfi_def_cfa_offset 60
 2194 0035 0F94C0   		sete	%al
 2195              	.LVL141:
 2196              		.loc 1 227 5 is_stmt 0 view .LVU443
 2197 0038 0FB6C0   		movzbl	%al, %eax
 2198 003b 50       		pushl	%eax
 2199              		.cfi_def_cfa_offset 64
 2200 003c E8FCFFFF 		call	__test_assert@PLT
 2200      FF
 2201              	.LVL142:
 2202 0041 83C410   		addl	$16, %esp
 2203              		.cfi_def_cfa_offset 48
 2204 0044 84C0     		testb	%al, %al
 2205 0046 7408     		je	.L79
 2206              	.L74:
 2207              		.loc 1 290 1 view .LVU444
 2208 0048 83C41C   		addl	$28, %esp
 2209              		.cfi_remember_state
 2210              		.cfi_def_cfa_offset 20
 2211 004b 5B       		popl	%ebx
 2212              		.cfi_restore 3
 2213              		.cfi_def_cfa_offset 16
 2214 004c 5E       		popl	%esi
 2215              		.cfi_restore 6
 2216              		.cfi_def_cfa_offset 12
 2217 004d 5F       		popl	%edi
 2218              		.cfi_restore 7
 2219              		.cfi_def_cfa_offset 8
GAS LISTING /tmp/ccwdkvlB.s 			page 44


 2220 004e 5D       		popl	%ebp
 2221              		.cfi_restore 5
 2222              		.cfi_def_cfa_offset 4
 2223 004f C3       		ret
 2224              		.p2align 4,,10
 2225              		.p2align 3
 2226              	.L79:
 2227              		.cfi_restore_state
 2228              	.LBB130:
 2229              	.LBI130:
 2230              		.loc 1 220 13 is_stmt 1 view .LVU445
 2231              	.LBB131:
 2232              		.loc 1 227 38 view .LVU446
 2233              		.loc 1 229 3 view .LVU447
 2234              		.loc 1 229 19 view .LVU448
 2235              		.loc 1 233 3 view .LVU449
 2236              		.loc 1 235 11 is_stmt 0 view .LVU450
 2237 0050 83EC08   		subl	$8, %esp
 2238              		.cfi_def_cfa_offset 56
 2239              		.loc 1 233 3 view .LVU451
 2240 0053 C7060200 		movl	$2, (%esi)
 2240      0000
 2241              		.loc 1 235 5 is_stmt 1 view .LVU452
 2242              		.loc 1 235 11 is_stmt 0 view .LVU453
 2243 0059 68800000 		pushl	$128
 2243      00
 2244              		.cfi_def_cfa_offset 60
 2245 005e 57       		pushl	%edi
 2246              		.cfi_def_cfa_offset 64
 2247 005f E8FCFFFF 		call	chFactoryCreateBuffer@PLT
 2247      FF
 2248              	.LVL143:
 2249 0064 89C1     		movl	%eax, %ecx
 2250              	.LVL144:
 2251              		.loc 1 236 5 is_stmt 1 view .LVU454
 2252 0066 58       		popl	%eax
 2253              		.cfi_def_cfa_offset 60
 2254              	.LVL145:
 2255              		.loc 1 236 5 is_stmt 0 view .LVU455
 2256 0067 8D830000 		leal	.LC7@GOTOFF(%ebx), %eax
 2256      0000
 2257 006d 5A       		popl	%edx
 2258              		.cfi_def_cfa_offset 56
 2259 006e 85C9     		testl	%ecx, %ecx
 2260 0070 50       		pushl	%eax
 2261              		.cfi_def_cfa_offset 60
 2262 0071 0F95C0   		setne	%al
 2263 0074 0FB6C0   		movzbl	%al, %eax
 2264 0077 894C2410 		movl	%ecx, 16(%esp)
 2265 007b 50       		pushl	%eax
 2266              		.cfi_def_cfa_offset 64
 2267 007c E8FCFFFF 		call	__test_assert@PLT
 2267      FF
 2268              	.LVL146:
 2269              		.loc 1 236 5 view .LVU456
 2270 0081 83C410   		addl	$16, %esp
 2271              		.cfi_def_cfa_offset 48
GAS LISTING /tmp/ccwdkvlB.s 			page 45


 2272 0084 84C0     		testb	%al, %al
 2273 0086 75C0     		jne	.L74
 2274              		.loc 1 236 46 is_stmt 1 view .LVU457
 2275              		.loc 1 238 3 view .LVU458
 2276              		.loc 1 238 19 view .LVU459
 2277              		.loc 1 241 3 view .LVU460
 2278              	.LBB132:
 2279              		.loc 1 245 12 is_stmt 0 view .LVU461
 2280 0088 83EC08   		subl	$8, %esp
 2281              		.cfi_def_cfa_offset 56
 2282              	.LBE132:
 2283              		.loc 1 241 3 view .LVU462
 2284 008b C7060300 		movl	$3, (%esi)
 2284      0000
 2285              	.LBB133:
 2286              		.loc 1 243 5 is_stmt 1 view .LVU463
 2287              		.loc 1 245 5 view .LVU464
 2288              		.loc 1 245 12 is_stmt 0 view .LVU465
 2289 0091 68800000 		pushl	$128
 2289      00
 2290              		.cfi_def_cfa_offset 60
 2291 0096 57       		pushl	%edi
 2292              		.cfi_def_cfa_offset 64
 2293 0097 E8FCFFFF 		call	chFactoryCreateBuffer@PLT
 2293      FF
 2294              	.LVL147:
 2295              		.loc 1 246 5 is_stmt 1 view .LVU466
 2296 009c 5A       		popl	%edx
 2297              		.cfi_def_cfa_offset 60
 2298 009d 8D930000 		leal	.LC8@GOTOFF(%ebx), %edx
 2298      0000
 2299 00a3 59       		popl	%ecx
 2300              		.cfi_def_cfa_offset 56
 2301 00a4 85C0     		testl	%eax, %eax
 2302 00a6 52       		pushl	%edx
 2303              		.cfi_def_cfa_offset 60
 2304 00a7 0F94C0   		sete	%al
 2305              	.LVL148:
 2306              		.loc 1 246 5 is_stmt 0 view .LVU467
 2307 00aa 0FB6C0   		movzbl	%al, %eax
 2308 00ad 50       		pushl	%eax
 2309              		.cfi_def_cfa_offset 64
 2310 00ae E8FCFFFF 		call	__test_assert@PLT
 2310      FF
 2311              	.LVL149:
 2312 00b3 83C410   		addl	$16, %esp
 2313              		.cfi_def_cfa_offset 48
 2314 00b6 84C0     		testb	%al, %al
 2315 00b8 758E     		jne	.L74
 2316              		.loc 1 246 44 is_stmt 1 view .LVU468
 2317              	.LBE133:
 2318              		.loc 1 248 3 view .LVU469
 2319              		.loc 1 248 19 view .LVU470
 2320              		.loc 1 253 3 view .LVU471
 2321              	.LBB134:
 2322              		.loc 1 257 12 is_stmt 0 view .LVU472
 2323 00ba 83EC0C   		subl	$12, %esp
GAS LISTING /tmp/ccwdkvlB.s 			page 46


 2324              		.cfi_def_cfa_offset 60
 2325              	.LBE134:
 2326              		.loc 1 253 3 view .LVU473
 2327 00bd C7060400 		movl	$4, (%esi)
 2327      0000
 2328              	.LBB139:
 2329              		.loc 1 255 5 is_stmt 1 view .LVU474
 2330              		.loc 1 257 5 view .LVU475
 2331              		.loc 1 257 12 is_stmt 0 view .LVU476
 2332 00c3 57       		pushl	%edi
 2333              		.cfi_def_cfa_offset 64
 2334 00c4 E8FCFFFF 		call	chFactoryFindBuffer@PLT
 2334      FF
 2335              	.LVL150:
 2336 00c9 89C2     		movl	%eax, %edx
 2337              	.LVL151:
 2338              		.loc 1 258 5 is_stmt 1 view .LVU477
 2339 00cb 58       		popl	%eax
 2340              		.cfi_def_cfa_offset 60
 2341              	.LVL152:
 2342              		.loc 1 258 5 is_stmt 0 view .LVU478
 2343 00cc 8D830000 		leal	.LC9@GOTOFF(%ebx), %eax
 2343      0000
 2344 00d2 59       		popl	%ecx
 2345              		.cfi_def_cfa_offset 56
 2346 00d3 50       		pushl	%eax
 2347              		.cfi_def_cfa_offset 60
 2348 00d4 31C0     		xorl	%eax, %eax
 2349 00d6 85D2     		testl	%edx, %edx
 2350 00d8 0F95C0   		setne	%al
 2351 00db 89542414 		movl	%edx, 20(%esp)
 2352 00df 50       		pushl	%eax
 2353              		.cfi_def_cfa_offset 64
 2354 00e0 E8FCFFFF 		call	__test_assert@PLT
 2354      FF
 2355              	.LVL153:
 2356              		.loc 1 258 5 view .LVU479
 2357 00e5 83C410   		addl	$16, %esp
 2358              		.cfi_def_cfa_offset 48
 2359 00e8 84C0     		testb	%al, %al
 2360 00ea 0F8558FF 		jne	.L74
 2360      FFFF
 2361              		.loc 1 258 43 is_stmt 1 view .LVU480
 2362              		.loc 1 259 5 view .LVU481
 2363 00f0 83EC08   		subl	$8, %esp
 2364              		.cfi_def_cfa_offset 56
 2365 00f3 8D930000 		leal	.LC10@GOTOFF(%ebx), %edx
 2365      0000
 2366 00f9 31C0     		xorl	%eax, %eax
 2367 00fb 89542414 		movl	%edx, 20(%esp)
 2368 00ff 52       		pushl	%edx
 2369              		.cfi_def_cfa_offset 60
 2370 0100 8B542414 		movl	20(%esp), %edx
 2371 0104 39542410 		cmpl	%edx, 16(%esp)
 2372 0108 0F94C0   		sete	%al
 2373 010b 50       		pushl	%eax
 2374              		.cfi_def_cfa_offset 64
GAS LISTING /tmp/ccwdkvlB.s 			page 47


 2375 010c E8FCFFFF 		call	__test_assert@PLT
 2375      FF
 2376              	.LVL154:
 2377 0111 83C410   		addl	$16, %esp
 2378              		.cfi_def_cfa_offset 48
 2379 0114 84C0     		testb	%al, %al
 2380 0116 0F852CFF 		jne	.L74
 2380      FFFF
 2381              		.loc 1 259 58 view .LVU482
 2382              		.loc 1 260 5 view .LVU483
 2383 011c 83EC08   		subl	$8, %esp
 2384              		.cfi_def_cfa_offset 56
 2385 011f 31C0     		xorl	%eax, %eax
 2386 0121 FF742414 		pushl	20(%esp)
 2387              		.cfi_def_cfa_offset 60
 2388 0125 8B542414 		movl	20(%esp), %edx
 2389 0129 837A0402 		cmpl	$2, 4(%edx)
 2390 012d 0F94C0   		sete	%al
 2391 0130 50       		pushl	%eax
 2392              		.cfi_def_cfa_offset 64
 2393 0131 E8FCFFFF 		call	__test_assert@PLT
 2393      FF
 2394              	.LVL155:
 2395 0136 83C410   		addl	$16, %esp
 2396              		.cfi_def_cfa_offset 48
 2397 0139 84C0     		testb	%al, %al
 2398 013b 0F8507FF 		jne	.L74
 2398      FFFF
 2399              		.loc 1 260 70 view .LVU484
 2400              		.loc 1 262 5 view .LVU485
 2401              	.LVL156:
 2402              	.LBB135:
 2403              	.LBI135:
 2404              		.loc 2 409 30 view .LVU486
 2405              	.LBB136:
 2406              		.loc 2 411 3 view .LVU487
 2407              		.loc 2 411 12 is_stmt 0 view .LVU488
 2408 0141 8B542408 		movl	8(%esp), %edx
 2409              	.LBE136:
 2410              	.LBE135:
 2411              		.loc 1 263 5 view .LVU489
 2412 0145 83EC08   		subl	$8, %esp
 2413              		.cfi_def_cfa_offset 56
 2414              	.LBB138:
 2415              	.LBB137:
 2416              		.loc 2 411 12 view .LVU490
 2417 0148 83420401 		addl	$1, 4(%edx)
 2418              		.loc 2 413 3 is_stmt 1 view .LVU491
 2419              	.LVL157:
 2420              		.loc 2 413 3 is_stmt 0 view .LVU492
 2421              	.LBE137:
 2422              	.LBE138:
 2423              		.loc 1 263 5 is_stmt 1 view .LVU493
 2424 014c FF742414 		pushl	20(%esp)
 2425              		.cfi_def_cfa_offset 60
 2426 0150 6A01     		pushl	$1
 2427              		.cfi_def_cfa_offset 64
GAS LISTING /tmp/ccwdkvlB.s 			page 48


 2428 0152 E8FCFFFF 		call	__test_assert@PLT
 2428      FF
 2429              	.LVL158:
 2430 0157 83C410   		addl	$16, %esp
 2431              		.cfi_def_cfa_offset 48
 2432 015a 84C0     		testb	%al, %al
 2433 015c 0F85E6FE 		jne	.L74
 2433      FFFF
 2434              		.loc 1 263 59 view .LVU494
 2435              		.loc 1 264 5 view .LVU495
 2436 0162 83EC08   		subl	$8, %esp
 2437              		.cfi_def_cfa_offset 56
 2438 0165 31C0     		xorl	%eax, %eax
 2439 0167 FF742414 		pushl	20(%esp)
 2440              		.cfi_def_cfa_offset 60
 2441 016b 8B542414 		movl	20(%esp), %edx
 2442 016f 837A0403 		cmpl	$3, 4(%edx)
 2443 0173 0F94C0   		sete	%al
 2444 0176 50       		pushl	%eax
 2445              		.cfi_def_cfa_offset 64
 2446 0177 E8FCFFFF 		call	__test_assert@PLT
 2446      FF
 2447              	.LVL159:
 2448 017c 83C410   		addl	$16, %esp
 2449              		.cfi_def_cfa_offset 48
 2450 017f 84C0     		testb	%al, %al
 2451 0181 0F85C1FE 		jne	.L74
 2451      FFFF
 2452              		.loc 1 264 70 view .LVU496
 2453              		.loc 1 266 5 view .LVU497
 2454 0187 83EC0C   		subl	$12, %esp
 2455              		.cfi_def_cfa_offset 60
 2456 018a FF742414 		pushl	20(%esp)
 2457              		.cfi_def_cfa_offset 64
 2458 018e E8FCFFFF 		call	chFactoryReleaseBuffer@PLT
 2458      FF
 2459              	.LVL160:
 2460              		.loc 1 267 5 view .LVU498
 2461 0193 59       		popl	%ecx
 2462              		.cfi_def_cfa_offset 60
 2463 0194 8D930000 		leal	.LC11@GOTOFF(%ebx), %edx
 2463      0000
 2464 019a 58       		popl	%eax
 2465              		.cfi_def_cfa_offset 56
 2466 019b 89542414 		movl	%edx, 20(%esp)
 2467 019f 31C0     		xorl	%eax, %eax
 2468 01a1 52       		pushl	%edx
 2469              		.cfi_def_cfa_offset 60
 2470 01a2 8B542414 		movl	20(%esp), %edx
 2471 01a6 837A0402 		cmpl	$2, 4(%edx)
 2472 01aa 0F94C0   		sete	%al
 2473 01ad 50       		pushl	%eax
 2474              		.cfi_def_cfa_offset 64
 2475 01ae E8FCFFFF 		call	__test_assert@PLT
 2475      FF
 2476              	.LVL161:
 2477 01b3 83C410   		addl	$16, %esp
GAS LISTING /tmp/ccwdkvlB.s 			page 49


 2478              		.cfi_def_cfa_offset 48
 2479 01b6 84C0     		testb	%al, %al
 2480 01b8 0F858AFE 		jne	.L74
 2480      FFFF
 2481              		.loc 1 267 64 view .LVU499
 2482              		.loc 1 269 5 view .LVU500
 2483 01be 83EC0C   		subl	$12, %esp
 2484              		.cfi_def_cfa_offset 60
 2485 01c1 FF742414 		pushl	20(%esp)
 2486              		.cfi_def_cfa_offset 64
 2487 01c5 E8FCFFFF 		call	chFactoryReleaseBuffer@PLT
 2487      FF
 2488              	.LVL162:
 2489              		.loc 1 270 5 view .LVU501
 2490 01ca 58       		popl	%eax
 2491              		.cfi_def_cfa_offset 60
 2492 01cb 5A       		popl	%edx
 2493              		.cfi_def_cfa_offset 56
 2494 01cc FF742414 		pushl	20(%esp)
 2495              		.cfi_def_cfa_offset 60
 2496 01d0 8B442410 		movl	16(%esp), %eax
 2497 01d4 83780401 		cmpl	$1, 4(%eax)
 2498 01d8 0F94C0   		sete	%al
 2499 01db 0FB6C0   		movzbl	%al, %eax
 2500 01de 50       		pushl	%eax
 2501              		.cfi_def_cfa_offset 64
 2502 01df E8FCFFFF 		call	__test_assert@PLT
 2502      FF
 2503              	.LVL163:
 2504 01e4 83C410   		addl	$16, %esp
 2505              		.cfi_def_cfa_offset 48
 2506 01e7 84C0     		testb	%al, %al
 2507 01e9 0F8559FE 		jne	.L74
 2507      FFFF
 2508              		.loc 1 270 63 view .LVU502
 2509              	.LBE139:
 2510              		.loc 1 272 3 view .LVU503
 2511              		.loc 1 272 19 view .LVU504
 2512              		.loc 1 276 3 view .LVU505
 2513              		.loc 1 278 5 is_stmt 0 view .LVU506
 2514 01ef 83EC0C   		subl	$12, %esp
 2515              		.cfi_def_cfa_offset 60
 2516              		.loc 1 276 3 view .LVU507
 2517 01f2 C7060500 		movl	$5, (%esi)
 2517      0000
 2518              		.loc 1 278 5 is_stmt 1 view .LVU508
 2519 01f8 FF742410 		pushl	16(%esp)
 2520              		.cfi_def_cfa_offset 64
 2521 01fc E8FCFFFF 		call	chFactoryReleaseBuffer@PLT
 2521      FF
 2522              	.LVL164:
 2523              		.loc 1 280 3 view .LVU509
 2524              		.loc 1 280 19 view .LVU510
 2525              		.loc 1 284 3 view .LVU511
 2526              		.loc 1 286 11 is_stmt 0 view .LVU512
 2527 0201 893C24   		movl	%edi, (%esp)
 2528              		.loc 1 284 3 view .LVU513
GAS LISTING /tmp/ccwdkvlB.s 			page 50


 2529 0204 C7060600 		movl	$6, (%esi)
 2529      0000
 2530              		.loc 1 286 5 is_stmt 1 view .LVU514
 2531              		.loc 1 286 11 is_stmt 0 view .LVU515
 2532 020a E8FCFFFF 		call	chFactoryFindBuffer@PLT
 2532      FF
 2533              	.LVL165:
 2534              		.loc 1 287 5 is_stmt 1 view .LVU516
 2535 020f 5A       		popl	%edx
 2536              		.cfi_def_cfa_offset 60
 2537 0210 59       		popl	%ecx
 2538              		.cfi_def_cfa_offset 56
 2539 0211 55       		pushl	%ebp
 2540              		.cfi_def_cfa_offset 60
 2541 0212 85C0     		testl	%eax, %eax
 2542 0214 0F94C0   		sete	%al
 2543              	.LVL166:
 2544              		.loc 1 287 5 is_stmt 0 view .LVU517
 2545 0217 0FB6C0   		movzbl	%al, %eax
 2546 021a 50       		pushl	%eax
 2547              		.cfi_def_cfa_offset 64
 2548 021b E8FCFFFF 		call	__test_assert@PLT
 2548      FF
 2549              	.LVL167:
 2550 0220 83C410   		addl	$16, %esp
 2551              		.cfi_def_cfa_offset 48
 2552              	.LVL168:
 2553              		.loc 1 287 5 view .LVU518
 2554              	.LBE131:
 2555              	.LBE130:
 2556              		.loc 1 287 38 is_stmt 1 view .LVU519
 2557              		.loc 1 289 3 view .LVU520
 2558              		.loc 1 289 19 view .LVU521
 2559              	.LBB141:
 2560              	.LBB140:
 2561 0223 E920FEFF 		jmp	.L74
 2561      FF
 2562              	.LBE140:
 2563              	.LBE141:
 2564              		.cfi_endproc
 2565              	.LFE306:
 2566              		.size	oslib_test_009_002_execute, .-oslib_test_009_002_execute
 2567              		.section	.rodata.oslib_test_009_001_execute.str1.1,"aMS",@progbits,1
 2568              	.LC12:
 2569 0000 63616E6E 		.string	"cannot register"
 2569      6F742072 
 2569      65676973 
 2569      74657200 
 2570              	.LC13:
 2571 0010 63616E20 		.string	"can register"
 2571      72656769 
 2571      73746572 
 2571      00
 2572              	.LC14:
 2573 001d 6F626A65 		.string	"object mismatch"
 2573      6374206D 
 2573      69736D61 
GAS LISTING /tmp/ccwdkvlB.s 			page 51


 2573      74636800 
 2574              		.section	.text.oslib_test_009_001_execute,"ax",@progbits
 2575              		.p2align 4
 2576              		.type	oslib_test_009_001_execute, @function
 2577              	oslib_test_009_001_execute:
 2578              	.LFB304:
 2579              		.loc 1 97 46 view -0
 2580              		.cfi_startproc
 2581              		.loc 1 98 3 view .LVU523
 2582              		.loc 1 101 3 view .LVU524
 2583              		.loc 1 97 46 is_stmt 0 view .LVU525
 2584 0000 55       		pushl	%ebp
 2585              		.cfi_def_cfa_offset 8
 2586              		.cfi_offset 5, -8
 2587 0001 57       		pushl	%edi
 2588              		.cfi_def_cfa_offset 12
 2589              		.cfi_offset 7, -12
 2590 0002 56       		pushl	%esi
 2591              		.cfi_def_cfa_offset 16
 2592              		.cfi_offset 6, -16
 2593 0003 53       		pushl	%ebx
 2594              		.cfi_def_cfa_offset 20
 2595              		.cfi_offset 3, -20
 2596 0004 E8FCFFFF 		call	__x86.get_pc_thunk.bx
 2596      FF
 2597 0009 81C30200 		addl	$_GLOBAL_OFFSET_TABLE_, %ebx
 2597      0000
 2598 000f 83EC28   		subl	$40, %esp
 2599              		.cfi_def_cfa_offset 60
 2600              		.loc 1 103 11 view .LVU526
 2601 0012 8DBB0000 		leal	.LC5@GOTOFF(%ebx), %edi
 2601      0000
 2602              		.loc 1 101 3 view .LVU527
 2603 0018 8BB30000 		movl	chtest@GOT(%ebx), %esi
 2603      0000
 2604              		.loc 1 103 11 view .LVU528
 2605 001e 57       		pushl	%edi
 2606              		.cfi_def_cfa_offset 64
 2607              		.loc 1 101 3 view .LVU529
 2608 001f C7060100 		movl	$1, (%esi)
 2608      0000
 2609              		.loc 1 103 5 is_stmt 1 view .LVU530
 2610              		.loc 1 103 11 is_stmt 0 view .LVU531
 2611 0025 E8FCFFFF 		call	chFactoryFindObject@PLT
 2611      FF
 2612              	.LVL169:
 2613              		.loc 1 104 5 is_stmt 1 view .LVU532
 2614 002a 59       		popl	%ecx
 2615              		.cfi_def_cfa_offset 60
 2616 002b 5D       		popl	%ebp
 2617              		.cfi_def_cfa_offset 56
 2618 002c 8DAB0000 		leal	.LC6@GOTOFF(%ebx), %ebp
 2618      0000
 2619 0032 85C0     		testl	%eax, %eax
 2620 0034 55       		pushl	%ebp
 2621              		.cfi_def_cfa_offset 60
 2622 0035 0F94C0   		sete	%al
GAS LISTING /tmp/ccwdkvlB.s 			page 52


 2623              	.LVL170:
 2624              		.loc 1 104 5 is_stmt 0 view .LVU533
 2625 0038 0FB6C0   		movzbl	%al, %eax
 2626 003b 50       		pushl	%eax
 2627              		.cfi_def_cfa_offset 64
 2628 003c E8FCFFFF 		call	__test_assert@PLT
 2628      FF
 2629              	.LVL171:
 2630 0041 83C410   		addl	$16, %esp
 2631              		.cfi_def_cfa_offset 48
 2632 0044 84C0     		testb	%al, %al
 2633 0046 7408     		je	.L85
 2634              	.L80:
 2635              		.loc 1 171 1 view .LVU534
 2636 0048 83C41C   		addl	$28, %esp
 2637              		.cfi_remember_state
 2638              		.cfi_def_cfa_offset 20
 2639 004b 5B       		popl	%ebx
 2640              		.cfi_restore 3
 2641              		.cfi_def_cfa_offset 16
 2642 004c 5E       		popl	%esi
 2643              		.cfi_restore 6
 2644              		.cfi_def_cfa_offset 12
 2645 004d 5F       		popl	%edi
 2646              		.cfi_restore 7
 2647              		.cfi_def_cfa_offset 8
 2648 004e 5D       		popl	%ebp
 2649              		.cfi_restore 5
 2650              		.cfi_def_cfa_offset 4
 2651 004f C3       		ret
 2652              		.p2align 4,,10
 2653              		.p2align 3
 2654              	.L85:
 2655              		.cfi_restore_state
 2656              	.LBB149:
 2657              	.LBI149:
 2658              		.loc 1 97 13 is_stmt 1 view .LVU535
 2659              	.LBB150:
 2660              		.loc 1 104 38 view .LVU536
 2661              		.loc 1 106 3 view .LVU537
 2662              		.loc 1 106 19 view .LVU538
 2663              		.loc 1 109 3 view .LVU539
 2664              	.LBB151:
 2665              		.loc 1 113 11 is_stmt 0 view .LVU540
 2666 0050 83EC08   		subl	$8, %esp
 2667              		.cfi_def_cfa_offset 56
 2668 0053 8D830000 		leal	myobj.1@GOTOFF(%ebx), %eax
 2668      0000
 2669              	.LBE151:
 2670              		.loc 1 109 3 view .LVU541
 2671 0059 C7060200 		movl	$2, (%esi)
 2671      0000
 2672              	.LBB152:
 2673              		.loc 1 111 5 is_stmt 1 view .LVU542
 2674              		.loc 1 113 5 view .LVU543
 2675              		.loc 1 113 11 is_stmt 0 view .LVU544
 2676 005f 50       		pushl	%eax
GAS LISTING /tmp/ccwdkvlB.s 			page 53


 2677              		.cfi_def_cfa_offset 60
 2678 0060 57       		pushl	%edi
 2679              		.cfi_def_cfa_offset 64
 2680 0061 E8FCFFFF 		call	chFactoryRegisterObject@PLT
 2680      FF
 2681              	.LVL172:
 2682 0066 89C1     		movl	%eax, %ecx
 2683              	.LVL173:
 2684              		.loc 1 114 5 is_stmt 1 view .LVU545
 2685 0068 58       		popl	%eax
 2686              		.cfi_def_cfa_offset 60
 2687              	.LVL174:
 2688              		.loc 1 114 5 is_stmt 0 view .LVU546
 2689 0069 8D830000 		leal	.LC12@GOTOFF(%ebx), %eax
 2689      0000
 2690 006f 5A       		popl	%edx
 2691              		.cfi_def_cfa_offset 56
 2692 0070 85C9     		testl	%ecx, %ecx
 2693 0072 50       		pushl	%eax
 2694              		.cfi_def_cfa_offset 60
 2695 0073 0F95C0   		setne	%al
 2696 0076 0FB6C0   		movzbl	%al, %eax
 2697 0079 894C240C 		movl	%ecx, 12(%esp)
 2698 007d 50       		pushl	%eax
 2699              		.cfi_def_cfa_offset 64
 2700 007e E8FCFFFF 		call	__test_assert@PLT
 2700      FF
 2701              	.LVL175:
 2702              		.loc 1 114 5 view .LVU547
 2703 0083 83C410   		addl	$16, %esp
 2704              		.cfi_def_cfa_offset 48
 2705 0086 84C0     		testb	%al, %al
 2706 0088 75BE     		jne	.L80
 2707              		.loc 1 114 48 is_stmt 1 view .LVU548
 2708              	.LBE152:
 2709              		.loc 1 116 3 view .LVU549
 2710              		.loc 1 116 19 view .LVU550
 2711              		.loc 1 119 3 view .LVU551
 2712              	.LBB153:
 2713              		.loc 1 124 12 is_stmt 0 view .LVU552
 2714 008a 83EC08   		subl	$8, %esp
 2715              		.cfi_def_cfa_offset 56
 2716 008d 8D830000 		leal	myobj.0@GOTOFF(%ebx), %eax
 2716      0000
 2717              	.LBE153:
 2718              		.loc 1 119 3 view .LVU553
 2719 0093 C7060300 		movl	$3, (%esi)
 2719      0000
 2720              	.LBB154:
 2721              		.loc 1 121 5 is_stmt 1 view .LVU554
 2722              		.loc 1 122 5 view .LVU555
 2723              		.loc 1 124 5 view .LVU556
 2724              		.loc 1 124 12 is_stmt 0 view .LVU557
 2725 0099 50       		pushl	%eax
 2726              		.cfi_def_cfa_offset 60
 2727 009a 57       		pushl	%edi
 2728              		.cfi_def_cfa_offset 64
GAS LISTING /tmp/ccwdkvlB.s 			page 54


 2729 009b E8FCFFFF 		call	chFactoryRegisterObject@PLT
 2729      FF
 2730              	.LVL176:
 2731              		.loc 1 125 5 is_stmt 1 view .LVU558
 2732 00a0 5A       		popl	%edx
 2733              		.cfi_def_cfa_offset 60
 2734 00a1 8D930000 		leal	.LC13@GOTOFF(%ebx), %edx
 2734      0000
 2735 00a7 59       		popl	%ecx
 2736              		.cfi_def_cfa_offset 56
 2737 00a8 85C0     		testl	%eax, %eax
 2738 00aa 52       		pushl	%edx
 2739              		.cfi_def_cfa_offset 60
 2740 00ab 0F94C0   		sete	%al
 2741              	.LVL177:
 2742              		.loc 1 125 5 is_stmt 0 view .LVU559
 2743 00ae 0FB6C0   		movzbl	%al, %eax
 2744 00b1 50       		pushl	%eax
 2745              		.cfi_def_cfa_offset 64
 2746 00b2 E8FCFFFF 		call	__test_assert@PLT
 2746      FF
 2747              	.LVL178:
 2748 00b7 83C410   		addl	$16, %esp
 2749              		.cfi_def_cfa_offset 48
 2750 00ba 84C0     		testb	%al, %al
 2751 00bc 758A     		jne	.L80
 2752              		.loc 1 125 46 is_stmt 1 view .LVU560
 2753              	.LBE154:
 2754              		.loc 1 127 3 view .LVU561
 2755              		.loc 1 127 19 view .LVU562
 2756              		.loc 1 132 3 view .LVU563
 2757              	.LBB155:
 2758              		.loc 1 136 12 is_stmt 0 view .LVU564
 2759 00be 83EC0C   		subl	$12, %esp
 2760              		.cfi_def_cfa_offset 60
 2761              	.LBE155:
 2762              		.loc 1 132 3 view .LVU565
 2763 00c1 C7060400 		movl	$4, (%esi)
 2763      0000
 2764              	.LBB160:
 2765              		.loc 1 134 5 is_stmt 1 view .LVU566
 2766              		.loc 1 136 5 view .LVU567
 2767              		.loc 1 136 12 is_stmt 0 view .LVU568
 2768 00c7 57       		pushl	%edi
 2769              		.cfi_def_cfa_offset 64
 2770 00c8 E8FCFFFF 		call	chFactoryFindObject@PLT
 2770      FF
 2771              	.LVL179:
 2772 00cd 89C2     		movl	%eax, %edx
 2773              	.LVL180:
 2774              		.loc 1 137 5 is_stmt 1 view .LVU569
 2775 00cf 58       		popl	%eax
 2776              		.cfi_def_cfa_offset 60
 2777              	.LVL181:
 2778              		.loc 1 137 5 is_stmt 0 view .LVU570
 2779 00d0 8D830000 		leal	.LC9@GOTOFF(%ebx), %eax
 2779      0000
GAS LISTING /tmp/ccwdkvlB.s 			page 55


 2780 00d6 59       		popl	%ecx
 2781              		.cfi_def_cfa_offset 56
 2782 00d7 50       		pushl	%eax
 2783              		.cfi_def_cfa_offset 60
 2784 00d8 31C0     		xorl	%eax, %eax
 2785 00da 85D2     		testl	%edx, %edx
 2786 00dc 0F95C0   		setne	%al
 2787 00df 89542410 		movl	%edx, 16(%esp)
 2788 00e3 50       		pushl	%eax
 2789              		.cfi_def_cfa_offset 64
 2790 00e4 E8FCFFFF 		call	__test_assert@PLT
 2790      FF
 2791              	.LVL182:
 2792              		.loc 1 137 5 view .LVU571
 2793 00e9 83C410   		addl	$16, %esp
 2794              		.cfi_def_cfa_offset 48
 2795 00ec 84C0     		testb	%al, %al
 2796 00ee 0F8554FF 		jne	.L80
 2796      FFFF
 2797              		.loc 1 137 43 is_stmt 1 view .LVU572
 2798              		.loc 1 138 5 view .LVU573
 2799 00f4 83EC08   		subl	$8, %esp
 2800              		.cfi_def_cfa_offset 56
 2801 00f7 8D930000 		leal	.LC14@GOTOFF(%ebx), %edx
 2801      0000
 2802 00fd 89542410 		movl	%edx, 16(%esp)
 2803 0101 52       		pushl	%edx
 2804              		.cfi_def_cfa_offset 60
 2805 0102 8B542410 		movl	16(%esp), %edx
 2806 0106 8B4210   		movl	16(%edx), %eax
 2807 0109 8138AA55 		cmpl	$21930, (%eax)
 2807      0000
 2808 010f 0F94C0   		sete	%al
 2809 0112 0FB6C0   		movzbl	%al, %eax
 2810 0115 50       		pushl	%eax
 2811              		.cfi_def_cfa_offset 64
 2812 0116 E8FCFFFF 		call	__test_assert@PLT
 2812      FF
 2813              	.LVL183:
 2814 011b 83C410   		addl	$16, %esp
 2815              		.cfi_def_cfa_offset 48
 2816 011e 84C0     		testb	%al, %al
 2817 0120 0F8522FF 		jne	.L80
 2817      FFFF
 2818              		.loc 1 138 72 view .LVU574
 2819              		.loc 1 139 5 view .LVU575
 2820 0126 83EC08   		subl	$8, %esp
 2821              		.cfi_def_cfa_offset 56
 2822 0129 8D930000 		leal	.LC10@GOTOFF(%ebx), %edx
 2822      0000
 2823 012f 31C0     		xorl	%eax, %eax
 2824 0131 89542414 		movl	%edx, 20(%esp)
 2825 0135 52       		pushl	%edx
 2826              		.cfi_def_cfa_offset 60
 2827 0136 8B542410 		movl	16(%esp), %edx
 2828 013a 3954240C 		cmpl	%edx, 12(%esp)
 2829 013e 0F94C0   		sete	%al
GAS LISTING /tmp/ccwdkvlB.s 			page 56


 2830 0141 50       		pushl	%eax
 2831              		.cfi_def_cfa_offset 64
 2832 0142 E8FCFFFF 		call	__test_assert@PLT
 2832      FF
 2833              	.LVL184:
 2834 0147 83C410   		addl	$16, %esp
 2835              		.cfi_def_cfa_offset 48
 2836 014a 84C0     		testb	%al, %al
 2837 014c 0F85F6FE 		jne	.L80
 2837      FFFF
 2838              		.loc 1 139 58 view .LVU576
 2839              		.loc 1 140 5 view .LVU577
 2840 0152 83EC08   		subl	$8, %esp
 2841              		.cfi_def_cfa_offset 56
 2842 0155 31C0     		xorl	%eax, %eax
 2843 0157 FF742414 		pushl	20(%esp)
 2844              		.cfi_def_cfa_offset 60
 2845 015b 8B542410 		movl	16(%esp), %edx
 2846 015f 837A0402 		cmpl	$2, 4(%edx)
 2847 0163 0F94C0   		sete	%al
 2848 0166 50       		pushl	%eax
 2849              		.cfi_def_cfa_offset 64
 2850 0167 E8FCFFFF 		call	__test_assert@PLT
 2850      FF
 2851              	.LVL185:
 2852 016c 83C410   		addl	$16, %esp
 2853              		.cfi_def_cfa_offset 48
 2854 016f 84C0     		testb	%al, %al
 2855 0171 0F85D1FE 		jne	.L80
 2855      FFFF
 2856              		.loc 1 140 70 view .LVU578
 2857              		.loc 1 142 5 view .LVU579
 2858              	.LVL186:
 2859              	.LBB156:
 2860              	.LBI156:
 2861              		.loc 2 409 30 view .LVU580
 2862              	.LBB157:
 2863              		.loc 2 411 3 view .LVU581
 2864              		.loc 2 411 12 is_stmt 0 view .LVU582
 2865 0177 8B542404 		movl	4(%esp), %edx
 2866              	.LBE157:
 2867              	.LBE156:
 2868              		.loc 1 143 5 view .LVU583
 2869 017b 83EC08   		subl	$8, %esp
 2870              		.cfi_def_cfa_offset 56
 2871              	.LBB159:
 2872              	.LBB158:
 2873              		.loc 2 411 12 view .LVU584
 2874 017e 83420401 		addl	$1, 4(%edx)
 2875              		.loc 2 413 3 is_stmt 1 view .LVU585
 2876              	.LVL187:
 2877              		.loc 2 413 3 is_stmt 0 view .LVU586
 2878              	.LBE158:
 2879              	.LBE159:
 2880              		.loc 1 143 5 is_stmt 1 view .LVU587
 2881 0182 FF742414 		pushl	20(%esp)
 2882              		.cfi_def_cfa_offset 60
GAS LISTING /tmp/ccwdkvlB.s 			page 57


 2883 0186 6A01     		pushl	$1
 2884              		.cfi_def_cfa_offset 64
 2885 0188 E8FCFFFF 		call	__test_assert@PLT
 2885      FF
 2886              	.LVL188:
 2887 018d 83C410   		addl	$16, %esp
 2888              		.cfi_def_cfa_offset 48
 2889 0190 84C0     		testb	%al, %al
 2890 0192 0F85B0FE 		jne	.L80
 2890      FFFF
 2891              		.loc 1 143 59 view .LVU588
 2892              		.loc 1 144 5 view .LVU589
 2893 0198 83EC08   		subl	$8, %esp
 2894              		.cfi_def_cfa_offset 56
 2895 019b FF742410 		pushl	16(%esp)
 2896              		.cfi_def_cfa_offset 60
 2897 019f 8B542410 		movl	16(%esp), %edx
 2898 01a3 8B4210   		movl	16(%edx), %eax
 2899 01a6 8138AA55 		cmpl	$21930, (%eax)
 2899      0000
 2900 01ac 0F94C0   		sete	%al
 2901 01af 0FB6C0   		movzbl	%al, %eax
 2902 01b2 50       		pushl	%eax
 2903              		.cfi_def_cfa_offset 64
 2904 01b3 E8FCFFFF 		call	__test_assert@PLT
 2904      FF
 2905              	.LVL189:
 2906 01b8 83C410   		addl	$16, %esp
 2907              		.cfi_def_cfa_offset 48
 2908 01bb 84C0     		testb	%al, %al
 2909 01bd 0F8585FE 		jne	.L80
 2909      FFFF
 2910              		.loc 1 144 72 view .LVU590
 2911              		.loc 1 145 5 view .LVU591
 2912 01c3 83EC08   		subl	$8, %esp
 2913              		.cfi_def_cfa_offset 56
 2914 01c6 31C0     		xorl	%eax, %eax
 2915 01c8 FF742414 		pushl	20(%esp)
 2916              		.cfi_def_cfa_offset 60
 2917 01cc 8B542410 		movl	16(%esp), %edx
 2918 01d0 837A0403 		cmpl	$3, 4(%edx)
 2919 01d4 0F94C0   		sete	%al
 2920 01d7 50       		pushl	%eax
 2921              		.cfi_def_cfa_offset 64
 2922 01d8 E8FCFFFF 		call	__test_assert@PLT
 2922      FF
 2923              	.LVL190:
 2924 01dd 83C410   		addl	$16, %esp
 2925              		.cfi_def_cfa_offset 48
 2926 01e0 84C0     		testb	%al, %al
 2927 01e2 0F8560FE 		jne	.L80
 2927      FFFF
 2928              		.loc 1 145 70 view .LVU592
 2929              		.loc 1 147 5 view .LVU593
 2930 01e8 83EC0C   		subl	$12, %esp
 2931              		.cfi_def_cfa_offset 60
 2932 01eb FF742410 		pushl	16(%esp)
GAS LISTING /tmp/ccwdkvlB.s 			page 58


 2933              		.cfi_def_cfa_offset 64
 2934 01ef E8FCFFFF 		call	chFactoryReleaseObject@PLT
 2934      FF
 2935              	.LVL191:
 2936              		.loc 1 148 5 view .LVU594
 2937 01f4 59       		popl	%ecx
 2938              		.cfi_def_cfa_offset 60
 2939 01f5 8D930000 		leal	.LC11@GOTOFF(%ebx), %edx
 2939      0000
 2940 01fb 58       		popl	%eax
 2941              		.cfi_def_cfa_offset 56
 2942 01fc 89542410 		movl	%edx, 16(%esp)
 2943 0200 31C0     		xorl	%eax, %eax
 2944 0202 52       		pushl	%edx
 2945              		.cfi_def_cfa_offset 60
 2946 0203 8B542410 		movl	16(%esp), %edx
 2947 0207 837A0402 		cmpl	$2, 4(%edx)
 2948 020b 0F94C0   		sete	%al
 2949 020e 50       		pushl	%eax
 2950              		.cfi_def_cfa_offset 64
 2951 020f E8FCFFFF 		call	__test_assert@PLT
 2951      FF
 2952              	.LVL192:
 2953 0214 83C410   		addl	$16, %esp
 2954              		.cfi_def_cfa_offset 48
 2955 0217 84C0     		testb	%al, %al
 2956 0219 0F8529FE 		jne	.L80
 2956      FFFF
 2957              		.loc 1 148 64 view .LVU595
 2958              		.loc 1 150 5 view .LVU596
 2959 021f 83EC0C   		subl	$12, %esp
 2960              		.cfi_def_cfa_offset 60
 2961 0222 FF742410 		pushl	16(%esp)
 2962              		.cfi_def_cfa_offset 64
 2963 0226 E8FCFFFF 		call	chFactoryReleaseObject@PLT
 2963      FF
 2964              	.LVL193:
 2965              		.loc 1 151 5 view .LVU597
 2966 022b 58       		popl	%eax
 2967              		.cfi_def_cfa_offset 60
 2968 022c 5A       		popl	%edx
 2969              		.cfi_def_cfa_offset 56
 2970 022d FF742410 		pushl	16(%esp)
 2971              		.cfi_def_cfa_offset 60
 2972 0231 8B44240C 		movl	12(%esp), %eax
 2973 0235 83780401 		cmpl	$1, 4(%eax)
 2974 0239 0F94C0   		sete	%al
 2975 023c 0FB6C0   		movzbl	%al, %eax
 2976 023f 50       		pushl	%eax
 2977              		.cfi_def_cfa_offset 64
 2978 0240 E8FCFFFF 		call	__test_assert@PLT
 2978      FF
 2979              	.LVL194:
 2980 0245 83C410   		addl	$16, %esp
 2981              		.cfi_def_cfa_offset 48
 2982 0248 84C0     		testb	%al, %al
 2983 024a 0F85F8FD 		jne	.L80
GAS LISTING /tmp/ccwdkvlB.s 			page 59


 2983      FFFF
 2984              		.loc 1 151 63 view .LVU598
 2985              	.LBE160:
 2986              		.loc 1 153 3 view .LVU599
 2987              		.loc 1 153 19 view .LVU600
 2988              		.loc 1 157 3 view .LVU601
 2989              		.loc 1 159 5 is_stmt 0 view .LVU602
 2990 0250 83EC0C   		subl	$12, %esp
 2991              		.cfi_def_cfa_offset 60
 2992              		.loc 1 157 3 view .LVU603
 2993 0253 C7060500 		movl	$5, (%esi)
 2993      0000
 2994              		.loc 1 159 5 is_stmt 1 view .LVU604
 2995 0259 FF74240C 		pushl	12(%esp)
 2996              		.cfi_def_cfa_offset 64
 2997 025d E8FCFFFF 		call	chFactoryReleaseObject@PLT
 2997      FF
 2998              	.LVL195:
 2999              		.loc 1 161 3 view .LVU605
 3000              		.loc 1 161 19 view .LVU606
 3001              		.loc 1 165 3 view .LVU607
 3002              		.loc 1 167 11 is_stmt 0 view .LVU608
 3003 0262 893C24   		movl	%edi, (%esp)
 3004              		.loc 1 165 3 view .LVU609
 3005 0265 C7060600 		movl	$6, (%esi)
 3005      0000
 3006              		.loc 1 167 5 is_stmt 1 view .LVU610
 3007              		.loc 1 167 11 is_stmt 0 view .LVU611
 3008 026b E8FCFFFF 		call	chFactoryFindObject@PLT
 3008      FF
 3009              	.LVL196:
 3010              		.loc 1 168 5 is_stmt 1 view .LVU612
 3011 0270 5A       		popl	%edx
 3012              		.cfi_def_cfa_offset 60
 3013 0271 59       		popl	%ecx
 3014              		.cfi_def_cfa_offset 56
 3015 0272 55       		pushl	%ebp
 3016              		.cfi_def_cfa_offset 60
 3017 0273 85C0     		testl	%eax, %eax
 3018 0275 0F94C0   		sete	%al
 3019              	.LVL197:
 3020              		.loc 1 168 5 is_stmt 0 view .LVU613
 3021 0278 0FB6C0   		movzbl	%al, %eax
 3022 027b 50       		pushl	%eax
 3023              		.cfi_def_cfa_offset 64
 3024 027c E8FCFFFF 		call	__test_assert@PLT
 3024      FF
 3025              	.LVL198:
 3026 0281 83C410   		addl	$16, %esp
 3027              		.cfi_def_cfa_offset 48
 3028              	.LVL199:
 3029              		.loc 1 168 5 view .LVU614
 3030              	.LBE150:
 3031              	.LBE149:
 3032              		.loc 1 168 38 is_stmt 1 view .LVU615
 3033              		.loc 1 170 3 view .LVU616
 3034              		.loc 1 170 19 view .LVU617
GAS LISTING /tmp/ccwdkvlB.s 			page 60


 3035              	.LBB162:
 3036              	.LBB161:
 3037 0284 E9BFFDFF 		jmp	.L80
 3037      FF
 3038              	.LBE161:
 3039              	.LBE162:
 3040              		.cfi_endproc
 3041              	.LFE304:
 3042              		.size	oslib_test_009_001_execute, .-oslib_test_009_001_execute
 3043              		.section	.data.myobj.0,"aw"
 3044              		.align 4
 3045              		.type	myobj.0, @object
 3046              		.size	myobj.0, 4
 3047              	myobj.0:
 3048 0000 AA550000 		.long	21930
 3049              		.section	.data.myobj.1,"aw"
 3050              		.align 4
 3051              		.type	myobj.1, @object
 3052              		.size	myobj.1, 4
 3053              	myobj.1:
 3054 0000 AA550000 		.long	21930
 3055              		.globl	oslib_test_sequence_009
 3056              		.section	.rodata.str1.1,"aMS",@progbits,1
 3057              	.LC15:
 3058 0000 4F626A65 		.string	"Objects Factory"
 3058      63747320 
 3058      46616374 
 3058      6F727900 
 3059              		.section	.data.rel.ro.local.oslib_test_sequence_009,"aw"
 3060              		.align 4
 3061              		.type	oslib_test_sequence_009, @object
 3062              		.size	oslib_test_sequence_009, 8
 3063              	oslib_test_sequence_009:
 3064 0000 00000000 		.long	.LC15
 3065 0004 00000000 		.long	oslib_test_sequence_009_array
 3066              		.globl	oslib_test_sequence_009_array
 3067              		.section	.data.rel.ro.local.oslib_test_sequence_009_array,"aw"
 3068              		.align 4
 3069              		.type	oslib_test_sequence_009_array, @object
 3070              		.size	oslib_test_sequence_009_array, 28
 3071              	oslib_test_sequence_009_array:
 3072 0000 00000000 		.long	oslib_test_009_001
 3073 0004 00000000 		.long	oslib_test_009_002
 3074 0008 00000000 		.long	oslib_test_009_003
 3075 000c 00000000 		.long	oslib_test_009_004
 3076 0010 00000000 		.long	oslib_test_009_005
 3077 0014 00000000 		.long	oslib_test_009_006
 3078 0018 00000000 		.long	0
 3079              		.section	.rodata.str1.1
 3080              	.LC16:
 3081 0010 44796E61 		.string	"Dynamic Pipes Factory"
 3081      6D696320 
 3081      50697065 
 3081      73204661 
 3081      63746F72 
 3082              		.section	.data.rel.ro.local.oslib_test_009_006,"aw"
 3083              		.align 4
GAS LISTING /tmp/ccwdkvlB.s 			page 61


 3084              		.type	oslib_test_009_006, @object
 3085              		.size	oslib_test_009_006, 16
 3086              	oslib_test_009_006:
 3087 0000 10000000 		.long	.LC16
 3088 0004 00000000 		.long	0
 3089 0008 00000000 		.long	oslib_test_009_006_teardown
 3090 000c 00000000 		.long	oslib_test_009_006_execute
 3091              		.section	.rodata.str1.1
 3092              	.LC17:
 3093 0026 44796E61 		.string	"Dynamic Objects FIFOs Factory"
 3093      6D696320 
 3093      4F626A65 
 3093      63747320 
 3093      4649464F 
 3094              		.section	.data.rel.ro.local.oslib_test_009_005,"aw"
 3095              		.align 4
 3096              		.type	oslib_test_009_005, @object
 3097              		.size	oslib_test_009_005, 16
 3098              	oslib_test_009_005:
 3099 0000 26000000 		.long	.LC17
 3100 0004 00000000 		.long	0
 3101 0008 00000000 		.long	oslib_test_009_005_teardown
 3102 000c 00000000 		.long	oslib_test_009_005_execute
 3103              		.section	.rodata.str1.1
 3104              	.LC18:
 3105 0044 44796E61 		.string	"Dynamic Mailboxes Factory"
 3105      6D696320 
 3105      4D61696C 
 3105      626F7865 
 3105      73204661 
 3106              		.section	.data.rel.ro.local.oslib_test_009_004,"aw"
 3107              		.align 4
 3108              		.type	oslib_test_009_004, @object
 3109              		.size	oslib_test_009_004, 16
 3110              	oslib_test_009_004:
 3111 0000 44000000 		.long	.LC18
 3112 0004 00000000 		.long	0
 3113 0008 00000000 		.long	oslib_test_009_004_teardown
 3114 000c 00000000 		.long	oslib_test_009_004_execute
 3115              		.section	.rodata.str1.1
 3116              	.LC19:
 3117 005e 44796E61 		.string	"Dynamic Semaphores Factory"
 3117      6D696320 
 3117      53656D61 
 3117      70686F72 
 3117      65732046 
 3118              		.section	.data.rel.ro.local.oslib_test_009_003,"aw"
 3119              		.align 4
 3120              		.type	oslib_test_009_003, @object
 3121              		.size	oslib_test_009_003, 16
 3122              	oslib_test_009_003:
 3123 0000 5E000000 		.long	.LC19
 3124 0004 00000000 		.long	0
 3125 0008 00000000 		.long	oslib_test_009_003_teardown
 3126 000c 00000000 		.long	oslib_test_009_003_execute
 3127              		.section	.rodata.str1.1
 3128              	.LC20:
GAS LISTING /tmp/ccwdkvlB.s 			page 62


 3129 0079 44796E61 		.string	"Dynamic Buffers Factory"
 3129      6D696320 
 3129      42756666 
 3129      65727320 
 3129      46616374 
 3130              		.section	.data.rel.ro.local.oslib_test_009_002,"aw"
 3131              		.align 4
 3132              		.type	oslib_test_009_002, @object
 3133              		.size	oslib_test_009_002, 16
 3134              	oslib_test_009_002:
 3135 0000 79000000 		.long	.LC20
 3136 0004 00000000 		.long	0
 3137 0008 00000000 		.long	oslib_test_009_002_teardown
 3138 000c 00000000 		.long	oslib_test_009_002_execute
 3139              		.section	.rodata.str1.1
 3140              	.LC21:
 3141 0091 4F626A65 		.string	"Objects Registry"
 3141      63747320 
 3141      52656769 
 3141      73747279 
 3141      00
 3142              		.section	.data.rel.ro.local.oslib_test_009_001,"aw"
 3143              		.align 4
 3144              		.type	oslib_test_009_001, @object
 3145              		.size	oslib_test_009_001, 16
 3146              	oslib_test_009_001:
 3147 0000 91000000 		.long	.LC21
 3148 0004 00000000 		.long	0
 3149 0008 00000000 		.long	oslib_test_009_001_teardown
 3150 000c 00000000 		.long	oslib_test_009_001_execute
 3151              		.section	.text.__x86.get_pc_thunk.bx,"axG",@progbits,__x86.get_pc_thunk.bx,comdat
 3152              		.globl	__x86.get_pc_thunk.bx
 3153              		.hidden	__x86.get_pc_thunk.bx
 3154              		.type	__x86.get_pc_thunk.bx, @function
 3155              	__x86.get_pc_thunk.bx:
 3156              	.LFB321:
 3157              		.cfi_startproc
 3158 0000 8B1C24   		movl	(%esp), %ebx
 3159 0003 C3       		ret
 3160              		.cfi_endproc
 3161              	.LFE321:
 3162              		.text
 3163              	.Letext0:
 3164              		.file 3 "/usr/lib/gcc/x86_64-linux-gnu/11/include/stddef.h"
 3165              		.file 4 "/usr/include/bits/types.h"
 3166              		.file 5 "/usr/include/bits/stdint-intn.h"
 3167              		.file 6 "/usr/include/bits/stdint-uintn.h"
 3168              		.file 7 "../../../os/common/ports/SIMIA32/compilers/GCC/chtypes.h"
 3169              		.file 8 "../../../os/rt/include/chearly.h"
 3170              		.file 9 "../../../os/rt/include/chobjects.h"
 3171              		.file 10 "../../../os/rt/include/chrfcu.h"
 3172              		.file 11 "../../../os/rt/include/chdebug.h"
 3173              		.file 12 "../../../os/rt/include/chtime.h"
 3174              		.file 13 "../../../os/rt/include/chlists.h"
 3175              		.file 14 "../../../os/common/ports/SIMIA32/chcore.h"
 3176              		.file 15 "../../../os/rt/include/chsem.h"
 3177              		.file 16 "../../../os/rt/include/chmtx.h"
GAS LISTING /tmp/ccwdkvlB.s 			page 63


 3178              		.file 17 "../../../os/oslib/include/chmboxes.h"
 3179              		.file 18 "../../../os/oslib/include/chmemcore.h"
 3180              		.file 19 "../../../os/oslib/include/chmempools.h"
 3181              		.file 20 "../../../os/oslib/include/chobjfifos.h"
 3182              		.file 21 "../../../os/oslib/include/chpipes.h"
 3183              		.file 22 "../../../os/hal/include/hal_streams.h"
 3184              		.file 23 "../../../os/test/include/ch_test.h"
 3185              		.file 24 "../../../test/oslib/source/test/oslib_test_sequence_009.h"
 3186              		.section	.debug_info,"",@progbits
 3187              	.Ldebug_info0:
 3188 0000 B51B0000 		.long	0x1bb5
 3189 0004 0500     		.value	0x5
 3190 0006 01       		.byte	0x1
 3191 0007 04       		.byte	0x4
 3192 0008 00000000 		.long	.Ldebug_abbrev0
 3193 000c 2B       		.uleb128 0x2b
 3194 000d FF0A0000 		.long	.LASF232
 3195 0011 1D       		.byte	0x1d
 3196 0012 26000000 		.long	.LASF0
 3197 0016 00000000 		.long	.LASF1
 3198 001a 50010000 		.long	.LLRL67
 3199 001e 00000000 		.long	0
 3200 0022 00000000 		.long	.Ldebug_line0
 3201 0026 2C       		.uleb128 0x2c
 3202 0027 04       		.byte	0x4
 3203 0028 05       		.byte	0x5
 3204 0029 696E7400 		.string	"int"
 3205 002d 03       		.uleb128 0x3
 3206 002e 40000000 		.long	.LASF11
 3207 0032 03       		.byte	0x3
 3208 0033 D1       		.byte	0xd1
 3209 0034 17       		.byte	0x17
 3210 0035 39000000 		.long	0x39
 3211 0039 0B       		.uleb128 0xb
 3212 003a 04       		.byte	0x4
 3213 003b 07       		.byte	0x7
 3214 003c 89060000 		.long	.LASF2
 3215 0040 0B       		.uleb128 0xb
 3216 0041 04       		.byte	0x4
 3217 0042 05       		.byte	0x5
 3218 0043 A7010000 		.long	.LASF3
 3219 0047 0B       		.uleb128 0xb
 3220 0048 08       		.byte	0x8
 3221 0049 05       		.byte	0x5
 3222 004a 26060000 		.long	.LASF4
 3223 004e 0B       		.uleb128 0xb
 3224 004f 0C       		.byte	0xc
 3225 0050 04       		.byte	0x4
 3226 0051 AF070000 		.long	.LASF5
 3227 0055 0B       		.uleb128 0xb
 3228 0056 10       		.byte	0x10
 3229 0057 04       		.byte	0x4
 3230 0058 B00A0000 		.long	.LASF6
 3231 005c 0B       		.uleb128 0xb
 3232 005d 01       		.byte	0x1
 3233 005e 08       		.byte	0x8
 3234 005f 1D030000 		.long	.LASF7
GAS LISTING /tmp/ccwdkvlB.s 			page 64


 3235 0063 0B       		.uleb128 0xb
 3236 0064 02       		.byte	0x2
 3237 0065 07       		.byte	0x7
 3238 0066 EC0A0000 		.long	.LASF8
 3239 006a 0B       		.uleb128 0xb
 3240 006b 04       		.byte	0x4
 3241 006c 07       		.byte	0x7
 3242 006d 16050000 		.long	.LASF9
 3243 0071 0B       		.uleb128 0xb
 3244 0072 01       		.byte	0x1
 3245 0073 06       		.byte	0x6
 3246 0074 9D020000 		.long	.LASF10
 3247 0078 03       		.uleb128 0x3
 3248 0079 70010000 		.long	.LASF12
 3249 007d 04       		.byte	0x4
 3250 007e 26       		.byte	0x26
 3251 007f 17       		.byte	0x17
 3252 0080 5C000000 		.long	0x5c
 3253 0084 0B       		.uleb128 0xb
 3254 0085 02       		.byte	0x2
 3255 0086 05       		.byte	0x5
 3256 0087 93090000 		.long	.LASF13
 3257 008b 03       		.uleb128 0x3
 3258 008c D40B0000 		.long	.LASF14
 3259 0090 04       		.byte	0x4
 3260 0091 29       		.byte	0x29
 3261 0092 14       		.byte	0x14
 3262 0093 26000000 		.long	0x26
 3263 0097 03       		.uleb128 0x3
 3264 0098 13060000 		.long	.LASF15
 3265 009c 04       		.byte	0x4
 3266 009d 2A       		.byte	0x2a
 3267 009e 16       		.byte	0x16
 3268 009f 39000000 		.long	0x39
 3269 00a3 03       		.uleb128 0x3
 3270 00a4 0B050000 		.long	.LASF16
 3271 00a8 04       		.byte	0x4
 3272 00a9 30       		.byte	0x30
 3273 00aa 2E       		.byte	0x2e
 3274 00ab AF000000 		.long	0xaf
 3275 00af 0B       		.uleb128 0xb
 3276 00b0 08       		.byte	0x8
 3277 00b1 07       		.byte	0x7
 3278 00b2 1F080000 		.long	.LASF17
 3279 00b6 2D       		.uleb128 0x2d
 3280 00b7 04       		.byte	0x4
 3281 00b8 05       		.uleb128 0x5
 3282 00b9 BD000000 		.long	0xbd
 3283 00bd 0B       		.uleb128 0xb
 3284 00be 01       		.byte	0x1
 3285 00bf 06       		.byte	0x6
 3286 00c0 79030000 		.long	.LASF18
 3287 00c4 10       		.uleb128 0x10
 3288 00c5 BD000000 		.long	0xbd
 3289 00c9 03       		.uleb128 0x3
 3290 00ca 83000000 		.long	.LASF19
 3291 00ce 05       		.byte	0x5
GAS LISTING /tmp/ccwdkvlB.s 			page 65


 3292 00cf 1A       		.byte	0x1a
 3293 00d0 13       		.byte	0x13
 3294 00d1 8B000000 		.long	0x8b
 3295 00d5 03       		.uleb128 0x3
 3296 00d6 B0020000 		.long	.LASF20
 3297 00da 06       		.byte	0x6
 3298 00db 18       		.byte	0x18
 3299 00dc 13       		.byte	0x13
 3300 00dd 78000000 		.long	0x78
 3301 00e1 10       		.uleb128 0x10
 3302 00e2 D5000000 		.long	0xd5
 3303 00e6 03       		.uleb128 0x3
 3304 00e7 970A0000 		.long	.LASF21
 3305 00eb 06       		.byte	0x6
 3306 00ec 1A       		.byte	0x1a
 3307 00ed 14       		.byte	0x14
 3308 00ee 97000000 		.long	0x97
 3309 00f2 03       		.uleb128 0x3
 3310 00f3 C4090000 		.long	.LASF22
 3311 00f7 06       		.byte	0x6
 3312 00f8 1B       		.byte	0x1b
 3313 00f9 14       		.byte	0x14
 3314 00fa A3000000 		.long	0xa3
 3315 00fe 20       		.uleb128 0x20
 3316 00ff F2000000 		.long	0xf2
 3317 0103 03       		.uleb128 0x3
 3318 0104 09090000 		.long	.LASF23
 3319 0108 07       		.byte	0x7
 3320 0109 38       		.byte	0x38
 3321 010a 1D       		.byte	0x1d
 3322 010b D5000000 		.long	0xd5
 3323 010f 03       		.uleb128 0x3
 3324 0110 59020000 		.long	.LASF24
 3325 0114 07       		.byte	0x7
 3326 0115 39       		.byte	0x39
 3327 0116 1D       		.byte	0x1d
 3328 0117 D5000000 		.long	0xd5
 3329 011b 03       		.uleb128 0x3
 3330 011c 710A0000 		.long	.LASF25
 3331 0120 07       		.byte	0x7
 3332 0121 3A       		.byte	0x3a
 3333 0122 1D       		.byte	0x1d
 3334 0123 D5000000 		.long	0xd5
 3335 0127 03       		.uleb128 0x3
 3336 0128 5E000000 		.long	.LASF26
 3337 012c 07       		.byte	0x7
 3338 012d 3C       		.byte	0x3c
 3339 012e 1D       		.byte	0x1d
 3340 012f E6000000 		.long	0xe6
 3341 0133 03       		.uleb128 0x3
 3342 0134 53080000 		.long	.LASF27
 3343 0138 07       		.byte	0x7
 3344 0139 3D       		.byte	0x3d
 3345 013a 1D       		.byte	0x1d
 3346 013b C9000000 		.long	0xc9
 3347 013f 03       		.uleb128 0x3
 3348 0140 F0020000 		.long	.LASF28
GAS LISTING /tmp/ccwdkvlB.s 			page 66


 3349 0144 07       		.byte	0x7
 3350 0145 3F       		.byte	0x3f
 3351 0146 1D       		.byte	0x1d
 3352 0147 E6000000 		.long	0xe6
 3353 014b 03       		.uleb128 0x3
 3354 014c 1B040000 		.long	.LASF29
 3355 0150 07       		.byte	0x7
 3356 0151 41       		.byte	0x41
 3357 0152 1D       		.byte	0x1d
 3358 0153 C9000000 		.long	0xc9
 3359 0157 03       		.uleb128 0x3
 3360 0158 D7050000 		.long	.LASF30
 3361 015c 07       		.byte	0x7
 3362 015d 42       		.byte	0x42
 3363 015e 1D       		.byte	0x1d
 3364 015f E6000000 		.long	0xe6
 3365 0163 03       		.uleb128 0x3
 3366 0164 D3020000 		.long	.LASF31
 3367 0168 08       		.byte	0x8
 3368 0169 80       		.byte	0x80
 3369 016a 12       		.byte	0x12
 3370 016b 39000000 		.long	0x39
 3371 016f 03       		.uleb128 0x3
 3372 0170 A6070000 		.long	.LASF32
 3373 0174 08       		.byte	0x8
 3374 0175 85       		.byte	0x85
 3375 0176 1A       		.byte	0x1a
 3376 0177 7B010000 		.long	0x17b
 3377 017b 09       		.uleb128 0x9
 3378 017c 68050000 		.long	.LASF49
 3379 0180 50       		.byte	0x50
 3380 0181 09       		.byte	0x9
 3381 0182 A9       		.byte	0xa9
 3382 0183 08       		.byte	0x8
 3383 0184 75020000 		.long	0x275
 3384 0188 07       		.uleb128 0x7
 3385 0189 68647200 		.string	"hdr"
 3386 018d 09       		.byte	0x9
 3387 018e BA       		.byte	0xba
 3388 018f 05       		.byte	0x5
 3389 0190 F1050000 		.long	0x5f1
 3390 0194 00       		.byte	0
 3391 0195 07       		.uleb128 0x7
 3392 0196 63747800 		.string	"ctx"
 3393 019a 09       		.byte	0x9
 3394 019b BE       		.byte	0xbe
 3395 019c 21       		.byte	0x21
 3396 019d 0F050000 		.long	0x50f
 3397 01a1 0C       		.byte	0xc
 3398 01a2 02       		.uleb128 0x2
 3399 01a3 58000000 		.long	.LASF33
 3400 01a7 09       		.byte	0x9
 3401 01a8 C2       		.byte	0xc2
 3402 01a9 22       		.byte	0x22
 3403 01aa F0060000 		.long	0x6f0
 3404 01ae 10       		.byte	0x10
 3405 01af 02       		.uleb128 0x2
GAS LISTING /tmp/ccwdkvlB.s 			page 67


 3406 01b0 D6080000 		.long	.LASF34
 3407 01b4 09       		.byte	0x9
 3408 01b5 C8       		.byte	0xc8
 3409 01b6 22       		.byte	0x22
 3410 01b7 F5060000 		.long	0x6f5
 3411 01bb 14       		.byte	0x14
 3412 01bc 02       		.uleb128 0x2
 3413 01bd EA050000 		.long	.LASF35
 3414 01c1 09       		.byte	0x9
 3415 01c2 CD       		.byte	0xcd
 3416 01c3 21       		.byte	0x21
 3417 01c4 F5060000 		.long	0x6f5
 3418 01c8 18       		.byte	0x18
 3419 01c9 02       		.uleb128 0x2
 3420 01ca F2000000 		.long	.LASF36
 3421 01ce 09       		.byte	0x9
 3422 01cf D1       		.byte	0xd1
 3423 01d0 21       		.byte	0x21
 3424 01d1 0F010000 		.long	0x10f
 3425 01d5 1C       		.byte	0x1c
 3426 01d6 02       		.uleb128 0x2
 3427 01d7 C2030000 		.long	.LASF37
 3428 01db 09       		.byte	0x9
 3429 01dc D5       		.byte	0xd5
 3430 01dd 21       		.byte	0x21
 3431 01de 03010000 		.long	0x103
 3432 01e2 1D       		.byte	0x1d
 3433 01e3 02       		.uleb128 0x2
 3434 01e4 78080000 		.long	.LASF38
 3435 01e8 09       		.byte	0x9
 3436 01e9 DA       		.byte	0xda
 3437 01ea 21       		.byte	0x21
 3438 01eb 1B010000 		.long	0x11b
 3439 01ef 1E       		.byte	0x1e
 3440 01f0 02       		.uleb128 0x2
 3441 01f1 54090000 		.long	.LASF39
 3442 01f5 09       		.byte	0x9
 3443 01f6 DE       		.byte	0xde
 3444 01f7 22       		.byte	0x22
 3445 01f8 5A030000 		.long	0x35a
 3446 01fc 20       		.byte	0x20
 3447 01fd 02       		.uleb128 0x2
 3448 01fe 0F040000 		.long	.LASF40
 3449 0202 09       		.byte	0x9
 3450 0203 E2       		.byte	0xe2
 3451 0204 21       		.byte	0x21
 3452 0205 B9030000 		.long	0x3b9
 3453 0209 24       		.byte	0x24
 3454 020a 02       		.uleb128 0x2
 3455 020b F00B0000 		.long	.LASF41
 3456 020f 09       		.byte	0x9
 3457 0210 E8       		.byte	0xe8
 3458 0211 21       		.byte	0x21
 3459 0212 D5050000 		.long	0x5d5
 3460 0216 2C       		.byte	0x2c
 3461 0217 02       		.uleb128 0x2
 3462 0218 21040000 		.long	.LASF42
GAS LISTING /tmp/ccwdkvlB.s 			page 68


 3463 021c 09       		.byte	0x9
 3464 021d EE       		.byte	0xee
 3465 021e 22       		.byte	0x22
 3466 021f B6000000 		.long	0xb6
 3467 0223 30       		.byte	0x30
 3468 0224 26       		.uleb128 0x26
 3469 0225 7500     		.string	"u"
 3470 0227 3F01     		.value	0x13f
 3471 0229 19060000 		.long	0x619
 3472 022d 34       		.byte	0x34
 3473 022e 08       		.uleb128 0x8
 3474 022f 530A0000 		.long	.LASF43
 3475 0233 09       		.byte	0x9
 3476 0234 4401     		.value	0x144
 3477 0236 21       		.byte	0x21
 3478 0237 8D030000 		.long	0x38d
 3479 023b 38       		.byte	0x38
 3480 023c 08       		.uleb128 0x8
 3481 023d E7090000 		.long	.LASF44
 3482 0241 09       		.byte	0x9
 3483 0242 4A01     		.value	0x14a
 3484 0244 21       		.byte	0x21
 3485 0245 B9030000 		.long	0x3b9
 3486 0249 3C       		.byte	0x3c
 3487 024a 08       		.uleb128 0x8
 3488 024b 62020000 		.long	.LASF45
 3489 024f 09       		.byte	0x9
 3490 0250 5001     		.value	0x150
 3491 0252 21       		.byte	0x21
 3492 0253 3F010000 		.long	0x13f
 3493 0257 44       		.byte	0x44
 3494 0258 08       		.uleb128 0x8
 3495 0259 1E060000 		.long	.LASF46
 3496 025d 09       		.byte	0x9
 3497 025e 5701     		.value	0x157
 3498 0260 22       		.byte	0x22
 3499 0261 EB060000 		.long	0x6eb
 3500 0265 48       		.byte	0x48
 3501 0266 08       		.uleb128 0x8
 3502 0267 C0050000 		.long	.LASF47
 3503 026b 09       		.byte	0x9
 3504 026c 5B01     		.value	0x15b
 3505 026e 21       		.byte	0x21
 3506 026f 27010000 		.long	0x127
 3507 0273 4C       		.byte	0x4c
 3508 0274 00       		.byte	0
 3509 0275 03       		.uleb128 0x3
 3510 0276 B1060000 		.long	.LASF48
 3511 027a 08       		.byte	0x8
 3512 027b 8A       		.byte	0x8a
 3513 027c 1F       		.byte	0x1f
 3514 027d 81020000 		.long	0x281
 3515 0281 18       		.uleb128 0x18
 3516 0282 76040000 		.long	.LASF50
 3517 0286 E0       		.byte	0xe0
 3518 0287 09       		.byte	0x9
 3519 0288 9701     		.value	0x197
GAS LISTING /tmp/ccwdkvlB.s 			page 69


 3520 028a 08       		.byte	0x8
 3521 028b 0C030000 		.long	0x30c
 3522 028f 08       		.uleb128 0x8
 3523 0290 03090000 		.long	.LASF51
 3524 0294 09       		.byte	0x9
 3525 0295 9B01     		.value	0x19b
 3526 0297 21       		.byte	0x21
 3527 0298 25070000 		.long	0x725
 3528 029c 00       		.byte	0
 3529 029d 08       		.uleb128 0x8
 3530 029e 4C0A0000 		.long	.LASF52
 3531 02a2 09       		.byte	0x9
 3532 02a3 9F01     		.value	0x19f
 3533 02a5 21       		.byte	0x21
 3534 02a6 6A050000 		.long	0x56a
 3535 02aa 10       		.byte	0x10
 3536 02ab 08       		.uleb128 0x8
 3537 02ac 1C0A0000 		.long	.LASF53
 3538 02b0 09       		.byte	0x9
 3539 02b1 A601     		.value	0x1a6
 3540 02b3 21       		.byte	0x21
 3541 02b4 91050000 		.long	0x591
 3542 02b8 28       		.byte	0x28
 3543 02b9 08       		.uleb128 0x8
 3544 02ba C8030000 		.long	.LASF54
 3545 02be 09       		.byte	0x9
 3546 02bf AB01     		.value	0x1ab
 3547 02c1 21       		.byte	0x21
 3548 02c2 63010000 		.long	0x163
 3549 02c6 30       		.byte	0x30
 3550 02c7 08       		.uleb128 0x8
 3551 02c8 E2090000 		.long	.LASF55
 3552 02cc 09       		.byte	0x9
 3553 02cd B101     		.value	0x1b1
 3554 02cf 21       		.byte	0x21
 3555 02d0 33030000 		.long	0x333
 3556 02d4 34       		.byte	0x34
 3557 02d5 08       		.uleb128 0x8
 3558 02d6 EB000000 		.long	.LASF56
 3559 02da 09       		.byte	0x9
 3560 02db B601     		.value	0x1b6
 3561 02dd 22       		.byte	0x22
 3562 02de 97070000 		.long	0x797
 3563 02e2 38       		.byte	0x38
 3564 02e3 08       		.uleb128 0x8
 3565 02e4 D4060000 		.long	.LASF57
 3566 02e8 09       		.byte	0x9
 3567 02e9 BA01     		.value	0x1ba
 3568 02eb 21       		.byte	0x21
 3569 02ec 6F010000 		.long	0x16f
 3570 02f0 3C       		.byte	0x3c
 3571 02f1 08       		.uleb128 0x8
 3572 02f2 8F080000 		.long	.LASF58
 3573 02f6 09       		.byte	0x9
 3574 02f7 BF01     		.value	0x1bf
 3575 02f9 21       		.byte	0x21
 3576 02fa 6F010000 		.long	0x16f
GAS LISTING /tmp/ccwdkvlB.s 			page 70


 3577 02fe 8C       		.byte	0x8c
 3578 02ff 26       		.uleb128 0x26
 3579 0300 64626700 		.string	"dbg"
 3580 0304 C401     		.value	0x1c4
 3581 0306 64030000 		.long	0x364
 3582 030a DC       		.byte	0xdc
 3583 030b 00       		.byte	0
 3584 030c 03       		.uleb128 0x3
 3585 030d 33050000 		.long	.LASF59
 3586 0311 0A       		.byte	0xa
 3587 0312 3F       		.byte	0x3f
 3588 0313 12       		.byte	0x12
 3589 0314 E6000000 		.long	0xe6
 3590 0318 09       		.uleb128 0x9
 3591 0319 F8000000 		.long	.LASF60
 3592 031d 04       		.byte	0x4
 3593 031e 0A       		.byte	0xa
 3594 031f 44       		.byte	0x44
 3595 0320 10       		.byte	0x10
 3596 0321 33030000 		.long	0x333
 3597 0325 02       		.uleb128 0x2
 3598 0326 5B060000 		.long	.LASF61
 3599 032a 0A       		.byte	0xa
 3600 032b 48       		.byte	0x48
 3601 032c 21       		.byte	0x21
 3602 032d 0C030000 		.long	0x30c
 3603 0331 00       		.byte	0
 3604 0332 00       		.byte	0
 3605 0333 03       		.uleb128 0x3
 3606 0334 F0050000 		.long	.LASF62
 3607 0338 0A       		.byte	0xa
 3608 0339 49       		.byte	0x49
 3609 033a 03       		.byte	0x3
 3610 033b 18030000 		.long	0x318
 3611 033f 09       		.uleb128 0x9
 3612 0340 0C0A0000 		.long	.LASF63
 3613 0344 04       		.byte	0x4
 3614 0345 0B       		.byte	0xb
 3615 0346 3E       		.byte	0x3e
 3616 0347 10       		.byte	0x10
 3617 0348 5A030000 		.long	0x35a
 3618 034c 02       		.uleb128 0x2
 3619 034d 38030000 		.long	.LASF64
 3620 0351 0B       		.byte	0xb
 3621 0352 46       		.byte	0x46
 3622 0353 24       		.byte	0x24
 3623 0354 5F030000 		.long	0x35f
 3624 0358 00       		.byte	0
 3625 0359 00       		.byte	0
 3626 035a 05       		.uleb128 0x5
 3627 035b C4000000 		.long	0xc4
 3628 035f 20       		.uleb128 0x20
 3629 0360 5A030000 		.long	0x35a
 3630 0364 03       		.uleb128 0x3
 3631 0365 64030000 		.long	.LASF65
 3632 0369 0B       		.byte	0xb
 3633 036a 51       		.byte	0x51
GAS LISTING /tmp/ccwdkvlB.s 			page 71


 3634 036b 03       		.byte	0x3
 3635 036c 3F030000 		.long	0x33f
 3636 0370 03       		.uleb128 0x3
 3637 0371 4E000000 		.long	.LASF66
 3638 0375 0C       		.byte	0xc
 3639 0376 6D       		.byte	0x6d
 3640 0377 12       		.byte	0x12
 3641 0378 E6000000 		.long	0xe6
 3642 037c 20       		.uleb128 0x20
 3643 037d 70030000 		.long	0x370
 3644 0381 03       		.uleb128 0x3
 3645 0382 34060000 		.long	.LASF67
 3646 0386 0C       		.byte	0xc
 3647 0387 79       		.byte	0x79
 3648 0388 12       		.byte	0x12
 3649 0389 E6000000 		.long	0xe6
 3650 038d 03       		.uleb128 0x3
 3651 038e 7B020000 		.long	.LASF68
 3652 0392 0D       		.byte	0xd
 3653 0393 32       		.byte	0x32
 3654 0394 18       		.byte	0x18
 3655 0395 99030000 		.long	0x399
 3656 0399 09       		.uleb128 0x9
 3657 039a 8B020000 		.long	.LASF69
 3658 039e 04       		.byte	0x4
 3659 039f 0D       		.byte	0xd
 3660 03a0 38       		.byte	0x38
 3661 03a1 08       		.byte	0x8
 3662 03a2 B4030000 		.long	0x3b4
 3663 03a6 02       		.uleb128 0x2
 3664 03a7 F80B0000 		.long	.LASF70
 3665 03ab 0D       		.byte	0xd
 3666 03ac 39       		.byte	0x39
 3667 03ad 1A       		.byte	0x1a
 3668 03ae B4030000 		.long	0x3b4
 3669 03b2 00       		.byte	0
 3670 03b3 00       		.byte	0
 3671 03b4 05       		.uleb128 0x5
 3672 03b5 8D030000 		.long	0x38d
 3673 03b9 03       		.uleb128 0x3
 3674 03ba 28050000 		.long	.LASF71
 3675 03be 0D       		.byte	0xd
 3676 03bf 3F       		.byte	0x3f
 3677 03c0 19       		.byte	0x19
 3678 03c1 C5030000 		.long	0x3c5
 3679 03c5 09       		.uleb128 0x9
 3680 03c6 45080000 		.long	.LASF72
 3681 03ca 08       		.byte	0x8
 3682 03cb 0D       		.byte	0xd
 3683 03cc 45       		.byte	0x45
 3684 03cd 08       		.byte	0x8
 3685 03ce ED030000 		.long	0x3ed
 3686 03d2 02       		.uleb128 0x2
 3687 03d3 F80B0000 		.long	.LASF70
 3688 03d7 0D       		.byte	0xd
 3689 03d8 46       		.byte	0x46
 3690 03d9 1A       		.byte	0x1a
GAS LISTING /tmp/ccwdkvlB.s 			page 72


 3691 03da ED030000 		.long	0x3ed
 3692 03de 00       		.byte	0
 3693 03df 02       		.uleb128 0x2
 3694 03e0 130C0000 		.long	.LASF73
 3695 03e4 0D       		.byte	0xd
 3696 03e5 47       		.byte	0x47
 3697 03e6 1A       		.byte	0x1a
 3698 03e7 ED030000 		.long	0x3ed
 3699 03eb 04       		.byte	0x4
 3700 03ec 00       		.byte	0
 3701 03ed 05       		.uleb128 0x5
 3702 03ee B9030000 		.long	0x3b9
 3703 03f2 03       		.uleb128 0x3
 3704 03f3 42060000 		.long	.LASF74
 3705 03f7 0D       		.byte	0xd
 3706 03f8 4E       		.byte	0x4e
 3707 03f9 22       		.byte	0x22
 3708 03fa FE030000 		.long	0x3fe
 3709 03fe 09       		.uleb128 0x9
 3710 03ff B2090000 		.long	.LASF75
 3711 0403 0C       		.byte	0xc
 3712 0404 0D       		.byte	0xd
 3713 0405 55       		.byte	0x55
 3714 0406 08       		.byte	0x8
 3715 0407 33040000 		.long	0x433
 3716 040b 02       		.uleb128 0x2
 3717 040c F80B0000 		.long	.LASF70
 3718 0410 0D       		.byte	0xd
 3719 0411 56       		.byte	0x56
 3720 0412 1A       		.byte	0x1a
 3721 0413 33040000 		.long	0x433
 3722 0417 00       		.byte	0
 3723 0418 02       		.uleb128 0x2
 3724 0419 130C0000 		.long	.LASF73
 3725 041d 0D       		.byte	0xd
 3726 041e 57       		.byte	0x57
 3727 041f 1A       		.byte	0x1a
 3728 0420 33040000 		.long	0x433
 3729 0424 04       		.byte	0x4
 3730 0425 02       		.uleb128 0x2
 3731 0426 17010000 		.long	.LASF76
 3732 042a 0D       		.byte	0xd
 3733 042b 58       		.byte	0x58
 3734 042c 19       		.byte	0x19
 3735 042d 27010000 		.long	0x127
 3736 0431 08       		.byte	0x8
 3737 0432 00       		.byte	0
 3738 0433 05       		.uleb128 0x5
 3739 0434 F2030000 		.long	0x3f2
 3740 0438 03       		.uleb128 0x3
 3741 0439 00000000 		.long	.LASF77
 3742 043d 0D       		.byte	0xd
 3743 043e 5F       		.byte	0x5f
 3744 043f 1E       		.byte	0x1e
 3745 0440 44040000 		.long	0x444
 3746 0444 09       		.uleb128 0x9
 3747 0445 6C070000 		.long	.LASF78
GAS LISTING /tmp/ccwdkvlB.s 			page 73


 3748 0449 0C       		.byte	0xc
 3749 044a 0D       		.byte	0xd
 3750 044b 64       		.byte	0x64
 3751 044c 08       		.byte	0x8
 3752 044d 79040000 		.long	0x479
 3753 0451 02       		.uleb128 0x2
 3754 0452 F80B0000 		.long	.LASF70
 3755 0456 0D       		.byte	0xd
 3756 0457 65       		.byte	0x65
 3757 0458 1A       		.byte	0x1a
 3758 0459 79040000 		.long	0x479
 3759 045d 00       		.byte	0
 3760 045e 02       		.uleb128 0x2
 3761 045f 130C0000 		.long	.LASF73
 3762 0463 0D       		.byte	0xd
 3763 0464 66       		.byte	0x66
 3764 0465 1A       		.byte	0x1a
 3765 0466 79040000 		.long	0x479
 3766 046a 04       		.byte	0x4
 3767 046b 02       		.uleb128 0x2
 3768 046c 6A080000 		.long	.LASF79
 3769 0470 0D       		.byte	0xd
 3770 0471 67       		.byte	0x67
 3771 0472 19       		.byte	0x19
 3772 0473 81030000 		.long	0x381
 3773 0477 08       		.byte	0x8
 3774 0478 00       		.byte	0
 3775 0479 05       		.uleb128 0x5
 3776 047a 38040000 		.long	0x438
 3777 047e 05       		.uleb128 0x5
 3778 047f D5000000 		.long	0xd5
 3779 0483 0E       		.uleb128 0xe
 3780 0484 10       		.byte	0x10
 3781 0485 0E       		.byte	0xe
 3782 0486 87       		.byte	0x87
 3783 0487 97040000 		.long	0x497
 3784 048b 07       		.uleb128 0x7
 3785 048c 6100     		.string	"a"
 3786 048e 0E       		.byte	0xe
 3787 048f 88       		.byte	0x88
 3788 0490 0B       		.byte	0xb
 3789 0491 97040000 		.long	0x497
 3790 0495 00       		.byte	0
 3791 0496 00       		.byte	0
 3792 0497 1B       		.uleb128 0x1b
 3793 0498 D5000000 		.long	0xd5
 3794 049c A7040000 		.long	0x4a7
 3795 04a0 1C       		.uleb128 0x1c
 3796 04a1 39000000 		.long	0x39
 3797 04a5 0F       		.byte	0xf
 3798 04a6 00       		.byte	0
 3799 04a7 2E       		.uleb128 0x2e
 3800 04a8 95000000 		.long	.LASF233
 3801 04ac 0E       		.byte	0xe
 3802 04ad 89       		.byte	0x89
 3803 04ae 03       		.byte	0x3
 3804 04af 83040000 		.long	0x483
GAS LISTING /tmp/ccwdkvlB.s 			page 74


 3805 04b3 10       		.byte	0x10
 3806 04b4 03       		.uleb128 0x3
 3807 04b5 B70B0000 		.long	.LASF80
 3808 04b9 0E       		.byte	0xe
 3809 04ba 8E       		.byte	0x8e
 3810 04bb 0F       		.byte	0xf
 3811 04bc B6000000 		.long	0xb6
 3812 04c0 09       		.uleb128 0x9
 3813 04c1 D6070000 		.long	.LASF81
 3814 04c5 14       		.byte	0x14
 3815 04c6 0E       		.byte	0xe
 3816 04c7 9D       		.byte	0x9d
 3817 04c8 08       		.byte	0x8
 3818 04c9 0F050000 		.long	0x50f
 3819 04cd 07       		.uleb128 0x7
 3820 04ce 65627800 		.string	"ebx"
 3821 04d2 0E       		.byte	0xe
 3822 04d3 9E       		.byte	0x9e
 3823 04d4 0B       		.byte	0xb
 3824 04d5 B4040000 		.long	0x4b4
 3825 04d9 00       		.byte	0
 3826 04da 07       		.uleb128 0x7
 3827 04db 65646900 		.string	"edi"
 3828 04df 0E       		.byte	0xe
 3829 04e0 9F       		.byte	0x9f
 3830 04e1 0B       		.byte	0xb
 3831 04e2 B4040000 		.long	0x4b4
 3832 04e6 04       		.byte	0x4
 3833 04e7 07       		.uleb128 0x7
 3834 04e8 65736900 		.string	"esi"
 3835 04ec 0E       		.byte	0xe
 3836 04ed A0       		.byte	0xa0
 3837 04ee 0B       		.byte	0xb
 3838 04ef B4040000 		.long	0x4b4
 3839 04f3 08       		.byte	0x8
 3840 04f4 07       		.uleb128 0x7
 3841 04f5 65627000 		.string	"ebp"
 3842 04f9 0E       		.byte	0xe
 3843 04fa A1       		.byte	0xa1
 3844 04fb 0B       		.byte	0xb
 3845 04fc B4040000 		.long	0x4b4
 3846 0500 0C       		.byte	0xc
 3847 0501 07       		.uleb128 0x7
 3848 0502 65697000 		.string	"eip"
 3849 0506 0E       		.byte	0xe
 3850 0507 A2       		.byte	0xa2
 3851 0508 0B       		.byte	0xb
 3852 0509 B4040000 		.long	0x4b4
 3853 050d 10       		.byte	0x10
 3854 050e 00       		.byte	0
 3855 050f 09       		.uleb128 0x9
 3856 0510 790A0000 		.long	.LASF82
 3857 0514 04       		.byte	0x4
 3858 0515 0E       		.byte	0xe
 3859 0516 AA       		.byte	0xaa
 3860 0517 08       		.byte	0x8
 3861 0518 29050000 		.long	0x529
GAS LISTING /tmp/ccwdkvlB.s 			page 75


 3862 051c 07       		.uleb128 0x7
 3863 051d 737000   		.string	"sp"
 3864 0520 0E       		.byte	0xe
 3865 0521 AB       		.byte	0xab
 3866 0522 17       		.byte	0x17
 3867 0523 29050000 		.long	0x529
 3868 0527 00       		.byte	0
 3869 0528 00       		.byte	0
 3870 0529 05       		.uleb128 0x5
 3871 052a C0040000 		.long	0x4c0
 3872 052e 0B       		.uleb128 0xb
 3873 052f 01       		.byte	0x1
 3874 0530 02       		.byte	0x2
 3875 0531 73030000 		.long	.LASF83
 3876 0535 09       		.uleb128 0x9
 3877 0536 9F000000 		.long	.LASF84
 3878 053a 18       		.byte	0x18
 3879 053b 09       		.byte	0x9
 3880 053c 64       		.byte	0x64
 3881 053d 10       		.byte	0x10
 3882 053e 6A050000 		.long	0x56a
 3883 0542 02       		.uleb128 0x2
 3884 0543 7A070000 		.long	.LASF85
 3885 0547 09       		.byte	0x9
 3886 0548 68       		.byte	0x68
 3887 0549 21       		.byte	0x21
 3888 054a 38040000 		.long	0x438
 3889 054e 00       		.byte	0
 3890 054f 02       		.uleb128 0x2
 3891 0550 81010000 		.long	.LASF86
 3892 0554 09       		.byte	0x9
 3893 0555 6D       		.byte	0x6d
 3894 0556 21       		.byte	0x21
 3895 0557 7C030000 		.long	0x37c
 3896 055b 0C       		.byte	0xc
 3897 055c 02       		.uleb128 0x2
 3898 055d 93020000 		.long	.LASF87
 3899 0561 09       		.byte	0x9
 3900 0562 81       		.byte	0x81
 3901 0563 21       		.byte	0x21
 3902 0564 FE000000 		.long	0xfe
 3903 0568 10       		.byte	0x10
 3904 0569 00       		.byte	0
 3905 056a 03       		.uleb128 0x3
 3906 056b 72050000 		.long	.LASF88
 3907 056f 09       		.byte	0x9
 3908 0570 83       		.byte	0x83
 3909 0571 03       		.byte	0x3
 3910 0572 35050000 		.long	0x535
 3911 0576 09       		.uleb128 0x9
 3912 0577 0B010000 		.long	.LASF89
 3913 057b 08       		.byte	0x8
 3914 057c 09       		.byte	0x9
 3915 057d 88       		.byte	0x88
 3916 057e 10       		.byte	0x10
 3917 057f 91050000 		.long	0x591
 3918 0583 02       		.uleb128 0x2
GAS LISTING /tmp/ccwdkvlB.s 			page 76


 3919 0584 7D080000 		.long	.LASF90
 3920 0588 09       		.byte	0x9
 3921 0589 8C       		.byte	0x8c
 3922 058a 21       		.byte	0x21
 3923 058b B9030000 		.long	0x3b9
 3924 058f 00       		.byte	0
 3925 0590 00       		.byte	0
 3926 0591 03       		.uleb128 0x3
 3927 0592 B6000000 		.long	.LASF91
 3928 0596 09       		.byte	0x9
 3929 0597 8D       		.byte	0x8d
 3930 0598 03       		.byte	0x3
 3931 0599 76050000 		.long	0x576
 3932 059d 03       		.uleb128 0x3
 3933 059e BB070000 		.long	.LASF92
 3934 05a2 09       		.byte	0x9
 3935 05a3 92       		.byte	0x92
 3936 05a4 14       		.byte	0x14
 3937 05a5 A9050000 		.long	0x5a9
 3938 05a9 05       		.uleb128 0x5
 3939 05aa 6F010000 		.long	0x16f
 3940 05ae 09       		.uleb128 0x9
 3941 05af 59080000 		.long	.LASF93
 3942 05b3 08       		.byte	0x8
 3943 05b4 09       		.byte	0x9
 3944 05b5 97       		.byte	0x97
 3945 05b6 10       		.byte	0x10
 3946 05b7 C9050000 		.long	0x5c9
 3947 05bb 02       		.uleb128 0x2
 3948 05bc 7D080000 		.long	.LASF90
 3949 05c0 09       		.byte	0x9
 3950 05c1 9B       		.byte	0x9b
 3951 05c2 21       		.byte	0x21
 3952 05c3 B9030000 		.long	0x3b9
 3953 05c7 00       		.byte	0
 3954 05c8 00       		.byte	0
 3955 05c9 03       		.uleb128 0x3
 3956 05ca 6B020000 		.long	.LASF94
 3957 05ce 09       		.byte	0x9
 3958 05cf 9C       		.byte	0x9c
 3959 05d0 03       		.byte	0x3
 3960 05d1 AE050000 		.long	0x5ae
 3961 05d5 03       		.uleb128 0x3
 3962 05d6 C4010000 		.long	.LASF95
 3963 05da 09       		.byte	0x9
 3964 05db A1       		.byte	0xa1
 3965 05dc 10       		.byte	0x10
 3966 05dd E1050000 		.long	0x5e1
 3967 05e1 05       		.uleb128 0x5
 3968 05e2 E6050000 		.long	0x5e6
 3969 05e6 2F       		.uleb128 0x2f
 3970 05e7 F1050000 		.long	0x5f1
 3971 05eb 04       		.uleb128 0x4
 3972 05ec A9050000 		.long	0x5a9
 3973 05f0 00       		.byte	0
 3974 05f1 30       		.uleb128 0x30
 3975 05f2 0C       		.byte	0xc
GAS LISTING /tmp/ccwdkvlB.s 			page 77


 3976 05f3 09       		.byte	0x9
 3977 05f4 AD       		.byte	0xad
 3978 05f5 03       		.byte	0x3
 3979 05f6 19060000 		.long	0x619
 3980 05fa 21       		.uleb128 0x21
 3981 05fb 21070000 		.long	.LASF96
 3982 05ff B1       		.byte	0xb1
 3983 0600 8D030000 		.long	0x38d
 3984 0604 21       		.uleb128 0x21
 3985 0605 7D080000 		.long	.LASF90
 3986 0609 B5       		.byte	0xb5
 3987 060a B9030000 		.long	0x3b9
 3988 060e 21       		.uleb128 0x21
 3989 060f 47090000 		.long	.LASF97
 3990 0613 B9       		.byte	0xb9
 3991 0614 F2030000 		.long	0x3f2
 3992 0618 00       		.byte	0
 3993 0619 31       		.uleb128 0x31
 3994 061a 04       		.byte	0x4
 3995 061b 09       		.byte	0x9
 3996 061c 0201     		.value	0x102
 3997 061e 03       		.byte	0x3
 3998 061f 84060000 		.long	0x684
 3999 0623 11       		.uleb128 0x11
 4000 0624 C90A0000 		.long	.LASF98
 4001 0628 0901     		.value	0x109
 4002 062a 21       		.byte	0x21
 4003 062b 33010000 		.long	0x133
 4004 062f 11       		.uleb128 0x11
 4005 0630 5C010000 		.long	.LASF99
 4006 0634 1001     		.value	0x110
 4007 0636 21       		.byte	0x21
 4008 0637 33010000 		.long	0x133
 4009 063b 11       		.uleb128 0x11
 4010 063c 9F030000 		.long	.LASF100
 4011 0640 1701     		.value	0x117
 4012 0642 22       		.byte	0x22
 4013 0643 B6000000 		.long	0xb6
 4014 0647 11       		.uleb128 0x11
 4015 0648 FC020000 		.long	.LASF101
 4016 064c 1E01     		.value	0x11e
 4017 064e 22       		.byte	0x22
 4018 064f 84060000 		.long	0x684
 4019 0653 11       		.uleb128 0x11
 4020 0654 CE070000 		.long	.LASF102
 4021 0658 2301     		.value	0x123
 4022 065a 21       		.byte	0x21
 4023 065b 33010000 		.long	0x133
 4024 065f 11       		.uleb128 0x11
 4025 0660 47000000 		.long	.LASF103
 4026 0664 2C01     		.value	0x12c
 4027 0666 22       		.byte	0x22
 4028 0667 B1060000 		.long	0x6b1
 4029 066b 11       		.uleb128 0x11
 4030 066c 61040000 		.long	.LASF104
 4031 0670 3501     		.value	0x135
 4032 0672 22       		.byte	0x22
GAS LISTING /tmp/ccwdkvlB.s 			page 78


 4033 0673 EB060000 		.long	0x6eb
 4034 0677 11       		.uleb128 0x11
 4035 0678 A9020000 		.long	.LASF105
 4036 067c 3D01     		.value	0x13d
 4037 067e 21       		.byte	0x21
 4038 067f 3F010000 		.long	0x13f
 4039 0683 00       		.byte	0
 4040 0684 05       		.uleb128 0x5
 4041 0685 9D050000 		.long	0x59d
 4042 0689 09       		.uleb128 0x9
 4043 068a 3F050000 		.long	.LASF106
 4044 068e 0C       		.byte	0xc
 4045 068f 0F       		.byte	0xf
 4046 0690 34       		.byte	0x34
 4047 0691 10       		.byte	0x10
 4048 0692 B1060000 		.long	0x6b1
 4049 0696 02       		.uleb128 0x2
 4050 0697 7D080000 		.long	.LASF90
 4051 069b 0F       		.byte	0xf
 4052 069c 35       		.byte	0x35
 4053 069d 19       		.byte	0x19
 4054 069e B9030000 		.long	0x3b9
 4055 06a2 00       		.byte	0
 4056 06a3 07       		.uleb128 0x7
 4057 06a4 636E7400 		.string	"cnt"
 4058 06a8 0F       		.byte	0xf
 4059 06a9 37       		.byte	0x37
 4060 06aa 19       		.byte	0x19
 4061 06ab 4B010000 		.long	0x14b
 4062 06af 08       		.byte	0x8
 4063 06b0 00       		.byte	0
 4064 06b1 05       		.uleb128 0x5
 4065 06b2 89060000 		.long	0x689
 4066 06b6 09       		.uleb128 0x9
 4067 06b7 CD090000 		.long	.LASF107
 4068 06bb 10       		.byte	0x10
 4069 06bc 10       		.byte	0x10
 4070 06bd 39       		.byte	0x39
 4071 06be 08       		.byte	0x8
 4072 06bf EB060000 		.long	0x6eb
 4073 06c3 02       		.uleb128 0x2
 4074 06c4 7D080000 		.long	.LASF90
 4075 06c8 10       		.byte	0x10
 4076 06c9 3A       		.byte	0x3a
 4077 06ca 19       		.byte	0x19
 4078 06cb B9030000 		.long	0x3b9
 4079 06cf 00       		.byte	0
 4080 06d0 02       		.uleb128 0x2
 4081 06d1 58000000 		.long	.LASF33
 4082 06d5 10       		.byte	0x10
 4083 06d6 3C       		.byte	0x3c
 4084 06d7 1A       		.byte	0x1a
 4085 06d8 A9050000 		.long	0x5a9
 4086 06dc 08       		.byte	0x8
 4087 06dd 02       		.uleb128 0x2
 4088 06de F80B0000 		.long	.LASF70
 4089 06e2 10       		.byte	0x10
GAS LISTING /tmp/ccwdkvlB.s 			page 79


 4090 06e3 3E       		.byte	0x3e
 4091 06e4 1A       		.byte	0x1a
 4092 06e5 B4070000 		.long	0x7b4
 4093 06e9 0C       		.byte	0xc
 4094 06ea 00       		.byte	0
 4095 06eb 05       		.uleb128 0x5
 4096 06ec B6060000 		.long	0x6b6
 4097 06f0 05       		.uleb128 0x5
 4098 06f1 75020000 		.long	0x275
 4099 06f5 05       		.uleb128 0x5
 4100 06f6 A7040000 		.long	0x4a7
 4101 06fa 18       		.uleb128 0x18
 4102 06fb 68040000 		.long	.LASF108
 4103 06ff 10       		.byte	0x10
 4104 0700 09       		.byte	0x9
 4105 0701 6C01     		.value	0x16c
 4106 0703 10       		.byte	0x10
 4107 0704 25070000 		.long	0x725
 4108 0708 08       		.uleb128 0x8
 4109 0709 47090000 		.long	.LASF97
 4110 070d 09       		.byte	0x9
 4111 070e 7101     		.value	0x171
 4112 0710 21       		.byte	0x21
 4113 0711 F2030000 		.long	0x3f2
 4114 0715 00       		.byte	0
 4115 0716 08       		.uleb128 0x8
 4116 0717 19070000 		.long	.LASF109
 4117 071b 09       		.byte	0x9
 4118 071c 7501     		.value	0x175
 4119 071e 22       		.byte	0x22
 4120 071f A9050000 		.long	0x5a9
 4121 0723 0C       		.byte	0xc
 4122 0724 00       		.byte	0
 4123 0725 1D       		.uleb128 0x1d
 4124 0726 A9050000 		.long	.LASF110
 4125 072a 09       		.byte	0x9
 4126 072b 7601     		.value	0x176
 4127 072d FA060000 		.long	0x6fa
 4128 0731 18       		.uleb128 0x18
 4129 0732 7D090000 		.long	.LASF111
 4130 0736 14       		.byte	0x14
 4131 0737 09       		.byte	0x9
 4132 0738 7B01     		.value	0x17b
 4133 073a 10       		.byte	0x10
 4134 073b 86070000 		.long	0x786
 4135 073f 08       		.uleb128 0x8
 4136 0740 54090000 		.long	.LASF39
 4137 0744 09       		.byte	0x9
 4138 0745 7F01     		.value	0x17f
 4139 0747 22       		.byte	0x22
 4140 0748 5A030000 		.long	0x35a
 4141 074c 00       		.byte	0
 4142 074d 08       		.uleb128 0x8
 4143 074e D6090000 		.long	.LASF112
 4144 0752 09       		.byte	0x9
 4145 0753 8301     		.value	0x183
 4146 0755 22       		.byte	0x22
GAS LISTING /tmp/ccwdkvlB.s 			page 80


 4147 0756 F5060000 		.long	0x6f5
 4148 075a 04       		.byte	0x4
 4149 075b 08       		.uleb128 0x8
 4150 075c 08060000 		.long	.LASF113
 4151 0760 09       		.byte	0x9
 4152 0761 8701     		.value	0x187
 4153 0763 22       		.byte	0x22
 4154 0764 F5060000 		.long	0x6f5
 4155 0768 08       		.byte	0x8
 4156 0769 08       		.uleb128 0x8
 4157 076a 36080000 		.long	.LASF114
 4158 076e 09       		.byte	0x9
 4159 076f 8C01     		.value	0x18c
 4160 0771 22       		.byte	0x22
 4161 0772 F5060000 		.long	0x6f5
 4162 0776 0C       		.byte	0xc
 4163 0777 08       		.uleb128 0x8
 4164 0778 42070000 		.long	.LASF115
 4165 077c 09       		.byte	0x9
 4166 077d 9001     		.value	0x190
 4167 077f 22       		.byte	0x22
 4168 0780 F5060000 		.long	0x6f5
 4169 0784 10       		.byte	0x10
 4170 0785 00       		.byte	0
 4171 0786 1D       		.uleb128 0x1d
 4172 0787 9D090000 		.long	.LASF116
 4173 078b 09       		.byte	0x9
 4174 078c 9201     		.value	0x192
 4175 078e 31070000 		.long	0x731
 4176 0792 10       		.uleb128 0x10
 4177 0793 86070000 		.long	0x786
 4178 0797 05       		.uleb128 0x5
 4179 0798 92070000 		.long	0x792
 4180 079c 03       		.uleb128 0x3
 4181 079d 070C0000 		.long	.LASF117
 4182 07a1 0F       		.byte	0xf
 4183 07a2 38       		.byte	0x38
 4184 07a3 03       		.byte	0x3
 4185 07a4 89060000 		.long	0x689
 4186 07a8 03       		.uleb128 0x3
 4187 07a9 690A0000 		.long	.LASF118
 4188 07ad 10       		.byte	0x10
 4189 07ae 34       		.byte	0x34
 4190 07af 19       		.byte	0x19
 4191 07b0 B6060000 		.long	0x6b6
 4192 07b4 05       		.uleb128 0x5
 4193 07b5 A8070000 		.long	0x7a8
 4194 07b9 0E       		.uleb128 0xe
 4195 07ba 28       		.byte	0x28
 4196 07bb 11       		.byte	0x11
 4197 07bc 34       		.byte	0x34
 4198 07bd 28080000 		.long	0x828
 4199 07c1 02       		.uleb128 0x2
 4200 07c2 28040000 		.long	.LASF119
 4201 07c6 11       		.byte	0x11
 4202 07c7 35       		.byte	0x35
 4203 07c8 1A       		.byte	0x1a
GAS LISTING /tmp/ccwdkvlB.s 			page 81


 4204 07c9 28080000 		.long	0x828
 4205 07cd 00       		.byte	0
 4206 07ce 07       		.uleb128 0x7
 4207 07cf 746F7000 		.string	"top"
 4208 07d3 11       		.byte	0x11
 4209 07d4 37       		.byte	0x37
 4210 07d5 1A       		.byte	0x1a
 4211 07d6 28080000 		.long	0x828
 4212 07da 04       		.byte	0x4
 4213 07db 02       		.uleb128 0x2
 4214 07dc 02060000 		.long	.LASF120
 4215 07e0 11       		.byte	0x11
 4216 07e1 39       		.byte	0x39
 4217 07e2 1A       		.byte	0x1a
 4218 07e3 28080000 		.long	0x828
 4219 07e7 08       		.byte	0x8
 4220 07e8 02       		.uleb128 0x2
 4221 07e9 85020000 		.long	.LASF121
 4222 07ed 11       		.byte	0x11
 4223 07ee 3A       		.byte	0x3a
 4224 07ef 1A       		.byte	0x1a
 4225 07f0 28080000 		.long	0x828
 4226 07f4 0C       		.byte	0xc
 4227 07f5 07       		.uleb128 0x7
 4228 07f6 636E7400 		.string	"cnt"
 4229 07fa 11       		.byte	0x11
 4230 07fb 3B       		.byte	0x3b
 4231 07fc 19       		.byte	0x19
 4232 07fd 2D000000 		.long	0x2d
 4233 0801 10       		.byte	0x10
 4234 0802 02       		.uleb128 0x2
 4235 0803 4E090000 		.long	.LASF122
 4236 0807 11       		.byte	0x11
 4237 0808 3C       		.byte	0x3c
 4238 0809 19       		.byte	0x19
 4239 080a 2E050000 		.long	0x52e
 4240 080e 14       		.byte	0x14
 4241 080f 07       		.uleb128 0x7
 4242 0810 717700   		.string	"qw"
 4243 0813 11       		.byte	0x11
 4244 0814 3D       		.byte	0x3d
 4245 0815 19       		.byte	0x19
 4246 0816 C9050000 		.long	0x5c9
 4247 081a 18       		.byte	0x18
 4248 081b 07       		.uleb128 0x7
 4249 081c 717200   		.string	"qr"
 4250 081f 11       		.byte	0x11
 4251 0820 3E       		.byte	0x3e
 4252 0821 19       		.byte	0x19
 4253 0822 C9050000 		.long	0x5c9
 4254 0826 20       		.byte	0x20
 4255 0827 00       		.byte	0
 4256 0828 05       		.uleb128 0x5
 4257 0829 33010000 		.long	0x133
 4258 082d 03       		.uleb128 0x3
 4259 082e FD0B0000 		.long	.LASF123
 4260 0832 11       		.byte	0x11
GAS LISTING /tmp/ccwdkvlB.s 			page 82


 4261 0833 3F       		.byte	0x3f
 4262 0834 03       		.byte	0x3
 4263 0835 B9070000 		.long	0x7b9
 4264 0839 03       		.uleb128 0x3
 4265 083a 80070000 		.long	.LASF124
 4266 083e 12       		.byte	0x12
 4267 083f 47       		.byte	0x47
 4268 0840 11       		.byte	0x11
 4269 0841 45080000 		.long	0x845
 4270 0845 05       		.uleb128 0x5
 4271 0846 4A080000 		.long	0x84a
 4272 084a 13       		.uleb128 0x13
 4273 084b B6000000 		.long	0xb6
 4274 084f 5E080000 		.long	0x85e
 4275 0853 04       		.uleb128 0x4
 4276 0854 2D000000 		.long	0x2d
 4277 0858 04       		.uleb128 0x4
 4278 0859 39000000 		.long	0x39
 4279 085d 00       		.byte	0
 4280 085e 09       		.uleb128 0x9
 4281 085f DE050000 		.long	.LASF125
 4282 0863 04       		.byte	0x4
 4283 0864 13       		.byte	0x13
 4284 0865 38       		.byte	0x38
 4285 0866 08       		.byte	0x8
 4286 0867 79080000 		.long	0x879
 4287 086b 02       		.uleb128 0x2
 4288 086c F80B0000 		.long	.LASF70
 4289 0870 13       		.byte	0x13
 4290 0871 39       		.byte	0x39
 4291 0872 1A       		.byte	0x1a
 4292 0873 79080000 		.long	0x879
 4293 0877 00       		.byte	0
 4294 0878 00       		.byte	0
 4295 0879 05       		.uleb128 0x5
 4296 087a 5E080000 		.long	0x85e
 4297 087e 0E       		.uleb128 0xe
 4298 087f 10       		.byte	0x10
 4299 0880 13       		.byte	0x13
 4300 0881 40       		.byte	0x40
 4301 0882 BB080000 		.long	0x8bb
 4302 0886 02       		.uleb128 0x2
 4303 0887 F80B0000 		.long	.LASF70
 4304 088b 13       		.byte	0x13
 4305 088c 41       		.byte	0x41
 4306 088d 1A       		.byte	0x1a
 4307 088e 79080000 		.long	0x879
 4308 0892 00       		.byte	0
 4309 0893 02       		.uleb128 0x2
 4310 0894 400A0000 		.long	.LASF126
 4311 0898 13       		.byte	0x13
 4312 0899 42       		.byte	0x42
 4313 089a 19       		.byte	0x19
 4314 089b 2D000000 		.long	0x2d
 4315 089f 04       		.byte	0x4
 4316 08a0 02       		.uleb128 0x2
 4317 08a1 60060000 		.long	.LASF127
GAS LISTING /tmp/ccwdkvlB.s 			page 83


 4318 08a5 13       		.byte	0x13
 4319 08a6 44       		.byte	0x44
 4320 08a7 19       		.byte	0x19
 4321 08a8 39000000 		.long	0x39
 4322 08ac 08       		.byte	0x8
 4323 08ad 02       		.uleb128 0x2
 4324 08ae 7A000000 		.long	.LASF128
 4325 08b2 13       		.byte	0x13
 4326 08b3 45       		.byte	0x45
 4327 08b4 19       		.byte	0x19
 4328 08b5 39080000 		.long	0x839
 4329 08b9 0C       		.byte	0xc
 4330 08ba 00       		.byte	0
 4331 08bb 03       		.uleb128 0x3
 4332 08bc DD080000 		.long	.LASF129
 4333 08c0 13       		.byte	0x13
 4334 08c1 47       		.byte	0x47
 4335 08c2 03       		.byte	0x3
 4336 08c3 7E080000 		.long	0x87e
 4337 08c7 0E       		.uleb128 0xe
 4338 08c8 1C       		.byte	0x1c
 4339 08c9 13       		.byte	0x13
 4340 08ca 4D       		.byte	0x4d
 4341 08cb EA080000 		.long	0x8ea
 4342 08cf 07       		.uleb128 0x7
 4343 08d0 73656D00 		.string	"sem"
 4344 08d4 13       		.byte	0x13
 4345 08d5 4E       		.byte	0x4e
 4346 08d6 19       		.byte	0x19
 4347 08d7 9C070000 		.long	0x79c
 4348 08db 00       		.byte	0
 4349 08dc 02       		.uleb128 0x2
 4350 08dd 4E080000 		.long	.LASF130
 4351 08e1 13       		.byte	0x13
 4352 08e2 50       		.byte	0x50
 4353 08e3 19       		.byte	0x19
 4354 08e4 BB080000 		.long	0x8bb
 4355 08e8 0C       		.byte	0xc
 4356 08e9 00       		.byte	0
 4357 08ea 03       		.uleb128 0x3
 4358 08eb BE0B0000 		.long	.LASF131
 4359 08ef 13       		.byte	0x13
 4360 08f0 51       		.byte	0x51
 4361 08f1 03       		.byte	0x3
 4362 08f2 C7080000 		.long	0x8c7
 4363 08f6 09       		.uleb128 0x9
 4364 08f7 59090000 		.long	.LASF132
 4365 08fb 44       		.byte	0x44
 4366 08fc 14       		.byte	0x14
 4367 08fd 50       		.byte	0x50
 4368 08fe 10       		.byte	0x10
 4369 08ff 1E090000 		.long	0x91e
 4370 0903 02       		.uleb128 0x2
 4371 0904 C40A0000 		.long	.LASF133
 4372 0908 14       		.byte	0x14
 4373 0909 54       		.byte	0x54
 4374 090a 1D       		.byte	0x1d
GAS LISTING /tmp/ccwdkvlB.s 			page 84


 4375 090b EA080000 		.long	0x8ea
 4376 090f 00       		.byte	0
 4377 0910 07       		.uleb128 0x7
 4378 0911 6D627800 		.string	"mbx"
 4379 0915 14       		.byte	0x14
 4380 0916 58       		.byte	0x58
 4381 0917 1D       		.byte	0x1d
 4382 0918 2D080000 		.long	0x82d
 4383 091c 1C       		.byte	0x1c
 4384 091d 00       		.byte	0
 4385 091e 03       		.uleb128 0x3
 4386 091f D5030000 		.long	.LASF134
 4387 0923 14       		.byte	0x14
 4388 0924 59       		.byte	0x59
 4389 0925 03       		.byte	0x3
 4390 0926 F6080000 		.long	0x8f6
 4391 092a 0E       		.uleb128 0xe
 4392 092b 50       		.byte	0x50
 4393 092c 15       		.byte	0x15
 4394 092d 34       		.byte	0x34
 4395 092e C2090000 		.long	0x9c2
 4396 0932 02       		.uleb128 0x2
 4397 0933 28040000 		.long	.LASF119
 4398 0937 15       		.byte	0x15
 4399 0938 35       		.byte	0x35
 4400 0939 1A       		.byte	0x1a
 4401 093a 7E040000 		.long	0x47e
 4402 093e 00       		.byte	0
 4403 093f 07       		.uleb128 0x7
 4404 0940 746F7000 		.string	"top"
 4405 0944 15       		.byte	0x15
 4406 0945 37       		.byte	0x37
 4407 0946 1A       		.byte	0x1a
 4408 0947 7E040000 		.long	0x47e
 4409 094b 04       		.byte	0x4
 4410 094c 02       		.uleb128 0x2
 4411 094d 02060000 		.long	.LASF120
 4412 0951 15       		.byte	0x15
 4413 0952 39       		.byte	0x39
 4414 0953 1A       		.byte	0x1a
 4415 0954 7E040000 		.long	0x47e
 4416 0958 08       		.byte	0x8
 4417 0959 02       		.uleb128 0x2
 4418 095a 85020000 		.long	.LASF121
 4419 095e 15       		.byte	0x15
 4420 095f 3A       		.byte	0x3a
 4421 0960 1A       		.byte	0x1a
 4422 0961 7E040000 		.long	0x47e
 4423 0965 0C       		.byte	0xc
 4424 0966 07       		.uleb128 0x7
 4425 0967 636E7400 		.string	"cnt"
 4426 096b 15       		.byte	0x15
 4427 096c 3B       		.byte	0x3b
 4428 096d 19       		.byte	0x19
 4429 096e 2D000000 		.long	0x2d
 4430 0972 10       		.byte	0x10
 4431 0973 02       		.uleb128 0x2
GAS LISTING /tmp/ccwdkvlB.s 			page 85


 4432 0974 4E090000 		.long	.LASF122
 4433 0978 15       		.byte	0x15
 4434 0979 3C       		.byte	0x3c
 4435 097a 19       		.byte	0x19
 4436 097b 2E050000 		.long	0x52e
 4437 097f 14       		.byte	0x14
 4438 0980 07       		.uleb128 0x7
 4439 0981 77747200 		.string	"wtr"
 4440 0985 15       		.byte	0x15
 4441 0986 3D       		.byte	0x3d
 4442 0987 19       		.byte	0x19
 4443 0988 9D050000 		.long	0x59d
 4444 098c 18       		.byte	0x18
 4445 098d 07       		.uleb128 0x7
 4446 098e 72747200 		.string	"rtr"
 4447 0992 15       		.byte	0x15
 4448 0993 3E       		.byte	0x3e
 4449 0994 19       		.byte	0x19
 4450 0995 9D050000 		.long	0x59d
 4451 0999 1C       		.byte	0x1c
 4452 099a 02       		.uleb128 0x2
 4453 099b BF0A0000 		.long	.LASF135
 4454 099f 15       		.byte	0x15
 4455 09a0 40       		.byte	0x40
 4456 09a1 19       		.byte	0x19
 4457 09a2 A8070000 		.long	0x7a8
 4458 09a6 20       		.byte	0x20
 4459 09a7 02       		.uleb128 0x2
 4460 09a8 D0030000 		.long	.LASF136
 4461 09ac 15       		.byte	0x15
 4462 09ad 41       		.byte	0x41
 4463 09ae 19       		.byte	0x19
 4464 09af A8070000 		.long	0x7a8
 4465 09b3 30       		.byte	0x30
 4466 09b4 02       		.uleb128 0x2
 4467 09b5 8A080000 		.long	.LASF137
 4468 09b9 15       		.byte	0x15
 4469 09ba 42       		.byte	0x42
 4470 09bb 19       		.byte	0x19
 4471 09bc A8070000 		.long	0x7a8
 4472 09c0 40       		.byte	0x40
 4473 09c1 00       		.byte	0
 4474 09c2 03       		.uleb128 0x3
 4475 09c3 40090000 		.long	.LASF138
 4476 09c7 15       		.byte	0x15
 4477 09c8 48       		.byte	0x48
 4478 09c9 03       		.byte	0x3
 4479 09ca 2A090000 		.long	0x92a
 4480 09ce 09       		.uleb128 0x9
 4481 09cf C7000000 		.long	.LASF139
 4482 09d3 10       		.byte	0x10
 4483 09d4 02       		.byte	0x2
 4484 09d5 A9       		.byte	0xa9
 4485 09d6 10       		.byte	0x10
 4486 09d7 030A0000 		.long	0xa03
 4487 09db 02       		.uleb128 0x2
 4488 09dc F80B0000 		.long	.LASF70
GAS LISTING /tmp/ccwdkvlB.s 			page 86


 4489 09e0 02       		.byte	0x2
 4490 09e1 AD       		.byte	0xad
 4491 09e2 1A       		.byte	0x1a
 4492 09e3 030A0000 		.long	0xa03
 4493 09e7 00       		.byte	0
 4494 09e8 02       		.uleb128 0x2
 4495 09e9 78080000 		.long	.LASF38
 4496 09ed 02       		.byte	0x2
 4497 09ee B1       		.byte	0xb1
 4498 09ef 19       		.byte	0x19
 4499 09f0 57010000 		.long	0x157
 4500 09f4 04       		.byte	0x4
 4501 09f5 02       		.uleb128 0x2
 4502 09f6 54090000 		.long	.LASF39
 4503 09fa 02       		.byte	0x2
 4504 09fb B3       		.byte	0xb3
 4505 09fc 19       		.byte	0x19
 4506 09fd 080A0000 		.long	0xa08
 4507 0a01 08       		.byte	0x8
 4508 0a02 00       		.byte	0
 4509 0a03 05       		.uleb128 0x5
 4510 0a04 CE090000 		.long	0x9ce
 4511 0a08 1B       		.uleb128 0x1b
 4512 0a09 BD000000 		.long	0xbd
 4513 0a0d 180A0000 		.long	0xa18
 4514 0a11 1C       		.uleb128 0x1c
 4515 0a12 39000000 		.long	0x39
 4516 0a16 07       		.byte	0x7
 4517 0a17 00       		.byte	0
 4518 0a18 03       		.uleb128 0x3
 4519 0a19 5B0A0000 		.long	.LASF140
 4520 0a1d 02       		.byte	0x2
 4521 0a1e B7       		.byte	0xb7
 4522 0a1f 03       		.byte	0x3
 4523 0a20 CE090000 		.long	0x9ce
 4524 0a24 05       		.uleb128 0x5
 4525 0a25 180A0000 		.long	0xa18
 4526 0a29 09       		.uleb128 0x9
 4527 0a2a 7E030000 		.long	.LASF141
 4528 0a2e 14       		.byte	0x14
 4529 0a2f 02       		.byte	0x2
 4530 0a30 C4       		.byte	0xc4
 4531 0a31 10       		.byte	0x10
 4532 0a32 510A0000 		.long	0xa51
 4533 0a36 02       		.uleb128 0x2
 4534 0a37 F3070000 		.long	.LASF142
 4535 0a3b 02       		.byte	0x2
 4536 0a3c C8       		.byte	0xc8
 4537 0a3d 19       		.byte	0x19
 4538 0a3e 180A0000 		.long	0xa18
 4539 0a42 00       		.byte	0
 4540 0a43 02       		.uleb128 0x2
 4541 0a44 860A0000 		.long	.LASF143
 4542 0a48 02       		.byte	0x2
 4543 0a49 CD       		.byte	0xcd
 4544 0a4a 1A       		.byte	0x1a
 4545 0a4b B6000000 		.long	0xb6
GAS LISTING /tmp/ccwdkvlB.s 			page 87


 4546 0a4f 10       		.byte	0x10
 4547 0a50 00       		.byte	0
 4548 0a51 03       		.uleb128 0x3
 4549 0a52 B0010000 		.long	.LASF144
 4550 0a56 02       		.byte	0x2
 4551 0a57 CE       		.byte	0xce
 4552 0a58 03       		.byte	0x3
 4553 0a59 290A0000 		.long	0xa29
 4554 0a5d 09       		.uleb128 0x9
 4555 0a5e 85040000 		.long	.LASF145
 4556 0a62 10       		.byte	0x10
 4557 0a63 02       		.byte	0x2
 4558 0a64 D5       		.byte	0xd5
 4559 0a65 10       		.byte	0x10
 4560 0a66 780A0000 		.long	0xa78
 4561 0a6a 02       		.uleb128 0x2
 4562 0a6b F3070000 		.long	.LASF142
 4563 0a6f 02       		.byte	0x2
 4564 0a70 D9       		.byte	0xd9
 4565 0a71 19       		.byte	0x19
 4566 0a72 180A0000 		.long	0xa18
 4567 0a76 00       		.byte	0
 4568 0a77 00       		.byte	0
 4569 0a78 03       		.uleb128 0x3
 4570 0a79 2B030000 		.long	.LASF146
 4571 0a7d 02       		.byte	0x2
 4572 0a7e DA       		.byte	0xda
 4573 0a7f 03       		.byte	0x3
 4574 0a80 5D0A0000 		.long	0xa5d
 4575 0a84 09       		.uleb128 0x9
 4576 0a85 E2070000 		.long	.LASF147
 4577 0a89 1C       		.byte	0x1c
 4578 0a8a 02       		.byte	0x2
 4579 0a8b E1       		.byte	0xe1
 4580 0a8c 10       		.byte	0x10
 4581 0a8d AC0A0000 		.long	0xaac
 4582 0a91 02       		.uleb128 0x2
 4583 0a92 F3070000 		.long	.LASF142
 4584 0a96 02       		.byte	0x2
 4585 0a97 E5       		.byte	0xe5
 4586 0a98 19       		.byte	0x19
 4587 0a99 180A0000 		.long	0xa18
 4588 0a9d 00       		.byte	0
 4589 0a9e 07       		.uleb128 0x7
 4590 0a9f 73656D00 		.string	"sem"
 4591 0aa3 02       		.byte	0x2
 4592 0aa4 E9       		.byte	0xe9
 4593 0aa5 19       		.byte	0x19
 4594 0aa6 9C070000 		.long	0x79c
 4595 0aaa 10       		.byte	0x10
 4596 0aab 00       		.byte	0
 4597 0aac 03       		.uleb128 0x3
 4598 0aad 51040000 		.long	.LASF148
 4599 0ab1 02       		.byte	0x2
 4600 0ab2 EA       		.byte	0xea
 4601 0ab3 03       		.byte	0x3
 4602 0ab4 840A0000 		.long	0xa84
GAS LISTING /tmp/ccwdkvlB.s 			page 88


 4603 0ab8 09       		.uleb128 0x9
 4604 0ab9 66000000 		.long	.LASF149
 4605 0abd 38       		.byte	0x38
 4606 0abe 02       		.byte	0x2
 4607 0abf F1       		.byte	0xf1
 4608 0ac0 10       		.byte	0x10
 4609 0ac1 E00A0000 		.long	0xae0
 4610 0ac5 02       		.uleb128 0x2
 4611 0ac6 F3070000 		.long	.LASF142
 4612 0aca 02       		.byte	0x2
 4613 0acb F5       		.byte	0xf5
 4614 0acc 19       		.byte	0x19
 4615 0acd 180A0000 		.long	0xa18
 4616 0ad1 00       		.byte	0
 4617 0ad2 07       		.uleb128 0x7
 4618 0ad3 6D627800 		.string	"mbx"
 4619 0ad7 02       		.byte	0x2
 4620 0ad8 F9       		.byte	0xf9
 4621 0ad9 19       		.byte	0x19
 4622 0ada 2D080000 		.long	0x82d
 4623 0ade 10       		.byte	0x10
 4624 0adf 00       		.byte	0
 4625 0ae0 03       		.uleb128 0x3
 4626 0ae1 11080000 		.long	.LASF150
 4627 0ae5 02       		.byte	0x2
 4628 0ae6 FA       		.byte	0xfa
 4629 0ae7 03       		.byte	0x3
 4630 0ae8 B80A0000 		.long	0xab8
 4631 0aec 18       		.uleb128 0x18
 4632 0aed 2C090000 		.long	.LASF151
 4633 0af1 54       		.byte	0x54
 4634 0af2 02       		.byte	0x2
 4635 0af3 0101     		.value	0x101
 4636 0af5 10       		.byte	0x10
 4637 0af6 170B0000 		.long	0xb17
 4638 0afa 08       		.uleb128 0x8
 4639 0afb F3070000 		.long	.LASF142
 4640 0aff 02       		.byte	0x2
 4641 0b00 0501     		.value	0x105
 4642 0b02 19       		.byte	0x19
 4643 0b03 180A0000 		.long	0xa18
 4644 0b07 00       		.byte	0
 4645 0b08 08       		.uleb128 0x8
 4646 0b09 A2010000 		.long	.LASF152
 4647 0b0d 02       		.byte	0x2
 4648 0b0e 0901     		.value	0x109
 4649 0b10 19       		.byte	0x19
 4650 0b11 1E090000 		.long	0x91e
 4651 0b15 10       		.byte	0x10
 4652 0b16 00       		.byte	0
 4653 0b17 1D       		.uleb128 0x1d
 4654 0b18 DD020000 		.long	.LASF153
 4655 0b1c 02       		.byte	0x2
 4656 0b1d 0A01     		.value	0x10a
 4657 0b1f EC0A0000 		.long	0xaec
 4658 0b23 18       		.uleb128 0x18
 4659 0b24 8B0A0000 		.long	.LASF154
GAS LISTING /tmp/ccwdkvlB.s 			page 89


 4660 0b28 60       		.byte	0x60
 4661 0b29 02       		.byte	0x2
 4662 0b2a 1101     		.value	0x111
 4663 0b2c 10       		.byte	0x10
 4664 0b2d 4E0B0000 		.long	0xb4e
 4665 0b31 08       		.uleb128 0x8
 4666 0b32 F3070000 		.long	.LASF142
 4667 0b36 02       		.byte	0x2
 4668 0b37 1501     		.value	0x115
 4669 0b39 19       		.byte	0x19
 4670 0b3a 180A0000 		.long	0xa18
 4671 0b3e 00       		.byte	0
 4672 0b3f 08       		.uleb128 0x8
 4673 0b40 56060000 		.long	.LASF155
 4674 0b44 02       		.byte	0x2
 4675 0b45 1901     		.value	0x119
 4676 0b47 19       		.byte	0x19
 4677 0b48 C2090000 		.long	0x9c2
 4678 0b4c 10       		.byte	0x10
 4679 0b4d 00       		.byte	0
 4680 0b4e 1D       		.uleb128 0x1d
 4681 0b4f 00010000 		.long	.LASF156
 4682 0b53 02       		.byte	0x2
 4683 0b54 1A01     		.value	0x11a
 4684 0b56 230B0000 		.long	0xb23
 4685 0b5a 09       		.uleb128 0x9
 4686 0b5b EB080000 		.long	.LASF157
 4687 0b5f 14       		.byte	0x14
 4688 0b60 16       		.byte	0x16
 4689 0b61 4F       		.byte	0x4f
 4690 0b62 08       		.byte	0x8
 4691 0b63 A90B0000 		.long	0xba9
 4692 0b67 02       		.uleb128 0x2
 4693 0b68 A00A0000 		.long	.LASF158
 4694 0b6c 16       		.byte	0x16
 4695 0b6d 50       		.byte	0x50
 4696 0b6e 03       		.byte	0x3
 4697 0b6f 2D000000 		.long	0x2d
 4698 0b73 00       		.byte	0
 4699 0b74 02       		.uleb128 0x2
 4700 0b75 C1000000 		.long	.LASF159
 4701 0b79 16       		.byte	0x16
 4702 0b7a 50       		.byte	0x50
 4703 0b7b 03       		.byte	0x3
 4704 0b7c CC0B0000 		.long	0xbcc
 4705 0b80 04       		.byte	0x4
 4706 0b81 02       		.uleb128 0x2
 4707 0b82 6C060000 		.long	.LASF160
 4708 0b86 16       		.byte	0x16
 4709 0b87 50       		.byte	0x50
 4710 0b88 03       		.byte	0x3
 4711 0b89 EA0B0000 		.long	0xbea
 4712 0b8d 08       		.byte	0x8
 4713 0b8e 07       		.uleb128 0x7
 4714 0b8f 70757400 		.string	"put"
 4715 0b93 16       		.byte	0x16
 4716 0b94 50       		.byte	0x50
GAS LISTING /tmp/ccwdkvlB.s 			page 90


 4717 0b95 03       		.byte	0x3
 4718 0b96 030C0000 		.long	0xc03
 4719 0b9a 0C       		.byte	0xc
 4720 0b9b 07       		.uleb128 0x7
 4721 0b9c 67657400 		.string	"get"
 4722 0ba0 16       		.byte	0x16
 4723 0ba1 50       		.byte	0x50
 4724 0ba2 03       		.byte	0x3
 4725 0ba3 170C0000 		.long	0xc17
 4726 0ba7 10       		.byte	0x10
 4727 0ba8 00       		.byte	0
 4728 0ba9 10       		.uleb128 0x10
 4729 0baa 5A0B0000 		.long	0xb5a
 4730 0bae 13       		.uleb128 0x13
 4731 0baf 2D000000 		.long	0x2d
 4732 0bb3 C70B0000 		.long	0xbc7
 4733 0bb7 04       		.uleb128 0x4
 4734 0bb8 B6000000 		.long	0xb6
 4735 0bbc 04       		.uleb128 0x4
 4736 0bbd C70B0000 		.long	0xbc7
 4737 0bc1 04       		.uleb128 0x4
 4738 0bc2 2D000000 		.long	0x2d
 4739 0bc6 00       		.byte	0
 4740 0bc7 05       		.uleb128 0x5
 4741 0bc8 E1000000 		.long	0xe1
 4742 0bcc 05       		.uleb128 0x5
 4743 0bcd AE0B0000 		.long	0xbae
 4744 0bd1 13       		.uleb128 0x13
 4745 0bd2 2D000000 		.long	0x2d
 4746 0bd6 EA0B0000 		.long	0xbea
 4747 0bda 04       		.uleb128 0x4
 4748 0bdb B6000000 		.long	0xb6
 4749 0bdf 04       		.uleb128 0x4
 4750 0be0 7E040000 		.long	0x47e
 4751 0be4 04       		.uleb128 0x4
 4752 0be5 2D000000 		.long	0x2d
 4753 0be9 00       		.byte	0
 4754 0bea 05       		.uleb128 0x5
 4755 0beb D10B0000 		.long	0xbd1
 4756 0bef 13       		.uleb128 0x13
 4757 0bf0 33010000 		.long	0x133
 4758 0bf4 030C0000 		.long	0xc03
 4759 0bf8 04       		.uleb128 0x4
 4760 0bf9 B6000000 		.long	0xb6
 4761 0bfd 04       		.uleb128 0x4
 4762 0bfe D5000000 		.long	0xd5
 4763 0c02 00       		.byte	0
 4764 0c03 05       		.uleb128 0x5
 4765 0c04 EF0B0000 		.long	0xbef
 4766 0c08 13       		.uleb128 0x13
 4767 0c09 33010000 		.long	0x133
 4768 0c0d 170C0000 		.long	0xc17
 4769 0c11 04       		.uleb128 0x4
 4770 0c12 B6000000 		.long	0xb6
 4771 0c16 00       		.byte	0
 4772 0c17 05       		.uleb128 0x5
 4773 0c18 080C0000 		.long	0xc08
GAS LISTING /tmp/ccwdkvlB.s 			page 91


 4774 0c1c 0E       		.uleb128 0xe
 4775 0c1d 04       		.byte	0x4
 4776 0c1e 16       		.byte	0x16
 4777 0c1f 5A       		.byte	0x5a
 4778 0c20 320C0000 		.long	0xc32
 4779 0c24 07       		.uleb128 0x7
 4780 0c25 766D7400 		.string	"vmt"
 4781 0c29 16       		.byte	0x16
 4782 0c2a 5C       		.byte	0x5c
 4783 0c2b 29       		.byte	0x29
 4784 0c2c 320C0000 		.long	0xc32
 4785 0c30 00       		.byte	0
 4786 0c31 00       		.byte	0
 4787 0c32 05       		.uleb128 0x5
 4788 0c33 A90B0000 		.long	0xba9
 4789 0c37 03       		.uleb128 0x3
 4790 0c38 D6000000 		.long	.LASF161
 4791 0c3c 16       		.byte	0x16
 4792 0c3d 5E       		.byte	0x5e
 4793 0c3e 03       		.byte	0x3
 4794 0c3f 1C0C0000 		.long	0xc1c
 4795 0c43 03       		.uleb128 0x3
 4796 0c44 310A0000 		.long	.LASF162
 4797 0c48 17       		.byte	0x17
 4798 0c49 7D       		.byte	0x7d
 4799 0c4a 0F       		.byte	0xf
 4800 0c4b 4F0C0000 		.long	0xc4f
 4801 0c4f 05       		.uleb128 0x5
 4802 0c50 540C0000 		.long	0xc54
 4803 0c54 13       		.uleb128 0x13
 4804 0c55 26000000 		.long	0x26
 4805 0c59 630C0000 		.long	0xc63
 4806 0c5d 04       		.uleb128 0x4
 4807 0c5e 26000000 		.long	0x26
 4808 0c62 00       		.byte	0
 4809 0c63 0E       		.uleb128 0xe
 4810 0c64 28       		.byte	0x28
 4811 0c65 17       		.byte	0x17
 4812 0c66 82       		.byte	0x82
 4813 0c67 D40C0000 		.long	0xcd4
 4814 0c6b 02       		.uleb128 0x2
 4815 0c6c DE0B0000 		.long	.LASF163
 4816 0c70 17       		.byte	0x17
 4817 0c71 86       		.byte	0x86
 4818 0c72 15       		.byte	0x15
 4819 0c73 39000000 		.long	0x39
 4820 0c77 00       		.byte	0
 4821 0c78 02       		.uleb128 0x2
 4822 0c79 DC040000 		.long	.LASF164
 4823 0c7d 17       		.byte	0x17
 4824 0c7e 8A       		.byte	0x8a
 4825 0c7f 15       		.byte	0x15
 4826 0c80 2E050000 		.long	0x52e
 4827 0c84 04       		.byte	0x4
 4828 0c85 02       		.uleb128 0x2
 4829 0c86 65010000 		.long	.LASF165
 4830 0c8a 17       		.byte	0x17
GAS LISTING /tmp/ccwdkvlB.s 			page 92


 4831 0c8b 8E       		.byte	0x8e
 4832 0c8c 15       		.byte	0x15
 4833 0c8d 2E050000 		.long	0x52e
 4834 0c91 05       		.byte	0x5
 4835 0c92 02       		.uleb128 0x2
 4836 0c93 E4030000 		.long	.LASF166
 4837 0c97 17       		.byte	0x17
 4838 0c98 92       		.byte	0x92
 4839 0c99 16       		.byte	0x16
 4840 0c9a 5A030000 		.long	0x35a
 4841 0c9e 08       		.byte	0x8
 4842 0c9f 02       		.uleb128 0x2
 4843 0ca0 BA0A0000 		.long	.LASF167
 4844 0ca4 17       		.byte	0x17
 4845 0ca5 96       		.byte	0x96
 4846 0ca6 16       		.byte	0x16
 4847 0ca7 B8000000 		.long	0xb8
 4848 0cab 0C       		.byte	0xc
 4849 0cac 02       		.uleb128 0x2
 4850 0cad 9A080000 		.long	.LASF168
 4851 0cb1 17       		.byte	0x17
 4852 0cb2 9A       		.byte	0x9a
 4853 0cb3 15       		.byte	0x15
 4854 0cb4 D40C0000 		.long	0xcd4
 4855 0cb8 10       		.byte	0x10
 4856 0cb9 02       		.uleb128 0x2
 4857 0cba 290A0000 		.long	.LASF169
 4858 0cbe 17       		.byte	0x17
 4859 0cbf 9E       		.byte	0x9e
 4860 0cc0 15       		.byte	0x15
 4861 0cc1 430C0000 		.long	0xc43
 4862 0cc5 20       		.byte	0x20
 4863 0cc6 02       		.uleb128 0x2
 4864 0cc7 7A010000 		.long	.LASF170
 4865 0ccb 17       		.byte	0x17
 4866 0ccc A3       		.byte	0xa3
 4867 0ccd 19       		.byte	0x19
 4868 0cce E40C0000 		.long	0xce4
 4869 0cd2 24       		.byte	0x24
 4870 0cd3 00       		.byte	0
 4871 0cd4 1B       		.uleb128 0x1b
 4872 0cd5 BD000000 		.long	0xbd
 4873 0cd9 E40C0000 		.long	0xce4
 4874 0cdd 1C       		.uleb128 0x1c
 4875 0cde 39000000 		.long	0x39
 4876 0ce2 0F       		.byte	0xf
 4877 0ce3 00       		.byte	0
 4878 0ce4 05       		.uleb128 0x5
 4879 0ce5 370C0000 		.long	0xc37
 4880 0ce9 03       		.uleb128 0x3
 4881 0cea 180C0000 		.long	.LASF171
 4882 0cee 17       		.byte	0x17
 4883 0cef A5       		.byte	0xa5
 4884 0cf0 03       		.byte	0x3
 4885 0cf1 630C0000 		.long	0xc63
 4886 0cf5 0E       		.uleb128 0xe
 4887 0cf6 10       		.byte	0x10
GAS LISTING /tmp/ccwdkvlB.s 			page 93


 4888 0cf7 17       		.byte	0x17
 4889 0cf8 AA       		.byte	0xaa
 4890 0cf9 320D0000 		.long	0xd32
 4891 0cfd 02       		.uleb128 0x2
 4892 0cfe 54090000 		.long	.LASF39
 4893 0d02 17       		.byte	0x17
 4894 0d03 AB       		.byte	0xab
 4895 0d04 0F       		.byte	0xf
 4896 0d05 5A030000 		.long	0x35a
 4897 0d09 00       		.byte	0
 4898 0d0a 02       		.uleb128 0x2
 4899 0d0b 4B040000 		.long	.LASF172
 4900 0d0f 17       		.byte	0x17
 4901 0d10 AC       		.byte	0xac
 4902 0d11 0A       		.byte	0xa
 4903 0d12 330D0000 		.long	0xd33
 4904 0d16 04       		.byte	0x4
 4905 0d17 02       		.uleb128 0x2
 4906 0d18 DF060000 		.long	.LASF173
 4907 0d1c 17       		.byte	0x17
 4908 0d1d AD       		.byte	0xad
 4909 0d1e 0A       		.byte	0xa
 4910 0d1f 330D0000 		.long	0xd33
 4911 0d23 08       		.byte	0x8
 4912 0d24 02       		.uleb128 0x2
 4913 0d25 70080000 		.long	.LASF174
 4914 0d29 17       		.byte	0x17
 4915 0d2a AE       		.byte	0xae
 4916 0d2b 0A       		.byte	0xa
 4917 0d2c 330D0000 		.long	0xd33
 4918 0d30 0C       		.byte	0xc
 4919 0d31 00       		.byte	0
 4920 0d32 32       		.uleb128 0x32
 4921 0d33 05       		.uleb128 0x5
 4922 0d34 320D0000 		.long	0xd32
 4923 0d38 03       		.uleb128 0x3
 4924 0d39 F7050000 		.long	.LASF175
 4925 0d3d 17       		.byte	0x17
 4926 0d3e AF       		.byte	0xaf
 4927 0d3f 03       		.byte	0x3
 4928 0d40 F50C0000 		.long	0xcf5
 4929 0d44 10       		.uleb128 0x10
 4930 0d45 380D0000 		.long	0xd38
 4931 0d49 0E       		.uleb128 0xe
 4932 0d4a 08       		.byte	0x8
 4933 0d4b 17       		.byte	0x17
 4934 0d4c B4       		.byte	0xb4
 4935 0d4d 6C0D0000 		.long	0xd6c
 4936 0d51 02       		.uleb128 0x2
 4937 0d52 54090000 		.long	.LASF39
 4938 0d56 17       		.byte	0x17
 4939 0d57 B5       		.byte	0xb5
 4940 0d58 16       		.byte	0x16
 4941 0d59 5A030000 		.long	0x35a
 4942 0d5d 00       		.byte	0
 4943 0d5e 02       		.uleb128 0x2
 4944 0d5f 66060000 		.long	.LASF176
GAS LISTING /tmp/ccwdkvlB.s 			page 94


 4945 0d63 17       		.byte	0x17
 4946 0d64 B6       		.byte	0xb6
 4947 0d65 1E       		.byte	0x1e
 4948 0d66 6C0D0000 		.long	0xd6c
 4949 0d6a 04       		.byte	0x4
 4950 0d6b 00       		.byte	0
 4951 0d6c 05       		.uleb128 0x5
 4952 0d6d 760D0000 		.long	0xd76
 4953 0d71 05       		.uleb128 0x5
 4954 0d72 440D0000 		.long	0xd44
 4955 0d76 10       		.uleb128 0x10
 4956 0d77 710D0000 		.long	0xd71
 4957 0d7b 03       		.uleb128 0x3
 4958 0d7c CD040000 		.long	.LASF177
 4959 0d80 17       		.byte	0x17
 4960 0d81 B7       		.byte	0xb7
 4961 0d82 03       		.byte	0x3
 4962 0d83 490D0000 		.long	0xd49
 4963 0d87 10       		.uleb128 0x10
 4964 0d88 7B0D0000 		.long	0xd7b
 4965 0d8c 33       		.uleb128 0x33
 4966 0d8d 83080000 		.long	.LASF178
 4967 0d91 17       		.byte	0x17
 4968 0d92 2901     		.value	0x129
 4969 0d94 1A       		.byte	0x1a
 4970 0d95 E90C0000 		.long	0xce9
 4971 0d99 34       		.uleb128 0x34
 4972 0d9a 71060000 		.long	.LASF179
 4973 0d9e 18       		.byte	0x18
 4974 0d9f 19       		.byte	0x19
 4975 0da0 1D       		.byte	0x1d
 4976 0da1 870D0000 		.long	0xd87
 4977 0da5 22       		.uleb128 0x22
 4978 0da6 D5010000 		.long	.LASF180
 4979 0daa AD       		.byte	0xad
 4980 0dab 19       		.byte	0x19
 4981 0dac 440D0000 		.long	0xd44
 4982 0db0 05       		.uleb128 0x5
 4983 0db1 03       		.byte	0x3
 4984 0db2 00000000 		.long	oslib_test_009_001
 4985 0db6 19       		.uleb128 0x19
 4986 0db7 E8010000 		.long	.LASF181
 4987 0dbb 2401     		.value	0x124
 4988 0dbd 440D0000 		.long	0xd44
 4989 0dc1 05       		.uleb128 0x5
 4990 0dc2 03       		.byte	0x3
 4991 0dc3 00000000 		.long	oslib_test_009_002
 4992 0dc7 19       		.uleb128 0x19
 4993 0dc8 FB010000 		.long	.LASF182
 4994 0dcc 9D01     		.value	0x19d
 4995 0dce 440D0000 		.long	0xd44
 4996 0dd2 05       		.uleb128 0x5
 4997 0dd3 03       		.byte	0x3
 4998 0dd4 00000000 		.long	oslib_test_009_003
 4999 0dd8 19       		.uleb128 0x19
 5000 0dd9 0E020000 		.long	.LASF183
 5001 0ddd 1502     		.value	0x215
GAS LISTING /tmp/ccwdkvlB.s 			page 95


 5002 0ddf 440D0000 		.long	0xd44
 5003 0de3 05       		.uleb128 0x5
 5004 0de4 03       		.byte	0x3
 5005 0de5 00000000 		.long	oslib_test_009_004
 5006 0de9 19       		.uleb128 0x19
 5007 0dea 21020000 		.long	.LASF184
 5008 0dee 8F02     		.value	0x28f
 5009 0df0 440D0000 		.long	0xd44
 5010 0df4 05       		.uleb128 0x5
 5011 0df5 03       		.byte	0x3
 5012 0df6 00000000 		.long	oslib_test_009_005
 5013 0dfa 19       		.uleb128 0x19
 5014 0dfb 34020000 		.long	.LASF185
 5015 0dff 0403     		.value	0x304
 5016 0e01 440D0000 		.long	0xd44
 5017 0e05 05       		.uleb128 0x5
 5018 0e06 03       		.byte	0x3
 5019 0e07 00000000 		.long	oslib_test_009_006
 5020 0e0b 1B       		.uleb128 0x1b
 5021 0e0c 760D0000 		.long	0xd76
 5022 0e10 1B0E0000 		.long	0xe1b
 5023 0e14 1C       		.uleb128 0x1c
 5024 0e15 39000000 		.long	0x39
 5025 0e19 06       		.byte	0x6
 5026 0e1a 00       		.byte	0
 5027 0e1b 10       		.uleb128 0x10
 5028 0e1c 0B0E0000 		.long	0xe0b
 5029 0e20 35       		.uleb128 0x35
 5030 0e21 93040000 		.long	.LASF186
 5031 0e25 01       		.byte	0x1
 5032 0e26 1303     		.value	0x313
 5033 0e28 1A       		.byte	0x1a
 5034 0e29 1B0E0000 		.long	0xe1b
 5035 0e2d 05       		.uleb128 0x5
 5036 0e2e 03       		.byte	0x3
 5037 0e2f 00000000 		.long	oslib_test_sequence_009_array
 5038 0e33 36       		.uleb128 0x36
 5039 0e34 990D0000 		.long	0xd99
 5040 0e38 01       		.byte	0x1
 5041 0e39 2C03     		.value	0x32c
 5042 0e3b 16       		.byte	0x16
 5043 0e3c 05       		.uleb128 0x5
 5044 0e3d 03       		.byte	0x3
 5045 0e3e 00000000 		.long	oslib_test_sequence_009
 5046 0e42 0A       		.uleb128 0xa
 5047 0e43 A8080000 		.long	.LASF187
 5048 0e47 02       		.byte	0x2
 5049 0e48 6A01     		.value	0x16a
 5050 0e4a 0A       		.byte	0xa
 5051 0e4b 57010000 		.long	0x157
 5052 0e4f 590E0000 		.long	0xe59
 5053 0e53 04       		.uleb128 0x4
 5054 0e54 590E0000 		.long	0xe59
 5055 0e58 00       		.byte	0
 5056 0e59 05       		.uleb128 0x5
 5057 0e5a 510A0000 		.long	0xa51
 5058 0e5e 0A       		.uleb128 0xa
GAS LISTING /tmp/ccwdkvlB.s 			page 96


 5059 0e5f 4C030000 		.long	.LASF188
 5060 0e63 02       		.byte	0x2
 5061 0e64 6601     		.value	0x166
 5062 0e66 18       		.byte	0x18
 5063 0e67 590E0000 		.long	0xe59
 5064 0e6b 7A0E0000 		.long	0xe7a
 5065 0e6f 04       		.uleb128 0x4
 5066 0e70 5A030000 		.long	0x35a
 5067 0e74 04       		.uleb128 0x4
 5068 0e75 B6000000 		.long	0xb6
 5069 0e79 00       		.byte	0
 5070 0e7a 0A       		.uleb128 0xa
 5071 0e7b 34010000 		.long	.LASF189
 5072 0e7f 02       		.byte	0x2
 5073 0e80 6801     		.value	0x168
 5074 0e82 18       		.byte	0x18
 5075 0e83 590E0000 		.long	0xe59
 5076 0e87 910E0000 		.long	0xe91
 5077 0e8b 04       		.uleb128 0x4
 5078 0e8c 5A030000 		.long	0x35a
 5079 0e90 00       		.byte	0
 5080 0e91 0A       		.uleb128 0xa
 5081 0e92 BF080000 		.long	.LASF190
 5082 0e96 02       		.byte	0x2
 5083 0e97 6F01     		.value	0x16f
 5084 0e99 0A       		.byte	0xa
 5085 0e9a 57010000 		.long	0x157
 5086 0e9e A80E0000 		.long	0xea8
 5087 0ea2 04       		.uleb128 0x4
 5088 0ea3 A80E0000 		.long	0xea8
 5089 0ea7 00       		.byte	0
 5090 0ea8 05       		.uleb128 0x5
 5091 0ea9 780A0000 		.long	0xa78
 5092 0ead 0A       		.uleb128 0xa
 5093 0eae FB070000 		.long	.LASF191
 5094 0eb2 02       		.byte	0x2
 5095 0eb3 6D01     		.value	0x16d
 5096 0eb5 11       		.byte	0x11
 5097 0eb6 A80E0000 		.long	0xea8
 5098 0eba C90E0000 		.long	0xec9
 5099 0ebe 04       		.uleb128 0x4
 5100 0ebf 5A030000 		.long	0x35a
 5101 0ec3 04       		.uleb128 0x4
 5102 0ec4 2D000000 		.long	0x2d
 5103 0ec8 00       		.byte	0
 5104 0ec9 0A       		.uleb128 0xa
 5105 0eca 48010000 		.long	.LASF192
 5106 0ece 02       		.byte	0x2
 5107 0ecf 6E01     		.value	0x16e
 5108 0ed1 11       		.byte	0x11
 5109 0ed2 A80E0000 		.long	0xea8
 5110 0ed6 E00E0000 		.long	0xee0
 5111 0eda 04       		.uleb128 0x4
 5112 0edb 5A030000 		.long	0x35a
 5113 0edf 00       		.byte	0
 5114 0ee0 0A       		.uleb128 0xa
 5115 0ee1 FF060000 		.long	.LASF193
GAS LISTING /tmp/ccwdkvlB.s 			page 97


 5116 0ee5 02       		.byte	0x2
 5117 0ee6 7401     		.value	0x174
 5118 0ee8 0A       		.byte	0xa
 5119 0ee9 57010000 		.long	0x157
 5120 0eed F70E0000 		.long	0xef7
 5121 0ef1 04       		.uleb128 0x4
 5122 0ef2 F70E0000 		.long	0xef7
 5123 0ef6 00       		.byte	0
 5124 0ef7 05       		.uleb128 0x5
 5125 0ef8 AC0A0000 		.long	0xaac
 5126 0efc 0A       		.uleb128 0xa
 5127 0efd 8D070000 		.long	.LASF194
 5128 0f01 02       		.byte	0x2
 5129 0f02 7201     		.value	0x172
 5130 0f04 14       		.byte	0x14
 5131 0f05 F70E0000 		.long	0xef7
 5132 0f09 180F0000 		.long	0xf18
 5133 0f0d 04       		.uleb128 0x4
 5134 0f0e 5A030000 		.long	0x35a
 5135 0f12 04       		.uleb128 0x4
 5136 0f13 4B010000 		.long	0x14b
 5137 0f17 00       		.byte	0
 5138 0f18 0A       		.uleb128 0xa
 5139 0f19 F4040000 		.long	.LASF195
 5140 0f1d 02       		.byte	0x2
 5141 0f1e 7301     		.value	0x173
 5142 0f20 14       		.byte	0x14
 5143 0f21 F70E0000 		.long	0xef7
 5144 0f25 2F0F0000 		.long	0xf2f
 5145 0f29 04       		.uleb128 0x4
 5146 0f2a 5A030000 		.long	0x35a
 5147 0f2e 00       		.byte	0
 5148 0f2f 0A       		.uleb128 0xa
 5149 0f30 1C010000 		.long	.LASF196
 5150 0f34 02       		.byte	0x2
 5151 0f35 7901     		.value	0x179
 5152 0f37 0A       		.byte	0xa
 5153 0f38 57010000 		.long	0x157
 5154 0f3c 460F0000 		.long	0xf46
 5155 0f40 04       		.uleb128 0x4
 5156 0f41 460F0000 		.long	0xf46
 5157 0f45 00       		.byte	0
 5158 0f46 05       		.uleb128 0x5
 5159 0f47 E00A0000 		.long	0xae0
 5160 0f4b 0A       		.uleb128 0xa
 5161 0f4c E8060000 		.long	.LASF197
 5162 0f50 02       		.byte	0x2
 5163 0f51 7701     		.value	0x177
 5164 0f53 12       		.byte	0x12
 5165 0f54 460F0000 		.long	0xf46
 5166 0f58 670F0000 		.long	0xf67
 5167 0f5c 04       		.uleb128 0x4
 5168 0f5d 5A030000 		.long	0x35a
 5169 0f61 04       		.uleb128 0x4
 5170 0f62 2D000000 		.long	0x2d
 5171 0f66 00       		.byte	0
 5172 0f67 0A       		.uleb128 0xa
GAS LISTING /tmp/ccwdkvlB.s 			page 98


 5173 0f68 BF060000 		.long	.LASF198
 5174 0f6c 02       		.byte	0x2
 5175 0f6d 7801     		.value	0x178
 5176 0f6f 12       		.byte	0x12
 5177 0f70 460F0000 		.long	0xf46
 5178 0f74 7E0F0000 		.long	0xf7e
 5179 0f78 04       		.uleb128 0x4
 5180 0f79 5A030000 		.long	0x35a
 5181 0f7d 00       		.byte	0
 5182 0f7e 0A       		.uleb128 0xa
 5183 0f7f F0090000 		.long	.LASF199
 5184 0f83 02       		.byte	0x2
 5185 0f84 8101     		.value	0x181
 5186 0f86 0A       		.byte	0xa
 5187 0f87 57010000 		.long	0x157
 5188 0f8b 950F0000 		.long	0xf95
 5189 0f8f 04       		.uleb128 0x4
 5190 0f90 950F0000 		.long	0xf95
 5191 0f94 00       		.byte	0
 5192 0f95 05       		.uleb128 0x5
 5193 0f96 170B0000 		.long	0xb17
 5194 0f9a 0A       		.uleb128 0xa
 5195 0f9b B8020000 		.long	.LASF200
 5196 0f9f 02       		.byte	0x2
 5197 0fa0 7C01     		.value	0x17c
 5198 0fa2 17       		.byte	0x17
 5199 0fa3 950F0000 		.long	0xf95
 5200 0fa7 C00F0000 		.long	0xfc0
 5201 0fab 04       		.uleb128 0x4
 5202 0fac 5A030000 		.long	0x35a
 5203 0fb0 04       		.uleb128 0x4
 5204 0fb1 2D000000 		.long	0x2d
 5205 0fb5 04       		.uleb128 0x4
 5206 0fb6 2D000000 		.long	0x2d
 5207 0fba 04       		.uleb128 0x4
 5208 0fbb 39000000 		.long	0x39
 5209 0fbf 00       		.byte	0
 5210 0fc0 0A       		.uleb128 0xa
 5211 0fc1 89010000 		.long	.LASF201
 5212 0fc5 02       		.byte	0x2
 5213 0fc6 8001     		.value	0x180
 5214 0fc8 17       		.byte	0x17
 5215 0fc9 950F0000 		.long	0xf95
 5216 0fcd D70F0000 		.long	0xfd7
 5217 0fd1 04       		.uleb128 0x4
 5218 0fd2 5A030000 		.long	0x35a
 5219 0fd6 00       		.byte	0
 5220 0fd7 0A       		.uleb128 0xa
 5221 0fd8 2B000000 		.long	.LASF202
 5222 0fdc 02       		.byte	0x2
 5223 0fdd 8601     		.value	0x186
 5224 0fdf 0A       		.byte	0xa
 5225 0fe0 57010000 		.long	0x157
 5226 0fe4 EE0F0000 		.long	0xfee
 5227 0fe8 04       		.uleb128 0x4
 5228 0fe9 EE0F0000 		.long	0xfee
 5229 0fed 00       		.byte	0
GAS LISTING /tmp/ccwdkvlB.s 			page 99


 5230 0fee 05       		.uleb128 0x5
 5231 0fef 4E0B0000 		.long	0xb4e
 5232 0ff3 0A       		.uleb128 0xa
 5233 0ff4 69090000 		.long	.LASF203
 5234 0ff8 02       		.byte	0x2
 5235 0ff9 8401     		.value	0x184
 5236 0ffb 0F       		.byte	0xf
 5237 0ffc EE0F0000 		.long	0xfee
 5238 1000 0F100000 		.long	0x100f
 5239 1004 04       		.uleb128 0x4
 5240 1005 5A030000 		.long	0x35a
 5241 1009 04       		.uleb128 0x4
 5242 100a 2D000000 		.long	0x2d
 5243 100e 00       		.byte	0
 5244 100f 0A       		.uleb128 0xa
 5245 1010 C9050000 		.long	.LASF204
 5246 1014 17       		.byte	0x17
 5247 1015 3001     		.value	0x130
 5248 1017 08       		.byte	0x8
 5249 1018 2E050000 		.long	0x52e
 5250 101c 2B100000 		.long	0x102b
 5251 1020 04       		.uleb128 0x4
 5252 1021 2E050000 		.long	0x52e
 5253 1025 04       		.uleb128 0x4
 5254 1026 5A030000 		.long	0x35a
 5255 102a 00       		.byte	0
 5256 102b 0A       		.uleb128 0xa
 5257 102c 47020000 		.long	.LASF205
 5258 1030 02       		.byte	0x2
 5259 1031 8501     		.value	0x185
 5260 1033 0F       		.byte	0xf
 5261 1034 EE0F0000 		.long	0xfee
 5262 1038 42100000 		.long	0x1042
 5263 103c 04       		.uleb128 0x4
 5264 103d 5A030000 		.long	0x35a
 5265 1041 00       		.byte	0
 5266 1042 1E       		.uleb128 0x1e
 5267 1043 8E050000 		.long	.LASF208
 5268 1047 BC02     		.value	0x2bc
 5269 1049 86100000 		.long	0x1086
 5270 104d 23       		.uleb128 0x23
 5271 104e 64707000 		.string	"dpp"
 5272 1052 BD02     		.value	0x2bd
 5273 1054 0F       		.byte	0xf
 5274 1055 EE0F0000 		.long	0xfee
 5275 1059 12       		.uleb128 0x12
 5276 105a 6B100000 		.long	0x106b
 5277 105e 0C       		.uleb128 0xc
 5278 105f EB0B0000 		.long	.LASF206
 5279 1063 D302     		.value	0x2d3
 5280 1065 11       		.byte	0x11
 5281 1066 EE0F0000 		.long	0xfee
 5282 106a 00       		.byte	0
 5283 106b 14       		.uleb128 0x14
 5284 106c 0C       		.uleb128 0xc
 5285 106d EB0B0000 		.long	.LASF206
 5286 1071 DF02     		.value	0x2df
GAS LISTING /tmp/ccwdkvlB.s 			page 100


 5287 1073 11       		.byte	0x11
 5288 1074 EE0F0000 		.long	0xfee
 5289 1078 0C       		.uleb128 0xc
 5290 1079 240A0000 		.long	.LASF207
 5291 107d DF02     		.value	0x2df
 5292 107f 18       		.byte	0x18
 5293 1080 EE0F0000 		.long	0xfee
 5294 1084 00       		.byte	0
 5295 1085 00       		.byte	0
 5296 1086 1F       		.uleb128 0x1f
 5297 1087 D00A0000 		.long	.LASF213
 5298 108b B102     		.value	0x2b1
 5299 108d 00000000 		.long	.LFB313
 5300 1091 49000000 		.long	.LFE313-.LFB313
 5301 1095 01       		.uleb128 0x1
 5302 1096 9C       		.byte	0x9c
 5303 1097 C2100000 		.long	0x10c2
 5304 109b 24       		.uleb128 0x24
 5305 109c 64707000 		.string	"dpp"
 5306 10a0 B202     		.value	0x2b2
 5307 10a2 0F       		.byte	0xf
 5308 10a3 EE0F0000 		.long	0xfee
 5309 10a7 10000000 		.long	.LLST0
 5310 10ab 0C000000 		.long	.LVUS0
 5311 10af 01       		.uleb128 0x1
 5312 10b0 1C000000 		.long	.LVL0
 5313 10b4 2B100000 		.long	0x102b
 5314 10b8 01       		.uleb128 0x1
 5315 10b9 39000000 		.long	.LVL2
 5316 10bd D70F0000 		.long	0xfd7
 5317 10c1 00       		.byte	0
 5318 10c2 1E       		.uleb128 0x1e
 5319 10c3 02030000 		.long	.LASF209
 5320 10c7 4502     		.value	0x245
 5321 10c9 06110000 		.long	0x1106
 5322 10cd 0C       		.uleb128 0xc
 5323 10ce 16040000 		.long	.LASF210
 5324 10d2 4602     		.value	0x246
 5325 10d4 17       		.byte	0x17
 5326 10d5 950F0000 		.long	0xf95
 5327 10d9 12       		.uleb128 0x12
 5328 10da EB100000 		.long	0x10eb
 5329 10de 0C       		.uleb128 0xc
 5330 10df E8040000 		.long	.LASF211
 5331 10e3 5E02     		.value	0x25e
 5332 10e5 19       		.byte	0x19
 5333 10e6 950F0000 		.long	0xf95
 5334 10ea 00       		.byte	0
 5335 10eb 14       		.uleb128 0x14
 5336 10ec 0C       		.uleb128 0xc
 5337 10ed E8040000 		.long	.LASF211
 5338 10f1 6A02     		.value	0x26a
 5339 10f3 19       		.byte	0x19
 5340 10f4 950F0000 		.long	0xf95
 5341 10f8 0C       		.uleb128 0xc
 5342 10f9 EE040000 		.long	.LASF212
 5343 10fd 6A02     		.value	0x26a
GAS LISTING /tmp/ccwdkvlB.s 			page 101


 5344 10ff 21       		.byte	0x21
 5345 1100 950F0000 		.long	0xf95
 5346 1104 00       		.byte	0
 5347 1105 00       		.byte	0
 5348 1106 1F       		.uleb128 0x1f
 5349 1107 4C050000 		.long	.LASF214
 5350 110b 3A02     		.value	0x23a
 5351 110d 00000000 		.long	.LFB311
 5352 1111 49000000 		.long	.LFE311-.LFB311
 5353 1115 01       		.uleb128 0x1
 5354 1116 9C       		.byte	0x9c
 5355 1117 43110000 		.long	0x1143
 5356 111b 37       		.uleb128 0x37
 5357 111c 16040000 		.long	.LASF210
 5358 1120 01       		.byte	0x1
 5359 1121 3B02     		.value	0x23b
 5360 1123 17       		.byte	0x17
 5361 1124 950F0000 		.long	0xf95
 5362 1128 24000000 		.long	.LLST1
 5363 112c 20000000 		.long	.LVUS1
 5364 1130 01       		.uleb128 0x1
 5365 1131 1C000000 		.long	.LVL4
 5366 1135 C00F0000 		.long	0xfc0
 5367 1139 01       		.uleb128 0x1
 5368 113a 39000000 		.long	.LVL6
 5369 113e 7E0F0000 		.long	0xf7e
 5370 1142 00       		.byte	0
 5371 1143 1E       		.uleb128 0x1e
 5372 1144 10000000 		.long	.LASF215
 5373 1148 CC01     		.value	0x1cc
 5374 114a 87110000 		.long	0x1187
 5375 114e 23       		.uleb128 0x23
 5376 114f 646D7000 		.string	"dmp"
 5377 1153 CD01     		.value	0x1cd
 5378 1155 12       		.byte	0x12
 5379 1156 460F0000 		.long	0xf46
 5380 115a 12       		.uleb128 0x12
 5381 115b 6C110000 		.long	0x116c
 5382 115f 0C       		.uleb128 0xc
 5383 1160 42030000 		.long	.LASF216
 5384 1164 E401     		.value	0x1e4
 5385 1166 14       		.byte	0x14
 5386 1167 460F0000 		.long	0xf46
 5387 116b 00       		.byte	0
 5388 116c 14       		.uleb128 0x14
 5389 116d 0C       		.uleb128 0xc
 5390 116e 42030000 		.long	.LASF216
 5391 1172 F001     		.value	0x1f0
 5392 1174 14       		.byte	0x14
 5393 1175 460F0000 		.long	0xf46
 5394 1179 0C       		.uleb128 0xc
 5395 117a 47030000 		.long	.LASF217
 5396 117e F001     		.value	0x1f0
 5397 1180 1B       		.byte	0x1b
 5398 1181 460F0000 		.long	0xf46
 5399 1185 00       		.byte	0
 5400 1186 00       		.byte	0
GAS LISTING /tmp/ccwdkvlB.s 			page 102


 5401 1187 1F       		.uleb128 0x1f
 5402 1188 26070000 		.long	.LASF218
 5403 118c C101     		.value	0x1c1
 5404 118e 00000000 		.long	.LFB309
 5405 1192 49000000 		.long	.LFE309-.LFB309
 5406 1196 01       		.uleb128 0x1
 5407 1197 9C       		.byte	0x9c
 5408 1198 C3110000 		.long	0x11c3
 5409 119c 24       		.uleb128 0x24
 5410 119d 646D7000 		.string	"dmp"
 5411 11a1 C201     		.value	0x1c2
 5412 11a3 12       		.byte	0x12
 5413 11a4 460F0000 		.long	0xf46
 5414 11a8 38000000 		.long	.LLST2
 5415 11ac 34000000 		.long	.LVUS2
 5416 11b0 01       		.uleb128 0x1
 5417 11b1 1C000000 		.long	.LVL8
 5418 11b5 670F0000 		.long	0xf67
 5419 11b9 01       		.uleb128 0x1
 5420 11ba 39000000 		.long	.LVL10
 5421 11be 2F0F0000 		.long	0xf2f
 5422 11c2 00       		.byte	0
 5423 11c3 1E       		.uleb128 0x1e
 5424 11c4 11090000 		.long	.LASF219
 5425 11c8 5401     		.value	0x154
 5426 11ca 07120000 		.long	0x1207
 5427 11ce 23       		.uleb128 0x23
 5428 11cf 64737000 		.string	"dsp"
 5429 11d3 5501     		.value	0x155
 5430 11d5 14       		.byte	0x14
 5431 11d6 F70E0000 		.long	0xef7
 5432 11da 12       		.uleb128 0x12
 5433 11db EC110000 		.long	0x11ec
 5434 11df 0C       		.uleb128 0xc
 5435 11e0 B6050000 		.long	.LASF220
 5436 11e4 6C01     		.value	0x16c
 5437 11e6 16       		.byte	0x16
 5438 11e7 F70E0000 		.long	0xef7
 5439 11eb 00       		.byte	0
 5440 11ec 14       		.uleb128 0x14
 5441 11ed 0C       		.uleb128 0xc
 5442 11ee B6050000 		.long	.LASF220
 5443 11f2 7801     		.value	0x178
 5444 11f4 16       		.byte	0x16
 5445 11f5 F70E0000 		.long	0xef7
 5446 11f9 0C       		.uleb128 0xc
 5447 11fa BB050000 		.long	.LASF221
 5448 11fe 7801     		.value	0x178
 5449 1200 1D       		.byte	0x1d
 5450 1201 F70E0000 		.long	0xef7
 5451 1205 00       		.byte	0
 5452 1206 00       		.byte	0
 5453 1207 1F       		.uleb128 0x1f
 5454 1208 B1040000 		.long	.LASF222
 5455 120c 4901     		.value	0x149
 5456 120e 00000000 		.long	.LFB307
 5457 1212 49000000 		.long	.LFE307-.LFB307
GAS LISTING /tmp/ccwdkvlB.s 			page 103


 5458 1216 01       		.uleb128 0x1
 5459 1217 9C       		.byte	0x9c
 5460 1218 43120000 		.long	0x1243
 5461 121c 24       		.uleb128 0x24
 5462 121d 64737000 		.string	"dsp"
 5463 1221 4A01     		.value	0x14a
 5464 1223 14       		.byte	0x14
 5465 1224 F70E0000 		.long	0xef7
 5466 1228 4C000000 		.long	.LLST3
 5467 122c 48000000 		.long	.LVUS3
 5468 1230 01       		.uleb128 0x1
 5469 1231 1C000000 		.long	.LVL12
 5470 1235 180F0000 		.long	0xf18
 5471 1239 01       		.uleb128 0x1
 5472 123a 39000000 		.long	.LVL14
 5473 123e E00E0000 		.long	0xee0
 5474 1242 00       		.byte	0
 5475 1243 27       		.uleb128 0x27
 5476 1244 96060000 		.long	.LASF223
 5477 1248 DC       		.byte	0xdc
 5478 1249 82120000 		.long	0x1282
 5479 124d 28       		.uleb128 0x28
 5480 124e 64627000 		.string	"dbp"
 5481 1252 DD       		.byte	0xdd
 5482 1253 11       		.byte	0x11
 5483 1254 A80E0000 		.long	0xea8
 5484 1258 12       		.uleb128 0x12
 5485 1259 69120000 		.long	0x1269
 5486 125d 15       		.uleb128 0x15
 5487 125e 9A030000 		.long	.LASF224
 5488 1262 F3       		.byte	0xf3
 5489 1263 13       		.byte	0x13
 5490 1264 A80E0000 		.long	0xea8
 5491 1268 00       		.byte	0
 5492 1269 14       		.uleb128 0x14
 5493 126a 15       		.uleb128 0x15
 5494 126b 9A030000 		.long	.LASF224
 5495 126f FF       		.byte	0xff
 5496 1270 13       		.byte	0x13
 5497 1271 A80E0000 		.long	0xea8
 5498 1275 15       		.uleb128 0x15
 5499 1276 75000000 		.long	.LASF225
 5500 127a FF       		.byte	0xff
 5501 127b 1A       		.byte	0x1a
 5502 127c A80E0000 		.long	0xea8
 5503 1280 00       		.byte	0
 5504 1281 00       		.byte	0
 5505 1282 29       		.uleb128 0x29
 5506 1283 A6030000 		.long	.LASF226
 5507 1287 D1       		.byte	0xd1
 5508 1288 00000000 		.long	.LFB305
 5509 128c 49000000 		.long	.LFE305-.LFB305
 5510 1290 01       		.uleb128 0x1
 5511 1291 9C       		.byte	0x9c
 5512 1292 BC120000 		.long	0x12bc
 5513 1296 2A       		.uleb128 0x2a
 5514 1297 64627000 		.string	"dbp"
GAS LISTING /tmp/ccwdkvlB.s 			page 104


 5515 129b D2       		.byte	0xd2
 5516 129c 11       		.byte	0x11
 5517 129d A80E0000 		.long	0xea8
 5518 12a1 60000000 		.long	.LLST4
 5519 12a5 5C000000 		.long	.LVUS4
 5520 12a9 01       		.uleb128 0x1
 5521 12aa 1C000000 		.long	.LVL16
 5522 12ae C90E0000 		.long	0xec9
 5523 12b2 01       		.uleb128 0x1
 5524 12b3 39000000 		.long	.LVL18
 5525 12b7 910E0000 		.long	0xe91
 5526 12bb 00       		.byte	0
 5527 12bc 27       		.uleb128 0x27
 5528 12bd F4030000 		.long	.LASF227
 5529 12c1 61       		.byte	0x61
 5530 12c2 23130000 		.long	0x1323
 5531 12c6 28       		.uleb128 0x28
 5532 12c7 726F7000 		.string	"rop"
 5533 12cb 62       		.byte	0x62
 5534 12cc 18       		.byte	0x18
 5535 12cd 590E0000 		.long	0xe59
 5536 12d1 12       		.uleb128 0x12
 5537 12d2 E8120000 		.long	0x12e8
 5538 12d6 22       		.uleb128 0x22
 5539 12d7 88050000 		.long	.LASF228
 5540 12db 6F       		.byte	0x6f
 5541 12dc 15       		.byte	0x15
 5542 12dd E6000000 		.long	0xe6
 5543 12e1 05       		.uleb128 0x5
 5544 12e2 03       		.byte	0x3
 5545 12e3 00000000 		.long	myobj.1
 5546 12e7 00       		.byte	0
 5547 12e8 12       		.uleb128 0x12
 5548 12e9 0A130000 		.long	0x130a
 5549 12ed 15       		.uleb128 0x15
 5550 12ee 8B000000 		.long	.LASF229
 5551 12f2 79       		.byte	0x79
 5552 12f3 1A       		.byte	0x1a
 5553 12f4 590E0000 		.long	0xe59
 5554 12f8 22       		.uleb128 0x22
 5555 12f9 88050000 		.long	.LASF228
 5556 12fd 7A       		.byte	0x7a
 5557 12fe 15       		.byte	0x15
 5558 12ff E6000000 		.long	0xe6
 5559 1303 05       		.uleb128 0x5
 5560 1304 03       		.byte	0x3
 5561 1305 00000000 		.long	myobj.0
 5562 1309 00       		.byte	0
 5563 130a 14       		.uleb128 0x14
 5564 130b 15       		.uleb128 0x15
 5565 130c 8B000000 		.long	.LASF229
 5566 1310 86       		.byte	0x86
 5567 1311 1A       		.byte	0x1a
 5568 1312 590E0000 		.long	0xe59
 5569 1316 15       		.uleb128 0x15
 5570 1317 90000000 		.long	.LASF230
 5571 131b 86       		.byte	0x86
GAS LISTING /tmp/ccwdkvlB.s 			page 105


 5572 131c 21       		.byte	0x21
 5573 131d 590E0000 		.long	0xe59
 5574 1321 00       		.byte	0
 5575 1322 00       		.byte	0
 5576 1323 29       		.uleb128 0x29
 5577 1324 2F040000 		.long	.LASF231
 5578 1328 56       		.byte	0x56
 5579 1329 00000000 		.long	.LFB303
 5580 132d 49000000 		.long	.LFE303-.LFB303
 5581 1331 01       		.uleb128 0x1
 5582 1332 9C       		.byte	0x9c
 5583 1333 5D130000 		.long	0x135d
 5584 1337 2A       		.uleb128 0x2a
 5585 1338 726F7000 		.string	"rop"
 5586 133c 57       		.byte	0x57
 5587 133d 18       		.byte	0x18
 5588 133e 590E0000 		.long	0xe59
 5589 1342 74000000 		.long	.LLST5
 5590 1346 70000000 		.long	.LVUS5
 5591 134a 01       		.uleb128 0x1
 5592 134b 1C000000 		.long	.LVL20
 5593 134f 7A0E0000 		.long	0xe7a
 5594 1353 01       		.uleb128 0x1
 5595 1354 39000000 		.long	.LVL22
 5596 1358 420E0000 		.long	0xe42
 5597 135c 00       		.byte	0
 5598 135d 38       		.uleb128 0x38
 5599 135e 50070000 		.long	.LASF234
 5600 1362 02       		.byte	0x2
 5601 1363 9901     		.value	0x199
 5602 1365 1E       		.byte	0x1e
 5603 1366 240A0000 		.long	0xa24
 5604 136a 03       		.byte	0x3
 5605 136b 7D130000 		.long	0x137d
 5606 136f 39       		.uleb128 0x39
 5607 1370 64657000 		.string	"dep"
 5608 1374 02       		.byte	0x2
 5609 1375 9901     		.value	0x199
 5610 1377 49       		.byte	0x49
 5611 1378 240A0000 		.long	0xa24
 5612 137c 00       		.byte	0
 5613 137d 1A       		.uleb128 0x1a
 5614 137e 42100000 		.long	0x1042
 5615 1382 00000000 		.long	.LFB314
 5616 1386 22020000 		.long	.LFE314-.LFB314
 5617 138a 01       		.uleb128 0x1
 5618 138b 9C       		.byte	0x9c
 5619 138c D8140000 		.long	0x14d8
 5620 1390 06       		.uleb128 0x6
 5621 1391 4D100000 		.long	0x104d
 5622 1395 86000000 		.long	.LLST6
 5623 1399 84000000 		.long	.LVUS6
 5624 139d 0F       		.uleb128 0xf
 5625 139e 42100000 		.long	0x1042
 5626 13a2 50000000 		.long	.LBI58
 5627 13a6 00       		.byte	.LVU85
 5628 13a7 0C000000 		.long	.LLRL7
GAS LISTING /tmp/ccwdkvlB.s 			page 106


 5629 13ab BC02     		.value	0x2bc
 5630 13ad 0D       		.byte	0xd
 5631 13ae C5140000 		.long	0x14c5
 5632 13b2 16       		.uleb128 0x16
 5633 13b3 0C000000 		.long	.LLRL7
 5634 13b7 06       		.uleb128 0x6
 5635 13b8 4D100000 		.long	0x104d
 5636 13bc 97000000 		.long	.LLST8
 5637 13c0 8F000000 		.long	.LVUS8
 5638 13c4 0D       		.uleb128 0xd
 5639 13c5 59100000 		.long	0x1059
 5640 13c9 1B000000 		.long	.LLRL9
 5641 13cd F1130000 		.long	0x13f1
 5642 13d1 06       		.uleb128 0x6
 5643 13d2 5E100000 		.long	0x105e
 5644 13d6 B7000000 		.long	.LLST10
 5645 13da B5000000 		.long	.LVUS10
 5646 13de 01       		.uleb128 0x1
 5647 13df 96000000 		.long	.LVL31
 5648 13e3 F30F0000 		.long	0xff3
 5649 13e7 01       		.uleb128 0x1
 5650 13e8 AD000000 		.long	.LVL33
 5651 13ec 0F100000 		.long	0x100f
 5652 13f0 00       		.byte	0
 5653 13f1 0D       		.uleb128 0xd
 5654 13f2 6B100000 		.long	0x106b
 5655 13f6 27000000 		.long	.LLRL11
 5656 13fa 96140000 		.long	0x1496
 5657 13fe 06       		.uleb128 0x6
 5658 13ff 6C100000 		.long	0x106c
 5659 1403 C6000000 		.long	.LLST12
 5660 1407 C0000000 		.long	.LVUS12
 5661 140b 06       		.uleb128 0x6
 5662 140c 78100000 		.long	0x1078
 5663 1410 DF000000 		.long	.LLST13
 5664 1414 DD000000 		.long	.LVUS13
 5665 1418 0F       		.uleb128 0xf
 5666 1419 5D130000 		.long	0x135d
 5667 141d 3B010000 		.long	.LBI63
 5668 1421 02       		.byte	.LVU126
 5669 1422 34000000 		.long	.LLRL14
 5670 1426 E602     		.value	0x2e6
 5671 1428 1A       		.byte	0x1a
 5672 1429 3B140000 		.long	0x143b
 5673 142d 17       		.uleb128 0x17
 5674 142e 6F130000 		.long	0x136f
 5675 1432 EC000000 		.long	.LLST15
 5676 1436 EA000000 		.long	.LVUS15
 5677 143a 00       		.byte	0
 5678 143b 01       		.uleb128 0x1
 5679 143c C3000000 		.long	.LVL34
 5680 1440 2B100000 		.long	0x102b
 5681 1444 01       		.uleb128 0x1
 5682 1445 DF000000 		.long	.LVL37
 5683 1449 0F100000 		.long	0x100f
 5684 144d 01       		.uleb128 0x1
 5685 144e 0B010000 		.long	.LVL38
GAS LISTING /tmp/ccwdkvlB.s 			page 107


 5686 1452 0F100000 		.long	0x100f
 5687 1456 01       		.uleb128 0x1
 5688 1457 30010000 		.long	.LVL39
 5689 145b 0F100000 		.long	0x100f
 5690 145f 01       		.uleb128 0x1
 5691 1460 51010000 		.long	.LVL42
 5692 1464 0F100000 		.long	0x100f
 5693 1468 01       		.uleb128 0x1
 5694 1469 76010000 		.long	.LVL43
 5695 146d 0F100000 		.long	0x100f
 5696 1471 01       		.uleb128 0x1
 5697 1472 8D010000 		.long	.LVL44
 5698 1476 D70F0000 		.long	0xfd7
 5699 147a 01       		.uleb128 0x1
 5700 147b AD010000 		.long	.LVL45
 5701 147f 0F100000 		.long	0x100f
 5702 1483 01       		.uleb128 0x1
 5703 1484 C4010000 		.long	.LVL46
 5704 1488 D70F0000 		.long	0xfd7
 5705 148c 01       		.uleb128 0x1
 5706 148d DE010000 		.long	.LVL47
 5707 1491 0F100000 		.long	0x100f
 5708 1495 00       		.byte	0
 5709 1496 01       		.uleb128 0x1
 5710 1497 61000000 		.long	.LVL27
 5711 149b F30F0000 		.long	0xff3
 5712 149f 01       		.uleb128 0x1
 5713 14a0 7E000000 		.long	.LVL30
 5714 14a4 0F100000 		.long	0x100f
 5715 14a8 01       		.uleb128 0x1
 5716 14a9 FB010000 		.long	.LVL48
 5717 14ad D70F0000 		.long	0xfd7
 5718 14b1 01       		.uleb128 0x1
 5719 14b2 09020000 		.long	.LVL49
 5720 14b6 2B100000 		.long	0x102b
 5721 14ba 01       		.uleb128 0x1
 5722 14bb 1A020000 		.long	.LVL51
 5723 14bf 0F100000 		.long	0x100f
 5724 14c3 00       		.byte	0
 5725 14c4 00       		.byte	0
 5726 14c5 01       		.uleb128 0x1
 5727 14c6 2A000000 		.long	.LVL24
 5728 14ca 2B100000 		.long	0x102b
 5729 14ce 01       		.uleb128 0x1
 5730 14cf 41000000 		.long	.LVL26
 5731 14d3 0F100000 		.long	0x100f
 5732 14d7 00       		.byte	0
 5733 14d8 1A       		.uleb128 0x1a
 5734 14d9 C2100000 		.long	0x10c2
 5735 14dd 00000000 		.long	.LFB312
 5736 14e1 24020000 		.long	.LFE312-.LFB312
 5737 14e5 01       		.uleb128 0x1
 5738 14e6 9C       		.byte	0x9c
 5739 14e7 33160000 		.long	0x1633
 5740 14eb 06       		.uleb128 0x6
 5741 14ec CD100000 		.long	0x10cd
 5742 14f0 F8000000 		.long	.LLST16
GAS LISTING /tmp/ccwdkvlB.s 			page 108


 5743 14f4 F6000000 		.long	.LVUS16
 5744 14f8 0F       		.uleb128 0xf
 5745 14f9 C2100000 		.long	0x10c2
 5746 14fd 50000000 		.long	.LBI76
 5747 1501 00       		.byte	.LVU175
 5748 1502 40000000 		.long	.LLRL17
 5749 1506 4502     		.value	0x245
 5750 1508 0D       		.byte	0xd
 5751 1509 20160000 		.long	0x1620
 5752 150d 16       		.uleb128 0x16
 5753 150e 40000000 		.long	.LLRL17
 5754 1512 06       		.uleb128 0x6
 5755 1513 CD100000 		.long	0x10cd
 5756 1517 09010000 		.long	.LLST18
 5757 151b 01010000 		.long	.LVUS18
 5758 151f 0D       		.uleb128 0xd
 5759 1520 D9100000 		.long	0x10d9
 5760 1524 4F000000 		.long	.LLRL19
 5761 1528 4C150000 		.long	0x154c
 5762 152c 06       		.uleb128 0x6
 5763 152d DE100000 		.long	0x10de
 5764 1531 29010000 		.long	.LLST20
 5765 1535 27010000 		.long	.LVUS20
 5766 1539 01       		.uleb128 0x1
 5767 153a 98000000 		.long	.LVL60
 5768 153e 9A0F0000 		.long	0xf9a
 5769 1542 01       		.uleb128 0x1
 5770 1543 AF000000 		.long	.LVL62
 5771 1547 0F100000 		.long	0x100f
 5772 154b 00       		.byte	0
 5773 154c 0D       		.uleb128 0xd
 5774 154d EB100000 		.long	0x10eb
 5775 1551 5B000000 		.long	.LLRL21
 5776 1555 F1150000 		.long	0x15f1
 5777 1559 06       		.uleb128 0x6
 5778 155a EC100000 		.long	0x10ec
 5779 155e 38010000 		.long	.LLST22
 5780 1562 32010000 		.long	.LVUS22
 5781 1566 06       		.uleb128 0x6
 5782 1567 F8100000 		.long	0x10f8
 5783 156b 51010000 		.long	.LLST23
 5784 156f 4F010000 		.long	.LVUS23
 5785 1573 0F       		.uleb128 0xf
 5786 1574 5D130000 		.long	0x135d
 5787 1578 3D010000 		.long	.LBI81
 5788 157c 02       		.byte	.LVU216
 5789 157d 68000000 		.long	.LLRL24
 5790 1581 7102     		.value	0x271
 5791 1583 23       		.byte	0x23
 5792 1584 96150000 		.long	0x1596
 5793 1588 17       		.uleb128 0x17
 5794 1589 6F130000 		.long	0x136f
 5795 158d 5E010000 		.long	.LLST25
 5796 1591 5C010000 		.long	.LVUS25
 5797 1595 00       		.byte	0
 5798 1596 01       		.uleb128 0x1
 5799 1597 C5000000 		.long	.LVL63
GAS LISTING /tmp/ccwdkvlB.s 			page 109


 5800 159b C00F0000 		.long	0xfc0
 5801 159f 01       		.uleb128 0x1
 5802 15a0 E1000000 		.long	.LVL66
 5803 15a4 0F100000 		.long	0x100f
 5804 15a8 01       		.uleb128 0x1
 5805 15a9 0D010000 		.long	.LVL67
 5806 15ad 0F100000 		.long	0x100f
 5807 15b1 01       		.uleb128 0x1
 5808 15b2 32010000 		.long	.LVL68
 5809 15b6 0F100000 		.long	0x100f
 5810 15ba 01       		.uleb128 0x1
 5811 15bb 53010000 		.long	.LVL71
 5812 15bf 0F100000 		.long	0x100f
 5813 15c3 01       		.uleb128 0x1
 5814 15c4 78010000 		.long	.LVL72
 5815 15c8 0F100000 		.long	0x100f
 5816 15cc 01       		.uleb128 0x1
 5817 15cd 8F010000 		.long	.LVL73
 5818 15d1 7E0F0000 		.long	0xf7e
 5819 15d5 01       		.uleb128 0x1
 5820 15d6 AF010000 		.long	.LVL74
 5821 15da 0F100000 		.long	0x100f
 5822 15de 01       		.uleb128 0x1
 5823 15df C6010000 		.long	.LVL75
 5824 15e3 7E0F0000 		.long	0xf7e
 5825 15e7 01       		.uleb128 0x1
 5826 15e8 E0010000 		.long	.LVL76
 5827 15ec 0F100000 		.long	0x100f
 5828 15f0 00       		.byte	0
 5829 15f1 01       		.uleb128 0x1
 5830 15f2 62000000 		.long	.LVL56
 5831 15f6 9A0F0000 		.long	0xf9a
 5832 15fa 01       		.uleb128 0x1
 5833 15fb 7F000000 		.long	.LVL59
 5834 15ff 0F100000 		.long	0x100f
 5835 1603 01       		.uleb128 0x1
 5836 1604 FD010000 		.long	.LVL77
 5837 1608 7E0F0000 		.long	0xf7e
 5838 160c 01       		.uleb128 0x1
 5839 160d 0B020000 		.long	.LVL78
 5840 1611 C00F0000 		.long	0xfc0
 5841 1615 01       		.uleb128 0x1
 5842 1616 1C020000 		.long	.LVL80
 5843 161a 0F100000 		.long	0x100f
 5844 161e 00       		.byte	0
 5845 161f 00       		.byte	0
 5846 1620 01       		.uleb128 0x1
 5847 1621 2A000000 		.long	.LVL53
 5848 1625 C00F0000 		.long	0xfc0
 5849 1629 01       		.uleb128 0x1
 5850 162a 41000000 		.long	.LVL55
 5851 162e 0F100000 		.long	0x100f
 5852 1632 00       		.byte	0
 5853 1633 1A       		.uleb128 0x1a
 5854 1634 43110000 		.long	0x1143
 5855 1638 00000000 		.long	.LFB310
 5856 163c 22020000 		.long	.LFE310-.LFB310
GAS LISTING /tmp/ccwdkvlB.s 			page 110


 5857 1640 01       		.uleb128 0x1
 5858 1641 9C       		.byte	0x9c
 5859 1642 8E170000 		.long	0x178e
 5860 1646 06       		.uleb128 0x6
 5861 1647 4E110000 		.long	0x114e
 5862 164b 6A010000 		.long	.LLST26
 5863 164f 68010000 		.long	.LVUS26
 5864 1653 0F       		.uleb128 0xf
 5865 1654 43110000 		.long	0x1143
 5866 1658 50000000 		.long	.LBI94
 5867 165c 00       		.byte	.LVU265
 5868 165d 74000000 		.long	.LLRL27
 5869 1661 CC01     		.value	0x1cc
 5870 1663 0D       		.byte	0xd
 5871 1664 7B170000 		.long	0x177b
 5872 1668 16       		.uleb128 0x16
 5873 1669 74000000 		.long	.LLRL27
 5874 166d 06       		.uleb128 0x6
 5875 166e 4E110000 		.long	0x114e
 5876 1672 7B010000 		.long	.LLST28
 5877 1676 73010000 		.long	.LVUS28
 5878 167a 0D       		.uleb128 0xd
 5879 167b 5A110000 		.long	0x115a
 5880 167f 83000000 		.long	.LLRL29
 5881 1683 A7160000 		.long	0x16a7
 5882 1687 06       		.uleb128 0x6
 5883 1688 5F110000 		.long	0x115f
 5884 168c 9B010000 		.long	.LLST30
 5885 1690 99010000 		.long	.LVUS30
 5886 1694 01       		.uleb128 0x1
 5887 1695 96000000 		.long	.LVL89
 5888 1699 4B0F0000 		.long	0xf4b
 5889 169d 01       		.uleb128 0x1
 5890 169e AD000000 		.long	.LVL91
 5891 16a2 0F100000 		.long	0x100f
 5892 16a6 00       		.byte	0
 5893 16a7 0D       		.uleb128 0xd
 5894 16a8 6C110000 		.long	0x116c
 5895 16ac 8F000000 		.long	.LLRL31
 5896 16b0 4C170000 		.long	0x174c
 5897 16b4 06       		.uleb128 0x6
 5898 16b5 6D110000 		.long	0x116d
 5899 16b9 AA010000 		.long	.LLST32
 5900 16bd A4010000 		.long	.LVUS32
 5901 16c1 06       		.uleb128 0x6
 5902 16c2 79110000 		.long	0x1179
 5903 16c6 C3010000 		.long	.LLST33
 5904 16ca C1010000 		.long	.LVUS33
 5905 16ce 0F       		.uleb128 0xf
 5906 16cf 5D130000 		.long	0x135d
 5907 16d3 3B010000 		.long	.LBI99
 5908 16d7 02       		.byte	.LVU306
 5909 16d8 9C000000 		.long	.LLRL34
 5910 16dc F701     		.value	0x1f7
 5911 16de 1D       		.byte	0x1d
 5912 16df F1160000 		.long	0x16f1
 5913 16e3 17       		.uleb128 0x17
GAS LISTING /tmp/ccwdkvlB.s 			page 111


 5914 16e4 6F130000 		.long	0x136f
 5915 16e8 D0010000 		.long	.LLST35
 5916 16ec CE010000 		.long	.LVUS35
 5917 16f0 00       		.byte	0
 5918 16f1 01       		.uleb128 0x1
 5919 16f2 C3000000 		.long	.LVL92
 5920 16f6 670F0000 		.long	0xf67
 5921 16fa 01       		.uleb128 0x1
 5922 16fb DF000000 		.long	.LVL95
 5923 16ff 0F100000 		.long	0x100f
 5924 1703 01       		.uleb128 0x1
 5925 1704 0B010000 		.long	.LVL96
 5926 1708 0F100000 		.long	0x100f
 5927 170c 01       		.uleb128 0x1
 5928 170d 30010000 		.long	.LVL97
 5929 1711 0F100000 		.long	0x100f
 5930 1715 01       		.uleb128 0x1
 5931 1716 51010000 		.long	.LVL100
 5932 171a 0F100000 		.long	0x100f
 5933 171e 01       		.uleb128 0x1
 5934 171f 76010000 		.long	.LVL101
 5935 1723 0F100000 		.long	0x100f
 5936 1727 01       		.uleb128 0x1
 5937 1728 8D010000 		.long	.LVL102
 5938 172c 2F0F0000 		.long	0xf2f
 5939 1730 01       		.uleb128 0x1
 5940 1731 AD010000 		.long	.LVL103
 5941 1735 0F100000 		.long	0x100f
 5942 1739 01       		.uleb128 0x1
 5943 173a C4010000 		.long	.LVL104
 5944 173e 2F0F0000 		.long	0xf2f
 5945 1742 01       		.uleb128 0x1
 5946 1743 DE010000 		.long	.LVL105
 5947 1747 0F100000 		.long	0x100f
 5948 174b 00       		.byte	0
 5949 174c 01       		.uleb128 0x1
 5950 174d 61000000 		.long	.LVL85
 5951 1751 4B0F0000 		.long	0xf4b
 5952 1755 01       		.uleb128 0x1
 5953 1756 7E000000 		.long	.LVL88
 5954 175a 0F100000 		.long	0x100f
 5955 175e 01       		.uleb128 0x1
 5956 175f FB010000 		.long	.LVL106
 5957 1763 2F0F0000 		.long	0xf2f
 5958 1767 01       		.uleb128 0x1
 5959 1768 09020000 		.long	.LVL107
 5960 176c 670F0000 		.long	0xf67
 5961 1770 01       		.uleb128 0x1
 5962 1771 1A020000 		.long	.LVL109
 5963 1775 0F100000 		.long	0x100f
 5964 1779 00       		.byte	0
 5965 177a 00       		.byte	0
 5966 177b 01       		.uleb128 0x1
 5967 177c 2A000000 		.long	.LVL82
 5968 1780 670F0000 		.long	0xf67
 5969 1784 01       		.uleb128 0x1
 5970 1785 41000000 		.long	.LVL84
GAS LISTING /tmp/ccwdkvlB.s 			page 112


 5971 1789 0F100000 		.long	0x100f
 5972 178d 00       		.byte	0
 5973 178e 1A       		.uleb128 0x1a
 5974 178f C3110000 		.long	0x11c3
 5975 1793 00000000 		.long	.LFB308
 5976 1797 22020000 		.long	.LFE308-.LFB308
 5977 179b 01       		.uleb128 0x1
 5978 179c 9C       		.byte	0x9c
 5979 179d E9180000 		.long	0x18e9
 5980 17a1 06       		.uleb128 0x6
 5981 17a2 CE110000 		.long	0x11ce
 5982 17a6 DC010000 		.long	.LLST36
 5983 17aa DA010000 		.long	.LVUS36
 5984 17ae 0F       		.uleb128 0xf
 5985 17af C3110000 		.long	0x11c3
 5986 17b3 50000000 		.long	.LBI112
 5987 17b7 00       		.byte	.LVU355
 5988 17b8 A8000000 		.long	.LLRL37
 5989 17bc 5401     		.value	0x154
 5990 17be 0D       		.byte	0xd
 5991 17bf D6180000 		.long	0x18d6
 5992 17c3 16       		.uleb128 0x16
 5993 17c4 A8000000 		.long	.LLRL37
 5994 17c8 06       		.uleb128 0x6
 5995 17c9 CE110000 		.long	0x11ce
 5996 17cd ED010000 		.long	.LLST38
 5997 17d1 E5010000 		.long	.LVUS38
 5998 17d5 0D       		.uleb128 0xd
 5999 17d6 DA110000 		.long	0x11da
 6000 17da B7000000 		.long	.LLRL39
 6001 17de 02180000 		.long	0x1802
 6002 17e2 06       		.uleb128 0x6
 6003 17e3 DF110000 		.long	0x11df
 6004 17e7 0D020000 		.long	.LLST40
 6005 17eb 0B020000 		.long	.LVUS40
 6006 17ef 01       		.uleb128 0x1
 6007 17f0 96000000 		.long	.LVL118
 6008 17f4 FC0E0000 		.long	0xefc
 6009 17f8 01       		.uleb128 0x1
 6010 17f9 AD000000 		.long	.LVL120
 6011 17fd 0F100000 		.long	0x100f
 6012 1801 00       		.byte	0
 6013 1802 0D       		.uleb128 0xd
 6014 1803 EC110000 		.long	0x11ec
 6015 1807 C3000000 		.long	.LLRL41
 6016 180b A7180000 		.long	0x18a7
 6017 180f 06       		.uleb128 0x6
 6018 1810 ED110000 		.long	0x11ed
 6019 1814 1C020000 		.long	.LLST42
 6020 1818 16020000 		.long	.LVUS42
 6021 181c 06       		.uleb128 0x6
 6022 181d F9110000 		.long	0x11f9
 6023 1821 35020000 		.long	.LLST43
 6024 1825 33020000 		.long	.LVUS43
 6025 1829 0F       		.uleb128 0xf
 6026 182a 5D130000 		.long	0x135d
 6027 182e 3B010000 		.long	.LBI117
GAS LISTING /tmp/ccwdkvlB.s 			page 113


 6028 1832 02       		.byte	.LVU396
 6029 1833 D0000000 		.long	.LLRL44
 6030 1837 7F01     		.value	0x17f
 6031 1839 1F       		.byte	0x1f
 6032 183a 4C180000 		.long	0x184c
 6033 183e 17       		.uleb128 0x17
 6034 183f 6F130000 		.long	0x136f
 6035 1843 42020000 		.long	.LLST45
 6036 1847 40020000 		.long	.LVUS45
 6037 184b 00       		.byte	0
 6038 184c 01       		.uleb128 0x1
 6039 184d C3000000 		.long	.LVL121
 6040 1851 180F0000 		.long	0xf18
 6041 1855 01       		.uleb128 0x1
 6042 1856 DF000000 		.long	.LVL124
 6043 185a 0F100000 		.long	0x100f
 6044 185e 01       		.uleb128 0x1
 6045 185f 0B010000 		.long	.LVL125
 6046 1863 0F100000 		.long	0x100f
 6047 1867 01       		.uleb128 0x1
 6048 1868 30010000 		.long	.LVL126
 6049 186c 0F100000 		.long	0x100f
 6050 1870 01       		.uleb128 0x1
 6051 1871 51010000 		.long	.LVL129
 6052 1875 0F100000 		.long	0x100f
 6053 1879 01       		.uleb128 0x1
 6054 187a 76010000 		.long	.LVL130
 6055 187e 0F100000 		.long	0x100f
 6056 1882 01       		.uleb128 0x1
 6057 1883 8D010000 		.long	.LVL131
 6058 1887 E00E0000 		.long	0xee0
 6059 188b 01       		.uleb128 0x1
 6060 188c AD010000 		.long	.LVL132
 6061 1890 0F100000 		.long	0x100f
 6062 1894 01       		.uleb128 0x1
 6063 1895 C4010000 		.long	.LVL133
 6064 1899 E00E0000 		.long	0xee0
 6065 189d 01       		.uleb128 0x1
 6066 189e DE010000 		.long	.LVL134
 6067 18a2 0F100000 		.long	0x100f
 6068 18a6 00       		.byte	0
 6069 18a7 01       		.uleb128 0x1
 6070 18a8 61000000 		.long	.LVL114
 6071 18ac FC0E0000 		.long	0xefc
 6072 18b0 01       		.uleb128 0x1
 6073 18b1 7E000000 		.long	.LVL117
 6074 18b5 0F100000 		.long	0x100f
 6075 18b9 01       		.uleb128 0x1
 6076 18ba FB010000 		.long	.LVL135
 6077 18be E00E0000 		.long	0xee0
 6078 18c2 01       		.uleb128 0x1
 6079 18c3 09020000 		.long	.LVL136
 6080 18c7 180F0000 		.long	0xf18
 6081 18cb 01       		.uleb128 0x1
 6082 18cc 1A020000 		.long	.LVL138
 6083 18d0 0F100000 		.long	0x100f
 6084 18d4 00       		.byte	0
GAS LISTING /tmp/ccwdkvlB.s 			page 114


 6085 18d5 00       		.byte	0
 6086 18d6 01       		.uleb128 0x1
 6087 18d7 2A000000 		.long	.LVL111
 6088 18db 180F0000 		.long	0xf18
 6089 18df 01       		.uleb128 0x1
 6090 18e0 41000000 		.long	.LVL113
 6091 18e4 0F100000 		.long	0x100f
 6092 18e8 00       		.byte	0
 6093 18e9 1A       		.uleb128 0x1a
 6094 18ea 43120000 		.long	0x1243
 6095 18ee 00000000 		.long	.LFB306
 6096 18f2 28020000 		.long	.LFE306-.LFB306
 6097 18f6 01       		.uleb128 0x1
 6098 18f7 9C       		.byte	0x9c
 6099 18f8 431A0000 		.long	0x1a43
 6100 18fc 06       		.uleb128 0x6
 6101 18fd 4D120000 		.long	0x124d
 6102 1901 4E020000 		.long	.LLST46
 6103 1905 4C020000 		.long	.LVUS46
 6104 1909 25       		.uleb128 0x25
 6105 190a 43120000 		.long	0x1243
 6106 190e 50000000 		.long	.LBI130
 6107 1912 00       		.byte	.LVU445
 6108 1913 DC000000 		.long	.LLRL47
 6109 1917 DC       		.byte	0xdc
 6110 1918 0D       		.byte	0xd
 6111 1919 301A0000 		.long	0x1a30
 6112 191d 16       		.uleb128 0x16
 6113 191e DC000000 		.long	.LLRL47
 6114 1922 06       		.uleb128 0x6
 6115 1923 4D120000 		.long	0x124d
 6116 1927 5F020000 		.long	.LLST48
 6117 192b 57020000 		.long	.LVUS48
 6118 192f 0D       		.uleb128 0xd
 6119 1930 58120000 		.long	0x1258
 6120 1934 EB000000 		.long	.LLRL49
 6121 1938 5C190000 		.long	0x195c
 6122 193c 06       		.uleb128 0x6
 6123 193d 5D120000 		.long	0x125d
 6124 1941 7F020000 		.long	.LLST50
 6125 1945 7D020000 		.long	.LVUS50
 6126 1949 01       		.uleb128 0x1
 6127 194a 9C000000 		.long	.LVL147
 6128 194e AD0E0000 		.long	0xead
 6129 1952 01       		.uleb128 0x1
 6130 1953 B3000000 		.long	.LVL149
 6131 1957 0F100000 		.long	0x100f
 6132 195b 00       		.byte	0
 6133 195c 0D       		.uleb128 0xd
 6134 195d 69120000 		.long	0x1269
 6135 1961 F7000000 		.long	.LLRL51
 6136 1965 011A0000 		.long	0x1a01
 6137 1969 06       		.uleb128 0x6
 6138 196a 6A120000 		.long	0x126a
 6139 196e 8E020000 		.long	.LLST52
 6140 1972 88020000 		.long	.LVUS52
 6141 1976 06       		.uleb128 0x6
GAS LISTING /tmp/ccwdkvlB.s 			page 115


 6142 1977 75120000 		.long	0x1275
 6143 197b A7020000 		.long	.LLST53
 6144 197f A5020000 		.long	.LVUS53
 6145 1983 0F       		.uleb128 0xf
 6146 1984 5D130000 		.long	0x135d
 6147 1988 41010000 		.long	.LBI135
 6148 198c 02       		.byte	.LVU486
 6149 198d 04010000 		.long	.LLRL54
 6150 1991 0601     		.value	0x106
 6151 1993 1C       		.byte	0x1c
 6152 1994 A6190000 		.long	0x19a6
 6153 1998 17       		.uleb128 0x17
 6154 1999 6F130000 		.long	0x136f
 6155 199d B4020000 		.long	.LLST55
 6156 19a1 B2020000 		.long	.LVUS55
 6157 19a5 00       		.byte	0
 6158 19a6 01       		.uleb128 0x1
 6159 19a7 C9000000 		.long	.LVL150
 6160 19ab C90E0000 		.long	0xec9
 6161 19af 01       		.uleb128 0x1
 6162 19b0 E5000000 		.long	.LVL153
 6163 19b4 0F100000 		.long	0x100f
 6164 19b8 01       		.uleb128 0x1
 6165 19b9 11010000 		.long	.LVL154
 6166 19bd 0F100000 		.long	0x100f
 6167 19c1 01       		.uleb128 0x1
 6168 19c2 36010000 		.long	.LVL155
 6169 19c6 0F100000 		.long	0x100f
 6170 19ca 01       		.uleb128 0x1
 6171 19cb 57010000 		.long	.LVL158
 6172 19cf 0F100000 		.long	0x100f
 6173 19d3 01       		.uleb128 0x1
 6174 19d4 7C010000 		.long	.LVL159
 6175 19d8 0F100000 		.long	0x100f
 6176 19dc 01       		.uleb128 0x1
 6177 19dd 93010000 		.long	.LVL160
 6178 19e1 910E0000 		.long	0xe91
 6179 19e5 01       		.uleb128 0x1
 6180 19e6 B3010000 		.long	.LVL161
 6181 19ea 0F100000 		.long	0x100f
 6182 19ee 01       		.uleb128 0x1
 6183 19ef CA010000 		.long	.LVL162
 6184 19f3 910E0000 		.long	0xe91
 6185 19f7 01       		.uleb128 0x1
 6186 19f8 E4010000 		.long	.LVL163
 6187 19fc 0F100000 		.long	0x100f
 6188 1a00 00       		.byte	0
 6189 1a01 01       		.uleb128 0x1
 6190 1a02 64000000 		.long	.LVL143
 6191 1a06 AD0E0000 		.long	0xead
 6192 1a0a 01       		.uleb128 0x1
 6193 1a0b 81000000 		.long	.LVL146
 6194 1a0f 0F100000 		.long	0x100f
 6195 1a13 01       		.uleb128 0x1
 6196 1a14 01020000 		.long	.LVL164
 6197 1a18 910E0000 		.long	0xe91
 6198 1a1c 01       		.uleb128 0x1
GAS LISTING /tmp/ccwdkvlB.s 			page 116


 6199 1a1d 0F020000 		.long	.LVL165
 6200 1a21 C90E0000 		.long	0xec9
 6201 1a25 01       		.uleb128 0x1
 6202 1a26 20020000 		.long	.LVL167
 6203 1a2a 0F100000 		.long	0x100f
 6204 1a2e 00       		.byte	0
 6205 1a2f 00       		.byte	0
 6206 1a30 01       		.uleb128 0x1
 6207 1a31 2A000000 		.long	.LVL140
 6208 1a35 C90E0000 		.long	0xec9
 6209 1a39 01       		.uleb128 0x1
 6210 1a3a 41000000 		.long	.LVL142
 6211 1a3e 0F100000 		.long	0x100f
 6212 1a42 00       		.byte	0
 6213 1a43 3A       		.uleb128 0x3a
 6214 1a44 BC120000 		.long	0x12bc
 6215 1a48 00000000 		.long	.LFB304
 6216 1a4c 89020000 		.long	.LFE304-.LFB304
 6217 1a50 01       		.uleb128 0x1
 6218 1a51 9C       		.byte	0x9c
 6219 1a52 06       		.uleb128 0x6
 6220 1a53 C6120000 		.long	0x12c6
 6221 1a57 C0020000 		.long	.LLST56
 6222 1a5b BE020000 		.long	.LVUS56
 6223 1a5f 25       		.uleb128 0x25
 6224 1a60 BC120000 		.long	0x12bc
 6225 1a64 50000000 		.long	.LBI149
 6226 1a68 00       		.byte	.LVU535
 6227 1a69 10010000 		.long	.LLRL57
 6228 1a6d 61       		.byte	0x61
 6229 1a6e 0D       		.byte	0xd
 6230 1a6f A51B0000 		.long	0x1ba5
 6231 1a73 16       		.uleb128 0x16
 6232 1a74 10010000 		.long	.LLRL57
 6233 1a78 06       		.uleb128 0x6
 6234 1a79 C6120000 		.long	0x12c6
 6235 1a7d D1020000 		.long	.LLST58
 6236 1a81 C9020000 		.long	.LVUS58
 6237 1a85 0D       		.uleb128 0xd
 6238 1a86 D1120000 		.long	0x12d1
 6239 1a8a 1F010000 		.long	.LLRL59
 6240 1a8e A51A0000 		.long	0x1aa5
 6241 1a92 01       		.uleb128 0x1
 6242 1a93 66000000 		.long	.LVL172
 6243 1a97 5E0E0000 		.long	0xe5e
 6244 1a9b 01       		.uleb128 0x1
 6245 1a9c 83000000 		.long	.LVL175
 6246 1aa0 0F100000 		.long	0x100f
 6247 1aa4 00       		.byte	0
 6248 1aa5 0D       		.uleb128 0xd
 6249 1aa6 E8120000 		.long	0x12e8
 6250 1aaa 2B010000 		.long	.LLRL60
 6251 1aae D21A0000 		.long	0x1ad2
 6252 1ab2 06       		.uleb128 0x6
 6253 1ab3 ED120000 		.long	0x12ed
 6254 1ab7 F1020000 		.long	.LLST61
 6255 1abb EF020000 		.long	.LVUS61
GAS LISTING /tmp/ccwdkvlB.s 			page 117


 6256 1abf 01       		.uleb128 0x1
 6257 1ac0 A0000000 		.long	.LVL176
 6258 1ac4 5E0E0000 		.long	0xe5e
 6259 1ac8 01       		.uleb128 0x1
 6260 1ac9 B7000000 		.long	.LVL178
 6261 1acd 0F100000 		.long	0x100f
 6262 1ad1 00       		.byte	0
 6263 1ad2 0D       		.uleb128 0xd
 6264 1ad3 0A130000 		.long	0x130a
 6265 1ad7 37010000 		.long	.LLRL62
 6266 1adb 881B0000 		.long	0x1b88
 6267 1adf 06       		.uleb128 0x6
 6268 1ae0 0B130000 		.long	0x130b
 6269 1ae4 00030000 		.long	.LLST63
 6270 1ae8 FA020000 		.long	.LVUS63
 6271 1aec 06       		.uleb128 0x6
 6272 1aed 16130000 		.long	0x1316
 6273 1af1 19030000 		.long	.LLST64
 6274 1af5 17030000 		.long	.LVUS64
 6275 1af9 25       		.uleb128 0x25
 6276 1afa 5D130000 		.long	0x135d
 6277 1afe 77010000 		.long	.LBI156
 6278 1b02 02       		.byte	.LVU580
 6279 1b03 44010000 		.long	.LLRL65
 6280 1b07 8E       		.byte	0x8e
 6281 1b08 23       		.byte	0x23
 6282 1b09 1B1B0000 		.long	0x1b1b
 6283 1b0d 17       		.uleb128 0x17
 6284 1b0e 6F130000 		.long	0x136f
 6285 1b12 26030000 		.long	.LLST66
 6286 1b16 24030000 		.long	.LVUS66
 6287 1b1a 00       		.byte	0
 6288 1b1b 01       		.uleb128 0x1
 6289 1b1c CD000000 		.long	.LVL179
 6290 1b20 7A0E0000 		.long	0xe7a
 6291 1b24 01       		.uleb128 0x1
 6292 1b25 E9000000 		.long	.LVL182
 6293 1b29 0F100000 		.long	0x100f
 6294 1b2d 01       		.uleb128 0x1
 6295 1b2e 1B010000 		.long	.LVL183
 6296 1b32 0F100000 		.long	0x100f
 6297 1b36 01       		.uleb128 0x1
 6298 1b37 47010000 		.long	.LVL184
 6299 1b3b 0F100000 		.long	0x100f
 6300 1b3f 01       		.uleb128 0x1
 6301 1b40 6C010000 		.long	.LVL185
 6302 1b44 0F100000 		.long	0x100f
 6303 1b48 01       		.uleb128 0x1
 6304 1b49 8D010000 		.long	.LVL188
 6305 1b4d 0F100000 		.long	0x100f
 6306 1b51 01       		.uleb128 0x1
 6307 1b52 B8010000 		.long	.LVL189
 6308 1b56 0F100000 		.long	0x100f
 6309 1b5a 01       		.uleb128 0x1
 6310 1b5b DD010000 		.long	.LVL190
 6311 1b5f 0F100000 		.long	0x100f
 6312 1b63 01       		.uleb128 0x1
GAS LISTING /tmp/ccwdkvlB.s 			page 118


 6313 1b64 F4010000 		.long	.LVL191
 6314 1b68 420E0000 		.long	0xe42
 6315 1b6c 01       		.uleb128 0x1
 6316 1b6d 14020000 		.long	.LVL192
 6317 1b71 0F100000 		.long	0x100f
 6318 1b75 01       		.uleb128 0x1
 6319 1b76 2B020000 		.long	.LVL193
 6320 1b7a 420E0000 		.long	0xe42
 6321 1b7e 01       		.uleb128 0x1
 6322 1b7f 45020000 		.long	.LVL194
 6323 1b83 0F100000 		.long	0x100f
 6324 1b87 00       		.byte	0
 6325 1b88 01       		.uleb128 0x1
 6326 1b89 62020000 		.long	.LVL195
 6327 1b8d 420E0000 		.long	0xe42
 6328 1b91 01       		.uleb128 0x1
 6329 1b92 70020000 		.long	.LVL196
 6330 1b96 7A0E0000 		.long	0xe7a
 6331 1b9a 01       		.uleb128 0x1
 6332 1b9b 81020000 		.long	.LVL198
 6333 1b9f 0F100000 		.long	0x100f
 6334 1ba3 00       		.byte	0
 6335 1ba4 00       		.byte	0
 6336 1ba5 01       		.uleb128 0x1
 6337 1ba6 2A000000 		.long	.LVL169
 6338 1baa 7A0E0000 		.long	0xe7a
 6339 1bae 01       		.uleb128 0x1
 6340 1baf 41000000 		.long	.LVL171
 6341 1bb3 0F100000 		.long	0x100f
 6342 1bb7 00       		.byte	0
 6343 1bb8 00       		.byte	0
 6344              		.section	.debug_abbrev,"",@progbits
 6345              	.Ldebug_abbrev0:
 6346 0000 01       		.uleb128 0x1
 6347 0001 48       		.uleb128 0x48
 6348 0002 00       		.byte	0
 6349 0003 7D       		.uleb128 0x7d
 6350 0004 01       		.uleb128 0x1
 6351 0005 7F       		.uleb128 0x7f
 6352 0006 13       		.uleb128 0x13
 6353 0007 00       		.byte	0
 6354 0008 00       		.byte	0
 6355 0009 02       		.uleb128 0x2
 6356 000a 0D       		.uleb128 0xd
 6357 000b 00       		.byte	0
 6358 000c 03       		.uleb128 0x3
 6359 000d 0E       		.uleb128 0xe
 6360 000e 3A       		.uleb128 0x3a
 6361 000f 0B       		.uleb128 0xb
 6362 0010 3B       		.uleb128 0x3b
 6363 0011 0B       		.uleb128 0xb
 6364 0012 39       		.uleb128 0x39
 6365 0013 0B       		.uleb128 0xb
 6366 0014 49       		.uleb128 0x49
 6367 0015 13       		.uleb128 0x13
 6368 0016 38       		.uleb128 0x38
 6369 0017 0B       		.uleb128 0xb
GAS LISTING /tmp/ccwdkvlB.s 			page 119


 6370 0018 00       		.byte	0
 6371 0019 00       		.byte	0
 6372 001a 03       		.uleb128 0x3
 6373 001b 16       		.uleb128 0x16
 6374 001c 00       		.byte	0
 6375 001d 03       		.uleb128 0x3
 6376 001e 0E       		.uleb128 0xe
 6377 001f 3A       		.uleb128 0x3a
 6378 0020 0B       		.uleb128 0xb
 6379 0021 3B       		.uleb128 0x3b
 6380 0022 0B       		.uleb128 0xb
 6381 0023 39       		.uleb128 0x39
 6382 0024 0B       		.uleb128 0xb
 6383 0025 49       		.uleb128 0x49
 6384 0026 13       		.uleb128 0x13
 6385 0027 00       		.byte	0
 6386 0028 00       		.byte	0
 6387 0029 04       		.uleb128 0x4
 6388 002a 05       		.uleb128 0x5
 6389 002b 00       		.byte	0
 6390 002c 49       		.uleb128 0x49
 6391 002d 13       		.uleb128 0x13
 6392 002e 00       		.byte	0
 6393 002f 00       		.byte	0
 6394 0030 05       		.uleb128 0x5
 6395 0031 0F       		.uleb128 0xf
 6396 0032 00       		.byte	0
 6397 0033 0B       		.uleb128 0xb
 6398 0034 21       		.uleb128 0x21
 6399 0035 04       		.sleb128 4
 6400 0036 49       		.uleb128 0x49
 6401 0037 13       		.uleb128 0x13
 6402 0038 00       		.byte	0
 6403 0039 00       		.byte	0
 6404 003a 06       		.uleb128 0x6
 6405 003b 34       		.uleb128 0x34
 6406 003c 00       		.byte	0
 6407 003d 31       		.uleb128 0x31
 6408 003e 13       		.uleb128 0x13
 6409 003f 02       		.uleb128 0x2
 6410 0040 17       		.uleb128 0x17
 6411 0041 B742     		.uleb128 0x2137
 6412 0043 17       		.uleb128 0x17
 6413 0044 00       		.byte	0
 6414 0045 00       		.byte	0
 6415 0046 07       		.uleb128 0x7
 6416 0047 0D       		.uleb128 0xd
 6417 0048 00       		.byte	0
 6418 0049 03       		.uleb128 0x3
 6419 004a 08       		.uleb128 0x8
 6420 004b 3A       		.uleb128 0x3a
 6421 004c 0B       		.uleb128 0xb
 6422 004d 3B       		.uleb128 0x3b
 6423 004e 0B       		.uleb128 0xb
 6424 004f 39       		.uleb128 0x39
 6425 0050 0B       		.uleb128 0xb
 6426 0051 49       		.uleb128 0x49
GAS LISTING /tmp/ccwdkvlB.s 			page 120


 6427 0052 13       		.uleb128 0x13
 6428 0053 38       		.uleb128 0x38
 6429 0054 0B       		.uleb128 0xb
 6430 0055 00       		.byte	0
 6431 0056 00       		.byte	0
 6432 0057 08       		.uleb128 0x8
 6433 0058 0D       		.uleb128 0xd
 6434 0059 00       		.byte	0
 6435 005a 03       		.uleb128 0x3
 6436 005b 0E       		.uleb128 0xe
 6437 005c 3A       		.uleb128 0x3a
 6438 005d 0B       		.uleb128 0xb
 6439 005e 3B       		.uleb128 0x3b
 6440 005f 05       		.uleb128 0x5
 6441 0060 39       		.uleb128 0x39
 6442 0061 0B       		.uleb128 0xb
 6443 0062 49       		.uleb128 0x49
 6444 0063 13       		.uleb128 0x13
 6445 0064 38       		.uleb128 0x38
 6446 0065 0B       		.uleb128 0xb
 6447 0066 00       		.byte	0
 6448 0067 00       		.byte	0
 6449 0068 09       		.uleb128 0x9
 6450 0069 13       		.uleb128 0x13
 6451 006a 01       		.byte	0x1
 6452 006b 03       		.uleb128 0x3
 6453 006c 0E       		.uleb128 0xe
 6454 006d 0B       		.uleb128 0xb
 6455 006e 0B       		.uleb128 0xb
 6456 006f 3A       		.uleb128 0x3a
 6457 0070 0B       		.uleb128 0xb
 6458 0071 3B       		.uleb128 0x3b
 6459 0072 0B       		.uleb128 0xb
 6460 0073 39       		.uleb128 0x39
 6461 0074 0B       		.uleb128 0xb
 6462 0075 01       		.uleb128 0x1
 6463 0076 13       		.uleb128 0x13
 6464 0077 00       		.byte	0
 6465 0078 00       		.byte	0
 6466 0079 0A       		.uleb128 0xa
 6467 007a 2E       		.uleb128 0x2e
 6468 007b 01       		.byte	0x1
 6469 007c 3F       		.uleb128 0x3f
 6470 007d 19       		.uleb128 0x19
 6471 007e 03       		.uleb128 0x3
 6472 007f 0E       		.uleb128 0xe
 6473 0080 3A       		.uleb128 0x3a
 6474 0081 0B       		.uleb128 0xb
 6475 0082 3B       		.uleb128 0x3b
 6476 0083 05       		.uleb128 0x5
 6477 0084 39       		.uleb128 0x39
 6478 0085 0B       		.uleb128 0xb
 6479 0086 27       		.uleb128 0x27
 6480 0087 19       		.uleb128 0x19
 6481 0088 49       		.uleb128 0x49
 6482 0089 13       		.uleb128 0x13
 6483 008a 3C       		.uleb128 0x3c
GAS LISTING /tmp/ccwdkvlB.s 			page 121


 6484 008b 19       		.uleb128 0x19
 6485 008c 01       		.uleb128 0x1
 6486 008d 13       		.uleb128 0x13
 6487 008e 00       		.byte	0
 6488 008f 00       		.byte	0
 6489 0090 0B       		.uleb128 0xb
 6490 0091 24       		.uleb128 0x24
 6491 0092 00       		.byte	0
 6492 0093 0B       		.uleb128 0xb
 6493 0094 0B       		.uleb128 0xb
 6494 0095 3E       		.uleb128 0x3e
 6495 0096 0B       		.uleb128 0xb
 6496 0097 03       		.uleb128 0x3
 6497 0098 0E       		.uleb128 0xe
 6498 0099 00       		.byte	0
 6499 009a 00       		.byte	0
 6500 009b 0C       		.uleb128 0xc
 6501 009c 34       		.uleb128 0x34
 6502 009d 00       		.byte	0
 6503 009e 03       		.uleb128 0x3
 6504 009f 0E       		.uleb128 0xe
 6505 00a0 3A       		.uleb128 0x3a
 6506 00a1 21       		.uleb128 0x21
 6507 00a2 01       		.sleb128 1
 6508 00a3 3B       		.uleb128 0x3b
 6509 00a4 05       		.uleb128 0x5
 6510 00a5 39       		.uleb128 0x39
 6511 00a6 0B       		.uleb128 0xb
 6512 00a7 49       		.uleb128 0x49
 6513 00a8 13       		.uleb128 0x13
 6514 00a9 00       		.byte	0
 6515 00aa 00       		.byte	0
 6516 00ab 0D       		.uleb128 0xd
 6517 00ac 0B       		.uleb128 0xb
 6518 00ad 01       		.byte	0x1
 6519 00ae 31       		.uleb128 0x31
 6520 00af 13       		.uleb128 0x13
 6521 00b0 55       		.uleb128 0x55
 6522 00b1 17       		.uleb128 0x17
 6523 00b2 01       		.uleb128 0x1
 6524 00b3 13       		.uleb128 0x13
 6525 00b4 00       		.byte	0
 6526 00b5 00       		.byte	0
 6527 00b6 0E       		.uleb128 0xe
 6528 00b7 13       		.uleb128 0x13
 6529 00b8 01       		.byte	0x1
 6530 00b9 0B       		.uleb128 0xb
 6531 00ba 0B       		.uleb128 0xb
 6532 00bb 3A       		.uleb128 0x3a
 6533 00bc 0B       		.uleb128 0xb
 6534 00bd 3B       		.uleb128 0x3b
 6535 00be 0B       		.uleb128 0xb
 6536 00bf 39       		.uleb128 0x39
 6537 00c0 21       		.uleb128 0x21
 6538 00c1 09       		.sleb128 9
 6539 00c2 01       		.uleb128 0x1
 6540 00c3 13       		.uleb128 0x13
GAS LISTING /tmp/ccwdkvlB.s 			page 122


 6541 00c4 00       		.byte	0
 6542 00c5 00       		.byte	0
 6543 00c6 0F       		.uleb128 0xf
 6544 00c7 1D       		.uleb128 0x1d
 6545 00c8 01       		.byte	0x1
 6546 00c9 31       		.uleb128 0x31
 6547 00ca 13       		.uleb128 0x13
 6548 00cb 52       		.uleb128 0x52
 6549 00cc 01       		.uleb128 0x1
 6550 00cd B842     		.uleb128 0x2138
 6551 00cf 0B       		.uleb128 0xb
 6552 00d0 55       		.uleb128 0x55
 6553 00d1 17       		.uleb128 0x17
 6554 00d2 58       		.uleb128 0x58
 6555 00d3 21       		.uleb128 0x21
 6556 00d4 01       		.sleb128 1
 6557 00d5 59       		.uleb128 0x59
 6558 00d6 05       		.uleb128 0x5
 6559 00d7 57       		.uleb128 0x57
 6560 00d8 0B       		.uleb128 0xb
 6561 00d9 01       		.uleb128 0x1
 6562 00da 13       		.uleb128 0x13
 6563 00db 00       		.byte	0
 6564 00dc 00       		.byte	0
 6565 00dd 10       		.uleb128 0x10
 6566 00de 26       		.uleb128 0x26
 6567 00df 00       		.byte	0
 6568 00e0 49       		.uleb128 0x49
 6569 00e1 13       		.uleb128 0x13
 6570 00e2 00       		.byte	0
 6571 00e3 00       		.byte	0
 6572 00e4 11       		.uleb128 0x11
 6573 00e5 0D       		.uleb128 0xd
 6574 00e6 00       		.byte	0
 6575 00e7 03       		.uleb128 0x3
 6576 00e8 0E       		.uleb128 0xe
 6577 00e9 3A       		.uleb128 0x3a
 6578 00ea 21       		.uleb128 0x21
 6579 00eb 09       		.sleb128 9
 6580 00ec 3B       		.uleb128 0x3b
 6581 00ed 05       		.uleb128 0x5
 6582 00ee 39       		.uleb128 0x39
 6583 00ef 0B       		.uleb128 0xb
 6584 00f0 49       		.uleb128 0x49
 6585 00f1 13       		.uleb128 0x13
 6586 00f2 00       		.byte	0
 6587 00f3 00       		.byte	0
 6588 00f4 12       		.uleb128 0x12
 6589 00f5 0B       		.uleb128 0xb
 6590 00f6 01       		.byte	0x1
 6591 00f7 01       		.uleb128 0x1
 6592 00f8 13       		.uleb128 0x13
 6593 00f9 00       		.byte	0
 6594 00fa 00       		.byte	0
 6595 00fb 13       		.uleb128 0x13
 6596 00fc 15       		.uleb128 0x15
 6597 00fd 01       		.byte	0x1
GAS LISTING /tmp/ccwdkvlB.s 			page 123


 6598 00fe 27       		.uleb128 0x27
 6599 00ff 19       		.uleb128 0x19
 6600 0100 49       		.uleb128 0x49
 6601 0101 13       		.uleb128 0x13
 6602 0102 01       		.uleb128 0x1
 6603 0103 13       		.uleb128 0x13
 6604 0104 00       		.byte	0
 6605 0105 00       		.byte	0
 6606 0106 14       		.uleb128 0x14
 6607 0107 0B       		.uleb128 0xb
 6608 0108 01       		.byte	0x1
 6609 0109 00       		.byte	0
 6610 010a 00       		.byte	0
 6611 010b 15       		.uleb128 0x15
 6612 010c 34       		.uleb128 0x34
 6613 010d 00       		.byte	0
 6614 010e 03       		.uleb128 0x3
 6615 010f 0E       		.uleb128 0xe
 6616 0110 3A       		.uleb128 0x3a
 6617 0111 21       		.uleb128 0x21
 6618 0112 01       		.sleb128 1
 6619 0113 3B       		.uleb128 0x3b
 6620 0114 0B       		.uleb128 0xb
 6621 0115 39       		.uleb128 0x39
 6622 0116 0B       		.uleb128 0xb
 6623 0117 49       		.uleb128 0x49
 6624 0118 13       		.uleb128 0x13
 6625 0119 00       		.byte	0
 6626 011a 00       		.byte	0
 6627 011b 16       		.uleb128 0x16
 6628 011c 0B       		.uleb128 0xb
 6629 011d 01       		.byte	0x1
 6630 011e 55       		.uleb128 0x55
 6631 011f 17       		.uleb128 0x17
 6632 0120 00       		.byte	0
 6633 0121 00       		.byte	0
 6634 0122 17       		.uleb128 0x17
 6635 0123 05       		.uleb128 0x5
 6636 0124 00       		.byte	0
 6637 0125 31       		.uleb128 0x31
 6638 0126 13       		.uleb128 0x13
 6639 0127 02       		.uleb128 0x2
 6640 0128 17       		.uleb128 0x17
 6641 0129 B742     		.uleb128 0x2137
 6642 012b 17       		.uleb128 0x17
 6643 012c 00       		.byte	0
 6644 012d 00       		.byte	0
 6645 012e 18       		.uleb128 0x18
 6646 012f 13       		.uleb128 0x13
 6647 0130 01       		.byte	0x1
 6648 0131 03       		.uleb128 0x3
 6649 0132 0E       		.uleb128 0xe
 6650 0133 0B       		.uleb128 0xb
 6651 0134 0B       		.uleb128 0xb
 6652 0135 3A       		.uleb128 0x3a
 6653 0136 0B       		.uleb128 0xb
 6654 0137 3B       		.uleb128 0x3b
GAS LISTING /tmp/ccwdkvlB.s 			page 124


 6655 0138 05       		.uleb128 0x5
 6656 0139 39       		.uleb128 0x39
 6657 013a 0B       		.uleb128 0xb
 6658 013b 01       		.uleb128 0x1
 6659 013c 13       		.uleb128 0x13
 6660 013d 00       		.byte	0
 6661 013e 00       		.byte	0
 6662 013f 19       		.uleb128 0x19
 6663 0140 34       		.uleb128 0x34
 6664 0141 00       		.byte	0
 6665 0142 03       		.uleb128 0x3
 6666 0143 0E       		.uleb128 0xe
 6667 0144 3A       		.uleb128 0x3a
 6668 0145 21       		.uleb128 0x21
 6669 0146 01       		.sleb128 1
 6670 0147 3B       		.uleb128 0x3b
 6671 0148 05       		.uleb128 0x5
 6672 0149 39       		.uleb128 0x39
 6673 014a 21       		.uleb128 0x21
 6674 014b 19       		.sleb128 25
 6675 014c 49       		.uleb128 0x49
 6676 014d 13       		.uleb128 0x13
 6677 014e 02       		.uleb128 0x2
 6678 014f 18       		.uleb128 0x18
 6679 0150 00       		.byte	0
 6680 0151 00       		.byte	0
 6681 0152 1A       		.uleb128 0x1a
 6682 0153 2E       		.uleb128 0x2e
 6683 0154 01       		.byte	0x1
 6684 0155 31       		.uleb128 0x31
 6685 0156 13       		.uleb128 0x13
 6686 0157 11       		.uleb128 0x11
 6687 0158 01       		.uleb128 0x1
 6688 0159 12       		.uleb128 0x12
 6689 015a 06       		.uleb128 0x6
 6690 015b 40       		.uleb128 0x40
 6691 015c 18       		.uleb128 0x18
 6692 015d 7A       		.uleb128 0x7a
 6693 015e 19       		.uleb128 0x19
 6694 015f 01       		.uleb128 0x1
 6695 0160 13       		.uleb128 0x13
 6696 0161 00       		.byte	0
 6697 0162 00       		.byte	0
 6698 0163 1B       		.uleb128 0x1b
 6699 0164 01       		.uleb128 0x1
 6700 0165 01       		.byte	0x1
 6701 0166 49       		.uleb128 0x49
 6702 0167 13       		.uleb128 0x13
 6703 0168 01       		.uleb128 0x1
 6704 0169 13       		.uleb128 0x13
 6705 016a 00       		.byte	0
 6706 016b 00       		.byte	0
 6707 016c 1C       		.uleb128 0x1c
 6708 016d 21       		.uleb128 0x21
 6709 016e 00       		.byte	0
 6710 016f 49       		.uleb128 0x49
 6711 0170 13       		.uleb128 0x13
GAS LISTING /tmp/ccwdkvlB.s 			page 125


 6712 0171 2F       		.uleb128 0x2f
 6713 0172 0B       		.uleb128 0xb
 6714 0173 00       		.byte	0
 6715 0174 00       		.byte	0
 6716 0175 1D       		.uleb128 0x1d
 6717 0176 16       		.uleb128 0x16
 6718 0177 00       		.byte	0
 6719 0178 03       		.uleb128 0x3
 6720 0179 0E       		.uleb128 0xe
 6721 017a 3A       		.uleb128 0x3a
 6722 017b 0B       		.uleb128 0xb
 6723 017c 3B       		.uleb128 0x3b
 6724 017d 05       		.uleb128 0x5
 6725 017e 39       		.uleb128 0x39
 6726 017f 21       		.uleb128 0x21
 6727 0180 03       		.sleb128 3
 6728 0181 49       		.uleb128 0x49
 6729 0182 13       		.uleb128 0x13
 6730 0183 00       		.byte	0
 6731 0184 00       		.byte	0
 6732 0185 1E       		.uleb128 0x1e
 6733 0186 2E       		.uleb128 0x2e
 6734 0187 01       		.byte	0x1
 6735 0188 03       		.uleb128 0x3
 6736 0189 0E       		.uleb128 0xe
 6737 018a 3A       		.uleb128 0x3a
 6738 018b 21       		.uleb128 0x21
 6739 018c 01       		.sleb128 1
 6740 018d 3B       		.uleb128 0x3b
 6741 018e 05       		.uleb128 0x5
 6742 018f 39       		.uleb128 0x39
 6743 0190 21       		.uleb128 0x21
 6744 0191 0D       		.sleb128 13
 6745 0192 27       		.uleb128 0x27
 6746 0193 19       		.uleb128 0x19
 6747 0194 20       		.uleb128 0x20
 6748 0195 21       		.uleb128 0x21
 6749 0196 01       		.sleb128 1
 6750 0197 01       		.uleb128 0x1
 6751 0198 13       		.uleb128 0x13
 6752 0199 00       		.byte	0
 6753 019a 00       		.byte	0
 6754 019b 1F       		.uleb128 0x1f
 6755 019c 2E       		.uleb128 0x2e
 6756 019d 01       		.byte	0x1
 6757 019e 03       		.uleb128 0x3
 6758 019f 0E       		.uleb128 0xe
 6759 01a0 3A       		.uleb128 0x3a
 6760 01a1 21       		.uleb128 0x21
 6761 01a2 01       		.sleb128 1
 6762 01a3 3B       		.uleb128 0x3b
 6763 01a4 05       		.uleb128 0x5
 6764 01a5 39       		.uleb128 0x39
 6765 01a6 21       		.uleb128 0x21
 6766 01a7 0D       		.sleb128 13
 6767 01a8 27       		.uleb128 0x27
 6768 01a9 19       		.uleb128 0x19
GAS LISTING /tmp/ccwdkvlB.s 			page 126


 6769 01aa 11       		.uleb128 0x11
 6770 01ab 01       		.uleb128 0x1
 6771 01ac 12       		.uleb128 0x12
 6772 01ad 06       		.uleb128 0x6
 6773 01ae 40       		.uleb128 0x40
 6774 01af 18       		.uleb128 0x18
 6775 01b0 7A       		.uleb128 0x7a
 6776 01b1 19       		.uleb128 0x19
 6777 01b2 01       		.uleb128 0x1
 6778 01b3 13       		.uleb128 0x13
 6779 01b4 00       		.byte	0
 6780 01b5 00       		.byte	0
 6781 01b6 20       		.uleb128 0x20
 6782 01b7 35       		.uleb128 0x35
 6783 01b8 00       		.byte	0
 6784 01b9 49       		.uleb128 0x49
 6785 01ba 13       		.uleb128 0x13
 6786 01bb 00       		.byte	0
 6787 01bc 00       		.byte	0
 6788 01bd 21       		.uleb128 0x21
 6789 01be 0D       		.uleb128 0xd
 6790 01bf 00       		.byte	0
 6791 01c0 03       		.uleb128 0x3
 6792 01c1 0E       		.uleb128 0xe
 6793 01c2 3A       		.uleb128 0x3a
 6794 01c3 21       		.uleb128 0x21
 6795 01c4 09       		.sleb128 9
 6796 01c5 3B       		.uleb128 0x3b
 6797 01c6 0B       		.uleb128 0xb
 6798 01c7 39       		.uleb128 0x39
 6799 01c8 21       		.uleb128 0x21
 6800 01c9 21       		.sleb128 33
 6801 01ca 49       		.uleb128 0x49
 6802 01cb 13       		.uleb128 0x13
 6803 01cc 00       		.byte	0
 6804 01cd 00       		.byte	0
 6805 01ce 22       		.uleb128 0x22
 6806 01cf 34       		.uleb128 0x34
 6807 01d0 00       		.byte	0
 6808 01d1 03       		.uleb128 0x3
 6809 01d2 0E       		.uleb128 0xe
 6810 01d3 3A       		.uleb128 0x3a
 6811 01d4 21       		.uleb128 0x21
 6812 01d5 01       		.sleb128 1
 6813 01d6 3B       		.uleb128 0x3b
 6814 01d7 0B       		.uleb128 0xb
 6815 01d8 39       		.uleb128 0x39
 6816 01d9 0B       		.uleb128 0xb
 6817 01da 49       		.uleb128 0x49
 6818 01db 13       		.uleb128 0x13
 6819 01dc 02       		.uleb128 0x2
 6820 01dd 18       		.uleb128 0x18
 6821 01de 00       		.byte	0
 6822 01df 00       		.byte	0
 6823 01e0 23       		.uleb128 0x23
 6824 01e1 34       		.uleb128 0x34
 6825 01e2 00       		.byte	0
GAS LISTING /tmp/ccwdkvlB.s 			page 127


 6826 01e3 03       		.uleb128 0x3
 6827 01e4 08       		.uleb128 0x8
 6828 01e5 3A       		.uleb128 0x3a
 6829 01e6 21       		.uleb128 0x21
 6830 01e7 01       		.sleb128 1
 6831 01e8 3B       		.uleb128 0x3b
 6832 01e9 05       		.uleb128 0x5
 6833 01ea 39       		.uleb128 0x39
 6834 01eb 0B       		.uleb128 0xb
 6835 01ec 49       		.uleb128 0x49
 6836 01ed 13       		.uleb128 0x13
 6837 01ee 00       		.byte	0
 6838 01ef 00       		.byte	0
 6839 01f0 24       		.uleb128 0x24
 6840 01f1 34       		.uleb128 0x34
 6841 01f2 00       		.byte	0
 6842 01f3 03       		.uleb128 0x3
 6843 01f4 08       		.uleb128 0x8
 6844 01f5 3A       		.uleb128 0x3a
 6845 01f6 21       		.uleb128 0x21
 6846 01f7 01       		.sleb128 1
 6847 01f8 3B       		.uleb128 0x3b
 6848 01f9 05       		.uleb128 0x5
 6849 01fa 39       		.uleb128 0x39
 6850 01fb 0B       		.uleb128 0xb
 6851 01fc 49       		.uleb128 0x49
 6852 01fd 13       		.uleb128 0x13
 6853 01fe 02       		.uleb128 0x2
 6854 01ff 17       		.uleb128 0x17
 6855 0200 B742     		.uleb128 0x2137
 6856 0202 17       		.uleb128 0x17
 6857 0203 00       		.byte	0
 6858 0204 00       		.byte	0
 6859 0205 25       		.uleb128 0x25
 6860 0206 1D       		.uleb128 0x1d
 6861 0207 01       		.byte	0x1
 6862 0208 31       		.uleb128 0x31
 6863 0209 13       		.uleb128 0x13
 6864 020a 52       		.uleb128 0x52
 6865 020b 01       		.uleb128 0x1
 6866 020c B842     		.uleb128 0x2138
 6867 020e 0B       		.uleb128 0xb
 6868 020f 55       		.uleb128 0x55
 6869 0210 17       		.uleb128 0x17
 6870 0211 58       		.uleb128 0x58
 6871 0212 21       		.uleb128 0x21
 6872 0213 01       		.sleb128 1
 6873 0214 59       		.uleb128 0x59
 6874 0215 0B       		.uleb128 0xb
 6875 0216 57       		.uleb128 0x57
 6876 0217 0B       		.uleb128 0xb
 6877 0218 01       		.uleb128 0x1
 6878 0219 13       		.uleb128 0x13
 6879 021a 00       		.byte	0
 6880 021b 00       		.byte	0
 6881 021c 26       		.uleb128 0x26
 6882 021d 0D       		.uleb128 0xd
GAS LISTING /tmp/ccwdkvlB.s 			page 128


 6883 021e 00       		.byte	0
 6884 021f 03       		.uleb128 0x3
 6885 0220 08       		.uleb128 0x8
 6886 0221 3A       		.uleb128 0x3a
 6887 0222 21       		.uleb128 0x21
 6888 0223 09       		.sleb128 9
 6889 0224 3B       		.uleb128 0x3b
 6890 0225 05       		.uleb128 0x5
 6891 0226 39       		.uleb128 0x39
 6892 0227 21       		.uleb128 0x21
 6893 0228 21       		.sleb128 33
 6894 0229 49       		.uleb128 0x49
 6895 022a 13       		.uleb128 0x13
 6896 022b 38       		.uleb128 0x38
 6897 022c 0B       		.uleb128 0xb
 6898 022d 00       		.byte	0
 6899 022e 00       		.byte	0
 6900 022f 27       		.uleb128 0x27
 6901 0230 2E       		.uleb128 0x2e
 6902 0231 01       		.byte	0x1
 6903 0232 03       		.uleb128 0x3
 6904 0233 0E       		.uleb128 0xe
 6905 0234 3A       		.uleb128 0x3a
 6906 0235 21       		.uleb128 0x21
 6907 0236 01       		.sleb128 1
 6908 0237 3B       		.uleb128 0x3b
 6909 0238 0B       		.uleb128 0xb
 6910 0239 39       		.uleb128 0x39
 6911 023a 21       		.uleb128 0x21
 6912 023b 0D       		.sleb128 13
 6913 023c 27       		.uleb128 0x27
 6914 023d 19       		.uleb128 0x19
 6915 023e 20       		.uleb128 0x20
 6916 023f 21       		.uleb128 0x21
 6917 0240 01       		.sleb128 1
 6918 0241 01       		.uleb128 0x1
 6919 0242 13       		.uleb128 0x13
 6920 0243 00       		.byte	0
 6921 0244 00       		.byte	0
 6922 0245 28       		.uleb128 0x28
 6923 0246 34       		.uleb128 0x34
 6924 0247 00       		.byte	0
 6925 0248 03       		.uleb128 0x3
 6926 0249 08       		.uleb128 0x8
 6927 024a 3A       		.uleb128 0x3a
 6928 024b 21       		.uleb128 0x21
 6929 024c 01       		.sleb128 1
 6930 024d 3B       		.uleb128 0x3b
 6931 024e 0B       		.uleb128 0xb
 6932 024f 39       		.uleb128 0x39
 6933 0250 0B       		.uleb128 0xb
 6934 0251 49       		.uleb128 0x49
 6935 0252 13       		.uleb128 0x13
 6936 0253 00       		.byte	0
 6937 0254 00       		.byte	0
 6938 0255 29       		.uleb128 0x29
 6939 0256 2E       		.uleb128 0x2e
GAS LISTING /tmp/ccwdkvlB.s 			page 129


 6940 0257 01       		.byte	0x1
 6941 0258 03       		.uleb128 0x3
 6942 0259 0E       		.uleb128 0xe
 6943 025a 3A       		.uleb128 0x3a
 6944 025b 21       		.uleb128 0x21
 6945 025c 01       		.sleb128 1
 6946 025d 3B       		.uleb128 0x3b
 6947 025e 0B       		.uleb128 0xb
 6948 025f 39       		.uleb128 0x39
 6949 0260 21       		.uleb128 0x21
 6950 0261 0D       		.sleb128 13
 6951 0262 27       		.uleb128 0x27
 6952 0263 19       		.uleb128 0x19
 6953 0264 11       		.uleb128 0x11
 6954 0265 01       		.uleb128 0x1
 6955 0266 12       		.uleb128 0x12
 6956 0267 06       		.uleb128 0x6
 6957 0268 40       		.uleb128 0x40
 6958 0269 18       		.uleb128 0x18
 6959 026a 7A       		.uleb128 0x7a
 6960 026b 19       		.uleb128 0x19
 6961 026c 01       		.uleb128 0x1
 6962 026d 13       		.uleb128 0x13
 6963 026e 00       		.byte	0
 6964 026f 00       		.byte	0
 6965 0270 2A       		.uleb128 0x2a
 6966 0271 34       		.uleb128 0x34
 6967 0272 00       		.byte	0
 6968 0273 03       		.uleb128 0x3
 6969 0274 08       		.uleb128 0x8
 6970 0275 3A       		.uleb128 0x3a
 6971 0276 21       		.uleb128 0x21
 6972 0277 01       		.sleb128 1
 6973 0278 3B       		.uleb128 0x3b
 6974 0279 0B       		.uleb128 0xb
 6975 027a 39       		.uleb128 0x39
 6976 027b 0B       		.uleb128 0xb
 6977 027c 49       		.uleb128 0x49
 6978 027d 13       		.uleb128 0x13
 6979 027e 02       		.uleb128 0x2
 6980 027f 17       		.uleb128 0x17
 6981 0280 B742     		.uleb128 0x2137
 6982 0282 17       		.uleb128 0x17
 6983 0283 00       		.byte	0
 6984 0284 00       		.byte	0
 6985 0285 2B       		.uleb128 0x2b
 6986 0286 11       		.uleb128 0x11
 6987 0287 01       		.byte	0x1
 6988 0288 25       		.uleb128 0x25
 6989 0289 0E       		.uleb128 0xe
 6990 028a 13       		.uleb128 0x13
 6991 028b 0B       		.uleb128 0xb
 6992 028c 03       		.uleb128 0x3
 6993 028d 1F       		.uleb128 0x1f
 6994 028e 1B       		.uleb128 0x1b
 6995 028f 1F       		.uleb128 0x1f
 6996 0290 55       		.uleb128 0x55
GAS LISTING /tmp/ccwdkvlB.s 			page 130


 6997 0291 17       		.uleb128 0x17
 6998 0292 11       		.uleb128 0x11
 6999 0293 01       		.uleb128 0x1
 7000 0294 10       		.uleb128 0x10
 7001 0295 17       		.uleb128 0x17
 7002 0296 00       		.byte	0
 7003 0297 00       		.byte	0
 7004 0298 2C       		.uleb128 0x2c
 7005 0299 24       		.uleb128 0x24
 7006 029a 00       		.byte	0
 7007 029b 0B       		.uleb128 0xb
 7008 029c 0B       		.uleb128 0xb
 7009 029d 3E       		.uleb128 0x3e
 7010 029e 0B       		.uleb128 0xb
 7011 029f 03       		.uleb128 0x3
 7012 02a0 08       		.uleb128 0x8
 7013 02a1 00       		.byte	0
 7014 02a2 00       		.byte	0
 7015 02a3 2D       		.uleb128 0x2d
 7016 02a4 0F       		.uleb128 0xf
 7017 02a5 00       		.byte	0
 7018 02a6 0B       		.uleb128 0xb
 7019 02a7 0B       		.uleb128 0xb
 7020 02a8 00       		.byte	0
 7021 02a9 00       		.byte	0
 7022 02aa 2E       		.uleb128 0x2e
 7023 02ab 16       		.uleb128 0x16
 7024 02ac 00       		.byte	0
 7025 02ad 03       		.uleb128 0x3
 7026 02ae 0E       		.uleb128 0xe
 7027 02af 3A       		.uleb128 0x3a
 7028 02b0 0B       		.uleb128 0xb
 7029 02b1 3B       		.uleb128 0x3b
 7030 02b2 0B       		.uleb128 0xb
 7031 02b3 39       		.uleb128 0x39
 7032 02b4 0B       		.uleb128 0xb
 7033 02b5 49       		.uleb128 0x49
 7034 02b6 13       		.uleb128 0x13
 7035 02b7 8801     		.uleb128 0x88
 7036 02b9 0B       		.uleb128 0xb
 7037 02ba 00       		.byte	0
 7038 02bb 00       		.byte	0
 7039 02bc 2F       		.uleb128 0x2f
 7040 02bd 15       		.uleb128 0x15
 7041 02be 01       		.byte	0x1
 7042 02bf 27       		.uleb128 0x27
 7043 02c0 19       		.uleb128 0x19
 7044 02c1 01       		.uleb128 0x1
 7045 02c2 13       		.uleb128 0x13
 7046 02c3 00       		.byte	0
 7047 02c4 00       		.byte	0
 7048 02c5 30       		.uleb128 0x30
 7049 02c6 17       		.uleb128 0x17
 7050 02c7 01       		.byte	0x1
 7051 02c8 0B       		.uleb128 0xb
 7052 02c9 0B       		.uleb128 0xb
 7053 02ca 3A       		.uleb128 0x3a
GAS LISTING /tmp/ccwdkvlB.s 			page 131


 7054 02cb 0B       		.uleb128 0xb
 7055 02cc 3B       		.uleb128 0x3b
 7056 02cd 0B       		.uleb128 0xb
 7057 02ce 39       		.uleb128 0x39
 7058 02cf 0B       		.uleb128 0xb
 7059 02d0 01       		.uleb128 0x1
 7060 02d1 13       		.uleb128 0x13
 7061 02d2 00       		.byte	0
 7062 02d3 00       		.byte	0
 7063 02d4 31       		.uleb128 0x31
 7064 02d5 17       		.uleb128 0x17
 7065 02d6 01       		.byte	0x1
 7066 02d7 0B       		.uleb128 0xb
 7067 02d8 0B       		.uleb128 0xb
 7068 02d9 3A       		.uleb128 0x3a
 7069 02da 0B       		.uleb128 0xb
 7070 02db 3B       		.uleb128 0x3b
 7071 02dc 05       		.uleb128 0x5
 7072 02dd 39       		.uleb128 0x39
 7073 02de 0B       		.uleb128 0xb
 7074 02df 01       		.uleb128 0x1
 7075 02e0 13       		.uleb128 0x13
 7076 02e1 00       		.byte	0
 7077 02e2 00       		.byte	0
 7078 02e3 32       		.uleb128 0x32
 7079 02e4 15       		.uleb128 0x15
 7080 02e5 00       		.byte	0
 7081 02e6 27       		.uleb128 0x27
 7082 02e7 19       		.uleb128 0x19
 7083 02e8 00       		.byte	0
 7084 02e9 00       		.byte	0
 7085 02ea 33       		.uleb128 0x33
 7086 02eb 34       		.uleb128 0x34
 7087 02ec 00       		.byte	0
 7088 02ed 03       		.uleb128 0x3
 7089 02ee 0E       		.uleb128 0xe
 7090 02ef 3A       		.uleb128 0x3a
 7091 02f0 0B       		.uleb128 0xb
 7092 02f1 3B       		.uleb128 0x3b
 7093 02f2 05       		.uleb128 0x5
 7094 02f3 39       		.uleb128 0x39
 7095 02f4 0B       		.uleb128 0xb
 7096 02f5 49       		.uleb128 0x49
 7097 02f6 13       		.uleb128 0x13
 7098 02f7 3F       		.uleb128 0x3f
 7099 02f8 19       		.uleb128 0x19
 7100 02f9 3C       		.uleb128 0x3c
 7101 02fa 19       		.uleb128 0x19
 7102 02fb 00       		.byte	0
 7103 02fc 00       		.byte	0
 7104 02fd 34       		.uleb128 0x34
 7105 02fe 34       		.uleb128 0x34
 7106 02ff 00       		.byte	0
 7107 0300 03       		.uleb128 0x3
 7108 0301 0E       		.uleb128 0xe
 7109 0302 3A       		.uleb128 0x3a
 7110 0303 0B       		.uleb128 0xb
GAS LISTING /tmp/ccwdkvlB.s 			page 132


 7111 0304 3B       		.uleb128 0x3b
 7112 0305 0B       		.uleb128 0xb
 7113 0306 39       		.uleb128 0x39
 7114 0307 0B       		.uleb128 0xb
 7115 0308 49       		.uleb128 0x49
 7116 0309 13       		.uleb128 0x13
 7117 030a 3F       		.uleb128 0x3f
 7118 030b 19       		.uleb128 0x19
 7119 030c 3C       		.uleb128 0x3c
 7120 030d 19       		.uleb128 0x19
 7121 030e 00       		.byte	0
 7122 030f 00       		.byte	0
 7123 0310 35       		.uleb128 0x35
 7124 0311 34       		.uleb128 0x34
 7125 0312 00       		.byte	0
 7126 0313 03       		.uleb128 0x3
 7127 0314 0E       		.uleb128 0xe
 7128 0315 3A       		.uleb128 0x3a
 7129 0316 0B       		.uleb128 0xb
 7130 0317 3B       		.uleb128 0x3b
 7131 0318 05       		.uleb128 0x5
 7132 0319 39       		.uleb128 0x39
 7133 031a 0B       		.uleb128 0xb
 7134 031b 49       		.uleb128 0x49
 7135 031c 13       		.uleb128 0x13
 7136 031d 3F       		.uleb128 0x3f
 7137 031e 19       		.uleb128 0x19
 7138 031f 02       		.uleb128 0x2
 7139 0320 18       		.uleb128 0x18
 7140 0321 00       		.byte	0
 7141 0322 00       		.byte	0
 7142 0323 36       		.uleb128 0x36
 7143 0324 34       		.uleb128 0x34
 7144 0325 00       		.byte	0
 7145 0326 47       		.uleb128 0x47
 7146 0327 13       		.uleb128 0x13
 7147 0328 3A       		.uleb128 0x3a
 7148 0329 0B       		.uleb128 0xb
 7149 032a 3B       		.uleb128 0x3b
 7150 032b 05       		.uleb128 0x5
 7151 032c 39       		.uleb128 0x39
 7152 032d 0B       		.uleb128 0xb
 7153 032e 02       		.uleb128 0x2
 7154 032f 18       		.uleb128 0x18
 7155 0330 00       		.byte	0
 7156 0331 00       		.byte	0
 7157 0332 37       		.uleb128 0x37
 7158 0333 34       		.uleb128 0x34
 7159 0334 00       		.byte	0
 7160 0335 03       		.uleb128 0x3
 7161 0336 0E       		.uleb128 0xe
 7162 0337 3A       		.uleb128 0x3a
 7163 0338 0B       		.uleb128 0xb
 7164 0339 3B       		.uleb128 0x3b
 7165 033a 05       		.uleb128 0x5
 7166 033b 39       		.uleb128 0x39
 7167 033c 0B       		.uleb128 0xb
GAS LISTING /tmp/ccwdkvlB.s 			page 133


 7168 033d 49       		.uleb128 0x49
 7169 033e 13       		.uleb128 0x13
 7170 033f 02       		.uleb128 0x2
 7171 0340 17       		.uleb128 0x17
 7172 0341 B742     		.uleb128 0x2137
 7173 0343 17       		.uleb128 0x17
 7174 0344 00       		.byte	0
 7175 0345 00       		.byte	0
 7176 0346 38       		.uleb128 0x38
 7177 0347 2E       		.uleb128 0x2e
 7178 0348 01       		.byte	0x1
 7179 0349 03       		.uleb128 0x3
 7180 034a 0E       		.uleb128 0xe
 7181 034b 3A       		.uleb128 0x3a
 7182 034c 0B       		.uleb128 0xb
 7183 034d 3B       		.uleb128 0x3b
 7184 034e 05       		.uleb128 0x5
 7185 034f 39       		.uleb128 0x39
 7186 0350 0B       		.uleb128 0xb
 7187 0351 27       		.uleb128 0x27
 7188 0352 19       		.uleb128 0x19
 7189 0353 49       		.uleb128 0x49
 7190 0354 13       		.uleb128 0x13
 7191 0355 20       		.uleb128 0x20
 7192 0356 0B       		.uleb128 0xb
 7193 0357 01       		.uleb128 0x1
 7194 0358 13       		.uleb128 0x13
 7195 0359 00       		.byte	0
 7196 035a 00       		.byte	0
 7197 035b 39       		.uleb128 0x39
 7198 035c 05       		.uleb128 0x5
 7199 035d 00       		.byte	0
 7200 035e 03       		.uleb128 0x3
 7201 035f 08       		.uleb128 0x8
 7202 0360 3A       		.uleb128 0x3a
 7203 0361 0B       		.uleb128 0xb
 7204 0362 3B       		.uleb128 0x3b
 7205 0363 05       		.uleb128 0x5
 7206 0364 39       		.uleb128 0x39
 7207 0365 0B       		.uleb128 0xb
 7208 0366 49       		.uleb128 0x49
 7209 0367 13       		.uleb128 0x13
 7210 0368 00       		.byte	0
 7211 0369 00       		.byte	0
 7212 036a 3A       		.uleb128 0x3a
 7213 036b 2E       		.uleb128 0x2e
 7214 036c 01       		.byte	0x1
 7215 036d 31       		.uleb128 0x31
 7216 036e 13       		.uleb128 0x13
 7217 036f 11       		.uleb128 0x11
 7218 0370 01       		.uleb128 0x1
 7219 0371 12       		.uleb128 0x12
 7220 0372 06       		.uleb128 0x6
 7221 0373 40       		.uleb128 0x40
 7222 0374 18       		.uleb128 0x18
 7223 0375 7A       		.uleb128 0x7a
 7224 0376 19       		.uleb128 0x19
GAS LISTING /tmp/ccwdkvlB.s 			page 134


 7225 0377 00       		.byte	0
 7226 0378 00       		.byte	0
 7227 0379 00       		.byte	0
 7228              		.section	.debug_loclists,"",@progbits
 7229 0000 2C030000 		.long	.Ldebug_loc3-.Ldebug_loc2
 7230              	.Ldebug_loc2:
 7231 0004 0500     		.value	0x5
 7232 0006 04       		.byte	0x4
 7233 0007 00       		.byte	0
 7234 0008 00000000 		.long	0
 7235              	.Ldebug_loc0:
 7236              	.LVUS0:
 7237 000c 00       		.uleb128 .LVU5
 7238 000d 00       		.uleb128 .LVU9
 7239 000e 00       		.uleb128 .LVU9
 7240 000f 00       		.uleb128 .LVU11
 7241              	.LLST0:
 7242 0010 06       		.byte	0x6
 7243 0011 1C000000 		.long	.LVL0
 7244 0015 04       		.byte	0x4
 7245 0016 00       		.uleb128 .LVL0-.LVL0
 7246 0017 10       		.uleb128 .LVL1-.LVL0
 7247 0018 01       		.uleb128 0x1
 7248 0019 50       		.byte	0x50
 7249 001a 04       		.byte	0x4
 7250 001b 10       		.uleb128 .LVL1-.LVL0
 7251 001c 27       		.uleb128 .LVL3-.LVL0
 7252 001d 01       		.uleb128 0x1
 7253 001e 56       		.byte	0x56
 7254 001f 00       		.byte	0
 7255              	.LVUS1:
 7256 0020 00       		.uleb128 .LVU17
 7257 0021 00       		.uleb128 .LVU21
 7258 0022 00       		.uleb128 .LVU21
 7259 0023 00       		.uleb128 .LVU23
 7260              	.LLST1:
 7261 0024 06       		.byte	0x6
 7262 0025 1C000000 		.long	.LVL4
 7263 0029 04       		.byte	0x4
 7264 002a 00       		.uleb128 .LVL4-.LVL4
 7265 002b 10       		.uleb128 .LVL5-.LVL4
 7266 002c 01       		.uleb128 0x1
 7267 002d 50       		.byte	0x50
 7268 002e 04       		.byte	0x4
 7269 002f 10       		.uleb128 .LVL5-.LVL4
 7270 0030 27       		.uleb128 .LVL7-.LVL4
 7271 0031 01       		.uleb128 0x1
 7272 0032 56       		.byte	0x56
 7273 0033 00       		.byte	0
 7274              	.LVUS2:
 7275 0034 00       		.uleb128 .LVU29
 7276 0035 00       		.uleb128 .LVU33
 7277 0036 00       		.uleb128 .LVU33
 7278 0037 00       		.uleb128 .LVU35
 7279              	.LLST2:
 7280 0038 06       		.byte	0x6
 7281 0039 1C000000 		.long	.LVL8
GAS LISTING /tmp/ccwdkvlB.s 			page 135


 7282 003d 04       		.byte	0x4
 7283 003e 00       		.uleb128 .LVL8-.LVL8
 7284 003f 10       		.uleb128 .LVL9-.LVL8
 7285 0040 01       		.uleb128 0x1
 7286 0041 50       		.byte	0x50
 7287 0042 04       		.byte	0x4
 7288 0043 10       		.uleb128 .LVL9-.LVL8
 7289 0044 27       		.uleb128 .LVL11-.LVL8
 7290 0045 01       		.uleb128 0x1
 7291 0046 56       		.byte	0x56
 7292 0047 00       		.byte	0
 7293              	.LVUS3:
 7294 0048 00       		.uleb128 .LVU41
 7295 0049 00       		.uleb128 .LVU45
 7296 004a 00       		.uleb128 .LVU45
 7297 004b 00       		.uleb128 .LVU47
 7298              	.LLST3:
 7299 004c 06       		.byte	0x6
 7300 004d 1C000000 		.long	.LVL12
 7301 0051 04       		.byte	0x4
 7302 0052 00       		.uleb128 .LVL12-.LVL12
 7303 0053 10       		.uleb128 .LVL13-.LVL12
 7304 0054 01       		.uleb128 0x1
 7305 0055 50       		.byte	0x50
 7306 0056 04       		.byte	0x4
 7307 0057 10       		.uleb128 .LVL13-.LVL12
 7308 0058 27       		.uleb128 .LVL15-.LVL12
 7309 0059 01       		.uleb128 0x1
 7310 005a 56       		.byte	0x56
 7311 005b 00       		.byte	0
 7312              	.LVUS4:
 7313 005c 00       		.uleb128 .LVU53
 7314 005d 00       		.uleb128 .LVU57
 7315 005e 00       		.uleb128 .LVU57
 7316 005f 00       		.uleb128 .LVU59
 7317              	.LLST4:
 7318 0060 06       		.byte	0x6
 7319 0061 1C000000 		.long	.LVL16
 7320 0065 04       		.byte	0x4
 7321 0066 00       		.uleb128 .LVL16-.LVL16
 7322 0067 10       		.uleb128 .LVL17-.LVL16
 7323 0068 01       		.uleb128 0x1
 7324 0069 50       		.byte	0x50
 7325 006a 04       		.byte	0x4
 7326 006b 10       		.uleb128 .LVL17-.LVL16
 7327 006c 27       		.uleb128 .LVL19-.LVL16
 7328 006d 01       		.uleb128 0x1
 7329 006e 56       		.byte	0x56
 7330 006f 00       		.byte	0
 7331              	.LVUS5:
 7332 0070 00       		.uleb128 .LVU65
 7333 0071 00       		.uleb128 .LVU69
 7334 0072 00       		.uleb128 .LVU69
 7335 0073 00       		.uleb128 .LVU71
 7336              	.LLST5:
 7337 0074 06       		.byte	0x6
 7338 0075 1C000000 		.long	.LVL20
GAS LISTING /tmp/ccwdkvlB.s 			page 136


 7339 0079 04       		.byte	0x4
 7340 007a 00       		.uleb128 .LVL20-.LVL20
 7341 007b 10       		.uleb128 .LVL21-.LVL20
 7342 007c 01       		.uleb128 0x1
 7343 007d 50       		.byte	0x50
 7344 007e 04       		.byte	0x4
 7345 007f 10       		.uleb128 .LVL21-.LVL20
 7346 0080 27       		.uleb128 .LVL23-.LVL20
 7347 0081 01       		.uleb128 0x1
 7348 0082 56       		.byte	0x56
 7349 0083 00       		.byte	0
 7350              	.LVUS6:
 7351 0084 00       		.uleb128 .LVU82
 7352 0085 00       		.uleb128 .LVU83
 7353              	.LLST6:
 7354 0086 08       		.byte	0x8
 7355 0087 2A000000 		.long	.LVL24
 7356 008b 0E       		.uleb128 .LVL25-.LVL24
 7357 008c 01       		.uleb128 0x1
 7358 008d 50       		.byte	0x50
 7359 008e 00       		.byte	0
 7360              	.LVUS8:
 7361 008f 00       		.uleb128 .LVU94
 7362 0090 00       		.uleb128 .LVU95
 7363 0091 00       		.uleb128 .LVU95
 7364 0092 00       		.uleb128 .LVU96
 7365 0093 00       		.uleb128 .LVU96
 7366 0094 00       		.uleb128 .LVU156
 7367 0095 00       		.uleb128 .LVU156
 7368 0096 00       		.uleb128 .LVU157
 7369              	.LLST8:
 7370 0097 06       		.byte	0x6
 7371 0098 63000000 		.long	.LVL28
 7372 009c 04       		.byte	0x4
 7373 009d 00       		.uleb128 .LVL28-.LVL28
 7374 009e 01       		.uleb128 .LVL29-.LVL28
 7375 009f 01       		.uleb128 0x1
 7376 00a0 50       		.byte	0x50
 7377 00a1 04       		.byte	0x4
 7378 00a2 01       		.uleb128 .LVL29-.LVL28
 7379 00a3 1A       		.uleb128 .LVL30-1-.LVL28
 7380 00a4 01       		.uleb128 0x1
 7381 00a5 51       		.byte	0x51
 7382 00a6 04       		.byte	0x4
 7383 00a7 1A       		.uleb128 .LVL30-1-.LVL28
 7384 00a8 A603     		.uleb128 .LVL49-.LVL28
 7385 00aa 02       		.uleb128 0x2
 7386 00ab 91       		.byte	0x91
 7387 00ac 54       		.sleb128 -44
 7388 00ad 04       		.byte	0x4
 7389 00ae A603     		.uleb128 .LVL49-.LVL28
 7390 00b0 AE03     		.uleb128 .LVL50-.LVL28
 7391 00b2 01       		.uleb128 0x1
 7392 00b3 50       		.byte	0x50
 7393 00b4 00       		.byte	0
 7394              	.LVUS10:
 7395 00b5 00       		.uleb128 .LVU106
GAS LISTING /tmp/ccwdkvlB.s 			page 137


 7396 00b6 00       		.uleb128 .LVU107
 7397              	.LLST10:
 7398 00b7 08       		.byte	0x8
 7399 00b8 96000000 		.long	.LVL31
 7400 00bc 0E       		.uleb128 .LVL32-.LVL31
 7401 00bd 01       		.uleb128 0x1
 7402 00be 50       		.byte	0x50
 7403 00bf 00       		.byte	0
 7404              	.LVUS12:
 7405 00c0 00       		.uleb128 .LVU117
 7406 00c1 00       		.uleb128 .LVU118
 7407 00c2 00       		.uleb128 .LVU118
 7408 00c3 00       		.uleb128 .LVU119
 7409 00c4 00       		.uleb128 .LVU119
 7410 00c5 00       		.uleb128 .LVU158
 7411              	.LLST12:
 7412 00c6 06       		.byte	0x6
 7413 00c7 C5000000 		.long	.LVL35
 7414 00cb 04       		.byte	0x4
 7415 00cc 00       		.uleb128 .LVL35-.LVL35
 7416 00cd 01       		.uleb128 .LVL36-.LVL35
 7417 00ce 01       		.uleb128 0x1
 7418 00cf 50       		.byte	0x50
 7419 00d0 04       		.byte	0x4
 7420 00d1 01       		.uleb128 .LVL36-.LVL35
 7421 00d2 19       		.uleb128 .LVL37-1-.LVL35
 7422 00d3 01       		.uleb128 0x1
 7423 00d4 52       		.byte	0x52
 7424 00d5 04       		.byte	0x4
 7425 00d6 19       		.uleb128 .LVL37-1-.LVL35
 7426 00d7 D802     		.uleb128 .LVL52-.LVL35
 7427 00d9 02       		.uleb128 0x2
 7428 00da 91       		.byte	0x91
 7429 00db 58       		.sleb128 -40
 7430 00dc 00       		.byte	0
 7431              	.LVUS13:
 7432 00dd 01       		.uleb128 .LVU132
 7433 00de 00       		.uleb128 .LVU158
 7434              	.LLST13:
 7435 00df 08       		.byte	0x8
 7436 00e0 46010000 		.long	.LVL41
 7437 00e4 D701     		.uleb128 .LVL52-.LVL41
 7438 00e6 02       		.uleb128 0x2
 7439 00e7 91       		.byte	0x91
 7440 00e8 58       		.sleb128 -40
 7441 00e9 00       		.byte	0
 7442              	.LVUS15:
 7443 00ea 02       		.uleb128 .LVU126
 7444 00eb 01       		.uleb128 .LVU132
 7445              	.LLST15:
 7446 00ec 08       		.byte	0x8
 7447 00ed 3B010000 		.long	.LVL40
 7448 00f1 0B       		.uleb128 .LVL41-.LVL40
 7449 00f2 02       		.uleb128 0x2
 7450 00f3 91       		.byte	0x91
 7451 00f4 58       		.sleb128 -40
 7452 00f5 00       		.byte	0
GAS LISTING /tmp/ccwdkvlB.s 			page 138


 7453              	.LVUS16:
 7454 00f6 00       		.uleb128 .LVU172
 7455 00f7 00       		.uleb128 .LVU173
 7456              	.LLST16:
 7457 00f8 08       		.byte	0x8
 7458 00f9 2A000000 		.long	.LVL53
 7459 00fd 0E       		.uleb128 .LVL54-.LVL53
 7460 00fe 01       		.uleb128 0x1
 7461 00ff 50       		.byte	0x50
 7462 0100 00       		.byte	0
 7463              	.LVUS18:
 7464 0101 00       		.uleb128 .LVU184
 7465 0102 00       		.uleb128 .LVU185
 7466 0103 00       		.uleb128 .LVU185
 7467 0104 00       		.uleb128 .LVU186
 7468 0105 00       		.uleb128 .LVU186
 7469 0106 00       		.uleb128 .LVU246
 7470 0107 00       		.uleb128 .LVU246
 7471 0108 00       		.uleb128 .LVU247
 7472              	.LLST18:
 7473 0109 06       		.byte	0x6
 7474 010a 64000000 		.long	.LVL57
 7475 010e 04       		.byte	0x4
 7476 010f 00       		.uleb128 .LVL57-.LVL57
 7477 0110 01       		.uleb128 .LVL58-.LVL57
 7478 0111 01       		.uleb128 0x1
 7479 0112 50       		.byte	0x50
 7480 0113 04       		.byte	0x4
 7481 0114 01       		.uleb128 .LVL58-.LVL57
 7482 0115 1A       		.uleb128 .LVL59-1-.LVL57
 7483 0116 01       		.uleb128 0x1
 7484 0117 51       		.byte	0x51
 7485 0118 04       		.byte	0x4
 7486 0119 1A       		.uleb128 .LVL59-1-.LVL57
 7487 011a A703     		.uleb128 .LVL78-.LVL57
 7488 011c 02       		.uleb128 0x2
 7489 011d 91       		.byte	0x91
 7490 011e 54       		.sleb128 -44
 7491 011f 04       		.byte	0x4
 7492 0120 A703     		.uleb128 .LVL78-.LVL57
 7493 0122 AF03     		.uleb128 .LVL79-.LVL57
 7494 0124 01       		.uleb128 0x1
 7495 0125 50       		.byte	0x50
 7496 0126 00       		.byte	0
 7497              	.LVUS20:
 7498 0127 00       		.uleb128 .LVU196
 7499 0128 00       		.uleb128 .LVU197
 7500              	.LLST20:
 7501 0129 08       		.byte	0x8
 7502 012a 98000000 		.long	.LVL60
 7503 012e 0E       		.uleb128 .LVL61-.LVL60
 7504 012f 01       		.uleb128 0x1
 7505 0130 50       		.byte	0x50
 7506 0131 00       		.byte	0
 7507              	.LVUS22:
 7508 0132 00       		.uleb128 .LVU207
 7509 0133 00       		.uleb128 .LVU208
GAS LISTING /tmp/ccwdkvlB.s 			page 139


 7510 0134 00       		.uleb128 .LVU208
 7511 0135 00       		.uleb128 .LVU209
 7512 0136 00       		.uleb128 .LVU209
 7513 0137 00       		.uleb128 .LVU248
 7514              	.LLST22:
 7515 0138 06       		.byte	0x6
 7516 0139 C7000000 		.long	.LVL64
 7517 013d 04       		.byte	0x4
 7518 013e 00       		.uleb128 .LVL64-.LVL64
 7519 013f 01       		.uleb128 .LVL65-.LVL64
 7520 0140 01       		.uleb128 0x1
 7521 0141 50       		.byte	0x50
 7522 0142 04       		.byte	0x4
 7523 0143 01       		.uleb128 .LVL65-.LVL64
 7524 0144 19       		.uleb128 .LVL66-1-.LVL64
 7525 0145 01       		.uleb128 0x1
 7526 0146 52       		.byte	0x52
 7527 0147 04       		.byte	0x4
 7528 0148 19       		.uleb128 .LVL66-1-.LVL64
 7529 0149 D802     		.uleb128 .LVL81-.LVL64
 7530 014b 02       		.uleb128 0x2
 7531 014c 91       		.byte	0x91
 7532 014d 58       		.sleb128 -40
 7533 014e 00       		.byte	0
 7534              	.LVUS23:
 7535 014f 01       		.uleb128 .LVU222
 7536 0150 00       		.uleb128 .LVU248
 7537              	.LLST23:
 7538 0151 08       		.byte	0x8
 7539 0152 48010000 		.long	.LVL70
 7540 0156 D701     		.uleb128 .LVL81-.LVL70
 7541 0158 02       		.uleb128 0x2
 7542 0159 91       		.byte	0x91
 7543 015a 58       		.sleb128 -40
 7544 015b 00       		.byte	0
 7545              	.LVUS25:
 7546 015c 02       		.uleb128 .LVU216
 7547 015d 01       		.uleb128 .LVU222
 7548              	.LLST25:
 7549 015e 08       		.byte	0x8
 7550 015f 3D010000 		.long	.LVL69
 7551 0163 0B       		.uleb128 .LVL70-.LVL69
 7552 0164 02       		.uleb128 0x2
 7553 0165 91       		.byte	0x91
 7554 0166 58       		.sleb128 -40
 7555 0167 00       		.byte	0
 7556              	.LVUS26:
 7557 0168 00       		.uleb128 .LVU262
 7558 0169 00       		.uleb128 .LVU263
 7559              	.LLST26:
 7560 016a 08       		.byte	0x8
 7561 016b 2A000000 		.long	.LVL82
 7562 016f 0E       		.uleb128 .LVL83-.LVL82
 7563 0170 01       		.uleb128 0x1
 7564 0171 50       		.byte	0x50
 7565 0172 00       		.byte	0
 7566              	.LVUS28:
GAS LISTING /tmp/ccwdkvlB.s 			page 140


 7567 0173 00       		.uleb128 .LVU274
 7568 0174 00       		.uleb128 .LVU275
 7569 0175 00       		.uleb128 .LVU275
 7570 0176 00       		.uleb128 .LVU276
 7571 0177 00       		.uleb128 .LVU276
 7572 0178 00       		.uleb128 .LVU336
 7573 0179 00       		.uleb128 .LVU336
 7574 017a 00       		.uleb128 .LVU337
 7575              	.LLST28:
 7576 017b 06       		.byte	0x6
 7577 017c 63000000 		.long	.LVL86
 7578 0180 04       		.byte	0x4
 7579 0181 00       		.uleb128 .LVL86-.LVL86
 7580 0182 01       		.uleb128 .LVL87-.LVL86
 7581 0183 01       		.uleb128 0x1
 7582 0184 50       		.byte	0x50
 7583 0185 04       		.byte	0x4
 7584 0186 01       		.uleb128 .LVL87-.LVL86
 7585 0187 1A       		.uleb128 .LVL88-1-.LVL86
 7586 0188 01       		.uleb128 0x1
 7587 0189 51       		.byte	0x51
 7588 018a 04       		.byte	0x4
 7589 018b 1A       		.uleb128 .LVL88-1-.LVL86
 7590 018c A603     		.uleb128 .LVL107-.LVL86
 7591 018e 02       		.uleb128 0x2
 7592 018f 91       		.byte	0x91
 7593 0190 54       		.sleb128 -44
 7594 0191 04       		.byte	0x4
 7595 0192 A603     		.uleb128 .LVL107-.LVL86
 7596 0194 AE03     		.uleb128 .LVL108-.LVL86
 7597 0196 01       		.uleb128 0x1
 7598 0197 50       		.byte	0x50
 7599 0198 00       		.byte	0
 7600              	.LVUS30:
 7601 0199 00       		.uleb128 .LVU286
 7602 019a 00       		.uleb128 .LVU287
 7603              	.LLST30:
 7604 019b 08       		.byte	0x8
 7605 019c 96000000 		.long	.LVL89
 7606 01a0 0E       		.uleb128 .LVL90-.LVL89
 7607 01a1 01       		.uleb128 0x1
 7608 01a2 50       		.byte	0x50
 7609 01a3 00       		.byte	0
 7610              	.LVUS32:
 7611 01a4 00       		.uleb128 .LVU297
 7612 01a5 00       		.uleb128 .LVU298
 7613 01a6 00       		.uleb128 .LVU298
 7614 01a7 00       		.uleb128 .LVU299
 7615 01a8 00       		.uleb128 .LVU299
 7616 01a9 00       		.uleb128 .LVU338
 7617              	.LLST32:
 7618 01aa 06       		.byte	0x6
 7619 01ab C5000000 		.long	.LVL93
 7620 01af 04       		.byte	0x4
 7621 01b0 00       		.uleb128 .LVL93-.LVL93
 7622 01b1 01       		.uleb128 .LVL94-.LVL93
 7623 01b2 01       		.uleb128 0x1
GAS LISTING /tmp/ccwdkvlB.s 			page 141


 7624 01b3 50       		.byte	0x50
 7625 01b4 04       		.byte	0x4
 7626 01b5 01       		.uleb128 .LVL94-.LVL93
 7627 01b6 19       		.uleb128 .LVL95-1-.LVL93
 7628 01b7 01       		.uleb128 0x1
 7629 01b8 52       		.byte	0x52
 7630 01b9 04       		.byte	0x4
 7631 01ba 19       		.uleb128 .LVL95-1-.LVL93
 7632 01bb D802     		.uleb128 .LVL110-.LVL93
 7633 01bd 02       		.uleb128 0x2
 7634 01be 91       		.byte	0x91
 7635 01bf 58       		.sleb128 -40
 7636 01c0 00       		.byte	0
 7637              	.LVUS33:
 7638 01c1 01       		.uleb128 .LVU312
 7639 01c2 00       		.uleb128 .LVU338
 7640              	.LLST33:
 7641 01c3 08       		.byte	0x8
 7642 01c4 46010000 		.long	.LVL99
 7643 01c8 D701     		.uleb128 .LVL110-.LVL99
 7644 01ca 02       		.uleb128 0x2
 7645 01cb 91       		.byte	0x91
 7646 01cc 58       		.sleb128 -40
 7647 01cd 00       		.byte	0
 7648              	.LVUS35:
 7649 01ce 02       		.uleb128 .LVU306
 7650 01cf 01       		.uleb128 .LVU312
 7651              	.LLST35:
 7652 01d0 08       		.byte	0x8
 7653 01d1 3B010000 		.long	.LVL98
 7654 01d5 0B       		.uleb128 .LVL99-.LVL98
 7655 01d6 02       		.uleb128 0x2
 7656 01d7 91       		.byte	0x91
 7657 01d8 58       		.sleb128 -40
 7658 01d9 00       		.byte	0
 7659              	.LVUS36:
 7660 01da 00       		.uleb128 .LVU352
 7661 01db 00       		.uleb128 .LVU353
 7662              	.LLST36:
 7663 01dc 08       		.byte	0x8
 7664 01dd 2A000000 		.long	.LVL111
 7665 01e1 0E       		.uleb128 .LVL112-.LVL111
 7666 01e2 01       		.uleb128 0x1
 7667 01e3 50       		.byte	0x50
 7668 01e4 00       		.byte	0
 7669              	.LVUS38:
 7670 01e5 00       		.uleb128 .LVU364
 7671 01e6 00       		.uleb128 .LVU365
 7672 01e7 00       		.uleb128 .LVU365
 7673 01e8 00       		.uleb128 .LVU366
 7674 01e9 00       		.uleb128 .LVU366
 7675 01ea 00       		.uleb128 .LVU426
 7676 01eb 00       		.uleb128 .LVU426
 7677 01ec 00       		.uleb128 .LVU427
 7678              	.LLST38:
 7679 01ed 06       		.byte	0x6
 7680 01ee 63000000 		.long	.LVL115
GAS LISTING /tmp/ccwdkvlB.s 			page 142


 7681 01f2 04       		.byte	0x4
 7682 01f3 00       		.uleb128 .LVL115-.LVL115
 7683 01f4 01       		.uleb128 .LVL116-.LVL115
 7684 01f5 01       		.uleb128 0x1
 7685 01f6 50       		.byte	0x50
 7686 01f7 04       		.byte	0x4
 7687 01f8 01       		.uleb128 .LVL116-.LVL115
 7688 01f9 1A       		.uleb128 .LVL117-1-.LVL115
 7689 01fa 01       		.uleb128 0x1
 7690 01fb 51       		.byte	0x51
 7691 01fc 04       		.byte	0x4
 7692 01fd 1A       		.uleb128 .LVL117-1-.LVL115
 7693 01fe A603     		.uleb128 .LVL136-.LVL115
 7694 0200 02       		.uleb128 0x2
 7695 0201 91       		.byte	0x91
 7696 0202 54       		.sleb128 -44
 7697 0203 04       		.byte	0x4
 7698 0204 A603     		.uleb128 .LVL136-.LVL115
 7699 0206 AE03     		.uleb128 .LVL137-.LVL115
 7700 0208 01       		.uleb128 0x1
 7701 0209 50       		.byte	0x50
 7702 020a 00       		.byte	0
 7703              	.LVUS40:
 7704 020b 00       		.uleb128 .LVU376
 7705 020c 00       		.uleb128 .LVU377
 7706              	.LLST40:
 7707 020d 08       		.byte	0x8
 7708 020e 96000000 		.long	.LVL118
 7709 0212 0E       		.uleb128 .LVL119-.LVL118
 7710 0213 01       		.uleb128 0x1
 7711 0214 50       		.byte	0x50
 7712 0215 00       		.byte	0
 7713              	.LVUS42:
 7714 0216 00       		.uleb128 .LVU387
 7715 0217 00       		.uleb128 .LVU388
 7716 0218 00       		.uleb128 .LVU388
 7717 0219 00       		.uleb128 .LVU389
 7718 021a 00       		.uleb128 .LVU389
 7719 021b 00       		.uleb128 .LVU428
 7720              	.LLST42:
 7721 021c 06       		.byte	0x6
 7722 021d C5000000 		.long	.LVL122
 7723 0221 04       		.byte	0x4
 7724 0222 00       		.uleb128 .LVL122-.LVL122
 7725 0223 01       		.uleb128 .LVL123-.LVL122
 7726 0224 01       		.uleb128 0x1
 7727 0225 50       		.byte	0x50
 7728 0226 04       		.byte	0x4
 7729 0227 01       		.uleb128 .LVL123-.LVL122
 7730 0228 19       		.uleb128 .LVL124-1-.LVL122
 7731 0229 01       		.uleb128 0x1
 7732 022a 52       		.byte	0x52
 7733 022b 04       		.byte	0x4
 7734 022c 19       		.uleb128 .LVL124-1-.LVL122
 7735 022d D802     		.uleb128 .LVL139-.LVL122
 7736 022f 02       		.uleb128 0x2
 7737 0230 91       		.byte	0x91
GAS LISTING /tmp/ccwdkvlB.s 			page 143


 7738 0231 58       		.sleb128 -40
 7739 0232 00       		.byte	0
 7740              	.LVUS43:
 7741 0233 01       		.uleb128 .LVU402
 7742 0234 00       		.uleb128 .LVU428
 7743              	.LLST43:
 7744 0235 08       		.byte	0x8
 7745 0236 46010000 		.long	.LVL128
 7746 023a D701     		.uleb128 .LVL139-.LVL128
 7747 023c 02       		.uleb128 0x2
 7748 023d 91       		.byte	0x91
 7749 023e 58       		.sleb128 -40
 7750 023f 00       		.byte	0
 7751              	.LVUS45:
 7752 0240 02       		.uleb128 .LVU396
 7753 0241 01       		.uleb128 .LVU402
 7754              	.LLST45:
 7755 0242 08       		.byte	0x8
 7756 0243 3B010000 		.long	.LVL127
 7757 0247 0B       		.uleb128 .LVL128-.LVL127
 7758 0248 02       		.uleb128 0x2
 7759 0249 91       		.byte	0x91
 7760 024a 58       		.sleb128 -40
 7761 024b 00       		.byte	0
 7762              	.LVUS46:
 7763 024c 00       		.uleb128 .LVU442
 7764 024d 00       		.uleb128 .LVU443
 7765              	.LLST46:
 7766 024e 08       		.byte	0x8
 7767 024f 2A000000 		.long	.LVL140
 7768 0253 0E       		.uleb128 .LVL141-.LVL140
 7769 0254 01       		.uleb128 0x1
 7770 0255 50       		.byte	0x50
 7771 0256 00       		.byte	0
 7772              	.LVUS48:
 7773 0257 00       		.uleb128 .LVU454
 7774 0258 00       		.uleb128 .LVU455
 7775 0259 00       		.uleb128 .LVU455
 7776 025a 00       		.uleb128 .LVU456
 7777 025b 00       		.uleb128 .LVU456
 7778 025c 00       		.uleb128 .LVU516
 7779 025d 00       		.uleb128 .LVU516
 7780 025e 00       		.uleb128 .LVU517
 7781              	.LLST48:
 7782 025f 06       		.byte	0x6
 7783 0260 66000000 		.long	.LVL144
 7784 0264 04       		.byte	0x4
 7785 0265 00       		.uleb128 .LVL144-.LVL144
 7786 0266 01       		.uleb128 .LVL145-.LVL144
 7787 0267 01       		.uleb128 0x1
 7788 0268 50       		.byte	0x50
 7789 0269 04       		.byte	0x4
 7790 026a 01       		.uleb128 .LVL145-.LVL144
 7791 026b 1A       		.uleb128 .LVL146-1-.LVL144
 7792 026c 01       		.uleb128 0x1
 7793 026d 51       		.byte	0x51
 7794 026e 04       		.byte	0x4
GAS LISTING /tmp/ccwdkvlB.s 			page 144


 7795 026f 1A       		.uleb128 .LVL146-1-.LVL144
 7796 0270 A903     		.uleb128 .LVL165-.LVL144
 7797 0272 02       		.uleb128 0x2
 7798 0273 91       		.byte	0x91
 7799 0274 54       		.sleb128 -44
 7800 0275 04       		.byte	0x4
 7801 0276 A903     		.uleb128 .LVL165-.LVL144
 7802 0278 B103     		.uleb128 .LVL166-.LVL144
 7803 027a 01       		.uleb128 0x1
 7804 027b 50       		.byte	0x50
 7805 027c 00       		.byte	0
 7806              	.LVUS50:
 7807 027d 00       		.uleb128 .LVU466
 7808 027e 00       		.uleb128 .LVU467
 7809              	.LLST50:
 7810 027f 08       		.byte	0x8
 7811 0280 9C000000 		.long	.LVL147
 7812 0284 0E       		.uleb128 .LVL148-.LVL147
 7813 0285 01       		.uleb128 0x1
 7814 0286 50       		.byte	0x50
 7815 0287 00       		.byte	0
 7816              	.LVUS52:
 7817 0288 00       		.uleb128 .LVU477
 7818 0289 00       		.uleb128 .LVU478
 7819 028a 00       		.uleb128 .LVU478
 7820 028b 00       		.uleb128 .LVU479
 7821 028c 00       		.uleb128 .LVU479
 7822 028d 00       		.uleb128 .LVU518
 7823              	.LLST52:
 7824 028e 06       		.byte	0x6
 7825 028f CB000000 		.long	.LVL151
 7826 0293 04       		.byte	0x4
 7827 0294 00       		.uleb128 .LVL151-.LVL151
 7828 0295 01       		.uleb128 .LVL152-.LVL151
 7829 0296 01       		.uleb128 0x1
 7830 0297 50       		.byte	0x50
 7831 0298 04       		.byte	0x4
 7832 0299 01       		.uleb128 .LVL152-.LVL151
 7833 029a 19       		.uleb128 .LVL153-1-.LVL151
 7834 029b 01       		.uleb128 0x1
 7835 029c 52       		.byte	0x52
 7836 029d 04       		.byte	0x4
 7837 029e 19       		.uleb128 .LVL153-1-.LVL151
 7838 029f D802     		.uleb128 .LVL168-.LVL151
 7839 02a1 02       		.uleb128 0x2
 7840 02a2 91       		.byte	0x91
 7841 02a3 58       		.sleb128 -40
 7842 02a4 00       		.byte	0
 7843              	.LVUS53:
 7844 02a5 01       		.uleb128 .LVU492
 7845 02a6 00       		.uleb128 .LVU518
 7846              	.LLST53:
 7847 02a7 08       		.byte	0x8
 7848 02a8 4C010000 		.long	.LVL157
 7849 02ac D701     		.uleb128 .LVL168-.LVL157
 7850 02ae 02       		.uleb128 0x2
 7851 02af 91       		.byte	0x91
GAS LISTING /tmp/ccwdkvlB.s 			page 145


 7852 02b0 58       		.sleb128 -40
 7853 02b1 00       		.byte	0
 7854              	.LVUS55:
 7855 02b2 02       		.uleb128 .LVU486
 7856 02b3 01       		.uleb128 .LVU492
 7857              	.LLST55:
 7858 02b4 08       		.byte	0x8
 7859 02b5 41010000 		.long	.LVL156
 7860 02b9 0B       		.uleb128 .LVL157-.LVL156
 7861 02ba 02       		.uleb128 0x2
 7862 02bb 91       		.byte	0x91
 7863 02bc 58       		.sleb128 -40
 7864 02bd 00       		.byte	0
 7865              	.LVUS56:
 7866 02be 00       		.uleb128 .LVU532
 7867 02bf 00       		.uleb128 .LVU533
 7868              	.LLST56:
 7869 02c0 08       		.byte	0x8
 7870 02c1 2A000000 		.long	.LVL169
 7871 02c5 0E       		.uleb128 .LVL170-.LVL169
 7872 02c6 01       		.uleb128 0x1
 7873 02c7 50       		.byte	0x50
 7874 02c8 00       		.byte	0
 7875              	.LVUS58:
 7876 02c9 00       		.uleb128 .LVU545
 7877 02ca 00       		.uleb128 .LVU546
 7878 02cb 00       		.uleb128 .LVU546
 7879 02cc 00       		.uleb128 .LVU547
 7880 02cd 00       		.uleb128 .LVU547
 7881 02ce 00       		.uleb128 .LVU612
 7882 02cf 00       		.uleb128 .LVU612
 7883 02d0 00       		.uleb128 .LVU613
 7884              	.LLST58:
 7885 02d1 06       		.byte	0x6
 7886 02d2 68000000 		.long	.LVL173
 7887 02d6 04       		.byte	0x4
 7888 02d7 00       		.uleb128 .LVL173-.LVL173
 7889 02d8 01       		.uleb128 .LVL174-.LVL173
 7890 02d9 01       		.uleb128 0x1
 7891 02da 50       		.byte	0x50
 7892 02db 04       		.byte	0x4
 7893 02dc 01       		.uleb128 .LVL174-.LVL173
 7894 02dd 1A       		.uleb128 .LVL175-1-.LVL173
 7895 02de 01       		.uleb128 0x1
 7896 02df 51       		.byte	0x51
 7897 02e0 04       		.byte	0x4
 7898 02e1 1A       		.uleb128 .LVL175-1-.LVL173
 7899 02e2 8804     		.uleb128 .LVL196-.LVL173
 7900 02e4 02       		.uleb128 0x2
 7901 02e5 91       		.byte	0x91
 7902 02e6 50       		.sleb128 -48
 7903 02e7 04       		.byte	0x4
 7904 02e8 8804     		.uleb128 .LVL196-.LVL173
 7905 02ea 9004     		.uleb128 .LVL197-.LVL173
 7906 02ec 01       		.uleb128 0x1
 7907 02ed 50       		.byte	0x50
 7908 02ee 00       		.byte	0
GAS LISTING /tmp/ccwdkvlB.s 			page 146


 7909              	.LVUS61:
 7910 02ef 00       		.uleb128 .LVU558
 7911 02f0 00       		.uleb128 .LVU559
 7912              	.LLST61:
 7913 02f1 08       		.byte	0x8
 7914 02f2 A0000000 		.long	.LVL176
 7915 02f6 0E       		.uleb128 .LVL177-.LVL176
 7916 02f7 01       		.uleb128 0x1
 7917 02f8 50       		.byte	0x50
 7918 02f9 00       		.byte	0
 7919              	.LVUS63:
 7920 02fa 00       		.uleb128 .LVU569
 7921 02fb 00       		.uleb128 .LVU570
 7922 02fc 00       		.uleb128 .LVU570
 7923 02fd 00       		.uleb128 .LVU571
 7924 02fe 00       		.uleb128 .LVU571
 7925 02ff 00       		.uleb128 .LVU614
 7926              	.LLST63:
 7927 0300 06       		.byte	0x6
 7928 0301 CF000000 		.long	.LVL180
 7929 0305 04       		.byte	0x4
 7930 0306 00       		.uleb128 .LVL180-.LVL180
 7931 0307 01       		.uleb128 .LVL181-.LVL180
 7932 0308 01       		.uleb128 0x1
 7933 0309 50       		.byte	0x50
 7934 030a 04       		.byte	0x4
 7935 030b 01       		.uleb128 .LVL181-.LVL180
 7936 030c 19       		.uleb128 .LVL182-1-.LVL180
 7937 030d 01       		.uleb128 0x1
 7938 030e 52       		.byte	0x52
 7939 030f 04       		.byte	0x4
 7940 0310 19       		.uleb128 .LVL182-1-.LVL180
 7941 0311 B503     		.uleb128 .LVL199-.LVL180
 7942 0313 02       		.uleb128 0x2
 7943 0314 91       		.byte	0x91
 7944 0315 54       		.sleb128 -44
 7945 0316 00       		.byte	0
 7946              	.LVUS64:
 7947 0317 01       		.uleb128 .LVU586
 7948 0318 00       		.uleb128 .LVU614
 7949              	.LLST64:
 7950 0319 08       		.byte	0x8
 7951 031a 82010000 		.long	.LVL187
 7952 031e 8202     		.uleb128 .LVL199-.LVL187
 7953 0320 02       		.uleb128 0x2
 7954 0321 91       		.byte	0x91
 7955 0322 54       		.sleb128 -44
 7956 0323 00       		.byte	0
 7957              	.LVUS66:
 7958 0324 02       		.uleb128 .LVU580
 7959 0325 01       		.uleb128 .LVU586
 7960              	.LLST66:
 7961 0326 08       		.byte	0x8
 7962 0327 77010000 		.long	.LVL186
 7963 032b 0B       		.uleb128 .LVL187-.LVL186
 7964 032c 02       		.uleb128 0x2
 7965 032d 91       		.byte	0x91
GAS LISTING /tmp/ccwdkvlB.s 			page 147


 7966 032e 54       		.sleb128 -44
 7967 032f 00       		.byte	0
 7968              	.Ldebug_loc3:
 7969              		.section	.debug_aranges,"",@progbits
 7970 0000 74000000 		.long	0x74
 7971 0004 0200     		.value	0x2
 7972 0006 00000000 		.long	.Ldebug_info0
 7973 000a 04       		.byte	0x4
 7974 000b 00       		.byte	0
 7975 000c 0000     		.value	0
 7976 000e 0000     		.value	0
 7977 0010 00000000 		.long	.LFB313
 7978 0014 49000000 		.long	.LFE313-.LFB313
 7979 0018 00000000 		.long	.LFB311
 7980 001c 49000000 		.long	.LFE311-.LFB311
 7981 0020 00000000 		.long	.LFB309
 7982 0024 49000000 		.long	.LFE309-.LFB309
 7983 0028 00000000 		.long	.LFB307
 7984 002c 49000000 		.long	.LFE307-.LFB307
 7985 0030 00000000 		.long	.LFB305
 7986 0034 49000000 		.long	.LFE305-.LFB305
 7987 0038 00000000 		.long	.LFB303
 7988 003c 49000000 		.long	.LFE303-.LFB303
 7989 0040 00000000 		.long	.LFB314
 7990 0044 22020000 		.long	.LFE314-.LFB314
 7991 0048 00000000 		.long	.LFB312
 7992 004c 24020000 		.long	.LFE312-.LFB312
 7993 0050 00000000 		.long	.LFB310
 7994 0054 22020000 		.long	.LFE310-.LFB310
 7995 0058 00000000 		.long	.LFB308
 7996 005c 22020000 		.long	.LFE308-.LFB308
 7997 0060 00000000 		.long	.LFB306
 7998 0064 28020000 		.long	.LFE306-.LFB306
 7999 0068 00000000 		.long	.LFB304
 8000 006c 89020000 		.long	.LFE304-.LFB304
 8001 0070 00000000 		.long	0
 8002 0074 00000000 		.long	0
 8003              		.section	.debug_rnglists,"",@progbits
 8004              	.Ldebug_ranges0:
 8005 0000 9B010000 		.long	.Ldebug_ranges3-.Ldebug_ranges2
 8006              	.Ldebug_ranges2:
 8007 0004 0500     		.value	0x5
 8008 0006 04       		.byte	0x4
 8009 0007 00       		.byte	0
 8010 0008 00000000 		.long	0
 8011              	.LLRL7:
 8012 000c 05       		.byte	0x5
 8013 000d 50000000 		.long	.LBB58
 8014 0011 04       		.byte	0x4
 8015 0012 00       		.uleb128 .LBB58-.LBB58
 8016 0013 CD03     		.uleb128 .LBE58-.LBB58
 8017 0015 04       		.byte	0x4
 8018 0016 CD03     		.uleb128 .LBB69-.LBB58
 8019 0018 D203     		.uleb128 .LBE69-.LBB58
 8020 001a 00       		.byte	0
 8021              	.LLRL9:
 8022 001b 05       		.byte	0x5
GAS LISTING /tmp/ccwdkvlB.s 			page 148


 8023 001c 85000000 		.long	.LBB60
 8024 0020 04       		.byte	0x4
 8025 0021 00       		.uleb128 .LBB60-.LBB60
 8026 0022 03       		.uleb128 .LBE60-.LBB60
 8027 0023 04       		.byte	0x4
 8028 0024 09       		.uleb128 .LBB61-.LBB60
 8029 0025 2F       		.uleb128 .LBE61-.LBB60
 8030 0026 00       		.byte	0
 8031              	.LLRL11:
 8032 0027 05       		.byte	0x5
 8033 0028 B4000000 		.long	.LBB62
 8034 002c 04       		.byte	0x4
 8035 002d 00       		.uleb128 .LBB62-.LBB62
 8036 002e 03       		.uleb128 .LBE62-.LBB62
 8037 002f 04       		.byte	0x4
 8038 0030 09       		.uleb128 .LBB67-.LBB62
 8039 0031 B502     		.uleb128 .LBE67-.LBB62
 8040 0033 00       		.byte	0
 8041              	.LLRL14:
 8042 0034 05       		.byte	0x5
 8043 0035 3B010000 		.long	.LBB63
 8044 0039 04       		.byte	0x4
 8045 003a 00       		.uleb128 .LBB63-.LBB63
 8046 003b 04       		.uleb128 .LBE63-.LBB63
 8047 003c 04       		.byte	0x4
 8048 003d 07       		.uleb128 .LBB66-.LBB63
 8049 003e 0B       		.uleb128 .LBE66-.LBB63
 8050 003f 00       		.byte	0
 8051              	.LLRL17:
 8052 0040 05       		.byte	0x5
 8053 0041 50000000 		.long	.LBB76
 8054 0045 04       		.byte	0x4
 8055 0046 00       		.uleb128 .LBB76-.LBB76
 8056 0047 CF03     		.uleb128 .LBE76-.LBB76
 8057 0049 04       		.byte	0x4
 8058 004a CF03     		.uleb128 .LBB87-.LBB76
 8059 004c D403     		.uleb128 .LBE87-.LBB76
 8060 004e 00       		.byte	0
 8061              	.LLRL19:
 8062 004f 05       		.byte	0x5
 8063 0050 86000000 		.long	.LBB78
 8064 0054 04       		.byte	0x4
 8065 0055 00       		.uleb128 .LBB78-.LBB78
 8066 0056 07       		.uleb128 .LBE78-.LBB78
 8067 0057 04       		.byte	0x4
 8068 0058 0D       		.uleb128 .LBB79-.LBB78
 8069 0059 30       		.uleb128 .LBE79-.LBB78
 8070 005a 00       		.byte	0
 8071              	.LLRL21:
 8072 005b 05       		.byte	0x5
 8073 005c B6000000 		.long	.LBB80
 8074 0060 04       		.byte	0x4
 8075 0061 00       		.uleb128 .LBB80-.LBB80
 8076 0062 03       		.uleb128 .LBE80-.LBB80
 8077 0063 04       		.byte	0x4
 8078 0064 09       		.uleb128 .LBB85-.LBB80
 8079 0065 B502     		.uleb128 .LBE85-.LBB80
GAS LISTING /tmp/ccwdkvlB.s 			page 149


 8080 0067 00       		.byte	0
 8081              	.LLRL24:
 8082 0068 05       		.byte	0x5
 8083 0069 3D010000 		.long	.LBB81
 8084 006d 04       		.byte	0x4
 8085 006e 00       		.uleb128 .LBB81-.LBB81
 8086 006f 04       		.uleb128 .LBE81-.LBB81
 8087 0070 04       		.byte	0x4
 8088 0071 07       		.uleb128 .LBB84-.LBB81
 8089 0072 0B       		.uleb128 .LBE84-.LBB81
 8090 0073 00       		.byte	0
 8091              	.LLRL27:
 8092 0074 05       		.byte	0x5
 8093 0075 50000000 		.long	.LBB94
 8094 0079 04       		.byte	0x4
 8095 007a 00       		.uleb128 .LBB94-.LBB94
 8096 007b CD03     		.uleb128 .LBE94-.LBB94
 8097 007d 04       		.byte	0x4
 8098 007e CD03     		.uleb128 .LBB105-.LBB94
 8099 0080 D203     		.uleb128 .LBE105-.LBB94
 8100 0082 00       		.byte	0
 8101              	.LLRL29:
 8102 0083 05       		.byte	0x5
 8103 0084 85000000 		.long	.LBB96
 8104 0088 04       		.byte	0x4
 8105 0089 00       		.uleb128 .LBB96-.LBB96
 8106 008a 03       		.uleb128 .LBE96-.LBB96
 8107 008b 04       		.byte	0x4
 8108 008c 09       		.uleb128 .LBB97-.LBB96
 8109 008d 2F       		.uleb128 .LBE97-.LBB96
 8110 008e 00       		.byte	0
 8111              	.LLRL31:
 8112 008f 05       		.byte	0x5
 8113 0090 B4000000 		.long	.LBB98
 8114 0094 04       		.byte	0x4
 8115 0095 00       		.uleb128 .LBB98-.LBB98
 8116 0096 03       		.uleb128 .LBE98-.LBB98
 8117 0097 04       		.byte	0x4
 8118 0098 09       		.uleb128 .LBB103-.LBB98
 8119 0099 B502     		.uleb128 .LBE103-.LBB98
 8120 009b 00       		.byte	0
 8121              	.LLRL34:
 8122 009c 05       		.byte	0x5
 8123 009d 3B010000 		.long	.LBB99
 8124 00a1 04       		.byte	0x4
 8125 00a2 00       		.uleb128 .LBB99-.LBB99
 8126 00a3 04       		.uleb128 .LBE99-.LBB99
 8127 00a4 04       		.byte	0x4
 8128 00a5 07       		.uleb128 .LBB102-.LBB99
 8129 00a6 0B       		.uleb128 .LBE102-.LBB99
 8130 00a7 00       		.byte	0
 8131              	.LLRL37:
 8132 00a8 05       		.byte	0x5
 8133 00a9 50000000 		.long	.LBB112
 8134 00ad 04       		.byte	0x4
 8135 00ae 00       		.uleb128 .LBB112-.LBB112
 8136 00af CD03     		.uleb128 .LBE112-.LBB112
GAS LISTING /tmp/ccwdkvlB.s 			page 150


 8137 00b1 04       		.byte	0x4
 8138 00b2 CD03     		.uleb128 .LBB123-.LBB112
 8139 00b4 D203     		.uleb128 .LBE123-.LBB112
 8140 00b6 00       		.byte	0
 8141              	.LLRL39:
 8142 00b7 05       		.byte	0x5
 8143 00b8 85000000 		.long	.LBB114
 8144 00bc 04       		.byte	0x4
 8145 00bd 00       		.uleb128 .LBB114-.LBB114
 8146 00be 03       		.uleb128 .LBE114-.LBB114
 8147 00bf 04       		.byte	0x4
 8148 00c0 09       		.uleb128 .LBB115-.LBB114
 8149 00c1 2F       		.uleb128 .LBE115-.LBB114
 8150 00c2 00       		.byte	0
 8151              	.LLRL41:
 8152 00c3 05       		.byte	0x5
 8153 00c4 B4000000 		.long	.LBB116
 8154 00c8 04       		.byte	0x4
 8155 00c9 00       		.uleb128 .LBB116-.LBB116
 8156 00ca 03       		.uleb128 .LBE116-.LBB116
 8157 00cb 04       		.byte	0x4
 8158 00cc 09       		.uleb128 .LBB121-.LBB116
 8159 00cd B502     		.uleb128 .LBE121-.LBB116
 8160 00cf 00       		.byte	0
 8161              	.LLRL44:
 8162 00d0 05       		.byte	0x5
 8163 00d1 3B010000 		.long	.LBB117
 8164 00d5 04       		.byte	0x4
 8165 00d6 00       		.uleb128 .LBB117-.LBB117
 8166 00d7 04       		.uleb128 .LBE117-.LBB117
 8167 00d8 04       		.byte	0x4
 8168 00d9 07       		.uleb128 .LBB120-.LBB117
 8169 00da 0B       		.uleb128 .LBE120-.LBB117
 8170 00db 00       		.byte	0
 8171              	.LLRL47:
 8172 00dc 05       		.byte	0x5
 8173 00dd 50000000 		.long	.LBB130
 8174 00e1 04       		.byte	0x4
 8175 00e2 00       		.uleb128 .LBB130-.LBB130
 8176 00e3 D303     		.uleb128 .LBE130-.LBB130
 8177 00e5 04       		.byte	0x4
 8178 00e6 D303     		.uleb128 .LBB141-.LBB130
 8179 00e8 D803     		.uleb128 .LBE141-.LBB130
 8180 00ea 00       		.byte	0
 8181              	.LLRL49:
 8182 00eb 05       		.byte	0x5
 8183 00ec 88000000 		.long	.LBB132
 8184 00f0 04       		.byte	0x4
 8185 00f1 00       		.uleb128 .LBB132-.LBB132
 8186 00f2 03       		.uleb128 .LBE132-.LBB132
 8187 00f3 04       		.byte	0x4
 8188 00f4 09       		.uleb128 .LBB133-.LBB132
 8189 00f5 32       		.uleb128 .LBE133-.LBB132
 8190 00f6 00       		.byte	0
 8191              	.LLRL51:
 8192 00f7 05       		.byte	0x5
 8193 00f8 BA000000 		.long	.LBB134
GAS LISTING /tmp/ccwdkvlB.s 			page 151


 8194 00fc 04       		.byte	0x4
 8195 00fd 00       		.uleb128 .LBB134-.LBB134
 8196 00fe 03       		.uleb128 .LBE134-.LBB134
 8197 00ff 04       		.byte	0x4
 8198 0100 09       		.uleb128 .LBB139-.LBB134
 8199 0101 B502     		.uleb128 .LBE139-.LBB134
 8200 0103 00       		.byte	0
 8201              	.LLRL54:
 8202 0104 05       		.byte	0x5
 8203 0105 41010000 		.long	.LBB135
 8204 0109 04       		.byte	0x4
 8205 010a 00       		.uleb128 .LBB135-.LBB135
 8206 010b 04       		.uleb128 .LBE135-.LBB135
 8207 010c 04       		.byte	0x4
 8208 010d 07       		.uleb128 .LBB138-.LBB135
 8209 010e 0B       		.uleb128 .LBE138-.LBB135
 8210 010f 00       		.byte	0
 8211              	.LLRL57:
 8212 0110 05       		.byte	0x5
 8213 0111 50000000 		.long	.LBB149
 8214 0115 04       		.byte	0x4
 8215 0116 00       		.uleb128 .LBB149-.LBB149
 8216 0117 B404     		.uleb128 .LBE149-.LBB149
 8217 0119 04       		.byte	0x4
 8218 011a B404     		.uleb128 .LBB162-.LBB149
 8219 011c B904     		.uleb128 .LBE162-.LBB149
 8220 011e 00       		.byte	0
 8221              	.LLRL59:
 8222 011f 05       		.byte	0x5
 8223 0120 50000000 		.long	.LBB151
 8224 0124 04       		.byte	0x4
 8225 0125 00       		.uleb128 .LBB151-.LBB151
 8226 0126 09       		.uleb128 .LBE151-.LBB151
 8227 0127 04       		.byte	0x4
 8228 0128 0F       		.uleb128 .LBB152-.LBB151
 8229 0129 3A       		.uleb128 .LBE152-.LBB151
 8230 012a 00       		.byte	0
 8231              	.LLRL60:
 8232 012b 05       		.byte	0x5
 8233 012c 8A000000 		.long	.LBB153
 8234 0130 04       		.byte	0x4
 8235 0131 00       		.uleb128 .LBB153-.LBB153
 8236 0132 09       		.uleb128 .LBE153-.LBB153
 8237 0133 04       		.byte	0x4
 8238 0134 0F       		.uleb128 .LBB154-.LBB153
 8239 0135 34       		.uleb128 .LBE154-.LBB153
 8240 0136 00       		.byte	0
 8241              	.LLRL62:
 8242 0137 05       		.byte	0x5
 8243 0138 BE000000 		.long	.LBB155
 8244 013c 04       		.byte	0x4
 8245 013d 00       		.uleb128 .LBB155-.LBB155
 8246 013e 03       		.uleb128 .LBE155-.LBB155
 8247 013f 04       		.byte	0x4
 8248 0140 09       		.uleb128 .LBB160-.LBB155
 8249 0141 9203     		.uleb128 .LBE160-.LBB155
 8250 0143 00       		.byte	0
GAS LISTING /tmp/ccwdkvlB.s 			page 152


 8251              	.LLRL65:
 8252 0144 05       		.byte	0x5
 8253 0145 77010000 		.long	.LBB156
 8254 0149 04       		.byte	0x4
 8255 014a 00       		.uleb128 .LBB156-.LBB156
 8256 014b 04       		.uleb128 .LBE156-.LBB156
 8257 014c 04       		.byte	0x4
 8258 014d 07       		.uleb128 .LBB159-.LBB156
 8259 014e 0B       		.uleb128 .LBE159-.LBB156
 8260 014f 00       		.byte	0
 8261              	.LLRL67:
 8262 0150 07       		.byte	0x7
 8263 0151 00000000 		.long	.LFB313
 8264 0155 49       		.uleb128 .LFE313-.LFB313
 8265 0156 07       		.byte	0x7
 8266 0157 00000000 		.long	.LFB311
 8267 015b 49       		.uleb128 .LFE311-.LFB311
 8268 015c 07       		.byte	0x7
 8269 015d 00000000 		.long	.LFB309
 8270 0161 49       		.uleb128 .LFE309-.LFB309
 8271 0162 07       		.byte	0x7
 8272 0163 00000000 		.long	.LFB307
 8273 0167 49       		.uleb128 .LFE307-.LFB307
 8274 0168 07       		.byte	0x7
 8275 0169 00000000 		.long	.LFB305
 8276 016d 49       		.uleb128 .LFE305-.LFB305
 8277 016e 07       		.byte	0x7
 8278 016f 00000000 		.long	.LFB303
 8279 0173 49       		.uleb128 .LFE303-.LFB303
 8280 0174 07       		.byte	0x7
 8281 0175 00000000 		.long	.LFB314
 8282 0179 A204     		.uleb128 .LFE314-.LFB314
 8283 017b 07       		.byte	0x7
 8284 017c 00000000 		.long	.LFB312
 8285 0180 A404     		.uleb128 .LFE312-.LFB312
 8286 0182 07       		.byte	0x7
 8287 0183 00000000 		.long	.LFB310
 8288 0187 A204     		.uleb128 .LFE310-.LFB310
 8289 0189 07       		.byte	0x7
 8290 018a 00000000 		.long	.LFB308
 8291 018e A204     		.uleb128 .LFE308-.LFB308
 8292 0190 07       		.byte	0x7
 8293 0191 00000000 		.long	.LFB306
 8294 0195 A804     		.uleb128 .LFE306-.LFB306
 8295 0197 07       		.byte	0x7
 8296 0198 00000000 		.long	.LFB304
 8297 019c 8905     		.uleb128 .LFE304-.LFB304
 8298 019e 00       		.byte	0
 8299              	.Ldebug_ranges3:
 8300              		.section	.debug_line,"",@progbits
 8301              	.Ldebug_line0:
 8302 0000 DB090000 		.section	.debug_str,"MS",@progbits,1
 8302      05000400 
 8302      C1000000 
 8302      010101FB 
 8302      0E0D0001 
 8303              	.LASF77:
GAS LISTING /tmp/ccwdkvlB.s 			page 153


 8304 0000 63685F64 		.string	"ch_delta_list_t"
 8304      656C7461 
 8304      5F6C6973 
 8304      745F7400 
 8305              	.LASF215:
 8306 0010 6F736C69 		.string	"oslib_test_009_004_execute"
 8306      625F7465 
 8306      73745F30 
 8306      30395F30 
 8306      30345F65 
 8307              	.LASF202:
 8308 002b 63684661 		.string	"chFactoryReleasePipe"
 8308      63746F72 
 8308      7952656C 
 8308      65617365 
 8308      50697065 
 8309              	.LASF11:
 8310 0040 73697A65 		.string	"size_t"
 8310      5F7400
 8311              	.LASF103:
 8312 0047 77747365 		.string	"wtsemp"
 8312      6D7000
 8313              	.LASF66:
 8314 004e 73797374 		.string	"systime_t"
 8314      696D655F 
 8314      7400
 8315              	.LASF33:
 8316 0058 6F776E65 		.string	"owner"
 8316      7200
 8317              	.LASF26:
 8318 005e 74707269 		.string	"tprio_t"
 8318      6F5F7400 
 8319              	.LASF149:
 8320 0066 63685F64 		.string	"ch_dyn_mailbox"
 8320      796E5F6D 
 8320      61696C62 
 8320      6F7800
 8321              	.LASF225:
 8322 0075 64627032 		.string	"dbp2"
 8322      00
 8323              	.LASF128:
 8324 007a 70726F76 		.string	"provider"
 8324      69646572 
 8324      00
 8325              	.LASF19:
 8326 0083 696E7433 		.string	"int32_t"
 8326      325F7400 
 8327              	.LASF229:
 8328 008b 726F7031 		.string	"rop1"
 8328      00
 8329              	.LASF230:
 8330 0090 726F7032 		.string	"rop2"
 8330      00
 8331              	.LASF233:
 8332 0095 73746B6C 		.string	"stkline_t"
 8332      696E655F 
 8332      7400
GAS LISTING /tmp/ccwdkvlB.s 			page 154


 8333              	.LASF84:
 8334 009f 63685F76 		.string	"ch_virtual_timers_list"
 8334      69727475 
 8334      616C5F74 
 8334      696D6572 
 8334      735F6C69 
 8335              	.LASF91:
 8336 00b6 72656769 		.string	"registry_t"
 8336      73747279 
 8336      5F7400
 8337              	.LASF159:
 8338 00c1 77726974 		.string	"write"
 8338      6500
 8339              	.LASF139:
 8340 00c7 63685F64 		.string	"ch_dyn_element"
 8340      796E5F65 
 8340      6C656D65 
 8340      6E7400
 8341              	.LASF161:
 8342 00d6 42617365 		.string	"BaseSequentialStream"
 8342      53657175 
 8342      656E7469 
 8342      616C5374 
 8342      7265616D 
 8343              	.LASF56:
 8344 00eb 636F6E66 		.string	"config"
 8344      696700
 8345              	.LASF36:
 8346 00f2 73746174 		.string	"state"
 8346      6500
 8347              	.LASF60:
 8348 00f8 63685F72 		.string	"ch_rfcu"
 8348      66637500 
 8349              	.LASF156:
 8350 0100 64796E5F 		.string	"dyn_pipe_t"
 8350      70697065 
 8350      5F7400
 8351              	.LASF89:
 8352 010b 63685F72 		.string	"ch_registry"
 8352      65676973 
 8352      74727900 
 8353              	.LASF76:
 8354 0117 7072696F 		.string	"prio"
 8354      00
 8355              	.LASF196:
 8356 011c 63684661 		.string	"chFactoryReleaseMailbox"
 8356      63746F72 
 8356      7952656C 
 8356      65617365 
 8356      4D61696C 
 8357              	.LASF189:
 8358 0134 63684661 		.string	"chFactoryFindObject"
 8358      63746F72 
 8358      7946696E 
 8358      644F626A 
 8358      65637400 
 8359              	.LASF192:
GAS LISTING /tmp/ccwdkvlB.s 			page 155


 8360 0148 63684661 		.string	"chFactoryFindBuffer"
 8360      63746F72 
 8360      7946696E 
 8360      64427566 
 8360      66657200 
 8361              	.LASF99:
 8362 015c 65786974 		.string	"exitcode"
 8362      636F6465 
 8362      00
 8363              	.LASF165:
 8364 0165 6C6F6361 		.string	"local_fail"
 8364      6C5F6661 
 8364      696C00
 8365              	.LASF12:
 8366 0170 5F5F7569 		.string	"__uint8_t"
 8366      6E74385F 
 8366      7400
 8367              	.LASF170:
 8368 017a 73747265 		.string	"stream"
 8368      616D00
 8369              	.LASF86:
 8370 0181 73797374 		.string	"systime"
 8370      696D6500 
 8371              	.LASF201:
 8372 0189 63684661 		.string	"chFactoryFindObjectsFIFO"
 8372      63746F72 
 8372      7946696E 
 8372      644F626A 
 8372      65637473 
 8373              	.LASF152:
 8374 01a2 6669666F 		.string	"fifo"
 8374      00
 8375              	.LASF3:
 8376 01a7 6C6F6E67 		.string	"long int"
 8376      20696E74 
 8376      00
 8377              	.LASF144:
 8378 01b0 72656769 		.string	"registered_object_t"
 8378      73746572 
 8378      65645F6F 
 8378      626A6563 
 8378      745F7400 
 8379              	.LASF95:
 8380 01c4 74687265 		.string	"thread_dispose_t"
 8380      61645F64 
 8380      6973706F 
 8380      73655F74 
 8380      00
 8381              	.LASF180:
 8382 01d5 6F736C69 		.string	"oslib_test_009_001"
 8382      625F7465 
 8382      73745F30 
 8382      30395F30 
 8382      303100
 8383              	.LASF181:
 8384 01e8 6F736C69 		.string	"oslib_test_009_002"
 8384      625F7465 
GAS LISTING /tmp/ccwdkvlB.s 			page 156


 8384      73745F30 
 8384      30395F30 
 8384      303200
 8385              	.LASF182:
 8386 01fb 6F736C69 		.string	"oslib_test_009_003"
 8386      625F7465 
 8386      73745F30 
 8386      30395F30 
 8386      303300
 8387              	.LASF183:
 8388 020e 6F736C69 		.string	"oslib_test_009_004"
 8388      625F7465 
 8388      73745F30 
 8388      30395F30 
 8388      303400
 8389              	.LASF184:
 8390 0221 6F736C69 		.string	"oslib_test_009_005"
 8390      625F7465 
 8390      73745F30 
 8390      30395F30 
 8390      303500
 8391              	.LASF185:
 8392 0234 6F736C69 		.string	"oslib_test_009_006"
 8392      625F7465 
 8392      73745F30 
 8392      30395F30 
 8392      303600
 8393              	.LASF205:
 8394 0247 63684661 		.string	"chFactoryFindPipe"
 8394      63746F72 
 8394      7946696E 
 8394      64506970 
 8394      6500
 8395              	.LASF24:
 8396 0259 74737461 		.string	"tstate_t"
 8396      74655F74 
 8396      00
 8397              	.LASF45:
 8398 0262 6570656E 		.string	"epending"
 8398      64696E67 
 8398      00
 8399              	.LASF94:
 8400 026b 74687265 		.string	"threads_queue_t"
 8400      6164735F 
 8400      71756575 
 8400      655F7400 
 8401              	.LASF68:
 8402 027b 63685F6C 		.string	"ch_list_t"
 8402      6973745F 
 8402      7400
 8403              	.LASF121:
 8404 0285 72647074 		.string	"rdptr"
 8404      7200
 8405              	.LASF69:
 8406 028b 63685F6C 		.string	"ch_list"
 8406      69737400 
 8407              	.LASF87:
GAS LISTING /tmp/ccwdkvlB.s 			page 157


 8408 0293 6C617374 		.string	"laststamp"
 8408      7374616D 
 8408      7000
 8409              	.LASF10:
 8410 029d 7369676E 		.string	"signed char"
 8410      65642063 
 8410      68617200 
 8411              	.LASF105:
 8412 02a9 65776D61 		.string	"ewmask"
 8412      736B00
 8413              	.LASF20:
 8414 02b0 75696E74 		.string	"uint8_t"
 8414      385F7400 
 8415              	.LASF200:
 8416 02b8 63684661 		.string	"chFactoryCreateObjectsFIFO"
 8416      63746F72 
 8416      79437265 
 8416      6174654F 
 8416      626A6563 
 8417              	.LASF31:
 8418 02d3 636F7265 		.string	"core_id_t"
 8418      5F69645F 
 8418      7400
 8419              	.LASF153:
 8420 02dd 64796E5F 		.string	"dyn_objects_fifo_t"
 8420      6F626A65 
 8420      6374735F 
 8420      6669666F 
 8420      5F7400
 8421              	.LASF28:
 8422 02f0 6576656E 		.string	"eventmask_t"
 8422      746D6173 
 8422      6B5F7400 
 8423              	.LASF101:
 8424 02fc 77747472 		.string	"wttrp"
 8424      7000
 8425              	.LASF209:
 8426 0302 6F736C69 		.string	"oslib_test_009_005_execute"
 8426      625F7465 
 8426      73745F30 
 8426      30395F30 
 8426      30355F65 
 8427              	.LASF7:
 8428 031d 756E7369 		.string	"unsigned char"
 8428      676E6564 
 8428      20636861 
 8428      7200
 8429              	.LASF146:
 8430 032b 64796E5F 		.string	"dyn_buffer_t"
 8430      62756666 
 8430      65725F74 
 8430      00
 8431              	.LASF64:
 8432 0338 70616E69 		.string	"panic_msg"
 8432      635F6D73 
 8432      6700
 8433              	.LASF216:
GAS LISTING /tmp/ccwdkvlB.s 			page 158


 8434 0342 646D7031 		.string	"dmp1"
 8434      00
 8435              	.LASF217:
 8436 0347 646D7032 		.string	"dmp2"
 8436      00
 8437              	.LASF188:
 8438 034c 63684661 		.string	"chFactoryRegisterObject"
 8438      63746F72 
 8438      79526567 
 8438      69737465 
 8438      724F626A 
 8439              	.LASF65:
 8440 0364 73797374 		.string	"system_debug_t"
 8440      656D5F64 
 8440      65627567 
 8440      5F7400
 8441              	.LASF83:
 8442 0373 5F426F6F 		.string	"_Bool"
 8442      6C00
 8443              	.LASF18:
 8444 0379 63686172 		.string	"char"
 8444      00
 8445              	.LASF141:
 8446 037e 63685F72 		.string	"ch_registered_static_object"
 8446      65676973 
 8446      74657265 
 8446      645F7374 
 8446      61746963 
 8447              	.LASF224:
 8448 039a 64627031 		.string	"dbp1"
 8448      00
 8449              	.LASF100:
 8450 039f 77746F62 		.string	"wtobjp"
 8450      6A7000
 8451              	.LASF226:
 8452 03a6 6F736C69 		.string	"oslib_test_009_002_teardown"
 8452      625F7465 
 8452      73745F30 
 8452      30395F30 
 8452      30325F74 
 8453              	.LASF37:
 8454 03c2 666C6167 		.string	"flags"
 8454      7300
 8455              	.LASF54:
 8456 03c8 636F7265 		.string	"core_id"
 8456      5F696400 
 8457              	.LASF136:
 8458 03d0 776D7478 		.string	"wmtx"
 8458      00
 8459              	.LASF134:
 8460 03d5 6F626A65 		.string	"objects_fifo_t"
 8460      6374735F 
 8460      6669666F 
 8460      5F7400
 8461              	.LASF166:
 8462 03e4 6661696C 		.string	"failure_message"
 8462      7572655F 
GAS LISTING /tmp/ccwdkvlB.s 			page 159


 8462      6D657373 
 8462      61676500 
 8463              	.LASF227:
 8464 03f4 6F736C69 		.string	"oslib_test_009_001_execute"
 8464      625F7465 
 8464      73745F30 
 8464      30395F30 
 8464      30315F65 
 8465              	.LASF40:
 8466 040f 72717565 		.string	"rqueue"
 8466      756500
 8467              	.LASF210:
 8468 0416 646F6670 		.string	"dofp"
 8468      00
 8469              	.LASF29:
 8470 041b 636E745F 		.string	"cnt_t"
 8470      7400
 8471              	.LASF42:
 8472 0421 6F626A65 		.string	"object"
 8472      637400
 8473              	.LASF119:
 8474 0428 62756666 		.string	"buffer"
 8474      657200
 8475              	.LASF231:
 8476 042f 6F736C69 		.string	"oslib_test_009_001_teardown"
 8476      625F7465 
 8476      73745F30 
 8476      30395F30 
 8476      30315F74 
 8477              	.LASF172:
 8478 044b 73657475 		.string	"setup"
 8478      7000
 8479              	.LASF148:
 8480 0451 64796E5F 		.string	"dyn_semaphore_t"
 8480      73656D61 
 8480      70686F72 
 8480      655F7400 
 8481              	.LASF104:
 8482 0461 77746D74 		.string	"wtmtxp"
 8482      787000
 8483              	.LASF108:
 8484 0468 63685F72 		.string	"ch_ready_list"
 8484      65616479 
 8484      5F6C6973 
 8484      7400
 8485              	.LASF50:
 8486 0476 63685F6F 		.string	"ch_os_instance"
 8486      735F696E 
 8486      7374616E 
 8486      636500
 8487              	.LASF145:
 8488 0485 63685F64 		.string	"ch_dyn_object"
 8488      796E5F6F 
 8488      626A6563 
 8488      7400
 8489              	.LASF186:
 8490 0493 6F736C69 		.string	"oslib_test_sequence_009_array"
GAS LISTING /tmp/ccwdkvlB.s 			page 160


 8490      625F7465 
 8490      73745F73 
 8490      65717565 
 8490      6E63655F 
 8491              	.LASF222:
 8492 04b1 6F736C69 		.string	"oslib_test_009_003_teardown"
 8492      625F7465 
 8492      73745F30 
 8492      30395F30 
 8492      30335F74 
 8493              	.LASF177:
 8494 04cd 74657374 		.string	"testsequence_t"
 8494      73657175 
 8494      656E6365 
 8494      5F7400
 8495              	.LASF164:
 8496 04dc 676C6F62 		.string	"global_fail"
 8496      616C5F66 
 8496      61696C00 
 8497              	.LASF211:
 8498 04e8 646F6670 		.string	"dofp1"
 8498      3100
 8499              	.LASF212:
 8500 04ee 646F6670 		.string	"dofp2"
 8500      3200
 8501              	.LASF195:
 8502 04f4 63684661 		.string	"chFactoryFindSemaphore"
 8502      63746F72 
 8502      7946696E 
 8502      6453656D 
 8502      6170686F 
 8503              	.LASF16:
 8504 050b 5F5F7569 		.string	"__uint64_t"
 8504      6E743634 
 8504      5F7400
 8505              	.LASF9:
 8506 0516 6C6F6E67 		.string	"long unsigned int"
 8506      20756E73 
 8506      69676E65 
 8506      6420696E 
 8506      7400
 8507              	.LASF71:
 8508 0528 63685F71 		.string	"ch_queue_t"
 8508      75657565 
 8508      5F7400
 8509              	.LASF59:
 8510 0533 72666375 		.string	"rfcu_mask_t"
 8510      5F6D6173 
 8510      6B5F7400 
 8511              	.LASF106:
 8512 053f 63685F73 		.string	"ch_semaphore"
 8512      656D6170 
 8512      686F7265 
 8512      00
 8513              	.LASF214:
 8514 054c 6F736C69 		.string	"oslib_test_009_005_teardown"
 8514      625F7465 
GAS LISTING /tmp/ccwdkvlB.s 			page 161


 8514      73745F30 
 8514      30395F30 
 8514      30355F74 
 8515              	.LASF49:
 8516 0568 63685F74 		.string	"ch_thread"
 8516      68726561 
 8516      6400
 8517              	.LASF88:
 8518 0572 76697274 		.string	"virtual_timers_list_t"
 8518      75616C5F 
 8518      74696D65 
 8518      72735F6C 
 8518      6973745F 
 8519              	.LASF228:
 8520 0588 6D796F62 		.string	"myobj"
 8520      6A00
 8521              	.LASF208:
 8522 058e 6F736C69 		.string	"oslib_test_009_006_execute"
 8522      625F7465 
 8522      73745F30 
 8522      30395F30 
 8522      30365F65 
 8523              	.LASF110:
 8524 05a9 72656164 		.string	"ready_list_t"
 8524      795F6C69 
 8524      73745F74 
 8524      00
 8525              	.LASF220:
 8526 05b6 64737031 		.string	"dsp1"
 8526      00
 8527              	.LASF221:
 8528 05bb 64737032 		.string	"dsp2"
 8528      00
 8529              	.LASF47:
 8530 05c0 7265616C 		.string	"realprio"
 8530      7072696F 
 8530      00
 8531              	.LASF204:
 8532 05c9 5F5F7465 		.string	"__test_assert"
 8532      73745F61 
 8532      73736572 
 8532      7400
 8533              	.LASF30:
 8534 05d7 75636E74 		.string	"ucnt_t"
 8534      5F7400
 8535              	.LASF125:
 8536 05de 706F6F6C 		.string	"pool_header"
 8536      5F686561 
 8536      64657200 
 8537              	.LASF35:
 8538 05ea 7761656E 		.string	"waend"
 8538      6400
 8539              	.LASF62:
 8540 05f0 72666375 		.string	"rfcu_t"
 8540      5F7400
 8541              	.LASF175:
 8542 05f7 74657374 		.string	"testcase_t"
GAS LISTING /tmp/ccwdkvlB.s 			page 162


 8542      63617365 
 8542      5F7400
 8543              	.LASF120:
 8544 0602 77727074 		.string	"wrptr"
 8544      7200
 8545              	.LASF113:
 8546 0608 63737461 		.string	"cstack_end"
 8546      636B5F65 
 8546      6E6400
 8547              	.LASF15:
 8548 0613 5F5F7569 		.string	"__uint32_t"
 8548      6E743332 
 8548      5F7400
 8549              	.LASF46:
 8550 061e 6D74786C 		.string	"mtxlist"
 8550      69737400 
 8551              	.LASF4:
 8552 0626 6C6F6E67 		.string	"long long int"
 8552      206C6F6E 
 8552      6720696E 
 8552      7400
 8553              	.LASF67:
 8554 0634 73797369 		.string	"sysinterval_t"
 8554      6E746572 
 8554      76616C5F 
 8554      7400
 8555              	.LASF74:
 8556 0642 63685F70 		.string	"ch_priority_queue_t"
 8556      72696F72 
 8556      6974795F 
 8556      71756575 
 8556      655F7400 
 8557              	.LASF155:
 8558 0656 70697065 		.string	"pipe"
 8558      00
 8559              	.LASF61:
 8560 065b 6D61736B 		.string	"mask"
 8560      00
 8561              	.LASF127:
 8562 0660 616C6967 		.string	"align"
 8562      6E00
 8563              	.LASF176:
 8564 0666 63617365 		.string	"cases"
 8564      7300
 8565              	.LASF160:
 8566 066c 72656164 		.string	"read"
 8566      00
 8567              	.LASF179:
 8568 0671 6F736C69 		.string	"oslib_test_sequence_009"
 8568      625F7465 
 8568      73745F73 
 8568      65717565 
 8568      6E63655F 
 8569              	.LASF2:
 8570 0689 756E7369 		.string	"unsigned int"
 8570      676E6564 
 8570      20696E74 
GAS LISTING /tmp/ccwdkvlB.s 			page 163


 8570      00
 8571              	.LASF223:
 8572 0696 6F736C69 		.string	"oslib_test_009_002_execute"
 8572      625F7465 
 8572      73745F30 
 8572      30395F30 
 8572      30325F65 
 8573              	.LASF48:
 8574 06b1 6F735F69 		.string	"os_instance_t"
 8574      6E737461 
 8574      6E63655F 
 8574      7400
 8575              	.LASF198:
 8576 06bf 63684661 		.string	"chFactoryFindMailbox"
 8576      63746F72 
 8576      7946696E 
 8576      644D6169 
 8576      6C626F78 
 8577              	.LASF57:
 8578 06d4 69646C65 		.string	"idlethread"
 8578      74687265 
 8578      616400
 8579              	.LASF173:
 8580 06df 74656172 		.string	"teardown"
 8580      646F776E 
 8580      00
 8581              	.LASF197:
 8582 06e8 63684661 		.string	"chFactoryCreateMailbox"
 8582      63746F72 
 8582      79437265 
 8582      6174654D 
 8582      61696C62 
 8583              	.LASF193:
 8584 06ff 63684661 		.string	"chFactoryReleaseSemaphore"
 8584      63746F72 
 8584      7952656C 
 8584      65617365 
 8584      53656D61 
 8585              	.LASF109:
 8586 0719 63757272 		.string	"current"
 8586      656E7400 
 8587              	.LASF96:
 8588 0721 6C697374 		.string	"list"
 8588      00
 8589              	.LASF218:
 8590 0726 6F736C69 		.string	"oslib_test_009_004_teardown"
 8590      625F7465 
 8590      73745F30 
 8590      30395F30 
 8590      30345F74 
 8591              	.LASF115:
 8592 0742 69646C65 		.string	"idlestack_end"
 8592      73746163 
 8592      6B5F656E 
 8592      6400
 8593              	.LASF234:
 8594 0750 63684661 		.string	"chFactoryDuplicateReference"
GAS LISTING /tmp/ccwdkvlB.s 			page 164


 8594      63746F72 
 8594      79447570 
 8594      6C696361 
 8594      74655265 
 8595              	.LASF78:
 8596 076c 63685F64 		.string	"ch_delta_list"
 8596      656C7461 
 8596      5F6C6973 
 8596      7400
 8597              	.LASF85:
 8598 077a 646C6973 		.string	"dlist"
 8598      7400
 8599              	.LASF124:
 8600 0780 6D656D67 		.string	"memgetfunc_t"
 8600      65746675 
 8600      6E635F74 
 8600      00
 8601              	.LASF194:
 8602 078d 63684661 		.string	"chFactoryCreateSemaphore"
 8602      63746F72 
 8602      79437265 
 8602      61746553 
 8602      656D6170 
 8603              	.LASF32:
 8604 07a6 74687265 		.string	"thread_t"
 8604      61645F74 
 8604      00
 8605              	.LASF5:
 8606 07af 6C6F6E67 		.string	"long double"
 8606      20646F75 
 8606      626C6500 
 8607              	.LASF92:
 8608 07bb 74687265 		.string	"thread_reference_t"
 8608      61645F72 
 8608      65666572 
 8608      656E6365 
 8608      5F7400
 8609              	.LASF102:
 8610 07ce 73656E74 		.string	"sentmsg"
 8610      6D736700 
 8611              	.LASF81:
 8612 07d6 706F7274 		.string	"port_intctx"
 8612      5F696E74 
 8612      63747800 
 8613              	.LASF147:
 8614 07e2 63685F64 		.string	"ch_dyn_semaphore"
 8614      796E5F73 
 8614      656D6170 
 8614      686F7265 
 8614      00
 8615              	.LASF142:
 8616 07f3 656C656D 		.string	"element"
 8616      656E7400 
 8617              	.LASF191:
 8618 07fb 63684661 		.string	"chFactoryCreateBuffer"
 8618      63746F72 
 8618      79437265 
GAS LISTING /tmp/ccwdkvlB.s 			page 165


 8618      61746542 
 8618      75666665 
 8619              	.LASF150:
 8620 0811 64796E5F 		.string	"dyn_mailbox_t"
 8620      6D61696C 
 8620      626F785F 
 8620      7400
 8621              	.LASF17:
 8622 081f 6C6F6E67 		.string	"long long unsigned int"
 8622      206C6F6E 
 8622      6720756E 
 8622      7369676E 
 8622      65642069 
 8623              	.LASF114:
 8624 0836 69646C65 		.string	"idlestack_base"
 8624      73746163 
 8624      6B5F6261 
 8624      736500
 8625              	.LASF72:
 8626 0845 63685F71 		.string	"ch_queue"
 8626      75657565 
 8626      00
 8627              	.LASF130:
 8628 084e 706F6F6C 		.string	"pool"
 8628      00
 8629              	.LASF27:
 8630 0853 6D73675F 		.string	"msg_t"
 8630      7400
 8631              	.LASF93:
 8632 0859 63685F74 		.string	"ch_threads_queue"
 8632      68726561 
 8632      64735F71 
 8632      75657565 
 8632      00
 8633              	.LASF79:
 8634 086a 64656C74 		.string	"delta"
 8634      6100
 8635              	.LASF174:
 8636 0870 65786563 		.string	"execute"
 8636      75746500 
 8637              	.LASF38:
 8638 0878 72656673 		.string	"refs"
 8638      00
 8639              	.LASF90:
 8640 087d 71756575 		.string	"queue"
 8640      6500
 8641              	.LASF178:
 8642 0883 63687465 		.string	"chtest"
 8642      737400
 8643              	.LASF137:
 8644 088a 726D7478 		.string	"rmtx"
 8644      00
 8645              	.LASF58:
 8646 088f 6D61696E 		.string	"mainthread"
 8646      74687265 
 8646      616400
 8647              	.LASF168:
GAS LISTING /tmp/ccwdkvlB.s 			page 166


 8648 089a 746F6B65 		.string	"tokens_buffer"
 8648      6E735F62 
 8648      75666665 
 8648      7200
 8649              	.LASF187:
 8650 08a8 63684661 		.string	"chFactoryReleaseObject"
 8650      63746F72 
 8650      7952656C 
 8650      65617365 
 8650      4F626A65 
 8651              	.LASF190:
 8652 08bf 63684661 		.string	"chFactoryReleaseBuffer"
 8652      63746F72 
 8652      7952656C 
 8652      65617365 
 8652      42756666 
 8653              	.LASF34:
 8654 08d6 77616261 		.string	"wabase"
 8654      736500
 8655              	.LASF129:
 8656 08dd 6D656D6F 		.string	"memory_pool_t"
 8656      72795F70 
 8656      6F6F6C5F 
 8656      7400
 8657              	.LASF157:
 8658 08eb 42617365 		.string	"BaseSequentialStreamVMT"
 8658      53657175 
 8658      656E7469 
 8658      616C5374 
 8658      7265616D 
 8659              	.LASF51:
 8660 0903 726C6973 		.string	"rlist"
 8660      7400
 8661              	.LASF23:
 8662 0909 746D6F64 		.string	"tmode_t"
 8662      655F7400 
 8663              	.LASF219:
 8664 0911 6F736C69 		.string	"oslib_test_009_003_execute"
 8664      625F7465 
 8664      73745F30 
 8664      30395F30 
 8664      30335F65 
 8665              	.LASF151:
 8666 092c 63685F64 		.string	"ch_dyn_objects_fifo"
 8666      796E5F6F 
 8666      626A6563 
 8666      74735F66 
 8666      69666F00 
 8667              	.LASF138:
 8668 0940 70697065 		.string	"pipe_t"
 8668      5F7400
 8669              	.LASF97:
 8670 0947 70717565 		.string	"pqueue"
 8670      756500
 8671              	.LASF122:
 8672 094e 72657365 		.string	"reset"
 8672      7400
GAS LISTING /tmp/ccwdkvlB.s 			page 167


 8673              	.LASF39:
 8674 0954 6E616D65 		.string	"name"
 8674      00
 8675              	.LASF132:
 8676 0959 63685F6F 		.string	"ch_objects_fifo"
 8676      626A6563 
 8676      74735F66 
 8676      69666F00 
 8677              	.LASF203:
 8678 0969 63684661 		.string	"chFactoryCreatePipe"
 8678      63746F72 
 8678      79437265 
 8678      61746550 
 8678      69706500 
 8679              	.LASF111:
 8680 097d 63685F6F 		.string	"ch_os_instance_config"
 8680      735F696E 
 8680      7374616E 
 8680      63655F63 
 8680      6F6E6669 
 8681              	.LASF13:
 8682 0993 73686F72 		.string	"short int"
 8682      7420696E 
 8682      7400
 8683              	.LASF116:
 8684 099d 6F735F69 		.string	"os_instance_config_t"
 8684      6E737461 
 8684      6E63655F 
 8684      636F6E66 
 8684      69675F74 
 8685              	.LASF75:
 8686 09b2 63685F70 		.string	"ch_priority_queue"
 8686      72696F72 
 8686      6974795F 
 8686      71756575 
 8686      6500
 8687              	.LASF22:
 8688 09c4 75696E74 		.string	"uint64_t"
 8688      36345F74 
 8688      00
 8689              	.LASF107:
 8690 09cd 63685F6D 		.string	"ch_mutex"
 8690      75746578 
 8690      00
 8691              	.LASF112:
 8692 09d6 63737461 		.string	"cstack_base"
 8692      636B5F62 
 8692      61736500 
 8693              	.LASF55:
 8694 09e2 72666375 		.string	"rfcu"
 8694      00
 8695              	.LASF44:
 8696 09e7 6D736771 		.string	"msgqueue"
 8696      75657565 
 8696      00
 8697              	.LASF199:
 8698 09f0 63684661 		.string	"chFactoryReleaseObjectsFIFO"
GAS LISTING /tmp/ccwdkvlB.s 			page 168


 8698      63746F72 
 8698      7952656C 
 8698      65617365 
 8698      4F626A65 
 8699              	.LASF63:
 8700 0a0c 63685F73 		.string	"ch_system_debug"
 8700      79737465 
 8700      6D5F6465 
 8700      62756700 
 8701              	.LASF53:
 8702 0a1c 7265676C 		.string	"reglist"
 8702      69737400 
 8703              	.LASF207:
 8704 0a24 64707032 		.string	"dpp2"
 8704      00
 8705              	.LASF169:
 8706 0a29 70757463 		.string	"putchar"
 8706      68617200 
 8707              	.LASF162:
 8708 0a31 74657374 		.string	"test_putchar_t"
 8708      5F707574 
 8708      63686172 
 8708      5F7400
 8709              	.LASF126:
 8710 0a40 6F626A65 		.string	"object_size"
 8710      63745F73 
 8710      697A6500 
 8711              	.LASF52:
 8712 0a4c 76746C69 		.string	"vtlist"
 8712      737400
 8713              	.LASF43:
 8714 0a53 77616974 		.string	"waiting"
 8714      696E6700 
 8715              	.LASF140:
 8716 0a5b 64796E5F 		.string	"dyn_element_t"
 8716      656C656D 
 8716      656E745F 
 8716      7400
 8717              	.LASF118:
 8718 0a69 6D757465 		.string	"mutex_t"
 8718      785F7400 
 8719              	.LASF25:
 8720 0a71 74726566 		.string	"trefs_t"
 8720      735F7400 
 8721              	.LASF82:
 8722 0a79 706F7274 		.string	"port_context"
 8722      5F636F6E 
 8722      74657874 
 8722      00
 8723              	.LASF143:
 8724 0a86 6F626A70 		.string	"objp"
 8724      00
 8725              	.LASF154:
 8726 0a8b 63685F64 		.string	"ch_dyn_pipe"
 8726      796E5F70 
 8726      69706500 
 8727              	.LASF21:
GAS LISTING /tmp/ccwdkvlB.s 			page 169


 8728 0a97 75696E74 		.string	"uint32_t"
 8728      33325F74 
 8728      00
 8729              	.LASF158:
 8730 0aa0 696E7374 		.string	"instance_offset"
 8730      616E6365 
 8730      5F6F6666 
 8730      73657400 
 8731              	.LASF6:
 8732 0ab0 5F466C6F 		.string	"_Float128"
 8732      61743132 
 8732      3800
 8733              	.LASF167:
 8734 0aba 746F6B70 		.string	"tokp"
 8734      00
 8735              	.LASF135:
 8736 0abf 636D7478 		.string	"cmtx"
 8736      00
 8737              	.LASF133:
 8738 0ac4 66726565 		.string	"free"
 8738      00
 8739              	.LASF98:
 8740 0ac9 7264796D 		.string	"rdymsg"
 8740      736700
 8741              	.LASF213:
 8742 0ad0 6F736C69 		.string	"oslib_test_009_006_teardown"
 8742      625F7465 
 8742      73745F30 
 8742      30395F30 
 8742      30365F74 
 8743              	.LASF8:
 8744 0aec 73686F72 		.string	"short unsigned int"
 8744      7420756E 
 8744      7369676E 
 8744      65642069 
 8744      6E7400
 8745              	.LASF232:
 8746 0aff 474E5520 		.string	"GNU C17 11.4.0 -m32 -mtune=generic -march=i686 -ggdb -O2 -ffunction-sections -fdata-secti
 8746      43313720 
 8746      31312E34 
 8746      2E30202D 
 8746      6D333220 
 8747              	.LASF80:
 8748 0bb7 72656778 		.string	"regx86"
 8748      383600
 8749              	.LASF131:
 8750 0bbe 67756172 		.string	"guarded_memory_pool_t"
 8750      6465645F 
 8750      6D656D6F 
 8750      72795F70 
 8750      6F6F6C5F 
 8751              	.LASF14:
 8752 0bd4 5F5F696E 		.string	"__int32_t"
 8752      7433325F 
 8752      7400
 8753              	.LASF163:
 8754 0bde 63757272 		.string	"current_step"
GAS LISTING /tmp/ccwdkvlB.s 			page 170


 8754      656E745F 
 8754      73746570 
 8754      00
 8755              	.LASF206:
 8756 0beb 64707031 		.string	"dpp1"
 8756      00
 8757              	.LASF41:
 8758 0bf0 64697370 		.string	"dispose"
 8758      6F736500 
 8759              	.LASF70:
 8760 0bf8 6E657874 		.string	"next"
 8760      00
 8761              	.LASF123:
 8762 0bfd 6D61696C 		.string	"mailbox_t"
 8762      626F785F 
 8762      7400
 8763              	.LASF117:
 8764 0c07 73656D61 		.string	"semaphore_t"
 8764      70686F72 
 8764      655F7400 
 8765              	.LASF73:
 8766 0c13 70726576 		.string	"prev"
 8766      00
 8767              	.LASF171:
 8768 0c18 63685F74 		.string	"ch_test_context_t"
 8768      6573745F 
 8768      636F6E74 
 8768      6578745F 
 8768      7400
 8769              		.section	.debug_line_str,"MS",@progbits,1
 8770              	.LASF1:
 8771 0000 2F686F6D 		.string	"/home/alex/ChibiOS/demos/various/LAB1"
 8771      652F616C 
 8771      65782F43 
 8771      68696269 
 8771      4F532F64 
 8772              	.LASF0:
 8773 0026 2E2E2F2E 		.string	"../../../test/oslib/source/test/oslib_test_sequence_009.c"
 8773      2E2F2E2E 
 8773      2F746573 
 8773      742F6F73 
 8773      6C69622F 
 8774              		.ident	"GCC: (Ubuntu 11.4.0-1ubuntu1~22.04) 11.4.0"
 8775 0060 2F686F6D 		.section	.note.GNU-stack,"",@progbits
 8775      652F616C 
 8775      65782F43 
 8775      68696269 
 8775      4F532F64 
GAS LISTING /tmp/ccwdkvlB.s 			page 171


DEFINED SYMBOLS
                            *ABS*:0000000000000000 oslib_test_sequence_009.c
     /tmp/ccwdkvlB.s:11     .text.oslib_test_009_006_teardown:0000000000000000 oslib_test_009_006_teardown
     /tmp/ccwdkvlB.s:3155   .text.__x86.get_pc_thunk.bx:0000000000000000 __x86.get_pc_thunk.bx
     /tmp/ccwdkvlB.s:85     .text.oslib_test_009_005_teardown:0000000000000000 oslib_test_009_005_teardown
     /tmp/ccwdkvlB.s:158    .text.oslib_test_009_004_teardown:0000000000000000 oslib_test_009_004_teardown
     /tmp/ccwdkvlB.s:231    .text.oslib_test_009_003_teardown:0000000000000000 oslib_test_009_003_teardown
     /tmp/ccwdkvlB.s:304    .text.oslib_test_009_002_teardown:0000000000000000 oslib_test_009_002_teardown
     /tmp/ccwdkvlB.s:377    .text.oslib_test_009_001_teardown:0000000000000000 oslib_test_009_001_teardown
     /tmp/ccwdkvlB.s:460    .text.oslib_test_009_006_execute:0000000000000000 oslib_test_009_006_execute
     /tmp/ccwdkvlB.s:882    .text.oslib_test_009_005_execute:0000000000000000 oslib_test_009_005_execute
     /tmp/ccwdkvlB.s:1307   .text.oslib_test_009_004_execute:0000000000000000 oslib_test_009_004_execute
     /tmp/ccwdkvlB.s:1728   .text.oslib_test_009_003_execute:0000000000000000 oslib_test_009_003_execute
     /tmp/ccwdkvlB.s:2149   .text.oslib_test_009_002_execute:0000000000000000 oslib_test_009_002_execute
     /tmp/ccwdkvlB.s:2577   .text.oslib_test_009_001_execute:0000000000000000 oslib_test_009_001_execute
     /tmp/ccwdkvlB.s:3053   .data.myobj.1:0000000000000000 myobj.1
     /tmp/ccwdkvlB.s:3047   .data.myobj.0:0000000000000000 myobj.0
     /tmp/ccwdkvlB.s:3063   .data.rel.ro.local.oslib_test_sequence_009:0000000000000000 oslib_test_sequence_009
     /tmp/ccwdkvlB.s:3071   .data.rel.ro.local.oslib_test_sequence_009_array:0000000000000000 oslib_test_sequence_009_array
     /tmp/ccwdkvlB.s:3146   .data.rel.ro.local.oslib_test_009_001:0000000000000000 oslib_test_009_001
     /tmp/ccwdkvlB.s:3134   .data.rel.ro.local.oslib_test_009_002:0000000000000000 oslib_test_009_002
     /tmp/ccwdkvlB.s:3122   .data.rel.ro.local.oslib_test_009_003:0000000000000000 oslib_test_009_003
     /tmp/ccwdkvlB.s:3110   .data.rel.ro.local.oslib_test_009_004:0000000000000000 oslib_test_009_004
     /tmp/ccwdkvlB.s:3098   .data.rel.ro.local.oslib_test_009_005:0000000000000000 oslib_test_009_005
     /tmp/ccwdkvlB.s:3086   .data.rel.ro.local.oslib_test_009_006:0000000000000000 oslib_test_009_006
     /tmp/ccwdkvlB.s:6      .rodata.oslib_test_009_006_teardown.str1.1:0000000000000000 .LC0
     /tmp/ccwdkvlB.s:80     .rodata.oslib_test_009_005_teardown.str1.1:0000000000000000 .LC1
     /tmp/ccwdkvlB.s:153    .rodata.oslib_test_009_004_teardown.str1.1:0000000000000000 .LC2
     /tmp/ccwdkvlB.s:226    .rodata.oslib_test_009_003_teardown.str1.1:0000000000000000 .LC3
     /tmp/ccwdkvlB.s:299    .rodata.oslib_test_009_002_teardown.str1.1:0000000000000000 .LC4
     /tmp/ccwdkvlB.s:372    .rodata.oslib_test_009_001_teardown.str1.1:0000000000000000 .LC5
     /tmp/ccwdkvlB.s:445    .rodata.oslib_test_009_006_execute.str1.1:0000000000000000 .LC6
     /tmp/ccwdkvlB.s:447    .rodata.oslib_test_009_006_execute.str1.1:0000000000000006 .LC7
     /tmp/ccwdkvlB.s:449    .rodata.oslib_test_009_006_execute.str1.1:0000000000000014 .LC8
     /tmp/ccwdkvlB.s:451    .rodata.oslib_test_009_006_execute.str1.1:000000000000001f .LC9
     /tmp/ccwdkvlB.s:453    .rodata.oslib_test_009_006_execute.str1.1:0000000000000029 .LC10
     /tmp/ccwdkvlB.s:455    .rodata.oslib_test_009_006_execute.str1.1:0000000000000043 .LC11
     /tmp/ccwdkvlB.s:2568   .rodata.oslib_test_009_001_execute.str1.1:0000000000000000 .LC12
     /tmp/ccwdkvlB.s:2570   .rodata.oslib_test_009_001_execute.str1.1:0000000000000010 .LC13
     /tmp/ccwdkvlB.s:2572   .rodata.oslib_test_009_001_execute.str1.1:000000000000001d .LC14

UNDEFINED SYMBOLS
_GLOBAL_OFFSET_TABLE_
chFactoryFindPipe
chFactoryReleasePipe
chFactoryFindObjectsFIFO
chFactoryReleaseObjectsFIFO
chFactoryFindMailbox
chFactoryReleaseMailbox
chFactoryFindSemaphore
chFactoryReleaseSemaphore
chFactoryFindBuffer
chFactoryReleaseBuffer
chFactoryFindObject
chFactoryReleaseObject
chtest
__test_assert
GAS LISTING /tmp/ccwdkvlB.s 			page 172


chFactoryCreatePipe
chFactoryCreateObjectsFIFO
chFactoryCreateMailbox
chFactoryCreateSemaphore
chFactoryCreateBuffer
chFactoryRegisterObject
