GAS LISTING /tmp/ccwdkvlB.s 			page 1


   1              		.file	"oslib_test_sequence_009.c"
   2              		.text
   3              	.Ltext0:
   4              		.file 0 "/home/alex/ChibiOS/demos/various/LAB1" "../../../test/oslib/source/test/oslib_test_sequen
   5              		.section	.rodata.oslib_test_009_006_teardown.str1.1,"aMS",@progbits,1
   6              	.LC0:
   7 0000 6D797069 		.string	"mypipe"
   7      706500
   8              		.section	.text.oslib_test_009_006_teardown,"ax",@progbits
   9              		.p2align 4
  10              		.type	oslib_test_009_006_teardown, @function
  11              	oslib_test_009_006_teardown:
  12              	.LFB313:
  13              		.file 1 "../../../test/oslib/source/test/oslib_test_sequence_009.c"
  14              		.loc 1 689 47 view -0
  15              		.cfi_startproc
  16              		.loc 1 690 3 view .LVU1
  17              		.loc 1 692 3 view .LVU2
  18              		.loc 1 689 47 is_stmt 0 view .LVU3
  19 0000 56       		pushl	%esi
  20              		.cfi_def_cfa_offset 8
  21              		.cfi_offset 6, -8
  22 0001 53       		pushl	%ebx
  23              		.cfi_def_cfa_offset 12
  24              		.cfi_offset 3, -12
  25 0002 E8FCFFFF 		call	__x86.get_pc_thunk.bx
  25      FF
  26 0007 81C30200 		addl	$_GLOBAL_OFFSET_TABLE_, %ebx
  26      0000
  27 000d 83EC10   		subl	$16, %esp
  28              		.cfi_def_cfa_offset 28
  29              		.loc 1 692 9 view .LVU4
  30 0010 8D830000 		leal	.LC0@GOTOFF(%ebx), %eax
  30      0000
  31 0016 50       		pushl	%eax
  32              		.cfi_def_cfa_offset 32
  33 0017 E8FCFFFF 		call	chFactoryFindPipe@PLT
  33      FF
  34              	.LVL0:
  35              		.loc 1 693 3 is_stmt 1 view .LVU5
  36              		.loc 1 693 6 is_stmt 0 view .LVU6
  37 001c 83C410   		addl	$16, %esp
  38              		.cfi_def_cfa_offset 16
  39 001f 85C0     		testl	%eax, %eax
  40 0021 7420     		je	.L1
  41              		.loc 1 694 30 view .LVU7
  42 0023 8B5004   		movl	4(%eax), %edx
  43 0026 89C6     		movl	%eax, %esi
  44              		.loc 1 694 30 is_stmt 1 view .LVU8
  45 0028 85D2     		testl	%edx, %edx
  46 002a 7417     		je	.L1
  47              	.LVL1:
  48 002c 8D742600 		.p2align 4,,10
  49              		.p2align 3
  50              	.L3:
  51              		.loc 1 695 7 view .LVU9
  52 0030 83EC0C   		subl	$12, %esp
GAS LISTING /tmp/ccwdkvlB.s 			page 2


  53              		.cfi_def_cfa_offset 28
  54 0033 56       		pushl	%esi
  55              		.cfi_def_cfa_offset 32
  56 0034 E8FCFFFF 		call	chFactoryReleasePipe@PLT
  56      FF
  57              	.LVL2:
  58              		.loc 1 694 30 view .LVU10
  59 0039 8B4604   		movl	4(%esi), %eax
  60 003c 83C410   		addl	$16, %esp
  61              		.cfi_def_cfa_offset 16
  62 003f 85C0     		testl	%eax, %eax
  63 0041 75ED     		jne	.L3
  64              	.LVL3:
  65              	.L1:
  66              		.loc 1 698 1 is_stmt 0 view .LVU11
  67 0043 83C404   		addl	$4, %esp
  68              		.cfi_def_cfa_offset 12
  69 0046 5B       		popl	%ebx
  70              		.cfi_restore 3
  71              		.cfi_def_cfa_offset 8
  72 0047 5E       		popl	%esi
  73              		.cfi_restore 6
  74              		.cfi_def_cfa_offset 4
  75 0048 C3       		ret
  76              		.cfi_endproc
  77              	.LFE313:
  78              		.size	oslib_test_009_006_teardown, .-oslib_test_009_006_teardown
  79              		.section	.rodata.oslib_test_009_005_teardown.str1.1,"aMS",@progbits,1
  80              	.LC1:
  81 0000 6D796669 		.string	"myfifo"
  81      666F00
  82              		.section	.text.oslib_test_009_005_teardown,"ax",@progbits
  83              		.p2align 4
  84              		.type	oslib_test_009_005_teardown, @function
  85              	oslib_test_009_005_teardown:
  86              	.LFB311:
  87              		.loc 1 570 47 is_stmt 1 view -0
  88              		.cfi_startproc
  89              		.loc 1 571 3 view .LVU13
  90              		.loc 1 573 3 view .LVU14
  91              		.loc 1 570 47 is_stmt 0 view .LVU15
  92 0000 56       		pushl	%esi
  93              		.cfi_def_cfa_offset 8
  94              		.cfi_offset 6, -8
  95 0001 53       		pushl	%ebx
  96              		.cfi_def_cfa_offset 12
  97              		.cfi_offset 3, -12
  98 0002 E8FCFFFF 		call	__x86.get_pc_thunk.bx
  98      FF
  99 0007 81C30200 		addl	$_GLOBAL_OFFSET_TABLE_, %ebx
  99      0000
 100 000d 83EC10   		subl	$16, %esp
 101              		.cfi_def_cfa_offset 28
 102              		.loc 1 573 10 view .LVU16
 103 0010 8D830000 		leal	.LC1@GOTOFF(%ebx), %eax
 103      0000
 104 0016 50       		pushl	%eax
GAS LISTING /tmp/ccwdkvlB.s 			page 3


 105              		.cfi_def_cfa_offset 32
 106 0017 E8FCFFFF 		call	chFactoryFindObjectsFIFO@PLT
 106      FF
 107              	.LVL4:
 108              		.loc 1 574 3 is_stmt 1 view .LVU17
 109              		.loc 1 574 6 is_stmt 0 view .LVU18
 110 001c 83C410   		addl	$16, %esp
 111              		.cfi_def_cfa_offset 16
 112 001f 85C0     		testl	%eax, %eax
 113 0021 7420     		je	.L10
 114              		.loc 1 575 31 view .LVU19
 115 0023 8B5004   		movl	4(%eax), %edx
 116 0026 89C6     		movl	%eax, %esi
 117              		.loc 1 575 31 is_stmt 1 view .LVU20
 118 0028 85D2     		testl	%edx, %edx
 119 002a 7417     		je	.L10
 120              	.LVL5:
 121 002c 8D742600 		.p2align 4,,10
 122              		.p2align 3
 123              	.L12:
 124              		.loc 1 576 7 view .LVU21
 125 0030 83EC0C   		subl	$12, %esp
 126              		.cfi_def_cfa_offset 28
 127 0033 56       		pushl	%esi
 128              		.cfi_def_cfa_offset 32
 129 0034 E8FCFFFF 		call	chFactoryReleaseObjectsFIFO@PLT
 129      FF
 130              	.LVL6:
 131              		.loc 1 575 31 view .LVU22
 132 0039 8B4604   		movl	4(%esi), %eax
 133 003c 83C410   		addl	$16, %esp
 134              		.cfi_def_cfa_offset 16
 135 003f 85C0     		testl	%eax, %eax
 136 0041 75ED     		jne	.L12
 137              	.LVL7:
 138              	.L10:
 139              		.loc 1 579 1 is_stmt 0 view .LVU23
 140 0043 83C404   		addl	$4, %esp
 141              		.cfi_def_cfa_offset 12
 142 0046 5B       		popl	%ebx
 143              		.cfi_restore 3
 144              		.cfi_def_cfa_offset 8
 145 0047 5E       		popl	%esi
 146              		.cfi_restore 6
 147              		.cfi_def_cfa_offset 4
 148 0048 C3       		ret
 149              		.cfi_endproc
 150              	.LFE311:
 151              		.size	oslib_test_009_005_teardown, .-oslib_test_009_005_teardown
 152              		.section	.rodata.oslib_test_009_004_teardown.str1.1,"aMS",@progbits,1
 153              	.LC2:
 154 0000 6D796D62 		.string	"mymbx"
 154      7800
 155              		.section	.text.oslib_test_009_004_teardown,"ax",@progbits
 156              		.p2align 4
 157              		.type	oslib_test_009_004_teardown, @function
 158              	oslib_test_009_004_teardown:
GAS LISTING /tmp/ccwdkvlB.s 			page 4


 159              	.LFB309:
 160              		.loc 1 449 47 is_stmt 1 view -0
 161              		.cfi_startproc
 162              		.loc 1 450 3 view .LVU25
 163              		.loc 1 452 3 view .LVU26
 164              		.loc 1 449 47 is_stmt 0 view .LVU27
 165 0000 56       		pushl	%esi
 166              		.cfi_def_cfa_offset 8
 167              		.cfi_offset 6, -8
 168 0001 53       		pushl	%ebx
 169              		.cfi_def_cfa_offset 12
 170              		.cfi_offset 3, -12
 171 0002 E8FCFFFF 		call	__x86.get_pc_thunk.bx
 171      FF
 172 0007 81C30200 		addl	$_GLOBAL_OFFSET_TABLE_, %ebx
 172      0000
 173 000d 83EC10   		subl	$16, %esp
 174              		.cfi_def_cfa_offset 28
 175              		.loc 1 452 9 view .LVU28
 176 0010 8D830000 		leal	.LC2@GOTOFF(%ebx), %eax
 176      0000
 177 0016 50       		pushl	%eax
 178              		.cfi_def_cfa_offset 32
 179 0017 E8FCFFFF 		call	chFactoryFindMailbox@PLT
 179      FF
 180              	.LVL8:
 181              		.loc 1 453 3 is_stmt 1 view .LVU29
 182              		.loc 1 453 6 is_stmt 0 view .LVU30
 183 001c 83C410   		addl	$16, %esp
 184              		.cfi_def_cfa_offset 16
 185 001f 85C0     		testl	%eax, %eax
 186 0021 7420     		je	.L18
 187              		.loc 1 454 30 view .LVU31
 188 0023 8B5004   		movl	4(%eax), %edx
 189 0026 89C6     		movl	%eax, %esi
 190              		.loc 1 454 30 is_stmt 1 view .LVU32
 191 0028 85D2     		testl	%edx, %edx
 192 002a 7417     		je	.L18
 193              	.LVL9:
 194 002c 8D742600 		.p2align 4,,10
 195              		.p2align 3
 196              	.L20:
 197              		.loc 1 455 7 view .LVU33
 198 0030 83EC0C   		subl	$12, %esp
 199              		.cfi_def_cfa_offset 28
 200 0033 56       		pushl	%esi
 201              		.cfi_def_cfa_offset 32
 202 0034 E8FCFFFF 		call	chFactoryReleaseMailbox@PLT
 202      FF
 203              	.LVL10:
 204              		.loc 1 454 30 view .LVU34
 205 0039 8B4604   		movl	4(%esi), %eax
 206 003c 83C410   		addl	$16, %esp
 207              		.cfi_def_cfa_offset 16
 208 003f 85C0     		testl	%eax, %eax
 209 0041 75ED     		jne	.L20
 210              	.LVL11:
GAS LISTING /tmp/ccwdkvlB.s 			page 5


 211              	.L18:
 212              		.loc 1 458 1 is_stmt 0 view .LVU35
 213 0043 83C404   		addl	$4, %esp
 214              		.cfi_def_cfa_offset 12
 215 0046 5B       		popl	%ebx
 216              		.cfi_restore 3
 217              		.cfi_def_cfa_offset 8
 218 0047 5E       		popl	%esi
 219              		.cfi_restore 6
 220              		.cfi_def_cfa_offset 4
 221 0048 C3       		ret
 222              		.cfi_endproc
 223              	.LFE309:
 224              		.size	oslib_test_009_004_teardown, .-oslib_test_009_004_teardown
 225              		.section	.rodata.oslib_test_009_003_teardown.str1.1,"aMS",@progbits,1
 226              	.LC3:
 227 0000 6D797365 		.string	"mysem"
 227      6D00
 228              		.section	.text.oslib_test_009_003_teardown,"ax",@progbits
 229              		.p2align 4
 230              		.type	oslib_test_009_003_teardown, @function
 231              	oslib_test_009_003_teardown:
 232              	.LFB307:
 233              		.loc 1 329 47 is_stmt 1 view -0
 234              		.cfi_startproc
 235              		.loc 1 330 3 view .LVU37
 236              		.loc 1 332 3 view .LVU38
 237              		.loc 1 329 47 is_stmt 0 view .LVU39
 238 0000 56       		pushl	%esi
 239              		.cfi_def_cfa_offset 8
 240              		.cfi_offset 6, -8
 241 0001 53       		pushl	%ebx
 242              		.cfi_def_cfa_offset 12
 243              		.cfi_offset 3, -12
 244 0002 E8FCFFFF 		call	__x86.get_pc_thunk.bx
 244      FF
 245 0007 81C30200 		addl	$_GLOBAL_OFFSET_TABLE_, %ebx
 245      0000
 246 000d 83EC10   		subl	$16, %esp
 247              		.cfi_def_cfa_offset 28
 248              		.loc 1 332 9 view .LVU40
 249 0010 8D830000 		leal	.LC3@GOTOFF(%ebx), %eax
 249      0000
 250 0016 50       		pushl	%eax
 251              		.cfi_def_cfa_offset 32
 252 0017 E8FCFFFF 		call	chFactoryFindSemaphore@PLT
 252      FF
 253              	.LVL12:
 254              		.loc 1 333 3 is_stmt 1 view .LVU41
 255              		.loc 1 333 6 is_stmt 0 view .LVU42
 256 001c 83C410   		addl	$16, %esp
 257              		.cfi_def_cfa_offset 16
 258 001f 85C0     		testl	%eax, %eax
 259 0021 7420     		je	.L26
 260              		.loc 1 334 30 view .LVU43
 261 0023 8B5004   		movl	4(%eax), %edx
 262 0026 89C6     		movl	%eax, %esi
GAS LISTING /tmp/ccwdkvlB.s 			page 6


 263              		.loc 1 334 30 is_stmt 1 view .LVU44
 264 0028 85D2     		testl	%edx, %edx
 265 002a 7417     		je	.L26
 266              	.LVL13:
 267 002c 8D742600 		.p2align 4,,10
 268              		.p2align 3
 269              	.L28:
 270              		.loc 1 335 7 view .LVU45
 271 0030 83EC0C   		subl	$12, %esp
 272              		.cfi_def_cfa_offset 28
 273 0033 56       		pushl	%esi
 274              		.cfi_def_cfa_offset 32
 275 0034 E8FCFFFF 		call	chFactoryReleaseSemaphore@PLT
 275      FF
 276              	.LVL14:
 277              		.loc 1 334 30 view .LVU46
 278 0039 8B4604   		movl	4(%esi), %eax
 279 003c 83C410   		addl	$16, %esp
 280              		.cfi_def_cfa_offset 16
 281 003f 85C0     		testl	%eax, %eax
 282 0041 75ED     		jne	.L28
 283              	.LVL15:
 284              	.L26:
 285              		.loc 1 338 1 is_stmt 0 view .LVU47
 286 0043 83C404   		addl	$4, %esp
 287              		.cfi_def_cfa_offset 12
 288 0046 5B       		popl	%ebx
 289              		.cfi_restore 3
 290              		.cfi_def_cfa_offset 8
 291 0047 5E       		popl	%esi
 292              		.cfi_restore 6
 293              		.cfi_def_cfa_offset 4
 294 0048 C3       		ret
 295              		.cfi_endproc
 296              	.LFE307:
 297              		.size	oslib_test_009_003_teardown, .-oslib_test_009_003_teardown
 298              		.section	.rodata.oslib_test_009_002_teardown.str1.1,"aMS",@progbits,1
 299              	.LC4:
 300 0000 6D796275 		.string	"mybuf"
 300      6600
 301              		.section	.text.oslib_test_009_002_teardown,"ax",@progbits
 302              		.p2align 4
 303              		.type	oslib_test_009_002_teardown, @function
 304              	oslib_test_009_002_teardown:
 305              	.LFB305:
 306              		.loc 1 209 47 is_stmt 1 view -0
 307              		.cfi_startproc
 308              		.loc 1 210 3 view .LVU49
 309              		.loc 1 212 3 view .LVU50
 310              		.loc 1 209 47 is_stmt 0 view .LVU51
 311 0000 56       		pushl	%esi
 312              		.cfi_def_cfa_offset 8
 313              		.cfi_offset 6, -8
 314 0001 53       		pushl	%ebx
 315              		.cfi_def_cfa_offset 12
 316              		.cfi_offset 3, -12
 317 0002 E8FCFFFF 		call	__x86.get_pc_thunk.bx
GAS LISTING /tmp/ccwdkvlB.s 			page 7


 317      FF
 318 0007 81C30200 		addl	$_GLOBAL_OFFSET_TABLE_, %ebx
 318      0000
 319 000d 83EC10   		subl	$16, %esp
 320              		.cfi_def_cfa_offset 28
 321              		.loc 1 212 9 view .LVU52
 322 0010 8D830000 		leal	.LC4@GOTOFF(%ebx), %eax
 322      0000
 323 0016 50       		pushl	%eax
 324              		.cfi_def_cfa_offset 32
 325 0017 E8FCFFFF 		call	chFactoryFindBuffer@PLT
 325      FF
 326              	.LVL16:
 327              		.loc 1 213 3 is_stmt 1 view .LVU53
 328              		.loc 1 213 6 is_stmt 0 view .LVU54
 329 001c 83C410   		addl	$16, %esp
 330              		.cfi_def_cfa_offset 16
 331 001f 85C0     		testl	%eax, %eax
 332 0021 7420     		je	.L34
 333              		.loc 1 214 30 view .LVU55
 334 0023 8B5004   		movl	4(%eax), %edx
 335 0026 89C6     		movl	%eax, %esi
 336              		.loc 1 214 30 is_stmt 1 view .LVU56
 337 0028 85D2     		testl	%edx, %edx
 338 002a 7417     		je	.L34
 339              	.LVL17:
 340 002c 8D742600 		.p2align 4,,10
 341              		.p2align 3
 342              	.L36:
 343              		.loc 1 215 7 view .LVU57
 344 0030 83EC0C   		subl	$12, %esp
 345              		.cfi_def_cfa_offset 28
 346 0033 56       		pushl	%esi
 347              		.cfi_def_cfa_offset 32
 348 0034 E8FCFFFF 		call	chFactoryReleaseBuffer@PLT
 348      FF
 349              	.LVL18:
 350              		.loc 1 214 30 view .LVU58
 351 0039 8B4604   		movl	4(%esi), %eax
 352 003c 83C410   		addl	$16, %esp
 353              		.cfi_def_cfa_offset 16
 354 003f 85C0     		testl	%eax, %eax
 355 0041 75ED     		jne	.L36
 356              	.LVL19:
 357              	.L34:
 358              		.loc 1 218 1 is_stmt 0 view .LVU59
 359 0043 83C404   		addl	$4, %esp
 360              		.cfi_def_cfa_offset 12
 361 0046 5B       		popl	%ebx
 362              		.cfi_restore 3
 363              		.cfi_def_cfa_offset 8
 364 0047 5E       		popl	%esi
 365              		.cfi_restore 6
 366              		.cfi_def_cfa_offset 4
 367 0048 C3       		ret
 368              		.cfi_endproc
 369              	.LFE305:
GAS LISTING /tmp/ccwdkvlB.s 			page 8


 370              		.size	oslib_test_009_002_teardown, .-oslib_test_009_002_teardown
 371              		.section	.rodata.oslib_test_009_001_teardown.str1.1,"aMS",@progbits,1
 372              	.LC5:
 373 0000 6D796F62 		.string	"myobj"
 373      6A00
 374              		.section	.text.oslib_test_009_001_teardown,"ax",@progbits
 375              		.p2align 4
 376              		.type	oslib_test_009_001_teardown, @function
 377              	oslib_test_009_001_teardown:
 378              	.LFB303:
 379              		.loc 1 86 47 is_stmt 1 view -0
 380              		.cfi_startproc
 381              		.loc 1 87 3 view .LVU61
 382              		.loc 1 89 3 view .LVU62
 383              		.loc 1 86 47 is_stmt 0 view .LVU63
 384 0000 56       		pushl	%esi
 385              		.cfi_def_cfa_offset 8
 386              		.cfi_offset 6, -8
 387 0001 53       		pushl	%ebx
 388              		.cfi_def_cfa_offset 12
 389              		.cfi_offset 3, -12
 390 0002 E8FCFFFF 		call	__x86.get_pc_thunk.bx
 390      FF
 391 0007 81C30200 		addl	$_GLOBAL_OFFSET_TABLE_, %ebx
 391      0000
 392 000d 83EC10   		subl	$16, %esp
 393              		.cfi_def_cfa_offset 28
 394              		.loc 1 89 9 view .LVU64
 395 0010 8D830000 		leal	.LC5@GOTOFF(%ebx), %eax
 395      0000
 396 0016 50       		pushl	%eax
 397              		.cfi_def_cfa_offset 32
 398 0017 E8FCFFFF 		call	chFactoryFindObject@PLT
 398      FF
 399              	.LVL20:
 400              		.loc 1 90 3 is_stmt 1 view .LVU65
 401              		.loc 1 90 6 is_stmt 0 view .LVU66
 402 001c 83C410   		addl	$16, %esp
 403              		.cfi_def_cfa_offset 16
 404 001f 85C0     		testl	%eax, %eax
 405 0021 7420     		je	.L42
 406              		.loc 1 91 30 view .LVU67
 407 0023 8B5004   		movl	4(%eax), %edx
 408 0026 89C6     		movl	%eax, %esi
 409              		.loc 1 91 30 is_stmt 1 view .LVU68
 410 0028 85D2     		testl	%edx, %edx
 411 002a 7417     		je	.L42
 412              	.LVL21:
 413 002c 8D742600 		.p2align 4,,10
 414              		.p2align 3
 415              	.L44:
 416              		.loc 1 92 7 view .LVU69
 417 0030 83EC0C   		subl	$12, %esp
 418              		.cfi_def_cfa_offset 28
 419 0033 56       		pushl	%esi
 420              		.cfi_def_cfa_offset 32
 421 0034 E8FCFFFF 		call	chFactoryReleaseObject@PLT
GAS LISTING /tmp/ccwdkvlB.s 			page 9


 421      FF
 422              	.LVL22:
 423              		.loc 1 91 30 view .LVU70
 424 0039 8B4604   		movl	4(%esi), %eax
 425 003c 83C410   		addl	$16, %esp
 426              		.cfi_def_cfa_offset 16
 427 003f 85C0     		testl	%eax, %eax
 428 0041 75ED     		jne	.L44
 429              	.LVL23:
 430              	.L42:
 431              		.loc 1 95 1 is_stmt 0 view .LVU71
 432 0043 83C404   		addl	$4, %esp
 433              		.cfi_def_cfa_offset 12
 434 0046 5B       		popl	%ebx
 435              		.cfi_restore 3
 436              		.cfi_def_cfa_offset 8
 437 0047 5E       		popl	%esi
 438              		.cfi_restore 6
 439              		.cfi_def_cfa_offset 4
 440 0048 C3       		ret
 441              		.cfi_endproc
 442              	.LFE303:
 443              		.size	oslib_test_009_001_teardown, .-oslib_test_009_001_teardown
 444              		.section	.rodata.oslib_test_009_006_execute.str1.1,"aMS",@progbits,1
 445              	.LC6:
 446 0000 666F756E 		.string	"found"
 446      6400
 447              	.LC7:
 448 0006 63616E6E 		.string	"cannot create"
 448      6F742063 
 448      72656174 
 448      6500
 449              	.LC8:
 450 0014 63616E20 		.string	"can create"
 450      63726561 
 450      746500
 451              	.LC9:
 452 001f 6E6F7420 		.string	"not found"
 452      666F756E 
 452      6400
 453              	.LC10:
 454 0029 6F626A65 		.string	"object reference mismatch"
 454      63742072 
 454      65666572 
 454      656E6365 
 454      206D6973 
 455              	.LC11:
 456 0043 72656665 		.string	"references mismatch"
 456      72656E63 
 456      6573206D 
 456      69736D61 
 456      74636800 
 457              		.section	.text.oslib_test_009_006_execute,"ax",@progbits
 458              		.p2align 4
 459              		.type	oslib_test_009_006_execute, @function
 460              	oslib_test_009_006_execute:
 461              	.LFB314:
GAS LISTING /tmp/ccwdkvlB.s 			page 10


 462              		.loc 1 700 46 is_stmt 1 view -0
 463              		.cfi_startproc
 464              		.loc 1 701 3 view .LVU73
 465              		.loc 1 704 3 view .LVU74
 466              		.loc 1 700 46 is_stmt 0 view .LVU75
 467 0000 55       		pushl	%ebp
 468              		.cfi_def_cfa_offset 8
 469              		.cfi_offset 5, -8
 470 0001 57       		pushl	%edi
 471              		.cfi_def_cfa_offset 12
 472              		.cfi_offset 7, -12
 473 0002 56       		pushl	%esi
 474              		.cfi_def_cfa_offset 16
 475              		.cfi_offset 6, -16
 476 0003 53       		pushl	%ebx
 477              		.cfi_def_cfa_offset 20
 478              		.cfi_offset 3, -20
 479 0004 E8FCFFFF 		call	__x86.get_pc_thunk.bx
 479      FF
 480 0009 81C30200 		addl	$_GLOBAL_OFFSET_TABLE_, %ebx
 480      0000
 481 000f 83EC28   		subl	$40, %esp
 482              		.cfi_def_cfa_offset 60
 483              		.loc 1 706 11 view .LVU76
 484 0012 8DBB0000 		leal	.LC0@GOTOFF(%ebx), %edi
 484      0000
 485              		.loc 1 704 3 view .LVU77
 486 0018 8BB30000 		movl	chtest@GOT(%ebx), %esi
 486      0000
 487              		.loc 1 706 11 view .LVU78
 488 001e 57       		pushl	%edi
 489              		.cfi_def_cfa_offset 64
 490              		.loc 1 704 3 view .LVU79
 491 001f C7060100 		movl	$1, (%esi)
 491      0000
 492              		.loc 1 706 5 is_stmt 1 view .LVU80
 493              		.loc 1 706 11 is_stmt 0 view .LVU81
 494 0025 E8FCFFFF 		call	chFactoryFindPipe@PLT
 494      FF
 495              	.LVL24:
 496              		.loc 1 707 5 is_stmt 1 view .LVU82
 497 002a 59       		popl	%ecx
 498              		.cfi_def_cfa_offset 60
 499 002b 5D       		popl	%ebp
 500              		.cfi_def_cfa_offset 56
 501 002c 8DAB0000 		leal	.LC6@GOTOFF(%ebx), %ebp
 501      0000
 502 0032 85C0     		testl	%eax, %eax
 503 0034 55       		pushl	%ebp
 504              		.cfi_def_cfa_offset 60
 505 0035 0F94C0   		sete	%al
 506              	.LVL25:
 507              		.loc 1 707 5 is_stmt 0 view .LVU83
 508 0038 0FB6C0   		movzbl	%al, %eax
 509 003b 50       		pushl	%eax
 510              		.cfi_def_cfa_offset 64
 511 003c E8FCFFFF 		call	__test_assert@PLT
GAS LISTING /tmp/ccwdkvlB.s 			page 11


 511      FF
 512              	.LVL26:
 513 0041 83C410   		addl	$16, %esp
 514              		.cfi_def_cfa_offset 48
 515 0044 84C0     		testb	%al, %al
 516 0046 7408     		je	.L55
 517              	.L50:
 518              		.loc 1 770 1 view .LVU84
 519 0048 83C41C   		addl	$28, %esp
 520              		.cfi_remember_state
 521              		.cfi_def_cfa_offset 20
 522 004b 5B       		popl	%ebx
 523              		.cfi_restore 3
 524              		.cfi_def_cfa_offset 16
 525 004c 5E       		popl	%esi
 526              		.cfi_restore 6
 527              		.cfi_def_cfa_offset 12
 528 004d 5F       		popl	%edi
 529              		.cfi_restore 7
 530              		.cfi_def_cfa_offset 8
 531 004e 5D       		popl	%ebp
 532              		.cfi_restore 5
 533              		.cfi_def_cfa_offset 4
 534 004f C3       		ret
 535              		.p2align 4,,10
 536              		.p2align 3
 537              	.L55:
 538              		.cfi_restore_state
 539              	.LBB58:
 540              	.LBI58:
 541              		.loc 1 700 13 is_stmt 1 view .LVU85
 542              	.LBB59:
 543              		.loc 1 707 38 view .LVU86
 544              		.loc 1 709 3 view .LVU87
 545              		.loc 1 709 19 view .LVU88
 546              		.loc 1 713 3 view .LVU89
 547              		.loc 1 715 11 is_stmt 0 view .LVU90
 548 0050 83EC08   		subl	$8, %esp
 549              		.cfi_def_cfa_offset 56
 550              		.loc 1 713 3 view .LVU91
 551 0053 C7060200 		movl	$2, (%esi)
 551      0000
 552              		.loc 1 715 5 is_stmt 1 view .LVU92
 553              		.loc 1 715 11 is_stmt 0 view .LVU93
 554 0059 6A10     		pushl	$16
 555              		.cfi_def_cfa_offset 60
 556 005b 57       		pushl	%edi
 557              		.cfi_def_cfa_offset 64
 558 005c E8FCFFFF 		call	chFactoryCreatePipe@PLT
 558      FF
 559              	.LVL27:
 560 0061 89C1     		movl	%eax, %ecx
 561              	.LVL28:
 562              		.loc 1 716 5 is_stmt 1 view .LVU94
 563 0063 58       		popl	%eax
 564              		.cfi_def_cfa_offset 60
 565              	.LVL29:
GAS LISTING /tmp/ccwdkvlB.s 			page 12


 566              		.loc 1 716 5 is_stmt 0 view .LVU95
 567 0064 8D830000 		leal	.LC7@GOTOFF(%ebx), %eax
 567      0000
 568 006a 5A       		popl	%edx
 569              		.cfi_def_cfa_offset 56
 570 006b 85C9     		testl	%ecx, %ecx
 571 006d 50       		pushl	%eax
 572              		.cfi_def_cfa_offset 60
 573 006e 0F95C0   		setne	%al
 574 0071 0FB6C0   		movzbl	%al, %eax
 575 0074 894C2410 		movl	%ecx, 16(%esp)
 576 0078 50       		pushl	%eax
 577              		.cfi_def_cfa_offset 64
 578 0079 E8FCFFFF 		call	__test_assert@PLT
 578      FF
 579              	.LVL30:
 580              		.loc 1 716 5 view .LVU96
 581 007e 83C410   		addl	$16, %esp
 582              		.cfi_def_cfa_offset 48
 583 0081 84C0     		testb	%al, %al
 584 0083 75C3     		jne	.L50
 585              		.loc 1 716 46 is_stmt 1 view .LVU97
 586              		.loc 1 718 3 view .LVU98
 587              		.loc 1 718 19 view .LVU99
 588              		.loc 1 721 3 view .LVU100
 589              	.LBB60:
 590              		.loc 1 725 12 is_stmt 0 view .LVU101
 591 0085 83EC08   		subl	$8, %esp
 592              		.cfi_def_cfa_offset 56
 593              	.LBE60:
 594              		.loc 1 721 3 view .LVU102
 595 0088 C7060300 		movl	$3, (%esi)
 595      0000
 596              	.LBB61:
 597              		.loc 1 723 5 is_stmt 1 view .LVU103
 598              		.loc 1 725 5 view .LVU104
 599              		.loc 1 725 12 is_stmt 0 view .LVU105
 600 008e 6A10     		pushl	$16
 601              		.cfi_def_cfa_offset 60
 602 0090 57       		pushl	%edi
 603              		.cfi_def_cfa_offset 64
 604 0091 E8FCFFFF 		call	chFactoryCreatePipe@PLT
 604      FF
 605              	.LVL31:
 606              		.loc 1 726 5 is_stmt 1 view .LVU106
 607 0096 5A       		popl	%edx
 608              		.cfi_def_cfa_offset 60
 609 0097 8D930000 		leal	.LC8@GOTOFF(%ebx), %edx
 609      0000
 610 009d 59       		popl	%ecx
 611              		.cfi_def_cfa_offset 56
 612 009e 85C0     		testl	%eax, %eax
 613 00a0 52       		pushl	%edx
 614              		.cfi_def_cfa_offset 60
 615 00a1 0F94C0   		sete	%al
 616              	.LVL32:
 617              		.loc 1 726 5 is_stmt 0 view .LVU107
GAS LISTING /tmp/ccwdkvlB.s 			page 13


 618 00a4 0FB6C0   		movzbl	%al, %eax
 619 00a7 50       		pushl	%eax
 620              		.cfi_def_cfa_offset 64
 621 00a8 E8FCFFFF 		call	__test_assert@PLT
 621      FF
 622              	.LVL33:
 623 00ad 83C410   		addl	$16, %esp
 624              		.cfi_def_cfa_offset 48
 625 00b0 84C0     		testb	%al, %al
 626 00b2 7594     		jne	.L50
 627              		.loc 1 726 44 is_stmt 1 view .LVU108
 628              	.LBE61:
 629              		.loc 1 728 3 view .LVU109
 630              		.loc 1 728 19 view .LVU110
 631              		.loc 1 733 3 view .LVU111
 632              	.LBB62:
 633              		.loc 1 737 12 is_stmt 0 view .LVU112
 634 00b4 83EC0C   		subl	$12, %esp
 635              		.cfi_def_cfa_offset 60
 636              	.LBE62:
 637              		.loc 1 733 3 view .LVU113
 638 00b7 C7060400 		movl	$4, (%esi)
 638      0000
 639              	.LBB67:
 640              		.loc 1 735 5 is_stmt 1 view .LVU114
 641              		.loc 1 737 5 view .LVU115
 642              		.loc 1 737 12 is_stmt 0 view .LVU116
 643 00bd 57       		pushl	%edi
 644              		.cfi_def_cfa_offset 64
 645 00be E8FCFFFF 		call	chFactoryFindPipe@PLT
 645      FF
 646              	.LVL34:
 647 00c3 89C2     		movl	%eax, %edx
 648              	.LVL35:
 649              		.loc 1 738 5 is_stmt 1 view .LVU117
 650 00c5 58       		popl	%eax
 651              		.cfi_def_cfa_offset 60
 652              	.LVL36:
 653              		.loc 1 738 5 is_stmt 0 view .LVU118
 654 00c6 8D830000 		leal	.LC9@GOTOFF(%ebx), %eax
 654      0000
 655 00cc 59       		popl	%ecx
 656              		.cfi_def_cfa_offset 56
 657 00cd 50       		pushl	%eax
 658              		.cfi_def_cfa_offset 60
 659 00ce 31C0     		xorl	%eax, %eax
 660 00d0 85D2     		testl	%edx, %edx
 661 00d2 0F95C0   		setne	%al
 662 00d5 89542414 		movl	%edx, 20(%esp)
 663 00d9 50       		pushl	%eax
 664              		.cfi_def_cfa_offset 64
 665 00da E8FCFFFF 		call	__test_assert@PLT
 665      FF
 666              	.LVL37:
 667              		.loc 1 738 5 view .LVU119
 668 00df 83C410   		addl	$16, %esp
 669              		.cfi_def_cfa_offset 48
GAS LISTING /tmp/ccwdkvlB.s 			page 14


 670 00e2 84C0     		testb	%al, %al
 671 00e4 0F855EFF 		jne	.L50
 671      FFFF
 672              		.loc 1 738 43 is_stmt 1 view .LVU120
 673              		.loc 1 739 5 view .LVU121
 674 00ea 83EC08   		subl	$8, %esp
 675              		.cfi_def_cfa_offset 56
 676 00ed 8D930000 		leal	.LC10@GOTOFF(%ebx), %edx
 676      0000
 677 00f3 31C0     		xorl	%eax, %eax
 678 00f5 89542414 		movl	%edx, 20(%esp)
 679 00f9 52       		pushl	%edx
 680              		.cfi_def_cfa_offset 60
 681 00fa 8B542414 		movl	20(%esp), %edx
 682 00fe 39542410 		cmpl	%edx, 16(%esp)
 683 0102 0F94C0   		sete	%al
 684 0105 50       		pushl	%eax
 685              		.cfi_def_cfa_offset 64
 686 0106 E8FCFFFF 		call	__test_assert@PLT
 686      FF
 687              	.LVL38:
 688 010b 83C410   		addl	$16, %esp
 689              		.cfi_def_cfa_offset 48
 690 010e 84C0     		testb	%al, %al
 691 0110 0F8532FF 		jne	.L50
 691      FFFF
 692              		.loc 1 739 58 view .LVU122
 693              		.loc 1 740 5 view .LVU123
 694 0116 83EC08   		subl	$8, %esp
 695              		.cfi_def_cfa_offset 56
 696 0119 31C0     		xorl	%eax, %eax
 697 011b FF742414 		pushl	20(%esp)
 698              		.cfi_def_cfa_offset 60
 699 011f 8B542414 		movl	20(%esp), %edx
 700 0123 837A0402 		cmpl	$2, 4(%edx)
 701 0127 0F94C0   		sete	%al
 702 012a 50       		pushl	%eax
 703              		.cfi_def_cfa_offset 64
 704 012b E8FCFFFF 		call	__test_assert@PLT
 704      FF
 705              	.LVL39:
 706 0130 83C410   		addl	$16, %esp
 707              		.cfi_def_cfa_offset 48
 708 0133 84C0     		testb	%al, %al
 709 0135 0F850DFF 		jne	.L50
 709      FFFF
 710              		.loc 1 740 70 view .LVU124
 711              		.loc 1 742 5 view .LVU125
 712              	.LVL40:
 713              	.LBB63:
 714              	.LBI63:
 715              		.file 2 "../../../os/oslib/include/chfactory.h"
 716              		.loc 2 409 30 view .LVU126
 717              	.LBB64:
 718              		.loc 2 411 3 view .LVU127
 719              		.loc 2 411 12 is_stmt 0 view .LVU128
 720 013b 8B542408 		movl	8(%esp), %edx
GAS LISTING /tmp/ccwdkvlB.s 			page 15


 721              	.LBE64:
 722              	.LBE63:
 723              		.loc 1 743 5 view .LVU129
 724 013f 83EC08   		subl	$8, %esp
 725              		.cfi_def_cfa_offset 56
 726              	.LBB66:
 727              	.LBB65:
 728              		.loc 2 411 12 view .LVU130
 729 0142 83420401 		addl	$1, 4(%edx)
 730              		.loc 2 413 3 is_stmt 1 view .LVU131
 731              	.LVL41:
 732              		.loc 2 413 3 is_stmt 0 view .LVU132
 733              	.LBE65:
 734              	.LBE66:
 735              		.loc 1 743 5 is_stmt 1 view .LVU133
 736 0146 FF742414 		pushl	20(%esp)
 737              		.cfi_def_cfa_offset 60
 738 014a 6A01     		pushl	$1
 739              		.cfi_def_cfa_offset 64
 740 014c E8FCFFFF 		call	__test_assert@PLT
 740      FF
 741              	.LVL42:
 742 0151 83C410   		addl	$16, %esp
 743              		.cfi_def_cfa_offset 48
 744 0154 84C0     		testb	%al, %al
 745 0156 0F85ECFE 		jne	.L50
 745      FFFF
 746              		.loc 1 743 59 view .LVU134
 747              		.loc 1 744 5 view .LVU135
 748 015c 83EC08   		subl	$8, %esp
 749              		.cfi_def_cfa_offset 56
 750 015f 31C0     		xorl	%eax, %eax
 751 0161 FF742414 		pushl	20(%esp)
 752              		.cfi_def_cfa_offset 60
 753 0165 8B542414 		movl	20(%esp), %edx
 754 0169 837A0403 		cmpl	$3, 4(%edx)
 755 016d 0F94C0   		sete	%al
 756 0170 50       		pushl	%eax
 757              		.cfi_def_cfa_offset 64
 758 0171 E8FCFFFF 		call	__test_assert@PLT
 758      FF
 759              	.LVL43:
 760 0176 83C410   		addl	$16, %esp
 761              		.cfi_def_cfa_offset 48
 762 0179 84C0     		testb	%al, %al
 763 017b 0F85C7FE 		jne	.L50
 763      FFFF
 764              		.loc 1 744 70 view .LVU136
 765              		.loc 1 746 5 view .LVU137
 766 0181 83EC0C   		subl	$12, %esp
 767              		.cfi_def_cfa_offset 60
 768 0184 FF742414 		pushl	20(%esp)
 769              		.cfi_def_cfa_offset 64
 770 0188 E8FCFFFF 		call	chFactoryReleasePipe@PLT
 770      FF
 771              	.LVL44:
 772              		.loc 1 747 5 view .LVU138
GAS LISTING /tmp/ccwdkvlB.s 			page 16


 773 018d 59       		popl	%ecx
 774              		.cfi_def_cfa_offset 60
 775 018e 8D930000 		leal	.LC11@GOTOFF(%ebx), %edx
 775      0000
 776 0194 58       		popl	%eax
 777              		.cfi_def_cfa_offset 56
 778 0195 89542414 		movl	%edx, 20(%esp)
 779 0199 31C0     		xorl	%eax, %eax
 780 019b 52       		pushl	%edx
 781              		.cfi_def_cfa_offset 60
 782 019c 8B542414 		movl	20(%esp), %edx
 783 01a0 837A0402 		cmpl	$2, 4(%edx)
 784 01a4 0F94C0   		sete	%al
 785 01a7 50       		pushl	%eax
 786              		.cfi_def_cfa_offset 64
 787 01a8 E8FCFFFF 		call	__test_assert@PLT
 787      FF
 788              	.LVL45:
 789 01ad 83C410   		addl	$16, %esp
 790              		.cfi_def_cfa_offset 48
 791 01b0 84C0     		testb	%al, %al
 792 01b2 0F8590FE 		jne	.L50
 792      FFFF
 793              		.loc 1 747 64 view .LVU139
 794              		.loc 1 749 5 view .LVU140
 795 01b8 83EC0C   		subl	$12, %esp
 796              		.cfi_def_cfa_offset 60
 797 01bb FF742414 		pushl	20(%esp)
 798              		.cfi_def_cfa_offset 64
 799 01bf E8FCFFFF 		call	chFactoryReleasePipe@PLT
 799      FF
 800              	.LVL46:
 801              		.loc 1 750 5 view .LVU141
 802 01c4 58       		popl	%eax
 803              		.cfi_def_cfa_offset 60
 804 01c5 5A       		popl	%edx
 805              		.cfi_def_cfa_offset 56
 806 01c6 FF742414 		pushl	20(%esp)
 807              		.cfi_def_cfa_offset 60
 808 01ca 8B442410 		movl	16(%esp), %eax
 809 01ce 83780401 		cmpl	$1, 4(%eax)
 810 01d2 0F94C0   		sete	%al
 811 01d5 0FB6C0   		movzbl	%al, %eax
 812 01d8 50       		pushl	%eax
 813              		.cfi_def_cfa_offset 64
 814 01d9 E8FCFFFF 		call	__test_assert@PLT
 814      FF
 815              	.LVL47:
 816 01de 83C410   		addl	$16, %esp
 817              		.cfi_def_cfa_offset 48
 818 01e1 84C0     		testb	%al, %al
 819 01e3 0F855FFE 		jne	.L50
 819      FFFF
 820              		.loc 1 750 63 view .LVU142
 821              	.LBE67:
 822              		.loc 1 752 3 view .LVU143
 823              		.loc 1 752 19 view .LVU144
GAS LISTING /tmp/ccwdkvlB.s 			page 17


 824              		.loc 1 756 3 view .LVU145
 825              		.loc 1 758 5 is_stmt 0 view .LVU146
 826 01e9 83EC0C   		subl	$12, %esp
 827              		.cfi_def_cfa_offset 60
 828              		.loc 1 756 3 view .LVU147
 829 01ec C7060500 		movl	$5, (%esi)
 829      0000
 830              		.loc 1 758 5 is_stmt 1 view .LVU148
 831 01f2 FF742410 		pushl	16(%esp)
 832              		.cfi_def_cfa_offset 64
 833 01f6 E8FCFFFF 		call	chFactoryReleasePipe@PLT
 833      FF
 834              	.LVL48:
 835              		.loc 1 760 3 view .LVU149
 836              		.loc 1 760 19 view .LVU150
 837              		.loc 1 764 3 view .LVU151
 838              		.loc 1 766 11 is_stmt 0 view .LVU152
 839 01fb 893C24   		movl	%edi, (%esp)
 840              		.loc 1 764 3 view .LVU153
 841 01fe C7060600 		movl	$6, (%esi)
 841      0000
 842              		.loc 1 766 5 is_stmt 1 view .LVU154
 843              		.loc 1 766 11 is_stmt 0 view .LVU155
 844 0204 E8FCFFFF 		call	chFactoryFindPipe@PLT
 844      FF
 845              	.LVL49:
 846              		.loc 1 767 5 is_stmt 1 view .LVU156
 847 0209 5A       		popl	%edx
 848              		.cfi_def_cfa_offset 60
 849 020a 59       		popl	%ecx
 850              		.cfi_def_cfa_offset 56
 851 020b 55       		pushl	%ebp
 852              		.cfi_def_cfa_offset 60
 853 020c 85C0     		testl	%eax, %eax
 854 020e 0F94C0   		sete	%al
 855              	.LVL50:
 856              		.loc 1 767 5 is_stmt 0 view .LVU157
 857 0211 0FB6C0   		movzbl	%al, %eax
 858 0214 50       		pushl	%eax
 859              		.cfi_def_cfa_offset 64
 860 0215 E8FCFFFF 		call	__test_assert@PLT
 860      FF
 861              	.LVL51:
 862 021a 83C410   		addl	$16, %esp
 863              		.cfi_def_cfa_offset 48
 864              	.LVL52:
 865              		.loc 1 767 5 view .LVU158
 866              	.LBE59:
 867              	.LBE58:
 868              		.loc 1 767 38 is_stmt 1 view .LVU159
 869              		.loc 1 769 3 view .LVU160
 870              		.loc 1 769 19 view .LVU161
 871              	.LBB69:
 872              	.LBB68:
 873 021d E926FEFF 		jmp	.L50
 873      FF
 874              	.LBE68:
GAS LISTING /tmp/ccwdkvlB.s 			page 18


 875              	.LBE69:
 876              		.cfi_endproc
 877              	.LFE314:
 878              		.size	oslib_test_009_006_execute, .-oslib_test_009_006_execute
 879              		.section	.text.oslib_test_009_005_execute,"ax",@progbits
 880              		.p2align 4
 881              		.type	oslib_test_009_005_execute, @function
 882              	oslib_test_009_005_execute:
 883              	.LFB312:
 884              		.loc 1 581 46 view -0
 885              		.cfi_startproc
 886              		.loc 1 582 3 view .LVU163
 887              		.loc 1 586 3 view .LVU164
 888              		.loc 1 581 46 is_stmt 0 view .LVU165
 889 0000 55       		pushl	%ebp
 890              		.cfi_def_cfa_offset 8
 891              		.cfi_offset 5, -8
 892 0001 57       		pushl	%edi
 893              		.cfi_def_cfa_offset 12
 894              		.cfi_offset 7, -12
 895 0002 56       		pushl	%esi
 896              		.cfi_def_cfa_offset 16
 897              		.cfi_offset 6, -16
 898 0003 53       		pushl	%ebx
 899              		.cfi_def_cfa_offset 20
 900              		.cfi_offset 3, -20
 901 0004 E8FCFFFF 		call	__x86.get_pc_thunk.bx
 901      FF
 902 0009 81C30200 		addl	$_GLOBAL_OFFSET_TABLE_, %ebx
 902      0000
 903 000f 83EC28   		subl	$40, %esp
 904              		.cfi_def_cfa_offset 60
 905              		.loc 1 588 12 view .LVU166
 906 0012 8DBB0000 		leal	.LC1@GOTOFF(%ebx), %edi
 906      0000
 907              		.loc 1 586 3 view .LVU167
 908 0018 8BB30000 		movl	chtest@GOT(%ebx), %esi
 908      0000
 909              		.loc 1 588 12 view .LVU168
 910 001e 57       		pushl	%edi
 911              		.cfi_def_cfa_offset 64
 912              		.loc 1 586 3 view .LVU169
 913 001f C7060100 		movl	$1, (%esi)
 913      0000
 914              		.loc 1 588 5 is_stmt 1 view .LVU170
 915              		.loc 1 588 12 is_stmt 0 view .LVU171
 916 0025 E8FCFFFF 		call	chFactoryFindObjectsFIFO@PLT
 916      FF
 917              	.LVL53:
 918              		.loc 1 589 5 is_stmt 1 view .LVU172
 919 002a 59       		popl	%ecx
 920              		.cfi_def_cfa_offset 60
 921 002b 5D       		popl	%ebp
 922              		.cfi_def_cfa_offset 56
 923 002c 8DAB0000 		leal	.LC6@GOTOFF(%ebx), %ebp
 923      0000
 924 0032 85C0     		testl	%eax, %eax
GAS LISTING /tmp/ccwdkvlB.s 			page 19


 925 0034 55       		pushl	%ebp
 926              		.cfi_def_cfa_offset 60
 927 0035 0F94C0   		sete	%al
 928              	.LVL54:
 929              		.loc 1 589 5 is_stmt 0 view .LVU173
 930 0038 0FB6C0   		movzbl	%al, %eax
 931 003b 50       		pushl	%eax
 932              		.cfi_def_cfa_offset 64
 933 003c E8FCFFFF 		call	__test_assert@PLT
 933      FF
 934              	.LVL55:
 935 0041 83C410   		addl	$16, %esp
 936              		.cfi_def_cfa_offset 48
 937 0044 84C0     		testb	%al, %al
 938 0046 7408     		je	.L61
 939              	.L56:
 940              		.loc 1 653 1 view .LVU174
 941 0048 83C41C   		addl	$28, %esp
 942              		.cfi_remember_state
 943              		.cfi_def_cfa_offset 20
 944 004b 5B       		popl	%ebx
 945              		.cfi_restore 3
 946              		.cfi_def_cfa_offset 16
 947 004c 5E       		popl	%esi
 948              		.cfi_restore 6
 949              		.cfi_def_cfa_offset 12
 950 004d 5F       		popl	%edi
 951              		.cfi_restore 7
 952              		.cfi_def_cfa_offset 8
 953 004e 5D       		popl	%ebp
 954              		.cfi_restore 5
 955              		.cfi_def_cfa_offset 4
 956 004f C3       		ret
 957              		.p2align 4,,10
 958              		.p2align 3
 959              	.L61:
 960              		.cfi_restore_state
 961              	.LBB76:
 962              	.LBI76:
 963              		.loc 1 581 13 is_stmt 1 view .LVU175
 964              	.LBB77:
 965              		.loc 1 589 39 view .LVU176
 966              		.loc 1 591 3 view .LVU177
 967              		.loc 1 591 19 view .LVU178
 968              		.loc 1 595 3 view .LVU179
 969              		.loc 1 597 12 is_stmt 0 view .LVU180
 970 0050 6A04     		pushl	$4
 971              		.cfi_def_cfa_offset 52
 972 0052 6A10     		pushl	$16
 973              		.cfi_def_cfa_offset 56
 974 0054 6A10     		pushl	$16
 975              		.cfi_def_cfa_offset 60
 976 0056 57       		pushl	%edi
 977              		.cfi_def_cfa_offset 64
 978              		.loc 1 595 3 view .LVU181
 979 0057 C7060200 		movl	$2, (%esi)
 979      0000
GAS LISTING /tmp/ccwdkvlB.s 			page 20


 980              		.loc 1 597 5 is_stmt 1 view .LVU182
 981              		.loc 1 597 12 is_stmt 0 view .LVU183
 982 005d E8FCFFFF 		call	chFactoryCreateObjectsFIFO@PLT
 982      FF
 983              	.LVL56:
 984 0062 89C1     		movl	%eax, %ecx
 985              	.LVL57:
 986              		.loc 1 598 5 is_stmt 1 view .LVU184
 987 0064 58       		popl	%eax
 988              		.cfi_def_cfa_offset 60
 989              	.LVL58:
 990              		.loc 1 598 5 is_stmt 0 view .LVU185
 991 0065 8D830000 		leal	.LC7@GOTOFF(%ebx), %eax
 991      0000
 992 006b 5A       		popl	%edx
 993              		.cfi_def_cfa_offset 56
 994 006c 85C9     		testl	%ecx, %ecx
 995 006e 50       		pushl	%eax
 996              		.cfi_def_cfa_offset 60
 997 006f 0F95C0   		setne	%al
 998 0072 0FB6C0   		movzbl	%al, %eax
 999 0075 894C2410 		movl	%ecx, 16(%esp)
 1000 0079 50       		pushl	%eax
 1001              		.cfi_def_cfa_offset 64
 1002 007a E8FCFFFF 		call	__test_assert@PLT
 1002      FF
 1003              	.LVL59:
 1004              		.loc 1 598 5 view .LVU186
 1005 007f 83C410   		addl	$16, %esp
 1006              		.cfi_def_cfa_offset 48
 1007 0082 84C0     		testb	%al, %al
 1008 0084 75C2     		jne	.L56
 1009              		.loc 1 598 47 is_stmt 1 view .LVU187
 1010              		.loc 1 600 3 view .LVU188
 1011              		.loc 1 600 19 view .LVU189
 1012              		.loc 1 604 3 view .LVU190
 1013              	.LBB78:
 1014              		.loc 1 608 13 is_stmt 0 view .LVU191
 1015 0086 6A04     		pushl	$4
 1016              		.cfi_def_cfa_offset 52
 1017 0088 6A10     		pushl	$16
 1018              		.cfi_def_cfa_offset 56
 1019 008a 6A10     		pushl	$16
 1020              		.cfi_def_cfa_offset 60
 1021 008c 57       		pushl	%edi
 1022              		.cfi_def_cfa_offset 64
 1023              	.LBE78:
 1024              		.loc 1 604 3 view .LVU192
 1025 008d C7060300 		movl	$3, (%esi)
 1025      0000
 1026              	.LBB79:
 1027              		.loc 1 606 5 is_stmt 1 view .LVU193
 1028              		.loc 1 608 5 view .LVU194
 1029              		.loc 1 608 13 is_stmt 0 view .LVU195
 1030 0093 E8FCFFFF 		call	chFactoryCreateObjectsFIFO@PLT
 1030      FF
 1031              	.LVL60:
GAS LISTING /tmp/ccwdkvlB.s 			page 21


 1032              		.loc 1 609 5 is_stmt 1 view .LVU196
 1033 0098 5A       		popl	%edx
 1034              		.cfi_def_cfa_offset 60
 1035 0099 8D930000 		leal	.LC8@GOTOFF(%ebx), %edx
 1035      0000
 1036 009f 59       		popl	%ecx
 1037              		.cfi_def_cfa_offset 56
 1038 00a0 85C0     		testl	%eax, %eax
 1039 00a2 52       		pushl	%edx
 1040              		.cfi_def_cfa_offset 60
 1041 00a3 0F94C0   		sete	%al
 1042              	.LVL61:
 1043              		.loc 1 609 5 is_stmt 0 view .LVU197
 1044 00a6 0FB6C0   		movzbl	%al, %eax
 1045 00a9 50       		pushl	%eax
 1046              		.cfi_def_cfa_offset 64
 1047 00aa E8FCFFFF 		call	__test_assert@PLT
 1047      FF
 1048              	.LVL62:
 1049 00af 83C410   		addl	$16, %esp
 1050              		.cfi_def_cfa_offset 48
 1051 00b2 84C0     		testb	%al, %al
 1052 00b4 7592     		jne	.L56
 1053              		.loc 1 609 45 is_stmt 1 view .LVU198
 1054              	.LBE79:
 1055              		.loc 1 611 3 view .LVU199
 1056              		.loc 1 611 19 view .LVU200
 1057              		.loc 1 616 3 view .LVU201
 1058              	.LBB80:
 1059              		.loc 1 620 13 is_stmt 0 view .LVU202
 1060 00b6 83EC0C   		subl	$12, %esp
 1061              		.cfi_def_cfa_offset 60
 1062              	.LBE80:
 1063              		.loc 1 616 3 view .LVU203
 1064 00b9 C7060400 		movl	$4, (%esi)
 1064      0000
 1065              	.LBB85:
 1066              		.loc 1 618 5 is_stmt 1 view .LVU204
 1067              		.loc 1 620 5 view .LVU205
 1068              		.loc 1 620 13 is_stmt 0 view .LVU206
 1069 00bf 57       		pushl	%edi
 1070              		.cfi_def_cfa_offset 64
 1071 00c0 E8FCFFFF 		call	chFactoryFindObjectsFIFO@PLT
 1071      FF
 1072              	.LVL63:
 1073 00c5 89C2     		movl	%eax, %edx
 1074              	.LVL64:
 1075              		.loc 1 621 5 is_stmt 1 view .LVU207
 1076 00c7 58       		popl	%eax
 1077              		.cfi_def_cfa_offset 60
 1078              	.LVL65:
 1079              		.loc 1 621 5 is_stmt 0 view .LVU208
 1080 00c8 8D830000 		leal	.LC9@GOTOFF(%ebx), %eax
 1080      0000
 1081 00ce 59       		popl	%ecx
 1082              		.cfi_def_cfa_offset 56
 1083 00cf 50       		pushl	%eax
GAS LISTING /tmp/ccwdkvlB.s 			page 22


 1084              		.cfi_def_cfa_offset 60
 1085 00d0 31C0     		xorl	%eax, %eax
 1086 00d2 85D2     		testl	%edx, %edx
 1087 00d4 0F95C0   		setne	%al
 1088 00d7 89542414 		movl	%edx, 20(%esp)
 1089 00db 50       		pushl	%eax
 1090              		.cfi_def_cfa_offset 64
 1091 00dc E8FCFFFF 		call	__test_assert@PLT
 1091      FF
 1092              	.LVL66:
 1093              		.loc 1 621 5 view .LVU209
 1094 00e1 83C410   		addl	$16, %esp
 1095              		.cfi_def_cfa_offset 48
 1096 00e4 84C0     		testb	%al, %al
 1097 00e6 0F855CFF 		jne	.L56
 1097      FFFF
 1098              		.loc 1 621 44 is_stmt 1 view .LVU210
 1099              		.loc 1 622 5 view .LVU211
 1100 00ec 83EC08   		subl	$8, %esp
 1101              		.cfi_def_cfa_offset 56
 1102 00ef 8D930000 		leal	.LC10@GOTOFF(%ebx), %edx
 1102      0000
 1103 00f5 31C0     		xorl	%eax, %eax
 1104 00f7 89542414 		movl	%edx, 20(%esp)
 1105 00fb 52       		pushl	%edx
 1106              		.cfi_def_cfa_offset 60
 1107 00fc 8B542414 		movl	20(%esp), %edx
 1108 0100 39542410 		cmpl	%edx, 16(%esp)
 1109 0104 0F94C0   		sete	%al
 1110 0107 50       		pushl	%eax
 1111              		.cfi_def_cfa_offset 64
 1112 0108 E8FCFFFF 		call	__test_assert@PLT
 1112      FF
 1113              	.LVL67:
 1114 010d 83C410   		addl	$16, %esp
 1115              		.cfi_def_cfa_offset 48
 1116 0110 84C0     		testb	%al, %al
 1117 0112 0F8530FF 		jne	.L56
 1117      FFFF
 1118              		.loc 1 622 60 view .LVU212
 1119              		.loc 1 623 5 view .LVU213
 1120 0118 83EC08   		subl	$8, %esp
 1121              		.cfi_def_cfa_offset 56
 1122 011b 31C0     		xorl	%eax, %eax
 1123 011d FF742414 		pushl	20(%esp)
 1124              		.cfi_def_cfa_offset 60
 1125 0121 8B542414 		movl	20(%esp), %edx
 1126 0125 837A0402 		cmpl	$2, 4(%edx)
 1127 0129 0F94C0   		sete	%al
 1128 012c 50       		pushl	%eax
 1129              		.cfi_def_cfa_offset 64
 1130 012d E8FCFFFF 		call	__test_assert@PLT
 1130      FF
 1131              	.LVL68:
 1132 0132 83C410   		addl	$16, %esp
 1133              		.cfi_def_cfa_offset 48
 1134 0135 84C0     		testb	%al, %al
GAS LISTING /tmp/ccwdkvlB.s 			page 23


 1135 0137 0F850BFF 		jne	.L56
 1135      FFFF
 1136              		.loc 1 623 71 view .LVU214
 1137              		.loc 1 625 5 view .LVU215
 1138              	.LVL69:
 1139              	.LBB81:
 1140              	.LBI81:
 1141              		.loc 2 409 30 view .LVU216
 1142              	.LBB82:
 1143              		.loc 2 411 3 view .LVU217
 1144              		.loc 2 411 12 is_stmt 0 view .LVU218
 1145 013d 8B542408 		movl	8(%esp), %edx
 1146              	.LBE82:
 1147              	.LBE81:
 1148              		.loc 1 626 5 view .LVU219
 1149 0141 83EC08   		subl	$8, %esp
 1150              		.cfi_def_cfa_offset 56
 1151              	.LBB84:
 1152              	.LBB83:
 1153              		.loc 2 411 12 view .LVU220
 1154 0144 83420401 		addl	$1, 4(%edx)
 1155              		.loc 2 413 3 is_stmt 1 view .LVU221
 1156              	.LVL70:
 1157              		.loc 2 413 3 is_stmt 0 view .LVU222
 1158              	.LBE83:
 1159              	.LBE84:
 1160              		.loc 1 626 5 is_stmt 1 view .LVU223
 1161 0148 FF742414 		pushl	20(%esp)
 1162              		.cfi_def_cfa_offset 60
 1163 014c 6A01     		pushl	$1
 1164              		.cfi_def_cfa_offset 64
 1165 014e E8FCFFFF 		call	__test_assert@PLT
 1165      FF
 1166              	.LVL71:
 1167 0153 83C410   		addl	$16, %esp
 1168              		.cfi_def_cfa_offset 48
 1169 0156 84C0     		testb	%al, %al
 1170 0158 0F85EAFE 		jne	.L56
 1170      FFFF
 1171              		.loc 1 626 61 view .LVU224
 1172              		.loc 1 627 5 view .LVU225
 1173 015e 83EC08   		subl	$8, %esp
 1174              		.cfi_def_cfa_offset 56
 1175 0161 31C0     		xorl	%eax, %eax
 1176 0163 FF742414 		pushl	20(%esp)
 1177              		.cfi_def_cfa_offset 60
 1178 0167 8B542414 		movl	20(%esp), %edx
 1179 016b 837A0403 		cmpl	$3, 4(%edx)
 1180 016f 0F94C0   		sete	%al
 1181 0172 50       		pushl	%eax
 1182              		.cfi_def_cfa_offset 64
 1183 0173 E8FCFFFF 		call	__test_assert@PLT
 1183      FF
 1184              	.LVL72:
 1185 0178 83C410   		addl	$16, %esp
 1186              		.cfi_def_cfa_offset 48
 1187 017b 84C0     		testb	%al, %al
GAS LISTING /tmp/ccwdkvlB.s 			page 24


 1188 017d 0F85C5FE 		jne	.L56
 1188      FFFF
 1189              		.loc 1 627 71 view .LVU226
 1190              		.loc 1 629 5 view .LVU227
 1191 0183 83EC0C   		subl	$12, %esp
 1192              		.cfi_def_cfa_offset 60
 1193 0186 FF742414 		pushl	20(%esp)
 1194              		.cfi_def_cfa_offset 64
 1195 018a E8FCFFFF 		call	chFactoryReleaseObjectsFIFO@PLT
 1195      FF
 1196              	.LVL73:
 1197              		.loc 1 630 5 view .LVU228
 1198 018f 59       		popl	%ecx
 1199              		.cfi_def_cfa_offset 60
 1200 0190 8D930000 		leal	.LC11@GOTOFF(%ebx), %edx
 1200      0000
 1201 0196 58       		popl	%eax
 1202              		.cfi_def_cfa_offset 56
 1203 0197 89542414 		movl	%edx, 20(%esp)
 1204 019b 31C0     		xorl	%eax, %eax
 1205 019d 52       		pushl	%edx
 1206              		.cfi_def_cfa_offset 60
 1207 019e 8B542414 		movl	20(%esp), %edx
 1208 01a2 837A0402 		cmpl	$2, 4(%edx)
 1209 01a6 0F94C0   		sete	%al
 1210 01a9 50       		pushl	%eax
 1211              		.cfi_def_cfa_offset 64
 1212 01aa E8FCFFFF 		call	__test_assert@PLT
 1212      FF
 1213              	.LVL74:
 1214 01af 83C410   		addl	$16, %esp
 1215              		.cfi_def_cfa_offset 48
 1216 01b2 84C0     		testb	%al, %al
 1217 01b4 0F858EFE 		jne	.L56
 1217      FFFF
 1218              		.loc 1 630 65 view .LVU229
 1219              		.loc 1 632 5 view .LVU230
 1220 01ba 83EC0C   		subl	$12, %esp
 1221              		.cfi_def_cfa_offset 60
 1222 01bd FF742414 		pushl	20(%esp)
 1223              		.cfi_def_cfa_offset 64
 1224 01c1 E8FCFFFF 		call	chFactoryReleaseObjectsFIFO@PLT
 1224      FF
 1225              	.LVL75:
 1226              		.loc 1 633 5 view .LVU231
 1227 01c6 58       		popl	%eax
 1228              		.cfi_def_cfa_offset 60
 1229 01c7 5A       		popl	%edx
 1230              		.cfi_def_cfa_offset 56
 1231 01c8 FF742414 		pushl	20(%esp)
 1232              		.cfi_def_cfa_offset 60
 1233 01cc 8B442410 		movl	16(%esp), %eax
 1234 01d0 83780401 		cmpl	$1, 4(%eax)
 1235 01d4 0F94C0   		sete	%al
 1236 01d7 0FB6C0   		movzbl	%al, %eax
 1237 01da 50       		pushl	%eax
 1238              		.cfi_def_cfa_offset 64
GAS LISTING /tmp/ccwdkvlB.s 			page 25


 1239 01db E8FCFFFF 		call	__test_assert@PLT
 1239      FF
 1240              	.LVL76:
 1241 01e0 83C410   		addl	$16, %esp
 1242              		.cfi_def_cfa_offset 48
 1243 01e3 84C0     		testb	%al, %al
 1244 01e5 0F855DFE 		jne	.L56
 1244      FFFF
 1245              		.loc 1 633 64 view .LVU232
 1246              	.LBE85:
 1247              		.loc 1 635 3 view .LVU233
 1248              		.loc 1 635 19 view .LVU234
 1249              		.loc 1 639 3 view .LVU235
 1250              		.loc 1 641 5 is_stmt 0 view .LVU236
 1251 01eb 83EC0C   		subl	$12, %esp
 1252              		.cfi_def_cfa_offset 60
 1253              		.loc 1 639 3 view .LVU237
 1254 01ee C7060500 		movl	$5, (%esi)
 1254      0000
 1255              		.loc 1 641 5 is_stmt 1 view .LVU238
 1256 01f4 FF742410 		pushl	16(%esp)
 1257              		.cfi_def_cfa_offset 64
 1258 01f8 E8FCFFFF 		call	chFactoryReleaseObjectsFIFO@PLT
 1258      FF
 1259              	.LVL77:
 1260              		.loc 1 643 3 view .LVU239
 1261              		.loc 1 643 19 view .LVU240
 1262              		.loc 1 647 3 view .LVU241
 1263              		.loc 1 649 12 is_stmt 0 view .LVU242
 1264 01fd 893C24   		movl	%edi, (%esp)
 1265              		.loc 1 647 3 view .LVU243
 1266 0200 C7060600 		movl	$6, (%esi)
 1266      0000
 1267              		.loc 1 649 5 is_stmt 1 view .LVU244
 1268              		.loc 1 649 12 is_stmt 0 view .LVU245
 1269 0206 E8FCFFFF 		call	chFactoryFindObjectsFIFO@PLT
 1269      FF
 1270              	.LVL78:
 1271              		.loc 1 650 5 is_stmt 1 view .LVU246
 1272 020b 5A       		popl	%edx
 1273              		.cfi_def_cfa_offset 60
 1274 020c 59       		popl	%ecx
 1275              		.cfi_def_cfa_offset 56
 1276 020d 55       		pushl	%ebp
 1277              		.cfi_def_cfa_offset 60
 1278 020e 85C0     		testl	%eax, %eax
 1279 0210 0F94C0   		sete	%al
 1280              	.LVL79:
 1281              		.loc 1 650 5 is_stmt 0 view .LVU247
 1282 0213 0FB6C0   		movzbl	%al, %eax
 1283 0216 50       		pushl	%eax
 1284              		.cfi_def_cfa_offset 64
 1285 0217 E8FCFFFF 		call	__test_assert@PLT
 1285      FF
 1286              	.LVL80:
 1287 021c 83C410   		addl	$16, %esp
 1288              		.cfi_def_cfa_offset 48
GAS LISTING /tmp/ccwdkvlB.s 			page 26


 1289              	.LVL81:
 1290              		.loc 1 650 5 view .LVU248
 1291              	.LBE77:
 1292              	.LBE76:
 1293              		.loc 1 650 39 is_stmt 1 view .LVU249
 1294              		.loc 1 652 3 view .LVU250
 1295              		.loc 1 652 19 view .LVU251
 1296              	.LBB87:
 1297              	.LBB86:
 1298 021f E924FEFF 		jmp	.L56
 1298      FF
 1299              	.LBE86:
 1300              	.LBE87:
 1301              		.cfi_endproc
 1302              	.LFE312:
 1303              		.size	oslib_test_009_005_execute, .-oslib_test_009_005_execute
 1304              		.section	.text.oslib_test_009_004_execute,"ax",@progbits
 1305              		.p2align 4
 1306              		.type	oslib_test_009_004_execute, @function
 1307              	oslib_test_009_004_execute:
 1308              	.LFB310:
 1309              		.loc 1 460 46 view -0
 1310              		.cfi_startproc
 1311              		.loc 1 461 3 view .LVU253
 1312              		.loc 1 464 3 view .LVU254
 1313              		.loc 1 460 46 is_stmt 0 view .LVU255
 1314 0000 55       		pushl	%ebp
 1315              		.cfi_def_cfa_offset 8
 1316              		.cfi_offset 5, -8
 1317 0001 57       		pushl	%edi
 1318              		.cfi_def_cfa_offset 12
 1319              		.cfi_offset 7, -12
 1320 0002 56       		pushl	%esi
 1321              		.cfi_def_cfa_offset 16
 1322              		.cfi_offset 6, -16
 1323 0003 53       		pushl	%ebx
 1324              		.cfi_def_cfa_offset 20
 1325              		.cfi_offset 3, -20
 1326 0004 E8FCFFFF 		call	__x86.get_pc_thunk.bx
 1326      FF
 1327 0009 81C30200 		addl	$_GLOBAL_OFFSET_TABLE_, %ebx
 1327      0000
 1328 000f 83EC28   		subl	$40, %esp
 1329              		.cfi_def_cfa_offset 60
 1330              		.loc 1 466 11 view .LVU256
 1331 0012 8DBB0000 		leal	.LC2@GOTOFF(%ebx), %edi
 1331      0000
 1332              		.loc 1 464 3 view .LVU257
 1333 0018 8BB30000 		movl	chtest@GOT(%ebx), %esi
 1333      0000
 1334              		.loc 1 466 11 view .LVU258
 1335 001e 57       		pushl	%edi
 1336              		.cfi_def_cfa_offset 64
 1337              		.loc 1 464 3 view .LVU259
 1338 001f C7060100 		movl	$1, (%esi)
 1338      0000
 1339              		.loc 1 466 5 is_stmt 1 view .LVU260
GAS LISTING /tmp/ccwdkvlB.s 			page 27


 1340              		.loc 1 466 11 is_stmt 0 view .LVU261
 1341 0025 E8FCFFFF 		call	chFactoryFindMailbox@PLT
 1341      FF
 1342              	.LVL82:
 1343              		.loc 1 467 5 is_stmt 1 view .LVU262
 1344 002a 59       		popl	%ecx
 1345              		.cfi_def_cfa_offset 60
 1346 002b 5D       		popl	%ebp
 1347              		.cfi_def_cfa_offset 56
 1348 002c 8DAB0000 		leal	.LC6@GOTOFF(%ebx), %ebp
 1348      0000
 1349 0032 85C0     		testl	%eax, %eax
 1350 0034 55       		pushl	%ebp
 1351              		.cfi_def_cfa_offset 60
 1352 0035 0F94C0   		sete	%al
 1353              	.LVL83:
 1354              		.loc 1 467 5 is_stmt 0 view .LVU263
 1355 0038 0FB6C0   		movzbl	%al, %eax
 1356 003b 50       		pushl	%eax
 1357              		.cfi_def_cfa_offset 64
 1358 003c E8FCFFFF 		call	__test_assert@PLT
 1358      FF
 1359              	.LVL84:
 1360 0041 83C410   		addl	$16, %esp
 1361              		.cfi_def_cfa_offset 48
 1362 0044 84C0     		testb	%al, %al
 1363 0046 7408     		je	.L67
 1364              	.L62:
 1365              		.loc 1 531 1 view .LVU264
 1366 0048 83C41C   		addl	$28, %esp
 1367              		.cfi_remember_state
 1368              		.cfi_def_cfa_offset 20
 1369 004b 5B       		popl	%ebx
 1370              		.cfi_restore 3
 1371              		.cfi_def_cfa_offset 16
 1372 004c 5E       		popl	%esi
 1373              		.cfi_restore 6
 1374              		.cfi_def_cfa_offset 12
 1375 004d 5F       		popl	%edi
 1376              		.cfi_restore 7
 1377              		.cfi_def_cfa_offset 8
 1378 004e 5D       		popl	%ebp
 1379              		.cfi_restore 5
 1380              		.cfi_def_cfa_offset 4
 1381 004f C3       		ret
 1382              		.p2align 4,,10
 1383              		.p2align 3
 1384              	.L67:
 1385              		.cfi_restore_state
 1386              	.LBB94:
 1387              	.LBI94:
 1388              		.loc 1 460 13 is_stmt 1 view .LVU265
 1389              	.LBB95:
 1390              		.loc 1 467 38 view .LVU266
 1391              		.loc 1 469 3 view .LVU267
 1392              		.loc 1 469 19 view .LVU268
 1393              		.loc 1 473 3 view .LVU269
GAS LISTING /tmp/ccwdkvlB.s 			page 28


 1394              		.loc 1 475 11 is_stmt 0 view .LVU270
 1395 0050 83EC08   		subl	$8, %esp
 1396              		.cfi_def_cfa_offset 56
 1397              		.loc 1 473 3 view .LVU271
 1398 0053 C7060200 		movl	$2, (%esi)
 1398      0000
 1399              		.loc 1 475 5 is_stmt 1 view .LVU272
 1400              		.loc 1 475 11 is_stmt 0 view .LVU273
 1401 0059 6A10     		pushl	$16
 1402              		.cfi_def_cfa_offset 60
 1403 005b 57       		pushl	%edi
 1404              		.cfi_def_cfa_offset 64
 1405 005c E8FCFFFF 		call	chFactoryCreateMailbox@PLT
 1405      FF
 1406              	.LVL85:
 1407 0061 89C1     		movl	%eax, %ecx
 1408              	.LVL86:
 1409              		.loc 1 476 5 is_stmt 1 view .LVU274
 1410 0063 58       		popl	%eax
 1411              		.cfi_def_cfa_offset 60
 1412              	.LVL87:
 1413              		.loc 1 476 5 is_stmt 0 view .LVU275
 1414 0064 8D830000 		leal	.LC7@GOTOFF(%ebx), %eax
 1414      0000
 1415 006a 5A       		popl	%edx
 1416              		.cfi_def_cfa_offset 56
 1417 006b 85C9     		testl	%ecx, %ecx
 1418 006d 50       		pushl	%eax
 1419              		.cfi_def_cfa_offset 60
 1420 006e 0F95C0   		setne	%al
 1421 0071 0FB6C0   		movzbl	%al, %eax
 1422 0074 894C2410 		movl	%ecx, 16(%esp)
 1423 0078 50       		pushl	%eax
 1424              		.cfi_def_cfa_offset 64
 1425 0079 E8FCFFFF 		call	__test_assert@PLT
 1425      FF
 1426              	.LVL88:
 1427              		.loc 1 476 5 view .LVU276
 1428 007e 83C410   		addl	$16, %esp
 1429              		.cfi_def_cfa_offset 48
 1430 0081 84C0     		testb	%al, %al
 1431 0083 75C3     		jne	.L62
 1432              		.loc 1 476 46 is_stmt 1 view .LVU277
 1433              		.loc 1 478 3 view .LVU278
 1434              		.loc 1 478 19 view .LVU279
 1435              		.loc 1 482 3 view .LVU280
 1436              	.LBB96:
 1437              		.loc 1 486 12 is_stmt 0 view .LVU281
 1438 0085 83EC08   		subl	$8, %esp
 1439              		.cfi_def_cfa_offset 56
 1440              	.LBE96:
 1441              		.loc 1 482 3 view .LVU282
 1442 0088 C7060300 		movl	$3, (%esi)
 1442      0000
 1443              	.LBB97:
 1444              		.loc 1 484 5 is_stmt 1 view .LVU283
 1445              		.loc 1 486 5 view .LVU284
GAS LISTING /tmp/ccwdkvlB.s 			page 29


 1446              		.loc 1 486 12 is_stmt 0 view .LVU285
 1447 008e 6A10     		pushl	$16
 1448              		.cfi_def_cfa_offset 60
 1449 0090 57       		pushl	%edi
 1450              		.cfi_def_cfa_offset 64
 1451 0091 E8FCFFFF 		call	chFactoryCreateMailbox@PLT
 1451      FF
 1452              	.LVL89:
 1453              		.loc 1 487 5 is_stmt 1 view .LVU286
 1454 0096 5A       		popl	%edx
 1455              		.cfi_def_cfa_offset 60
 1456 0097 8D930000 		leal	.LC8@GOTOFF(%ebx), %edx
 1456      0000
 1457 009d 59       		popl	%ecx
 1458              		.cfi_def_cfa_offset 56
 1459 009e 85C0     		testl	%eax, %eax
 1460 00a0 52       		pushl	%edx
 1461              		.cfi_def_cfa_offset 60
 1462 00a1 0F94C0   		sete	%al
 1463              	.LVL90:
 1464              		.loc 1 487 5 is_stmt 0 view .LVU287
 1465 00a4 0FB6C0   		movzbl	%al, %eax
 1466 00a7 50       		pushl	%eax
 1467              		.cfi_def_cfa_offset 64
 1468 00a8 E8FCFFFF 		call	__test_assert@PLT
 1468      FF
 1469              	.LVL91:
 1470 00ad 83C410   		addl	$16, %esp
 1471              		.cfi_def_cfa_offset 48
 1472 00b0 84C0     		testb	%al, %al
 1473 00b2 7594     		jne	.L62
 1474              		.loc 1 487 44 is_stmt 1 view .LVU288
 1475              	.LBE97:
 1476              		.loc 1 489 3 view .LVU289
 1477              		.loc 1 489 19 view .LVU290
 1478              		.loc 1 494 3 view .LVU291
 1479              	.LBB98:
 1480              		.loc 1 498 12 is_stmt 0 view .LVU292
 1481 00b4 83EC0C   		subl	$12, %esp
 1482              		.cfi_def_cfa_offset 60
 1483              	.LBE98:
 1484              		.loc 1 494 3 view .LVU293
 1485 00b7 C7060400 		movl	$4, (%esi)
 1485      0000
 1486              	.LBB103:
 1487              		.loc 1 496 5 is_stmt 1 view .LVU294
 1488              		.loc 1 498 5 view .LVU295
 1489              		.loc 1 498 12 is_stmt 0 view .LVU296
 1490 00bd 57       		pushl	%edi
 1491              		.cfi_def_cfa_offset 64
 1492 00be E8FCFFFF 		call	chFactoryFindMailbox@PLT
 1492      FF
 1493              	.LVL92:
 1494 00c3 89C2     		movl	%eax, %edx
 1495              	.LVL93:
 1496              		.loc 1 499 5 is_stmt 1 view .LVU297
 1497 00c5 58       		popl	%eax
GAS LISTING /tmp/ccwdkvlB.s 			page 30


 1498              		.cfi_def_cfa_offset 60
 1499              	.LVL94:
 1500              		.loc 1 499 5 is_stmt 0 view .LVU298
 1501 00c6 8D830000 		leal	.LC9@GOTOFF(%ebx), %eax
 1501      0000
 1502 00cc 59       		popl	%ecx
 1503              		.cfi_def_cfa_offset 56
 1504 00cd 50       		pushl	%eax
 1505              		.cfi_def_cfa_offset 60
 1506 00ce 31C0     		xorl	%eax, %eax
 1507 00d0 85D2     		testl	%edx, %edx
 1508 00d2 0F95C0   		setne	%al
 1509 00d5 89542414 		movl	%edx, 20(%esp)
 1510 00d9 50       		pushl	%eax
 1511              		.cfi_def_cfa_offset 64
 1512 00da E8FCFFFF 		call	__test_assert@PLT
 1512      FF
 1513              	.LVL95:
 1514              		.loc 1 499 5 view .LVU299
 1515 00df 83C410   		addl	$16, %esp
 1516              		.cfi_def_cfa_offset 48
 1517 00e2 84C0     		testb	%al, %al
 1518 00e4 0F855EFF 		jne	.L62
 1518      FFFF
 1519              		.loc 1 499 43 is_stmt 1 view .LVU300
 1520              		.loc 1 500 5 view .LVU301
 1521 00ea 83EC08   		subl	$8, %esp
 1522              		.cfi_def_cfa_offset 56
 1523 00ed 8D930000 		leal	.LC10@GOTOFF(%ebx), %edx
 1523      0000
 1524 00f3 31C0     		xorl	%eax, %eax
 1525 00f5 89542414 		movl	%edx, 20(%esp)
 1526 00f9 52       		pushl	%edx
 1527              		.cfi_def_cfa_offset 60
 1528 00fa 8B542414 		movl	20(%esp), %edx
 1529 00fe 39542410 		cmpl	%edx, 16(%esp)
 1530 0102 0F94C0   		sete	%al
 1531 0105 50       		pushl	%eax
 1532              		.cfi_def_cfa_offset 64
 1533 0106 E8FCFFFF 		call	__test_assert@PLT
 1533      FF
 1534              	.LVL96:
 1535 010b 83C410   		addl	$16, %esp
 1536              		.cfi_def_cfa_offset 48
 1537 010e 84C0     		testb	%al, %al
 1538 0110 0F8532FF 		jne	.L62
 1538      FFFF
 1539              		.loc 1 500 58 view .LVU302
 1540              		.loc 1 501 5 view .LVU303
 1541 0116 83EC08   		subl	$8, %esp
 1542              		.cfi_def_cfa_offset 56
 1543 0119 31C0     		xorl	%eax, %eax
 1544 011b FF742414 		pushl	20(%esp)
 1545              		.cfi_def_cfa_offset 60
 1546 011f 8B542414 		movl	20(%esp), %edx
 1547 0123 837A0402 		cmpl	$2, 4(%edx)
 1548 0127 0F94C0   		sete	%al
GAS LISTING /tmp/ccwdkvlB.s 			page 31


 1549 012a 50       		pushl	%eax
 1550              		.cfi_def_cfa_offset 64
 1551 012b E8FCFFFF 		call	__test_assert@PLT
 1551      FF
 1552              	.LVL97:
 1553 0130 83C410   		addl	$16, %esp
 1554              		.cfi_def_cfa_offset 48
 1555 0133 84C0     		testb	%al, %al
 1556 0135 0F850DFF 		jne	.L62
 1556      FFFF
 1557              		.loc 1 501 70 view .LVU304
 1558              		.loc 1 503 5 view .LVU305
 1559              	.LVL98:
 1560              	.LBB99:
 1561              	.LBI99:
 1562              		.loc 2 409 30 view .LVU306
 1563              	.LBB100:
 1564              		.loc 2 411 3 view .LVU307
 1565              		.loc 2 411 12 is_stmt 0 view .LVU308
 1566 013b 8B542408 		movl	8(%esp), %edx
 1567              	.LBE100:
 1568              	.LBE99:
 1569              		.loc 1 504 5 view .LVU309
 1570 013f 83EC08   		subl	$8, %esp
 1571              		.cfi_def_cfa_offset 56
 1572              	.LBB102:
 1573              	.LBB101:
 1574              		.loc 2 411 12 view .LVU310
 1575 0142 83420401 		addl	$1, 4(%edx)
 1576              		.loc 2 413 3 is_stmt 1 view .LVU311
 1577              	.LVL99:
 1578              		.loc 2 413 3 is_stmt 0 view .LVU312
 1579              	.LBE101:
 1580              	.LBE102:
 1581              		.loc 1 504 5 is_stmt 1 view .LVU313
 1582 0146 FF742414 		pushl	20(%esp)
 1583              		.cfi_def_cfa_offset 60
 1584 014a 6A01     		pushl	$1
 1585              		.cfi_def_cfa_offset 64
 1586 014c E8FCFFFF 		call	__test_assert@PLT
 1586      FF
 1587              	.LVL100:
 1588 0151 83C410   		addl	$16, %esp
 1589              		.cfi_def_cfa_offset 48
 1590 0154 84C0     		testb	%al, %al
 1591 0156 0F85ECFE 		jne	.L62
 1591      FFFF
 1592              		.loc 1 504 59 view .LVU314
 1593              		.loc 1 505 5 view .LVU315
 1594 015c 83EC08   		subl	$8, %esp
 1595              		.cfi_def_cfa_offset 56
 1596 015f 31C0     		xorl	%eax, %eax
 1597 0161 FF742414 		pushl	20(%esp)
 1598              		.cfi_def_cfa_offset 60
 1599 0165 8B542414 		movl	20(%esp), %edx
 1600 0169 837A0403 		cmpl	$3, 4(%edx)
 1601 016d 0F94C0   		sete	%al
GAS LISTING /tmp/ccwdkvlB.s 			page 32


 1602 0170 50       		pushl	%eax
 1603              		.cfi_def_cfa_offset 64
 1604 0171 E8FCFFFF 		call	__test_assert@PLT
 1604      FF
 1605              	.LVL101:
 1606 0176 83C410   		addl	$16, %esp
 1607              		.cfi_def_cfa_offset 48
 1608 0179 84C0     		testb	%al, %al
 1609 017b 0F85C7FE 		jne	.L62
 1609      FFFF
 1610              		.loc 1 505 70 view .LVU316
 1611              		.loc 1 507 5 view .LVU317
 1612 0181 83EC0C   		subl	$12, %esp
 1613              		.cfi_def_cfa_offset 60
 1614 0184 FF742414 		pushl	20(%esp)
 1615              		.cfi_def_cfa_offset 64
 1616 0188 E8FCFFFF 		call	chFactoryReleaseMailbox@PLT
 1616      FF
 1617              	.LVL102:
 1618              		.loc 1 508 5 view .LVU318
 1619 018d 59       		popl	%ecx
 1620              		.cfi_def_cfa_offset 60
 1621 018e 8D930000 		leal	.LC11@GOTOFF(%ebx), %edx
 1621      0000
 1622 0194 58       		popl	%eax
 1623              		.cfi_def_cfa_offset 56
 1624 0195 89542414 		movl	%edx, 20(%esp)
 1625 0199 31C0     		xorl	%eax, %eax
 1626 019b 52       		pushl	%edx
 1627              		.cfi_def_cfa_offset 60
 1628 019c 8B542414 		movl	20(%esp), %edx
 1629 01a0 837A0402 		cmpl	$2, 4(%edx)
 1630 01a4 0F94C0   		sete	%al
 1631 01a7 50       		pushl	%eax
 1632              		.cfi_def_cfa_offset 64
 1633 01a8 E8FCFFFF 		call	__test_assert@PLT
 1633      FF
 1634              	.LVL103:
 1635 01ad 83C410   		addl	$16, %esp
 1636              		.cfi_def_cfa_offset 48
 1637 01b0 84C0     		testb	%al, %al
 1638 01b2 0F8590FE 		jne	.L62
 1638      FFFF
 1639              		.loc 1 508 64 view .LVU319
 1640              		.loc 1 510 5 view .LVU320
 1641 01b8 83EC0C   		subl	$12, %esp
 1642              		.cfi_def_cfa_offset 60
 1643 01bb FF742414 		pushl	20(%esp)
 1644              		.cfi_def_cfa_offset 64
 1645 01bf E8FCFFFF 		call	chFactoryReleaseMailbox@PLT
 1645      FF
 1646              	.LVL104:
 1647              		.loc 1 511 5 view .LVU321
 1648 01c4 58       		popl	%eax
 1649              		.cfi_def_cfa_offset 60
 1650 01c5 5A       		popl	%edx
 1651              		.cfi_def_cfa_offset 56
GAS LISTING /tmp/ccwdkvlB.s 			page 33


 1652 01c6 FF742414 		pushl	20(%esp)
 1653              		.cfi_def_cfa_offset 60
 1654 01ca 8B442410 		movl	16(%esp), %eax
 1655 01ce 83780401 		cmpl	$1, 4(%eax)
 1656 01d2 0F94C0   		sete	%al
 1657 01d5 0FB6C0   		movzbl	%al, %eax
 1658 01d8 50       		pushl	%eax
 1659              		.cfi_def_cfa_offset 64
 1660 01d9 E8FCFFFF 		call	__test_assert@PLT
 1660      FF
 1661              	.LVL105:
 1662 01de 83C410   		addl	$16, %esp
 1663              		.cfi_def_cfa_offset 48
 1664 01e1 84C0     		testb	%al, %al
 1665 01e3 0F855FFE 		jne	.L62
 1665      FFFF
 1666              		.loc 1 511 63 view .LVU322
 1667              	.LBE103:
 1668              		.loc 1 513 3 view .LVU323
 1669              		.loc 1 513 19 view .LVU324
 1670              		.loc 1 517 3 view .LVU325
 1671              		.loc 1 519 5 is_stmt 0 view .LVU326
 1672 01e9 83EC0C   		subl	$12, %esp
 1673              		.cfi_def_cfa_offset 60
 1674              		.loc 1 517 3 view .LVU327
 1675 01ec C7060500 		movl	$5, (%esi)
 1675      0000
 1676              		.loc 1 519 5 is_stmt 1 view .LVU328
 1677 01f2 FF742410 		pushl	16(%esp)
 1678              		.cfi_def_cfa_offset 64
 1679 01f6 E8FCFFFF 		call	chFactoryReleaseMailbox@PLT
 1679      FF
 1680              	.LVL106:
 1681              		.loc 1 521 3 view .LVU329
 1682              		.loc 1 521 19 view .LVU330
 1683              		.loc 1 525 3 view .LVU331
 1684              		.loc 1 527 11 is_stmt 0 view .LVU332
 1685 01fb 893C24   		movl	%edi, (%esp)
 1686              		.loc 1 525 3 view .LVU333
 1687 01fe C7060600 		movl	$6, (%esi)
 1687      0000
 1688              		.loc 1 527 5 is_stmt 1 view .LVU334
 1689              		.loc 1 527 11 is_stmt 0 view .LVU335
 1690 0204 E8FCFFFF 		call	chFactoryFindMailbox@PLT
 1690      FF
 1691              	.LVL107:
 1692              		.loc 1 528 5 is_stmt 1 view .LVU336
 1693 0209 5A       		popl	%edx
 1694              		.cfi_def_cfa_offset 60
 1695 020a 59       		popl	%ecx
 1696              		.cfi_def_cfa_offset 56
 1697 020b 55       		pushl	%ebp
 1698              		.cfi_def_cfa_offset 60
 1699 020c 85C0     		testl	%eax, %eax
 1700 020e 0F94C0   		sete	%al
 1701              	.LVL108:
 1702              		.loc 1 528 5 is_stmt 0 view .LVU337
GAS LISTING /tmp/ccwdkvlB.s 			page 34


 1703 0211 0FB6C0   		movzbl	%al, %eax
 1704 0214 50       		pushl	%eax
 1705              		.cfi_def_cfa_offset 64
 1706 0215 E8FCFFFF 		call	__test_assert@PLT
 1706      FF
 1707              	.LVL109:
 1708 021a 83C410   		addl	$16, %esp
 1709              		.cfi_def_cfa_offset 48
 1710              	.LVL110:
 1711              		.loc 1 528 5 view .LVU338
 1712              	.LBE95:
 1713              	.LBE94:
 1714              		.loc 1 528 38 is_stmt 1 view .LVU339
 1715              		.loc 1 530 3 view .LVU340
 1716              		.loc 1 530 19 view .LVU341
 1717              	.LBB105:
 1718              	.LBB104:
 1719 021d E926FEFF 		jmp	.L62
 1719      FF
 1720              	.LBE104:
 1721              	.LBE105:
 1722              		.cfi_endproc
 1723              	.LFE310:
 1724              		.size	oslib_test_009_004_execute, .-oslib_test_009_004_execute
 1725              		.section	.text.oslib_test_009_003_execute,"ax",@progbits
 1726              		.p2align 4
 1727              		.type	oslib_test_009_003_execute, @function
 1728              	oslib_test_009_003_execute:
 1729              	.LFB308:
 1730              		.loc 1 340 46 view -0
 1731              		.cfi_startproc
 1732              		.loc 1 341 3 view .LVU343
 1733              		.loc 1 344 3 view .LVU344
 1734              		.loc 1 340 46 is_stmt 0 view .LVU345
 1735 0000 55       		pushl	%ebp
 1736              		.cfi_def_cfa_offset 8
 1737              		.cfi_offset 5, -8
 1738 0001 57       		pushl	%edi
 1739              		.cfi_def_cfa_offset 12
 1740              		.cfi_offset 7, -12
 1741 0002 56       		pushl	%esi
 1742              		.cfi_def_cfa_offset 16
 1743              		.cfi_offset 6, -16
 1744 0003 53       		pushl	%ebx
 1745              		.cfi_def_cfa_offset 20
 1746              		.cfi_offset 3, -20
 1747 0004 E8FCFFFF 		call	__x86.get_pc_thunk.bx
 1747      FF
 1748 0009 81C30200 		addl	$_GLOBAL_OFFSET_TABLE_, %ebx
 1748      0000
 1749 000f 83EC28   		subl	$40, %esp
 1750              		.cfi_def_cfa_offset 60
 1751              		.loc 1 346 11 view .LVU346
 1752 0012 8DBB0000 		leal	.LC3@GOTOFF(%ebx), %edi
 1752      0000
 1753              		.loc 1 344 3 view .LVU347
 1754 0018 8BB30000 		movl	chtest@GOT(%ebx), %esi
GAS LISTING /tmp/ccwdkvlB.s 			page 35


 1754      0000
 1755              		.loc 1 346 11 view .LVU348
 1756 001e 57       		pushl	%edi
 1757              		.cfi_def_cfa_offset 64
 1758              		.loc 1 344 3 view .LVU349
 1759 001f C7060100 		movl	$1, (%esi)
 1759      0000
 1760              		.loc 1 346 5 is_stmt 1 view .LVU350
 1761              		.loc 1 346 11 is_stmt 0 view .LVU351
 1762 0025 E8FCFFFF 		call	chFactoryFindSemaphore@PLT
 1762      FF
 1763              	.LVL111:
 1764              		.loc 1 347 5 is_stmt 1 view .LVU352
 1765 002a 59       		popl	%ecx
 1766              		.cfi_def_cfa_offset 60
 1767 002b 5D       		popl	%ebp
 1768              		.cfi_def_cfa_offset 56
 1769 002c 8DAB0000 		leal	.LC6@GOTOFF(%ebx), %ebp
 1769      0000
 1770 0032 85C0     		testl	%eax, %eax
 1771 0034 55       		pushl	%ebp
 1772              		.cfi_def_cfa_offset 60
 1773 0035 0F94C0   		sete	%al
 1774              	.LVL112:
 1775              		.loc 1 347 5 is_stmt 0 view .LVU353
 1776 0038 0FB6C0   		movzbl	%al, %eax
 1777 003b 50       		pushl	%eax
 1778              		.cfi_def_cfa_offset 64
 1779 003c E8FCFFFF 		call	__test_assert@PLT
 1779      FF
 1780              	.LVL113:
 1781 0041 83C410   		addl	$16, %esp
 1782              		.cfi_def_cfa_offset 48
 1783 0044 84C0     		testb	%al, %al
 1784 0046 7408     		je	.L73
 1785              	.L68:
 1786              		.loc 1 411 1 view .LVU354
 1787 0048 83C41C   		addl	$28, %esp
 1788              		.cfi_remember_state
 1789              		.cfi_def_cfa_offset 20
 1790 004b 5B       		popl	%ebx
 1791              		.cfi_restore 3
 1792              		.cfi_def_cfa_offset 16
 1793 004c 5E       		popl	%esi
 1794              		.cfi_restore 6
 1795              		.cfi_def_cfa_offset 12
 1796 004d 5F       		popl	%edi
 1797              		.cfi_restore 7
 1798              		.cfi_def_cfa_offset 8
 1799 004e 5D       		popl	%ebp
 1800              		.cfi_restore 5
 1801              		.cfi_def_cfa_offset 4
 1802 004f C3       		ret
 1803              		.p2align 4,,10
 1804              		.p2align 3
 1805              	.L73:
 1806              		.cfi_restore_state
GAS LISTING /tmp/ccwdkvlB.s 			page 36


 1807              	.LBB112:
 1808              	.LBI112:
 1809              		.loc 1 340 13 is_stmt 1 view .LVU355
 1810              	.LBB113:
 1811              		.loc 1 347 38 view .LVU356
 1812              		.loc 1 349 3 view .LVU357
 1813              		.loc 1 349 19 view .LVU358
 1814              		.loc 1 353 3 view .LVU359
 1815              		.loc 1 355 11 is_stmt 0 view .LVU360
 1816 0050 83EC08   		subl	$8, %esp
 1817              		.cfi_def_cfa_offset 56
 1818              		.loc 1 353 3 view .LVU361
 1819 0053 C7060200 		movl	$2, (%esi)
 1819      0000
 1820              		.loc 1 355 5 is_stmt 1 view .LVU362
 1821              		.loc 1 355 11 is_stmt 0 view .LVU363
 1822 0059 6A00     		pushl	$0
 1823              		.cfi_def_cfa_offset 60
 1824 005b 57       		pushl	%edi
 1825              		.cfi_def_cfa_offset 64
 1826 005c E8FCFFFF 		call	chFactoryCreateSemaphore@PLT
 1826      FF
 1827              	.LVL114:
 1828 0061 89C1     		movl	%eax, %ecx
 1829              	.LVL115:
 1830              		.loc 1 356 5 is_stmt 1 view .LVU364
 1831 0063 58       		popl	%eax
 1832              		.cfi_def_cfa_offset 60
 1833              	.LVL116:
 1834              		.loc 1 356 5 is_stmt 0 view .LVU365
 1835 0064 8D830000 		leal	.LC7@GOTOFF(%ebx), %eax
 1835      0000
 1836 006a 5A       		popl	%edx
 1837              		.cfi_def_cfa_offset 56
 1838 006b 85C9     		testl	%ecx, %ecx
 1839 006d 50       		pushl	%eax
 1840              		.cfi_def_cfa_offset 60
 1841 006e 0F95C0   		setne	%al
 1842 0071 0FB6C0   		movzbl	%al, %eax
 1843 0074 894C2410 		movl	%ecx, 16(%esp)
 1844 0078 50       		pushl	%eax
 1845              		.cfi_def_cfa_offset 64
 1846 0079 E8FCFFFF 		call	__test_assert@PLT
 1846      FF
 1847              	.LVL117:
 1848              		.loc 1 356 5 view .LVU366
 1849 007e 83C410   		addl	$16, %esp
 1850              		.cfi_def_cfa_offset 48
 1851 0081 84C0     		testb	%al, %al
 1852 0083 75C3     		jne	.L68
 1853              		.loc 1 356 46 is_stmt 1 view .LVU367
 1854              		.loc 1 358 3 view .LVU368
 1855              		.loc 1 358 19 view .LVU369
 1856              		.loc 1 362 3 view .LVU370
 1857              	.LBB114:
 1858              		.loc 1 366 12 is_stmt 0 view .LVU371
 1859 0085 83EC08   		subl	$8, %esp
GAS LISTING /tmp/ccwdkvlB.s 			page 37


 1860              		.cfi_def_cfa_offset 56
 1861              	.LBE114:
 1862              		.loc 1 362 3 view .LVU372
 1863 0088 C7060300 		movl	$3, (%esi)
 1863      0000
 1864              	.LBB115:
 1865              		.loc 1 364 5 is_stmt 1 view .LVU373
 1866              		.loc 1 366 5 view .LVU374
 1867              		.loc 1 366 12 is_stmt 0 view .LVU375
 1868 008e 6A00     		pushl	$0
 1869              		.cfi_def_cfa_offset 60
 1870 0090 57       		pushl	%edi
 1871              		.cfi_def_cfa_offset 64
 1872 0091 E8FCFFFF 		call	chFactoryCreateSemaphore@PLT
 1872      FF
 1873              	.LVL118:
 1874              		.loc 1 367 5 is_stmt 1 view .LVU376
 1875 0096 5A       		popl	%edx
 1876              		.cfi_def_cfa_offset 60
 1877 0097 8D930000 		leal	.LC8@GOTOFF(%ebx), %edx
 1877      0000
 1878 009d 59       		popl	%ecx
 1879              		.cfi_def_cfa_offset 56
 1880 009e 85C0     		testl	%eax, %eax
 1881 00a0 52       		pushl	%edx
 1882              		.cfi_def_cfa_offset 60
 1883 00a1 0F94C0   		sete	%al
 1884              	.LVL119:
 1885              		.loc 1 367 5 is_stmt 0 view .LVU377
 1886 00a4 0FB6C0   		movzbl	%al, %eax
 1887 00a7 50       		pushl	%eax
 1888              		.cfi_def_cfa_offset 64
 1889 00a8 E8FCFFFF 		call	__test_assert@PLT
 1889      FF
 1890              	.LVL120:
 1891 00ad 83C410   		addl	$16, %esp
 1892              		.cfi_def_cfa_offset 48
 1893 00b0 84C0     		testb	%al, %al
 1894 00b2 7594     		jne	.L68
 1895              		.loc 1 367 44 is_stmt 1 view .LVU378
 1896              	.LBE115:
 1897              		.loc 1 369 3 view .LVU379
 1898              		.loc 1 369 19 view .LVU380
 1899              		.loc 1 374 3 view .LVU381
 1900              	.LBB116:
 1901              		.loc 1 378 12 is_stmt 0 view .LVU382
 1902 00b4 83EC0C   		subl	$12, %esp
 1903              		.cfi_def_cfa_offset 60
 1904              	.LBE116:
 1905              		.loc 1 374 3 view .LVU383
 1906 00b7 C7060400 		movl	$4, (%esi)
 1906      0000
 1907              	.LBB121:
 1908              		.loc 1 376 5 is_stmt 1 view .LVU384
 1909              		.loc 1 378 5 view .LVU385
 1910              		.loc 1 378 12 is_stmt 0 view .LVU386
 1911 00bd 57       		pushl	%edi
GAS LISTING /tmp/ccwdkvlB.s 			page 38


 1912              		.cfi_def_cfa_offset 64
 1913 00be E8FCFFFF 		call	chFactoryFindSemaphore@PLT
 1913      FF
 1914              	.LVL121:
 1915 00c3 89C2     		movl	%eax, %edx
 1916              	.LVL122:
 1917              		.loc 1 379 5 is_stmt 1 view .LVU387
 1918 00c5 58       		popl	%eax
 1919              		.cfi_def_cfa_offset 60
 1920              	.LVL123:
 1921              		.loc 1 379 5 is_stmt 0 view .LVU388
 1922 00c6 8D830000 		leal	.LC9@GOTOFF(%ebx), %eax
 1922      0000
 1923 00cc 59       		popl	%ecx
 1924              		.cfi_def_cfa_offset 56
 1925 00cd 50       		pushl	%eax
 1926              		.cfi_def_cfa_offset 60
 1927 00ce 31C0     		xorl	%eax, %eax
 1928 00d0 85D2     		testl	%edx, %edx
 1929 00d2 0F95C0   		setne	%al
 1930 00d5 89542414 		movl	%edx, 20(%esp)
 1931 00d9 50       		pushl	%eax
 1932              		.cfi_def_cfa_offset 64
 1933 00da E8FCFFFF 		call	__test_assert@PLT
 1933      FF
 1934              	.LVL124:
 1935              		.loc 1 379 5 view .LVU389
 1936 00df 83C410   		addl	$16, %esp
 1937              		.cfi_def_cfa_offset 48
 1938 00e2 84C0     		testb	%al, %al
 1939 00e4 0F855EFF 		jne	.L68
 1939      FFFF
 1940              		.loc 1 379 43 is_stmt 1 view .LVU390
 1941              		.loc 1 380 5 view .LVU391
 1942 00ea 83EC08   		subl	$8, %esp
 1943              		.cfi_def_cfa_offset 56
 1944 00ed 8D930000 		leal	.LC10@GOTOFF(%ebx), %edx
 1944      0000
 1945 00f3 31C0     		xorl	%eax, %eax
 1946 00f5 89542414 		movl	%edx, 20(%esp)
 1947 00f9 52       		pushl	%edx
 1948              		.cfi_def_cfa_offset 60
 1949 00fa 8B542414 		movl	20(%esp), %edx
 1950 00fe 39542410 		cmpl	%edx, 16(%esp)
 1951 0102 0F94C0   		sete	%al
 1952 0105 50       		pushl	%eax
 1953              		.cfi_def_cfa_offset 64
 1954 0106 E8FCFFFF 		call	__test_assert@PLT
 1954      FF
 1955              	.LVL125:
 1956 010b 83C410   		addl	$16, %esp
 1957              		.cfi_def_cfa_offset 48
 1958 010e 84C0     		testb	%al, %al
 1959 0110 0F8532FF 		jne	.L68
 1959      FFFF
 1960              		.loc 1 380 58 view .LVU392
 1961              		.loc 1 381 5 view .LVU393
GAS LISTING /tmp/ccwdkvlB.s 			page 39


 1962 0116 83EC08   		subl	$8, %esp
 1963              		.cfi_def_cfa_offset 56
 1964 0119 31C0     		xorl	%eax, %eax
 1965 011b FF742414 		pushl	20(%esp)
 1966              		.cfi_def_cfa_offset 60
 1967 011f 8B542414 		movl	20(%esp), %edx
 1968 0123 837A0402 		cmpl	$2, 4(%edx)
 1969 0127 0F94C0   		sete	%al
 1970 012a 50       		pushl	%eax
 1971              		.cfi_def_cfa_offset 64
 1972 012b E8FCFFFF 		call	__test_assert@PLT
 1972      FF
 1973              	.LVL126:
 1974 0130 83C410   		addl	$16, %esp
 1975              		.cfi_def_cfa_offset 48
 1976 0133 84C0     		testb	%al, %al
 1977 0135 0F850DFF 		jne	.L68
 1977      FFFF
 1978              		.loc 1 381 70 view .LVU394
 1979              		.loc 1 383 5 view .LVU395
 1980              	.LVL127:
 1981              	.LBB117:
 1982              	.LBI117:
 1983              		.loc 2 409 30 view .LVU396
 1984              	.LBB118:
 1985              		.loc 2 411 3 view .LVU397
 1986              		.loc 2 411 12 is_stmt 0 view .LVU398
 1987 013b 8B542408 		movl	8(%esp), %edx
 1988              	.LBE118:
 1989              	.LBE117:
 1990              		.loc 1 384 5 view .LVU399
 1991 013f 83EC08   		subl	$8, %esp
 1992              		.cfi_def_cfa_offset 56
 1993              	.LBB120:
 1994              	.LBB119:
 1995              		.loc 2 411 12 view .LVU400
 1996 0142 83420401 		addl	$1, 4(%edx)
 1997              		.loc 2 413 3 is_stmt 1 view .LVU401
 1998              	.LVL128:
 1999              		.loc 2 413 3 is_stmt 0 view .LVU402
 2000              	.LBE119:
 2001              	.LBE120:
 2002              		.loc 1 384 5 is_stmt 1 view .LVU403
 2003 0146 FF742414 		pushl	20(%esp)
 2004              		.cfi_def_cfa_offset 60
 2005 014a 6A01     		pushl	$1
 2006              		.cfi_def_cfa_offset 64
 2007 014c E8FCFFFF 		call	__test_assert@PLT
 2007      FF
 2008              	.LVL129:
 2009 0151 83C410   		addl	$16, %esp
 2010              		.cfi_def_cfa_offset 48
 2011 0154 84C0     		testb	%al, %al
 2012 0156 0F85ECFE 		jne	.L68
 2012      FFFF
 2013              		.loc 1 384 59 view .LVU404
 2014              		.loc 1 385 5 view .LVU405
GAS LISTING /tmp/ccwdkvlB.s 			page 40


 2015 015c 83EC08   		subl	$8, %esp
 2016              		.cfi_def_cfa_offset 56
 2017 015f 31C0     		xorl	%eax, %eax
 2018 0161 FF742414 		pushl	20(%esp)
 2019              		.cfi_def_cfa_offset 60
 2020 0165 8B542414 		movl	20(%esp), %edx
 2021 0169 837A0403 		cmpl	$3, 4(%edx)
 2022 016d 0F94C0   		sete	%al
 2023 0170 50       		pushl	%eax
 2024              		.cfi_def_cfa_offset 64
 2025 0171 E8FCFFFF 		call	__test_assert@PLT
 2025      FF
 2026              	.LVL130:
 2027 0176 83C410   		addl	$16, %esp
 2028              		.cfi_def_cfa_offset 48
 2029 0179 84C0     		testb	%al, %al
 2030 017b 0F85C7FE 		jne	.L68
 2030      FFFF
 2031              		.loc 1 385 70 view .LVU406
 2032              		.loc 1 387 5 view .LVU407
 2033 0181 83EC0C   		subl	$12, %esp
 2034              		.cfi_def_cfa_offset 60
 2035 0184 FF742414 		pushl	20(%esp)
 2036              		.cfi_def_cfa_offset 64
 2037 0188 E8FCFFFF 		call	chFactoryReleaseSemaphore@PLT
 2037      FF
 2038              	.LVL131:
 2039              		.loc 1 388 5 view .LVU408
 2040 018d 59       		popl	%ecx
 2041              		.cfi_def_cfa_offset 60
 2042 018e 8D930000 		leal	.LC11@GOTOFF(%ebx), %edx
 2042      0000
 2043 0194 58       		popl	%eax
 2044              		.cfi_def_cfa_offset 56
 2045 0195 89542414 		movl	%edx, 20(%esp)
 2046 0199 31C0     		xorl	%eax, %eax
 2047 019b 52       		pushl	%edx
 2048              		.cfi_def_cfa_offset 60
 2049 019c 8B542414 		movl	20(%esp), %edx
 2050 01a0 837A0402 		cmpl	$2, 4(%edx)
 2051 01a4 0F94C0   		sete	%al
 2052 01a7 50       		pushl	%eax
 2053              		.cfi_def_cfa_offset 64
 2054 01a8 E8FCFFFF 		call	__test_assert@PLT
 2054      FF
 2055              	.LVL132:
 2056 01ad 83C410   		addl	$16, %esp
 2057              		.cfi_def_cfa_offset 48
 2058 01b0 84C0     		testb	%al, %al
 2059 01b2 0F8590FE 		jne	.L68
 2059      FFFF
 2060              		.loc 1 388 64 view .LVU409
 2061              		.loc 1 390 5 view .LVU410
 2062 01b8 83EC0C   		subl	$12, %esp
 2063              		.cfi_def_cfa_offset 60
 2064 01bb FF742414 		pushl	20(%esp)
 2065              		.cfi_def_cfa_offset 64
GAS LISTING /tmp/ccwdkvlB.s 			page 41


 2066 01bf E8FCFFFF 		call	chFactoryReleaseSemaphore@PLT
 2066      FF
 2067              	.LVL133:
 2068              		.loc 1 391 5 view .LVU411
 2069 01c4 58       		popl	%eax
 2070              		.cfi_def_cfa_offset 60
 2071 01c5 5A       		popl	%edx
 2072              		.cfi_def_cfa_offset 56
 2073 01c6 FF742414 		pushl	20(%esp)
 2074              		.cfi_def_cfa_offset 60
 2075 01ca 8B442410 		movl	16(%esp), %eax
 2076 01ce 83780401 		cmpl	$1, 4(%eax)
 2077 01d2 0F94C0   		sete	%al
 2078 01d5 0FB6C0   		movzbl	%al, %eax
 2079 01d8 50       		pushl	%eax
 2080              		.cfi_def_cfa_offset 64
 2081 01d9 E8FCFFFF 		call	__test_assert@PLT
 2081      FF
 2082              	.LVL134:
 2083 01de 83C410   		addl	$16, %esp
 2084              		.cfi_def_cfa_offset 48
 2085 01e1 84C0     		testb	%al, %al
 2086 01e3 0F855FFE 		jne	.L68
 2086      FFFF
 2087              		.loc 1 391 63 view .LVU412
 2088              	.LBE121:
 2089              		.loc 1 393 3 view .LVU413
 2090              		.loc 1 393 19 view .LVU414
 2091              		.loc 1 397 3 view .LVU415
 2092              		.loc 1 399 5 is_stmt 0 view .LVU416
 2093 01e9 83EC0C   		subl	$12, %esp
 2094              		.cfi_def_cfa_offset 60
 2095              		.loc 1 397 3 view .LVU417
 2096 01ec C7060500 		movl	$5, (%esi)
 2096      0000
 2097              		.loc 1 399 5 is_stmt 1 view .LVU418
 2098 01f2 FF742410 		pushl	16(%esp)
 2099              		.cfi_def_cfa_offset 64
 2100 01f6 E8FCFFFF 		call	chFactoryReleaseSemaphore@PLT
 2100      FF
 2101              	.LVL135:
 2102              		.loc 1 401 3 view .LVU419
 2103              		.loc 1 401 19 view .LVU420
 2104              		.loc 1 405 3 view .LVU421
 2105              		.loc 1 407 11 is_stmt 0 view .LVU422
 2106 01fb 893C24   		movl	%edi, (%esp)
 2107              		.loc 1 405 3 view .LVU423
 2108 01fe C7060600 		movl	$6, (%esi)
 2108      0000
 2109              		.loc 1 407 5 is_stmt 1 view .LVU424
 2110              		.loc 1 407 11 is_stmt 0 view .LVU425
 2111 0204 E8FCFFFF 		call	chFactoryFindSemaphore@PLT
 2111      FF
 2112              	.LVL136:
 2113              		.loc 1 408 5 is_stmt 1 view .LVU426
 2114 0209 5A       		popl	%edx
 2115              		.cfi_def_cfa_offset 60
GAS LISTING /tmp/ccwdkvlB.s 			page 42


 2116 020a 59       		popl	%ecx
 2117              		.cfi_def_cfa_offset 56
 2118 020b 55       		pushl	%ebp
 2119              		.cfi_def_cfa_offset 60
 2120 020c 85C0     		testl	%eax, %eax
 2121 020e 0F94C0   		sete	%al
 2122              	.LVL137:
 2123              		.loc 1 408 5 is_stmt 0 view .LVU427
 2124 0211 0FB6C0   		movzbl	%al, %eax
 2125 0214 50       		pushl	%eax
 2126              		.cfi_def_cfa_offset 64
 2127 0215 E8FCFFFF 		call	__test_assert@PLT
 2127      FF
 2128              	.LVL138:
 2129 021a 83C410   		addl	$16, %esp
 2130              		.cfi_def_cfa_offset 48
 2131              	.LVL139:
 2132              		.loc 1 408 5 view .LVU428
 2133              	.LBE113:
 2134              	.LBE112:
 2135              		.loc 1 408 38 is_stmt 1 view .LVU429
 2136              		.loc 1 410 3 view .LVU430
 2137              		.loc 1 410 19 view .LVU431
 2138              	.LBB123:
 2139              	.LBB122:
 2140 021d E926FEFF 		jmp	.L68
 2140      FF
 2141              	.LBE122:
 2142              	.LBE123:
 2143              		.cfi_endproc
 2144              	.LFE308:
 2145              		.size	oslib_test_009_003_execute, .-oslib_test_009_003_execute
 2146              		.section	.text.oslib_test_009_002_execute,"ax",@progbits
 2147              		.p2align 4
 2148              		.type	oslib_test_009_002_execute, @function
 2149              	oslib_test_009_002_execute:
 2150              	.LFB306:
 2151              		.loc 1 220 46 view -0
 2152              		.cfi_startproc
 2153              		.loc 1 221 3 view .LVU433
 2154              		.loc 1 224 3 view .LVU434
 2155              		.loc 1 220 46 is_stmt 0 view .LVU435
 2156 0000 55       		pushl	%ebp
 2157              		.cfi_def_cfa_offset 8
 2158              		.cfi_offset 5, -8
 2159 0001 57       		pushl	%edi
 2160              		.cfi_def_cfa_offset 12
 2161              		.cfi_offset 7, -12
 2162 0002 56       		pushl	%esi
 2163              		.cfi_def_cfa_offset 16
 2164              		.cfi_offset 6, -16
 2165 0003 53       		pushl	%ebx
 2166              		.cfi_def_cfa_offset 20
 2167              		.cfi_offset 3, -20
 2168 0004 E8FCFFFF 		call	__x86.get_pc_thunk.bx
 2168      FF
 2169 0009 81C30200 		addl	$_GLOBAL_OFFSET_TABLE_, %ebx
GAS LISTING /tmp/ccwdkvlB.s 			page 43


 2169      0000
 2170 000f 83EC28   		subl	$40, %esp
 2171              		.cfi_def_cfa_offset 60
 2172              		.loc 1 226 11 view .LVU436
 2173 0012 8DBB0000 		leal	.LC4@GOTOFF(%ebx), %edi
 2173      0000
 2174              		.loc 1 224 3 view .LVU437
 2175 0018 8BB30000 		movl	chtest@GOT(%ebx), %esi
 2175      0000
 2176              		.loc 1 226 11 view .LVU438
 2177 001e 57       		pushl	%edi
 2178              		.cfi_def_cfa_offset 64
 2179              		.loc 1 224 3 view .LVU439
 2180 001f C7060100 		movl	$1, (%esi)
 2180      0000
 2181              		.loc 1 226 5 is_stmt 1 view .LVU440
 2182              		.loc 1 226 11 is_stmt 0 view .LVU441
 2183 0025 E8FCFFFF 		call	chFactoryFindBuffer@PLT
 2183      FF
 2184              	.LVL140:
 2185              		.loc 1 227 5 is_stmt 1 view .LVU442
 2186 002a 59       		popl	%ecx
 2187              		.cfi_def_cfa_offset 60
 2188 002b 5D       		popl	%ebp
 2189              		.cfi_def_cfa_offset 56
 2190 002c 8DAB0000 		leal	.LC6@GOTOFF(%ebx), %ebp
 2190      0000
 2191 0032 85C0     		testl	%eax, %eax
 2192 0034 55       		pushl	%ebp
 2193              		.cfi_def_cfa_offset 60
 2194 0035 0F94C0   		sete	%al
 2195              	.LVL141:
 2196              		.loc 1 227 5 is_stmt 0 view .LVU443
 2197 0038 0FB6C0   		movzbl	%al, %eax
 2198 003b 50       		pushl	%eax
 2199              		.cfi_def_cfa_offset 64
 2200 003c E8FCFFFF 		call	__test_assert@PLT
 2200      FF
 2201              	.LVL142:
 2202 0041 83C410   		addl	$16, %esp
 2203              		.cfi_def_cfa_offset 48
 2204 0044 84C0     		testb	%al, %al
 2205 0046 7408     		je	.L79
 2206              	.L74:
 2207              		.loc 1 290 1 view .LVU444
 2208 0048 83C41C   		addl	$28, %esp
 2209              		.cfi_remember_state
 2210              		.cfi_def_cfa_offset 20
 2211 004b 5B       		popl	%ebx
 2212              		.cfi_restore 3
 2213              		.cfi_def_cfa_offset 16
 2214 004c 5E       		popl	%esi
 2215              		.cfi_restore 6
 2216              		.cfi_def_cfa_offset 12
 2217 004d 5F       		popl	%edi
 2218              		.cfi_restore 7
 2219              		.cfi_def_cfa_offset 8
GAS LISTING /tmp/ccwdkvlB.s 			page 44


 2220 004e 5D       		popl	%ebp
 2221              		.cfi_restore 5
 2222              		.cfi_def_cfa_offset 4
 2223 004f C3       		ret
 2224              		.p2align 4,,10
 2225              		.p2align 3
 2226              	.L79:
 2227              		.cfi_restore_state
 2228              	.LBB130:
 2229              	.LBI130:
 2230              		.loc 1 220 13 is_stmt 1 view .LVU445
 2231              	.LBB131:
 2232              		.loc 1 227 38 view .LVU446
 2233              		.loc 1 229 3 view .LVU447
 2234              		.loc 1 229 19 view .LVU448
 2235              		.loc 1 233 3 view .LVU449
 2236              		.loc 1 235 11 is_stmt 0 view .LVU450
 2237 0050 83EC08   		subl	$8, %esp
 2238              		.cfi_def_cfa_offset 56
 2239              		.loc 1 233 3 view .LVU451
 2240 0053 C7060200 		movl	$2, (%esi)
 2240      0000
 2241              		.loc 1 235 5 is_stmt 1 view .LVU452
 2242              		.loc 1 235 11 is_stmt 0 view .LVU453
 2243 0059 68800000 		pushl	$128
 2243      00
 2244              		.cfi_def_cfa_offset 60
 2245 005e 57       		pushl	%edi
 2246              		.cfi_def_cfa_offset 64
 2247 005f E8FCFFFF 		call	chFactoryCreateBuffer@PLT
 2247      FF
 2248              	.LVL143:
 2249 0064 89C1     		movl	%eax, %ecx
 2250              	.LVL144:
 2251              		.loc 1 236 5 is_stmt 1 view .LVU454
 2252 0066 58       		popl	%eax
 2253              		.cfi_def_cfa_offset 60
 2254              	.LVL145:
 2255              		.loc 1 236 5 is_stmt 0 view .LVU455
 2256 0067 8D830000 		leal	.LC7@GOTOFF(%ebx), %eax
 2256      0000
 2257 006d 5A       		popl	%edx
 2258              		.cfi_def_cfa_offset 56
 2259 006e 85C9     		testl	%ecx, %ecx
 2260 0070 50       		pushl	%eax
 2261              		.cfi_def_cfa_offset 60
 2262 0071 0F95C0   		setne	%al
 2263 0074 0FB6C0   		movzbl	%al, %eax
 2264 0077 894C2410 		movl	%ecx, 16(%esp)
 2265 007b 50       		pushl	%eax
 2266              		.cfi_def_cfa_offset 64
 2267 007c E8FCFFFF 		call	__test_assert@PLT
 2267      FF
 2268              	.LVL146:
 2269              		.loc 1 236 5 view .LVU456
 2270 0081 83C410   		addl	$16, %esp
 2271              		.cfi_def_cfa_offset 48
GAS LISTING /tmp/ccwdkvlB.s 			page 45


 2272 0084 84C0     		testb	%al, %al
 2273 0086 75C0     		jne	.L74
 2274              		.loc 1 236 46 is_stmt 1 view .LVU457
 2275              		.loc 1 238 3 view .LVU458
 2276              		.loc 1 238 19 view .LVU459
 2277              		.loc 1 241 3 view .LVU460
 2278              	.LBB132:
 2279              		.loc 1 245 12 is_stmt 0 view .LVU461
 2280 0088 83EC08   		subl	$8, %esp
 2281              		.cfi_def_cfa_offset 56
 2282              	.LBE132:
 2283              		.loc 1 241 3 view .LVU462
 2284 008b C7060300 		movl	$3, (%esi)
 2284      0000
 2285              	.LBB133:
 2286              		.loc 1 243 5 is_stmt 1 view .LVU463
 2287              		.loc 1 245 5 view .LVU464
 2288              		.loc 1 245 12 is_stmt 0 view .LVU465
 2289 0091 68800000 		pushl	$128
 2289      00
 2290              		.cfi_def_cfa_offset 60
 2291 0096 57       		pushl	%edi
 2292              		.cfi_def_cfa_offset 64
 2293 0097 E8FCFFFF 		call	chFactoryCreateBuffer@PLT
 2293      FF
 2294              	.LVL147:
 2295              		.loc 1 246 5 is_stmt 1 view .LVU466
 2296 009c 5A       		popl	%edx
 2297              		.cfi_def_cfa_offset 60
 2298 009d 8D930000 		leal	.LC8@GOTOFF(%ebx), %edx
 2298      0000
 2299 00a3 59       		popl	%ecx
 2300              		.cfi_def_cfa_offset 56
 2301 00a4 85C0     		testl	%eax, %eax
 2302 00a6 52       		pushl	%edx
 2303              		.cfi_def_cfa_offset 60
 2304 00a7 0F94C0   		sete	%al
 2305              	.LVL148:
 2306              		.loc 1 246 5 is_stmt 0 view .LVU467
 2307 00aa 0FB6C0   		movzbl	%al, %eax
 2308 00ad 50       		pushl	%eax
 2309              		.cfi_def_cfa_offset 64
 2310 00ae E8FCFFFF 		call	__test_assert@PLT
 2310      FF
 2311              	.LVL149:
 2312 00b3 83C410   		addl	$16, %esp
 2313              		.cfi_def_cfa_offset 48
 2314 00b6 84C0     		testb	%al, %al
 2315 00b8 758E     		jne	.L74
 2316              		.loc 1 246 44 is_stmt 1 view .LVU468
 2317              	.LBE133:
 2318              		.loc 1 248 3 view .LVU469
 2319              		.loc 1 248 19 view .LVU470
 2320              		.loc 1 253 3 view .LVU471
 2321              	.LBB134:
 2322              		.loc 1 257 12 is_stmt 0 view .LVU472
 2323 00ba 83EC0C   		subl	$12, %esp
GAS LISTING /tmp/ccwdkvlB.s 			page 46


 2324              		.cfi_def_cfa_offset 60
 2325              	.LBE134:
 2326              		.loc 1 253 3 view .LVU473
 2327 00bd C7060400 		movl	$4, (%esi)
 2327      0000
 2328              	.LBB139:
 2329              		.loc 1 255 5 is_stmt 1 view .LVU474
 2330              		.loc 1 257 5 view .LVU475
 2331              		.loc 1 257 12 is_stmt 0 view .LVU476
 2332 00c3 57       		pushl	%edi
 2333              		.cfi_def_cfa_offset 64
 2334 00c4 E8FCFFFF 		call	chFactoryFindBuffer@PLT
 2334      FF
 2335              	.LVL150:
 2336 00c9 89C2     		movl	%eax, %edx
 2337              	.LVL151:
 2338              		.loc 1 258 5 is_stmt 1 view .LVU477
 2339 00cb 58       		popl	%eax
 2340              		.cfi_def_cfa_offset 60
 2341              	.LVL152:
 2342              		.loc 1 258 5 is_stmt 0 view .LVU478
 2343 00cc 8D830000 		leal	.LC9@GOTOFF(%ebx), %eax
 2343      0000
 2344 00d2 59       		popl	%ecx
 2345              		.cfi_def_cfa_offset 56
 2346 00d3 50       		pushl	%eax
 2347              		.cfi_def_cfa_offset 60
 2348 00d4 31C0     		xorl	%eax, %eax
 2349 00d6 85D2     		testl	%edx, %edx
 2350 00d8 0F95C0   		setne	%al
 2351 00db 89542414 		movl	%edx, 20(%esp)
 2352 00df 50       		pushl	%eax
 2353              		.cfi_def_cfa_offset 64
 2354 00e0 E8FCFFFF 		call	__test_assert@PLT
 2354      FF
 2355              	.LVL153:
 2356              		.loc 1 258 5 view .LVU479
 2357 00e5 83C410   		addl	$16, %esp
 2358              		.cfi_def_cfa_offset 48
 2359 00e8 84C0     		testb	%al, %al
 2360 00ea 0F8558FF 		jne	.L74
 2360      FFFF
 2361              		.loc 1 258 43 is_stmt 1 view .LVU480
 2362              		.loc 1 259 5 view .LVU481
 2363 00f0 83EC08   		subl	$8, %esp
 2364              		.cfi_def_cfa_offset 56
 2365 00f3 8D930000 		leal	.LC10@GOTOFF(%ebx), %edx
 2365      0000
 2366 00f9 31C0     		xorl	%eax, %eax
 2367 00fb 89542414 		movl	%edx, 20(%esp)
 2368 00ff 52       		pushl	%edx
 2369              		.cfi_def_cfa_offset 60
 2370 0100 8B542414 		movl	20(%esp), %edx
 2371 0104 39542410 		cmpl	%edx, 16(%esp)
 2372 0108 0F94C0   		sete	%al
 2373 010b 50       		pushl	%eax
 2374              		.cfi_def_cfa_offset 64
GAS LISTING /tmp/ccwdkvlB.s 			page 47


 2375 010c E8FCFFFF 		call	__test_assert@PLT
 2375      FF
 2376              	.LVL154:
 2377 0111 83C410   		addl	$16, %esp
 2378              		.cfi_def_cfa_offset 48
 2379 0114 84C0     		testb	%al, %al
 2380 0116 0F852CFF 		jne	.L74
 2380      FFFF
 2381              		.loc 1 259 58 view .LVU482
 2382              		.loc 1 260 5 view .LVU483
 2383 011c 83EC08   		subl	$8, %esp
 2384              		.cfi_def_cfa_offset 56
 2385 011f 31C0     		xorl	%eax, %eax
 2386 0121 FF742414 		pushl	20(%esp)
 2387              		.cfi_def_cfa_offset 60
 2388 0125 8B542414 		movl	20(%esp), %edx
 2389 0129 837A0402 		cmpl	$2, 4(%edx)
 2390 012d 0F94C0   		sete	%al
 2391 0130 50       		pushl	%eax
 2392              		.cfi_def_cfa_offset 64
 2393 0131 E8FCFFFF 		call	__test_assert@PLT
 2393      FF
 2394              	.LVL155:
 2395 0136 83C410   		addl	$16, %esp
 2396              		.cfi_def_cfa_offset 48
 2397 0139 84C0     		testb	%al, %al
 2398 013b 0F8507FF 		jne	.L74
 2398      FFFF
 2399              		.loc 1 260 70 view .LVU484
 2400              		.loc 1 262 5 view .LVU485
 2401              	.LVL156:
 2402              	.LBB135:
 2403              	.LBI135:
 2404              		.loc 2 409 30 view .LVU486
 2405              	.LBB136:
 2406              		.loc 2 411 3 view .LVU487
 2407              		.loc 2 411 12 is_stmt 0 view .LVU488
 2408 0141 8B542408 		movl	8(%esp), %edx
 2409              	.LBE136:
 2410              	.LBE135:
 2411              		.loc 1 263 5 view .LVU489
 2412 0145 83EC08   		subl	$8, %esp
 2413              		.cfi_def_cfa_offset 56
 2414              	.LBB138:
 2415              	.LBB137:
 2416              		.loc 2 411 12 view .LVU490
 2417 0148 83420401 		addl	$1, 4(%edx)
 2418              		.loc 2 413 3 is_stmt 1 view .LVU491
 2419              	.LVL157:
 2420              		.loc 2 413 3 is_stmt 0 view .LVU492
 2421              	.LBE137:
 2422              	.LBE138:
 2423              		.loc 1 263 5 is_stmt 1 view .LVU493
 2424 014c FF742414 		pushl	20(%esp)
 2425              		.cfi_def_cfa_offset 60
 2426 0150 6A01     		pushl	$1
 2427              		.cfi_def_cfa_offset 64
GAS LISTING /tmp/ccwdkvlB.s 			page 48


 2428 0152 E8FCFFFF 		call	__test_assert@PLT
 2428      FF
 2429              	.LVL158:
 2430 0157 83C410   		addl	$16, %esp
 2431              		.cfi_def_cfa_offset 48
 2432 015a 84C0     		testb	%al, %al
 2433 015c 0F85E6FE 		jne	.L74
 2433      FFFF
 2434              		.loc 1 263 59 view .LVU494
 2435              		.loc 1 264 5 view .LVU495
 2436 0162 83EC08   		subl	$8, %esp
 2437              		.cfi_def_cfa_offset 56
 2438 0165 31C0     		xorl	%eax, %eax
 2439 0167 FF742414 		pushl	20(%esp)
 2440              		.cfi_def_cfa_offset 60
 2441 016b 8B542414 		movl	20(%esp), %edx
 2442 016f 837A0403 		cmpl	$3, 4(%edx)
 2443 0173 0F94C0   		sete	%al
 2444 0176 50       		pushl	%eax
 2445              		.cfi_def_cfa_offset 64
 2446 0177 E8FCFFFF 		call	__test_assert@PLT
 2446      FF
 2447              	.LVL159:
 2448 017c 83C410   		addl	$16, %esp
 2449              		.cfi_def_cfa_offset 48
 2450 017f 84C0     		testb	%al, %al
 2451 0181 0F85C1FE 		jne	.L74
 2451      FFFF
 2452              		.loc 1 264 70 view .LVU496
 2453              		.loc 1 266 5 view .LVU497
 2454 0187 83EC0C   		subl	$12, %esp
 2455              		.cfi_def_cfa_offset 60
 2456 018a FF742414 		pushl	20(%esp)
 2457              		.cfi_def_cfa_offset 64
 2458 018e E8FCFFFF 		call	chFactoryReleaseBuffer@PLT
 2458      FF
 2459              	.LVL160:
 2460              		.loc 1 267 5 view .LVU498
 2461 0193 59       		popl	%ecx
 2462              		.cfi_def_cfa_offset 60
 2463 0194 8D930000 		leal	.LC11@GOTOFF(%ebx), %edx
 2463      0000
 2464 019a 58       		popl	%eax
 2465              		.cfi_def_cfa_offset 56
 2466 019b 89542414 		movl	%edx, 20(%esp)
 2467 019f 31C0     		xorl	%eax, %eax
 2468 01a1 52       		pushl	%edx
 2469              		.cfi_def_cfa_offset 60
 2470 01a2 8B542414 		movl	20(%esp), %edx
 2471 01a6 837A0402 		cmpl	$2, 4(%edx)
 2472 01aa 0F94C0   		sete	%al
 2473 01ad 50       		pushl	%eax
 2474              		.cfi_def_cfa_offset 64
 2475 01ae E8FCFFFF 		call	__test_assert@PLT
 2475      FF
 2476              	.LVL161:
 2477 01b3 83C410   		addl	$16, %esp
GAS LISTING /tmp/ccwdkvlB.s 			page 49


 2478              		.cfi_def_cfa_offset 48
 2479 01b6 84C0     		testb	%al, %al
 2480 01b8 0F858AFE 		jne	.L74
 2480      FFFF
 2481              		.loc 1 267 64 view .LVU499
 2482              		.loc 1 269 5 view .LVU500
 2483 01be 83EC0C   		subl	$12, %esp
 2484              		.cfi_def_cfa_offset 60
 2485 01c1 FF742414 		pushl	20(%esp)
 2486              		.cfi_def_cfa_offset 64
 2487 01c5 E8FCFFFF 		call	chFactoryReleaseBuffer@PLT
 2487      FF
 2488              	.LVL162:
 2489              		.loc 1 270 5 view .LVU501
 2490 01ca 58       		popl	%eax
 2491              		.cfi_def_cfa_offset 60
 2492 01cb 5A       		popl	%edx
 2493              		.cfi_def_cfa_offset 56
 2494 01cc FF742414 		pushl	20(%esp)
 2495              		.cfi_def_cfa_offset 60
 2496 01d0 8B442410 		movl	16(%esp), %eax
 2497 01d4 83780401 		cmpl	$1, 4(%eax)
 2498 01d8 0F94C0   		sete	%al
 2499 01db 0FB6C0   		movzbl	%al, %eax
 2500 01de 50       		pushl	%eax
 2501              		.cfi_def_cfa_offset 64
 2502 01df E8FCFFFF 		call	__test_assert@PLT
 2502      FF
 2503              	.LVL163:
 2504 01e4 83C410   		addl	$16, %esp
 2505              		.cfi_def_cfa_offset 48
 2506 01e7 84C0     		testb	%al, %al
 2507 01e9 0F8559FE 		jne	.L74
 2507      FFFF
 2508              		.loc 1 270 63 view .LVU502
 2509              	.LBE139:
 2510              		.loc 1 272 3 view .LVU503
 2511              		.loc 1 272 19 view .LVU504
 2512              		.loc 1 276 3 view .LVU505
 2513              		.loc 1 278 5 is_stmt 0 view .LVU506
 2514 01ef 83EC0C   		subl	$12, %esp
 2515              		.cfi_def_cfa_offset 60
 2516              		.loc 1 276 3 view .LVU507
 2517 01f2 C7060500 		movl	$5, (%esi)
 2517      0000
 2518              		.loc 1 278 5 is_stmt 1 view .LVU508
 2519 01f8 FF742410 		pushl	16(%esp)
 2520              		.cfi_def_cfa_offset 64
 2521 01fc E8FCFFFF 		call	chFactoryReleaseBuffer@PLT
 2521      FF
 2522              	.LVL164:
 2523              		.loc 1 280 3 view .LVU509
 2524              		.loc 1 280 19 view .LVU510
 2525              		.loc 1 284 3 view .LVU511
 2526              		.loc 1 286 11 is_stmt 0 view .LVU512
 2527 0201 893C24   		movl	%edi, (%esp)
 2528              		.loc 1 284 3 view .LVU513
GAS LISTING /tmp/ccwdkvlB.s 			page 50


 2529 0204 C7060600 		movl	$6, (%esi)
 2529      0000
 2530              		.loc 1 286 5 is_stmt 1 view .LVU514
 2531              		.loc 1 286 11 is_stmt 0 view .LVU515
 2532 020a E8FCFFFF 		call	chFactoryFindBuffer@PLT
 2532      FF
 2533              	.LVL165:
 2534              		.loc 1 287 5 is_stmt 1 view .LVU516
 2535 020f 5A       		popl	%edx
 2536              		.cfi_def_cfa_offset 60
 2537 0210 59       		popl	%ecx
 2538              		.cfi_def_cfa_offset 56
 2539 0211 55       		pushl	%ebp
 2540              		.cfi_def_cfa_offset 60
 2541 0212 85C0     		testl	%eax, %eax
 2542 0214 0F94C0   		sete	%al
 2543              	.LVL166:
 2544              		.loc 1 287 5 is_stmt 0 view .LVU517
 2545 0217 0FB6C0   		movzbl	%al, %eax
 2546 021a 50       		pushl	%eax
 2547              		.cfi_def_cfa_offset 64
 2548 021b E8FCFFFF 		call	__test_assert@PLT
 2548      FF
 2549              	.LVL167:
 2550 0220 83C410   		addl	$16, %esp
 2551              		.cfi_def_cfa_offset 48
 2552              	.LVL168:
 2553              		.loc 1 287 5 view .LVU518
 2554              	.LBE131:
 2555              	.LBE130:
 2556              		.loc 1 287 38 is_stmt 1 view .LVU519
 2557              		.loc 1 289 3 view .LVU520
 2558              		.loc 1 289 19 view .LVU521
 2559              	.LBB141:
 2560              	.LBB140:
 2561 0223 E920FEFF 		jmp	.L74
 2561      FF
 2562              	.LBE140:
 2563              	.LBE141:
 2564              		.cfi_endproc
 2565              	.LFE306:
 2566              		.size	oslib_test_009_002_execute, .-oslib_test_009_002_execute
 2567              		.section	.rodata.oslib_test_009_001_execute.str1.1,"aMS",@progbits,1
 2568              	.LC12:
 2569 0000 63616E6E 		.string	"cannot register"
 2569      6F742072 
 2569      65676973 
 2569      74657200 
 2570              	.LC13:
 2571 0010 63616E20 		.string	"can register"
 2571      72656769 
 2571      73746572 
 2571      00
 2572              	.LC14:
 2573 001d 6F626A65 		.string	"object mismatch"
 2573      6374206D 
 2573      69736D61 
GAS LISTING /tmp/ccwdkvlB.s 			page 51


 2573      74636800 
 2574              		.section	.text.oslib_test_009_001_execute,"ax",@progbits
 2575              		.p2align 4
 2576              		.type	oslib_test_009_001_execute, @function
 2577              	oslib_test_009_001_execute:
 2578              	.LFB304:
 2579              		.loc 1 97 46 view -0
 2580              		.cfi_startproc
 2581              		.loc 1 98 3 view .LVU523
 2582              		.loc 1 101 3 view .LVU524
 2583              		.loc 1 97 46 is_stmt 0 view .LVU525
 2584 0000 55       		pushl	%ebp
 2585              		.cfi_def_cfa_offset 8
 2586              		.cfi_offset 5, -8
 2587 0001 57       		pushl	%edi
 2588              		.cfi_def_cfa_offset 12
 2589              		.cfi_offset 7, -12
 2590 0002 56       		pushl	%esi
 2591              		.cfi_def_cfa_offset 16
 2592              		.cfi_offset 6, -16
 2593 0003 53       		pushl	%ebx
 2594              		.cfi_def_cfa_offset 20
 2595              		.cfi_offset 3, -20
 2596 0004 E8FCFFFF 		call	__x86.get_pc_thunk.bx
 2596      FF
 2597 0009 81C30200 		addl	$_GLOBAL_OFFSET_TABLE_, %ebx
 2597      0000
 2598 000f 83EC28   		subl	$40, %esp
 2599              		.cfi_def_cfa_offset 60
 2600              		.loc 1 103 11 view .LVU526
 2601 0012 8DBB0000 		leal	.LC5@GOTOFF(%ebx), %edi
 2601      0000
 2602              		.loc 1 101 3 view .LVU527
 2603 0018 8BB30000 		movl	chtest@GOT(%ebx), %esi
 2603      0000
 2604              		.loc 1 103 11 view .LVU528
 2605 001e 57       		pushl	%edi
 2606              		.cfi_def_cfa_offset 64
 2607              		.loc 1 101 3 view .LVU529
 2608 001f C7060100 		movl	$1, (%esi)
 2608      0000
 2609              		.loc 1 103 5 is_stmt 1 view .LVU530
 2610              		.loc 1 103 11 is_stmt 0 view .LVU531
 2611 0025 E8FCFFFF 		call	chFactoryFindObject@PLT
 2611      FF
 2612              	.LVL169:
 2613              		.loc 1 104 5 is_stmt 1 view .LVU532
 2614 002a 59       		popl	%ecx
 2615              		.cfi_def_cfa_offset 60
 2616 002b 5D       		popl	%ebp
 2617              		.cfi_def_cfa_offset 56
 2618 002c 8DAB0000 		leal	.LC6@GOTOFF(%ebx), %ebp
 2618      0000
 2619 0032 85C0     		testl	%eax, %eax
 2620 0034 55       		pushl	%ebp
 2621              		.cfi_def_cfa_offset 60
 2622 0035 0F94C0   		sete	%al
GAS LISTING /tmp/ccwdkvlB.s 			page 52


 2623              	.LVL170:
 2624              		.loc 1 104 5 is_stmt 0 view .LVU533
 2625 0038 0FB6C0   		movzbl	%al, %eax
 2626 003b 50       		pushl	%eax
 2627              		.cfi_def_cfa_offset 64
 2628 003c E8FCFFFF 		call	__test_assert@PLT
 2628      FF
 2629              	.LVL171:
 2630 0041 83C410   		addl	$16, %esp
 2631              		.cfi_def_cfa_offset 48
 2632 0044 84C0     		testb	%al, %al
 2633 0046 7408     		je	.L85
 2634              	.L80:
 2635              		.loc 1 171 1 view .LVU534
 2636 0048 83C41C   		addl	$28, %esp
 2637              		.cfi_remember_state
 2638              		.cfi_def_cfa_offset 20
 2639 004b 5B       		popl	%ebx
 2640              		.cfi_restore 3
 2641              		.cfi_def_cfa_offset 16
 2642 004c 5E       		popl	%esi
 2643              		.cfi_restore 6
 2644              		.cfi_def_cfa_offset 12
 2645 004d 5F       		popl	%edi
 2646              		.cfi_restore 7
 2647              		.cfi_def_cfa_offset 8
 2648 004e 5D       		popl	%ebp
 2649              		.cfi_restore 5
 2650              		.cfi_def_cfa_offset 4
 2651 004f C3       		ret
 2652              		.p2align 4,,10
 2653              		.p2align 3
 2654              	.L85:
 2655              		.cfi_restore_state
 2656              	.LBB149:
 2657              	.LBI149:
 2658              		.loc 1 97 13 is_stmt 1 view .LVU535
 2659              	.LBB150:
 2660              		.loc 1 104 38 view .LVU536
 2661              		.loc 1 106 3 view .LVU537
 2662              		.loc 1 106 19 view .LVU538
 2663              		.loc 1 109 3 view .LVU539
 2664              	.LBB151:
 2665              		.loc 1 113 11 is_stmt 0 view .LVU540
 2666 0050 83EC08   		subl	$8, %esp
 2667              		.cfi_def_cfa_offset 56
 2668 0053 8D830000 		leal	myobj.1@GOTOFF(%ebx), %eax
 2668      0000
 2669              	.LBE151:
 2670              		.loc 1 109 3 view .LVU541
 2671 0059 C7060200 		movl	$2, (%esi)
 2671      0000
 2672              	.LBB152:
 2673              		.loc 1 111 5 is_stmt 1 view .LVU542
 2674              		.loc 1 113 5 view .LVU543
 2675              		.loc 1 113 11 is_stmt 0 view .LVU544
 2676 005f 50       		pushl	%eax
GAS LISTING /tmp/ccwdkvlB.s 			page 53


 2677              		.cfi_def_cfa_offset 60
 2678 0060 57       		pushl	%edi
 2679              		.cfi_def_cfa_offset 64
 2680 0061 E8FCFFFF 		call	chFactoryRegisterObject@PLT
 2680      FF
 2681              	.LVL172:
 2682 0066 89C1     		movl	%eax, %ecx
 2683              	.LVL173:
 2684              		.loc 1 114 5 is_stmt 1 view .LVU545
 2685 0068 58       		popl	%eax
 2686              		.cfi_def_cfa_offset 60
 2687              	.LVL174:
 2688              		.loc 1 114 5 is_stmt 0 view .LVU546
 2689 0069 8D830000 		leal	.LC12@GOTOFF(%ebx), %eax
 2689      0000
 2690 006f 5A       		popl	%edx
 2691              		.cfi_def_cfa_offset 56
 2692 0070 85C9     		testl	%ecx, %ecx
 2693 0072 50       		pushl	%eax
 2694              		.cfi_def_cfa_offset 60
 2695 0073 0F95C0   		setne	%al
 2696 0076 0FB6C0   		movzbl	%al, %eax
 2697 0079 894C240C 		movl	%ecx, 12(%esp)
 2698 007d 50       		pushl	%eax
 2699              		.cfi_def_cfa_offset 64
 2700 007e E8FCFFFF 		call	__test_assert@PLT
 2700      FF
 2701              	.LVL175:
 2702              		.loc 1 114 5 view .LVU547
 2703 0083 83C410   		addl	$16, %esp
 2704              		.cfi_def_cfa_offset 48
 2705 0086 84C0     		testb	%al, %al
 2706 0088 75BE     		jne	.L80
 2707              		.loc 1 114 48 is_stmt 1 view .LVU548
 2708              	.LBE152:
 2709              		.loc 1 116 3 view .LVU549
 2710              		.loc 1 116 19 view .LVU550
 2711              		.loc 1 119 3 view .LVU551
 2712              	.LBB153:
 2713              		.loc 1 124 12 is_stmt 0 view .LVU552
 2714 008a 83EC08   		subl	$8, %esp
 2715              		.cfi_def_cfa_offset 56
 2716 008d 8D830000 		leal	myobj.0@GOTOFF(%ebx), %eax
 2716      0000
 2717              	.LBE153:
 2718              		.loc 1 119 3 view .LVU553
 2719 0093 C7060300 		movl	$3, (%esi)
 2719      0000
 2720              	.LBB154:
 2721              		.loc 1 121 5 is_stmt 1 view .LVU554
 2722              		.loc 1 122 5 view .LVU555
 2723              		.loc 1 124 5 view .LVU556
 2724              		.loc 1 124 12 is_stmt 0 view .LVU557
 2725 0099 50       		pushl	%eax
 2726              		.cfi_def_cfa_offset 60
 2727 009a 57       		pushl	%edi
 2728              		.cfi_def_cfa_offset 64
GAS LISTING /tmp/ccwdkvlB.s 			page 54


 2729 009b E8FCFFFF 		call	chFactoryRegisterObject@PLT
 2729      FF
 2730              	.LVL176:
 2731              		.loc 1 125 5 is_stmt 1 view .LVU558
 2732 00a0 5A       		popl	%edx
 2733              		.cfi_def_cfa_offset 60
 2734 00a1 8D930000 		leal	.LC13@GOTOFF(%ebx), %edx
 2734      0000
 2735 00a7 59       		popl	%ecx
 2736              		.cfi_def_cfa_offset 56
 2737 00a8 85C0     		testl	%eax, %eax
 2738 00aa 52       		pushl	%edx
 2739              		.cfi_def_cfa_offset 60
 2740 00ab 0F94C0   		sete	%al
 2741              	.LVL177:
 2742              		.loc 1 125 5 is_stmt 0 view .LVU559
 2743 00ae 0FB6C0   		movzbl	%al, %eax
 2744 00b1 50       		pushl	%eax
 2745              		.cfi_def_cfa_offset 64
 2746 00b2 E8FCFFFF 		call	__test_assert@PLT
 2746      FF
 2747              	.LVL178:
 2748 00b7 83C410   		addl	$16, %esp
 2749              		.cfi_def_cfa_offset 48
 2750 00ba 84C0     		testb	%al, %al
 2751 00bc 758A     		jne	.L80
 2752              		.loc 1 125 46 is_stmt 1 view .LVU560
 2753              	.LBE154:
 2754              		.loc 1 127 3 view .LVU561
 2755              		.loc 1 127 19 view .LVU562
 2756              		.loc 1 132 3 view .LVU563
 2757              	.LBB155:
 2758              		.loc 1 136 12 is_stmt 0 view .LVU564
 2759 00be 83EC0C   		subl	$12, %esp
 2760              		.cfi_def_cfa_offset 60
 2761              	.LBE155:
 2762              		.loc 1 132 3 view .LVU565
 2763 00c1 C7060400 		movl	$4, (%esi)
 2763      0000
 2764              	.LBB160:
 2765              		.loc 1 134 5 is_stmt 1 view .LVU566
 2766              		.loc 1 136 5 view .LVU567
 2767              		.loc 1 136 12 is_stmt 0 view .LVU568
 2768 00c7 57       		pushl	%edi
 2769              		.cfi_def_cfa_offset 64
 2770 00c8 E8FCFFFF 		call	chFactoryFindObject@PLT
 2770      FF
 2771              	.LVL179:
 2772 00cd 89C2     		movl	%eax, %edx
 2773              	.LVL180:
 2774              		.loc 1 137 5 is_stmt 1 view .LVU569
 2775 00cf 58       		popl	%eax
 2776              		.cfi_def_cfa_offset 60
 2777              	.LVL181:
 2778              		.loc 1 137 5 is_stmt 0 view .LVU570
 2779 00d0 8D830000 		leal	.LC9@GOTOFF(%ebx), %eax
 2779      0000
GAS LISTING /tmp/ccwdkvlB.s 			page 55


 2780 00d6 59       		popl	%ecx
 2781              		.cfi_def_cfa_offset 56
 2782 00d7 50       		pushl	%eax
 2783              		.cfi_def_cfa_offset 60
 2784 00d8 31C0     		xorl	%eax, %eax
 2785 00da 85D2     		testl	%edx, %edx
 2786 00dc 0F95C0   		setne	%al
 2787 00df 89542410 		movl	%edx, 16(%esp)
 2788 00e3 50       		pushl	%eax
 2789              		.cfi_def_cfa_offset 64
 2790 00e4 E8FCFFFF 		call	__test_assert@PLT
 2790      FF
 2791              	.LVL182:
 2792              		.loc 1 137 5 view .LVU571
 2793 00e9 83C410   		addl	$16, %esp
 2794              		.cfi_def_cfa_offset 48
 2795 00ec 84C0     		testb	%al, %al
 2796 00ee 0F8554FF 		jne	.L80
 2796      FFFF
 2797              		.loc 1 137 43 is_stmt 1 view .LVU572
 2798              		.loc 1 138 5 view .LVU573
 2799 00f4 83EC08   		subl	$8, %esp
 2800              		.cfi_def_cfa_offset 56
 2801 00f7 8D930000 		leal	.LC14@GOTOFF(%ebx), %edx
 2801      0000
 2802 00fd 89542410 		movl	%edx, 16(%esp)
 2803 0101 52       		pushl	%edx
 2804              		.cfi_def_cfa_offset 60
 2805 0102 8B542410 		movl	16(%esp), %edx
 2806 0106 8B4210   		movl	16(%edx), %eax
 2807 0109 8138AA55 		cmpl	$21930, (%eax)
 2807      0000
 2808 010f 0F94C0   		sete	%al
 2809 0112 0FB6C0   		movzbl	%al, %eax
 2810 0115 50       		pushl	%eax
 2811              		.cfi_def_cfa_offset 64
 2812 0116 E8FCFFFF 		call	__test_assert@PLT
 2812      FF
 2813              	.LVL183:
 2814 011b 83C410   		addl	$16, %esp
 2815              		.cfi_def_cfa_offset 48
 2816 011e 84C0     		testb	%al, %al
 2817 0120 0F8522FF 		jne	.L80
 2817      FFFF
 2818              		.loc 1 138 72 view .LVU574
 2819              		.loc 1 139 5 view .LVU575
 2820 0126 83EC08   		subl	$8, %esp
 2821              		.cfi_def_cfa_offset 56
 2822 0129 8D930000 		leal	.LC10@GOTOFF(%ebx), %edx
 2822      0000
 2823 012f 31C0     		xorl	%eax, %eax
 2824 0131 89542414 		movl	%edx, 20(%esp)
 2825 0135 52       		pushl	%edx
 2826              		.cfi_def_cfa_offset 60
 2827 0136 8B542410 		movl	16(%esp), %edx
 2828 013a 3954240C 		cmpl	%edx, 12(%esp)
 2829 013e 0F94C0   		sete	%al
GAS LISTING /tmp/ccwdkvlB.s 			page 56


 2830 0141 50       		pushl	%eax
 2831              		.cfi_def_cfa_offset 64
 2832 0142 E8FCFFFF 		call	__test_assert@PLT
 2832      FF
 2833              	.LVL184:
 2834 0147 83C410   		addl	$16, %esp
 2835              		.cfi_def_cfa_offset 48
 2836 014a 84C0     		testb	%al, %al
 2837 014c 0F85F6FE 		jne	.L80
 2837      FFFF
 2838              		.loc 1 139 58 view .LVU576
 2839              		.loc 1 140 5 view .LVU577
 2840 0152 83EC08   		subl	$8, %esp
 2841              		.cfi_def_cfa_offset 56
 2842 0155 31C0     		xorl	%eax, %eax
 2843 0157 FF742414 		pushl	20(%esp)
 2844              		.cfi_def_cfa_offset 60
 2845 015b 8B542410 		movl	16(%esp), %edx
 2846 015f 837A0402 		cmpl	$2, 4(%edx)
 2847 0163 0F94C0   		sete	%al
 2848 0166 50       		pushl	%eax
 2849              		.cfi_def_cfa_offset 64
 2850 0167 E8FCFFFF 		call	__test_assert@PLT
 2850      FF
 2851              	.LVL185:
 2852 016c 83C410   		addl	$16, %esp
 2853              		.cfi_def_cfa_offset 48
 2854 016f 84C0     		testb	%al, %al
 2855 0171 0F85D1FE 		jne	.L80
 2855      FFFF
 2856              		.loc 1 140 70 view .LVU578
 2857              		.loc 1 142 5 view .LVU579
 2858              	.LVL186:
 2859              	.LBB156:
 2860              	.LBI156:
 2861              		.loc 2 409 30 view .LVU580
 2862              	.LBB157:
 2863              		.loc 2 411 3 view .LVU581
 2864              		.loc 2 411 12 is_stmt 0 view .LVU582
 2865 0177 8B542404 		movl	4(%esp), %edx
 2866              	.LBE157:
 2867              	.LBE156:
 2868              		.loc 1 143 5 view .LVU583
 2869 017b 83EC08   		subl	$8, %esp
 2870              		.cfi_def_cfa_offset 56
 2871              	.LBB159:
 2872              	.LBB158:
 2873              		.loc 2 411 12 view .LVU584
 2874 017e 83420401 		addl	$1, 4(%edx)
 2875              		.loc 2 413 3 is_stmt 1 view .LVU585
 2876              	.LVL187:
 2877              		.loc 2 413 3 is_stmt 0 view .LVU586
 2878              	.LBE158:
 2879              	.LBE159:
 2880              		.loc 1 143 5 is_stmt 1 view .LVU587
 2881 0182 FF742414 		pushl	20(%esp)
 2882              		.cfi_def_cfa_offset 60
GAS LISTING /tmp/ccwdkvlB.s 			page 57


 2883 0186 6A01     		pushl	$1
 2884              		.cfi_def_cfa_offset 64
 2885 0188 E8FCFFFF 		call	__test_assert@PLT
 2885      FF
 2886              	.LVL188:
 2887 018d 83C410   		addl	$16, %esp
 2888              		.cfi_def_cfa_offset 48
 2889 0190 84C0     		testb	%al, %al
 2890 0192 0F85B0FE 		jne	.L80
 2890      FFFF
 2891              		.loc 1 143 59 view .LVU588
 2892              		.loc 1 144 5 view .LVU589
 2893 0198 83EC08   		subl	$8, %esp
 2894              		.cfi_def_cfa_offset 56
 2895 019b FF742410 		pushl	16(%esp)
 2896              		.cfi_def_cfa_offset 60
 2897 019f 8B542410 		movl	16(%esp), %edx
 2898 01a3 8B4210   		movl	16(%edx), %eax
 2899 01a6 8138AA55 		cmpl	$21930, (%eax)
 2899      0000
 2900 01ac 0F94C0   		sete	%al
 2901 01af 0FB6C0   		movzbl	%al, %eax
 2902 01b2 50       		pushl	%eax
 2903              		.cfi_def_cfa_offset 64
 2904 01b3 E8FCFFFF 		call	__test_assert@PLT
 2904      FF
 2905              	.LVL189:
 2906 01b8 83C410   		addl	$16, %esp
 2907              		.cfi_def_cfa_offset 48
 2908 01bb 84C0     		testb	%al, %al
 2909 01bd 0F8585FE 		jne	.L80
 2909      FFFF
 2910              		.loc 1 144 72 view .LVU590
 2911              		.loc 1 145 5 view .LVU591
 2912 01c3 83EC08   		subl	$8, %esp
 2913              		.cfi_def_cfa_offset 56
 2914 01c6 31C0     		xorl	%eax, %eax
 2915 01c8 FF742414 		pushl	20(%esp)
 2916              		.cfi_def_cfa_offset 60
 2917 01cc 8B542410 		movl	16(%esp), %edx
 2918 01d0 837A0403 		cmpl	$3, 4(%edx)
 2919 01d4 0F94C0   		sete	%al
 2920 01d7 50       		pushl	%eax
 2921              		.cfi_def_cfa_offset 64
 2922 01d8 E8FCFFFF 		call	__test_assert@PLT
 2922      FF
 2923              	.LVL190:
 2924 01dd 83C410   		addl	$16, %esp
 2925              		.cfi_def_cfa_offset 48
 2926 01e0 84C0     		testb	%al, %al
 2927 01e2 0F8560FE 		jne	.L80
 2927      FFFF
 2928              		.loc 1 145 70 view .LVU592
 2929              		.loc 1 147 5 view .LVU593
 2930 01e8 83EC0C   		subl	$12, %esp
 2931              		.cfi_def_cfa_offset 60
 2932 01eb FF742410 		pushl	16(%esp)
GAS LISTING /tmp/ccwdkvlB.s 			page 58


 2933              		.cfi_def_cfa_offset 64
 2934 01ef E8FCFFFF 		call	chFactoryReleaseObject@PLT
 2934      FF
 2935              	.LVL191:
 2936              		.loc 1 148 5 view .LVU594
 2937 01f4 59       		popl	%ecx
 2938              		.cfi_def_cfa_offset 60
 2939 01f5 8D930000 		leal	.LC11@GOTOFF(%ebx), %edx
 2939      0000
 2940 01fb 58       		popl	%eax
 2941              		.cfi_def_cfa_offset 56
 2942 01fc 89542410 		movl	%edx, 16(%esp)
 2943 0200 31C0     		xorl	%eax, %eax
 2944 0202 52       		pushl	%edx
 2945              		.cfi_def_cfa_offset 60
 2946 0203 8B542410 		movl	16(%esp), %edx
 2947 0207 837A0402 		cmpl	$2, 4(%edx)
 2948 020b 0F94C0   		sete	%al
 2949 020e 50       		pushl	%eax
 2950              		.cfi_def_cfa_offset 64
 2951 020f E8FCFFFF 		call	__test_assert@PLT
 2951      FF
 2952              	.LVL192:
 2953 0214 83C410   		addl	$16, %esp
 2954              		.cfi_def_cfa_offset 48
 2955 0217 84C0     		testb	%al, %al
 2956 0219 0F8529FE 		jne	.L80
 2956      FFFF
 2957              		.loc 1 148 64 view .LVU595
 2958              		.loc 1 150 5 view .LVU596
 2959 021f 83EC0C   		subl	$12, %esp
 2960              		.cfi_def_cfa_offset 60
 2961 0222 FF742410 		pushl	16(%esp)
 2962              		.cfi_def_cfa_offset 64
 2963 0226 E8FCFFFF 		call	chFactoryReleaseObject@PLT
 2963      FF
 2964              	.LVL193:
 2965              		.loc 1 151 5 view .LVU597
 2966 022b 58       		popl	%eax
 2967              		.cfi_def_cfa_offset 60
 2968 022c 5A       		popl	%edx
 2969              		.cfi_def_cfa_offset 56
 2970 022d FF742410 		pushl	16(%esp)
 2971              		.cfi_def_cfa_offset 60
 2972 0231 8B44240C 		movl	12(%esp), %eax
 2973 0235 83780401 		cmpl	$1, 4(%eax)
 2974 0239 0F94C0   		sete	%al
 2975 023c 0FB6C0   		movzbl	%al, %eax
 2976 023f 50       		pushl	%eax
 2977              		.cfi_def_cfa_offset 64
 2978 0240 E8FCFFFF 		call	__test_assert@PLT
 2978      FF
 2979              	.LVL194:
 2980 0245 83C410   		addl	$16, %esp
 2981              		.cfi_def_cfa_offset 48
 2982 0248 84C0     		testb	%al, %al
 2983 024a 0F85F8FD 		jne	.L80
GAS LISTING /tmp/ccwdkvlB.s 			page 59


 2983      FFFF
 2984              		.loc 1 151 63 view .LVU598
 2985              	.LBE160:
 2986              		.loc 1 153 3 view .LVU599
 2987              		.loc 1 153 19 view .LVU600
 2988              		.loc 1 157 3 view .LVU601
 2989              		.loc 1 159 5 is_stmt 0 view .LVU602
 2990 0250 83EC0C   		subl	$12, %esp
 2991              		.cfi_def_cfa_offset 60
 2992              		.loc 1 157 3 view .LVU603
 2993 0253 C7060500 		movl	$5, (%esi)
 2993      0000
 2994              		.loc 1 159 5 is_stmt 1 view .LVU604
 2995 0259 FF74240C 		pushl	12(%esp)
 2996              		.cfi_def_cfa_offset 64
 2997 025d E8FCFFFF 		call	chFactoryReleaseObject@PLT
 2997      FF
 2998              	.LVL195:
 2999              		.loc 1 161 3 view .LVU605
 3000              		.loc 1 161 19 view .LVU606
 3001              		.loc 1 165 3 view .LVU607
 3002              		.loc 1 167 11 is_stmt 0 view .LVU608
 3003 0262 893C24   		movl	%edi, (%esp)
 3004              		.loc 1 165 3 view .LVU609
 3005 0265 C7060600 		movl	$6, (%esi)
 3005      0000
 3006              		.loc 1 167 5 is_stmt 1 view .LVU610
 3007              		.loc 1 167 11 is_stmt 0 view .LVU611
 3008 026b E8FCFFFF 		call	chFactoryFindObject@PLT
 3008      FF
 3009              	.LVL196:
 3010              		.loc 1 168 5 is_stmt 1 view .LVU612
 3011 0270 5A       		popl	%edx
 3012              		.cfi_def_cfa_offset 60
 3013 0271 59       		popl	%ecx
 3014              		.cfi_def_cfa_offset 56
 3015 0272 55       		pushl	%ebp
 3016              		.cfi_def_cfa_offset 60
 3017 0273 85C0     		testl	%eax, %eax
 3018 0275 0F94C0   		sete	%al
 3019              	.LVL197:
 3020              		.loc 1 168 5 is_stmt 0 view .LVU613
 3021 0278 0FB6C0   		movzbl	%al, %eax
 3022 027b 50       		pushl	%eax
 3023              		.cfi_def_cfa_offset 64
 3024 027c E8FCFFFF 		call	__test_assert@PLT
 3024      FF
 3025              	.LVL198:
 3026 0281 83C410   		addl	$16, %esp
 3027              		.cfi_def_cfa_offset 48
 3028              	.LVL199:
 3029              		.loc 1 168 5 view .LVU614
 3030              	.LBE150:
 3031              	.LBE149:
 3032              		.loc 1 168 38 is_stmt 1 view .LVU615
 3033              		.loc 1 170 3 view .LVU616
 3034              		.loc 1 170 19 view .LVU617
GAS LISTING /tmp/ccwdkvlB.s 			page 60


 3035              	.LBB162:
 3036              	.LBB161:
 3037 0284 E9BFFDFF 		jmp	.L80
 3037      FF
 3038              	.LBE161:
 3039              	.LBE162:
 3040              		.cfi_endproc
 3041              	.LFE304:
 3042              		.size	oslib_test_009_001_execute, .-oslib_test_009_001_execute
 3043              		.section	.data.myobj.0,"aw"
 3044              		.align 4
 3045              		.type	myobj.0, @object
 3046              		.size	myobj.0, 4
 3047              	myobj.0:
 3048 0000 AA550000 		.long	21930
 3049              		.section	.data.myobj.1,"aw"
 3050              		.align 4
 3051              		.type	myobj.1, @object
 3052              		.size	myobj.1, 4
 3053              	myobj.1:
 3054 0000 AA550000 		.long	21930
 3055              		.globl	oslib_test_sequence_009
 3056              		.section	.rodata.str1.1,"aMS",@progbits,1
 3057              	.LC15:
 3058 0000 4F626A65 		.string	"Objects Factory"
 3058      63747320 
 3058      46616374 
 3058      6F727900 
 3059              		.section	.data.rel.ro.local.oslib_test_sequence_009,"aw"
 3060              		.align 4
 3061              		.type	oslib_test_sequence_009, @object
 3062              		.size	oslib_test_sequence_009, 8
 3063              	oslib_test_sequence_009:
 3064 0000 00000000 		.long	.LC15
 3065 0004 00000000 		.long	oslib_test_sequence_009_array
 3066              		.globl	oslib_test_sequence_009_array
 3067              		.section	.data.rel.ro.local.oslib_test_sequence_009_array,"aw"
 3068              		.align 4
 3069              		.type	oslib_test_sequence_009_array, @object
 3070              		.size	oslib_test_sequence_009_array, 28
 3071              	oslib_test_sequence_009_array:
 3072 0000 00000000 		.long	oslib_test_009_001
 3073 0004 00000000 		.long	oslib_test_009_002
 3074 0008 00000000 		.long	oslib_test_009_003
 3075 000c 00000000 		.long	oslib_test_009_004
 3076 0010 00000000 		.long	oslib_test_009_005
 3077 0014 00000000 		.long	oslib_test_009_006
 3078 0018 00000000 		.long	0
 3079              		.section	.rodata.str1.1
 3080              	.LC16:
 3081 0010 44796E61 		.string	"Dynamic Pipes Factory"
 3081      6D696320 
 3081      50697065 
 3081      73204661 
 3081      63746F72 
 3082              		.section	.data.rel.ro.local.oslib_test_009_006,"aw"
 3083              		.align 4
GAS LISTING /tmp/ccwdkvlB.s 			page 61


 3084              		.type	oslib_test_009_006, @object
 3085              		.size	oslib_test_009_006, 16
 3086              	oslib_test_009_006:
 3087 0000 10000000 		.long	.LC16
 3088 0004 00000000 		.long	0
 3089 0008 00000000 		.long	oslib_test_009_006_teardown
 3090 000c 00000000 		.long	oslib_test_009_006_execute
 3091              		.section	.rodata.str1.1
 3092              	.LC17:
 3093 0026 44796E61 		.string	"Dynamic Objects FIFOs Factory"
 3093      6D696320 
 3093      4F626A65 
 3093      63747320 
 3093      4649464F 
 3094              		.section	.data.rel.ro.local.oslib_test_009_005,"aw"
 3095              		.align 4
 3096              		.type	oslib_test_009_005, @object
 3097              		.size	oslib_test_009_005, 16
 3098              	oslib_test_009_005:
 3099 0000 26000000 		.long	.LC17
 3100 0004 00000000 		.long	0
 3101 0008 00000000 		.long	oslib_test_009_005_teardown
 3102 000c 00000000 		.long	oslib_test_009_005_execute
 3103              		.section	.rodata.str1.1
 3104              	.LC18:
 3105 0044 44796E61 		.string	"Dynamic Mailboxes Factory"
 3105      6D696320 
 3105      4D61696C 
 3105      626F7865 
 3105      73204661 
 3106              		.section	.data.rel.ro.local.oslib_test_009_004,"aw"
 3107              		.align 4
 3108              		.type	oslib_test_009_004, @object
 3109              		.size	oslib_test_009_004, 16
 3110              	oslib_test_009_004:
 3111 0000 44000000 		.long	.LC18
 3112 0004 00000000 		.long	0
 3113 0008 00000000 		.long	oslib_test_009_004_teardown
 3114 000c 00000000 		.long	oslib_test_009_004_execute
 3115              		.section	.rodata.str1.1
 3116              	.LC19:
 3117 005e 44796E61 		.string	"Dynamic Semaphores Factory"
 3117      6D696320 
 3117      53656D61 
 3117      70686F72 
 3117      65732046 
 3118              		.section	.data.rel.ro.local.oslib_test_009_003,"aw"
 3119              		.align 4
 3120              		.type	oslib_test_009_003, @object
 3121              		.size	oslib_test_009_003, 16
 3122              	oslib_test_009_003:
 3123 0000 5E000000 		.long	.LC19
 3124 0004 00000000 		.long	0
 3125 0008 00000000 		.long	oslib_test_009_003_teardown
 3126 000c 00000000 		.long	oslib_test_009_003_execute
 3127              		.section	.rodata.str1.1
 3128              	.LC20:
GAS LISTING /tmp/ccwdkvlB.s 			page 62


 3129 0079 44796E61 		.string	"Dynamic Buffers Factory"
 3129      6D696320 
 3129      42756666 
 3129      65727320 
 3129      46616374 
 3130              		.section	.data.rel.ro.local.oslib_test_009_002,"aw"
 3131              		.align 4
 3132              		.type	oslib_test_009_002, @object
 3133              		.size	oslib_test_009_002, 16
 3134              	oslib_test_009_002:
 3135 0000 79000000 		.long	.LC20
 3136 0004 00000000 		.long	0
 3137 0008 00000000 		.long	oslib_test_009_002_teardown
 3138 000c 00000000 		.long	oslib_test_009_002_execute
 3139              		.section	.rodata.str1.1
 3140              	.LC21:
 3141 0091 4F626A65 		.string	"Objects Registry"
 3141      63747320 
 3141      52656769 
 3141      73747279 
 3141      00
 3142              		.section	.data.rel.ro.local.oslib_test_009_001,"aw"
 3143              		.align 4
 3144              		.type	oslib_test_009_001, @object
 3145              		.size	oslib_test_009_001, 16
 3146              	oslib_test_009_001:
 3147 0000 91000000 		.long	.LC21
 3148 0004 00000000 		.long	0
 3149 0008 00000000 		.long	oslib_test_009_001_teardown
 3150 000c 00000000 		.long	oslib_test_009_001_execute
 3151              		.section	.text.__x86.get_pc_thunk.bx,"axG",@progbits,__x86.get_pc_thunk.bx,comdat
 3152              		.globl	__x86.get_pc_thunk.bx
 3153              		.hidden	__x86.get_pc_thunk.bx
 3154              		.type	__x86.get_pc_thunk.bx, @function
 3155              	__x86.get_pc_thunk.bx:
 3156              	.LFB321:
 3157              		.cfi_startproc
 3158 0000 8B1C24   		movl	(%esp), %ebx
 3159 0003 C3       		ret
 3160              		.cfi_endproc
 3161              	.LFE321:
 3162              		.text
 3163              	.Letext0:
 3164              		.file 3 "/usr/lib/gcc/x86_64-linux-gnu/11/include/stddef.h"
 3165              		.file 4 "/usr/include/bits/types.h"
 3166              		.file 5 "/usr/include/bits/stdint-intn.h"
 3167              		.file 6 "/usr/include/bits/stdint-uintn.h"
 3168              		.file 7 "../../../os/common/ports/SIMIA32/compilers/GCC/chtypes.h"
 3169              		.file 8 "../../../os/rt/include/chearly.h"
 3170              		.file 9 "../../../os/rt/include/chobjects.h"
 3171              		.file 10 "../../../os/rt/include/chrfcu.h"
 3172              		.file 11 "../../../os/rt/include/chdebug.h"
 3173              		.file 12 "../../../os/rt/include/chtime.h"
 3174              		.file 13 "../../../os/rt/include/chlists.h"
 3175              		.file 14 "../../../os/common/ports/SIMIA32/chcore.h"
 3176              		.file 15 "../../../os/rt/include/chsem.h"
 3177              		.file 16 "../../../os/rt/include/chmtx.h"
GAS LISTING /tmp/ccwdkvlB.s 			page 63


 3178              		.file 17 "../../../os/oslib/include/chmboxes.h"
 3179              		.file 18 "../../../os/oslib/include/chmemcore.h"
 3180              		.file 19 "../../../os/oslib/include/chmempools.h"
 3181              		.file 20 "../../../os/oslib/include/chobjfifos.h"
 3182              		.file 21 "../../../os/oslib/include/chpipes.h"
 3183              		.file 22 "../../../os/hal/include/hal_streams.h"
 3184              		.file 23 "../../../os/test/include/ch_test.h"
 3185              		.file 24 "../../../test/oslib/source/test/oslib_test_sequence_009.h"
 8775 0060 2F686F6D 		.section	.note.GNU-stack,"",@progbits
 8775      652F616C 
 8775      65782F43 
 8775      68696269 
 8775      4F532F64 
GAS LISTING /tmp/ccwdkvlB.s 			page 171

