GAS LISTING /tmp/ccODya16.s 			page 1


   1              		.file	"oslib_test_sequence_007.c"
   2              		.text
   3              	.Ltext0:
   4              		.file 0 "/home/alex/ChibiOS/demos/various/LAB1" "../../../test/oslib/source/test/oslib_test_sequen
   5              		.section	.text.null_provider,"ax",@progbits
   6              		.p2align 4
   7              		.type	null_provider, @function
   8              	null_provider:
   9              	.LVL0:
  10              	.LFB303:
  11              		.file 1 "../../../test/oslib/source/test/oslib_test_sequence_007.c"
  12              		.loc 1 60 57 view -0
  13              		.cfi_startproc
  14              		.loc 1 62 3 view .LVU1
  15              		.loc 1 63 3 view .LVU2
  16              		.loc 1 65 3 view .LVU3
  17              		.loc 1 66 1 is_stmt 0 view .LVU4
  18 0000 31C0     		xorl	%eax, %eax
  19 0002 C3       		ret
  20              		.cfi_endproc
  21              	.LFE303:
  22              		.size	null_provider, .-null_provider
  23              		.section	.rodata.oslib_test_007_003_execute.str1.1,"aMS",@progbits,1
  24              	.LC0:
  25 0000 6C697374 		.string	"list not empty"
  25      206E6F74 
  25      20656D70 
  25      747900
  26              		.section	.text.oslib_test_007_003_execute,"ax",@progbits
  27              		.p2align 4
  28              		.type	oslib_test_007_003_execute, @function
  29              	oslib_test_007_003_execute:
  30              	.LFB309:
  31              		.loc 1 272 46 is_stmt 1 view -0
  32              		.cfi_startproc
  33              		.loc 1 276 3 view .LVU6
  34              		.loc 1 272 46 is_stmt 0 view .LVU7
  35 0000 53       		pushl	%ebx
  36              		.cfi_def_cfa_offset 8
  37              		.cfi_offset 3, -8
  38 0001 E8FCFFFF 		call	__x86.get_pc_thunk.bx
  38      FF
  39 0006 81C30200 		addl	$_GLOBAL_OFFSET_TABLE_, %ebx
  39      0000
  40 000c 83EC10   		subl	$16, %esp
  41              		.cfi_def_cfa_offset 24
  42              		.loc 1 276 3 view .LVU8
  43 000f 8B830000 		movl	chtest@GOT(%ebx), %eax
  43      0000
  44 0015 C7000100 		movl	$1, (%eax)
  44      0000
  45              		.loc 1 278 5 is_stmt 1 view .LVU9
  46 001b 8D830000 		leal	gmp1@GOTOFF(%ebx), %eax
  46      0000
  47 0021 6A64     		pushl	$100
  48              		.cfi_def_cfa_offset 28
  49 0023 50       		pushl	%eax
GAS LISTING /tmp/ccODya16.s 			page 2


  50              		.cfi_def_cfa_offset 32
  51 0024 E8FCFFFF 		call	chGuardedPoolAllocTimeout@PLT
  51      FF
  52              	.LVL1:
  53 0029 5A       		popl	%edx
  54              		.cfi_def_cfa_offset 28
  55 002a 8D930000 		leal	.LC0@GOTOFF(%ebx), %edx
  55      0000
  56 0030 59       		popl	%ecx
  57              		.cfi_def_cfa_offset 24
  58 0031 85C0     		testl	%eax, %eax
  59 0033 52       		pushl	%edx
  60              		.cfi_def_cfa_offset 28
  61 0034 0F94C0   		sete	%al
  62 0037 0FB6C0   		movzbl	%al, %eax
  63 003a 50       		pushl	%eax
  64              		.cfi_def_cfa_offset 32
  65 003b E8FCFFFF 		call	__test_assert@PLT
  65      FF
  66              	.LVL2:
  67              		.loc 1 278 92 view .LVU10
  68              		.loc 1 280 3 view .LVU11
  69              		.loc 1 280 19 view .LVU12
  70              		.loc 1 281 1 is_stmt 0 view .LVU13
  71 0040 83C418   		addl	$24, %esp
  72              		.cfi_def_cfa_offset 8
  73 0043 5B       		popl	%ebx
  74              		.cfi_restore 3
  75              		.cfi_def_cfa_offset 4
  76 0044 C3       		ret
  77              		.cfi_endproc
  78              	.LFE309:
  79              		.size	oslib_test_007_003_execute, .-oslib_test_007_003_execute
  80              		.section	.text.oslib_test_007_002_setup,"ax",@progbits
  81              		.p2align 4
  82              		.type	oslib_test_007_002_setup, @function
  83              	oslib_test_007_002_setup:
  84              	.LFB306:
  85              		.loc 1 185 44 is_stmt 1 view -0
  86              		.cfi_startproc
  87              		.loc 1 186 3 view .LVU15
  88              	.LVL3:
  89              	.LBB12:
  90              	.LBI12:
  91              		.file 2 "../../../os/oslib/include/chmempools.h"
  92              		.loc 2 247 20 view .LVU16
  93              	.LBB13:
  94              		.loc 2 250 3 view .LVU17
  95              	.LBE13:
  96              	.LBE12:
  97              		.loc 1 185 44 is_stmt 0 view .LVU18
  98 0000 53       		pushl	%ebx
  99              		.cfi_def_cfa_offset 8
 100              		.cfi_offset 3, -8
 101 0001 E8FCFFFF 		call	__x86.get_pc_thunk.bx
 101      FF
 102 0006 81C30200 		addl	$_GLOBAL_OFFSET_TABLE_, %ebx
GAS LISTING /tmp/ccODya16.s 			page 3


 102      0000
 103 000c 83EC0C   		subl	$12, %esp
 104              		.cfi_def_cfa_offset 20
 105              	.LBB15:
 106              	.LBB14:
 107              		.loc 2 250 3 view .LVU19
 108 000f 6A04     		pushl	$4
 109              		.cfi_def_cfa_offset 24
 110 0011 6A04     		pushl	$4
 111              		.cfi_def_cfa_offset 28
 112 0013 8D830000 		leal	gmp1@GOTOFF(%ebx), %eax
 112      0000
 113 0019 50       		pushl	%eax
 114              		.cfi_def_cfa_offset 32
 115 001a E8FCFFFF 		call	chGuardedPoolObjectInitAligned@PLT
 115      FF
 116              	.LVL4:
 117              		.loc 2 250 3 view .LVU20
 118              	.LBE14:
 119              	.LBE15:
 120              		.loc 1 187 1 view .LVU21
 121 001f 83C418   		addl	$24, %esp
 122              		.cfi_def_cfa_offset 8
 123 0022 5B       		popl	%ebx
 124              		.cfi_restore 3
 125              		.cfi_def_cfa_offset 4
 126 0023 C3       		ret
 127              		.cfi_endproc
 128              	.LFE306:
 129              		.size	oslib_test_007_002_setup, .-oslib_test_007_002_setup
 130              		.section	.rodata.oslib_test_007_002_execute.str1.1,"aMS",@progbits,1
 131              	.LC1:
 132 0000 6C697374 		.string	"list empty"
 132      20656D70 
 132      747900
 133              		.section	.text.oslib_test_007_002_execute,"ax",@progbits
 134              		.p2align 4
 135              		.type	oslib_test_007_002_execute, @function
 136              	oslib_test_007_002_execute:
 137              	.LFB307:
 138              		.loc 1 189 46 is_stmt 1 view -0
 139              		.cfi_startproc
 140              		.loc 1 190 3 view .LVU23
 141              		.loc 1 194 3 view .LVU24
 142              		.loc 1 189 46 is_stmt 0 view .LVU25
 143 0000 55       		pushl	%ebp
 144              		.cfi_def_cfa_offset 8
 145              		.cfi_offset 5, -8
 146 0001 57       		pushl	%edi
 147              		.cfi_def_cfa_offset 12
 148              		.cfi_offset 7, -12
 149 0002 56       		pushl	%esi
 150              		.cfi_def_cfa_offset 16
 151              		.cfi_offset 6, -16
 152 0003 53       		pushl	%ebx
 153              		.cfi_def_cfa_offset 20
 154              		.cfi_offset 3, -20
GAS LISTING /tmp/ccODya16.s 			page 4


 155 0004 E8FCFFFF 		call	__x86.get_pc_thunk.bx
 155      FF
 156 0009 81C30200 		addl	$_GLOBAL_OFFSET_TABLE_, %ebx
 156      0000
 157 000f 83EC20   		subl	$32, %esp
 158              		.cfi_def_cfa_offset 52
 159              		.loc 1 194 3 view .LVU26
 160 0012 8BAB0000 		movl	chtest@GOT(%ebx), %ebp
 160      0000
 161              		.loc 1 196 5 view .LVU27
 162 0018 8DB30000 		leal	objects@GOTOFF(%ebx), %esi
 162      0000
 163 001e 8DBB0000 		leal	gmp1@GOTOFF(%ebx), %edi
 163      0000
 164              		.loc 1 194 3 view .LVU28
 165 0024 896C240C 		movl	%ebp, 12(%esp)
 166 0028 C7450001 		movl	$1, 0(%ebp)
 166      000000
 167              		.loc 1 196 5 is_stmt 1 view .LVU29
 168 002f 6A04     		pushl	$4
 169              		.cfi_def_cfa_offset 56
 170 0031 56       		pushl	%esi
 171              		.cfi_def_cfa_offset 60
 172 0032 57       		pushl	%edi
 173              		.cfi_def_cfa_offset 64
 174 0033 E8FCFFFF 		call	chGuardedPoolLoadArray@PLT
 174      FF
 175              	.LVL5:
 176              		.loc 1 198 3 view .LVU30
 177              		.loc 1 198 19 view .LVU31
 178              		.loc 1 201 3 view .LVU32
 179 0038 83C410   		addl	$16, %esp
 180              		.cfi_def_cfa_offset 48
 181 003b 8D830000 		leal	.LC1@GOTOFF(%ebx), %eax
 181      0000
 182 0041 C7450002 		movl	$2, 0(%ebp)
 182      000000
 183              		.loc 1 203 5 view .LVU33
 184              	.LVL6:
 185              		.loc 1 203 19 view .LVU34
 186 0048 89442404 		movl	%eax, 4(%esp)
 187              		.loc 1 201 3 is_stmt 0 view .LVU35
 188 004c BD040000 		movl	$4, %ebp
 188      00
 189              	.LVL7:
 190              	.L10:
 191              		.loc 1 204 7 is_stmt 1 view .LVU36
 192 0051 83EC08   		subl	$8, %esp
 193              		.cfi_def_cfa_offset 56
 194 0054 6A00     		pushl	$0
 195              		.cfi_def_cfa_offset 60
 196 0056 57       		pushl	%edi
 197              		.cfi_def_cfa_offset 64
 198 0057 E8FCFFFF 		call	chGuardedPoolAllocTimeout@PLT
 198      FF
 199              	.LVL8:
 200 005c 5A       		popl	%edx
GAS LISTING /tmp/ccODya16.s 			page 5


 201              		.cfi_def_cfa_offset 60
 202 005d 59       		popl	%ecx
 203              		.cfi_def_cfa_offset 56
 204 005e FF74240C 		pushl	12(%esp)
 205              		.cfi_def_cfa_offset 60
 206 0062 85C0     		testl	%eax, %eax
 207 0064 0F95C0   		setne	%al
 208 0067 0FB6C0   		movzbl	%al, %eax
 209 006a 50       		pushl	%eax
 210              		.cfi_def_cfa_offset 64
 211 006b E8FCFFFF 		call	__test_assert@PLT
 211      FF
 212              	.LVL9:
 213 0070 83C410   		addl	$16, %esp
 214              		.cfi_def_cfa_offset 48
 215 0073 84C0     		testb	%al, %al
 216 0075 0F85C600 		jne	.L7
 216      0000
 217              		.loc 1 203 40 discriminator 2 view .LVU37
 218              	.LVL10:
 219              		.loc 1 203 19 discriminator 2 view .LVU38
 220 007b 83ED01   		subl	$1, %ebp
 221              	.LVL11:
 222              		.loc 1 203 19 is_stmt 0 discriminator 2 view .LVU39
 223 007e 75D1     		jne	.L10
 224              		.loc 1 204 90 is_stmt 1 view .LVU40
 225              		.loc 1 206 3 view .LVU41
 226              		.loc 1 206 19 view .LVU42
 227              		.loc 1 209 3 view .LVU43
 228 0080 8B6C2408 		movl	8(%esp), %ebp
 229              	.LVL12:
 230              		.loc 1 211 5 is_stmt 0 view .LVU44
 231 0084 83EC08   		subl	$8, %esp
 232              		.cfi_def_cfa_offset 56
 233              		.loc 1 209 3 view .LVU45
 234 0087 C7450003 		movl	$3, 0(%ebp)
 234      000000
 235              		.loc 1 211 5 is_stmt 1 view .LVU46
 236 008e 6A00     		pushl	$0
 237              		.cfi_def_cfa_offset 60
 238 0090 57       		pushl	%edi
 239              		.cfi_def_cfa_offset 64
 240 0091 E8FCFFFF 		call	chGuardedPoolAllocTimeout@PLT
 240      FF
 241              	.LVL13:
 242 0096 5A       		popl	%edx
 243              		.cfi_def_cfa_offset 60
 244 0097 8D930000 		leal	.LC0@GOTOFF(%ebx), %edx
 244      0000
 245 009d 59       		popl	%ecx
 246              		.cfi_def_cfa_offset 56
 247 009e 85C0     		testl	%eax, %eax
 248 00a0 89542414 		movl	%edx, 20(%esp)
 249 00a4 0F94C0   		sete	%al
 250 00a7 52       		pushl	%edx
 251              		.cfi_def_cfa_offset 60
 252 00a8 0FB6C0   		movzbl	%al, %eax
GAS LISTING /tmp/ccODya16.s 			page 6


 253 00ab 50       		pushl	%eax
 254              		.cfi_def_cfa_offset 64
 255 00ac E8FCFFFF 		call	__test_assert@PLT
 255      FF
 256              	.LVL14:
 257 00b1 83C410   		addl	$16, %esp
 258              		.cfi_def_cfa_offset 48
 259 00b4 84C0     		testb	%al, %al
 260 00b6 0F858500 		jne	.L7
 260      0000
 261              		.loc 1 211 92 discriminator 2 view .LVU47
 262              		.loc 1 213 3 discriminator 2 view .LVU48
 263              		.loc 1 213 19 discriminator 2 view .LVU49
 264              		.loc 1 217 3 discriminator 2 view .LVU50
 265 00bc C7450004 		movl	$4, 0(%ebp)
 265      000000
 266              		.loc 1 219 5 discriminator 2 view .LVU51
 267              	.LVL15:
 268              		.loc 1 219 19 discriminator 2 view .LVU52
 269 00c3 8D6E10   		leal	16(%esi), %ebp
 270              	.LVL16:
 271              	.L12:
 272              		.loc 1 220 7 discriminator 3 view .LVU53
 273 00c6 83EC08   		subl	$8, %esp
 274              		.cfi_def_cfa_offset 56
 275 00c9 56       		pushl	%esi
 276              		.cfi_def_cfa_offset 60
 277              		.loc 1 219 19 is_stmt 0 discriminator 3 view .LVU54
 278 00ca 83C604   		addl	$4, %esi
 279              		.loc 1 220 7 discriminator 3 view .LVU55
 280 00cd 57       		pushl	%edi
 281              		.cfi_def_cfa_offset 64
 282 00ce E8FCFFFF 		call	chGuardedPoolFree@PLT
 282      FF
 283              	.LVL17:
 284              		.loc 1 219 40 is_stmt 1 discriminator 3 view .LVU56
 285              		.loc 1 219 19 discriminator 3 view .LVU57
 286 00d3 83C410   		addl	$16, %esp
 287              		.cfi_def_cfa_offset 48
 288 00d6 39EE     		cmpl	%ebp, %esi
 289 00d8 75EC     		jne	.L12
 290              		.loc 1 222 3 view .LVU58
 291              		.loc 1 222 19 view .LVU59
 292              		.loc 1 226 3 view .LVU60
 293 00da 8B442408 		movl	8(%esp), %eax
 294 00de 8B6C2404 		movl	4(%esp), %ebp
 295 00e2 BE040000 		movl	$4, %esi
 295      00
 296 00e7 C7000500 		movl	$5, (%eax)
 296      0000
 297              		.loc 1 228 5 view .LVU61
 298              	.LVL18:
 299              		.loc 1 228 19 view .LVU62
 300              	.L13:
 301              		.loc 1 229 7 view .LVU63
 302 00ed 83EC08   		subl	$8, %esp
 303              		.cfi_def_cfa_offset 56
GAS LISTING /tmp/ccODya16.s 			page 7


 304 00f0 6A00     		pushl	$0
 305              		.cfi_def_cfa_offset 60
 306 00f2 57       		pushl	%edi
 307              		.cfi_def_cfa_offset 64
 308 00f3 E8FCFFFF 		call	chGuardedPoolAllocTimeout@PLT
 308      FF
 309              	.LVL19:
 310 00f8 5A       		popl	%edx
 311              		.cfi_def_cfa_offset 60
 312 00f9 59       		popl	%ecx
 313              		.cfi_def_cfa_offset 56
 314 00fa 55       		pushl	%ebp
 315              		.cfi_def_cfa_offset 60
 316 00fb 85C0     		testl	%eax, %eax
 317 00fd 0F95C0   		setne	%al
 318 0100 0FB6C0   		movzbl	%al, %eax
 319 0103 50       		pushl	%eax
 320              		.cfi_def_cfa_offset 64
 321 0104 E8FCFFFF 		call	__test_assert@PLT
 321      FF
 322              	.LVL20:
 323 0109 83C410   		addl	$16, %esp
 324              		.cfi_def_cfa_offset 48
 325 010c 84C0     		testb	%al, %al
 326 010e 7531     		jne	.L7
 327              		.loc 1 228 40 discriminator 2 view .LVU64
 328              	.LVL21:
 329              		.loc 1 228 19 discriminator 2 view .LVU65
 330 0110 83EE01   		subl	$1, %esi
 331              	.LVL22:
 332              		.loc 1 228 19 is_stmt 0 discriminator 2 view .LVU66
 333 0113 75D8     		jne	.L13
 334              		.loc 1 229 90 is_stmt 1 view .LVU67
 335              		.loc 1 231 3 view .LVU68
 336              		.loc 1 231 19 view .LVU69
 337              		.loc 1 234 3 view .LVU70
 338 0115 8B442408 		movl	8(%esp), %eax
 339              		.loc 1 236 5 is_stmt 0 view .LVU71
 340 0119 83EC08   		subl	$8, %esp
 341              		.cfi_def_cfa_offset 56
 342              		.loc 1 234 3 view .LVU72
 343 011c C7000600 		movl	$6, (%eax)
 343      0000
 344              		.loc 1 236 5 is_stmt 1 view .LVU73
 345 0122 6A00     		pushl	$0
 346              		.cfi_def_cfa_offset 60
 347 0124 57       		pushl	%edi
 348              		.cfi_def_cfa_offset 64
 349 0125 E8FCFFFF 		call	chGuardedPoolAllocTimeout@PLT
 349      FF
 350              	.LVL23:
 351 012a 5A       		popl	%edx
 352              		.cfi_def_cfa_offset 60
 353 012b 59       		popl	%ecx
 354              		.cfi_def_cfa_offset 56
 355 012c FF742414 		pushl	20(%esp)
 356              		.cfi_def_cfa_offset 60
GAS LISTING /tmp/ccODya16.s 			page 8


 357 0130 85C0     		testl	%eax, %eax
 358 0132 0F94C0   		sete	%al
 359 0135 0FB6C0   		movzbl	%al, %eax
 360 0138 50       		pushl	%eax
 361              		.cfi_def_cfa_offset 64
 362 0139 E8FCFFFF 		call	__test_assert@PLT
 362      FF
 363              	.LVL24:
 364 013e 83C410   		addl	$16, %esp
 365              		.cfi_def_cfa_offset 48
 366              		.loc 1 236 92 view .LVU74
 367              		.loc 1 238 3 view .LVU75
 368              		.loc 1 238 19 view .LVU76
 369              	.LVL25:
 370              	.L7:
 371              		.loc 1 239 1 is_stmt 0 view .LVU77
 372 0141 83C41C   		addl	$28, %esp
 373              		.cfi_def_cfa_offset 20
 374 0144 5B       		popl	%ebx
 375              		.cfi_restore 3
 376              		.cfi_def_cfa_offset 16
 377 0145 5E       		popl	%esi
 378              		.cfi_restore 6
 379              		.cfi_def_cfa_offset 12
 380 0146 5F       		popl	%edi
 381              		.cfi_restore 7
 382              		.cfi_def_cfa_offset 8
 383 0147 5D       		popl	%ebp
 384              		.cfi_restore 5
 385              		.cfi_def_cfa_offset 4
 386 0148 C3       		ret
 387              		.cfi_endproc
 388              	.LFE307:
 389              		.size	oslib_test_007_002_execute, .-oslib_test_007_002_execute
 390              		.section	.rodata.oslib_test_007_001_execute.str1.1,"aMS",@progbits,1
 391              	.LC2:
 392 0000 70726F76 		.string	"provider returned memory"
 392      69646572 
 392      20726574 
 392      75726E65 
 392      64206D65 
 393              		.section	.text.oslib_test_007_001_execute,"ax",@progbits
 394              		.p2align 4
 395              		.type	oslib_test_007_001_execute, @function
 396              	oslib_test_007_001_execute:
 397              	.LFB305:
 398              		.loc 1 95 46 is_stmt 1 view -0
 399              		.cfi_startproc
 400              		.loc 1 96 3 view .LVU79
 401              		.loc 1 99 3 view .LVU80
 402              		.loc 1 95 46 is_stmt 0 view .LVU81
 403 0000 55       		pushl	%ebp
 404              		.cfi_def_cfa_offset 8
 405              		.cfi_offset 5, -8
 406 0001 57       		pushl	%edi
 407              		.cfi_def_cfa_offset 12
 408              		.cfi_offset 7, -12
GAS LISTING /tmp/ccODya16.s 			page 9


 409 0002 56       		pushl	%esi
 410              		.cfi_def_cfa_offset 16
 411              		.cfi_offset 6, -16
 412 0003 53       		pushl	%ebx
 413              		.cfi_def_cfa_offset 20
 414              		.cfi_offset 3, -20
 415 0004 E8FCFFFF 		call	__x86.get_pc_thunk.bx
 415      FF
 416 0009 81C30200 		addl	$_GLOBAL_OFFSET_TABLE_, %ebx
 416      0000
 417 000f 83EC20   		subl	$32, %esp
 418              		.cfi_def_cfa_offset 52
 419              		.loc 1 99 3 view .LVU82
 420 0012 8BAB0000 		movl	chtest@GOT(%ebx), %ebp
 420      0000
 421              		.loc 1 101 5 view .LVU83
 422 0018 8DB30000 		leal	objects@GOTOFF(%ebx), %esi
 422      0000
 423 001e 8DBB0000 		leal	mp1@GOTOFF(%ebx), %edi
 423      0000
 424              		.loc 1 99 3 view .LVU84
 425 0024 896C240C 		movl	%ebp, 12(%esp)
 426 0028 C7450001 		movl	$1, 0(%ebp)
 426      000000
 427              		.loc 1 101 5 is_stmt 1 view .LVU85
 428 002f 6A04     		pushl	$4
 429              		.cfi_def_cfa_offset 56
 430 0031 56       		pushl	%esi
 431              		.cfi_def_cfa_offset 60
 432 0032 57       		pushl	%edi
 433              		.cfi_def_cfa_offset 64
 434 0033 E8FCFFFF 		call	chPoolLoadArray@PLT
 434      FF
 435              	.LVL26:
 436              		.loc 1 103 3 view .LVU86
 437              		.loc 1 103 19 view .LVU87
 438              		.loc 1 106 3 view .LVU88
 439 0038 83C410   		addl	$16, %esp
 440              		.cfi_def_cfa_offset 48
 441 003b 8D830000 		leal	.LC1@GOTOFF(%ebx), %eax
 441      0000
 442 0041 C7450002 		movl	$2, 0(%ebp)
 442      000000
 443              		.loc 1 108 5 view .LVU89
 444              	.LVL27:
 445              		.loc 1 108 19 view .LVU90
 446 0048 89442404 		movl	%eax, 4(%esp)
 447              		.loc 1 106 3 is_stmt 0 view .LVU91
 448 004c BD040000 		movl	$4, %ebp
 448      00
 449              	.LVL28:
 450              	.L21:
 451              		.loc 1 109 7 is_stmt 1 view .LVU92
 452 0051 83EC0C   		subl	$12, %esp
 453              		.cfi_def_cfa_offset 60
 454 0054 57       		pushl	%edi
 455              		.cfi_def_cfa_offset 64
GAS LISTING /tmp/ccODya16.s 			page 10


 456 0055 E8FCFFFF 		call	chPoolAlloc@PLT
 456      FF
 457              	.LVL29:
 458 005a 59       		popl	%ecx
 459              		.cfi_def_cfa_offset 60
 460 005b 5A       		popl	%edx
 461              		.cfi_def_cfa_offset 56
 462 005c FF74240C 		pushl	12(%esp)
 463              		.cfi_def_cfa_offset 60
 464 0060 85C0     		testl	%eax, %eax
 465 0062 0F95C0   		setne	%al
 466 0065 0FB6C0   		movzbl	%al, %eax
 467 0068 50       		pushl	%eax
 468              		.cfi_def_cfa_offset 64
 469 0069 E8FCFFFF 		call	__test_assert@PLT
 469      FF
 470              	.LVL30:
 471 006e 83C410   		addl	$16, %esp
 472              		.cfi_def_cfa_offset 48
 473 0071 84C0     		testb	%al, %al
 474 0073 0F85FD00 		jne	.L18
 474      0000
 475              		.loc 1 108 40 discriminator 2 view .LVU93
 476              	.LVL31:
 477              		.loc 1 108 19 discriminator 2 view .LVU94
 478 0079 83ED01   		subl	$1, %ebp
 479              	.LVL32:
 480              		.loc 1 108 19 is_stmt 0 discriminator 2 view .LVU95
 481 007c 75D3     		jne	.L21
 482              		.loc 1 109 59 is_stmt 1 view .LVU96
 483              		.loc 1 111 3 view .LVU97
 484              		.loc 1 111 19 view .LVU98
 485              		.loc 1 114 3 view .LVU99
 486 007e 8B6C2408 		movl	8(%esp), %ebp
 487              	.LVL33:
 488              		.loc 1 116 5 is_stmt 0 view .LVU100
 489 0082 83EC0C   		subl	$12, %esp
 490              		.cfi_def_cfa_offset 60
 491              		.loc 1 114 3 view .LVU101
 492 0085 C7450003 		movl	$3, 0(%ebp)
 492      000000
 493              		.loc 1 116 5 is_stmt 1 view .LVU102
 494 008c 57       		pushl	%edi
 495              		.cfi_def_cfa_offset 64
 496 008d E8FCFFFF 		call	chPoolAlloc@PLT
 496      FF
 497              	.LVL34:
 498 0092 59       		popl	%ecx
 499              		.cfi_def_cfa_offset 60
 500 0093 8D8B0000 		leal	.LC0@GOTOFF(%ebx), %ecx
 500      0000
 501 0099 5A       		popl	%edx
 502              		.cfi_def_cfa_offset 56
 503 009a 85C0     		testl	%eax, %eax
 504 009c 894C2414 		movl	%ecx, 20(%esp)
 505 00a0 0F94C0   		sete	%al
 506 00a3 51       		pushl	%ecx
GAS LISTING /tmp/ccODya16.s 			page 11


 507              		.cfi_def_cfa_offset 60
 508 00a4 0FB6C0   		movzbl	%al, %eax
 509 00a7 50       		pushl	%eax
 510              		.cfi_def_cfa_offset 64
 511 00a8 E8FCFFFF 		call	__test_assert@PLT
 511      FF
 512              	.LVL35:
 513 00ad 83C410   		addl	$16, %esp
 514              		.cfi_def_cfa_offset 48
 515 00b0 84C0     		testb	%al, %al
 516 00b2 0F85BE00 		jne	.L18
 516      0000
 517              		.loc 1 116 61 discriminator 2 view .LVU103
 518              		.loc 1 118 3 discriminator 2 view .LVU104
 519              		.loc 1 118 19 discriminator 2 view .LVU105
 520              		.loc 1 121 3 discriminator 2 view .LVU106
 521 00b8 C7450004 		movl	$4, 0(%ebp)
 521      000000
 522              		.loc 1 123 5 discriminator 2 view .LVU107
 523              	.LVL36:
 524              		.loc 1 123 19 discriminator 2 view .LVU108
 525 00bf 8D6E10   		leal	16(%esi), %ebp
 526              	.LVL37:
 527              	.L23:
 528              		.loc 1 124 7 discriminator 3 view .LVU109
 529 00c2 83EC08   		subl	$8, %esp
 530              		.cfi_def_cfa_offset 56
 531 00c5 56       		pushl	%esi
 532              		.cfi_def_cfa_offset 60
 533              		.loc 1 123 19 is_stmt 0 discriminator 3 view .LVU110
 534 00c6 83C604   		addl	$4, %esi
 535              		.loc 1 124 7 discriminator 3 view .LVU111
 536 00c9 57       		pushl	%edi
 537              		.cfi_def_cfa_offset 64
 538 00ca E8FCFFFF 		call	chPoolFree@PLT
 538      FF
 539              	.LVL38:
 540              		.loc 1 123 40 is_stmt 1 discriminator 3 view .LVU112
 541              		.loc 1 123 19 discriminator 3 view .LVU113
 542 00cf 83C410   		addl	$16, %esp
 543              		.cfi_def_cfa_offset 48
 544 00d2 39EE     		cmpl	%ebp, %esi
 545 00d4 75EC     		jne	.L23
 546              		.loc 1 126 3 view .LVU114
 547              		.loc 1 126 19 view .LVU115
 548              		.loc 1 129 3 view .LVU116
 549 00d6 8B442408 		movl	8(%esp), %eax
 550 00da 8B6C2404 		movl	4(%esp), %ebp
 551 00de BE040000 		movl	$4, %esi
 551      00
 552 00e3 C7000500 		movl	$5, (%eax)
 552      0000
 553              		.loc 1 131 5 view .LVU117
 554              	.LVL39:
 555              		.loc 1 131 19 view .LVU118
 556              	.L24:
 557              		.loc 1 132 7 view .LVU119
GAS LISTING /tmp/ccODya16.s 			page 12


 558 00e9 83EC0C   		subl	$12, %esp
 559              		.cfi_def_cfa_offset 60
 560 00ec 57       		pushl	%edi
 561              		.cfi_def_cfa_offset 64
 562 00ed E8FCFFFF 		call	chPoolAlloc@PLT
 562      FF
 563              	.LVL40:
 564 00f2 59       		popl	%ecx
 565              		.cfi_def_cfa_offset 60
 566 00f3 5A       		popl	%edx
 567              		.cfi_def_cfa_offset 56
 568 00f4 55       		pushl	%ebp
 569              		.cfi_def_cfa_offset 60
 570 00f5 85C0     		testl	%eax, %eax
 571 00f7 0F95C0   		setne	%al
 572 00fa 0FB6C0   		movzbl	%al, %eax
 573 00fd 50       		pushl	%eax
 574              		.cfi_def_cfa_offset 64
 575 00fe E8FCFFFF 		call	__test_assert@PLT
 575      FF
 576              	.LVL41:
 577 0103 83C410   		addl	$16, %esp
 578              		.cfi_def_cfa_offset 48
 579 0106 84C0     		testb	%al, %al
 580 0108 756C     		jne	.L18
 581              		.loc 1 131 40 discriminator 2 view .LVU120
 582              	.LVL42:
 583              		.loc 1 131 19 discriminator 2 view .LVU121
 584 010a 83EE01   		subl	$1, %esi
 585              	.LVL43:
 586              		.loc 1 131 19 is_stmt 0 discriminator 2 view .LVU122
 587 010d 75DA     		jne	.L24
 588              		.loc 1 132 59 is_stmt 1 view .LVU123
 589              		.loc 1 134 3 view .LVU124
 590              		.loc 1 134 19 view .LVU125
 591              		.loc 1 137 3 view .LVU126
 592 010f 8B742408 		movl	8(%esp), %esi
 593              	.LVL44:
 594              		.loc 1 139 5 is_stmt 0 view .LVU127
 595 0113 83EC0C   		subl	$12, %esp
 596              		.cfi_def_cfa_offset 60
 597              		.loc 1 137 3 view .LVU128
 598 0116 C7060600 		movl	$6, (%esi)
 598      0000
 599              		.loc 1 139 5 is_stmt 1 view .LVU129
 600 011c 57       		pushl	%edi
 601              		.cfi_def_cfa_offset 64
 602 011d E8FCFFFF 		call	chPoolAlloc@PLT
 602      FF
 603              	.LVL45:
 604 0122 5D       		popl	%ebp
 605              		.cfi_def_cfa_offset 60
 606 0123 5A       		popl	%edx
 607              		.cfi_def_cfa_offset 56
 608 0124 FF742414 		pushl	20(%esp)
 609              		.cfi_def_cfa_offset 60
 610 0128 85C0     		testl	%eax, %eax
GAS LISTING /tmp/ccODya16.s 			page 13


 611 012a 0F94C0   		sete	%al
 612 012d 0FB6C0   		movzbl	%al, %eax
 613 0130 50       		pushl	%eax
 614              		.cfi_def_cfa_offset 64
 615 0131 E8FCFFFF 		call	__test_assert@PLT
 615      FF
 616              	.LVL46:
 617 0136 83C410   		addl	$16, %esp
 618              		.cfi_def_cfa_offset 48
 619 0139 84C0     		testb	%al, %al
 620 013b 7539     		jne	.L18
 621              		.loc 1 139 61 discriminator 2 view .LVU130
 622              		.loc 1 141 3 discriminator 2 view .LVU131
 623              		.loc 1 141 19 discriminator 2 view .LVU132
 624              		.loc 1 145 3 discriminator 2 view .LVU133
 625              	.LBB16:
 626              	.LBB17:
 627              		.loc 2 195 3 is_stmt 0 discriminator 2 view .LVU134
 628 013d 8D830000 		leal	null_provider@GOTOFF(%ebx), %eax
 628      0000
 629              	.LBE17:
 630              	.LBE16:
 631              		.loc 1 145 3 discriminator 2 view .LVU135
 632 0143 C7060700 		movl	$7, (%esi)
 632      0000
 633              		.loc 1 147 5 is_stmt 1 discriminator 2 view .LVU136
 634              	.LVL47:
 635              	.LBB19:
 636              	.LBI16:
 637              		.loc 2 191 20 discriminator 2 view .LVU137
 638              	.LBB18:
 639              		.loc 2 195 3 discriminator 2 view .LVU138
 640 0149 50       		pushl	%eax
 641              		.cfi_def_cfa_offset 52
 642 014a 6A04     		pushl	$4
 643              		.cfi_def_cfa_offset 56
 644 014c 6A04     		pushl	$4
 645              		.cfi_def_cfa_offset 60
 646 014e 57       		pushl	%edi
 647              		.cfi_def_cfa_offset 64
 648 014f E8FCFFFF 		call	chPoolObjectInitAligned@PLT
 648      FF
 649              	.LVL48:
 650              		.loc 2 195 3 is_stmt 0 discriminator 2 view .LVU139
 651              	.LBE18:
 652              	.LBE19:
 653              		.loc 1 148 5 is_stmt 1 discriminator 2 view .LVU140
 654 0154 893C24   		movl	%edi, (%esp)
 655 0157 E8FCFFFF 		call	chPoolAlloc@PLT
 655      FF
 656              	.LVL49:
 657 015c 5A       		popl	%edx
 658              		.cfi_def_cfa_offset 60
 659 015d 8D930000 		leal	.LC2@GOTOFF(%ebx), %edx
 659      0000
 660 0163 59       		popl	%ecx
 661              		.cfi_def_cfa_offset 56
GAS LISTING /tmp/ccODya16.s 			page 14


 662 0164 85C0     		testl	%eax, %eax
 663 0166 52       		pushl	%edx
 664              		.cfi_def_cfa_offset 60
 665 0167 0F94C0   		sete	%al
 666 016a 0FB6C0   		movzbl	%al, %eax
 667 016d 50       		pushl	%eax
 668              		.cfi_def_cfa_offset 64
 669 016e E8FCFFFF 		call	__test_assert@PLT
 669      FF
 670              	.LVL50:
 671 0173 83C410   		addl	$16, %esp
 672              		.cfi_def_cfa_offset 48
 673              		.loc 1 148 71 discriminator 2 view .LVU141
 674              		.loc 1 150 3 discriminator 2 view .LVU142
 675              		.loc 1 150 19 discriminator 2 view .LVU143
 676              	.L18:
 677              		.loc 1 151 1 is_stmt 0 view .LVU144
 678 0176 83C41C   		addl	$28, %esp
 679              		.cfi_def_cfa_offset 20
 680 0179 5B       		popl	%ebx
 681              		.cfi_restore 3
 682              		.cfi_def_cfa_offset 16
 683 017a 5E       		popl	%esi
 684              		.cfi_restore 6
 685              		.cfi_def_cfa_offset 12
 686 017b 5F       		popl	%edi
 687              		.cfi_restore 7
 688              		.cfi_def_cfa_offset 8
 689 017c 5D       		popl	%ebp
 690              		.cfi_restore 5
 691              		.cfi_def_cfa_offset 4
 692 017d C3       		ret
 693              		.cfi_endproc
 694              	.LFE305:
 695              		.size	oslib_test_007_001_execute, .-oslib_test_007_001_execute
 696              		.section	.text.oslib_test_007_001_setup,"ax",@progbits
 697              		.p2align 4
 698              		.type	oslib_test_007_001_setup, @function
 699              	oslib_test_007_001_setup:
 700              	.LFB304:
 701              		.loc 1 91 44 is_stmt 1 view -0
 702              		.cfi_startproc
 703              		.loc 1 92 3 view .LVU146
 704              	.LVL51:
 705              	.LBB20:
 706              	.LBI20:
 707              		.loc 2 191 20 view .LVU147
 708              	.LBB21:
 709              		.loc 2 195 3 view .LVU148
 710              	.LBE21:
 711              	.LBE20:
 712              		.loc 1 91 44 is_stmt 0 view .LVU149
 713 0000 53       		pushl	%ebx
 714              		.cfi_def_cfa_offset 8
 715              		.cfi_offset 3, -8
 716 0001 E8FCFFFF 		call	__x86.get_pc_thunk.bx
 716      FF
GAS LISTING /tmp/ccODya16.s 			page 15


 717 0006 81C30200 		addl	$_GLOBAL_OFFSET_TABLE_, %ebx
 717      0000
 718 000c 83EC08   		subl	$8, %esp
 719              		.cfi_def_cfa_offset 16
 720              	.LBB23:
 721              	.LBB22:
 722              		.loc 2 195 3 view .LVU150
 723 000f 6A00     		pushl	$0
 724              		.cfi_def_cfa_offset 20
 725 0011 6A04     		pushl	$4
 726              		.cfi_def_cfa_offset 24
 727 0013 6A04     		pushl	$4
 728              		.cfi_def_cfa_offset 28
 729 0015 8D830000 		leal	mp1@GOTOFF(%ebx), %eax
 729      0000
 730 001b 50       		pushl	%eax
 731              		.cfi_def_cfa_offset 32
 732 001c E8FCFFFF 		call	chPoolObjectInitAligned@PLT
 732      FF
 733              	.LVL52:
 734              		.loc 2 195 3 view .LVU151
 735              	.LBE22:
 736              	.LBE23:
 737              		.loc 1 93 1 view .LVU152
 738 0021 83C418   		addl	$24, %esp
 739              		.cfi_def_cfa_offset 8
 740 0024 5B       		popl	%ebx
 741              		.cfi_restore 3
 742              		.cfi_def_cfa_offset 4
 743 0025 C3       		ret
 744              		.cfi_endproc
 745              	.LFE304:
 746              		.size	oslib_test_007_001_setup, .-oslib_test_007_001_setup
 747              		.section	.text.oslib_test_007_003_setup,"ax",@progbits
 748              		.p2align 4
 749              		.type	oslib_test_007_003_setup, @function
 750              	oslib_test_007_003_setup:
 751              	.LFB311:
 752              		.cfi_startproc
 753 0000 53       		pushl	%ebx
 754              		.cfi_def_cfa_offset 8
 755              		.cfi_offset 3, -8
 756 0001 E8FCFFFF 		call	__x86.get_pc_thunk.bx
 756      FF
 757 0006 81C30200 		addl	$_GLOBAL_OFFSET_TABLE_, %ebx
 757      0000
 758 000c 83EC0C   		subl	$12, %esp
 759              		.cfi_def_cfa_offset 20
 760 000f 6A04     		pushl	$4
 761              		.cfi_def_cfa_offset 24
 762 0011 6A04     		pushl	$4
 763              		.cfi_def_cfa_offset 28
 764 0013 8D830000 		leal	gmp1@GOTOFF(%ebx), %eax
 764      0000
 765 0019 50       		pushl	%eax
 766              		.cfi_def_cfa_offset 32
 767 001a E8FCFFFF 		call	chGuardedPoolObjectInitAligned@PLT
GAS LISTING /tmp/ccODya16.s 			page 16


 767      FF
 768 001f 83C418   		addl	$24, %esp
 769              		.cfi_def_cfa_offset 8
 770 0022 5B       		popl	%ebx
 771              		.cfi_restore 3
 772              		.cfi_def_cfa_offset 4
 773 0023 C3       		ret
 774              		.cfi_endproc
 775              	.LFE311:
 776              		.size	oslib_test_007_003_setup, .-oslib_test_007_003_setup
 777              		.globl	oslib_test_sequence_007
 778              		.section	.rodata.str1.1,"aMS",@progbits,1
 779              	.LC3:
 780 0000 4D656D6F 		.string	"Memory Pools"
 780      72792050 
 780      6F6F6C73 
 780      00
 781              		.section	.data.rel.ro.local.oslib_test_sequence_007,"aw"
 782              		.align 4
 783              		.type	oslib_test_sequence_007, @object
 784              		.size	oslib_test_sequence_007, 8
 785              	oslib_test_sequence_007:
 786 0000 00000000 		.long	.LC3
 787 0004 00000000 		.long	oslib_test_sequence_007_array
 788              		.globl	oslib_test_sequence_007_array
 789              		.section	.data.rel.ro.local.oslib_test_sequence_007_array,"aw"
 790              		.align 4
 791              		.type	oslib_test_sequence_007_array, @object
 792              		.size	oslib_test_sequence_007_array, 16
 793              	oslib_test_sequence_007_array:
 794 0000 00000000 		.long	oslib_test_007_001
 795 0004 00000000 		.long	oslib_test_007_002
 796 0008 00000000 		.long	oslib_test_007_003
 797 000c 00000000 		.long	0
 798              		.section	.rodata.str1.1
 799              	.LC4:
 800 000d 47756172 		.string	"Guarded Memory Pools timeout"
 800      64656420 
 800      4D656D6F 
 800      72792050 
 800      6F6F6C73 
 801              		.section	.data.rel.ro.local.oslib_test_007_003,"aw"
 802              		.align 4
 803              		.type	oslib_test_007_003, @object
 804              		.size	oslib_test_007_003, 16
 805              	oslib_test_007_003:
 806 0000 0D000000 		.long	.LC4
 807 0004 00000000 		.long	oslib_test_007_003_setup
 808 0008 00000000 		.long	0
 809 000c 00000000 		.long	oslib_test_007_003_execute
 810              		.section	.rodata.str1.4,"aMS",@progbits,1
 811              		.align 4
 812              	.LC5:
 813 0000 4C6F6164 		.string	"Loading and emptying a guarded memory pool without waiting"
 813      696E6720 
 813      616E6420 
 813      656D7074 
GAS LISTING /tmp/ccODya16.s 			page 17


 813      79696E67 
 814              		.section	.data.rel.ro.local.oslib_test_007_002,"aw"
 815              		.align 4
 816              		.type	oslib_test_007_002, @object
 817              		.size	oslib_test_007_002, 16
 818              	oslib_test_007_002:
 819 0000 00000000 		.long	.LC5
 820 0004 00000000 		.long	oslib_test_007_002_setup
 821 0008 00000000 		.long	0
 822 000c 00000000 		.long	oslib_test_007_002_execute
 823              		.section	.rodata.str1.4
 824 003b 00       		.align 4
 825              	.LC6:
 826 003c 4C6F6164 		.string	"Loading and emptying a memory pool"
 826      696E6720 
 826      616E6420 
 826      656D7074 
 826      79696E67 
 827              		.section	.data.rel.ro.local.oslib_test_007_001,"aw"
 828              		.align 4
 829              		.type	oslib_test_007_001, @object
 830              		.size	oslib_test_007_001, 16
 831              	oslib_test_007_001:
 832 0000 3C000000 		.long	.LC6
 833 0004 00000000 		.long	oslib_test_007_001_setup
 834 0008 00000000 		.long	0
 835 000c 00000000 		.long	oslib_test_007_001_execute
 836              		.section	.data.rel.local.gmp1,"aw"
 837              		.align 4
 838              		.type	gmp1, @object
 839              		.size	gmp1, 28
 840              	gmp1:
 841 0000 00000000 		.long	gmp1
 842 0004 00000000 		.long	gmp1
 843 0008 00000000 		.long	0
 844 000c 00000000 		.long	0
 845 0010 04000000 		.long	4
 846 0014 04000000 		.long	4
 847 0018 00000000 		.long	0
 848              		.section	.data.mp1,"aw"
 849              		.align 4
 850              		.type	mp1, @object
 851              		.size	mp1, 16
 852              	mp1:
 853 0000 00000000 		.long	0
 854 0004 04000000 		.long	4
 855 0008 04000000 		.long	4
 856 000c 00000000 		.long	0
 857              		.section	.bss.objects,"aw",@nobits
 858              		.align 4
 859              		.type	objects, @object
 860              		.size	objects, 16
 861              	objects:
 862 0000 00000000 		.zero	16
 862      00000000 
 862      00000000 
 862      00000000 
GAS LISTING /tmp/ccODya16.s 			page 18


 863              		.section	.text.__x86.get_pc_thunk.bx,"axG",@progbits,__x86.get_pc_thunk.bx,comdat
 864              		.globl	__x86.get_pc_thunk.bx
 865              		.hidden	__x86.get_pc_thunk.bx
 866              		.type	__x86.get_pc_thunk.bx, @function
 867              	__x86.get_pc_thunk.bx:
 868              	.LFB313:
 869              		.cfi_startproc
 870 0000 8B1C24   		movl	(%esp), %ebx
 871 0003 C3       		ret
 872              		.cfi_endproc
 873              	.LFE313:
 874              		.text
 875              	.Letext0:
 876              		.file 3 "/usr/lib/gcc/x86_64-linux-gnu/11/include/stddef.h"
 877              		.file 4 "/usr/include/bits/types.h"
 878              		.file 5 "/usr/include/bits/stdint-intn.h"
 879              		.file 6 "/usr/include/bits/stdint-uintn.h"
 880              		.file 7 "../../../os/common/ports/SIMIA32/compilers/GCC/chtypes.h"
 881              		.file 8 "../../../os/rt/include/chtime.h"
 882              		.file 9 "../../../os/rt/include/chlists.h"
 883              		.file 10 "../../../os/rt/include/chsem.h"
 884              		.file 11 "../../../os/oslib/include/chmemcore.h"
 885              		.file 12 "../../../os/hal/include/hal_streams.h"
 886              		.file 13 "../../../os/test/include/ch_test.h"
 887              		.file 14 "../../../test/oslib/source/test/oslib_test_sequence_007.h"
 3179 0060 2F686F6D 		.section	.note.GNU-stack,"",@progbits
 3179      652F616C 
 3179      65782F43 
 3179      68696269 
 3179      4F532F64 
GAS LISTING /tmp/ccODya16.s 			page 63

