GAS LISTING /tmp/ccZ1yQJk.s 			page 1


   1              		.file	"rt_test_root.c"
   2              		.text
   3              	.Ltext0:
   4              		.file 0 "/home/alex/ChibiOS/demos/various/LAB1" "../../../test/rt/source/test/rt_test_root.c"
   5              		.section	.text.test_terminate_threads,"ax",@progbits
   6              		.p2align 4
   7              		.globl	test_terminate_threads
   8              		.type	test_terminate_threads, @function
   9              	test_terminate_threads:
  10              	.LFB303:
  11              		.file 1 "../../../test/rt/source/test/rt_test_root.c"
  12              		.loc 1 118 35 view -0
  13              		.cfi_startproc
  14              		.loc 1 119 3 view .LVU1
  15              		.loc 1 121 3 view .LVU2
  16              	.LVL0:
  17              		.loc 1 121 17 view .LVU3
  18              		.loc 1 118 35 is_stmt 0 view .LVU4
  19 0000 57       		pushl	%edi
  20              		.cfi_def_cfa_offset 8
  21              		.cfi_offset 7, -8
  22 0001 56       		pushl	%esi
  23              		.cfi_def_cfa_offset 12
  24              		.cfi_offset 6, -12
  25 0002 53       		pushl	%ebx
  26              		.cfi_def_cfa_offset 16
  27              		.cfi_offset 3, -16
  28 0003 E8FCFFFF 		call	__x86.get_pc_thunk.bx
  28      FF
  29 0008 81C30200 		addl	$_GLOBAL_OFFSET_TABLE_, %ebx
  29      0000
  30 000e 8DB30000 		leal	threads@GOTOFF(%ebx), %esi
  30      0000
  31 0014 8D7E14   		leal	20(%esi), %edi
  32              	.LVL1:
  33              	.L3:
  34              		.loc 1 122 5 is_stmt 1 view .LVU5
  35              		.loc 1 122 16 is_stmt 0 view .LVU6
  36 0017 8B06     		movl	(%esi), %eax
  37              		.loc 1 122 8 view .LVU7
  38 0019 85C0     		testl	%eax, %eax
  39 001b 740C     		je	.L2
  40              		.loc 1 123 7 is_stmt 1 view .LVU8
  41 001d 83EC0C   		subl	$12, %esp
  42              		.cfi_def_cfa_offset 28
  43 0020 50       		pushl	%eax
  44              		.cfi_def_cfa_offset 32
  45 0021 E8FCFFFF 		call	chThdTerminate@PLT
  45      FF
  46              	.LVL2:
  47 0026 83C410   		addl	$16, %esp
  48              		.cfi_def_cfa_offset 16
  49              	.L2:
  50              		.loc 1 121 33 discriminator 2 view .LVU9
  51              		.loc 1 121 17 discriminator 2 view .LVU10
  52 0029 83C604   		addl	$4, %esi
  53 002c 39FE     		cmpl	%edi, %esi
GAS LISTING /tmp/ccZ1yQJk.s 			page 2


  54 002e 75E7     		jne	.L3
  55              		.loc 1 124 1 is_stmt 0 view .LVU11
  56 0030 5B       		popl	%ebx
  57              		.cfi_restore 3
  58              		.cfi_def_cfa_offset 12
  59 0031 5E       		popl	%esi
  60              		.cfi_restore 6
  61              		.cfi_def_cfa_offset 8
  62 0032 5F       		popl	%edi
  63              		.cfi_restore 7
  64              		.cfi_def_cfa_offset 4
  65 0033 C3       		ret
  66              		.cfi_endproc
  67              	.LFE303:
  68              		.size	test_terminate_threads, .-test_terminate_threads
  69              		.section	.text.test_wait_threads,"ax",@progbits
  70              		.p2align 4
  71              		.globl	test_wait_threads
  72              		.type	test_wait_threads, @function
  73              	test_wait_threads:
  74              	.LFB304:
  75              		.loc 1 129 30 is_stmt 1 view -0
  76              		.cfi_startproc
  77              		.loc 1 130 3 view .LVU13
  78              		.loc 1 132 3 view .LVU14
  79              	.LVL3:
  80              		.loc 1 132 17 view .LVU15
  81              		.loc 1 129 30 is_stmt 0 view .LVU16
  82 0000 57       		pushl	%edi
  83              		.cfi_def_cfa_offset 8
  84              		.cfi_offset 7, -8
  85 0001 56       		pushl	%esi
  86              		.cfi_def_cfa_offset 12
  87              		.cfi_offset 6, -12
  88 0002 53       		pushl	%ebx
  89              		.cfi_def_cfa_offset 16
  90              		.cfi_offset 3, -16
  91 0003 E8FCFFFF 		call	__x86.get_pc_thunk.bx
  91      FF
  92 0008 81C30200 		addl	$_GLOBAL_OFFSET_TABLE_, %ebx
  92      0000
  93 000e 8DB30000 		leal	threads@GOTOFF(%ebx), %esi
  93      0000
  94 0014 8D7E14   		leal	20(%esi), %edi
  95              	.LVL4:
  96              	.L12:
  97              		.loc 1 133 5 is_stmt 1 view .LVU17
  98              		.loc 1 133 16 is_stmt 0 view .LVU18
  99 0017 8B06     		movl	(%esi), %eax
 100              		.loc 1 133 8 view .LVU19
 101 0019 85C0     		testl	%eax, %eax
 102 001b 7412     		je	.L11
 103              		.loc 1 134 7 is_stmt 1 view .LVU20
 104 001d 83EC0C   		subl	$12, %esp
 105              		.cfi_def_cfa_offset 28
 106 0020 50       		pushl	%eax
 107              		.cfi_def_cfa_offset 32
GAS LISTING /tmp/ccZ1yQJk.s 			page 3


 108 0021 E8FCFFFF 		call	chThdWait@PLT
 108      FF
 109              	.LVL5:
 110              		.loc 1 135 7 view .LVU21
 111              		.loc 1 135 18 is_stmt 0 view .LVU22
 112 0026 C7060000 		movl	$0, (%esi)
 112      0000
 113 002c 83C410   		addl	$16, %esp
 114              		.cfi_def_cfa_offset 16
 115              	.L11:
 116              		.loc 1 132 33 is_stmt 1 discriminator 2 view .LVU23
 117              		.loc 1 132 17 discriminator 2 view .LVU24
 118 002f 83C604   		addl	$4, %esi
 119 0032 39FE     		cmpl	%edi, %esi
 120 0034 75E1     		jne	.L12
 121              		.loc 1 137 1 is_stmt 0 view .LVU25
 122 0036 5B       		popl	%ebx
 123              		.cfi_restore 3
 124              		.cfi_def_cfa_offset 12
 125 0037 5E       		popl	%esi
 126              		.cfi_restore 6
 127              		.cfi_def_cfa_offset 8
 128 0038 5F       		popl	%edi
 129              		.cfi_restore 7
 130              		.cfi_def_cfa_offset 4
 131 0039 C3       		ret
 132              		.cfi_endproc
 133              	.LFE304:
 134              		.size	test_wait_threads, .-test_wait_threads
 135              		.section	.text.test_wait_tick,"ax",@progbits
 136              		.p2align 4
 137              		.globl	test_wait_tick
 138              		.type	test_wait_tick, @function
 139              	test_wait_tick:
 140              	.LFB305:
 141              		.loc 1 142 32 is_stmt 1 view -0
 142              		.cfi_startproc
 143              		.loc 1 144 3 view .LVU27
 144              		.loc 1 142 32 is_stmt 0 view .LVU28
 145 0000 53       		pushl	%ebx
 146              		.cfi_def_cfa_offset 8
 147              		.cfi_offset 3, -8
 148 0001 E8FCFFFF 		call	__x86.get_pc_thunk.bx
 148      FF
 149 0006 81C30200 		addl	$_GLOBAL_OFFSET_TABLE_, %ebx
 149      0000
 150 000c 83EC14   		subl	$20, %esp
 151              		.cfi_def_cfa_offset 28
 152              		.loc 1 144 3 view .LVU29
 153 000f 6A01     		pushl	$1
 154              		.cfi_def_cfa_offset 32
 155 0011 E8FCFFFF 		call	chThdSleep@PLT
 155      FF
 156              	.LVL6:
 157              		.loc 1 145 3 is_stmt 1 view .LVU30
 158              	.LBB24:
 159              	.LBI24:
GAS LISTING /tmp/ccZ1yQJk.s 			page 4


 160              		.file 2 "../../../os/rt/include/chvt.h"
 161              		.loc 2 154 25 view .LVU31
 162              	.LBB25:
 163              		.loc 2 155 3 view .LVU32
 164              		.loc 2 157 3 view .LVU33
 165              		.loc 2 158 3 view .LVU34
 166              	.LBB26:
 167              	.LBI26:
 168              		.loc 2 135 25 view .LVU35
 169              	.LBB27:
 170              		.loc 2 138 3 view .LVU36
 171              		.loc 2 138 26 is_stmt 0 view .LVU37
 172 0016 8B830000 		movl	ch0@GOT(%ebx), %eax
 172      0000
 173              	.LBE27:
 174              	.LBE26:
 175              	.LBB29:
 176              	.LBB30:
 177              	.LBB31:
 178              	.LBB32:
 179              		.file 3 "../../../os/common/ports/SIMIA32/chcore.h"
 180              		.loc 3 372 16 view .LVU38
 181 001c 8B930000 		movl	port_irq_sts@GOT(%ebx), %edx
 181      0000
 182              	.LBE32:
 183              	.LBE31:
 184              	.LBE30:
 185              	.LBE29:
 186              	.LBB36:
 187              	.LBB28:
 188              		.loc 2 138 26 view .LVU39
 189 0022 8B401C   		movl	28(%eax), %eax
 190              	.LVL7:
 191              		.loc 2 138 26 view .LVU40
 192              	.LBE28:
 193              	.LBE36:
 194              		.loc 2 159 3 is_stmt 1 view .LVU41
 195              	.LBB37:
 196              	.LBI29:
 197              		.file 4 "../../../os/rt/include/chsys.h"
 198              		.loc 4 421 20 view .LVU42
 199              	.LBB35:
 200              		.loc 4 423 23 view .LVU43
 201              		.loc 4 424 34 view .LVU44
 202              		.loc 4 430 3 view .LVU45
 203              		.loc 4 430 3 view .LVU46
 204              		.loc 4 430 3 view .LVU47
 205              		.loc 4 434 3 view .LVU48
 206              	.LBB34:
 207              	.LBI31:
 208              		.loc 3 370 20 view .LVU49
 209              	.LBB33:
 210              		.loc 3 372 3 view .LVU50
 211              		.loc 3 372 16 is_stmt 0 view .LVU51
 212 0025 C7020000 		movl	$0, (%edx)
 212      0000
 213              	.LBE33:
GAS LISTING /tmp/ccZ1yQJk.s 			page 5


 214              	.LBE34:
 215              	.LBE35:
 216              	.LBE37:
 217              		.loc 2 161 3 is_stmt 1 view .LVU52
 218              	.LBE25:
 219              	.LBE24:
 220              		.loc 1 146 1 is_stmt 0 view .LVU53
 221 002b 83C418   		addl	$24, %esp
 222              		.cfi_def_cfa_offset 8
 223 002e 5B       		popl	%ebx
 224              		.cfi_restore 3
 225              		.cfi_def_cfa_offset 4
 226 002f C3       		ret
 227              		.cfi_endproc
 228              	.LFE305:
 229              		.size	test_wait_tick, .-test_wait_tick
 230              		.globl	wa
 231              		.section	.data.rel.ro.local.wa,"aw"
 232              		.align 4
 233              		.type	wa, @object
 234              		.size	wa, 20
 235              	wa:
 236 0000 00000000 		.long	test_buffer
 237 0004 40410000 		.long	test_buffer+16704
 238 0008 80820000 		.long	test_buffer+33408
 239 000c C0C30000 		.long	test_buffer+50112
 240 0010 00050100 		.long	test_buffer+66816
 241              		.globl	threads
 242              		.section	.bss.threads,"aw",@nobits
 243              		.align 4
 244              		.type	threads, @object
 245              		.size	threads, 20
 246              	threads:
 247 0000 00000000 		.zero	20
 247      00000000 
 247      00000000 
 247      00000000 
 247      00000000 
 248              		.globl	test_buffer
 249              		.section	.bss.test_buffer,"aw",@nobits
 250              		.align 16
 251              		.type	test_buffer, @object
 252              		.size	test_buffer, 83520
 253              	test_buffer:
 254 0000 00000000 		.zero	83520
 254      00000000 
 254      00000000 
 254      00000000 
 254      00000000 
 255              		.globl	rt_test_suite
 256              		.section	.rodata.str1.1,"aMS",@progbits,1
 257              	.LC0:
 258 0000 43686962 		.string	"ChibiOS/RT Test Suite"
 258      694F532F 
 258      52542054 
 258      65737420 
 258      53756974 
GAS LISTING /tmp/ccZ1yQJk.s 			page 6


 259              		.section	.data.rel.ro.local.rt_test_suite,"aw"
 260              		.align 4
 261              		.type	rt_test_suite, @object
 262              		.size	rt_test_suite, 8
 263              	rt_test_suite:
 264 0000 00000000 		.long	.LC0
 265 0004 00000000 		.long	rt_test_suite_array
 266              		.globl	rt_test_suite_array
 267              		.section	.data.rel.ro.rt_test_suite_array,"aw"
 268              		.align 32
 269              		.type	rt_test_suite_array, @object
 270              		.size	rt_test_suite_array, 52
 271              	rt_test_suite_array:
 272 0000 00000000 		.long	rt_test_sequence_001
 273 0004 00000000 		.long	rt_test_sequence_002
 274 0008 00000000 		.long	rt_test_sequence_003
 275 000c 00000000 		.long	rt_test_sequence_004
 276 0010 00000000 		.long	rt_test_sequence_005
 277 0014 00000000 		.long	rt_test_sequence_006
 278 0018 00000000 		.long	rt_test_sequence_007
 279 001c 00000000 		.long	rt_test_sequence_008
 280 0020 00000000 		.long	rt_test_sequence_009
 281 0024 00000000 		.long	rt_test_sequence_010
 282 0028 00000000 		.long	rt_test_sequence_011
 283 002c 00000000 		.long	rt_test_sequence_012
 284 0030 00000000 		.long	0
 285              		.section	.text.__x86.get_pc_thunk.bx,"axG",@progbits,__x86.get_pc_thunk.bx,comdat
 286              		.globl	__x86.get_pc_thunk.bx
 287              		.hidden	__x86.get_pc_thunk.bx
 288              		.type	__x86.get_pc_thunk.bx, @function
 289              	__x86.get_pc_thunk.bx:
 290              	.LFB306:
 291              		.cfi_startproc
 292 0000 8B1C24   		movl	(%esp), %ebx
 293 0003 C3       		ret
 294              		.cfi_endproc
 295              	.LFE306:
 296              		.text
 297              	.Letext0:
 298              		.file 5 "/usr/lib/gcc/x86_64-linux-gnu/11/include/stddef.h"
 299              		.file 6 "/usr/include/bits/types.h"
 300              		.file 7 "/usr/include/bits/stdint-intn.h"
 301              		.file 8 "/usr/include/bits/stdint-uintn.h"
 302              		.file 9 "../../../os/common/ports/SIMIA32/compilers/GCC/chtypes.h"
 303              		.file 10 "../../../os/rt/include/chearly.h"
 304              		.file 11 "../../../os/rt/include/chobjects.h"
 305              		.file 12 "../../../os/rt/include/chrfcu.h"
 306              		.file 13 "../../../os/rt/include/chdebug.h"
 307              		.file 14 "../../../os/rt/include/chtime.h"
 308              		.file 15 "../../../os/rt/include/chlists.h"
 309              		.file 16 "../../../os/rt/include/chsem.h"
 310              		.file 17 "../../../os/rt/include/chmtx.h"
 311              		.file 18 "../../../os/test/include/ch_test.h"
 312              		.file 19 "../../../test/rt/source/test/rt_test_sequence_001.h"
 313              		.file 20 "../../../test/rt/source/test/rt_test_sequence_002.h"
 314              		.file 21 "../../../test/rt/source/test/rt_test_sequence_003.h"
 315              		.file 22 "../../../test/rt/source/test/rt_test_sequence_004.h"
GAS LISTING /tmp/ccZ1yQJk.s 			page 7


 316              		.file 23 "../../../test/rt/source/test/rt_test_sequence_005.h"
 317              		.file 24 "../../../test/rt/source/test/rt_test_sequence_006.h"
 318              		.file 25 "../../../test/rt/source/test/rt_test_sequence_007.h"
 319              		.file 26 "../../../test/rt/source/test/rt_test_sequence_008.h"
 320              		.file 27 "../../../test/rt/source/test/rt_test_sequence_009.h"
 321              		.file 28 "../../../test/rt/source/test/rt_test_sequence_010.h"
 322              		.file 29 "../../../test/rt/source/test/rt_test_sequence_011.h"
 323              		.file 30 "../../../test/rt/source/test/rt_test_sequence_012.h"
 324              		.file 31 "../../../test/rt/source/test/rt_test_root.h"
 325              		.file 32 "../../../os/rt/include/chthreads.h"
 326              		.section	.debug_info,"",@progbits
 327              	.Ldebug_info0:
 328 0000 310B0000 		.long	0xb31
 329 0004 0500     		.value	0x5
 330 0006 01       		.byte	0x1
 331 0007 04       		.byte	0x4
 332 0008 00000000 		.long	.Ldebug_abbrev0
 333 000c 1A       		.uleb128 0x1a
 334 000d AA030000 		.long	.LASF148
 335 0011 1D       		.byte	0x1d
 336 0012 26000000 		.long	.LASF0
 337 0016 00000000 		.long	.LASF1
 338 001a 24000000 		.long	.LLRL5
 339 001e 00000000 		.long	0
 340 0022 00000000 		.long	.Ldebug_line0
 341 0026 1B       		.uleb128 0x1b
 342 0027 04       		.byte	0x4
 343 0028 05       		.byte	0x5
 344 0029 696E7400 		.string	"int"
 345 002d 01       		.uleb128 0x1
 346 002e 1D000000 		.long	.LASF11
 347 0032 05       		.byte	0x5
 348 0033 D1       		.byte	0xd1
 349 0034 17       		.byte	0x17
 350 0035 39000000 		.long	0x39
 351 0039 06       		.uleb128 0x6
 352 003a 04       		.byte	0x4
 353 003b 07       		.byte	0x7
 354 003c 1C020000 		.long	.LASF2
 355 0040 06       		.uleb128 0x6
 356 0041 04       		.byte	0x4
 357 0042 05       		.byte	0x5
 358 0043 6C000000 		.long	.LASF3
 359 0047 06       		.uleb128 0x6
 360 0048 08       		.byte	0x8
 361 0049 05       		.byte	0x5
 362 004a 09010000 		.long	.LASF4
 363 004e 06       		.uleb128 0x6
 364 004f 0C       		.byte	0xc
 365 0050 04       		.byte	0x4
 366 0051 98040000 		.long	.LASF5
 367 0055 06       		.uleb128 0x6
 368 0056 10       		.byte	0x10
 369 0057 04       		.byte	0x4
 370 0058 89000000 		.long	.LASF6
 371 005c 06       		.uleb128 0x6
 372 005d 01       		.byte	0x1
GAS LISTING /tmp/ccZ1yQJk.s 			page 8


 373 005e 08       		.byte	0x8
 374 005f BC050000 		.long	.LASF7
 375 0063 06       		.uleb128 0x6
 376 0064 02       		.byte	0x2
 377 0065 07       		.byte	0x7
 378 0066 5E020000 		.long	.LASF8
 379 006a 06       		.uleb128 0x6
 380 006b 04       		.byte	0x4
 381 006c 07       		.byte	0x7
 382 006d 52060000 		.long	.LASF9
 383 0071 06       		.uleb128 0x6
 384 0072 01       		.byte	0x1
 385 0073 06       		.byte	0x6
 386 0074 17010000 		.long	.LASF10
 387 0078 01       		.uleb128 0x1
 388 0079 3A000000 		.long	.LASF12
 389 007d 06       		.byte	0x6
 390 007e 26       		.byte	0x26
 391 007f 17       		.byte	0x17
 392 0080 5C000000 		.long	0x5c
 393 0084 06       		.uleb128 0x6
 394 0085 02       		.byte	0x2
 395 0086 05       		.byte	0x5
 396 0087 6E030000 		.long	.LASF13
 397 008b 01       		.uleb128 0x1
 398 008c 97060000 		.long	.LASF14
 399 0090 06       		.byte	0x6
 400 0091 29       		.byte	0x29
 401 0092 14       		.byte	0x14
 402 0093 26000000 		.long	0x26
 403 0097 01       		.uleb128 0x1
 404 0098 C5010000 		.long	.LASF15
 405 009c 06       		.byte	0x6
 406 009d 2A       		.byte	0x2a
 407 009e 16       		.byte	0x16
 408 009f 39000000 		.long	0x39
 409 00a3 01       		.uleb128 0x1
 410 00a4 5A050000 		.long	.LASF16
 411 00a8 06       		.byte	0x6
 412 00a9 30       		.byte	0x30
 413 00aa 2E       		.byte	0x2e
 414 00ab AF000000 		.long	0xaf
 415 00af 06       		.uleb128 0x6
 416 00b0 08       		.byte	0x8
 417 00b1 07       		.byte	0x7
 418 00b2 93000000 		.long	.LASF17
 419 00b6 1C       		.uleb128 0x1c
 420 00b7 04       		.byte	0x4
 421 00b8 08       		.uleb128 0x8
 422 00b9 B6000000 		.long	0xb6
 423 00bd 06       		.uleb128 0x6
 424 00be 01       		.byte	0x1
 425 00bf 06       		.byte	0x6
 426 00c0 6B060000 		.long	.LASF18
 427 00c4 08       		.uleb128 0x8
 428 00c5 BD000000 		.long	0xbd
 429 00c9 01       		.uleb128 0x1
GAS LISTING /tmp/ccZ1yQJk.s 			page 9


 430 00ca B4050000 		.long	.LASF19
 431 00ce 07       		.byte	0x7
 432 00cf 1A       		.byte	0x1a
 433 00d0 13       		.byte	0x13
 434 00d1 8B000000 		.long	0x8b
 435 00d5 01       		.uleb128 0x1
 436 00d6 44070000 		.long	.LASF20
 437 00da 08       		.byte	0x8
 438 00db 18       		.byte	0x18
 439 00dc 13       		.byte	0x13
 440 00dd 78000000 		.long	0x78
 441 00e1 01       		.uleb128 0x1
 442 00e2 2F060000 		.long	.LASF21
 443 00e6 08       		.byte	0x8
 444 00e7 1A       		.byte	0x1a
 445 00e8 14       		.byte	0x14
 446 00e9 97000000 		.long	0x97
 447 00ed 01       		.uleb128 0x1
 448 00ee 31000000 		.long	.LASF22
 449 00f2 08       		.byte	0x8
 450 00f3 1B       		.byte	0x1b
 451 00f4 14       		.byte	0x14
 452 00f5 A3000000 		.long	0xa3
 453 00f9 10       		.uleb128 0x10
 454 00fa ED000000 		.long	0xed
 455 00fe 01       		.uleb128 0x1
 456 00ff E9060000 		.long	.LASF23
 457 0103 09       		.byte	0x9
 458 0104 37       		.byte	0x37
 459 0105 1D       		.byte	0x1d
 460 0106 E1000000 		.long	0xe1
 461 010a 01       		.uleb128 0x1
 462 010b 3C030000 		.long	.LASF24
 463 010f 09       		.byte	0x9
 464 0110 38       		.byte	0x38
 465 0111 1D       		.byte	0x1d
 466 0112 D5000000 		.long	0xd5
 467 0116 01       		.uleb128 0x1
 468 0117 6C010000 		.long	.LASF25
 469 011b 09       		.byte	0x9
 470 011c 39       		.byte	0x39
 471 011d 1D       		.byte	0x1d
 472 011e D5000000 		.long	0xd5
 473 0122 01       		.uleb128 0x1
 474 0123 6F050000 		.long	.LASF26
 475 0127 09       		.byte	0x9
 476 0128 3A       		.byte	0x3a
 477 0129 1D       		.byte	0x1d
 478 012a D5000000 		.long	0xd5
 479 012e 01       		.uleb128 0x1
 480 012f 96050000 		.long	.LASF27
 481 0133 09       		.byte	0x9
 482 0134 3C       		.byte	0x3c
 483 0135 1D       		.byte	0x1d
 484 0136 E1000000 		.long	0xe1
 485 013a 01       		.uleb128 0x1
 486 013b 85020000 		.long	.LASF28
GAS LISTING /tmp/ccZ1yQJk.s 			page 10


 487 013f 09       		.byte	0x9
 488 0140 3D       		.byte	0x3d
 489 0141 1D       		.byte	0x1d
 490 0142 C9000000 		.long	0xc9
 491 0146 01       		.uleb128 0x1
 492 0147 62030000 		.long	.LASF29
 493 014b 09       		.byte	0x9
 494 014c 3F       		.byte	0x3f
 495 014d 1D       		.byte	0x1d
 496 014e E1000000 		.long	0xe1
 497 0152 01       		.uleb128 0x1
 498 0153 03020000 		.long	.LASF30
 499 0157 09       		.byte	0x9
 500 0158 41       		.byte	0x41
 501 0159 1D       		.byte	0x1d
 502 015a C9000000 		.long	0xc9
 503 015e 01       		.uleb128 0x1
 504 015f 65050000 		.long	.LASF31
 505 0163 0A       		.byte	0xa
 506 0164 80       		.byte	0x80
 507 0165 12       		.byte	0x12
 508 0166 39000000 		.long	0x39
 509 016a 01       		.uleb128 0x1
 510 016b 77060000 		.long	.LASF32
 511 016f 0A       		.byte	0xa
 512 0170 85       		.byte	0x85
 513 0171 1A       		.byte	0x1a
 514 0172 76010000 		.long	0x176
 515 0176 07       		.uleb128 0x7
 516 0177 7B020000 		.long	.LASF49
 517 017b 50       		.byte	0x50
 518 017c 0B       		.byte	0xb
 519 017d A9       		.byte	0xa9
 520 017e 08       		.byte	0x8
 521 017f 6B020000 		.long	0x26b
 522 0183 09       		.uleb128 0x9
 523 0184 68647200 		.string	"hdr"
 524 0188 0B       		.byte	0xb
 525 0189 BA       		.byte	0xba
 526 018a 05       		.byte	0x5
 527 018b BF050000 		.long	0x5bf
 528 018f 00       		.byte	0
 529 0190 09       		.uleb128 0x9
 530 0191 63747800 		.string	"ctx"
 531 0195 0B       		.byte	0xb
 532 0196 BE       		.byte	0xbe
 533 0197 21       		.byte	0x21
 534 0198 F7040000 		.long	0x4f7
 535 019c 0C       		.byte	0xc
 536 019d 02       		.uleb128 0x2
 537 019e 3F060000 		.long	.LASF33
 538 01a2 0B       		.byte	0xb
 539 01a3 C2       		.byte	0xc2
 540 01a4 22       		.byte	0x22
 541 01a5 BE060000 		.long	0x6be
 542 01a9 10       		.byte	0x10
 543 01aa 02       		.uleb128 0x2
GAS LISTING /tmp/ccZ1yQJk.s 			page 11


 544 01ab 64060000 		.long	.LASF34
 545 01af 0B       		.byte	0xb
 546 01b0 C8       		.byte	0xc8
 547 01b1 22       		.byte	0x22
 548 01b2 C3060000 		.long	0x6c3
 549 01b6 14       		.byte	0x14
 550 01b7 02       		.uleb128 0x2
 551 01b8 D0010000 		.long	.LASF35
 552 01bc 0B       		.byte	0xb
 553 01bd CD       		.byte	0xcd
 554 01be 21       		.byte	0x21
 555 01bf C3060000 		.long	0x6c3
 556 01c3 18       		.byte	0x18
 557 01c4 02       		.uleb128 0x2
 558 01c5 5C010000 		.long	.LASF36
 559 01c9 0B       		.byte	0xb
 560 01ca D1       		.byte	0xd1
 561 01cb 21       		.byte	0x21
 562 01cc 16010000 		.long	0x116
 563 01d0 1C       		.byte	0x1c
 564 01d1 02       		.uleb128 0x2
 565 01d2 4C070000 		.long	.LASF37
 566 01d6 0B       		.byte	0xb
 567 01d7 D5       		.byte	0xd5
 568 01d8 21       		.byte	0x21
 569 01d9 0A010000 		.long	0x10a
 570 01dd 1D       		.byte	0x1d
 571 01de 02       		.uleb128 0x2
 572 01df F9000000 		.long	.LASF38
 573 01e3 0B       		.byte	0xb
 574 01e4 DA       		.byte	0xda
 575 01e5 21       		.byte	0x21
 576 01e6 22010000 		.long	0x122
 577 01ea 1E       		.byte	0x1e
 578 01eb 02       		.uleb128 0x2
 579 01ec 48020000 		.long	.LASF39
 580 01f0 0B       		.byte	0xb
 581 01f1 DE       		.byte	0xde
 582 01f2 22       		.byte	0x22
 583 01f3 47030000 		.long	0x347
 584 01f7 20       		.byte	0x20
 585 01f8 02       		.uleb128 0x2
 586 01f9 36020000 		.long	.LASF40
 587 01fd 0B       		.byte	0xb
 588 01fe E2       		.byte	0xe2
 589 01ff 21       		.byte	0x21
 590 0200 A6030000 		.long	0x3a6
 591 0204 24       		.byte	0x24
 592 0205 02       		.uleb128 0x2
 593 0206 AA000000 		.long	.LASF41
 594 020a 0B       		.byte	0xb
 595 020b E8       		.byte	0xe8
 596 020c 21       		.byte	0x21
 597 020d A3050000 		.long	0x5a3
 598 0211 2C       		.byte	0x2c
 599 0212 02       		.uleb128 0x2
 600 0213 E9000000 		.long	.LASF42
GAS LISTING /tmp/ccZ1yQJk.s 			page 12


 601 0217 0B       		.byte	0xb
 602 0218 EE       		.byte	0xee
 603 0219 22       		.byte	0x22
 604 021a B6000000 		.long	0xb6
 605 021e 30       		.byte	0x30
 606 021f 15       		.uleb128 0x15
 607 0220 7500     		.string	"u"
 608 0222 3F01     		.value	0x13f
 609 0224 E7050000 		.long	0x5e7
 610 0228 34       		.byte	0x34
 611 0229 03       		.uleb128 0x3
 612 022a D6010000 		.long	.LASF43
 613 022e 4401     		.value	0x144
 614 0230 21       		.byte	0x21
 615 0231 7A030000 		.long	0x37a
 616 0235 38       		.byte	0x38
 617 0236 03       		.uleb128 0x3
 618 0237 53010000 		.long	.LASF44
 619 023b 4A01     		.value	0x14a
 620 023d 21       		.byte	0x21
 621 023e A6030000 		.long	0x3a6
 622 0242 3C       		.byte	0x3c
 623 0243 03       		.uleb128 0x3
 624 0244 B5020000 		.long	.LASF45
 625 0248 5001     		.value	0x150
 626 024a 21       		.byte	0x21
 627 024b 46010000 		.long	0x146
 628 024f 44       		.byte	0x44
 629 0250 03       		.uleb128 0x3
 630 0251 74070000 		.long	.LASF46
 631 0255 5701     		.value	0x157
 632 0257 22       		.byte	0x22
 633 0258 B9060000 		.long	0x6b9
 634 025c 48       		.byte	0x48
 635 025d 03       		.uleb128 0x3
 636 025e A1030000 		.long	.LASF47
 637 0262 5B01     		.value	0x15b
 638 0264 21       		.byte	0x21
 639 0265 2E010000 		.long	0x12e
 640 0269 4C       		.byte	0x4c
 641 026a 00       		.byte	0
 642 026b 01       		.uleb128 0x1
 643 026c C1060000 		.long	.LASF48
 644 0270 0A       		.byte	0xa
 645 0271 8A       		.byte	0x8a
 646 0272 1F       		.byte	0x1f
 647 0273 77020000 		.long	0x277
 648 0277 11       		.uleb128 0x11
 649 0278 B2060000 		.long	.LASF50
 650 027c E0       		.byte	0xe0
 651 027d 9701     		.value	0x197
 652 027f 08       		.byte	0x8
 653 0280 F9020000 		.long	0x2f9
 654 0284 03       		.uleb128 0x3
 655 0285 3E070000 		.long	.LASF51
 656 0289 9B01     		.value	0x19b
 657 028b 21       		.byte	0x21
GAS LISTING /tmp/ccZ1yQJk.s 			page 13


 658 028c F0060000 		.long	0x6f0
 659 0290 00       		.byte	0
 660 0291 03       		.uleb128 0x3
 661 0292 40010000 		.long	.LASF52
 662 0296 9F01     		.value	0x19f
 663 0298 21       		.byte	0x21
 664 0299 5F050000 		.long	0x55f
 665 029d 10       		.byte	0x10
 666 029e 03       		.uleb128 0x3
 667 029f CF060000 		.long	.LASF53
 668 02a3 A601     		.value	0x1a6
 669 02a5 21       		.byte	0x21
 670 02a6 86050000 		.long	0x586
 671 02aa 28       		.byte	0x28
 672 02ab 03       		.uleb128 0x3
 673 02ac 64000000 		.long	.LASF54
 674 02b0 AB01     		.value	0x1ab
 675 02b2 21       		.byte	0x21
 676 02b3 5E010000 		.long	0x15e
 677 02b7 30       		.byte	0x30
 678 02b8 03       		.uleb128 0x3
 679 02b9 18000000 		.long	.LASF55
 680 02bd B101     		.value	0x1b1
 681 02bf 21       		.byte	0x21
 682 02c0 20030000 		.long	0x320
 683 02c4 34       		.byte	0x34
 684 02c5 03       		.uleb128 0x3
 685 02c6 70060000 		.long	.LASF56
 686 02ca B601     		.value	0x1b6
 687 02cc 22       		.byte	0x22
 688 02cd 5A070000 		.long	0x75a
 689 02d1 38       		.byte	0x38
 690 02d2 03       		.uleb128 0x3
 691 02d3 82070000 		.long	.LASF57
 692 02d7 BA01     		.value	0x1ba
 693 02d9 21       		.byte	0x21
 694 02da 6A010000 		.long	0x16a
 695 02de 3C       		.byte	0x3c
 696 02df 03       		.uleb128 0x3
 697 02e0 BB000000 		.long	.LASF58
 698 02e4 BF01     		.value	0x1bf
 699 02e6 21       		.byte	0x21
 700 02e7 6A010000 		.long	0x16a
 701 02eb 8C       		.byte	0x8c
 702 02ec 15       		.uleb128 0x15
 703 02ed 64626700 		.string	"dbg"
 704 02f1 C401     		.value	0x1c4
 705 02f3 51030000 		.long	0x351
 706 02f7 DC       		.byte	0xdc
 707 02f8 00       		.byte	0
 708 02f9 01       		.uleb128 0x1
 709 02fa 62040000 		.long	.LASF59
 710 02fe 0C       		.byte	0xc
 711 02ff 3F       		.byte	0x3f
 712 0300 12       		.byte	0x12
 713 0301 E1000000 		.long	0xe1
 714 0305 07       		.uleb128 0x7
GAS LISTING /tmp/ccZ1yQJk.s 			page 14


 715 0306 75010000 		.long	.LASF60
 716 030a 04       		.byte	0x4
 717 030b 0C       		.byte	0xc
 718 030c 44       		.byte	0x44
 719 030d 10       		.byte	0x10
 720 030e 20030000 		.long	0x320
 721 0312 02       		.uleb128 0x2
 722 0313 39070000 		.long	.LASF61
 723 0317 0C       		.byte	0xc
 724 0318 48       		.byte	0x48
 725 0319 21       		.byte	0x21
 726 031a F9020000 		.long	0x2f9
 727 031e 00       		.byte	0
 728 031f 00       		.byte	0
 729 0320 01       		.uleb128 0x1
 730 0321 D9050000 		.long	.LASF62
 731 0325 0C       		.byte	0xc
 732 0326 49       		.byte	0x49
 733 0327 03       		.byte	0x3
 734 0328 05030000 		.long	0x305
 735 032c 07       		.uleb128 0x7
 736 032d 9E050000 		.long	.LASF63
 737 0331 04       		.byte	0x4
 738 0332 0D       		.byte	0xd
 739 0333 3E       		.byte	0x3e
 740 0334 10       		.byte	0x10
 741 0335 47030000 		.long	0x347
 742 0339 02       		.uleb128 0x2
 743 033a A1060000 		.long	.LASF64
 744 033e 0D       		.byte	0xd
 745 033f 46       		.byte	0x46
 746 0340 24       		.byte	0x24
 747 0341 4C030000 		.long	0x34c
 748 0345 00       		.byte	0
 749 0346 00       		.byte	0
 750 0347 04       		.uleb128 0x4
 751 0348 C4000000 		.long	0xc4
 752 034c 10       		.uleb128 0x10
 753 034d 47030000 		.long	0x347
 754 0351 01       		.uleb128 0x1
 755 0352 55000000 		.long	.LASF65
 756 0356 0D       		.byte	0xd
 757 0357 51       		.byte	0x51
 758 0358 03       		.byte	0x3
 759 0359 2C030000 		.long	0x32c
 760 035d 01       		.uleb128 0x1
 761 035e 86060000 		.long	.LASF66
 762 0362 0E       		.byte	0xe
 763 0363 6D       		.byte	0x6d
 764 0364 12       		.byte	0x12
 765 0365 E1000000 		.long	0xe1
 766 0369 10       		.uleb128 0x10
 767 036a 5D030000 		.long	0x35d
 768 036e 01       		.uleb128 0x1
 769 036f F5010000 		.long	.LASF67
 770 0373 0E       		.byte	0xe
 771 0374 79       		.byte	0x79
GAS LISTING /tmp/ccZ1yQJk.s 			page 15


 772 0375 12       		.byte	0x12
 773 0376 E1000000 		.long	0xe1
 774 037a 01       		.uleb128 0x1
 775 037b 71020000 		.long	.LASF68
 776 037f 0F       		.byte	0xf
 777 0380 32       		.byte	0x32
 778 0381 18       		.byte	0x18
 779 0382 86030000 		.long	0x386
 780 0386 07       		.uleb128 0x7
 781 0387 4C030000 		.long	.LASF69
 782 038b 04       		.byte	0x4
 783 038c 0F       		.byte	0xf
 784 038d 38       		.byte	0x38
 785 038e 08       		.byte	0x8
 786 038f A1030000 		.long	0x3a1
 787 0393 02       		.uleb128 0x2
 788 0394 E4000000 		.long	.LASF70
 789 0398 0F       		.byte	0xf
 790 0399 39       		.byte	0x39
 791 039a 1A       		.byte	0x1a
 792 039b A1030000 		.long	0x3a1
 793 039f 00       		.byte	0
 794 03a0 00       		.byte	0
 795 03a1 04       		.uleb128 0x4
 796 03a2 7A030000 		.long	0x37a
 797 03a6 01       		.uleb128 0x1
 798 03a7 3D020000 		.long	.LASF71
 799 03ab 0F       		.byte	0xf
 800 03ac 3F       		.byte	0x3f
 801 03ad 19       		.byte	0x19
 802 03ae B2030000 		.long	0x3b2
 803 03b2 07       		.uleb128 0x7
 804 03b3 7D010000 		.long	.LASF72
 805 03b7 08       		.byte	0x8
 806 03b8 0F       		.byte	0xf
 807 03b9 45       		.byte	0x45
 808 03ba 08       		.byte	0x8
 809 03bb DA030000 		.long	0x3da
 810 03bf 02       		.uleb128 0x2
 811 03c0 E4000000 		.long	.LASF70
 812 03c4 0F       		.byte	0xf
 813 03c5 46       		.byte	0x46
 814 03c6 1A       		.byte	0x1a
 815 03c7 DA030000 		.long	0x3da
 816 03cb 00       		.byte	0
 817 03cc 02       		.uleb128 0x2
 818 03cd 44000000 		.long	.LASF73
 819 03d1 0F       		.byte	0xf
 820 03d2 47       		.byte	0x47
 821 03d3 1A       		.byte	0x1a
 822 03d4 DA030000 		.long	0x3da
 823 03d8 04       		.byte	0x4
 824 03d9 00       		.byte	0
 825 03da 04       		.uleb128 0x4
 826 03db A6030000 		.long	0x3a6
 827 03df 01       		.uleb128 0x1
 828 03e0 75000000 		.long	.LASF74
GAS LISTING /tmp/ccZ1yQJk.s 			page 16


 829 03e4 0F       		.byte	0xf
 830 03e5 4E       		.byte	0x4e
 831 03e6 22       		.byte	0x22
 832 03e7 EB030000 		.long	0x3eb
 833 03eb 07       		.uleb128 0x7
 834 03ec D7060000 		.long	.LASF75
 835 03f0 0C       		.byte	0xc
 836 03f1 0F       		.byte	0xf
 837 03f2 55       		.byte	0x55
 838 03f3 08       		.byte	0x8
 839 03f4 20040000 		.long	0x420
 840 03f8 02       		.uleb128 0x2
 841 03f9 E4000000 		.long	.LASF70
 842 03fd 0F       		.byte	0xf
 843 03fe 56       		.byte	0x56
 844 03ff 1A       		.byte	0x1a
 845 0400 20040000 		.long	0x420
 846 0404 00       		.byte	0
 847 0405 02       		.uleb128 0x2
 848 0406 44000000 		.long	.LASF73
 849 040a 0F       		.byte	0xf
 850 040b 57       		.byte	0x57
 851 040c 1A       		.byte	0x1a
 852 040d 20040000 		.long	0x420
 853 0411 04       		.byte	0x4
 854 0412 02       		.uleb128 0x2
 855 0413 3F050000 		.long	.LASF76
 856 0417 0F       		.byte	0xf
 857 0418 58       		.byte	0x58
 858 0419 19       		.byte	0x19
 859 041a 2E010000 		.long	0x12e
 860 041e 08       		.byte	0x8
 861 041f 00       		.byte	0
 862 0420 04       		.uleb128 0x4
 863 0421 DF030000 		.long	0x3df
 864 0425 01       		.uleb128 0x1
 865 0426 8C010000 		.long	.LASF77
 866 042a 0F       		.byte	0xf
 867 042b 5F       		.byte	0x5f
 868 042c 1E       		.byte	0x1e
 869 042d 31040000 		.long	0x431
 870 0431 07       		.uleb128 0x7
 871 0432 32010000 		.long	.LASF78
 872 0436 0C       		.byte	0xc
 873 0437 0F       		.byte	0xf
 874 0438 64       		.byte	0x64
 875 0439 08       		.byte	0x8
 876 043a 66040000 		.long	0x466
 877 043e 02       		.uleb128 0x2
 878 043f E4000000 		.long	.LASF70
 879 0443 0F       		.byte	0xf
 880 0444 65       		.byte	0x65
 881 0445 1A       		.byte	0x1a
 882 0446 66040000 		.long	0x466
 883 044a 00       		.byte	0
 884 044b 02       		.uleb128 0x2
 885 044c 44000000 		.long	.LASF73
GAS LISTING /tmp/ccZ1yQJk.s 			page 17


 886 0450 0F       		.byte	0xf
 887 0451 66       		.byte	0x66
 888 0452 1A       		.byte	0x1a
 889 0453 66040000 		.long	0x466
 890 0457 04       		.byte	0x4
 891 0458 02       		.uleb128 0x2
 892 0459 24000000 		.long	.LASF79
 893 045d 0F       		.byte	0xf
 894 045e 67       		.byte	0x67
 895 045f 19       		.byte	0x19
 896 0460 6E030000 		.long	0x36e
 897 0464 08       		.byte	0x8
 898 0465 00       		.byte	0
 899 0466 04       		.uleb128 0x4
 900 0467 25040000 		.long	0x425
 901 046b 0D       		.uleb128 0xd
 902 046c 10       		.byte	0x10
 903 046d 03       		.byte	0x3
 904 046e 87       		.byte	0x87
 905 046f 7F040000 		.long	0x47f
 906 0473 09       		.uleb128 0x9
 907 0474 6100     		.string	"a"
 908 0476 03       		.byte	0x3
 909 0477 88       		.byte	0x88
 910 0478 0B       		.byte	0xb
 911 0479 7F040000 		.long	0x47f
 912 047d 00       		.byte	0
 913 047e 00       		.byte	0
 914 047f 0B       		.uleb128 0xb
 915 0480 D5000000 		.long	0xd5
 916 0484 8F040000 		.long	0x48f
 917 0488 0C       		.uleb128 0xc
 918 0489 39000000 		.long	0x39
 919 048d 0F       		.byte	0xf
 920 048e 00       		.byte	0
 921 048f 1D       		.uleb128 0x1d
 922 0490 62010000 		.long	.LASF149
 923 0494 03       		.byte	0x3
 924 0495 89       		.byte	0x89
 925 0496 03       		.byte	0x3
 926 0497 6B040000 		.long	0x46b
 927 049b 10       		.byte	0x10
 928 049c 01       		.uleb128 0x1
 929 049d 90060000 		.long	.LASF80
 930 04a1 03       		.byte	0x3
 931 04a2 8E       		.byte	0x8e
 932 04a3 0F       		.byte	0xf
 933 04a4 B6000000 		.long	0xb6
 934 04a8 07       		.uleb128 0x7
 935 04a9 49000000 		.long	.LASF81
 936 04ad 14       		.byte	0x14
 937 04ae 03       		.byte	0x3
 938 04af 9D       		.byte	0x9d
 939 04b0 08       		.byte	0x8
 940 04b1 F7040000 		.long	0x4f7
 941 04b5 09       		.uleb128 0x9
 942 04b6 65627800 		.string	"ebx"
GAS LISTING /tmp/ccZ1yQJk.s 			page 18


 943 04ba 03       		.byte	0x3
 944 04bb 9E       		.byte	0x9e
 945 04bc 0B       		.byte	0xb
 946 04bd 9C040000 		.long	0x49c
 947 04c1 00       		.byte	0
 948 04c2 09       		.uleb128 0x9
 949 04c3 65646900 		.string	"edi"
 950 04c7 03       		.byte	0x3
 951 04c8 9F       		.byte	0x9f
 952 04c9 0B       		.byte	0xb
 953 04ca 9C040000 		.long	0x49c
 954 04ce 04       		.byte	0x4
 955 04cf 09       		.uleb128 0x9
 956 04d0 65736900 		.string	"esi"
 957 04d4 03       		.byte	0x3
 958 04d5 A0       		.byte	0xa0
 959 04d6 0B       		.byte	0xb
 960 04d7 9C040000 		.long	0x49c
 961 04db 08       		.byte	0x8
 962 04dc 09       		.uleb128 0x9
 963 04dd 65627000 		.string	"ebp"
 964 04e1 03       		.byte	0x3
 965 04e2 A1       		.byte	0xa1
 966 04e3 0B       		.byte	0xb
 967 04e4 9C040000 		.long	0x49c
 968 04e8 0C       		.byte	0xc
 969 04e9 09       		.uleb128 0x9
 970 04ea 65697000 		.string	"eip"
 971 04ee 03       		.byte	0x3
 972 04ef A2       		.byte	0xa2
 973 04f0 0B       		.byte	0xb
 974 04f1 9C040000 		.long	0x49c
 975 04f5 10       		.byte	0x10
 976 04f6 00       		.byte	0
 977 04f7 07       		.uleb128 0x7
 978 04f8 0E050000 		.long	.LASF82
 979 04fc 04       		.byte	0x4
 980 04fd 03       		.byte	0x3
 981 04fe AA       		.byte	0xaa
 982 04ff 08       		.byte	0x8
 983 0500 11050000 		.long	0x511
 984 0504 09       		.uleb128 0x9
 985 0505 737000   		.string	"sp"
 986 0508 03       		.byte	0x3
 987 0509 AB       		.byte	0xab
 988 050a 17       		.byte	0x17
 989 050b 11050000 		.long	0x511
 990 050f 00       		.byte	0
 991 0510 00       		.byte	0
 992 0511 04       		.uleb128 0x4
 993 0512 A8040000 		.long	0x4a8
 994 0516 06       		.uleb128 0x6
 995 0517 01       		.byte	0x1
 996 0518 02       		.byte	0x2
 997 0519 AE050000 		.long	.LASF83
 998 051d 1E       		.uleb128 0x1e
 999 051e 45060000 		.long	.LASF115
GAS LISTING /tmp/ccZ1yQJk.s 			page 19


 1000 0522 03       		.byte	0x3
 1001 0523 1C01     		.value	0x11c
 1002 0525 11       		.byte	0x11
 1003 0526 FE000000 		.long	0xfe
 1004 052a 07       		.uleb128 0x7
 1005 052b 81040000 		.long	.LASF84
 1006 052f 18       		.byte	0x18
 1007 0530 0B       		.byte	0xb
 1008 0531 64       		.byte	0x64
 1009 0532 10       		.byte	0x10
 1010 0533 5F050000 		.long	0x55f
 1011 0537 02       		.uleb128 0x2
 1012 0538 80060000 		.long	.LASF85
 1013 053c 0B       		.byte	0xb
 1014 053d 68       		.byte	0x68
 1015 053e 21       		.byte	0x21
 1016 053f 25040000 		.long	0x425
 1017 0543 00       		.byte	0
 1018 0544 02       		.uleb128 0x2
 1019 0545 44030000 		.long	.LASF86
 1020 0549 0B       		.byte	0xb
 1021 054a 6D       		.byte	0x6d
 1022 054b 21       		.byte	0x21
 1023 054c 69030000 		.long	0x369
 1024 0550 0C       		.byte	0xc
 1025 0551 02       		.uleb128 0x2
 1026 0552 97030000 		.long	.LASF87
 1027 0556 0B       		.byte	0xb
 1028 0557 81       		.byte	0x81
 1029 0558 21       		.byte	0x21
 1030 0559 F9000000 		.long	0xf9
 1031 055d 10       		.byte	0x10
 1032 055e 00       		.byte	0
 1033 055f 01       		.uleb128 0x1
 1034 0560 CE000000 		.long	.LASF88
 1035 0564 0B       		.byte	0xb
 1036 0565 83       		.byte	0x83
 1037 0566 03       		.byte	0x3
 1038 0567 2A050000 		.long	0x52a
 1039 056b 07       		.uleb128 0x7
 1040 056c 9C010000 		.long	.LASF89
 1041 0570 08       		.byte	0x8
 1042 0571 0B       		.byte	0xb
 1043 0572 88       		.byte	0x88
 1044 0573 10       		.byte	0x10
 1045 0574 86050000 		.long	0x586
 1046 0578 02       		.uleb128 0x2
 1047 0579 86010000 		.long	.LASF90
 1048 057d 0B       		.byte	0xb
 1049 057e 8C       		.byte	0x8c
 1050 057f 21       		.byte	0x21
 1051 0580 A6030000 		.long	0x3a6
 1052 0584 00       		.byte	0
 1053 0585 00       		.byte	0
 1054 0586 01       		.uleb128 0x1
 1055 0587 24060000 		.long	.LASF91
 1056 058b 0B       		.byte	0xb
GAS LISTING /tmp/ccZ1yQJk.s 			page 20


 1057 058c 8D       		.byte	0x8d
 1058 058d 03       		.byte	0x3
 1059 058e 6B050000 		.long	0x56b
 1060 0592 01       		.uleb128 0x1
 1061 0593 6E040000 		.long	.LASF92
 1062 0597 0B       		.byte	0xb
 1063 0598 92       		.byte	0x92
 1064 0599 14       		.byte	0x14
 1065 059a 9E050000 		.long	0x59e
 1066 059e 04       		.uleb128 0x4
 1067 059f 6A010000 		.long	0x16a
 1068 05a3 01       		.uleb128 0x1
 1069 05a4 4D020000 		.long	.LASF93
 1070 05a8 0B       		.byte	0xb
 1071 05a9 A1       		.byte	0xa1
 1072 05aa 10       		.byte	0x10
 1073 05ab AF050000 		.long	0x5af
 1074 05af 04       		.uleb128 0x4
 1075 05b0 B4050000 		.long	0x5b4
 1076 05b4 1F       		.uleb128 0x1f
 1077 05b5 BF050000 		.long	0x5bf
 1078 05b9 0E       		.uleb128 0xe
 1079 05ba 9E050000 		.long	0x59e
 1080 05be 00       		.byte	0
 1081 05bf 20       		.uleb128 0x20
 1082 05c0 0C       		.byte	0xc
 1083 05c1 0B       		.byte	0xb
 1084 05c2 AD       		.byte	0xad
 1085 05c3 03       		.byte	0x3
 1086 05c4 E7050000 		.long	0x5e7
 1087 05c8 12       		.uleb128 0x12
 1088 05c9 65070000 		.long	.LASF94
 1089 05cd B1       		.byte	0xb1
 1090 05ce 7A030000 		.long	0x37a
 1091 05d2 12       		.uleb128 0x12
 1092 05d3 86010000 		.long	.LASF90
 1093 05d7 B5       		.byte	0xb5
 1094 05d8 A6030000 		.long	0x3a6
 1095 05dc 12       		.uleb128 0x12
 1096 05dd AB060000 		.long	.LASF95
 1097 05e1 B9       		.byte	0xb9
 1098 05e2 DF030000 		.long	0x3df
 1099 05e6 00       		.byte	0
 1100 05e7 21       		.uleb128 0x21
 1101 05e8 04       		.byte	0x4
 1102 05e9 0B       		.byte	0xb
 1103 05ea 0201     		.value	0x102
 1104 05ec 03       		.byte	0x3
 1105 05ed 52060000 		.long	0x652
 1106 05f1 0A       		.uleb128 0xa
 1107 05f2 2A000000 		.long	.LASF96
 1108 05f6 0901     		.value	0x109
 1109 05f8 21       		.byte	0x21
 1110 05f9 3A010000 		.long	0x13a
 1111 05fd 0A       		.uleb128 0xa
 1112 05fe B2000000 		.long	.LASF97
 1113 0602 1001     		.value	0x110
GAS LISTING /tmp/ccZ1yQJk.s 			page 21


 1114 0604 21       		.byte	0x21
 1115 0605 3A010000 		.long	0x13a
 1116 0609 0A       		.uleb128 0xa
 1117 060a 52070000 		.long	.LASF98
 1118 060e 1701     		.value	0x117
 1119 0610 22       		.byte	0x22
 1120 0611 B6000000 		.long	0xb6
 1121 0615 0A       		.uleb128 0xa
 1122 0616 30020000 		.long	.LASF99
 1123 061a 1E01     		.value	0x11e
 1124 061c 22       		.byte	0x22
 1125 061d 52060000 		.long	0x652
 1126 0621 0A       		.uleb128 0xa
 1127 0622 C6000000 		.long	.LASF100
 1128 0626 2301     		.value	0x123
 1129 0628 21       		.byte	0x21
 1130 0629 3A010000 		.long	0x13a
 1131 062d 0A       		.uleb128 0xa
 1132 062e 29020000 		.long	.LASF101
 1133 0632 2C01     		.value	0x12c
 1134 0634 22       		.byte	0x22
 1135 0635 7F060000 		.long	0x67f
 1136 0639 0A       		.uleb128 0xa
 1137 063a 38060000 		.long	.LASF102
 1138 063e 3501     		.value	0x135
 1139 0640 22       		.byte	0x22
 1140 0641 B9060000 		.long	0x6b9
 1141 0645 0A       		.uleb128 0xa
 1142 0646 E8050000 		.long	.LASF103
 1143 064a 3D01     		.value	0x13d
 1144 064c 21       		.byte	0x21
 1145 064d 46010000 		.long	0x146
 1146 0651 00       		.byte	0
 1147 0652 04       		.uleb128 0x4
 1148 0653 92050000 		.long	0x592
 1149 0657 07       		.uleb128 0x7
 1150 0658 17060000 		.long	.LASF104
 1151 065c 0C       		.byte	0xc
 1152 065d 10       		.byte	0x10
 1153 065e 34       		.byte	0x34
 1154 065f 10       		.byte	0x10
 1155 0660 7F060000 		.long	0x67f
 1156 0664 02       		.uleb128 0x2
 1157 0665 86010000 		.long	.LASF90
 1158 0669 10       		.byte	0x10
 1159 066a 35       		.byte	0x35
 1160 066b 19       		.byte	0x19
 1161 066c A6030000 		.long	0x3a6
 1162 0670 00       		.byte	0
 1163 0671 09       		.uleb128 0x9
 1164 0672 636E7400 		.string	"cnt"
 1165 0676 10       		.byte	0x10
 1166 0677 37       		.byte	0x37
 1167 0678 19       		.byte	0x19
 1168 0679 52010000 		.long	0x152
 1169 067d 08       		.byte	0x8
 1170 067e 00       		.byte	0
GAS LISTING /tmp/ccZ1yQJk.s 			page 22


 1171 067f 04       		.uleb128 0x4
 1172 0680 57060000 		.long	0x657
 1173 0684 07       		.uleb128 0x7
 1174 0685 30070000 		.long	.LASF105
 1175 0689 10       		.byte	0x10
 1176 068a 11       		.byte	0x11
 1177 068b 39       		.byte	0x39
 1178 068c 08       		.byte	0x8
 1179 068d B9060000 		.long	0x6b9
 1180 0691 02       		.uleb128 0x2
 1181 0692 86010000 		.long	.LASF90
 1182 0696 11       		.byte	0x11
 1183 0697 3A       		.byte	0x3a
 1184 0698 19       		.byte	0x19
 1185 0699 A6030000 		.long	0x3a6
 1186 069d 00       		.byte	0
 1187 069e 02       		.uleb128 0x2
 1188 069f 3F060000 		.long	.LASF33
 1189 06a3 11       		.byte	0x11
 1190 06a4 3C       		.byte	0x3c
 1191 06a5 1A       		.byte	0x1a
 1192 06a6 9E050000 		.long	0x59e
 1193 06aa 08       		.byte	0x8
 1194 06ab 02       		.uleb128 0x2
 1195 06ac E4000000 		.long	.LASF70
 1196 06b0 11       		.byte	0x11
 1197 06b1 3E       		.byte	0x3e
 1198 06b2 1A       		.byte	0x1a
 1199 06b3 78070000 		.long	0x778
 1200 06b7 0C       		.byte	0xc
 1201 06b8 00       		.byte	0
 1202 06b9 04       		.uleb128 0x4
 1203 06ba 84060000 		.long	0x684
 1204 06be 04       		.uleb128 0x4
 1205 06bf 6B020000 		.long	0x26b
 1206 06c3 04       		.uleb128 0x4
 1207 06c4 8F040000 		.long	0x48f
 1208 06c8 11       		.uleb128 0x11
 1209 06c9 54030000 		.long	.LASF106
 1210 06cd 10       		.byte	0x10
 1211 06ce 6C01     		.value	0x16c
 1212 06d0 10       		.byte	0x10
 1213 06d1 F0060000 		.long	0x6f0
 1214 06d5 03       		.uleb128 0x3
 1215 06d6 AB060000 		.long	.LASF95
 1216 06da 7101     		.value	0x171
 1217 06dc 21       		.byte	0x21
 1218 06dd DF030000 		.long	0x3df
 1219 06e1 00       		.byte	0
 1220 06e2 03       		.uleb128 0x3
 1221 06e3 52050000 		.long	.LASF107
 1222 06e7 7501     		.value	0x175
 1223 06e9 22       		.byte	0x22
 1224 06ea 9E050000 		.long	0x59e
 1225 06ee 0C       		.byte	0xc
 1226 06ef 00       		.byte	0
 1227 06f0 16       		.uleb128 0x16
GAS LISTING /tmp/ccZ1yQJk.s 			page 23


 1228 06f1 0B000000 		.long	.LASF108
 1229 06f5 7601     		.value	0x176
 1230 06f7 C8060000 		.long	0x6c8
 1231 06fb 11       		.uleb128 0x11
 1232 06fc F8040000 		.long	.LASF109
 1233 0700 14       		.byte	0x14
 1234 0701 7B01     		.value	0x17b
 1235 0703 10       		.byte	0x10
 1236 0704 4A070000 		.long	0x74a
 1237 0708 03       		.uleb128 0x3
 1238 0709 48020000 		.long	.LASF39
 1239 070d 7F01     		.value	0x17f
 1240 070f 22       		.byte	0x22
 1241 0710 47030000 		.long	0x347
 1242 0714 00       		.byte	0
 1243 0715 03       		.uleb128 0x3
 1244 0716 B0040000 		.long	.LASF110
 1245 071a 8301     		.value	0x183
 1246 071c 22       		.byte	0x22
 1247 071d C3060000 		.long	0x6c3
 1248 0721 04       		.byte	0x4
 1249 0722 03       		.uleb128 0x3
 1250 0723 FE000000 		.long	.LASF111
 1251 0727 8701     		.value	0x187
 1252 0729 22       		.byte	0x22
 1253 072a C3060000 		.long	0x6c3
 1254 072e 08       		.byte	0x8
 1255 072f 03       		.uleb128 0x3
 1256 0730 DE010000 		.long	.LASF112
 1257 0734 8C01     		.value	0x18c
 1258 0736 22       		.byte	0x22
 1259 0737 C3060000 		.long	0x6c3
 1260 073b 0C       		.byte	0xc
 1261 073c 03       		.uleb128 0x3
 1262 073d 44050000 		.long	.LASF113
 1263 0741 9001     		.value	0x190
 1264 0743 22       		.byte	0x22
 1265 0744 C3060000 		.long	0x6c3
 1266 0748 10       		.byte	0x10
 1267 0749 00       		.byte	0
 1268 074a 16       		.uleb128 0x16
 1269 074b 1B070000 		.long	.LASF114
 1270 074f 9201     		.value	0x192
 1271 0751 FB060000 		.long	0x6fb
 1272 0755 08       		.uleb128 0x8
 1273 0756 4A070000 		.long	0x74a
 1274 075a 04       		.uleb128 0x4
 1275 075b 55070000 		.long	0x755
 1276 075f 22       		.uleb128 0x22
 1277 0760 63683000 		.string	"ch0"
 1278 0764 04       		.byte	0x4
 1279 0765 4101     		.value	0x141
 1280 0767 16       		.byte	0x16
 1281 0768 6B020000 		.long	0x26b
 1282 076c 01       		.uleb128 0x1
 1283 076d ED010000 		.long	.LASF116
 1284 0771 11       		.byte	0x11
GAS LISTING /tmp/ccZ1yQJk.s 			page 24


 1285 0772 34       		.byte	0x34
 1286 0773 19       		.byte	0x19
 1287 0774 84060000 		.long	0x684
 1288 0778 04       		.uleb128 0x4
 1289 0779 6C070000 		.long	0x76c
 1290 077d 0D       		.uleb128 0xd
 1291 077e 10       		.byte	0x10
 1292 077f 12       		.byte	0x12
 1293 0780 AA       		.byte	0xaa
 1294 0781 BA070000 		.long	0x7ba
 1295 0785 02       		.uleb128 0x2
 1296 0786 48020000 		.long	.LASF39
 1297 078a 12       		.byte	0x12
 1298 078b AB       		.byte	0xab
 1299 078c 0F       		.byte	0xf
 1300 078d 47030000 		.long	0x347
 1301 0791 00       		.byte	0
 1302 0792 02       		.uleb128 0x2
 1303 0793 27050000 		.long	.LASF117
 1304 0797 12       		.byte	0x12
 1305 0798 AC       		.byte	0xac
 1306 0799 0A       		.byte	0xa
 1307 079a BB070000 		.long	0x7bb
 1308 079e 04       		.byte	0x4
 1309 079f 02       		.uleb128 0x2
 1310 07a0 F0000000 		.long	.LASF118
 1311 07a4 12       		.byte	0x12
 1312 07a5 AD       		.byte	0xad
 1313 07a6 0A       		.byte	0xa
 1314 07a7 BB070000 		.long	0x7bb
 1315 07ab 08       		.byte	0x8
 1316 07ac 02       		.uleb128 0x2
 1317 07ad 8E050000 		.long	.LASF119
 1318 07b1 12       		.byte	0x12
 1319 07b2 AE       		.byte	0xae
 1320 07b3 0A       		.byte	0xa
 1321 07b4 BB070000 		.long	0x7bb
 1322 07b8 0C       		.byte	0xc
 1323 07b9 00       		.byte	0
 1324 07ba 23       		.uleb128 0x23
 1325 07bb 04       		.uleb128 0x4
 1326 07bc BA070000 		.long	0x7ba
 1327 07c0 01       		.uleb128 0x1
 1328 07c1 78030000 		.long	.LASF120
 1329 07c5 12       		.byte	0x12
 1330 07c6 AF       		.byte	0xaf
 1331 07c7 03       		.byte	0x3
 1332 07c8 7D070000 		.long	0x77d
 1333 07cc 08       		.uleb128 0x8
 1334 07cd C0070000 		.long	0x7c0
 1335 07d1 0D       		.uleb128 0xd
 1336 07d2 08       		.byte	0x8
 1337 07d3 12       		.byte	0x12
 1338 07d4 B4       		.byte	0xb4
 1339 07d5 F4070000 		.long	0x7f4
 1340 07d9 02       		.uleb128 0x2
 1341 07da 48020000 		.long	.LASF39
GAS LISTING /tmp/ccZ1yQJk.s 			page 25


 1342 07de 12       		.byte	0x12
 1343 07df B5       		.byte	0xb5
 1344 07e0 16       		.byte	0x16
 1345 07e1 47030000 		.long	0x347
 1346 07e5 00       		.byte	0
 1347 07e6 02       		.uleb128 0x2
 1348 07e7 7C070000 		.long	.LASF121
 1349 07eb 12       		.byte	0x12
 1350 07ec B6       		.byte	0xb6
 1351 07ed 1E       		.byte	0x1e
 1352 07ee F4070000 		.long	0x7f4
 1353 07f2 04       		.byte	0x4
 1354 07f3 00       		.byte	0
 1355 07f4 04       		.uleb128 0x4
 1356 07f5 FE070000 		.long	0x7fe
 1357 07f9 04       		.uleb128 0x4
 1358 07fa CC070000 		.long	0x7cc
 1359 07fe 08       		.uleb128 0x8
 1360 07ff F9070000 		.long	0x7f9
 1361 0803 01       		.uleb128 0x1
 1362 0804 23010000 		.long	.LASF122
 1363 0808 12       		.byte	0x12
 1364 0809 B7       		.byte	0xb7
 1365 080a 03       		.byte	0x3
 1366 080b D1070000 		.long	0x7d1
 1367 080f 08       		.uleb128 0x8
 1368 0810 03080000 		.long	0x803
 1369 0814 0D       		.uleb128 0xd
 1370 0815 08       		.byte	0x8
 1371 0816 12       		.byte	0x12
 1372 0817 BC       		.byte	0xbc
 1373 0818 37080000 		.long	0x837
 1374 081c 02       		.uleb128 0x2
 1375 081d 48020000 		.long	.LASF39
 1376 0821 12       		.byte	0x12
 1377 0822 BD       		.byte	0xbd
 1378 0823 16       		.byte	0x16
 1379 0824 47030000 		.long	0x347
 1380 0828 00       		.byte	0
 1381 0829 02       		.uleb128 0x2
 1382 082a FC060000 		.long	.LASF123
 1383 082e 12       		.byte	0x12
 1384 082f BE       		.byte	0xbe
 1385 0830 22       		.byte	0x22
 1386 0831 37080000 		.long	0x837
 1387 0835 04       		.byte	0x4
 1388 0836 00       		.byte	0
 1389 0837 04       		.uleb128 0x4
 1390 0838 41080000 		.long	0x841
 1391 083c 04       		.uleb128 0x4
 1392 083d 0F080000 		.long	0x80f
 1393 0841 08       		.uleb128 0x8
 1394 0842 3C080000 		.long	0x83c
 1395 0846 01       		.uleb128 0x1
 1396 0847 1B050000 		.long	.LASF124
 1397 084b 12       		.byte	0x12
 1398 084c BF       		.byte	0xbf
GAS LISTING /tmp/ccZ1yQJk.s 			page 26


 1399 084d 03       		.byte	0x3
 1400 084e 14080000 		.long	0x814
 1401 0852 08       		.uleb128 0x8
 1402 0853 46080000 		.long	0x846
 1403 0857 05       		.uleb128 0x5
 1404 0858 8B020000 		.long	.LASF125
 1405 085c 13       		.byte	0x13
 1406 085d 19       		.byte	0x19
 1407 085e 1D       		.byte	0x1d
 1408 085f 0F080000 		.long	0x80f
 1409 0863 05       		.uleb128 0x5
 1410 0864 A0020000 		.long	.LASF126
 1411 0868 14       		.byte	0x14
 1412 0869 19       		.byte	0x19
 1413 086a 1D       		.byte	0x1d
 1414 086b 0F080000 		.long	0x80f
 1415 086f 05       		.uleb128 0x5
 1416 0870 06070000 		.long	.LASF127
 1417 0874 15       		.byte	0x15
 1418 0875 19       		.byte	0x19
 1419 0876 1D       		.byte	0x1d
 1420 0877 0F080000 		.long	0x80f
 1421 087b 05       		.uleb128 0x5
 1422 087c BE020000 		.long	.LASF128
 1423 0880 16       		.byte	0x16
 1424 0881 19       		.byte	0x19
 1425 0882 1D       		.byte	0x1d
 1426 0883 0F080000 		.long	0x80f
 1427 0887 05       		.uleb128 0x5
 1428 0888 D3020000 		.long	.LASF129
 1429 088c 17       		.byte	0x17
 1430 088d 19       		.byte	0x19
 1431 088e 1D       		.byte	0x1d
 1432 088f 0F080000 		.long	0x80f
 1433 0893 05       		.uleb128 0x5
 1434 0894 E8020000 		.long	.LASF130
 1435 0898 18       		.byte	0x18
 1436 0899 19       		.byte	0x19
 1437 089a 1D       		.byte	0x1d
 1438 089b 0F080000 		.long	0x80f
 1439 089f 05       		.uleb128 0x5
 1440 08a0 FD020000 		.long	.LASF131
 1441 08a4 19       		.byte	0x19
 1442 08a5 19       		.byte	0x19
 1443 08a6 1D       		.byte	0x1d
 1444 08a7 0F080000 		.long	0x80f
 1445 08ab 05       		.uleb128 0x5
 1446 08ac 12030000 		.long	.LASF132
 1447 08b0 1A       		.byte	0x1a
 1448 08b1 19       		.byte	0x19
 1449 08b2 1D       		.byte	0x1d
 1450 08b3 0F080000 		.long	0x80f
 1451 08b7 05       		.uleb128 0x5
 1452 08b8 27030000 		.long	.LASF133
 1453 08bc 1B       		.byte	0x1b
 1454 08bd 19       		.byte	0x19
 1455 08be 1D       		.byte	0x1d
GAS LISTING /tmp/ccZ1yQJk.s 			page 27


 1456 08bf 0F080000 		.long	0x80f
 1457 08c3 05       		.uleb128 0x5
 1458 08c4 EF050000 		.long	.LASF134
 1459 08c8 1C       		.byte	0x1c
 1460 08c9 19       		.byte	0x19
 1461 08ca 1D       		.byte	0x1d
 1462 08cb 0F080000 		.long	0x80f
 1463 08cf 05       		.uleb128 0x5
 1464 08d0 CE040000 		.long	.LASF135
 1465 08d4 1D       		.byte	0x1d
 1466 08d5 19       		.byte	0x19
 1467 08d6 1D       		.byte	0x1d
 1468 08d7 0F080000 		.long	0x80f
 1469 08db 05       		.uleb128 0x5
 1470 08dc E3040000 		.long	.LASF136
 1471 08e0 1E       		.byte	0x1e
 1472 08e1 19       		.byte	0x19
 1473 08e2 1D       		.byte	0x1d
 1474 08e3 0F080000 		.long	0x80f
 1475 08e7 05       		.uleb128 0x5
 1476 08e8 B7010000 		.long	.LASF137
 1477 08ec 1F       		.byte	0x1f
 1478 08ed 2E       		.byte	0x2e
 1479 08ee 1A       		.byte	0x1a
 1480 08ef 52080000 		.long	0x852
 1481 08f3 0B       		.uleb128 0xb
 1482 08f4 D5000000 		.long	0xd5
 1483 08f8 06090000 		.long	0x906
 1484 08fc 24       		.uleb128 0x24
 1485 08fd 39000000 		.long	0x39
 1486 0901 3F460100 		.long	0x1463f
 1487 0905 00       		.byte	0
 1488 0906 05       		.uleb128 0x5
 1489 0907 A4040000 		.long	.LASF138
 1490 090b 1F       		.byte	0x1f
 1491 090c 5E       		.byte	0x5e
 1492 090d 10       		.byte	0x10
 1493 090e F3080000 		.long	0x8f3
 1494 0912 0B       		.uleb128 0xb
 1495 0913 9E050000 		.long	0x59e
 1496 0917 22090000 		.long	0x922
 1497 091b 0C       		.uleb128 0xc
 1498 091c 39000000 		.long	0x39
 1499 0920 04       		.byte	0x4
 1500 0921 00       		.byte	0
 1501 0922 05       		.uleb128 0x5
 1502 0923 E0050000 		.long	.LASF139
 1503 0927 1F       		.byte	0x1f
 1504 0928 5F       		.byte	0x5f
 1505 0929 12       		.byte	0x12
 1506 092a 12090000 		.long	0x912
 1507 092e 0B       		.uleb128 0xb
 1508 092f B8000000 		.long	0xb8
 1509 0933 3E090000 		.long	0x93e
 1510 0937 0C       		.uleb128 0xc
 1511 0938 39000000 		.long	0x39
 1512 093c 04       		.byte	0x4
GAS LISTING /tmp/ccZ1yQJk.s 			page 28


 1513 093d 00       		.byte	0
 1514 093e 08       		.uleb128 0x8
 1515 093f 2E090000 		.long	0x92e
 1516 0943 25       		.uleb128 0x25
 1517 0944 776100   		.string	"wa"
 1518 0947 1F       		.byte	0x1f
 1519 0948 60       		.byte	0x60
 1520 0949 18       		.byte	0x18
 1521 094a 3E090000 		.long	0x93e
 1522 094e 0B       		.uleb128 0xb
 1523 094f 41080000 		.long	0x841
 1524 0953 5E090000 		.long	0x95e
 1525 0957 0C       		.uleb128 0xc
 1526 0958 39000000 		.long	0x39
 1527 095c 0C       		.byte	0xc
 1528 095d 00       		.byte	0
 1529 095e 08       		.uleb128 0x8
 1530 095f 4E090000 		.long	0x94e
 1531 0963 26       		.uleb128 0x26
 1532 0964 83030000 		.long	.LASF140
 1533 0968 01       		.byte	0x1
 1534 0969 38       		.byte	0x38
 1535 096a 1E       		.byte	0x1e
 1536 096b 5E090000 		.long	0x95e
 1537 096f 05       		.uleb128 0x5
 1538 0970 03       		.byte	0x3
 1539 0971 00000000 		.long	rt_test_suite_array
 1540 0975 0F       		.uleb128 0xf
 1541 0976 E7080000 		.long	0x8e7
 1542 097a 57       		.byte	0x57
 1543 097b 13       		.byte	0x13
 1544 097c 05       		.uleb128 0x5
 1545 097d 03       		.byte	0x3
 1546 097e 00000000 		.long	rt_test_suite
 1547 0982 0F       		.uleb128 0xf
 1548 0983 06090000 		.long	0x906
 1549 0987 63       		.byte	0x63
 1550 0988 2E       		.byte	0x2e
 1551 0989 05       		.uleb128 0x5
 1552 098a 03       		.byte	0x3
 1553 098b 00000000 		.long	test_buffer
 1554 098f 0F       		.uleb128 0xf
 1555 0990 22090000 		.long	0x922
 1556 0994 68       		.byte	0x68
 1557 0995 0B       		.byte	0xb
 1558 0996 05       		.uleb128 0x5
 1559 0997 03       		.byte	0x3
 1560 0998 00000000 		.long	threads
 1561 099c 0F       		.uleb128 0xf
 1562 099d 43090000 		.long	0x943
 1563 09a1 6D       		.byte	0x6d
 1564 09a2 11       		.byte	0x11
 1565 09a3 05       		.uleb128 0x5
 1566 09a4 03       		.byte	0x3
 1567 09a5 00000000 		.long	wa
 1568 09a9 17       		.uleb128 0x17
 1569 09aa 00000000 		.long	.LASF141
GAS LISTING /tmp/ccZ1yQJk.s 			page 29


 1570 09ae DC01     		.value	0x1dc
 1571 09b0 BA090000 		.long	0x9ba
 1572 09b4 0E       		.uleb128 0xe
 1573 09b5 6E030000 		.long	0x36e
 1574 09b9 00       		.byte	0
 1575 09ba 27       		.uleb128 0x27
 1576 09bb F2060000 		.long	.LASF150
 1577 09bf 20       		.byte	0x20
 1578 09c0 CE01     		.value	0x1ce
 1579 09c2 09       		.byte	0x9
 1580 09c3 3A010000 		.long	0x13a
 1581 09c7 D1090000 		.long	0x9d1
 1582 09cb 0E       		.uleb128 0xe
 1583 09cc 9E050000 		.long	0x59e
 1584 09d0 00       		.byte	0
 1585 09d1 17       		.uleb128 0x17
 1586 09d2 A8010000 		.long	.LASF142
 1587 09d6 D101     		.value	0x1d1
 1588 09d8 E2090000 		.long	0x9e2
 1589 09dc 0E       		.uleb128 0xe
 1590 09dd 9E050000 		.long	0x59e
 1591 09e1 00       		.byte	0
 1592 09e2 28       		.uleb128 0x28
 1593 09e3 CA050000 		.long	.LASF151
 1594 09e7 01       		.byte	0x1
 1595 09e8 8E       		.byte	0x8e
 1596 09e9 0B       		.byte	0xb
 1597 09ea 5D030000 		.long	0x35d
 1598 09ee 00000000 		.long	.LFB305
 1599 09f2 30000000 		.long	.LFE305-.LFB305
 1600 09f6 01       		.uleb128 0x1
 1601 09f7 9C       		.byte	0x9c
 1602 09f8 680A0000 		.long	0xa68
 1603 09fc 29       		.uleb128 0x29
 1604 09fd C40A0000 		.long	0xac4
 1605 0a01 16000000 		.long	.LBI24
 1606 0a05 01       		.byte	.LVU31
 1607 0a06 16000000 		.long	.LBB24
 1608 0a0a 15000000 		.long	.LBE24-.LBB24
 1609 0a0e 01       		.byte	0x1
 1610 0a0f 91       		.byte	0x91
 1611 0a10 0A       		.byte	0xa
 1612 0a11 5E0A0000 		.long	0xa5e
 1613 0a15 2A       		.uleb128 0x2a
 1614 0a16 D50A0000 		.long	0xad5
 1615 0a1a 0E000000 		.long	.LLST2
 1616 0a1e 0C000000 		.long	.LVUS2
 1617 0a22 2B       		.uleb128 0x2b
 1618 0a23 E20A0000 		.long	0xae2
 1619 0a27 16000000 		.long	.LBI26
 1620 0a2b 05       		.byte	.LVU35
 1621 0a2c 0C000000 		.long	.LLRL3
 1622 0a30 02       		.byte	0x2
 1623 0a31 9E       		.byte	0x9e
 1624 0a32 0D       		.byte	0xd
 1625 0a33 2C       		.uleb128 0x2c
 1626 0a34 EF0A0000 		.long	0xaef
GAS LISTING /tmp/ccZ1yQJk.s 			page 30


 1627 0a38 25000000 		.long	.LBI29
 1628 0a3c 02       		.byte	.LVU42
 1629 0a3d 18000000 		.long	.LLRL4
 1630 0a41 02       		.byte	0x2
 1631 0a42 9F       		.byte	0x9f
 1632 0a43 03       		.byte	0x3
 1633 0a44 2D       		.uleb128 0x2d
 1634 0a45 18000000 		.long	.LLRL4
 1635 0a49 2E       		.uleb128 0x2e
 1636 0a4a 240B0000 		.long	0xb24
 1637 0a4e 25000000 		.long	.LBI31
 1638 0a52 09       		.byte	.LVU49
 1639 0a53 18000000 		.long	.LLRL4
 1640 0a57 04       		.byte	0x4
 1641 0a58 B201     		.value	0x1b2
 1642 0a5a 03       		.byte	0x3
 1643 0a5b 00       		.byte	0
 1644 0a5c 00       		.byte	0
 1645 0a5d 00       		.byte	0
 1646 0a5e 13       		.uleb128 0x13
 1647 0a5f 16000000 		.long	.LVL6
 1648 0a63 A9090000 		.long	0x9a9
 1649 0a67 00       		.byte	0
 1650 0a68 18       		.uleb128 0x18
 1651 0a69 BC040000 		.long	.LASF143
 1652 0a6d 81       		.byte	0x81
 1653 0a6e 00000000 		.long	.LFB304
 1654 0a72 3A000000 		.long	.LFE304-.LFB304
 1655 0a76 01       		.uleb128 0x1
 1656 0a77 9C       		.byte	0x9c
 1657 0a78 960A0000 		.long	0xa96
 1658 0a7c 19       		.uleb128 0x19
 1659 0a7d 6900     		.string	"i"
 1660 0a7f 82       		.byte	0x82
 1661 0a80 39000000 		.long	0x39
 1662 0a84 19000000 		.long	.LLST1
 1663 0a88 17000000 		.long	.LVUS1
 1664 0a8c 13       		.uleb128 0x13
 1665 0a8d 26000000 		.long	.LVL5
 1666 0a91 BA090000 		.long	0x9ba
 1667 0a95 00       		.byte	0
 1668 0a96 18       		.uleb128 0x18
 1669 0a97 77050000 		.long	.LASF144
 1670 0a9b 76       		.byte	0x76
 1671 0a9c 00000000 		.long	.LFB303
 1672 0aa0 34000000 		.long	.LFE303-.LFB303
 1673 0aa4 01       		.uleb128 0x1
 1674 0aa5 9C       		.byte	0x9c
 1675 0aa6 C40A0000 		.long	0xac4
 1676 0aaa 19       		.uleb128 0x19
 1677 0aab 6900     		.string	"i"
 1678 0aad 77       		.byte	0x77
 1679 0aae 39000000 		.long	0x39
 1680 0ab2 25000000 		.long	.LLST0
 1681 0ab6 23000000 		.long	.LVUS0
 1682 0aba 13       		.uleb128 0x13
 1683 0abb 26000000 		.long	.LVL2
GAS LISTING /tmp/ccZ1yQJk.s 			page 31


 1684 0abf D1090000 		.long	0x9d1
 1685 0ac3 00       		.byte	0
 1686 0ac4 2F       		.uleb128 0x2f
 1687 0ac5 2D050000 		.long	.LASF152
 1688 0ac9 02       		.byte	0x2
 1689 0aca 9A       		.byte	0x9a
 1690 0acb 19       		.byte	0x19
 1691 0acc 5D030000 		.long	0x35d
 1692 0ad0 03       		.byte	0x3
 1693 0ad1 E20A0000 		.long	0xae2
 1694 0ad5 30       		.uleb128 0x30
 1695 0ad6 44030000 		.long	.LASF86
 1696 0ada 02       		.byte	0x2
 1697 0adb 9B       		.byte	0x9b
 1698 0adc 0D       		.byte	0xd
 1699 0add 5D030000 		.long	0x35d
 1700 0ae1 00       		.byte	0
 1701 0ae2 31       		.uleb128 0x31
 1702 0ae3 09020000 		.long	.LASF153
 1703 0ae7 02       		.byte	0x2
 1704 0ae8 87       		.byte	0x87
 1705 0ae9 19       		.byte	0x19
 1706 0aea 5D030000 		.long	0x35d
 1707 0aee 03       		.byte	0x3
 1708 0aef 32       		.uleb128 0x32
 1709 0af0 59070000 		.long	.LASF154
 1710 0af4 04       		.byte	0x4
 1711 0af5 A501     		.value	0x1a5
 1712 0af7 14       		.byte	0x14
 1713 0af8 03       		.byte	0x3
 1714 0af9 070B0000 		.long	0xb07
 1715 0afd 33       		.uleb128 0x33
 1716 0afe 04060000 		.long	.LASF155
 1717 0b02 170B0000 		.long	0xb17
 1718 0b06 00       		.byte	0
 1719 0b07 0B       		.uleb128 0xb
 1720 0b08 C4000000 		.long	0xc4
 1721 0b0c 170B0000 		.long	0xb17
 1722 0b10 0C       		.uleb128 0xc
 1723 0b11 39000000 		.long	0x39
 1724 0b15 0B       		.byte	0xb
 1725 0b16 00       		.byte	0
 1726 0b17 08       		.uleb128 0x8
 1727 0b18 070B0000 		.long	0xb07
 1728 0b1c 14       		.uleb128 0x14
 1729 0b1d 0D060000 		.long	.LASF145
 1730 0b21 04       		.byte	0x4
 1731 0b22 9701     		.value	0x197
 1732 0b24 14       		.uleb128 0x14
 1733 0b25 47010000 		.long	.LASF146
 1734 0b29 03       		.byte	0x3
 1735 0b2a 7201     		.value	0x172
 1736 0b2c 14       		.uleb128 0x14
 1737 0b2d 6A070000 		.long	.LASF147
 1738 0b31 03       		.byte	0x3
 1739 0b32 6901     		.value	0x169
 1740 0b34 00       		.byte	0
GAS LISTING /tmp/ccZ1yQJk.s 			page 32


 1741              		.section	.debug_abbrev,"",@progbits
 1742              	.Ldebug_abbrev0:
 1743 0000 01       		.uleb128 0x1
 1744 0001 16       		.uleb128 0x16
 1745 0002 00       		.byte	0
 1746 0003 03       		.uleb128 0x3
 1747 0004 0E       		.uleb128 0xe
 1748 0005 3A       		.uleb128 0x3a
 1749 0006 0B       		.uleb128 0xb
 1750 0007 3B       		.uleb128 0x3b
 1751 0008 0B       		.uleb128 0xb
 1752 0009 39       		.uleb128 0x39
 1753 000a 0B       		.uleb128 0xb
 1754 000b 49       		.uleb128 0x49
 1755 000c 13       		.uleb128 0x13
 1756 000d 00       		.byte	0
 1757 000e 00       		.byte	0
 1758 000f 02       		.uleb128 0x2
 1759 0010 0D       		.uleb128 0xd
 1760 0011 00       		.byte	0
 1761 0012 03       		.uleb128 0x3
 1762 0013 0E       		.uleb128 0xe
 1763 0014 3A       		.uleb128 0x3a
 1764 0015 0B       		.uleb128 0xb
 1765 0016 3B       		.uleb128 0x3b
 1766 0017 0B       		.uleb128 0xb
 1767 0018 39       		.uleb128 0x39
 1768 0019 0B       		.uleb128 0xb
 1769 001a 49       		.uleb128 0x49
 1770 001b 13       		.uleb128 0x13
 1771 001c 38       		.uleb128 0x38
 1772 001d 0B       		.uleb128 0xb
 1773 001e 00       		.byte	0
 1774 001f 00       		.byte	0
 1775 0020 03       		.uleb128 0x3
 1776 0021 0D       		.uleb128 0xd
 1777 0022 00       		.byte	0
 1778 0023 03       		.uleb128 0x3
 1779 0024 0E       		.uleb128 0xe
 1780 0025 3A       		.uleb128 0x3a
 1781 0026 21       		.uleb128 0x21
 1782 0027 0B       		.sleb128 11
 1783 0028 3B       		.uleb128 0x3b
 1784 0029 05       		.uleb128 0x5
 1785 002a 39       		.uleb128 0x39
 1786 002b 0B       		.uleb128 0xb
 1787 002c 49       		.uleb128 0x49
 1788 002d 13       		.uleb128 0x13
 1789 002e 38       		.uleb128 0x38
 1790 002f 0B       		.uleb128 0xb
 1791 0030 00       		.byte	0
 1792 0031 00       		.byte	0
 1793 0032 04       		.uleb128 0x4
 1794 0033 0F       		.uleb128 0xf
 1795 0034 00       		.byte	0
 1796 0035 0B       		.uleb128 0xb
 1797 0036 21       		.uleb128 0x21
GAS LISTING /tmp/ccZ1yQJk.s 			page 33


 1798 0037 04       		.sleb128 4
 1799 0038 49       		.uleb128 0x49
 1800 0039 13       		.uleb128 0x13
 1801 003a 00       		.byte	0
 1802 003b 00       		.byte	0
 1803 003c 05       		.uleb128 0x5
 1804 003d 34       		.uleb128 0x34
 1805 003e 00       		.byte	0
 1806 003f 03       		.uleb128 0x3
 1807 0040 0E       		.uleb128 0xe
 1808 0041 3A       		.uleb128 0x3a
 1809 0042 0B       		.uleb128 0xb
 1810 0043 3B       		.uleb128 0x3b
 1811 0044 0B       		.uleb128 0xb
 1812 0045 39       		.uleb128 0x39
 1813 0046 0B       		.uleb128 0xb
 1814 0047 49       		.uleb128 0x49
 1815 0048 13       		.uleb128 0x13
 1816 0049 3F       		.uleb128 0x3f
 1817 004a 19       		.uleb128 0x19
 1818 004b 3C       		.uleb128 0x3c
 1819 004c 19       		.uleb128 0x19
 1820 004d 00       		.byte	0
 1821 004e 00       		.byte	0
 1822 004f 06       		.uleb128 0x6
 1823 0050 24       		.uleb128 0x24
 1824 0051 00       		.byte	0
 1825 0052 0B       		.uleb128 0xb
 1826 0053 0B       		.uleb128 0xb
 1827 0054 3E       		.uleb128 0x3e
 1828 0055 0B       		.uleb128 0xb
 1829 0056 03       		.uleb128 0x3
 1830 0057 0E       		.uleb128 0xe
 1831 0058 00       		.byte	0
 1832 0059 00       		.byte	0
 1833 005a 07       		.uleb128 0x7
 1834 005b 13       		.uleb128 0x13
 1835 005c 01       		.byte	0x1
 1836 005d 03       		.uleb128 0x3
 1837 005e 0E       		.uleb128 0xe
 1838 005f 0B       		.uleb128 0xb
 1839 0060 0B       		.uleb128 0xb
 1840 0061 3A       		.uleb128 0x3a
 1841 0062 0B       		.uleb128 0xb
 1842 0063 3B       		.uleb128 0x3b
 1843 0064 0B       		.uleb128 0xb
 1844 0065 39       		.uleb128 0x39
 1845 0066 0B       		.uleb128 0xb
 1846 0067 01       		.uleb128 0x1
 1847 0068 13       		.uleb128 0x13
 1848 0069 00       		.byte	0
 1849 006a 00       		.byte	0
 1850 006b 08       		.uleb128 0x8
 1851 006c 26       		.uleb128 0x26
 1852 006d 00       		.byte	0
 1853 006e 49       		.uleb128 0x49
 1854 006f 13       		.uleb128 0x13
GAS LISTING /tmp/ccZ1yQJk.s 			page 34


 1855 0070 00       		.byte	0
 1856 0071 00       		.byte	0
 1857 0072 09       		.uleb128 0x9
 1858 0073 0D       		.uleb128 0xd
 1859 0074 00       		.byte	0
 1860 0075 03       		.uleb128 0x3
 1861 0076 08       		.uleb128 0x8
 1862 0077 3A       		.uleb128 0x3a
 1863 0078 0B       		.uleb128 0xb
 1864 0079 3B       		.uleb128 0x3b
 1865 007a 0B       		.uleb128 0xb
 1866 007b 39       		.uleb128 0x39
 1867 007c 0B       		.uleb128 0xb
 1868 007d 49       		.uleb128 0x49
 1869 007e 13       		.uleb128 0x13
 1870 007f 38       		.uleb128 0x38
 1871 0080 0B       		.uleb128 0xb
 1872 0081 00       		.byte	0
 1873 0082 00       		.byte	0
 1874 0083 0A       		.uleb128 0xa
 1875 0084 0D       		.uleb128 0xd
 1876 0085 00       		.byte	0
 1877 0086 03       		.uleb128 0x3
 1878 0087 0E       		.uleb128 0xe
 1879 0088 3A       		.uleb128 0x3a
 1880 0089 21       		.uleb128 0x21
 1881 008a 0B       		.sleb128 11
 1882 008b 3B       		.uleb128 0x3b
 1883 008c 05       		.uleb128 0x5
 1884 008d 39       		.uleb128 0x39
 1885 008e 0B       		.uleb128 0xb
 1886 008f 49       		.uleb128 0x49
 1887 0090 13       		.uleb128 0x13
 1888 0091 00       		.byte	0
 1889 0092 00       		.byte	0
 1890 0093 0B       		.uleb128 0xb
 1891 0094 01       		.uleb128 0x1
 1892 0095 01       		.byte	0x1
 1893 0096 49       		.uleb128 0x49
 1894 0097 13       		.uleb128 0x13
 1895 0098 01       		.uleb128 0x1
 1896 0099 13       		.uleb128 0x13
 1897 009a 00       		.byte	0
 1898 009b 00       		.byte	0
 1899 009c 0C       		.uleb128 0xc
 1900 009d 21       		.uleb128 0x21
 1901 009e 00       		.byte	0
 1902 009f 49       		.uleb128 0x49
 1903 00a0 13       		.uleb128 0x13
 1904 00a1 2F       		.uleb128 0x2f
 1905 00a2 0B       		.uleb128 0xb
 1906 00a3 00       		.byte	0
 1907 00a4 00       		.byte	0
 1908 00a5 0D       		.uleb128 0xd
 1909 00a6 13       		.uleb128 0x13
 1910 00a7 01       		.byte	0x1
 1911 00a8 0B       		.uleb128 0xb
GAS LISTING /tmp/ccZ1yQJk.s 			page 35


 1912 00a9 0B       		.uleb128 0xb
 1913 00aa 3A       		.uleb128 0x3a
 1914 00ab 0B       		.uleb128 0xb
 1915 00ac 3B       		.uleb128 0x3b
 1916 00ad 0B       		.uleb128 0xb
 1917 00ae 39       		.uleb128 0x39
 1918 00af 21       		.uleb128 0x21
 1919 00b0 09       		.sleb128 9
 1920 00b1 01       		.uleb128 0x1
 1921 00b2 13       		.uleb128 0x13
 1922 00b3 00       		.byte	0
 1923 00b4 00       		.byte	0
 1924 00b5 0E       		.uleb128 0xe
 1925 00b6 05       		.uleb128 0x5
 1926 00b7 00       		.byte	0
 1927 00b8 49       		.uleb128 0x49
 1928 00b9 13       		.uleb128 0x13
 1929 00ba 00       		.byte	0
 1930 00bb 00       		.byte	0
 1931 00bc 0F       		.uleb128 0xf
 1932 00bd 34       		.uleb128 0x34
 1933 00be 00       		.byte	0
 1934 00bf 47       		.uleb128 0x47
 1935 00c0 13       		.uleb128 0x13
 1936 00c1 3A       		.uleb128 0x3a
 1937 00c2 21       		.uleb128 0x21
 1938 00c3 01       		.sleb128 1
 1939 00c4 3B       		.uleb128 0x3b
 1940 00c5 0B       		.uleb128 0xb
 1941 00c6 39       		.uleb128 0x39
 1942 00c7 0B       		.uleb128 0xb
 1943 00c8 02       		.uleb128 0x2
 1944 00c9 18       		.uleb128 0x18
 1945 00ca 00       		.byte	0
 1946 00cb 00       		.byte	0
 1947 00cc 10       		.uleb128 0x10
 1948 00cd 35       		.uleb128 0x35
 1949 00ce 00       		.byte	0
 1950 00cf 49       		.uleb128 0x49
 1951 00d0 13       		.uleb128 0x13
 1952 00d1 00       		.byte	0
 1953 00d2 00       		.byte	0
 1954 00d3 11       		.uleb128 0x11
 1955 00d4 13       		.uleb128 0x13
 1956 00d5 01       		.byte	0x1
 1957 00d6 03       		.uleb128 0x3
 1958 00d7 0E       		.uleb128 0xe
 1959 00d8 0B       		.uleb128 0xb
 1960 00d9 0B       		.uleb128 0xb
 1961 00da 3A       		.uleb128 0x3a
 1962 00db 21       		.uleb128 0x21
 1963 00dc 0B       		.sleb128 11
 1964 00dd 3B       		.uleb128 0x3b
 1965 00de 05       		.uleb128 0x5
 1966 00df 39       		.uleb128 0x39
 1967 00e0 0B       		.uleb128 0xb
 1968 00e1 01       		.uleb128 0x1
GAS LISTING /tmp/ccZ1yQJk.s 			page 36


 1969 00e2 13       		.uleb128 0x13
 1970 00e3 00       		.byte	0
 1971 00e4 00       		.byte	0
 1972 00e5 12       		.uleb128 0x12
 1973 00e6 0D       		.uleb128 0xd
 1974 00e7 00       		.byte	0
 1975 00e8 03       		.uleb128 0x3
 1976 00e9 0E       		.uleb128 0xe
 1977 00ea 3A       		.uleb128 0x3a
 1978 00eb 21       		.uleb128 0x21
 1979 00ec 0B       		.sleb128 11
 1980 00ed 3B       		.uleb128 0x3b
 1981 00ee 0B       		.uleb128 0xb
 1982 00ef 39       		.uleb128 0x39
 1983 00f0 21       		.uleb128 0x21
 1984 00f1 21       		.sleb128 33
 1985 00f2 49       		.uleb128 0x49
 1986 00f3 13       		.uleb128 0x13
 1987 00f4 00       		.byte	0
 1988 00f5 00       		.byte	0
 1989 00f6 13       		.uleb128 0x13
 1990 00f7 48       		.uleb128 0x48
 1991 00f8 00       		.byte	0
 1992 00f9 7D       		.uleb128 0x7d
 1993 00fa 01       		.uleb128 0x1
 1994 00fb 7F       		.uleb128 0x7f
 1995 00fc 13       		.uleb128 0x13
 1996 00fd 00       		.byte	0
 1997 00fe 00       		.byte	0
 1998 00ff 14       		.uleb128 0x14
 1999 0100 2E       		.uleb128 0x2e
 2000 0101 00       		.byte	0
 2001 0102 03       		.uleb128 0x3
 2002 0103 0E       		.uleb128 0xe
 2003 0104 3A       		.uleb128 0x3a
 2004 0105 0B       		.uleb128 0xb
 2005 0106 3B       		.uleb128 0x3b
 2006 0107 05       		.uleb128 0x5
 2007 0108 39       		.uleb128 0x39
 2008 0109 21       		.uleb128 0x21
 2009 010a 14       		.sleb128 20
 2010 010b 27       		.uleb128 0x27
 2011 010c 19       		.uleb128 0x19
 2012 010d 20       		.uleb128 0x20
 2013 010e 21       		.uleb128 0x21
 2014 010f 03       		.sleb128 3
 2015 0110 00       		.byte	0
 2016 0111 00       		.byte	0
 2017 0112 15       		.uleb128 0x15
 2018 0113 0D       		.uleb128 0xd
 2019 0114 00       		.byte	0
 2020 0115 03       		.uleb128 0x3
 2021 0116 08       		.uleb128 0x8
 2022 0117 3A       		.uleb128 0x3a
 2023 0118 21       		.uleb128 0x21
 2024 0119 0B       		.sleb128 11
 2025 011a 3B       		.uleb128 0x3b
GAS LISTING /tmp/ccZ1yQJk.s 			page 37


 2026 011b 05       		.uleb128 0x5
 2027 011c 39       		.uleb128 0x39
 2028 011d 21       		.uleb128 0x21
 2029 011e 21       		.sleb128 33
 2030 011f 49       		.uleb128 0x49
 2031 0120 13       		.uleb128 0x13
 2032 0121 38       		.uleb128 0x38
 2033 0122 0B       		.uleb128 0xb
 2034 0123 00       		.byte	0
 2035 0124 00       		.byte	0
 2036 0125 16       		.uleb128 0x16
 2037 0126 16       		.uleb128 0x16
 2038 0127 00       		.byte	0
 2039 0128 03       		.uleb128 0x3
 2040 0129 0E       		.uleb128 0xe
 2041 012a 3A       		.uleb128 0x3a
 2042 012b 21       		.uleb128 0x21
 2043 012c 0B       		.sleb128 11
 2044 012d 3B       		.uleb128 0x3b
 2045 012e 05       		.uleb128 0x5
 2046 012f 39       		.uleb128 0x39
 2047 0130 21       		.uleb128 0x21
 2048 0131 03       		.sleb128 3
 2049 0132 49       		.uleb128 0x49
 2050 0133 13       		.uleb128 0x13
 2051 0134 00       		.byte	0
 2052 0135 00       		.byte	0
 2053 0136 17       		.uleb128 0x17
 2054 0137 2E       		.uleb128 0x2e
 2055 0138 01       		.byte	0x1
 2056 0139 3F       		.uleb128 0x3f
 2057 013a 19       		.uleb128 0x19
 2058 013b 03       		.uleb128 0x3
 2059 013c 0E       		.uleb128 0xe
 2060 013d 3A       		.uleb128 0x3a
 2061 013e 21       		.uleb128 0x21
 2062 013f 20       		.sleb128 32
 2063 0140 3B       		.uleb128 0x3b
 2064 0141 05       		.uleb128 0x5
 2065 0142 39       		.uleb128 0x39
 2066 0143 21       		.uleb128 0x21
 2067 0144 08       		.sleb128 8
 2068 0145 27       		.uleb128 0x27
 2069 0146 19       		.uleb128 0x19
 2070 0147 3C       		.uleb128 0x3c
 2071 0148 19       		.uleb128 0x19
 2072 0149 01       		.uleb128 0x1
 2073 014a 13       		.uleb128 0x13
 2074 014b 00       		.byte	0
 2075 014c 00       		.byte	0
 2076 014d 18       		.uleb128 0x18
 2077 014e 2E       		.uleb128 0x2e
 2078 014f 01       		.byte	0x1
 2079 0150 3F       		.uleb128 0x3f
 2080 0151 19       		.uleb128 0x19
 2081 0152 03       		.uleb128 0x3
 2082 0153 0E       		.uleb128 0xe
GAS LISTING /tmp/ccZ1yQJk.s 			page 38


 2083 0154 3A       		.uleb128 0x3a
 2084 0155 21       		.uleb128 0x21
 2085 0156 01       		.sleb128 1
 2086 0157 3B       		.uleb128 0x3b
 2087 0158 0B       		.uleb128 0xb
 2088 0159 39       		.uleb128 0x39
 2089 015a 21       		.uleb128 0x21
 2090 015b 06       		.sleb128 6
 2091 015c 27       		.uleb128 0x27
 2092 015d 19       		.uleb128 0x19
 2093 015e 11       		.uleb128 0x11
 2094 015f 01       		.uleb128 0x1
 2095 0160 12       		.uleb128 0x12
 2096 0161 06       		.uleb128 0x6
 2097 0162 40       		.uleb128 0x40
 2098 0163 18       		.uleb128 0x18
 2099 0164 7A       		.uleb128 0x7a
 2100 0165 19       		.uleb128 0x19
 2101 0166 01       		.uleb128 0x1
 2102 0167 13       		.uleb128 0x13
 2103 0168 00       		.byte	0
 2104 0169 00       		.byte	0
 2105 016a 19       		.uleb128 0x19
 2106 016b 34       		.uleb128 0x34
 2107 016c 00       		.byte	0
 2108 016d 03       		.uleb128 0x3
 2109 016e 08       		.uleb128 0x8
 2110 016f 3A       		.uleb128 0x3a
 2111 0170 21       		.uleb128 0x21
 2112 0171 01       		.sleb128 1
 2113 0172 3B       		.uleb128 0x3b
 2114 0173 0B       		.uleb128 0xb
 2115 0174 39       		.uleb128 0x39
 2116 0175 21       		.uleb128 0x21
 2117 0176 0C       		.sleb128 12
 2118 0177 49       		.uleb128 0x49
 2119 0178 13       		.uleb128 0x13
 2120 0179 02       		.uleb128 0x2
 2121 017a 17       		.uleb128 0x17
 2122 017b B742     		.uleb128 0x2137
 2123 017d 17       		.uleb128 0x17
 2124 017e 00       		.byte	0
 2125 017f 00       		.byte	0
 2126 0180 1A       		.uleb128 0x1a
 2127 0181 11       		.uleb128 0x11
 2128 0182 01       		.byte	0x1
 2129 0183 25       		.uleb128 0x25
 2130 0184 0E       		.uleb128 0xe
 2131 0185 13       		.uleb128 0x13
 2132 0186 0B       		.uleb128 0xb
 2133 0187 03       		.uleb128 0x3
 2134 0188 1F       		.uleb128 0x1f
 2135 0189 1B       		.uleb128 0x1b
 2136 018a 1F       		.uleb128 0x1f
 2137 018b 55       		.uleb128 0x55
 2138 018c 17       		.uleb128 0x17
 2139 018d 11       		.uleb128 0x11
GAS LISTING /tmp/ccZ1yQJk.s 			page 39


 2140 018e 01       		.uleb128 0x1
 2141 018f 10       		.uleb128 0x10
 2142 0190 17       		.uleb128 0x17
 2143 0191 00       		.byte	0
 2144 0192 00       		.byte	0
 2145 0193 1B       		.uleb128 0x1b
 2146 0194 24       		.uleb128 0x24
 2147 0195 00       		.byte	0
 2148 0196 0B       		.uleb128 0xb
 2149 0197 0B       		.uleb128 0xb
 2150 0198 3E       		.uleb128 0x3e
 2151 0199 0B       		.uleb128 0xb
 2152 019a 03       		.uleb128 0x3
 2153 019b 08       		.uleb128 0x8
 2154 019c 00       		.byte	0
 2155 019d 00       		.byte	0
 2156 019e 1C       		.uleb128 0x1c
 2157 019f 0F       		.uleb128 0xf
 2158 01a0 00       		.byte	0
 2159 01a1 0B       		.uleb128 0xb
 2160 01a2 0B       		.uleb128 0xb
 2161 01a3 00       		.byte	0
 2162 01a4 00       		.byte	0
 2163 01a5 1D       		.uleb128 0x1d
 2164 01a6 16       		.uleb128 0x16
 2165 01a7 00       		.byte	0
 2166 01a8 03       		.uleb128 0x3
 2167 01a9 0E       		.uleb128 0xe
 2168 01aa 3A       		.uleb128 0x3a
 2169 01ab 0B       		.uleb128 0xb
 2170 01ac 3B       		.uleb128 0x3b
 2171 01ad 0B       		.uleb128 0xb
 2172 01ae 39       		.uleb128 0x39
 2173 01af 0B       		.uleb128 0xb
 2174 01b0 49       		.uleb128 0x49
 2175 01b1 13       		.uleb128 0x13
 2176 01b2 8801     		.uleb128 0x88
 2177 01b4 0B       		.uleb128 0xb
 2178 01b5 00       		.byte	0
 2179 01b6 00       		.byte	0
 2180 01b7 1E       		.uleb128 0x1e
 2181 01b8 34       		.uleb128 0x34
 2182 01b9 00       		.byte	0
 2183 01ba 03       		.uleb128 0x3
 2184 01bb 0E       		.uleb128 0xe
 2185 01bc 3A       		.uleb128 0x3a
 2186 01bd 0B       		.uleb128 0xb
 2187 01be 3B       		.uleb128 0x3b
 2188 01bf 05       		.uleb128 0x5
 2189 01c0 39       		.uleb128 0x39
 2190 01c1 0B       		.uleb128 0xb
 2191 01c2 49       		.uleb128 0x49
 2192 01c3 13       		.uleb128 0x13
 2193 01c4 3F       		.uleb128 0x3f
 2194 01c5 19       		.uleb128 0x19
 2195 01c6 3C       		.uleb128 0x3c
 2196 01c7 19       		.uleb128 0x19
GAS LISTING /tmp/ccZ1yQJk.s 			page 40


 2197 01c8 00       		.byte	0
 2198 01c9 00       		.byte	0
 2199 01ca 1F       		.uleb128 0x1f
 2200 01cb 15       		.uleb128 0x15
 2201 01cc 01       		.byte	0x1
 2202 01cd 27       		.uleb128 0x27
 2203 01ce 19       		.uleb128 0x19
 2204 01cf 01       		.uleb128 0x1
 2205 01d0 13       		.uleb128 0x13
 2206 01d1 00       		.byte	0
 2207 01d2 00       		.byte	0
 2208 01d3 20       		.uleb128 0x20
 2209 01d4 17       		.uleb128 0x17
 2210 01d5 01       		.byte	0x1
 2211 01d6 0B       		.uleb128 0xb
 2212 01d7 0B       		.uleb128 0xb
 2213 01d8 3A       		.uleb128 0x3a
 2214 01d9 0B       		.uleb128 0xb
 2215 01da 3B       		.uleb128 0x3b
 2216 01db 0B       		.uleb128 0xb
 2217 01dc 39       		.uleb128 0x39
 2218 01dd 0B       		.uleb128 0xb
 2219 01de 01       		.uleb128 0x1
 2220 01df 13       		.uleb128 0x13
 2221 01e0 00       		.byte	0
 2222 01e1 00       		.byte	0
 2223 01e2 21       		.uleb128 0x21
 2224 01e3 17       		.uleb128 0x17
 2225 01e4 01       		.byte	0x1
 2226 01e5 0B       		.uleb128 0xb
 2227 01e6 0B       		.uleb128 0xb
 2228 01e7 3A       		.uleb128 0x3a
 2229 01e8 0B       		.uleb128 0xb
 2230 01e9 3B       		.uleb128 0x3b
 2231 01ea 05       		.uleb128 0x5
 2232 01eb 39       		.uleb128 0x39
 2233 01ec 0B       		.uleb128 0xb
 2234 01ed 01       		.uleb128 0x1
 2235 01ee 13       		.uleb128 0x13
 2236 01ef 00       		.byte	0
 2237 01f0 00       		.byte	0
 2238 01f1 22       		.uleb128 0x22
 2239 01f2 34       		.uleb128 0x34
 2240 01f3 00       		.byte	0
 2241 01f4 03       		.uleb128 0x3
 2242 01f5 08       		.uleb128 0x8
 2243 01f6 3A       		.uleb128 0x3a
 2244 01f7 0B       		.uleb128 0xb
 2245 01f8 3B       		.uleb128 0x3b
 2246 01f9 05       		.uleb128 0x5
 2247 01fa 39       		.uleb128 0x39
 2248 01fb 0B       		.uleb128 0xb
 2249 01fc 49       		.uleb128 0x49
 2250 01fd 13       		.uleb128 0x13
 2251 01fe 3F       		.uleb128 0x3f
 2252 01ff 19       		.uleb128 0x19
 2253 0200 3C       		.uleb128 0x3c
GAS LISTING /tmp/ccZ1yQJk.s 			page 41


 2254 0201 19       		.uleb128 0x19
 2255 0202 00       		.byte	0
 2256 0203 00       		.byte	0
 2257 0204 23       		.uleb128 0x23
 2258 0205 15       		.uleb128 0x15
 2259 0206 00       		.byte	0
 2260 0207 27       		.uleb128 0x27
 2261 0208 19       		.uleb128 0x19
 2262 0209 00       		.byte	0
 2263 020a 00       		.byte	0
 2264 020b 24       		.uleb128 0x24
 2265 020c 21       		.uleb128 0x21
 2266 020d 00       		.byte	0
 2267 020e 49       		.uleb128 0x49
 2268 020f 13       		.uleb128 0x13
 2269 0210 2F       		.uleb128 0x2f
 2270 0211 06       		.uleb128 0x6
 2271 0212 00       		.byte	0
 2272 0213 00       		.byte	0
 2273 0214 25       		.uleb128 0x25
 2274 0215 34       		.uleb128 0x34
 2275 0216 00       		.byte	0
 2276 0217 03       		.uleb128 0x3
 2277 0218 08       		.uleb128 0x8
 2278 0219 3A       		.uleb128 0x3a
 2279 021a 0B       		.uleb128 0xb
 2280 021b 3B       		.uleb128 0x3b
 2281 021c 0B       		.uleb128 0xb
 2282 021d 39       		.uleb128 0x39
 2283 021e 0B       		.uleb128 0xb
 2284 021f 49       		.uleb128 0x49
 2285 0220 13       		.uleb128 0x13
 2286 0221 3F       		.uleb128 0x3f
 2287 0222 19       		.uleb128 0x19
 2288 0223 3C       		.uleb128 0x3c
 2289 0224 19       		.uleb128 0x19
 2290 0225 00       		.byte	0
 2291 0226 00       		.byte	0
 2292 0227 26       		.uleb128 0x26
 2293 0228 34       		.uleb128 0x34
 2294 0229 00       		.byte	0
 2295 022a 03       		.uleb128 0x3
 2296 022b 0E       		.uleb128 0xe
 2297 022c 3A       		.uleb128 0x3a
 2298 022d 0B       		.uleb128 0xb
 2299 022e 3B       		.uleb128 0x3b
 2300 022f 0B       		.uleb128 0xb
 2301 0230 39       		.uleb128 0x39
 2302 0231 0B       		.uleb128 0xb
 2303 0232 49       		.uleb128 0x49
 2304 0233 13       		.uleb128 0x13
 2305 0234 3F       		.uleb128 0x3f
 2306 0235 19       		.uleb128 0x19
 2307 0236 02       		.uleb128 0x2
 2308 0237 18       		.uleb128 0x18
 2309 0238 00       		.byte	0
 2310 0239 00       		.byte	0
GAS LISTING /tmp/ccZ1yQJk.s 			page 42


 2311 023a 27       		.uleb128 0x27
 2312 023b 2E       		.uleb128 0x2e
 2313 023c 01       		.byte	0x1
 2314 023d 3F       		.uleb128 0x3f
 2315 023e 19       		.uleb128 0x19
 2316 023f 03       		.uleb128 0x3
 2317 0240 0E       		.uleb128 0xe
 2318 0241 3A       		.uleb128 0x3a
 2319 0242 0B       		.uleb128 0xb
 2320 0243 3B       		.uleb128 0x3b
 2321 0244 05       		.uleb128 0x5
 2322 0245 39       		.uleb128 0x39
 2323 0246 0B       		.uleb128 0xb
 2324 0247 27       		.uleb128 0x27
 2325 0248 19       		.uleb128 0x19
 2326 0249 49       		.uleb128 0x49
 2327 024a 13       		.uleb128 0x13
 2328 024b 3C       		.uleb128 0x3c
 2329 024c 19       		.uleb128 0x19
 2330 024d 01       		.uleb128 0x1
 2331 024e 13       		.uleb128 0x13
 2332 024f 00       		.byte	0
 2333 0250 00       		.byte	0
 2334 0251 28       		.uleb128 0x28
 2335 0252 2E       		.uleb128 0x2e
 2336 0253 01       		.byte	0x1
 2337 0254 3F       		.uleb128 0x3f
 2338 0255 19       		.uleb128 0x19
 2339 0256 03       		.uleb128 0x3
 2340 0257 0E       		.uleb128 0xe
 2341 0258 3A       		.uleb128 0x3a
 2342 0259 0B       		.uleb128 0xb
 2343 025a 3B       		.uleb128 0x3b
 2344 025b 0B       		.uleb128 0xb
 2345 025c 39       		.uleb128 0x39
 2346 025d 0B       		.uleb128 0xb
 2347 025e 27       		.uleb128 0x27
 2348 025f 19       		.uleb128 0x19
 2349 0260 49       		.uleb128 0x49
 2350 0261 13       		.uleb128 0x13
 2351 0262 11       		.uleb128 0x11
 2352 0263 01       		.uleb128 0x1
 2353 0264 12       		.uleb128 0x12
 2354 0265 06       		.uleb128 0x6
 2355 0266 40       		.uleb128 0x40
 2356 0267 18       		.uleb128 0x18
 2357 0268 7A       		.uleb128 0x7a
 2358 0269 19       		.uleb128 0x19
 2359 026a 01       		.uleb128 0x1
 2360 026b 13       		.uleb128 0x13
 2361 026c 00       		.byte	0
 2362 026d 00       		.byte	0
 2363 026e 29       		.uleb128 0x29
 2364 026f 1D       		.uleb128 0x1d
 2365 0270 01       		.byte	0x1
 2366 0271 31       		.uleb128 0x31
 2367 0272 13       		.uleb128 0x13
GAS LISTING /tmp/ccZ1yQJk.s 			page 43


 2368 0273 52       		.uleb128 0x52
 2369 0274 01       		.uleb128 0x1
 2370 0275 B842     		.uleb128 0x2138
 2371 0277 0B       		.uleb128 0xb
 2372 0278 11       		.uleb128 0x11
 2373 0279 01       		.uleb128 0x1
 2374 027a 12       		.uleb128 0x12
 2375 027b 06       		.uleb128 0x6
 2376 027c 58       		.uleb128 0x58
 2377 027d 0B       		.uleb128 0xb
 2378 027e 59       		.uleb128 0x59
 2379 027f 0B       		.uleb128 0xb
 2380 0280 57       		.uleb128 0x57
 2381 0281 0B       		.uleb128 0xb
 2382 0282 01       		.uleb128 0x1
 2383 0283 13       		.uleb128 0x13
 2384 0284 00       		.byte	0
 2385 0285 00       		.byte	0
 2386 0286 2A       		.uleb128 0x2a
 2387 0287 34       		.uleb128 0x34
 2388 0288 00       		.byte	0
 2389 0289 31       		.uleb128 0x31
 2390 028a 13       		.uleb128 0x13
 2391 028b 02       		.uleb128 0x2
 2392 028c 17       		.uleb128 0x17
 2393 028d B742     		.uleb128 0x2137
 2394 028f 17       		.uleb128 0x17
 2395 0290 00       		.byte	0
 2396 0291 00       		.byte	0
 2397 0292 2B       		.uleb128 0x2b
 2398 0293 1D       		.uleb128 0x1d
 2399 0294 00       		.byte	0
 2400 0295 31       		.uleb128 0x31
 2401 0296 13       		.uleb128 0x13
 2402 0297 52       		.uleb128 0x52
 2403 0298 01       		.uleb128 0x1
 2404 0299 B842     		.uleb128 0x2138
 2405 029b 0B       		.uleb128 0xb
 2406 029c 55       		.uleb128 0x55
 2407 029d 17       		.uleb128 0x17
 2408 029e 58       		.uleb128 0x58
 2409 029f 0B       		.uleb128 0xb
 2410 02a0 59       		.uleb128 0x59
 2411 02a1 0B       		.uleb128 0xb
 2412 02a2 57       		.uleb128 0x57
 2413 02a3 0B       		.uleb128 0xb
 2414 02a4 00       		.byte	0
 2415 02a5 00       		.byte	0
 2416 02a6 2C       		.uleb128 0x2c
 2417 02a7 1D       		.uleb128 0x1d
 2418 02a8 01       		.byte	0x1
 2419 02a9 31       		.uleb128 0x31
 2420 02aa 13       		.uleb128 0x13
 2421 02ab 52       		.uleb128 0x52
 2422 02ac 01       		.uleb128 0x1
 2423 02ad B842     		.uleb128 0x2138
 2424 02af 0B       		.uleb128 0xb
GAS LISTING /tmp/ccZ1yQJk.s 			page 44


 2425 02b0 55       		.uleb128 0x55
 2426 02b1 17       		.uleb128 0x17
 2427 02b2 58       		.uleb128 0x58
 2428 02b3 0B       		.uleb128 0xb
 2429 02b4 59       		.uleb128 0x59
 2430 02b5 0B       		.uleb128 0xb
 2431 02b6 57       		.uleb128 0x57
 2432 02b7 0B       		.uleb128 0xb
 2433 02b8 00       		.byte	0
 2434 02b9 00       		.byte	0
 2435 02ba 2D       		.uleb128 0x2d
 2436 02bb 0B       		.uleb128 0xb
 2437 02bc 01       		.byte	0x1
 2438 02bd 55       		.uleb128 0x55
 2439 02be 17       		.uleb128 0x17
 2440 02bf 00       		.byte	0
 2441 02c0 00       		.byte	0
 2442 02c1 2E       		.uleb128 0x2e
 2443 02c2 1D       		.uleb128 0x1d
 2444 02c3 00       		.byte	0
 2445 02c4 31       		.uleb128 0x31
 2446 02c5 13       		.uleb128 0x13
 2447 02c6 52       		.uleb128 0x52
 2448 02c7 01       		.uleb128 0x1
 2449 02c8 B842     		.uleb128 0x2138
 2450 02ca 0B       		.uleb128 0xb
 2451 02cb 55       		.uleb128 0x55
 2452 02cc 17       		.uleb128 0x17
 2453 02cd 58       		.uleb128 0x58
 2454 02ce 0B       		.uleb128 0xb
 2455 02cf 59       		.uleb128 0x59
 2456 02d0 05       		.uleb128 0x5
 2457 02d1 57       		.uleb128 0x57
 2458 02d2 0B       		.uleb128 0xb
 2459 02d3 00       		.byte	0
 2460 02d4 00       		.byte	0
 2461 02d5 2F       		.uleb128 0x2f
 2462 02d6 2E       		.uleb128 0x2e
 2463 02d7 01       		.byte	0x1
 2464 02d8 03       		.uleb128 0x3
 2465 02d9 0E       		.uleb128 0xe
 2466 02da 3A       		.uleb128 0x3a
 2467 02db 0B       		.uleb128 0xb
 2468 02dc 3B       		.uleb128 0x3b
 2469 02dd 0B       		.uleb128 0xb
 2470 02de 39       		.uleb128 0x39
 2471 02df 0B       		.uleb128 0xb
 2472 02e0 27       		.uleb128 0x27
 2473 02e1 19       		.uleb128 0x19
 2474 02e2 49       		.uleb128 0x49
 2475 02e3 13       		.uleb128 0x13
 2476 02e4 20       		.uleb128 0x20
 2477 02e5 0B       		.uleb128 0xb
 2478 02e6 01       		.uleb128 0x1
 2479 02e7 13       		.uleb128 0x13
 2480 02e8 00       		.byte	0
 2481 02e9 00       		.byte	0
GAS LISTING /tmp/ccZ1yQJk.s 			page 45


 2482 02ea 30       		.uleb128 0x30
 2483 02eb 34       		.uleb128 0x34
 2484 02ec 00       		.byte	0
 2485 02ed 03       		.uleb128 0x3
 2486 02ee 0E       		.uleb128 0xe
 2487 02ef 3A       		.uleb128 0x3a
 2488 02f0 0B       		.uleb128 0xb
 2489 02f1 3B       		.uleb128 0x3b
 2490 02f2 0B       		.uleb128 0xb
 2491 02f3 39       		.uleb128 0x39
 2492 02f4 0B       		.uleb128 0xb
 2493 02f5 49       		.uleb128 0x49
 2494 02f6 13       		.uleb128 0x13
 2495 02f7 00       		.byte	0
 2496 02f8 00       		.byte	0
 2497 02f9 31       		.uleb128 0x31
 2498 02fa 2E       		.uleb128 0x2e
 2499 02fb 00       		.byte	0
 2500 02fc 03       		.uleb128 0x3
 2501 02fd 0E       		.uleb128 0xe
 2502 02fe 3A       		.uleb128 0x3a
 2503 02ff 0B       		.uleb128 0xb
 2504 0300 3B       		.uleb128 0x3b
 2505 0301 0B       		.uleb128 0xb
 2506 0302 39       		.uleb128 0x39
 2507 0303 0B       		.uleb128 0xb
 2508 0304 27       		.uleb128 0x27
 2509 0305 19       		.uleb128 0x19
 2510 0306 49       		.uleb128 0x49
 2511 0307 13       		.uleb128 0x13
 2512 0308 20       		.uleb128 0x20
 2513 0309 0B       		.uleb128 0xb
 2514 030a 00       		.byte	0
 2515 030b 00       		.byte	0
 2516 030c 32       		.uleb128 0x32
 2517 030d 2E       		.uleb128 0x2e
 2518 030e 01       		.byte	0x1
 2519 030f 03       		.uleb128 0x3
 2520 0310 0E       		.uleb128 0xe
 2521 0311 3A       		.uleb128 0x3a
 2522 0312 0B       		.uleb128 0xb
 2523 0313 3B       		.uleb128 0x3b
 2524 0314 05       		.uleb128 0x5
 2525 0315 39       		.uleb128 0x39
 2526 0316 0B       		.uleb128 0xb
 2527 0317 27       		.uleb128 0x27
 2528 0318 19       		.uleb128 0x19
 2529 0319 20       		.uleb128 0x20
 2530 031a 0B       		.uleb128 0xb
 2531 031b 01       		.uleb128 0x1
 2532 031c 13       		.uleb128 0x13
 2533 031d 00       		.byte	0
 2534 031e 00       		.byte	0
 2535 031f 33       		.uleb128 0x33
 2536 0320 34       		.uleb128 0x34
 2537 0321 00       		.byte	0
 2538 0322 03       		.uleb128 0x3
GAS LISTING /tmp/ccZ1yQJk.s 			page 46


 2539 0323 0E       		.uleb128 0xe
 2540 0324 49       		.uleb128 0x49
 2541 0325 13       		.uleb128 0x13
 2542 0326 34       		.uleb128 0x34
 2543 0327 19       		.uleb128 0x19
 2544 0328 00       		.byte	0
 2545 0329 00       		.byte	0
 2546 032a 00       		.byte	0
 2547              		.section	.debug_loclists,"",@progbits
 2548 0000 2B000000 		.long	.Ldebug_loc3-.Ldebug_loc2
 2549              	.Ldebug_loc2:
 2550 0004 0500     		.value	0x5
 2551 0006 04       		.byte	0x4
 2552 0007 00       		.byte	0
 2553 0008 00000000 		.long	0
 2554              	.Ldebug_loc0:
 2555              	.LVUS2:
 2556 000c 00       		.uleb128 .LVU40
 2557 000d 00       		.uleb128 0
 2558              	.LLST2:
 2559 000e 08       		.byte	0x8
 2560 000f 25000000 		.long	.LVL7
 2561 0013 0B       		.uleb128 .LFE305-.LVL7
 2562 0014 01       		.uleb128 0x1
 2563 0015 50       		.byte	0x50
 2564 0016 00       		.byte	0
 2565              	.LVUS1:
 2566 0017 03       		.uleb128 .LVU15
 2567 0018 00       		.uleb128 .LVU17
 2568              	.LLST1:
 2569 0019 08       		.byte	0x8
 2570 001a 00000000 		.long	.LVL3
 2571 001e 17       		.uleb128 .LVL4-.LVL3
 2572 001f 02       		.uleb128 0x2
 2573 0020 30       		.byte	0x30
 2574 0021 9F       		.byte	0x9f
 2575 0022 00       		.byte	0
 2576              	.LVUS0:
 2577 0023 03       		.uleb128 .LVU3
 2578 0024 00       		.uleb128 .LVU5
 2579              	.LLST0:
 2580 0025 08       		.byte	0x8
 2581 0026 00000000 		.long	.LVL0
 2582 002a 17       		.uleb128 .LVL1-.LVL0
 2583 002b 02       		.uleb128 0x2
 2584 002c 30       		.byte	0x30
 2585 002d 9F       		.byte	0x9f
 2586 002e 00       		.byte	0
 2587              	.Ldebug_loc3:
 2588              		.section	.debug_aranges,"",@progbits
 2589 0000 2C000000 		.long	0x2c
 2590 0004 0200     		.value	0x2
 2591 0006 00000000 		.long	.Ldebug_info0
 2592 000a 04       		.byte	0x4
 2593 000b 00       		.byte	0
 2594 000c 0000     		.value	0
 2595 000e 0000     		.value	0
GAS LISTING /tmp/ccZ1yQJk.s 			page 47


 2596 0010 00000000 		.long	.LFB303
 2597 0014 34000000 		.long	.LFE303-.LFB303
 2598 0018 00000000 		.long	.LFB304
 2599 001c 3A000000 		.long	.LFE304-.LFB304
 2600 0020 00000000 		.long	.LFB305
 2601 0024 30000000 		.long	.LFE305-.LFB305
 2602 0028 00000000 		.long	0
 2603 002c 00000000 		.long	0
 2604              		.section	.debug_rnglists,"",@progbits
 2605              	.Ldebug_ranges0:
 2606 0000 33000000 		.long	.Ldebug_ranges3-.Ldebug_ranges2
 2607              	.Ldebug_ranges2:
 2608 0004 0500     		.value	0x5
 2609 0006 04       		.byte	0x4
 2610 0007 00       		.byte	0
 2611 0008 00000000 		.long	0
 2612              	.LLRL3:
 2613 000c 05       		.byte	0x5
 2614 000d 16000000 		.long	.LBB26
 2615 0011 04       		.byte	0x4
 2616 0012 00       		.uleb128 .LBB26-.LBB26
 2617 0013 06       		.uleb128 .LBE26-.LBB26
 2618 0014 04       		.byte	0x4
 2619 0015 0C       		.uleb128 .LBB36-.LBB26
 2620 0016 0F       		.uleb128 .LBE36-.LBB26
 2621 0017 00       		.byte	0
 2622              	.LLRL4:
 2623 0018 05       		.byte	0x5
 2624 0019 1C000000 		.long	.LBB29
 2625 001d 04       		.byte	0x4
 2626 001e 00       		.uleb128 .LBB29-.LBB29
 2627 001f 06       		.uleb128 .LBE29-.LBB29
 2628 0020 04       		.byte	0x4
 2629 0021 09       		.uleb128 .LBB37-.LBB29
 2630 0022 0F       		.uleb128 .LBE37-.LBB29
 2631 0023 00       		.byte	0
 2632              	.LLRL5:
 2633 0024 07       		.byte	0x7
 2634 0025 00000000 		.long	.LFB303
 2635 0029 34       		.uleb128 .LFE303-.LFB303
 2636 002a 07       		.byte	0x7
 2637 002b 00000000 		.long	.LFB304
 2638 002f 3A       		.uleb128 .LFE304-.LFB304
 2639 0030 07       		.byte	0x7
 2640 0031 00000000 		.long	.LFB305
 2641 0035 30       		.uleb128 .LFE305-.LFB305
 2642 0036 00       		.byte	0
 2643              	.Ldebug_ranges3:
 2644              		.section	.debug_line,"",@progbits
 2645              	.Ldebug_line0:
 2646 0000 ED010000 		.section	.debug_str,"MS",@progbits,1
 2646      05000400 
 2646      E1000000 
 2646      010101FB 
 2646      0E0D0001 
 2647              	.LASF141:
 2648 0000 63685468 		.string	"chThdSleep"
GAS LISTING /tmp/ccZ1yQJk.s 			page 48


 2648      64536C65 
 2648      657000
 2649              	.LASF108:
 2650 000b 72656164 		.string	"ready_list_t"
 2650      795F6C69 
 2650      73745F74 
 2650      00
 2651              	.LASF55:
 2652 0018 72666375 		.string	"rfcu"
 2652      00
 2653              	.LASF11:
 2654 001d 73697A65 		.string	"size_t"
 2654      5F7400
 2655              	.LASF79:
 2656 0024 64656C74 		.string	"delta"
 2656      6100
 2657              	.LASF96:
 2658 002a 7264796D 		.string	"rdymsg"
 2658      736700
 2659              	.LASF22:
 2660 0031 75696E74 		.string	"uint64_t"
 2660      36345F74 
 2660      00
 2661              	.LASF12:
 2662 003a 5F5F7569 		.string	"__uint8_t"
 2662      6E74385F 
 2662      7400
 2663              	.LASF73:
 2664 0044 70726576 		.string	"prev"
 2664      00
 2665              	.LASF81:
 2666 0049 706F7274 		.string	"port_intctx"
 2666      5F696E74 
 2666      63747800 
 2667              	.LASF65:
 2668 0055 73797374 		.string	"system_debug_t"
 2668      656D5F64 
 2668      65627567 
 2668      5F7400
 2669              	.LASF54:
 2670 0064 636F7265 		.string	"core_id"
 2670      5F696400 
 2671              	.LASF3:
 2672 006c 6C6F6E67 		.string	"long int"
 2672      20696E74 
 2672      00
 2673              	.LASF74:
 2674 0075 63685F70 		.string	"ch_priority_queue_t"
 2674      72696F72 
 2674      6974795F 
 2674      71756575 
 2674      655F7400 
 2675              	.LASF6:
 2676 0089 5F466C6F 		.string	"_Float128"
 2676      61743132 
 2676      3800
 2677              	.LASF17:
GAS LISTING /tmp/ccZ1yQJk.s 			page 49


 2678 0093 6C6F6E67 		.string	"long long unsigned int"
 2678      206C6F6E 
 2678      6720756E 
 2678      7369676E 
 2678      65642069 
 2679              	.LASF41:
 2680 00aa 64697370 		.string	"dispose"
 2680      6F736500 
 2681              	.LASF97:
 2682 00b2 65786974 		.string	"exitcode"
 2682      636F6465 
 2682      00
 2683              	.LASF58:
 2684 00bb 6D61696E 		.string	"mainthread"
 2684      74687265 
 2684      616400
 2685              	.LASF100:
 2686 00c6 73656E74 		.string	"sentmsg"
 2686      6D736700 
 2687              	.LASF88:
 2688 00ce 76697274 		.string	"virtual_timers_list_t"
 2688      75616C5F 
 2688      74696D65 
 2688      72735F6C 
 2688      6973745F 
 2689              	.LASF70:
 2690 00e4 6E657874 		.string	"next"
 2690      00
 2691              	.LASF42:
 2692 00e9 6F626A65 		.string	"object"
 2692      637400
 2693              	.LASF118:
 2694 00f0 74656172 		.string	"teardown"
 2694      646F776E 
 2694      00
 2695              	.LASF38:
 2696 00f9 72656673 		.string	"refs"
 2696      00
 2697              	.LASF111:
 2698 00fe 63737461 		.string	"cstack_end"
 2698      636B5F65 
 2698      6E6400
 2699              	.LASF4:
 2700 0109 6C6F6E67 		.string	"long long int"
 2700      206C6F6E 
 2700      6720696E 
 2700      7400
 2701              	.LASF10:
 2702 0117 7369676E 		.string	"signed char"
 2702      65642063 
 2702      68617200 
 2703              	.LASF122:
 2704 0123 74657374 		.string	"testsequence_t"
 2704      73657175 
 2704      656E6365 
 2704      5F7400
 2705              	.LASF78:
GAS LISTING /tmp/ccZ1yQJk.s 			page 50


 2706 0132 63685F64 		.string	"ch_delta_list"
 2706      656C7461 
 2706      5F6C6973 
 2706      7400
 2707              	.LASF52:
 2708 0140 76746C69 		.string	"vtlist"
 2708      737400
 2709              	.LASF146:
 2710 0147 706F7274 		.string	"port_unlock"
 2710      5F756E6C 
 2710      6F636B00 
 2711              	.LASF44:
 2712 0153 6D736771 		.string	"msgqueue"
 2712      75657565 
 2712      00
 2713              	.LASF36:
 2714 015c 73746174 		.string	"state"
 2714      6500
 2715              	.LASF149:
 2716 0162 73746B6C 		.string	"stkline_t"
 2716      696E655F 
 2716      7400
 2717              	.LASF25:
 2718 016c 74737461 		.string	"tstate_t"
 2718      74655F74 
 2718      00
 2719              	.LASF60:
 2720 0175 63685F72 		.string	"ch_rfcu"
 2720      66637500 
 2721              	.LASF72:
 2722 017d 63685F71 		.string	"ch_queue"
 2722      75657565 
 2722      00
 2723              	.LASF90:
 2724 0186 71756575 		.string	"queue"
 2724      6500
 2725              	.LASF77:
 2726 018c 63685F64 		.string	"ch_delta_list_t"
 2726      656C7461 
 2726      5F6C6973 
 2726      745F7400 
 2727              	.LASF89:
 2728 019c 63685F72 		.string	"ch_registry"
 2728      65676973 
 2728      74727900 
 2729              	.LASF142:
 2730 01a8 63685468 		.string	"chThdTerminate"
 2730      64546572 
 2730      6D696E61 
 2730      746500
 2731              	.LASF137:
 2732 01b7 72745F74 		.string	"rt_test_suite"
 2732      6573745F 
 2732      73756974 
 2732      6500
 2733              	.LASF15:
 2734 01c5 5F5F7569 		.string	"__uint32_t"
GAS LISTING /tmp/ccZ1yQJk.s 			page 51


 2734      6E743332 
 2734      5F7400
 2735              	.LASF35:
 2736 01d0 7761656E 		.string	"waend"
 2736      6400
 2737              	.LASF43:
 2738 01d6 77616974 		.string	"waiting"
 2738      696E6700 
 2739              	.LASF112:
 2740 01de 69646C65 		.string	"idlestack_base"
 2740      73746163 
 2740      6B5F6261 
 2740      736500
 2741              	.LASF116:
 2742 01ed 6D757465 		.string	"mutex_t"
 2742      785F7400 
 2743              	.LASF67:
 2744 01f5 73797369 		.string	"sysinterval_t"
 2744      6E746572 
 2744      76616C5F 
 2744      7400
 2745              	.LASF30:
 2746 0203 636E745F 		.string	"cnt_t"
 2746      7400
 2747              	.LASF153:
 2748 0209 63685654 		.string	"chVTGetSystemTimeX"
 2748      47657453 
 2748      79737465 
 2748      6D54696D 
 2748      655800
 2749              	.LASF2:
 2750 021c 756E7369 		.string	"unsigned int"
 2750      676E6564 
 2750      20696E74 
 2750      00
 2751              	.LASF101:
 2752 0229 77747365 		.string	"wtsemp"
 2752      6D7000
 2753              	.LASF99:
 2754 0230 77747472 		.string	"wttrp"
 2754      7000
 2755              	.LASF40:
 2756 0236 72717565 		.string	"rqueue"
 2756      756500
 2757              	.LASF71:
 2758 023d 63685F71 		.string	"ch_queue_t"
 2758      75657565 
 2758      5F7400
 2759              	.LASF39:
 2760 0248 6E616D65 		.string	"name"
 2760      00
 2761              	.LASF93:
 2762 024d 74687265 		.string	"thread_dispose_t"
 2762      61645F64 
 2762      6973706F 
 2762      73655F74 
 2762      00
GAS LISTING /tmp/ccZ1yQJk.s 			page 52


 2763              	.LASF8:
 2764 025e 73686F72 		.string	"short unsigned int"
 2764      7420756E 
 2764      7369676E 
 2764      65642069 
 2764      6E7400
 2765              	.LASF68:
 2766 0271 63685F6C 		.string	"ch_list_t"
 2766      6973745F 
 2766      7400
 2767              	.LASF49:
 2768 027b 63685F74 		.string	"ch_thread"
 2768      68726561 
 2768      6400
 2769              	.LASF28:
 2770 0285 6D73675F 		.string	"msg_t"
 2770      7400
 2771              	.LASF125:
 2772 028b 72745F74 		.string	"rt_test_sequence_001"
 2772      6573745F 
 2772      73657175 
 2772      656E6365 
 2772      5F303031 
 2773              	.LASF126:
 2774 02a0 72745F74 		.string	"rt_test_sequence_002"
 2774      6573745F 
 2774      73657175 
 2774      656E6365 
 2774      5F303032 
 2775              	.LASF45:
 2776 02b5 6570656E 		.string	"epending"
 2776      64696E67 
 2776      00
 2777              	.LASF128:
 2778 02be 72745F74 		.string	"rt_test_sequence_004"
 2778      6573745F 
 2778      73657175 
 2778      656E6365 
 2778      5F303034 
 2779              	.LASF129:
 2780 02d3 72745F74 		.string	"rt_test_sequence_005"
 2780      6573745F 
 2780      73657175 
 2780      656E6365 
 2780      5F303035 
 2781              	.LASF130:
 2782 02e8 72745F74 		.string	"rt_test_sequence_006"
 2782      6573745F 
 2782      73657175 
 2782      656E6365 
 2782      5F303036 
 2783              	.LASF131:
 2784 02fd 72745F74 		.string	"rt_test_sequence_007"
 2784      6573745F 
 2784      73657175 
 2784      656E6365 
 2784      5F303037 
GAS LISTING /tmp/ccZ1yQJk.s 			page 53


 2785              	.LASF132:
 2786 0312 72745F74 		.string	"rt_test_sequence_008"
 2786      6573745F 
 2786      73657175 
 2786      656E6365 
 2786      5F303038 
 2787              	.LASF133:
 2788 0327 72745F74 		.string	"rt_test_sequence_009"
 2788      6573745F 
 2788      73657175 
 2788      656E6365 
 2788      5F303039 
 2789              	.LASF24:
 2790 033c 746D6F64 		.string	"tmode_t"
 2790      655F7400 
 2791              	.LASF86:
 2792 0344 73797374 		.string	"systime"
 2792      696D6500 
 2793              	.LASF69:
 2794 034c 63685F6C 		.string	"ch_list"
 2794      69737400 
 2795              	.LASF106:
 2796 0354 63685F72 		.string	"ch_ready_list"
 2796      65616479 
 2796      5F6C6973 
 2796      7400
 2797              	.LASF29:
 2798 0362 6576656E 		.string	"eventmask_t"
 2798      746D6173 
 2798      6B5F7400 
 2799              	.LASF13:
 2800 036e 73686F72 		.string	"short int"
 2800      7420696E 
 2800      7400
 2801              	.LASF120:
 2802 0378 74657374 		.string	"testcase_t"
 2802      63617365 
 2802      5F7400
 2803              	.LASF140:
 2804 0383 72745F74 		.string	"rt_test_suite_array"
 2804      6573745F 
 2804      73756974 
 2804      655F6172 
 2804      72617900 
 2805              	.LASF87:
 2806 0397 6C617374 		.string	"laststamp"
 2806      7374616D 
 2806      7000
 2807              	.LASF47:
 2808 03a1 7265616C 		.string	"realprio"
 2808      7072696F 
 2808      00
 2809              	.LASF148:
 2810 03aa 474E5520 		.string	"GNU C17 11.4.0 -m32 -mtune=generic -march=i686 -ggdb -O2 -ffunction-sections -fdata-secti
 2810      43313720 
 2810      31312E34 
 2810      2E30202D 
GAS LISTING /tmp/ccZ1yQJk.s 			page 54


 2810      6D333220 
 2811              	.LASF59:
 2812 0462 72666375 		.string	"rfcu_mask_t"
 2812      5F6D6173 
 2812      6B5F7400 
 2813              	.LASF92:
 2814 046e 74687265 		.string	"thread_reference_t"
 2814      61645F72 
 2814      65666572 
 2814      656E6365 
 2814      5F7400
 2815              	.LASF84:
 2816 0481 63685F76 		.string	"ch_virtual_timers_list"
 2816      69727475 
 2816      616C5F74 
 2816      696D6572 
 2816      735F6C69 
 2817              	.LASF5:
 2818 0498 6C6F6E67 		.string	"long double"
 2818      20646F75 
 2818      626C6500 
 2819              	.LASF138:
 2820 04a4 74657374 		.string	"test_buffer"
 2820      5F627566 
 2820      66657200 
 2821              	.LASF110:
 2822 04b0 63737461 		.string	"cstack_base"
 2822      636B5F62 
 2822      61736500 
 2823              	.LASF143:
 2824 04bc 74657374 		.string	"test_wait_threads"
 2824      5F776169 
 2824      745F7468 
 2824      72656164 
 2824      7300
 2825              	.LASF135:
 2826 04ce 72745F74 		.string	"rt_test_sequence_011"
 2826      6573745F 
 2826      73657175 
 2826      656E6365 
 2826      5F303131 
 2827              	.LASF136:
 2828 04e3 72745F74 		.string	"rt_test_sequence_012"
 2828      6573745F 
 2828      73657175 
 2828      656E6365 
 2828      5F303132 
 2829              	.LASF109:
 2830 04f8 63685F6F 		.string	"ch_os_instance_config"
 2830      735F696E 
 2830      7374616E 
 2830      63655F63 
 2830      6F6E6669 
 2831              	.LASF82:
 2832 050e 706F7274 		.string	"port_context"
 2832      5F636F6E 
 2832      74657874 
GAS LISTING /tmp/ccZ1yQJk.s 			page 55


 2832      00
 2833              	.LASF124:
 2834 051b 74657374 		.string	"testsuite_t"
 2834      73756974 
 2834      655F7400 
 2835              	.LASF117:
 2836 0527 73657475 		.string	"setup"
 2836      7000
 2837              	.LASF152:
 2838 052d 63685654 		.string	"chVTGetSystemTime"
 2838      47657453 
 2838      79737465 
 2838      6D54696D 
 2838      6500
 2839              	.LASF76:
 2840 053f 7072696F 		.string	"prio"
 2840      00
 2841              	.LASF113:
 2842 0544 69646C65 		.string	"idlestack_end"
 2842      73746163 
 2842      6B5F656E 
 2842      6400
 2843              	.LASF107:
 2844 0552 63757272 		.string	"current"
 2844      656E7400 
 2845              	.LASF16:
 2846 055a 5F5F7569 		.string	"__uint64_t"
 2846      6E743634 
 2846      5F7400
 2847              	.LASF31:
 2848 0565 636F7265 		.string	"core_id_t"
 2848      5F69645F 
 2848      7400
 2849              	.LASF26:
 2850 056f 74726566 		.string	"trefs_t"
 2850      735F7400 
 2851              	.LASF144:
 2852 0577 74657374 		.string	"test_terminate_threads"
 2852      5F746572 
 2852      6D696E61 
 2852      74655F74 
 2852      68726561 
 2853              	.LASF119:
 2854 058e 65786563 		.string	"execute"
 2854      75746500 
 2855              	.LASF27:
 2856 0596 74707269 		.string	"tprio_t"
 2856      6F5F7400 
 2857              	.LASF63:
 2858 059e 63685F73 		.string	"ch_system_debug"
 2858      79737465 
 2858      6D5F6465 
 2858      62756700 
 2859              	.LASF83:
 2860 05ae 5F426F6F 		.string	"_Bool"
 2860      6C00
 2861              	.LASF19:
GAS LISTING /tmp/ccZ1yQJk.s 			page 56


 2862 05b4 696E7433 		.string	"int32_t"
 2862      325F7400 
 2863              	.LASF7:
 2864 05bc 756E7369 		.string	"unsigned char"
 2864      676E6564 
 2864      20636861 
 2864      7200
 2865              	.LASF151:
 2866 05ca 74657374 		.string	"test_wait_tick"
 2866      5F776169 
 2866      745F7469 
 2866      636B00
 2867              	.LASF62:
 2868 05d9 72666375 		.string	"rfcu_t"
 2868      5F7400
 2869              	.LASF139:
 2870 05e0 74687265 		.string	"threads"
 2870      61647300 
 2871              	.LASF103:
 2872 05e8 65776D61 		.string	"ewmask"
 2872      736B00
 2873              	.LASF134:
 2874 05ef 72745F74 		.string	"rt_test_sequence_010"
 2874      6573745F 
 2874      73657175 
 2874      656E6365 
 2874      5F303130 
 2875              	.LASF155:
 2876 0604 5F5F6675 		.string	"__func__"
 2876      6E635F5F 
 2876      00
 2877              	.LASF145:
 2878 060d 63685379 		.string	"chSysLock"
 2878      734C6F63 
 2878      6B00
 2879              	.LASF104:
 2880 0617 63685F73 		.string	"ch_semaphore"
 2880      656D6170 
 2880      686F7265 
 2880      00
 2881              	.LASF91:
 2882 0624 72656769 		.string	"registry_t"
 2882      73747279 
 2882      5F7400
 2883              	.LASF21:
 2884 062f 75696E74 		.string	"uint32_t"
 2884      33325F74 
 2884      00
 2885              	.LASF102:
 2886 0638 77746D74 		.string	"wtmtxp"
 2886      787000
 2887              	.LASF33:
 2888 063f 6F776E65 		.string	"owner"
 2888      7200
 2889              	.LASF115:
 2890 0645 706F7274 		.string	"port_irq_sts"
 2890      5F697271 
GAS LISTING /tmp/ccZ1yQJk.s 			page 57


 2890      5F737473 
 2890      00
 2891              	.LASF9:
 2892 0652 6C6F6E67 		.string	"long unsigned int"
 2892      20756E73 
 2892      69676E65 
 2892      6420696E 
 2892      7400
 2893              	.LASF34:
 2894 0664 77616261 		.string	"wabase"
 2894      736500
 2895              	.LASF18:
 2896 066b 63686172 		.string	"char"
 2896      00
 2897              	.LASF56:
 2898 0670 636F6E66 		.string	"config"
 2898      696700
 2899              	.LASF32:
 2900 0677 74687265 		.string	"thread_t"
 2900      61645F74 
 2900      00
 2901              	.LASF85:
 2902 0680 646C6973 		.string	"dlist"
 2902      7400
 2903              	.LASF66:
 2904 0686 73797374 		.string	"systime_t"
 2904      696D655F 
 2904      7400
 2905              	.LASF80:
 2906 0690 72656778 		.string	"regx86"
 2906      383600
 2907              	.LASF14:
 2908 0697 5F5F696E 		.string	"__int32_t"
 2908      7433325F 
 2908      7400
 2909              	.LASF64:
 2910 06a1 70616E69 		.string	"panic_msg"
 2910      635F6D73 
 2910      6700
 2911              	.LASF95:
 2912 06ab 70717565 		.string	"pqueue"
 2912      756500
 2913              	.LASF50:
 2914 06b2 63685F6F 		.string	"ch_os_instance"
 2914      735F696E 
 2914      7374616E 
 2914      636500
 2915              	.LASF48:
 2916 06c1 6F735F69 		.string	"os_instance_t"
 2916      6E737461 
 2916      6E63655F 
 2916      7400
 2917              	.LASF53:
 2918 06cf 7265676C 		.string	"reglist"
 2918      69737400 
 2919              	.LASF75:
 2920 06d7 63685F70 		.string	"ch_priority_queue"
GAS LISTING /tmp/ccZ1yQJk.s 			page 58


 2920      72696F72 
 2920      6974795F 
 2920      71756575 
 2920      6500
 2921              	.LASF23:
 2922 06e9 73797373 		.string	"syssts_t"
 2922      74735F74 
 2922      00
 2923              	.LASF150:
 2924 06f2 63685468 		.string	"chThdWait"
 2924      64576169 
 2924      7400
 2925              	.LASF123:
 2926 06fc 73657175 		.string	"sequences"
 2926      656E6365 
 2926      7300
 2927              	.LASF127:
 2928 0706 72745F74 		.string	"rt_test_sequence_003"
 2928      6573745F 
 2928      73657175 
 2928      656E6365 
 2928      5F303033 
 2929              	.LASF114:
 2930 071b 6F735F69 		.string	"os_instance_config_t"
 2930      6E737461 
 2930      6E63655F 
 2930      636F6E66 
 2930      69675F74 
 2931              	.LASF105:
 2932 0730 63685F6D 		.string	"ch_mutex"
 2932      75746578 
 2932      00
 2933              	.LASF61:
 2934 0739 6D61736B 		.string	"mask"
 2934      00
 2935              	.LASF51:
 2936 073e 726C6973 		.string	"rlist"
 2936      7400
 2937              	.LASF20:
 2938 0744 75696E74 		.string	"uint8_t"
 2938      385F7400 
 2939              	.LASF37:
 2940 074c 666C6167 		.string	"flags"
 2940      7300
 2941              	.LASF98:
 2942 0752 77746F62 		.string	"wtobjp"
 2942      6A7000
 2943              	.LASF154:
 2944 0759 63685379 		.string	"chSysUnlock"
 2944      73556E6C 
 2944      6F636B00 
 2945              	.LASF94:
 2946 0765 6C697374 		.string	"list"
 2946      00
 2947              	.LASF147:
 2948 076a 706F7274 		.string	"port_lock"
 2948      5F6C6F63 
GAS LISTING /tmp/ccZ1yQJk.s 			page 59


 2948      6B00
 2949              	.LASF46:
 2950 0774 6D74786C 		.string	"mtxlist"
 2950      69737400 
 2951              	.LASF121:
 2952 077c 63617365 		.string	"cases"
 2952      7300
 2953              	.LASF57:
 2954 0782 69646C65 		.string	"idlethread"
 2954      74687265 
 2954      616400
 2955              		.section	.debug_line_str,"MS",@progbits,1
 2956              	.LASF1:
 2957 0000 2F686F6D 		.string	"/home/alex/ChibiOS/demos/various/LAB1"
 2957      652F616C 
 2957      65782F43 
 2957      68696269 
 2957      4F532F64 
 2958              	.LASF0:
 2959 0026 2E2E2F2E 		.string	"../../../test/rt/source/test/rt_test_root.c"
 2959      2E2F2E2E 
 2959      2F746573 
 2959      742F7274 
 2959      2F736F75 
 2960              		.ident	"GCC: (Ubuntu 11.4.0-1ubuntu1~22.04) 11.4.0"
 2961 0052 2F686F6D 		.section	.note.GNU-stack,"",@progbits
 2961      652F616C 
 2961      65782F43 
 2961      68696269 
 2961      4F532F64 
GAS LISTING /tmp/ccZ1yQJk.s 			page 60


DEFINED SYMBOLS
                            *ABS*:0000000000000000 rt_test_root.c
     /tmp/ccZ1yQJk.s:9      .text.test_terminate_threads:0000000000000000 test_terminate_threads
     /tmp/ccZ1yQJk.s:289    .text.__x86.get_pc_thunk.bx:0000000000000000 __x86.get_pc_thunk.bx
     /tmp/ccZ1yQJk.s:246    .bss.threads:0000000000000000 threads
     /tmp/ccZ1yQJk.s:73     .text.test_wait_threads:0000000000000000 test_wait_threads
     /tmp/ccZ1yQJk.s:139    .text.test_wait_tick:0000000000000000 test_wait_tick
     /tmp/ccZ1yQJk.s:235    .data.rel.ro.local.wa:0000000000000000 wa
     /tmp/ccZ1yQJk.s:253    .bss.test_buffer:0000000000000000 test_buffer
     /tmp/ccZ1yQJk.s:263    .data.rel.ro.local.rt_test_suite:0000000000000000 rt_test_suite
     /tmp/ccZ1yQJk.s:271    .data.rel.ro.rt_test_suite_array:0000000000000000 rt_test_suite_array

UNDEFINED SYMBOLS
_GLOBAL_OFFSET_TABLE_
chThdTerminate
chThdWait
chThdSleep
ch0
port_irq_sts
rt_test_sequence_001
rt_test_sequence_002
rt_test_sequence_003
rt_test_sequence_004
rt_test_sequence_005
rt_test_sequence_006
rt_test_sequence_007
rt_test_sequence_008
rt_test_sequence_009
rt_test_sequence_010
rt_test_sequence_011
rt_test_sequence_012
