GAS LISTING /tmp/ccZ1yQJk.s 			page 1


   1              		.file	"rt_test_root.c"
   2              		.text
   3              	.Ltext0:
   4              		.file 0 "/home/alex/ChibiOS/demos/various/LAB1" "../../../test/rt/source/test/rt_test_root.c"
   5              		.section	.text.test_terminate_threads,"ax",@progbits
   6              		.p2align 4
   7              		.globl	test_terminate_threads
   8              		.type	test_terminate_threads, @function
   9              	test_terminate_threads:
  10              	.LFB303:
  11              		.file 1 "../../../test/rt/source/test/rt_test_root.c"
  12              		.loc 1 118 35 view -0
  13              		.cfi_startproc
  14              		.loc 1 119 3 view .LVU1
  15              		.loc 1 121 3 view .LVU2
  16              	.LVL0:
  17              		.loc 1 121 17 view .LVU3
  18              		.loc 1 118 35 is_stmt 0 view .LVU4
  19 0000 57       		pushl	%edi
  20              		.cfi_def_cfa_offset 8
  21              		.cfi_offset 7, -8
  22 0001 56       		pushl	%esi
  23              		.cfi_def_cfa_offset 12
  24              		.cfi_offset 6, -12
  25 0002 53       		pushl	%ebx
  26              		.cfi_def_cfa_offset 16
  27              		.cfi_offset 3, -16
  28 0003 E8FCFFFF 		call	__x86.get_pc_thunk.bx
  28      FF
  29 0008 81C30200 		addl	$_GLOBAL_OFFSET_TABLE_, %ebx
  29      0000
  30 000e 8DB30000 		leal	threads@GOTOFF(%ebx), %esi
  30      0000
  31 0014 8D7E14   		leal	20(%esi), %edi
  32              	.LVL1:
  33              	.L3:
  34              		.loc 1 122 5 is_stmt 1 view .LVU5
  35              		.loc 1 122 16 is_stmt 0 view .LVU6
  36 0017 8B06     		movl	(%esi), %eax
  37              		.loc 1 122 8 view .LVU7
  38 0019 85C0     		testl	%eax, %eax
  39 001b 740C     		je	.L2
  40              		.loc 1 123 7 is_stmt 1 view .LVU8
  41 001d 83EC0C   		subl	$12, %esp
  42              		.cfi_def_cfa_offset 28
  43 0020 50       		pushl	%eax
  44              		.cfi_def_cfa_offset 32
  45 0021 E8FCFFFF 		call	chThdTerminate@PLT
  45      FF
  46              	.LVL2:
  47 0026 83C410   		addl	$16, %esp
  48              		.cfi_def_cfa_offset 16
  49              	.L2:
  50              		.loc 1 121 33 discriminator 2 view .LVU9
  51              		.loc 1 121 17 discriminator 2 view .LVU10
  52 0029 83C604   		addl	$4, %esi
  53 002c 39FE     		cmpl	%edi, %esi
GAS LISTING /tmp/ccZ1yQJk.s 			page 2


  54 002e 75E7     		jne	.L3
  55              		.loc 1 124 1 is_stmt 0 view .LVU11
  56 0030 5B       		popl	%ebx
  57              		.cfi_restore 3
  58              		.cfi_def_cfa_offset 12
  59 0031 5E       		popl	%esi
  60              		.cfi_restore 6
  61              		.cfi_def_cfa_offset 8
  62 0032 5F       		popl	%edi
  63              		.cfi_restore 7
  64              		.cfi_def_cfa_offset 4
  65 0033 C3       		ret
  66              		.cfi_endproc
  67              	.LFE303:
  68              		.size	test_terminate_threads, .-test_terminate_threads
  69              		.section	.text.test_wait_threads,"ax",@progbits
  70              		.p2align 4
  71              		.globl	test_wait_threads
  72              		.type	test_wait_threads, @function
  73              	test_wait_threads:
  74              	.LFB304:
  75              		.loc 1 129 30 is_stmt 1 view -0
  76              		.cfi_startproc
  77              		.loc 1 130 3 view .LVU13
  78              		.loc 1 132 3 view .LVU14
  79              	.LVL3:
  80              		.loc 1 132 17 view .LVU15
  81              		.loc 1 129 30 is_stmt 0 view .LVU16
  82 0000 57       		pushl	%edi
  83              		.cfi_def_cfa_offset 8
  84              		.cfi_offset 7, -8
  85 0001 56       		pushl	%esi
  86              		.cfi_def_cfa_offset 12
  87              		.cfi_offset 6, -12
  88 0002 53       		pushl	%ebx
  89              		.cfi_def_cfa_offset 16
  90              		.cfi_offset 3, -16
  91 0003 E8FCFFFF 		call	__x86.get_pc_thunk.bx
  91      FF
  92 0008 81C30200 		addl	$_GLOBAL_OFFSET_TABLE_, %ebx
  92      0000
  93 000e 8DB30000 		leal	threads@GOTOFF(%ebx), %esi
  93      0000
  94 0014 8D7E14   		leal	20(%esi), %edi
  95              	.LVL4:
  96              	.L12:
  97              		.loc 1 133 5 is_stmt 1 view .LVU17
  98              		.loc 1 133 16 is_stmt 0 view .LVU18
  99 0017 8B06     		movl	(%esi), %eax
 100              		.loc 1 133 8 view .LVU19
 101 0019 85C0     		testl	%eax, %eax
 102 001b 7412     		je	.L11
 103              		.loc 1 134 7 is_stmt 1 view .LVU20
 104 001d 83EC0C   		subl	$12, %esp
 105              		.cfi_def_cfa_offset 28
 106 0020 50       		pushl	%eax
 107              		.cfi_def_cfa_offset 32
GAS LISTING /tmp/ccZ1yQJk.s 			page 3


 108 0021 E8FCFFFF 		call	chThdWait@PLT
 108      FF
 109              	.LVL5:
 110              		.loc 1 135 7 view .LVU21
 111              		.loc 1 135 18 is_stmt 0 view .LVU22
 112 0026 C7060000 		movl	$0, (%esi)
 112      0000
 113 002c 83C410   		addl	$16, %esp
 114              		.cfi_def_cfa_offset 16
 115              	.L11:
 116              		.loc 1 132 33 is_stmt 1 discriminator 2 view .LVU23
 117              		.loc 1 132 17 discriminator 2 view .LVU24
 118 002f 83C604   		addl	$4, %esi
 119 0032 39FE     		cmpl	%edi, %esi
 120 0034 75E1     		jne	.L12
 121              		.loc 1 137 1 is_stmt 0 view .LVU25
 122 0036 5B       		popl	%ebx
 123              		.cfi_restore 3
 124              		.cfi_def_cfa_offset 12
 125 0037 5E       		popl	%esi
 126              		.cfi_restore 6
 127              		.cfi_def_cfa_offset 8
 128 0038 5F       		popl	%edi
 129              		.cfi_restore 7
 130              		.cfi_def_cfa_offset 4
 131 0039 C3       		ret
 132              		.cfi_endproc
 133              	.LFE304:
 134              		.size	test_wait_threads, .-test_wait_threads
 135              		.section	.text.test_wait_tick,"ax",@progbits
 136              		.p2align 4
 137              		.globl	test_wait_tick
 138              		.type	test_wait_tick, @function
 139              	test_wait_tick:
 140              	.LFB305:
 141              		.loc 1 142 32 is_stmt 1 view -0
 142              		.cfi_startproc
 143              		.loc 1 144 3 view .LVU27
 144              		.loc 1 142 32 is_stmt 0 view .LVU28
 145 0000 53       		pushl	%ebx
 146              		.cfi_def_cfa_offset 8
 147              		.cfi_offset 3, -8
 148 0001 E8FCFFFF 		call	__x86.get_pc_thunk.bx
 148      FF
 149 0006 81C30200 		addl	$_GLOBAL_OFFSET_TABLE_, %ebx
 149      0000
 150 000c 83EC14   		subl	$20, %esp
 151              		.cfi_def_cfa_offset 28
 152              		.loc 1 144 3 view .LVU29
 153 000f 6A01     		pushl	$1
 154              		.cfi_def_cfa_offset 32
 155 0011 E8FCFFFF 		call	chThdSleep@PLT
 155      FF
 156              	.LVL6:
 157              		.loc 1 145 3 is_stmt 1 view .LVU30
 158              	.LBB24:
 159              	.LBI24:
GAS LISTING /tmp/ccZ1yQJk.s 			page 4


 160              		.file 2 "../../../os/rt/include/chvt.h"
 161              		.loc 2 154 25 view .LVU31
 162              	.LBB25:
 163              		.loc 2 155 3 view .LVU32
 164              		.loc 2 157 3 view .LVU33
 165              		.loc 2 158 3 view .LVU34
 166              	.LBB26:
 167              	.LBI26:
 168              		.loc 2 135 25 view .LVU35
 169              	.LBB27:
 170              		.loc 2 138 3 view .LVU36
 171              		.loc 2 138 26 is_stmt 0 view .LVU37
 172 0016 8B830000 		movl	ch0@GOT(%ebx), %eax
 172      0000
 173              	.LBE27:
 174              	.LBE26:
 175              	.LBB29:
 176              	.LBB30:
 177              	.LBB31:
 178              	.LBB32:
 179              		.file 3 "../../../os/common/ports/SIMIA32/chcore.h"
 180              		.loc 3 372 16 view .LVU38
 181 001c 8B930000 		movl	port_irq_sts@GOT(%ebx), %edx
 181      0000
 182              	.LBE32:
 183              	.LBE31:
 184              	.LBE30:
 185              	.LBE29:
 186              	.LBB36:
 187              	.LBB28:
 188              		.loc 2 138 26 view .LVU39
 189 0022 8B401C   		movl	28(%eax), %eax
 190              	.LVL7:
 191              		.loc 2 138 26 view .LVU40
 192              	.LBE28:
 193              	.LBE36:
 194              		.loc 2 159 3 is_stmt 1 view .LVU41
 195              	.LBB37:
 196              	.LBI29:
 197              		.file 4 "../../../os/rt/include/chsys.h"
 198              		.loc 4 421 20 view .LVU42
 199              	.LBB35:
 200              		.loc 4 423 23 view .LVU43
 201              		.loc 4 424 34 view .LVU44
 202              		.loc 4 430 3 view .LVU45
 203              		.loc 4 430 3 view .LVU46
 204              		.loc 4 430 3 view .LVU47
 205              		.loc 4 434 3 view .LVU48
 206              	.LBB34:
 207              	.LBI31:
 208              		.loc 3 370 20 view .LVU49
 209              	.LBB33:
 210              		.loc 3 372 3 view .LVU50
 211              		.loc 3 372 16 is_stmt 0 view .LVU51
 212 0025 C7020000 		movl	$0, (%edx)
 212      0000
 213              	.LBE33:
GAS LISTING /tmp/ccZ1yQJk.s 			page 5


 214              	.LBE34:
 215              	.LBE35:
 216              	.LBE37:
 217              		.loc 2 161 3 is_stmt 1 view .LVU52
 218              	.LBE25:
 219              	.LBE24:
 220              		.loc 1 146 1 is_stmt 0 view .LVU53
 221 002b 83C418   		addl	$24, %esp
 222              		.cfi_def_cfa_offset 8
 223 002e 5B       		popl	%ebx
 224              		.cfi_restore 3
 225              		.cfi_def_cfa_offset 4
 226 002f C3       		ret
 227              		.cfi_endproc
 228              	.LFE305:
 229              		.size	test_wait_tick, .-test_wait_tick
 230              		.globl	wa
 231              		.section	.data.rel.ro.local.wa,"aw"
 232              		.align 4
 233              		.type	wa, @object
 234              		.size	wa, 20
 235              	wa:
 236 0000 00000000 		.long	test_buffer
 237 0004 40410000 		.long	test_buffer+16704
 238 0008 80820000 		.long	test_buffer+33408
 239 000c C0C30000 		.long	test_buffer+50112
 240 0010 00050100 		.long	test_buffer+66816
 241              		.globl	threads
 242              		.section	.bss.threads,"aw",@nobits
 243              		.align 4
 244              		.type	threads, @object
 245              		.size	threads, 20
 246              	threads:
 247 0000 00000000 		.zero	20
 247      00000000 
 247      00000000 
 247      00000000 
 247      00000000 
 248              		.globl	test_buffer
 249              		.section	.bss.test_buffer,"aw",@nobits
 250              		.align 16
 251              		.type	test_buffer, @object
 252              		.size	test_buffer, 83520
 253              	test_buffer:
 254 0000 00000000 		.zero	83520
 254      00000000 
 254      00000000 
 254      00000000 
 254      00000000 
 255              		.globl	rt_test_suite
 256              		.section	.rodata.str1.1,"aMS",@progbits,1
 257              	.LC0:
 258 0000 43686962 		.string	"ChibiOS/RT Test Suite"
 258      694F532F 
 258      52542054 
 258      65737420 
 258      53756974 
GAS LISTING /tmp/ccZ1yQJk.s 			page 6


 259              		.section	.data.rel.ro.local.rt_test_suite,"aw"
 260              		.align 4
 261              		.type	rt_test_suite, @object
 262              		.size	rt_test_suite, 8
 263              	rt_test_suite:
 264 0000 00000000 		.long	.LC0
 265 0004 00000000 		.long	rt_test_suite_array
 266              		.globl	rt_test_suite_array
 267              		.section	.data.rel.ro.rt_test_suite_array,"aw"
 268              		.align 32
 269              		.type	rt_test_suite_array, @object
 270              		.size	rt_test_suite_array, 52
 271              	rt_test_suite_array:
 272 0000 00000000 		.long	rt_test_sequence_001
 273 0004 00000000 		.long	rt_test_sequence_002
 274 0008 00000000 		.long	rt_test_sequence_003
 275 000c 00000000 		.long	rt_test_sequence_004
 276 0010 00000000 		.long	rt_test_sequence_005
 277 0014 00000000 		.long	rt_test_sequence_006
 278 0018 00000000 		.long	rt_test_sequence_007
 279 001c 00000000 		.long	rt_test_sequence_008
 280 0020 00000000 		.long	rt_test_sequence_009
 281 0024 00000000 		.long	rt_test_sequence_010
 282 0028 00000000 		.long	rt_test_sequence_011
 283 002c 00000000 		.long	rt_test_sequence_012
 284 0030 00000000 		.long	0
 285              		.section	.text.__x86.get_pc_thunk.bx,"axG",@progbits,__x86.get_pc_thunk.bx,comdat
 286              		.globl	__x86.get_pc_thunk.bx
 287              		.hidden	__x86.get_pc_thunk.bx
 288              		.type	__x86.get_pc_thunk.bx, @function
 289              	__x86.get_pc_thunk.bx:
 290              	.LFB306:
 291              		.cfi_startproc
 292 0000 8B1C24   		movl	(%esp), %ebx
 293 0003 C3       		ret
 294              		.cfi_endproc
 295              	.LFE306:
 296              		.text
 297              	.Letext0:
 298              		.file 5 "/usr/lib/gcc/x86_64-linux-gnu/11/include/stddef.h"
 299              		.file 6 "/usr/include/bits/types.h"
 300              		.file 7 "/usr/include/bits/stdint-intn.h"
 301              		.file 8 "/usr/include/bits/stdint-uintn.h"
 302              		.file 9 "../../../os/common/ports/SIMIA32/compilers/GCC/chtypes.h"
 303              		.file 10 "../../../os/rt/include/chearly.h"
 304              		.file 11 "../../../os/rt/include/chobjects.h"
 305              		.file 12 "../../../os/rt/include/chrfcu.h"
 306              		.file 13 "../../../os/rt/include/chdebug.h"
 307              		.file 14 "../../../os/rt/include/chtime.h"
 308              		.file 15 "../../../os/rt/include/chlists.h"
 309              		.file 16 "../../../os/rt/include/chsem.h"
 310              		.file 17 "../../../os/rt/include/chmtx.h"
 311              		.file 18 "../../../os/test/include/ch_test.h"
 312              		.file 19 "../../../test/rt/source/test/rt_test_sequence_001.h"
 313              		.file 20 "../../../test/rt/source/test/rt_test_sequence_002.h"
 314              		.file 21 "../../../test/rt/source/test/rt_test_sequence_003.h"
 315              		.file 22 "../../../test/rt/source/test/rt_test_sequence_004.h"
GAS LISTING /tmp/ccZ1yQJk.s 			page 7


 316              		.file 23 "../../../test/rt/source/test/rt_test_sequence_005.h"
 317              		.file 24 "../../../test/rt/source/test/rt_test_sequence_006.h"
 318              		.file 25 "../../../test/rt/source/test/rt_test_sequence_007.h"
 319              		.file 26 "../../../test/rt/source/test/rt_test_sequence_008.h"
 320              		.file 27 "../../../test/rt/source/test/rt_test_sequence_009.h"
 321              		.file 28 "../../../test/rt/source/test/rt_test_sequence_010.h"
 322              		.file 29 "../../../test/rt/source/test/rt_test_sequence_011.h"
 323              		.file 30 "../../../test/rt/source/test/rt_test_sequence_012.h"
 324              		.file 31 "../../../test/rt/source/test/rt_test_root.h"
 325              		.file 32 "../../../os/rt/include/chthreads.h"
 2961 0052 2F686F6D 		.section	.note.GNU-stack,"",@progbits
 2961      652F616C 
 2961      65782F43 
 2961      68696269 
 2961      4F532F64 
GAS LISTING /tmp/ccZ1yQJk.s 			page 60

