GAS LISTING /tmp/ccHfiOBR.s 			page 1


   1              		.file	"chmtx.c"
   2              		.text
   3              	.Ltext0:
   4              		.file 0 "/home/alex/ChibiOS/demos/various/RT-Posix-Simulator" "../../../os/rt/src/chmtx.c"
   5              		.section	.text.chMtxObjectInit,"ax",@progbits
   6              		.p2align 4
   7              		.globl	chMtxObjectInit
   8              		.type	chMtxObjectInit, @function
   9              	chMtxObjectInit:
  10              	.LVL0:
  11              	.LFB215:
  12              		.file 1 "../../../os/rt/src/chmtx.c"
  13              		.loc 1 105 35 view -0
  14              		.cfi_startproc
  15              		.loc 1 107 3 view .LVU1
  16              		.loc 1 107 3 view .LVU2
  17              		.loc 1 107 3 view .LVU3
  18              		.loc 1 109 3 view .LVU4
  19              		.loc 1 105 35 is_stmt 0 view .LVU5
  20 0000 8B442404 		movl	4(%esp), %eax
  21              	.LVL1:
  22              	.LBB93:
  23              	.LBI93:
  24              		.file 2 "../../../os/rt/include/chlists.h"
  25              		.loc 2 282 20 is_stmt 1 view .LVU6
  26              	.LBB94:
  27              		.loc 2 284 3 view .LVU7
  28              		.loc 2 284 12 is_stmt 0 view .LVU8
  29 0004 8900     		movl	%eax, (%eax)
  30              		.loc 2 285 3 is_stmt 1 view .LVU9
  31              		.loc 2 285 12 is_stmt 0 view .LVU10
  32 0006 894004   		movl	%eax, 4(%eax)
  33              	.LVL2:
  34              		.loc 2 285 12 view .LVU11
  35              	.LBE94:
  36              	.LBE93:
  37              		.loc 1 110 3 is_stmt 1 view .LVU12
  38              		.loc 1 110 13 is_stmt 0 view .LVU13
  39 0009 C7400800 		movl	$0, 8(%eax)
  39      000000
  40              		.loc 1 114 1 view .LVU14
  41 0010 C3       		ret
  42              		.cfi_endproc
  43              	.LFE215:
  44              		.size	chMtxObjectInit, .-chMtxObjectInit
  45              		.section	.text.chMtxObjectDispose,"ax",@progbits
  46              		.p2align 4
  47              		.globl	chMtxObjectDispose
  48              		.type	chMtxObjectDispose, @function
  49              	chMtxObjectDispose:
  50              	.LVL3:
  51              	.LFB216:
  52              		.loc 1 131 38 is_stmt 1 view -0
  53              		.cfi_startproc
  54              		.loc 1 133 3 view .LVU16
  55              		.loc 1 133 3 view .LVU17
  56              		.loc 1 133 3 view .LVU18
GAS LISTING /tmp/ccHfiOBR.s 			page 2


  57              		.loc 1 134 3 view .LVU19
  58              		.loc 1 134 3 view .LVU20
  59              		.loc 1 134 3 view .LVU21
  60              		.loc 1 143 1 is_stmt 0 view .LVU22
  61 0000 C3       		ret
  62              		.cfi_endproc
  63              	.LFE216:
  64              		.size	chMtxObjectDispose, .-chMtxObjectDispose
  65              		.section	.text.chMtxLockS,"ax",@progbits
  66              		.p2align 4
  67              		.globl	chMtxLockS
  68              		.type	chMtxLockS, @function
  69              	chMtxLockS:
  70              	.LVL4:
  71              	.LFB218:
  72              		.loc 1 170 30 is_stmt 1 view -0
  73              		.cfi_startproc
  74              		.loc 1 171 3 view .LVU24
  75              	.LBB110:
  76              	.LBI110:
  77              		.file 3 "../../../os/rt/include/chthreads.h"
  78              		.loc 3 527 25 view .LVU25
  79              	.LBB111:
  80              		.loc 3 529 3 view .LVU26
  81              	.LBE111:
  82              	.LBE110:
  83              		.loc 1 170 30 is_stmt 0 view .LVU27
  84 0000 55       		pushl	%ebp
  85              		.cfi_def_cfa_offset 8
  86              		.cfi_offset 5, -8
  87 0001 57       		pushl	%edi
  88              		.cfi_def_cfa_offset 12
  89              		.cfi_offset 7, -12
  90 0002 56       		pushl	%esi
  91              		.cfi_def_cfa_offset 16
  92              		.cfi_offset 6, -16
  93 0003 53       		pushl	%ebx
  94              		.cfi_def_cfa_offset 20
  95              		.cfi_offset 3, -20
  96 0004 E8FCFFFF 		call	__x86.get_pc_thunk.bx
  96      FF
  97 0009 81C30200 		addl	$_GLOBAL_OFFSET_TABLE_, %ebx
  97      0000
  98 000f 83EC0C   		subl	$12, %esp
  99              		.cfi_def_cfa_offset 32
 100              		.loc 1 170 30 view .LVU28
 101 0012 8B7C2420 		movl	32(%esp), %edi
 102              	.LBB113:
 103              	.LBB112:
 104              		.loc 3 529 10 view .LVU29
 105 0016 8B830000 		movl	ch0@GOT(%ebx), %eax
 105      0000
 106 001c 8B700C   		movl	12(%eax), %esi
 107              	.LVL5:
 108              		.loc 3 529 10 view .LVU30
 109              	.LBE112:
 110              	.LBE113:
GAS LISTING /tmp/ccHfiOBR.s 			page 3


 111              		.loc 1 173 21 is_stmt 1 view .LVU31
 112              		.loc 1 174 3 view .LVU32
 113              		.loc 1 174 3 view .LVU33
 114              		.loc 1 174 3 view .LVU34
 115              		.loc 1 177 3 view .LVU35
 116              		.loc 1 177 9 is_stmt 0 view .LVU36
 117 001f 8B4708   		movl	8(%edi), %eax
 118              		.loc 1 177 6 view .LVU37
 119 0022 85C0     		testl	%eax, %eax
 120 0024 747A     		je	.L27
 121              	.LVL6:
 122              	.LBB114:
 123              		.loc 1 196 34 is_stmt 1 view .LVU38
 124              		.loc 1 196 54 is_stmt 0 view .LVU39
 125 0026 8B5608   		movl	8(%esi), %edx
 126              		.loc 1 196 34 view .LVU40
 127 0029 395008   		cmpl	%edx, 8(%eax)
 128 002c 7319     		jnb	.L10
 129              	.L13:
 130              		.loc 1 198 9 is_stmt 1 view .LVU41
 131              		.loc 1 198 29 is_stmt 0 view .LVU42
 132 002e 895008   		movl	%edx, 8(%eax)
 133              		.loc 1 201 9 is_stmt 1 view .LVU43
 134              		.loc 1 201 19 is_stmt 0 view .LVU44
 135 0031 0FB6501C 		movzbl	28(%eax), %edx
 136              		.loc 1 201 9 view .LVU45
 137 0035 80FA06   		cmpb	$6, %dl
 138 0038 0F84B200 		je	.L7
 138      0000
 139              		.loc 1 201 9 view .LVU46
 140 003e 80FA07   		cmpb	$7, %dl
 141 0041 7475     		je	.L8
 142 0043 84D2     		testb	%dl, %dl
 143 0045 7441     		je	.L28
 144              	.LVL7:
 145              	.L10:
 146              		.loc 1 245 7 is_stmt 1 view .LVU47
 147              	.LBB115:
 148              	.LBI115:
 149              		.file 4 "../../../os/rt/include/chschd.h"
 150              		.loc 4 168 20 view .LVU48
 151              	.LBB116:
 152              		.loc 4 170 3 view .LVU49
 153              		.loc 4 170 15 is_stmt 0 view .LVU50
 154 0047 89F8     		movl	%edi, %eax
 155 0049 EB0D     		jmp	.L18
 156              	.LVL8:
 157 004b 8D742600 		.p2align 4,,10
 157      90
 158              		.p2align 3
 159              	.L29:
 160              		.loc 4 173 23 view .LVU51
 161 0050 8B4E08   		movl	8(%esi), %ecx
 162 0053 394808   		cmpl	%ecx, 8(%eax)
 163 0056 7206     		jb	.L17
 164              	.L18:
 165              		.loc 4 171 3 is_stmt 1 view .LVU52
GAS LISTING /tmp/ccHfiOBR.s 			page 4


 166              		.loc 4 172 5 view .LVU53
 167              		.loc 4 172 8 is_stmt 0 view .LVU54
 168 0058 8B00     		movl	(%eax), %eax
 169              	.LVL9:
 170              		.loc 4 173 23 is_stmt 1 view .LVU55
 171 005a 39C7     		cmpl	%eax, %edi
 172 005c 75F2     		jne	.L29
 173              	.L17:
 174              		.loc 4 175 3 view .LVU56
 175              		.loc 4 176 22 is_stmt 0 view .LVU57
 176 005e 8B5004   		movl	4(%eax), %edx
 177              	.LBE116:
 178              	.LBE115:
 179              		.loc 1 247 7 view .LVU58
 180 0061 83EC0C   		subl	$12, %esp
 181              		.cfi_def_cfa_offset 44
 182              	.LBB118:
 183              	.LBB117:
 184              		.loc 4 175 18 view .LVU59
 185 0064 8906     		movl	%eax, (%esi)
 186              		.loc 4 176 3 is_stmt 1 view .LVU60
 187              		.loc 4 176 18 is_stmt 0 view .LVU61
 188 0066 895604   		movl	%edx, 4(%esi)
 189              		.loc 4 177 3 is_stmt 1 view .LVU62
 190              		.loc 4 177 18 is_stmt 0 view .LVU63
 191 0069 8932     		movl	%esi, (%edx)
 192              		.loc 4 178 3 is_stmt 1 view .LVU64
 193              		.loc 4 178 18 is_stmt 0 view .LVU65
 194 006b 897004   		movl	%esi, 4(%eax)
 195              	.LVL10:
 196              		.loc 4 178 18 view .LVU66
 197              	.LBE117:
 198              	.LBE118:
 199              		.loc 1 246 7 is_stmt 1 view .LVU67
 200              		.loc 1 246 24 is_stmt 0 view .LVU68
 201 006e 897E34   		movl	%edi, 52(%esi)
 202              		.loc 1 247 7 is_stmt 1 view .LVU69
 203 0071 6A06     		pushl	$6
 204              		.cfi_def_cfa_offset 48
 205 0073 E8FCFFFF 		call	chSchGoSleepS@PLT
 205      FF
 206              	.LVL11:
 207              		.loc 1 251 7 view .LVU70
 208              		.loc 1 251 7 view .LVU71
 209              		.loc 1 251 7 view .LVU72
 210              		.loc 1 252 7 view .LVU73
 211              		.loc 1 252 7 view .LVU74
 212 0078 83C410   		addl	$16, %esp
 213              		.cfi_def_cfa_offset 32
 214              	.LBE114:
 215              		.loc 1 269 1 is_stmt 0 view .LVU75
 216 007b 83C40C   		addl	$12, %esp
 217              		.cfi_remember_state
 218              		.cfi_def_cfa_offset 20
 219 007e 5B       		popl	%ebx
 220              		.cfi_restore 3
 221              		.cfi_def_cfa_offset 16
GAS LISTING /tmp/ccHfiOBR.s 			page 5


 222 007f 5E       		popl	%esi
 223              		.cfi_restore 6
 224              		.cfi_def_cfa_offset 12
 225              	.LVL12:
 226              		.loc 1 269 1 view .LVU76
 227 0080 5F       		popl	%edi
 228              		.cfi_restore 7
 229              		.cfi_def_cfa_offset 8
 230 0081 5D       		popl	%ebp
 231              		.cfi_restore 5
 232              		.cfi_def_cfa_offset 4
 233 0082 C3       		ret
 234              	.LVL13:
 235              		.p2align 4,,10
 236 0083 8D742600 		.p2align 3
 236      90
 237              	.L28:
 238              		.cfi_restore_state
 239              	.LBB131:
 240              		.loc 1 235 11 is_stmt 1 view .LVU77
 241              	.LBB119:
 242              	.LBI119:
 243              		.loc 2 378 27 view .LVU78
 244              	.LBB120:
 245              		.loc 2 380 3 view .LVU79
 246              		.loc 2 380 4 is_stmt 0 view .LVU80
 247 0088 8B4804   		movl	4(%eax), %ecx
 248              		.loc 2 380 20 view .LVU81
 249 008b 8B10     		movl	(%eax), %edx
 250              	.LBE120:
 251              	.LBE119:
 252              		.loc 1 235 18 view .LVU82
 253 008d 83EC0C   		subl	$12, %esp
 254              		.cfi_def_cfa_offset 44
 255              	.LBB122:
 256              	.LBB121:
 257              		.loc 2 380 17 view .LVU83
 258 0090 8911     		movl	%edx, (%ecx)
 259              		.loc 2 381 3 is_stmt 1 view .LVU84
 260              		.loc 2 381 17 is_stmt 0 view .LVU85
 261 0092 894A04   		movl	%ecx, 4(%edx)
 262              		.loc 2 383 3 is_stmt 1 view .LVU86
 263              	.LVL14:
 264              		.loc 2 383 3 is_stmt 0 view .LVU87
 265              	.LBE121:
 266              	.LBE122:
 267              		.loc 1 235 18 view .LVU88
 268 0095 50       		pushl	%eax
 269              		.cfi_def_cfa_offset 48
 270 0096 E8FCFFFF 		call	chSchReadyI@PLT
 270      FF
 271              	.LVL15:
 272              		.loc 1 236 11 is_stmt 1 view .LVU89
 273 009b 83C410   		addl	$16, %esp
 274              		.cfi_def_cfa_offset 32
 275 009e EBA7     		jmp	.L10
 276              		.p2align 4,,10
GAS LISTING /tmp/ccHfiOBR.s 			page 6


 277              		.p2align 3
 278              	.L27:
 279              		.loc 1 236 11 is_stmt 0 view .LVU90
 280              	.LBE131:
 281              		.loc 1 265 5 is_stmt 1 view .LVU91
 282              		.loc 1 266 14 is_stmt 0 view .LVU92
 283 00a0 8B4648   		movl	72(%esi), %eax
 284              		.loc 1 265 15 view .LVU93
 285 00a3 897708   		movl	%esi, 8(%edi)
 286              		.loc 1 266 5 is_stmt 1 view .LVU94
 287              		.loc 1 266 14 is_stmt 0 view .LVU95
 288 00a6 89470C   		movl	%eax, 12(%edi)
 289              		.loc 1 267 5 is_stmt 1 view .LVU96
 290              		.loc 1 267 21 is_stmt 0 view .LVU97
 291 00a9 897E48   		movl	%edi, 72(%esi)
 292              		.loc 1 269 1 view .LVU98
 293 00ac 83C40C   		addl	$12, %esp
 294              		.cfi_remember_state
 295              		.cfi_def_cfa_offset 20
 296 00af 5B       		popl	%ebx
 297              		.cfi_restore 3
 298              		.cfi_def_cfa_offset 16
 299 00b0 5E       		popl	%esi
 300              		.cfi_restore 6
 301              		.cfi_def_cfa_offset 12
 302              	.LVL16:
 303              		.loc 1 269 1 view .LVU99
 304 00b1 5F       		popl	%edi
 305              		.cfi_restore 7
 306              		.cfi_def_cfa_offset 8
 307 00b2 5D       		popl	%ebp
 308              		.cfi_restore 5
 309              		.cfi_def_cfa_offset 4
 310 00b3 C3       		ret
 311              	.LVL17:
 312              		.p2align 4,,10
 313 00b4 8D742600 		.p2align 3
 314              	.L8:
 315              		.cfi_restore_state
 316              	.LBB132:
 317              		.loc 1 225 11 is_stmt 1 view .LVU100
 318              	.LBB123:
 319              	.LBI123:
 320              		.loc 2 378 27 view .LVU101
 321              	.LBB124:
 322              		.loc 2 380 3 view .LVU102
 323              		.loc 2 380 4 is_stmt 0 view .LVU103
 324 00b8 8B4804   		movl	4(%eax), %ecx
 325              		.loc 2 380 20 view .LVU104
 326 00bb 8B10     		movl	(%eax), %edx
 327              		.loc 2 380 17 view .LVU105
 328 00bd 8911     		movl	%edx, (%ecx)
 329              		.loc 2 381 3 is_stmt 1 view .LVU106
 330              		.loc 2 381 17 is_stmt 0 view .LVU107
 331 00bf 894A04   		movl	%ecx, 4(%edx)
 332              		.loc 2 383 3 is_stmt 1 view .LVU108
 333              	.LVL18:
GAS LISTING /tmp/ccHfiOBR.s 			page 7


 334              		.loc 2 383 3 is_stmt 0 view .LVU109
 335              	.LBE124:
 336              	.LBE123:
 337              		.loc 1 225 11 view .LVU110
 338 00c2 8B4834   		movl	52(%eax), %ecx
 339              	.LVL19:
 340              	.LBB125:
 341              	.LBI125:
 342              		.loc 4 168 20 is_stmt 1 view .LVU111
 343              	.LBB126:
 344              		.loc 4 170 3 view .LVU112
 345              		.loc 4 170 15 is_stmt 0 view .LVU113
 346 00c5 89CA     		movl	%ecx, %edx
 347 00c7 EB0F     		jmp	.L15
 348              	.LVL20:
 349 00c9 8DB42600 		.p2align 4,,10
 349      000000
 350              		.p2align 3
 351              	.L30:
 352              		.loc 4 173 23 view .LVU114
 353 00d0 8B6808   		movl	8(%eax), %ebp
 354 00d3 396A08   		cmpl	%ebp, 8(%edx)
 355 00d6 7206     		jb	.L14
 356              	.L15:
 357              		.loc 4 171 3 is_stmt 1 view .LVU115
 358              		.loc 4 172 5 view .LVU116
 359              		.loc 4 172 8 is_stmt 0 view .LVU117
 360 00d8 8B12     		movl	(%edx), %edx
 361              	.LVL21:
 362              		.loc 4 173 23 is_stmt 1 view .LVU118
 363 00da 39D1     		cmpl	%edx, %ecx
 364 00dc 75F2     		jne	.L30
 365              	.L14:
 366              		.loc 4 175 3 view .LVU119
 367              		.loc 4 176 22 is_stmt 0 view .LVU120
 368 00de 8B4A04   		movl	4(%edx), %ecx
 369              	.LVL22:
 370              		.loc 4 175 18 view .LVU121
 371 00e1 8910     		movl	%edx, (%eax)
 372              		.loc 4 176 3 is_stmt 1 view .LVU122
 373              		.loc 4 176 18 is_stmt 0 view .LVU123
 374 00e3 894804   		movl	%ecx, 4(%eax)
 375              		.loc 4 177 3 is_stmt 1 view .LVU124
 376              		.loc 4 177 18 is_stmt 0 view .LVU125
 377 00e6 8901     		movl	%eax, (%ecx)
 378              		.loc 4 178 3 is_stmt 1 view .LVU126
 379              		.loc 4 178 18 is_stmt 0 view .LVU127
 380 00e8 894204   		movl	%eax, 4(%edx)
 381              		.loc 4 179 1 view .LVU128
 382 00eb E957FFFF 		jmp	.L10
 382      FF
 383              	.LVL23:
 384              		.p2align 4,,10
 385              		.p2align 3
 386              	.L7:
 387              		.loc 4 179 1 view .LVU129
 388              	.LBE126:
GAS LISTING /tmp/ccHfiOBR.s 			page 8


 389              	.LBE125:
 390              		.loc 1 204 11 is_stmt 1 discriminator 1 view .LVU130
 391              	.LBB127:
 392              	.LBI127:
 393              		.loc 2 378 27 discriminator 1 view .LVU131
 394              	.LBB128:
 395              		.loc 2 380 3 discriminator 1 view .LVU132
 396              		.loc 2 380 4 is_stmt 0 discriminator 1 view .LVU133
 397 00f0 8B4804   		movl	4(%eax), %ecx
 398              		.loc 2 380 20 discriminator 1 view .LVU134
 399 00f3 8B10     		movl	(%eax), %edx
 400              		.loc 2 380 17 discriminator 1 view .LVU135
 401 00f5 8911     		movl	%edx, (%ecx)
 402              		.loc 2 381 3 is_stmt 1 discriminator 1 view .LVU136
 403              		.loc 2 381 17 is_stmt 0 discriminator 1 view .LVU137
 404 00f7 894A04   		movl	%ecx, 4(%edx)
 405              		.loc 2 383 3 is_stmt 1 discriminator 1 view .LVU138
 406              	.LVL24:
 407              		.loc 2 383 3 is_stmt 0 discriminator 1 view .LVU139
 408              	.LBE128:
 409              	.LBE127:
 410              		.loc 1 204 36 discriminator 1 view .LVU140
 411 00fa 8B4834   		movl	52(%eax), %ecx
 412              	.LVL25:
 413              	.LBB129:
 414              	.LBI129:
 415              		.loc 4 168 20 is_stmt 1 discriminator 1 view .LVU141
 416              	.LBB130:
 417              		.loc 4 170 3 discriminator 1 view .LVU142
 418              		.loc 4 170 15 is_stmt 0 discriminator 1 view .LVU143
 419 00fd 89CA     		movl	%ecx, %edx
 420 00ff EB0F     		jmp	.L12
 421              	.LVL26:
 422              		.p2align 4,,10
 423 0101 8DB42600 		.p2align 3
 423      000000
 424              	.L31:
 425              		.loc 4 173 23 view .LVU144
 426 0108 8B6808   		movl	8(%eax), %ebp
 427 010b 396A08   		cmpl	%ebp, 8(%edx)
 428 010e 7206     		jb	.L11
 429              	.L12:
 430              		.loc 4 171 3 is_stmt 1 view .LVU145
 431              		.loc 4 172 5 view .LVU146
 432              		.loc 4 172 8 is_stmt 0 view .LVU147
 433 0110 8B12     		movl	(%edx), %edx
 434              	.LVL27:
 435              		.loc 4 173 23 is_stmt 1 view .LVU148
 436 0112 39D1     		cmpl	%edx, %ecx
 437 0114 75F2     		jne	.L31
 438              	.L11:
 439              		.loc 4 175 3 view .LVU149
 440              		.loc 4 176 22 is_stmt 0 view .LVU150
 441 0116 8B6A04   		movl	4(%edx), %ebp
 442              		.loc 4 175 18 view .LVU151
 443 0119 8910     		movl	%edx, (%eax)
 444              		.loc 4 176 3 is_stmt 1 view .LVU152
GAS LISTING /tmp/ccHfiOBR.s 			page 9


 445              		.loc 4 176 18 is_stmt 0 view .LVU153
 446 011b 896804   		movl	%ebp, 4(%eax)
 447              		.loc 4 177 3 is_stmt 1 view .LVU154
 448              		.loc 4 177 18 is_stmt 0 view .LVU155
 449 011e 894500   		movl	%eax, 0(%ebp)
 450              		.loc 4 178 3 is_stmt 1 view .LVU156
 451              		.loc 4 178 18 is_stmt 0 view .LVU157
 452 0121 894204   		movl	%eax, 4(%edx)
 453              	.LVL28:
 454              		.loc 4 178 18 view .LVU158
 455              	.LBE130:
 456              	.LBE129:
 457              		.loc 1 206 11 is_stmt 1 view .LVU159
 458              		.loc 1 206 14 is_stmt 0 view .LVU160
 459 0124 8B4108   		movl	8(%ecx), %eax
 460              	.LVL29:
 461              		.loc 1 208 11 is_stmt 1 view .LVU161
 462              		.loc 1 196 34 view .LVU162
 463              		.loc 1 196 54 is_stmt 0 view .LVU163
 464 0127 8B5608   		movl	8(%esi), %edx
 465              		.loc 1 196 34 view .LVU164
 466 012a 395008   		cmpl	%edx, 8(%eax)
 467 012d 0F82FBFE 		jb	.L13
 467      FFFF
 468 0133 E90FFFFF 		jmp	.L10
 468      FF
 469              	.LBE132:
 470              		.cfi_endproc
 471              	.LFE218:
 472              		.size	chMtxLockS, .-chMtxLockS
 473              		.section	.text.chMtxLock,"ax",@progbits
 474              		.p2align 4
 475              		.globl	chMtxLock
 476              		.type	chMtxLock, @function
 477              	chMtxLock:
 478              	.LVL30:
 479              	.LFB217:
 480              		.loc 1 154 29 is_stmt 1 view -0
 481              		.cfi_startproc
 482              		.loc 1 156 3 view .LVU166
 483              	.LBB133:
 484              	.LBI133:
 485              		.file 5 "../../../os/rt/include/chsys.h"
 486              		.loc 5 407 20 view .LVU167
 487              		.loc 5 409 3 view .LVU168
 488              	.LBB134:
 489              	.LBI134:
 490              		.file 6 "../../../os/common/ports/SIMIA32/chcore.h"
 491              		.loc 6 361 20 view .LVU169
 492              	.LBB135:
 493              		.loc 6 363 3 view .LVU170
 494 0000 E8FCFFFF 		call	__x86.get_pc_thunk.ax
 494      FF
 495 0005 05010000 		addl	$_GLOBAL_OFFSET_TABLE_, %eax
 495      00
 496              	.LBE135:
 497              	.LBE134:
GAS LISTING /tmp/ccHfiOBR.s 			page 10


 498              	.LBE133:
 499              		.loc 1 154 29 is_stmt 0 view .LVU171
 500 000a 53       		pushl	%ebx
 501              		.cfi_def_cfa_offset 8
 502              		.cfi_offset 3, -8
 503 000b 83EC14   		subl	$20, %esp
 504              		.cfi_def_cfa_offset 28
 505              		.loc 1 157 3 view .LVU172
 506 000e FF74241C 		pushl	28(%esp)
 507              		.cfi_def_cfa_offset 32
 508              	.LBB138:
 509              	.LBB137:
 510              	.LBB136:
 511              		.loc 6 363 16 view .LVU173
 512 0012 8B980000 		movl	port_irq_sts@GOT(%eax), %ebx
 512      0000
 513 0018 C7030100 		movl	$1, (%ebx)
 513      0000
 514              	.LBE136:
 515              	.LBE137:
 516              		.loc 5 410 35 is_stmt 1 view .LVU174
 517              		.loc 5 411 21 view .LVU175
 518              	.LBE138:
 519              		.loc 1 157 3 view .LVU176
 520 001e E8FCFFFF 		call	chMtxLockS
 520      FF
 521              	.LVL31:
 522              		.loc 1 158 3 view .LVU177
 523              	.LBB139:
 524              	.LBI139:
 525              		.loc 5 421 20 view .LVU178
 526              	.LBB140:
 527              		.loc 5 423 23 view .LVU179
 528              		.loc 5 424 34 view .LVU180
 529              		.loc 5 430 3 view .LVU181
 530              		.loc 5 430 3 view .LVU182
 531              		.loc 5 430 3 view .LVU183
 532              		.loc 5 434 3 view .LVU184
 533              	.LBB141:
 534              	.LBI141:
 535              		.loc 6 370 20 view .LVU185
 536              	.LBB142:
 537              		.loc 6 372 3 view .LVU186
 538              		.loc 6 372 16 is_stmt 0 view .LVU187
 539 0023 C7030000 		movl	$0, (%ebx)
 539      0000
 540              	.LBE142:
 541              	.LBE141:
 542              	.LBE140:
 543              	.LBE139:
 544              		.loc 1 159 1 view .LVU188
 545 0029 83C418   		addl	$24, %esp
 546              		.cfi_def_cfa_offset 8
 547 002c 5B       		popl	%ebx
 548              		.cfi_restore 3
 549              		.cfi_def_cfa_offset 4
 550 002d C3       		ret
GAS LISTING /tmp/ccHfiOBR.s 			page 11


 551              		.cfi_endproc
 552              	.LFE217:
 553              		.size	chMtxLock, .-chMtxLock
 554              		.section	.text.chMtxTryLock,"ax",@progbits
 555              		.p2align 4
 556              		.globl	chMtxTryLock
 557              		.type	chMtxTryLock, @function
 558              	chMtxTryLock:
 559              	.LVL32:
 560              	.LFB219:
 561              		.loc 1 288 32 is_stmt 1 view -0
 562              		.cfi_startproc
 563              		.loc 1 289 3 view .LVU190
 564              		.loc 1 291 3 view .LVU191
 565              	.LBB143:
 566              	.LBI143:
 567              		.loc 5 407 20 view .LVU192
 568              		.loc 5 409 3 view .LVU193
 569              	.LBB144:
 570              	.LBI144:
 571              		.loc 6 361 20 view .LVU194
 572              	.LBB145:
 573              		.loc 6 363 3 view .LVU195
 574              	.LBE145:
 575              	.LBE144:
 576              	.LBE143:
 577              		.loc 1 288 32 is_stmt 0 view .LVU196
 578 0000 53       		pushl	%ebx
 579              		.cfi_def_cfa_offset 8
 580              		.cfi_offset 3, -8
 581              		.loc 1 288 32 view .LVU197
 582 0001 8B442408 		movl	8(%esp), %eax
 583 0005 E8FCFFFF 		call	__x86.get_pc_thunk.bx
 583      FF
 584 000a 81C30200 		addl	$_GLOBAL_OFFSET_TABLE_, %ebx
 584      0000
 585              	.LBB148:
 586              	.LBB149:
 587              		.loc 1 321 6 view .LVU198
 588 0010 8B4808   		movl	8(%eax), %ecx
 589              	.LBE149:
 590              	.LBE148:
 591              	.LBB159:
 592              	.LBB147:
 593              	.LBB146:
 594              		.loc 6 363 16 view .LVU199
 595 0013 8B930000 		movl	port_irq_sts@GOT(%ebx), %edx
 595      0000
 596 0019 C7020100 		movl	$1, (%edx)
 596      0000
 597              	.LBE146:
 598              	.LBE147:
 599              		.loc 5 410 35 is_stmt 1 view .LVU200
 600              		.loc 5 411 21 view .LVU201
 601              	.LBE159:
 602              		.loc 1 292 3 view .LVU202
 603              	.LVL33:
GAS LISTING /tmp/ccHfiOBR.s 			page 12


 604              	.LBB160:
 605              	.LBI148:
 606              		.loc 1 315 6 view .LVU203
 607              	.LBB156:
 608              		.loc 1 316 3 view .LVU204
 609              	.LBB150:
 610              	.LBI150:
 611              		.loc 3 527 25 view .LVU205
 612              	.LBB151:
 613              		.loc 3 529 3 view .LVU206
 614              		.loc 3 529 3 is_stmt 0 view .LVU207
 615              	.LBE151:
 616              	.LBE150:
 617              		.loc 1 318 21 is_stmt 1 view .LVU208
 618              		.loc 1 319 3 view .LVU209
 619              		.loc 1 319 3 view .LVU210
 620              		.loc 1 319 3 view .LVU211
 621              		.loc 1 321 3 view .LVU212
 622              		.loc 1 321 6 is_stmt 0 view .LVU213
 623 001f 85C9     		testl	%ecx, %ecx
 624 0021 740D     		je	.L39
 625 0023 31C9     		xorl	%ecx, %ecx
 626              	.LVL34:
 627              		.loc 1 321 6 view .LVU214
 628              	.LBE156:
 629              	.LBE160:
 630              		.loc 1 293 3 is_stmt 1 view .LVU215
 631              	.LBB161:
 632              	.LBI161:
 633              		.loc 5 421 20 view .LVU216
 634              	.LBB162:
 635              		.loc 5 423 23 view .LVU217
 636              		.loc 5 424 34 view .LVU218
 637              		.loc 5 430 3 view .LVU219
 638              		.loc 5 430 3 view .LVU220
 639              		.loc 5 430 3 view .LVU221
 640              		.loc 5 434 3 view .LVU222
 641              	.LBB163:
 642              	.LBI163:
 643              		.loc 6 370 20 view .LVU223
 644              	.LBB164:
 645              		.loc 6 372 3 view .LVU224
 646              		.loc 6 372 16 is_stmt 0 view .LVU225
 647 0025 C7020000 		movl	$0, (%edx)
 647      0000
 648              	.LBE164:
 649              	.LBE163:
 650              	.LBE162:
 651              	.LBE161:
 652              		.loc 1 295 3 is_stmt 1 view .LVU226
 653              		.loc 1 296 1 is_stmt 0 view .LVU227
 654 002b 5B       		popl	%ebx
 655              		.cfi_remember_state
 656              		.cfi_restore 3
 657              		.cfi_def_cfa_offset 4
 658 002c 89C8     		movl	%ecx, %eax
 659 002e C3       		ret
GAS LISTING /tmp/ccHfiOBR.s 			page 13


 660              	.LVL35:
 661 002f 90       		.p2align 4,,10
 662              		.p2align 3
 663              	.L39:
 664              		.cfi_restore_state
 665              	.LBB171:
 666              	.LBB157:
 667              	.LBB154:
 668              	.LBB152:
 669              		.loc 3 529 10 view .LVU228
 670 0030 8B8B0000 		movl	ch0@GOT(%ebx), %ecx
 670      0000
 671              	.LBE152:
 672              	.LBE154:
 673              	.LBE157:
 674              	.LBE171:
 675              	.LBB172:
 676              	.LBB169:
 677              	.LBB167:
 678              	.LBB165:
 679              		.loc 6 372 16 view .LVU229
 680 0036 C7020000 		movl	$0, (%edx)
 680      0000
 681              	.LBE165:
 682              	.LBE167:
 683              	.LBE169:
 684              	.LBE172:
 685              	.LBB173:
 686              	.LBB158:
 687              	.LBB155:
 688              	.LBB153:
 689              		.loc 3 529 10 view .LVU230
 690 003c 8B490C   		movl	12(%ecx), %ecx
 691              	.LBE153:
 692              	.LBE155:
 693              		.loc 1 339 3 is_stmt 1 view .LVU231
 694              		.loc 1 340 12 is_stmt 0 view .LVU232
 695 003f 8B5948   		movl	72(%ecx), %ebx
 696              		.loc 1 339 13 view .LVU233
 697 0042 894808   		movl	%ecx, 8(%eax)
 698              		.loc 1 340 3 is_stmt 1 view .LVU234
 699              		.loc 1 340 12 is_stmt 0 view .LVU235
 700 0045 89580C   		movl	%ebx, 12(%eax)
 701              		.loc 1 341 3 is_stmt 1 view .LVU236
 702              		.loc 1 341 19 is_stmt 0 view .LVU237
 703 0048 894148   		movl	%eax, 72(%ecx)
 704              		.loc 1 342 3 is_stmt 1 view .LVU238
 705              		.loc 1 342 10 is_stmt 0 view .LVU239
 706 004b B9010000 		movl	$1, %ecx
 706      00
 707              	.LVL36:
 708              		.loc 1 342 10 view .LVU240
 709              	.LBE158:
 710              	.LBE173:
 711              		.loc 1 293 3 is_stmt 1 view .LVU241
 712              	.LBB174:
 713              		.loc 5 421 20 view .LVU242
GAS LISTING /tmp/ccHfiOBR.s 			page 14


 714              	.LBB170:
 715              		.loc 5 423 23 view .LVU243
 716              		.loc 5 424 34 view .LVU244
 717              		.loc 5 430 3 view .LVU245
 718              		.loc 5 430 3 view .LVU246
 719              		.loc 5 430 3 view .LVU247
 720              		.loc 5 434 3 view .LVU248
 721              	.LBB168:
 722              		.loc 6 370 20 view .LVU249
 723              	.LBB166:
 724              		.loc 6 372 3 view .LVU250
 725              	.LBE166:
 726              	.LBE168:
 727              	.LBE170:
 728              	.LBE174:
 729              		.loc 1 295 3 view .LVU251
 730              		.loc 1 296 1 is_stmt 0 view .LVU252
 731 0050 5B       		popl	%ebx
 732              		.cfi_restore 3
 733              		.cfi_def_cfa_offset 4
 734 0051 89C8     		movl	%ecx, %eax
 735              	.LVL37:
 736              		.loc 1 296 1 view .LVU253
 737 0053 C3       		ret
 738              		.cfi_endproc
 739              	.LFE219:
 740              		.size	chMtxTryLock, .-chMtxTryLock
 741              		.section	.text.chMtxTryLockS,"ax",@progbits
 742              		.p2align 4
 743              		.globl	chMtxTryLockS
 744              		.type	chMtxTryLockS, @function
 745              	chMtxTryLockS:
 746              	.LVL38:
 747              	.LFB220:
 748              		.loc 1 315 33 is_stmt 1 view -0
 749              		.cfi_startproc
 750              		.loc 1 316 3 view .LVU255
 751              	.LBB175:
 752              	.LBI175:
 753              		.loc 3 527 25 view .LVU256
 754              	.LBB176:
 755              		.loc 3 529 3 view .LVU257
 756              		.loc 3 529 3 is_stmt 0 view .LVU258
 757              	.LBE176:
 758              	.LBE175:
 759              		.loc 1 318 21 is_stmt 1 view .LVU259
 760              		.loc 1 319 3 view .LVU260
 761              		.loc 1 319 3 view .LVU261
 762              		.loc 1 319 3 view .LVU262
 763              		.loc 1 321 3 view .LVU263
 764 0000 E8FCFFFF 		call	__x86.get_pc_thunk.cx
 764      FF
 765 0005 81C10200 		addl	$_GLOBAL_OFFSET_TABLE_, %ecx
 765      0000
 766              		.loc 1 315 33 is_stmt 0 view .LVU264
 767 000b 8B442404 		movl	4(%esp), %eax
 768              		.loc 1 331 12 view .LVU265
GAS LISTING /tmp/ccHfiOBR.s 			page 15


 769 000f 31D2     		xorl	%edx, %edx
 770              		.loc 1 321 6 view .LVU266
 771 0011 83780800 		cmpl	$0, 8(%eax)
 772 0015 751A     		jne	.L40
 773              	.LBB178:
 774              	.LBB177:
 775              		.loc 3 529 10 view .LVU267
 776 0017 8B910000 		movl	ch0@GOT(%ecx), %edx
 776      0000
 777 001d 8B520C   		movl	12(%edx), %edx
 778              	.LBE177:
 779              	.LBE178:
 780              		.loc 1 339 3 is_stmt 1 view .LVU268
 781              		.loc 1 340 12 is_stmt 0 view .LVU269
 782 0020 8B4A48   		movl	72(%edx), %ecx
 783              		.loc 1 339 13 view .LVU270
 784 0023 895008   		movl	%edx, 8(%eax)
 785              		.loc 1 340 3 is_stmt 1 view .LVU271
 786              		.loc 1 340 12 is_stmt 0 view .LVU272
 787 0026 89480C   		movl	%ecx, 12(%eax)
 788              		.loc 1 341 3 is_stmt 1 view .LVU273
 789              		.loc 1 341 19 is_stmt 0 view .LVU274
 790 0029 894248   		movl	%eax, 72(%edx)
 791              		.loc 1 342 3 is_stmt 1 view .LVU275
 792              		.loc 1 342 10 is_stmt 0 view .LVU276
 793 002c BA010000 		movl	$1, %edx
 793      00
 794              	.LVL39:
 795              	.L40:
 796              		.loc 1 343 1 view .LVU277
 797 0031 89D0     		movl	%edx, %eax
 798              	.LVL40:
 799              		.loc 1 343 1 view .LVU278
 800 0033 C3       		ret
 801              		.cfi_endproc
 802              	.LFE220:
 803              		.size	chMtxTryLockS, .-chMtxTryLockS
 804              		.section	.text.chMtxUnlock,"ax",@progbits
 805              		.p2align 4
 806              		.globl	chMtxUnlock
 807              		.type	chMtxUnlock, @function
 808              	chMtxUnlock:
 809              	.LVL41:
 810              	.LFB221:
 811              		.loc 1 357 31 is_stmt 1 view -0
 812              		.cfi_startproc
 813              		.loc 1 358 3 view .LVU280
 814              	.LBB179:
 815              	.LBI179:
 816              		.loc 3 527 25 view .LVU281
 817              	.LBB180:
 818              		.loc 3 529 3 view .LVU282
 819              	.LBE180:
 820              	.LBE179:
 821              		.loc 1 357 31 is_stmt 0 view .LVU283
 822 0000 55       		pushl	%ebp
 823              		.cfi_def_cfa_offset 8
GAS LISTING /tmp/ccHfiOBR.s 			page 16


 824              		.cfi_offset 5, -8
 825 0001 57       		pushl	%edi
 826              		.cfi_def_cfa_offset 12
 827              		.cfi_offset 7, -12
 828 0002 E8FCFFFF 		call	__x86.get_pc_thunk.di
 828      FF
 829 0007 81C70200 		addl	$_GLOBAL_OFFSET_TABLE_, %edi
 829      0000
 830 000d 56       		pushl	%esi
 831              		.cfi_def_cfa_offset 16
 832              		.cfi_offset 6, -16
 833 000e 53       		pushl	%ebx
 834              		.cfi_def_cfa_offset 20
 835              		.cfi_offset 3, -20
 836 000f 83EC0C   		subl	$12, %esp
 837              		.cfi_def_cfa_offset 32
 838              		.loc 1 357 31 view .LVU284
 839 0012 8B5C2420 		movl	32(%esp), %ebx
 840              	.LBB183:
 841              	.LBB181:
 842              		.loc 3 529 10 view .LVU285
 843 0016 8B870000 		movl	ch0@GOT(%edi), %eax
 843      0000
 844              	.LBE181:
 845              	.LBE183:
 846              	.LBB184:
 847              	.LBB185:
 848              	.LBB186:
 849              		.loc 6 363 16 view .LVU286
 850 001c 8BB70000 		movl	port_irq_sts@GOT(%edi), %esi
 850      0000
 851              	.LBE186:
 852              	.LBE185:
 853              	.LBE184:
 854              	.LBB191:
 855              	.LBB182:
 856              		.loc 3 529 10 view .LVU287
 857 0022 8B680C   		movl	12(%eax), %ebp
 858              	.LVL42:
 859              		.loc 3 529 10 view .LVU288
 860              	.LBE182:
 861              	.LBE191:
 862              		.loc 1 359 3 is_stmt 1 view .LVU289
 863              		.loc 1 361 3 view .LVU290
 864              		.loc 1 361 3 view .LVU291
 865              		.loc 1 361 3 view .LVU292
 866              		.loc 1 363 3 view .LVU293
 867              	.LBB192:
 868              	.LBI184:
 869              		.loc 5 407 20 view .LVU294
 870              		.loc 5 409 3 view .LVU295
 871              	.LBB189:
 872              	.LBI185:
 873              		.loc 6 361 20 view .LVU296
 874              	.LBB187:
 875              		.loc 6 363 3 view .LVU297
 876              	.LBE187:
GAS LISTING /tmp/ccHfiOBR.s 			page 17


 877              	.LBE189:
 878              	.LBE192:
 879              		.loc 1 378 25 is_stmt 0 view .LVU298
 880 0025 8B430C   		movl	12(%ebx), %eax
 881              	.LBB193:
 882              	.LBB190:
 883              	.LBB188:
 884              		.loc 6 363 16 view .LVU299
 885 0028 C7060100 		movl	$1, (%esi)
 885      0000
 886              	.LBE188:
 887              	.LBE190:
 888              		.loc 5 410 35 is_stmt 1 view .LVU300
 889              		.loc 5 411 21 view .LVU301
 890              	.LBE193:
 891              		.loc 1 365 3 view .LVU302
 892              		.loc 1 365 3 view .LVU303
 893              		.loc 1 365 3 view .LVU304
 894              		.loc 1 366 3 view .LVU305
 895              		.loc 1 366 3 view .LVU306
 896              		.loc 1 366 3 view .LVU307
 897              		.loc 1 373 5 view .LVU308
 898              		.loc 1 373 5 view .LVU309
 899              		.loc 1 373 5 view .LVU310
 900              		.loc 1 378 5 view .LVU311
 901              		.loc 1 378 21 is_stmt 0 view .LVU312
 902 002e 894548   		movl	%eax, 72(%ebp)
 903              		.loc 1 381 5 is_stmt 1 view .LVU313
 904              	.LVL43:
 905              	.LBB194:
 906              	.LBI194:
 907              		.file 7 "../../../os/rt/include/chmtx.h"
 908              		.loc 7 129 20 view .LVU314
 909              	.LBB195:
 910              		.loc 7 131 21 view .LVU315
 911              		.loc 7 133 3 view .LVU316
 912              	.LBB196:
 913              	.LBI196:
 914              		.loc 2 309 20 view .LVU317
 915              	.LBB197:
 916              		.loc 2 311 3 view .LVU318
 917              		.loc 2 311 3 is_stmt 0 view .LVU319
 918              	.LBE197:
 919              	.LBE196:
 920              	.LBE195:
 921              	.LBE194:
 922              		.loc 1 381 8 view .LVU320
 923 0031 391B     		cmpl	%ebx, (%ebx)
 924 0033 745B     		je	.L44
 925              	.LBB198:
 926              		.loc 1 382 7 is_stmt 1 view .LVU321
 927              		.loc 1 386 7 view .LVU322
 928              		.loc 1 386 15 is_stmt 0 view .LVU323
 929 0035 8B4D4C   		movl	76(%ebp), %ecx
 930              	.LVL44:
 931              		.loc 1 387 7 is_stmt 1 view .LVU324
 932              		.loc 1 388 7 view .LVU325
GAS LISTING /tmp/ccHfiOBR.s 			page 18


 933              		.loc 1 388 18 view .LVU326
 934 0038 85C0     		testl	%eax, %eax
 935 003a 7419     		je	.L45
 936 003c 8D742600 		.p2align 4,,10
 937              		.p2align 3
 938              	.L47:
 939              		.loc 1 392 9 view .LVU327
 940              	.LVL45:
 941              	.LBB199:
 942              	.LBI199:
 943              		.loc 7 129 20 view .LVU328
 944              	.LBB200:
 945              		.loc 7 131 21 view .LVU329
 946              		.loc 7 133 3 view .LVU330
 947              	.LBB201:
 948              	.LBI201:
 949              		.loc 2 309 20 view .LVU331
 950              	.LBB202:
 951              		.loc 2 311 3 view .LVU332
 952              		.loc 2 311 19 is_stmt 0 view .LVU333
 953 0040 8B10     		movl	(%eax), %edx
 954              	.LVL46:
 955              		.loc 2 311 19 view .LVU334
 956              	.LBE202:
 957              	.LBE201:
 958              	.LBE200:
 959              	.LBE199:
 960              		.loc 1 392 12 view .LVU335
 961 0042 39D0     		cmpl	%edx, %eax
 962 0044 7408     		je	.L46
 963              		.loc 1 392 12 view .LVU336
 964 0046 8B5208   		movl	8(%edx), %edx
 965 0049 39D1     		cmpl	%edx, %ecx
 966 004b 0F42CA   		cmovb	%edx, %ecx
 967              	.LVL47:
 968              	.L46:
 969              		.loc 1 396 9 is_stmt 1 view .LVU337
 970              		.loc 1 396 13 is_stmt 0 view .LVU338
 971 004e 8B400C   		movl	12(%eax), %eax
 972              	.LVL48:
 973              		.loc 1 388 18 is_stmt 1 view .LVU339
 974 0051 85C0     		testl	%eax, %eax
 975 0053 75EB     		jne	.L47
 976              	.L45:
 977              		.loc 1 401 7 view .LVU340
 978              		.loc 1 401 31 is_stmt 0 view .LVU341
 979 0055 894D08   		movl	%ecx, 8(%ebp)
 980              		.loc 1 408 7 is_stmt 1 view .LVU342
 981              	.LVL49:
 982              	.LBB203:
 983              	.LBI203:
 984              		.loc 2 340 27 view .LVU343
 985              	.LBB204:
 986              		.loc 2 341 3 view .LVU344
 987              		.loc 2 341 15 is_stmt 0 view .LVU345
 988 0058 8B03     		movl	(%ebx), %eax
 989              	.LVL50:
GAS LISTING /tmp/ccHfiOBR.s 			page 19


 990              		.loc 2 343 3 is_stmt 1 view .LVU346
 991              	.LBE204:
 992              	.LBE203:
 993              		.loc 1 417 14 is_stmt 0 view .LVU347
 994 005a 83EC0C   		subl	$12, %esp
 995              		.cfi_def_cfa_offset 44
 996              	.LBB206:
 997              	.LBB205:
 998              		.loc 2 343 21 view .LVU348
 999 005d 8B10     		movl	(%eax), %edx
 1000              		.loc 2 343 18 view .LVU349
 1001 005f 8913     		movl	%edx, (%ebx)
 1002              		.loc 2 344 3 is_stmt 1 view .LVU350
 1003              		.loc 2 344 18 is_stmt 0 view .LVU351
 1004 0061 895A04   		movl	%ebx, 4(%edx)
 1005              		.loc 2 346 3 is_stmt 1 view .LVU352
 1006              	.LVL51:
 1007              		.loc 2 346 3 is_stmt 0 view .LVU353
 1008              	.LBE205:
 1009              	.LBE206:
 1010              		.loc 1 409 7 is_stmt 1 view .LVU354
 1011              		.loc 1 410 16 is_stmt 0 view .LVU355
 1012 0064 8B5048   		movl	72(%eax), %edx
 1013              		.loc 1 409 17 view .LVU356
 1014 0067 894308   		movl	%eax, 8(%ebx)
 1015              		.loc 1 410 7 is_stmt 1 view .LVU357
 1016              		.loc 1 410 16 is_stmt 0 view .LVU358
 1017 006a 89530C   		movl	%edx, 12(%ebx)
 1018              		.loc 1 411 7 is_stmt 1 view .LVU359
 1019              		.loc 1 411 19 is_stmt 0 view .LVU360
 1020 006d 895848   		movl	%ebx, 72(%eax)
 1021              		.loc 1 417 7 is_stmt 1 view .LVU361
 1022              		.loc 1 417 14 is_stmt 0 view .LVU362
 1023 0070 89FB     		movl	%edi, %ebx
 1024 0072 50       		pushl	%eax
 1025              		.cfi_def_cfa_offset 48
 1026 0073 E8FCFFFF 		call	chSchReadyI@PLT
 1026      FF
 1027              	.LVL52:
 1028              		.loc 1 418 7 is_stmt 1 view .LVU363
 1029 0078 E8FCFFFF 		call	chSchRescheduleS@PLT
 1029      FF
 1030              	.LVL53:
 1031              	.LBE198:
 1032 007d 83C410   		addl	$16, %esp
 1033              		.cfi_def_cfa_offset 32
 1034              		.loc 1 427 3 view .LVU364
 1035              	.LBB207:
 1036              	.LBI207:
 1037              		.loc 5 421 20 view .LVU365
 1038              	.LBB208:
 1039              		.loc 5 423 23 view .LVU366
 1040              		.loc 5 424 34 view .LVU367
 1041              		.loc 5 430 3 view .LVU368
 1042              		.loc 5 430 3 view .LVU369
 1043              		.loc 5 430 3 view .LVU370
 1044              		.loc 5 434 3 view .LVU371
GAS LISTING /tmp/ccHfiOBR.s 			page 20


 1045              	.LBB209:
 1046              	.LBI209:
 1047              		.loc 6 370 20 view .LVU372
 1048              	.LBB210:
 1049              		.loc 6 372 3 view .LVU373
 1050              		.loc 6 372 16 is_stmt 0 view .LVU374
 1051 0080 C7060000 		movl	$0, (%esi)
 1051      0000
 1052              	.LBE210:
 1053              	.LBE209:
 1054              	.LBE208:
 1055              	.LBE207:
 1056              		.loc 1 428 1 view .LVU375
 1057 0086 83C40C   		addl	$12, %esp
 1058              		.cfi_remember_state
 1059              		.cfi_def_cfa_offset 20
 1060 0089 5B       		popl	%ebx
 1061              		.cfi_restore 3
 1062              		.cfi_def_cfa_offset 16
 1063 008a 5E       		popl	%esi
 1064              		.cfi_restore 6
 1065              		.cfi_def_cfa_offset 12
 1066 008b 5F       		popl	%edi
 1067              		.cfi_restore 7
 1068              		.cfi_def_cfa_offset 8
 1069 008c 5D       		popl	%ebp
 1070              		.cfi_restore 5
 1071              		.cfi_def_cfa_offset 4
 1072              	.LVL54:
 1073              		.loc 1 428 1 view .LVU376
 1074 008d C3       		ret
 1075              	.LVL55:
 1076 008e 6690     		.p2align 4,,10
 1077              		.p2align 3
 1078              	.L44:
 1079              		.cfi_restore_state
 1080              		.loc 1 421 7 is_stmt 1 view .LVU377
 1081              		.loc 1 421 17 is_stmt 0 view .LVU378
 1082 0090 C7430800 		movl	$0, 8(%ebx)
 1082      000000
 1083              		.loc 1 427 3 is_stmt 1 view .LVU379
 1084              	.LBB214:
 1085              		.loc 5 421 20 view .LVU380
 1086              	.LBB213:
 1087              		.loc 5 423 23 view .LVU381
 1088              		.loc 5 424 34 view .LVU382
 1089              		.loc 5 430 3 view .LVU383
 1090              		.loc 5 430 3 view .LVU384
 1091              		.loc 5 430 3 view .LVU385
 1092              		.loc 5 434 3 view .LVU386
 1093              	.LBB212:
 1094              		.loc 6 370 20 view .LVU387
 1095              	.LBB211:
 1096              		.loc 6 372 3 view .LVU388
 1097              		.loc 6 372 16 is_stmt 0 view .LVU389
 1098 0097 C7060000 		movl	$0, (%esi)
 1098      0000
GAS LISTING /tmp/ccHfiOBR.s 			page 21


 1099              	.LBE211:
 1100              	.LBE212:
 1101              	.LBE213:
 1102              	.LBE214:
 1103              		.loc 1 428 1 view .LVU390
 1104 009d 83C40C   		addl	$12, %esp
 1105              		.cfi_def_cfa_offset 20
 1106 00a0 5B       		popl	%ebx
 1107              		.cfi_restore 3
 1108              		.cfi_def_cfa_offset 16
 1109 00a1 5E       		popl	%esi
 1110              		.cfi_restore 6
 1111              		.cfi_def_cfa_offset 12
 1112 00a2 5F       		popl	%edi
 1113              		.cfi_restore 7
 1114              		.cfi_def_cfa_offset 8
 1115 00a3 5D       		popl	%ebp
 1116              		.cfi_restore 5
 1117              		.cfi_def_cfa_offset 4
 1118              	.LVL56:
 1119              		.loc 1 428 1 view .LVU391
 1120 00a4 C3       		ret
 1121              		.cfi_endproc
 1122              	.LFE221:
 1123              		.size	chMtxUnlock, .-chMtxUnlock
 1124              		.section	.text.chMtxUnlockS,"ax",@progbits
 1125              		.p2align 4
 1126              		.globl	chMtxUnlockS
 1127              		.type	chMtxUnlockS, @function
 1128              	chMtxUnlockS:
 1129              	.LVL57:
 1130              	.LFB222:
 1131              		.loc 1 444 32 is_stmt 1 view -0
 1132              		.cfi_startproc
 1133              		.loc 1 445 3 view .LVU393
 1134              	.LBB215:
 1135              	.LBI215:
 1136              		.loc 3 527 25 view .LVU394
 1137              	.LBB216:
 1138              		.loc 3 529 3 view .LVU395
 1139              	.LBE216:
 1140              	.LBE215:
 1141              		.loc 1 444 32 is_stmt 0 view .LVU396
 1142 0000 57       		pushl	%edi
 1143              		.cfi_def_cfa_offset 8
 1144              		.cfi_offset 7, -8
 1145 0001 56       		pushl	%esi
 1146              		.cfi_def_cfa_offset 12
 1147              		.cfi_offset 6, -12
 1148 0002 E8FCFFFF 		call	__x86.get_pc_thunk.si
 1148      FF
 1149 0007 81C60200 		addl	$_GLOBAL_OFFSET_TABLE_, %esi
 1149      0000
 1150 000d 53       		pushl	%ebx
 1151              		.cfi_def_cfa_offset 16
 1152              		.cfi_offset 3, -16
 1153              		.loc 1 444 32 view .LVU397
GAS LISTING /tmp/ccHfiOBR.s 			page 22


 1154 000e 8B5C2410 		movl	16(%esp), %ebx
 1155              	.LBB218:
 1156              	.LBB217:
 1157              		.loc 3 529 10 view .LVU398
 1158 0012 8B860000 		movl	ch0@GOT(%esi), %eax
 1158      0000
 1159 0018 8B780C   		movl	12(%eax), %edi
 1160              	.LVL58:
 1161              		.loc 3 529 10 view .LVU399
 1162              	.LBE217:
 1163              	.LBE218:
 1164              		.loc 1 446 3 is_stmt 1 view .LVU400
 1165              		.loc 1 448 21 view .LVU401
 1166              		.loc 1 449 3 view .LVU402
 1167              		.loc 1 449 3 view .LVU403
 1168              		.loc 1 449 3 view .LVU404
 1169              		.loc 1 451 3 view .LVU405
 1170              		.loc 1 451 3 view .LVU406
 1171              		.loc 1 451 3 view .LVU407
 1172              		.loc 1 452 3 view .LVU408
 1173              		.loc 1 452 3 view .LVU409
 1174              		.loc 1 452 3 view .LVU410
 1175              		.loc 1 459 5 view .LVU411
 1176              		.loc 1 459 5 view .LVU412
 1177              		.loc 1 459 5 view .LVU413
 1178              		.loc 1 464 5 view .LVU414
 1179              		.loc 1 464 25 is_stmt 0 view .LVU415
 1180 001b 8B430C   		movl	12(%ebx), %eax
 1181              		.loc 1 464 21 view .LVU416
 1182 001e 894748   		movl	%eax, 72(%edi)
 1183              		.loc 1 467 5 is_stmt 1 view .LVU417
 1184              	.LVL59:
 1185              	.LBB219:
 1186              	.LBI219:
 1187              		.loc 7 129 20 view .LVU418
 1188              	.LBB220:
 1189              		.loc 7 131 21 view .LVU419
 1190              		.loc 7 133 3 view .LVU420
 1191              	.LBB221:
 1192              	.LBI221:
 1193              		.loc 2 309 20 view .LVU421
 1194              	.LBB222:
 1195              		.loc 2 311 3 view .LVU422
 1196              		.loc 2 311 3 is_stmt 0 view .LVU423
 1197              	.LBE222:
 1198              	.LBE221:
 1199              	.LBE220:
 1200              	.LBE219:
 1201              		.loc 1 467 8 view .LVU424
 1202 0021 391B     		cmpl	%ebx, (%ebx)
 1203 0023 744B     		je	.L55
 1204              	.LBB223:
 1205              		.loc 1 468 7 is_stmt 1 view .LVU425
 1206              		.loc 1 472 7 view .LVU426
 1207              		.loc 1 472 15 is_stmt 0 view .LVU427
 1208 0025 8B4F4C   		movl	76(%edi), %ecx
 1209              	.LVL60:
GAS LISTING /tmp/ccHfiOBR.s 			page 23


 1210              		.loc 1 473 7 is_stmt 1 view .LVU428
 1211              		.loc 1 474 7 view .LVU429
 1212              		.loc 1 474 18 view .LVU430
 1213 0028 85C0     		testl	%eax, %eax
 1214 002a 7419     		je	.L56
 1215 002c 8D742600 		.p2align 4,,10
 1216              		.p2align 3
 1217              	.L58:
 1218              		.loc 1 478 9 view .LVU431
 1219              	.LVL61:
 1220              	.LBB224:
 1221              	.LBI224:
 1222              		.loc 7 129 20 view .LVU432
 1223              	.LBB225:
 1224              		.loc 7 131 21 view .LVU433
 1225              		.loc 7 133 3 view .LVU434
 1226              	.LBB226:
 1227              	.LBI226:
 1228              		.loc 2 309 20 view .LVU435
 1229              	.LBB227:
 1230              		.loc 2 311 3 view .LVU436
 1231              		.loc 2 311 19 is_stmt 0 view .LVU437
 1232 0030 8B10     		movl	(%eax), %edx
 1233              	.LVL62:
 1234              		.loc 2 311 19 view .LVU438
 1235              	.LBE227:
 1236              	.LBE226:
 1237              	.LBE225:
 1238              	.LBE224:
 1239              		.loc 1 478 12 view .LVU439
 1240 0032 39D0     		cmpl	%edx, %eax
 1241 0034 7408     		je	.L57
 1242              		.loc 1 478 12 view .LVU440
 1243 0036 8B5208   		movl	8(%edx), %edx
 1244 0039 39D1     		cmpl	%edx, %ecx
 1245 003b 0F42CA   		cmovb	%edx, %ecx
 1246              	.LVL63:
 1247              	.L57:
 1248              		.loc 1 482 9 is_stmt 1 view .LVU441
 1249              		.loc 1 482 13 is_stmt 0 view .LVU442
 1250 003e 8B400C   		movl	12(%eax), %eax
 1251              	.LVL64:
 1252              		.loc 1 474 18 is_stmt 1 view .LVU443
 1253 0041 85C0     		testl	%eax, %eax
 1254 0043 75EB     		jne	.L58
 1255              	.L56:
 1256              		.loc 1 487 7 view .LVU444
 1257              		.loc 1 487 31 is_stmt 0 view .LVU445
 1258 0045 894F08   		movl	%ecx, 8(%edi)
 1259              		.loc 1 494 7 is_stmt 1 view .LVU446
 1260              	.LVL65:
 1261              	.LBB228:
 1262              	.LBI228:
 1263              		.loc 2 340 27 view .LVU447
 1264              	.LBB229:
 1265              		.loc 2 341 3 view .LVU448
 1266              		.loc 2 341 15 is_stmt 0 view .LVU449
GAS LISTING /tmp/ccHfiOBR.s 			page 24


 1267 0048 8B03     		movl	(%ebx), %eax
 1268              	.LVL66:
 1269              		.loc 2 343 3 is_stmt 1 view .LVU450
 1270              	.LBE229:
 1271              	.LBE228:
 1272              		.loc 1 498 14 is_stmt 0 view .LVU451
 1273 004a 83EC0C   		subl	$12, %esp
 1274              		.cfi_def_cfa_offset 28
 1275              	.LBB231:
 1276              	.LBB230:
 1277              		.loc 2 343 21 view .LVU452
 1278 004d 8B10     		movl	(%eax), %edx
 1279              		.loc 2 343 18 view .LVU453
 1280 004f 8913     		movl	%edx, (%ebx)
 1281              		.loc 2 344 3 is_stmt 1 view .LVU454
 1282              		.loc 2 344 18 is_stmt 0 view .LVU455
 1283 0051 895A04   		movl	%ebx, 4(%edx)
 1284              		.loc 2 346 3 is_stmt 1 view .LVU456
 1285              	.LVL67:
 1286              		.loc 2 346 3 is_stmt 0 view .LVU457
 1287              	.LBE230:
 1288              	.LBE231:
 1289              		.loc 1 495 7 is_stmt 1 view .LVU458
 1290              		.loc 1 496 16 is_stmt 0 view .LVU459
 1291 0054 8B5048   		movl	72(%eax), %edx
 1292              		.loc 1 495 17 view .LVU460
 1293 0057 894308   		movl	%eax, 8(%ebx)
 1294              		.loc 1 496 7 is_stmt 1 view .LVU461
 1295              		.loc 1 496 16 is_stmt 0 view .LVU462
 1296 005a 89530C   		movl	%edx, 12(%ebx)
 1297              		.loc 1 497 7 is_stmt 1 view .LVU463
 1298              		.loc 1 497 19 is_stmt 0 view .LVU464
 1299 005d 895848   		movl	%ebx, 72(%eax)
 1300              		.loc 1 498 7 is_stmt 1 view .LVU465
 1301              		.loc 1 498 14 is_stmt 0 view .LVU466
 1302 0060 89F3     		movl	%esi, %ebx
 1303 0062 50       		pushl	%eax
 1304              		.cfi_def_cfa_offset 32
 1305 0063 E8FCFFFF 		call	chSchReadyI@PLT
 1305      FF
 1306              	.LVL68:
 1307              		.loc 1 498 14 view .LVU467
 1308              	.LBE223:
 1309 0068 83C410   		addl	$16, %esp
 1310              		.cfi_def_cfa_offset 16
 1311              		.loc 1 506 1 view .LVU468
 1312 006b 5B       		popl	%ebx
 1313              		.cfi_remember_state
 1314              		.cfi_restore 3
 1315              		.cfi_def_cfa_offset 12
 1316 006c 5E       		popl	%esi
 1317              		.cfi_restore 6
 1318              		.cfi_def_cfa_offset 8
 1319 006d 5F       		popl	%edi
 1320              		.cfi_restore 7
 1321              		.cfi_def_cfa_offset 4
 1322              	.LVL69:
GAS LISTING /tmp/ccHfiOBR.s 			page 25


 1323              		.loc 1 506 1 view .LVU469
 1324 006e C3       		ret
 1325              	.LVL70:
 1326 006f 90       		.p2align 4,,10
 1327              		.p2align 3
 1328              	.L55:
 1329              		.cfi_restore_state
 1330              		.loc 1 501 7 is_stmt 1 view .LVU470
 1331              		.loc 1 501 17 is_stmt 0 view .LVU471
 1332 0070 C7430800 		movl	$0, 8(%ebx)
 1332      000000
 1333              		.loc 1 506 1 view .LVU472
 1334 0077 5B       		popl	%ebx
 1335              		.cfi_restore 3
 1336              		.cfi_def_cfa_offset 12
 1337              	.LVL71:
 1338              		.loc 1 506 1 view .LVU473
 1339 0078 5E       		popl	%esi
 1340              		.cfi_restore 6
 1341              		.cfi_def_cfa_offset 8
 1342 0079 5F       		popl	%edi
 1343              		.cfi_restore 7
 1344              		.cfi_def_cfa_offset 4
 1345              	.LVL72:
 1346              		.loc 1 506 1 view .LVU474
 1347 007a C3       		ret
 1348              		.cfi_endproc
 1349              	.LFE222:
 1350              		.size	chMtxUnlockS, .-chMtxUnlockS
 1351              		.section	.text.chMtxUnlockAllS,"ax",@progbits
 1352              		.p2align 4
 1353              		.globl	chMtxUnlockAllS
 1354              		.type	chMtxUnlockAllS, @function
 1355              	chMtxUnlockAllS:
 1356              	.LFB223:
 1357              		.loc 1 521 28 is_stmt 1 view -0
 1358              		.cfi_startproc
 1359              		.loc 1 522 3 view .LVU476
 1360              	.LBB232:
 1361              	.LBI232:
 1362              		.loc 3 527 25 view .LVU477
 1363              	.LBB233:
 1364              		.loc 3 529 3 view .LVU478
 1365              	.LBE233:
 1366              	.LBE232:
 1367              		.loc 1 521 28 is_stmt 0 view .LVU479
 1368 0000 56       		pushl	%esi
 1369              		.cfi_def_cfa_offset 8
 1370              		.cfi_offset 6, -8
 1371 0001 53       		pushl	%ebx
 1372              		.cfi_def_cfa_offset 12
 1373              		.cfi_offset 3, -12
 1374 0002 E8FCFFFF 		call	__x86.get_pc_thunk.bx
 1374      FF
 1375 0007 81C30200 		addl	$_GLOBAL_OFFSET_TABLE_, %ebx
 1375      0000
 1376 000d 83EC04   		subl	$4, %esp
GAS LISTING /tmp/ccHfiOBR.s 			page 26


 1377              		.cfi_def_cfa_offset 16
 1378              	.LBB235:
 1379              	.LBB234:
 1380              		.loc 3 529 10 view .LVU480
 1381 0010 8B830000 		movl	ch0@GOT(%ebx), %eax
 1381      0000
 1382 0016 8B700C   		movl	12(%eax), %esi
 1383              	.LVL73:
 1384              		.loc 3 529 10 view .LVU481
 1385              	.LBE234:
 1386              	.LBE235:
 1387              		.loc 1 524 3 is_stmt 1 view .LVU482
 1388              		.loc 1 524 13 is_stmt 0 view .LVU483
 1389 0019 8B4648   		movl	72(%esi), %eax
 1390              		.loc 1 524 6 view .LVU484
 1391 001c 85C0     		testl	%eax, %eax
 1392 001e 752E     		jne	.L69
 1393 0020 EB50     		jmp	.L65
 1394              	.LVL74:
 1395              		.p2align 4,,10
 1396 0022 8DB60000 		.p2align 3
 1396      0000
 1397              	.L76:
 1398              	.LBB236:
 1399              	.LBB237:
 1400              		.loc 1 529 9 is_stmt 1 view .LVU485
 1401              		.loc 1 533 9 view .LVU486
 1402              	.LBB238:
 1403              	.LBI238:
 1404              		.loc 2 340 27 view .LVU487
 1405              	.LBB239:
 1406              		.loc 2 341 3 view .LVU488
 1407              		.loc 2 343 3 view .LVU489
 1408              		.loc 2 343 21 is_stmt 0 view .LVU490
 1409 0028 8B0A     		movl	(%edx), %ecx
 1410              	.LBE239:
 1411              	.LBE238:
 1412              		.loc 1 537 16 view .LVU491
 1413 002a 83EC0C   		subl	$12, %esp
 1414              		.cfi_def_cfa_offset 28
 1415              	.LBB241:
 1416              	.LBB240:
 1417              		.loc 2 343 18 view .LVU492
 1418 002d 8908     		movl	%ecx, (%eax)
 1419              		.loc 2 344 3 is_stmt 1 view .LVU493
 1420              		.loc 2 344 18 is_stmt 0 view .LVU494
 1421 002f 894104   		movl	%eax, 4(%ecx)
 1422              		.loc 2 346 3 is_stmt 1 view .LVU495
 1423              	.LVL75:
 1424              		.loc 2 346 3 is_stmt 0 view .LVU496
 1425              	.LBE240:
 1426              	.LBE241:
 1427              		.loc 1 534 9 is_stmt 1 view .LVU497
 1428              		.loc 1 535 21 is_stmt 0 view .LVU498
 1429 0032 8B4A48   		movl	72(%edx), %ecx
 1430              		.loc 1 534 21 view .LVU499
 1431 0035 895008   		movl	%edx, 8(%eax)
GAS LISTING /tmp/ccHfiOBR.s 			page 27


 1432              		.loc 1 535 9 is_stmt 1 view .LVU500
 1433              		.loc 1 535 21 is_stmt 0 view .LVU501
 1434 0038 89480C   		movl	%ecx, 12(%eax)
 1435              		.loc 1 536 9 is_stmt 1 view .LVU502
 1436              		.loc 1 536 21 is_stmt 0 view .LVU503
 1437 003b 894248   		movl	%eax, 72(%edx)
 1438              		.loc 1 537 9 is_stmt 1 view .LVU504
 1439              		.loc 1 537 16 is_stmt 0 view .LVU505
 1440 003e 52       		pushl	%edx
 1441              		.cfi_def_cfa_offset 32
 1442 003f E8FCFFFF 		call	chSchReadyI@PLT
 1442      FF
 1443              	.LVL76:
 1444              		.loc 1 537 16 view .LVU506
 1445              	.LBE237:
 1446              	.LBE236:
 1447              		.loc 1 545 20 view .LVU507
 1448 0044 8B4648   		movl	72(%esi), %eax
 1449              	.LBB250:
 1450 0047 83C410   		addl	$16, %esp
 1451              		.cfi_def_cfa_offset 16
 1452              	.LBE250:
 1453              		.loc 1 545 30 is_stmt 1 view .LVU508
 1454 004a 85C0     		testl	%eax, %eax
 1455 004c 7419     		je	.L75
 1456              	.L69:
 1457              		.loc 1 525 5 view .LVU509
 1458              	.LBB251:
 1459              		.loc 1 526 7 view .LVU510
 1460              	.LVL77:
 1461              		.loc 1 527 7 view .LVU511
 1462              		.loc 1 527 27 is_stmt 0 view .LVU512
 1463 004e 8B480C   		movl	12(%eax), %ecx
 1464              	.LBB242:
 1465              	.LBB243:
 1466              	.LBB244:
 1467              	.LBB245:
 1468              		.loc 2 311 19 view .LVU513
 1469 0051 8B10     		movl	(%eax), %edx
 1470              	.LBE245:
 1471              	.LBE244:
 1472              	.LBE243:
 1473              	.LBE242:
 1474              		.loc 1 527 23 view .LVU514
 1475 0053 894E48   		movl	%ecx, 72(%esi)
 1476              	.LVL78:
 1477              		.loc 1 528 7 is_stmt 1 view .LVU515
 1478              	.LBB249:
 1479              	.LBI242:
 1480              		.loc 7 129 20 view .LVU516
 1481              	.LBB248:
 1482              		.loc 7 131 21 view .LVU517
 1483              		.loc 7 133 3 view .LVU518
 1484              	.LBB247:
 1485              	.LBI244:
 1486              		.loc 2 309 20 view .LVU519
 1487              	.LBB246:
GAS LISTING /tmp/ccHfiOBR.s 			page 28


 1488              		.loc 2 311 3 view .LVU520
 1489              		.loc 2 311 3 is_stmt 0 view .LVU521
 1490              	.LBE246:
 1491              	.LBE247:
 1492              	.LBE248:
 1493              	.LBE249:
 1494              		.loc 1 528 10 view .LVU522
 1495 0056 39D0     		cmpl	%edx, %eax
 1496 0058 75CE     		jne	.L76
 1497              		.loc 1 543 9 is_stmt 1 view .LVU523
 1498              		.loc 1 543 19 is_stmt 0 view .LVU524
 1499 005a C7400800 		movl	$0, 8(%eax)
 1499      000000
 1500 0061 89C8     		movl	%ecx, %eax
 1501              	.LBE251:
 1502              		.loc 1 545 30 is_stmt 1 view .LVU525
 1503 0063 85C0     		testl	%eax, %eax
 1504 0065 75E7     		jne	.L69
 1505              	.L75:
 1506              		.loc 1 546 5 view .LVU526
 1507              		.loc 1 546 29 is_stmt 0 view .LVU527
 1508 0067 8B464C   		movl	76(%esi), %eax
 1509 006a 894608   		movl	%eax, 8(%esi)
 1510              		.loc 1 547 5 is_stmt 1 view .LVU528
 1511 006d E8FCFFFF 		call	chSchRescheduleS@PLT
 1511      FF
 1512              	.LVL79:
 1513              	.L65:
 1514              		.loc 1 549 1 is_stmt 0 view .LVU529
 1515 0072 83C404   		addl	$4, %esp
 1516              		.cfi_def_cfa_offset 12
 1517 0075 5B       		popl	%ebx
 1518              		.cfi_restore 3
 1519              		.cfi_def_cfa_offset 8
 1520 0076 5E       		popl	%esi
 1521              		.cfi_restore 6
 1522              		.cfi_def_cfa_offset 4
 1523              	.LVL80:
 1524              		.loc 1 549 1 view .LVU530
 1525 0077 C3       		ret
 1526              		.cfi_endproc
 1527              	.LFE223:
 1528              		.size	chMtxUnlockAllS, .-chMtxUnlockAllS
 1529              		.section	.text.chMtxUnlockAll,"ax",@progbits
 1530              		.p2align 4
 1531              		.globl	chMtxUnlockAll
 1532              		.type	chMtxUnlockAll, @function
 1533              	chMtxUnlockAll:
 1534              	.LFB224:
 1535              		.loc 1 562 27 is_stmt 1 view -0
 1536              		.cfi_startproc
 1537              		.loc 1 564 3 view .LVU532
 1538              	.LBB252:
 1539              	.LBI252:
 1540              		.loc 5 407 20 view .LVU533
 1541              		.loc 5 409 3 view .LVU534
 1542              	.LBB253:
GAS LISTING /tmp/ccHfiOBR.s 			page 29


 1543              	.LBI253:
 1544              		.loc 6 361 20 view .LVU535
 1545              	.LBB254:
 1546              		.loc 6 363 3 view .LVU536
 1547 0000 E8FCFFFF 		call	__x86.get_pc_thunk.ax
 1547      FF
 1548 0005 05010000 		addl	$_GLOBAL_OFFSET_TABLE_, %eax
 1548      00
 1549              	.LBE254:
 1550              	.LBE253:
 1551              	.LBE252:
 1552              		.loc 1 562 27 is_stmt 0 view .LVU537
 1553 000a 53       		pushl	%ebx
 1554              		.cfi_def_cfa_offset 8
 1555              		.cfi_offset 3, -8
 1556 000b 83EC08   		subl	$8, %esp
 1557              		.cfi_def_cfa_offset 16
 1558              	.LBB257:
 1559              	.LBB256:
 1560              	.LBB255:
 1561              		.loc 6 363 16 view .LVU538
 1562 000e 8B980000 		movl	port_irq_sts@GOT(%eax), %ebx
 1562      0000
 1563 0014 C7030100 		movl	$1, (%ebx)
 1563      0000
 1564              	.LBE255:
 1565              	.LBE256:
 1566              		.loc 5 410 35 is_stmt 1 view .LVU539
 1567              		.loc 5 411 21 view .LVU540
 1568              	.LBE257:
 1569              		.loc 1 565 3 view .LVU541
 1570 001a E8FCFFFF 		call	chMtxUnlockAllS
 1570      FF
 1571              	.LVL81:
 1572              		.loc 1 566 3 view .LVU542
 1573              	.LBB258:
 1574              	.LBI258:
 1575              		.loc 5 421 20 view .LVU543
 1576              	.LBB259:
 1577              		.loc 5 423 23 view .LVU544
 1578              		.loc 5 424 34 view .LVU545
 1579              		.loc 5 430 3 view .LVU546
 1580              		.loc 5 430 3 view .LVU547
 1581              		.loc 5 430 3 view .LVU548
 1582              		.loc 5 434 3 view .LVU549
 1583              	.LBB260:
 1584              	.LBI260:
 1585              		.loc 6 370 20 view .LVU550
 1586              	.LBB261:
 1587              		.loc 6 372 3 view .LVU551
 1588              		.loc 6 372 16 is_stmt 0 view .LVU552
 1589 001f C7030000 		movl	$0, (%ebx)
 1589      0000
 1590              	.LBE261:
 1591              	.LBE260:
 1592              	.LBE259:
 1593              	.LBE258:
GAS LISTING /tmp/ccHfiOBR.s 			page 30


 1594              		.loc 1 567 1 view .LVU553
 1595 0025 83C408   		addl	$8, %esp
 1596              		.cfi_def_cfa_offset 8
 1597 0028 5B       		popl	%ebx
 1598              		.cfi_restore 3
 1599              		.cfi_def_cfa_offset 4
 1600 0029 C3       		ret
 1601              		.cfi_endproc
 1602              	.LFE224:
 1603              		.size	chMtxUnlockAll, .-chMtxUnlockAll
 1604              		.section	.text.__x86.get_pc_thunk.ax,"axG",@progbits,__x86.get_pc_thunk.ax,comdat
 1605              		.globl	__x86.get_pc_thunk.ax
 1606              		.hidden	__x86.get_pc_thunk.ax
 1607              		.type	__x86.get_pc_thunk.ax, @function
 1608              	__x86.get_pc_thunk.ax:
 1609              	.LFB225:
 1610              		.cfi_startproc
 1611 0000 8B0424   		movl	(%esp), %eax
 1612 0003 C3       		ret
 1613              		.cfi_endproc
 1614              	.LFE225:
 1615              		.section	.text.__x86.get_pc_thunk.cx,"axG",@progbits,__x86.get_pc_thunk.cx,comdat
 1616              		.globl	__x86.get_pc_thunk.cx
 1617              		.hidden	__x86.get_pc_thunk.cx
 1618              		.type	__x86.get_pc_thunk.cx, @function
 1619              	__x86.get_pc_thunk.cx:
 1620              	.LFB226:
 1621              		.cfi_startproc
 1622 0000 8B0C24   		movl	(%esp), %ecx
 1623 0003 C3       		ret
 1624              		.cfi_endproc
 1625              	.LFE226:
 1626              		.section	.text.__x86.get_pc_thunk.bx,"axG",@progbits,__x86.get_pc_thunk.bx,comdat
 1627              		.globl	__x86.get_pc_thunk.bx
 1628              		.hidden	__x86.get_pc_thunk.bx
 1629              		.type	__x86.get_pc_thunk.bx, @function
 1630              	__x86.get_pc_thunk.bx:
 1631              	.LFB227:
 1632              		.cfi_startproc
 1633 0000 8B1C24   		movl	(%esp), %ebx
 1634 0003 C3       		ret
 1635              		.cfi_endproc
 1636              	.LFE227:
 1637              		.section	.text.__x86.get_pc_thunk.si,"axG",@progbits,__x86.get_pc_thunk.si,comdat
 1638              		.globl	__x86.get_pc_thunk.si
 1639              		.hidden	__x86.get_pc_thunk.si
 1640              		.type	__x86.get_pc_thunk.si, @function
 1641              	__x86.get_pc_thunk.si:
 1642              	.LFB228:
 1643              		.cfi_startproc
 1644 0000 8B3424   		movl	(%esp), %esi
 1645 0003 C3       		ret
 1646              		.cfi_endproc
 1647              	.LFE228:
 1648              		.section	.text.__x86.get_pc_thunk.di,"axG",@progbits,__x86.get_pc_thunk.di,comdat
 1649              		.globl	__x86.get_pc_thunk.di
 1650              		.hidden	__x86.get_pc_thunk.di
GAS LISTING /tmp/ccHfiOBR.s 			page 31


 1651              		.type	__x86.get_pc_thunk.di, @function
 1652              	__x86.get_pc_thunk.di:
 1653              	.LFB229:
 1654              		.cfi_startproc
 1655 0000 8B3C24   		movl	(%esp), %edi
 1656 0003 C3       		ret
 1657              		.cfi_endproc
 1658              	.LFE229:
 1659              		.text
 1660              	.Letext0:
 1661              		.file 8 "/usr/include/bits/types.h"
 1662              		.file 9 "/usr/include/bits/stdint-intn.h"
 1663              		.file 10 "/usr/include/bits/stdint-uintn.h"
 1664              		.file 11 "../../../os/common/ports/SIMIA32/compilers/GCC/chtypes.h"
 1665              		.file 12 "../../../os/rt/include/chearly.h"
 1666              		.file 13 "../../../os/rt/include/chobjects.h"
 1667              		.file 14 "../../../os/rt/include/chrfcu.h"
 1668              		.file 15 "../../../os/rt/include/chdebug.h"
 1669              		.file 16 "../../../os/rt/include/chtime.h"
 1670              		.file 17 "../../../os/rt/include/chsem.h"
 6159 004f 2F686F6D 		.section	.note.GNU-stack,"",@progbits
 6159      652F616C 
 6159      65782F43 
 6159      68696269 
 6159      4F532F64 
GAS LISTING /tmp/ccHfiOBR.s 			page 116

