GAS LISTING /tmp/ccclQxGY.s 			page 1


   1              		.file	"hal_st.c"
   2              		.text
   3              	.Ltext0:
   4              		.file 0 "/home/alex/ChibiOS/demos/various/RT-Posix-Simulator" "../../../os/hal/src/hal_st.c"
   5              		.section	.text.stInit,"ax",@progbits
   6              		.p2align 4
   7              		.globl	stInit
   8              		.type	stInit, @function
   9              	stInit:
  10              	.LFB299:
  11              		.file 1 "../../../os/hal/src/hal_st.c"
  12              		.loc 1 69 19 view -0
  13              		.cfi_startproc
  14              		.loc 1 77 3 view .LVU1
  15              		.loc 1 69 19 is_stmt 0 view .LVU2
  16 0000 53       		pushl	%ebx
  17              		.cfi_def_cfa_offset 8
  18              		.cfi_offset 3, -8
  19 0001 E8FCFFFF 		call	__x86.get_pc_thunk.bx
  19      FF
  20 0006 81C30200 		addl	$_GLOBAL_OFFSET_TABLE_, %ebx
  20      0000
  21 000c 83EC08   		subl	$8, %esp
  22              		.cfi_def_cfa_offset 16
  23              		.loc 1 77 3 view .LVU3
  24 000f E8FCFFFF 		call	st_lld_init@PLT
  24      FF
  25              	.LVL0:
  26              		.loc 1 78 1 view .LVU4
  27 0014 83C408   		addl	$8, %esp
  28              		.cfi_def_cfa_offset 8
  29 0017 5B       		popl	%ebx
  30              		.cfi_restore 3
  31              		.cfi_def_cfa_offset 4
  32 0018 C3       		ret
  33              		.cfi_endproc
  34              	.LFE299:
  35              		.size	stInit, .-stInit
  36              		.section	.text.__x86.get_pc_thunk.bx,"axG",@progbits,__x86.get_pc_thunk.bx,comdat
  37              		.globl	__x86.get_pc_thunk.bx
  38              		.hidden	__x86.get_pc_thunk.bx
  39              		.type	__x86.get_pc_thunk.bx, @function
  40              	__x86.get_pc_thunk.bx:
  41              	.LFB300:
  42              		.cfi_startproc
  43 0000 8B1C24   		movl	(%esp), %ebx
  44 0003 C3       		ret
  45              		.cfi_endproc
  46              	.LFE300:
  47              		.text
  48              	.Letext0:
  49              		.file 2 "../../../os/hal/ports/simulator/hal_st_lld.h"
 304 0051 2F686F6D 		.section	.note.GNU-stack,"",@progbits
 304      652F616C 
 304      65782F43 
 304      68696269 
 304      4F532F64 
GAS LISTING /tmp/ccclQxGY.s 			page 8

