GAS LISTING /tmp/ccsBUNhs.s 			page 1


   1              		.file	"hal_flash.c"
   2              		.text
   3              	.Ltext0:
   4              		.file 0 "/home/alex/ChibiOS/demos/various/RT-Posix-Simulator" "../../../os/hal/src/hal_flash.c"
   5              		.globl	__udivdi3
   6              		.globl	__divdi3
   7              		.section	.text.flashWaitErase,"ax",@progbits
   8              		.p2align 4
   9              		.globl	flashWaitErase
  10              		.type	flashWaitErase, @function
  11              	flashWaitErase:
  12              	.LVL0:
  13              	.LFB299:
  14              		.file 1 "../../../os/hal/src/hal_flash.c"
  15              		.loc 1 61 47 view -0
  16              		.cfi_startproc
  17              		.loc 1 61 47 is_stmt 0 view .LVU1
  18 0000 55       		pushl	%ebp
  19              		.cfi_def_cfa_offset 8
  20              		.cfi_offset 5, -8
  21              	.LBB5:
  22              		.loc 1 74 5 view .LVU2
  23 0001 BDE80300 		movl	$1000, %ebp
  23      00
  24              	.LBE5:
  25              		.loc 1 61 47 view .LVU3
  26 0006 57       		pushl	%edi
  27              		.cfi_def_cfa_offset 12
  28              		.cfi_offset 7, -12
  29 0007 56       		pushl	%esi
  30              		.cfi_def_cfa_offset 16
  31              		.cfi_offset 6, -16
  32 0008 53       		pushl	%ebx
  33              		.cfi_def_cfa_offset 20
  34              		.cfi_offset 3, -20
  35 0009 E8FCFFFF 		call	__x86.get_pc_thunk.bx
  35      FF
  36 000e 81C30200 		addl	$_GLOBAL_OFFSET_TABLE_, %ebx
  36      0000
  37 0014 83EC1C   		subl	$28, %esp
  38              		.cfi_def_cfa_offset 48
  39              		.loc 1 61 47 view .LVU4
  40 0017 65A11400 		movl	%gs:20, %eax
  40      0000
  41 001d 8944240C 		movl	%eax, 12(%esp)
  42 0021 31C0     		xorl	%eax, %eax
  43 0023 8B742430 		movl	48(%esp), %esi
  44 0027 8D7C2408 		leal	8(%esp), %edi
  45 002b EB2E     		jmp	.L3
  46              	.LVL1:
  47 002d 8D7600   		.p2align 4,,10
  48              		.p2align 3
  49              	.L8:
  50              	.LBB10:
  51              		.loc 1 74 5 is_stmt 1 view .LVU5
  52              	.LBB6:
  53              	.LBI6:
GAS LISTING /tmp/ccsBUNhs.s 			page 2


  54              		.file 2 "../../../os/hal/osal/rt-nil/osal.h"
  55              		.loc 2 782 20 view .LVU6
  56              	.LBB7:
  57              		.loc 2 784 3 view .LVU7
  58 0030 83EC10   		subl	$16, %esp
  59              		.cfi_def_cfa_offset 64
  60              	.LBE7:
  61              	.LBE6:
  62              		.loc 1 74 5 is_stmt 0 view .LVU8
  63 0033 89E8     		movl	%ebp, %eax
  64              	.LVL2:
  65              		.loc 1 74 5 view .LVU9
  66 0035 F7642418 		mull	24(%esp)
  67 0039 6A00     		pushl	$0
  68              		.cfi_def_cfa_offset 68
  69 003b 68E80300 		pushl	$1000
  69      00
  70              		.cfi_def_cfa_offset 72
  71 0040 05E70300 		addl	$999, %eax
  71      00
  72 0045 83D200   		adcl	$0, %edx
  73 0048 52       		pushl	%edx
  74              		.cfi_def_cfa_offset 76
  75 0049 50       		pushl	%eax
  76              		.cfi_def_cfa_offset 80
  77 004a E8FCFFFF 		call	__udivdi3@PLT
  77      FF
  78              	.LVL3:
  79              		.loc 1 74 5 view .LVU10
  80 004f 83C414   		addl	$20, %esp
  81              		.cfi_def_cfa_offset 60
  82              	.LBB9:
  83              	.LBB8:
  84              		.loc 2 784 3 view .LVU11
  85 0052 50       		pushl	%eax
  86              		.cfi_def_cfa_offset 64
  87 0053 E8FCFFFF 		call	chThdSleep@PLT
  87      FF
  88              	.LVL4:
  89              		.loc 2 784 3 view .LVU12
  90              	.LBE8:
  91              	.LBE9:
  92              	.LBE10:
  93              		.loc 1 63 9 is_stmt 1 view .LVU13
  94              		.loc 1 63 16 is_stmt 0 view .LVU14
  95 0058 83C410   		addl	$16, %esp
  96              		.cfi_def_cfa_offset 48
  97              	.L3:
  98              		.loc 1 63 3 is_stmt 1 view .LVU15
  99              	.LBB11:
 100              		.loc 1 64 5 view .LVU16
 101              		.loc 1 65 5 view .LVU17
 102              		.loc 1 68 5 view .LVU18
 103              		.loc 1 68 11 is_stmt 0 view .LVU19
 104 005b 83EC08   		subl	$8, %esp
 105              		.cfi_def_cfa_offset 56
 106 005e 8B06     		movl	(%esi), %eax
GAS LISTING /tmp/ccsBUNhs.s 			page 3


 107 0060 57       		pushl	%edi
 108              		.cfi_def_cfa_offset 60
 109 0061 56       		pushl	%esi
 110              		.cfi_def_cfa_offset 64
 111 0062 FF5018   		call	*24(%eax)
 112              	.LVL5:
 113              		.loc 1 69 5 is_stmt 1 view .LVU20
 114              		.loc 1 69 8 is_stmt 0 view .LVU21
 115 0065 83C410   		addl	$16, %esp
 116              		.cfi_def_cfa_offset 48
 117 0068 83F801   		cmpl	$1, %eax
 118 006b 74C3     		je	.L8
 119              	.LBE11:
 120              		.loc 1 76 1 view .LVU22
 121 006d 8B54240C 		movl	12(%esp), %edx
 122 0071 652B1514 		subl	%gs:20, %edx
 122      000000
 123 0078 7508     		jne	.L9
 124 007a 83C41C   		addl	$28, %esp
 125              		.cfi_remember_state
 126              		.cfi_def_cfa_offset 20
 127 007d 5B       		popl	%ebx
 128              		.cfi_restore 3
 129              		.cfi_def_cfa_offset 16
 130 007e 5E       		popl	%esi
 131              		.cfi_restore 6
 132              		.cfi_def_cfa_offset 12
 133 007f 5F       		popl	%edi
 134              		.cfi_restore 7
 135              		.cfi_def_cfa_offset 8
 136 0080 5D       		popl	%ebp
 137              		.cfi_restore 5
 138              		.cfi_def_cfa_offset 4
 139 0081 C3       		ret
 140              	.L9:
 141              		.cfi_restore_state
 142 0082 E8FCFFFF 		call	__stack_chk_fail_local
 142      FF
 143              	.LVL6:
 144              		.loc 1 76 1 view .LVU23
 145              		.cfi_endproc
 146              	.LFE299:
 147              		.size	flashWaitErase, .-flashWaitErase
 148              		.section	.text.flashGetSectorOffset,"ax",@progbits
 149              		.p2align 4
 150              		.globl	flashGetSectorOffset
 151              		.type	flashGetSectorOffset, @function
 152              	flashGetSectorOffset:
 153              	.LVL7:
 154              	.LFB300:
 155              		.loc 1 88 60 is_stmt 1 view -0
 156              		.cfi_startproc
 157              		.loc 1 89 3 view .LVU25
 158              		.loc 1 90 3 view .LVU26
 159              		.loc 1 88 60 is_stmt 0 view .LVU27
 160 0000 83EC18   		subl	$24, %esp
 161              		.cfi_def_cfa_offset 28
GAS LISTING /tmp/ccsBUNhs.s 			page 4


 162              		.loc 1 88 60 view .LVU28
 163 0003 8B44241C 		movl	28(%esp), %eax
 164              		.loc 1 90 42 view .LVU29
 165 0007 8B10     		movl	(%eax), %edx
 166 0009 50       		pushl	%eax
 167              		.cfi_def_cfa_offset 32
 168 000a FF5204   		call	*4(%edx)
 169              	.LVL8:
 170              		.loc 1 92 3 is_stmt 1 view .LVU30
 171              		.loc 1 92 3 view .LVU31
 172              		.loc 1 92 3 view .LVU32
 173              		.loc 1 94 3 view .LVU33
 174              		.loc 1 94 17 is_stmt 0 view .LVU34
 175 000d 8B500C   		movl	12(%eax), %edx
 176              		.loc 1 94 6 view .LVU35
 177 0010 83C410   		addl	$16, %esp
 178              		.cfi_def_cfa_offset 16
 179 0013 85D2     		testl	%edx, %edx
 180 0015 7411     		je	.L11
 181              		.loc 1 95 5 is_stmt 1 view .LVU36
 182              		.loc 1 95 12 is_stmt 0 view .LVU37
 183 0017 8B442414 		movl	20(%esp), %eax
 184              	.LVL9:
 185              		.loc 1 95 12 view .LVU38
 186 001b 8B04C2   		movl	(%edx,%eax,8), %eax
 187              	.LVL10:
 188              		.loc 1 102 1 view .LVU39
 189 001e 83C40C   		addl	$12, %esp
 190              		.cfi_remember_state
 191              		.cfi_def_cfa_offset 4
 192 0021 C3       		ret
 193              	.LVL11:
 194              		.p2align 4,,10
 195 0022 8DB60000 		.p2align 3
 195      0000
 196              	.L11:
 197              		.cfi_restore_state
 198              		.loc 1 98 5 is_stmt 1 view .LVU40
 199              		.loc 1 98 12 is_stmt 0 view .LVU41
 200 0028 8B4C2414 		movl	20(%esp), %ecx
 201 002c 0FAF4810 		imull	16(%eax), %ecx
 202              		.loc 1 102 1 view .LVU42
 203 0030 83C40C   		addl	$12, %esp
 204              		.cfi_def_cfa_offset 4
 205              		.loc 1 98 12 view .LVU43
 206 0033 89C8     		movl	%ecx, %eax
 207              	.LVL12:
 208              		.loc 1 101 3 is_stmt 1 view .LVU44
 209              		.loc 1 102 1 is_stmt 0 view .LVU45
 210 0035 C3       		ret
 211              		.cfi_endproc
 212              	.LFE300:
 213              		.size	flashGetSectorOffset, .-flashGetSectorOffset
 214              		.section	.text.flashGetSectorSize,"ax",@progbits
 215              		.p2align 4
 216              		.globl	flashGetSectorSize
 217              		.type	flashGetSectorSize, @function
GAS LISTING /tmp/ccsBUNhs.s 			page 5


 218              	flashGetSectorSize:
 219              	.LVL13:
 220              	.LFB301:
 221              		.loc 1 114 52 is_stmt 1 view -0
 222              		.cfi_startproc
 223              		.loc 1 115 3 view .LVU47
 224              		.loc 1 116 3 view .LVU48
 225              		.loc 1 114 52 is_stmt 0 view .LVU49
 226 0000 83EC18   		subl	$24, %esp
 227              		.cfi_def_cfa_offset 28
 228              		.loc 1 114 52 view .LVU50
 229 0003 8B44241C 		movl	28(%esp), %eax
 230              		.loc 1 116 42 view .LVU51
 231 0007 8B10     		movl	(%eax), %edx
 232 0009 50       		pushl	%eax
 233              		.cfi_def_cfa_offset 32
 234 000a FF5204   		call	*4(%edx)
 235              	.LVL14:
 236              		.loc 1 118 3 is_stmt 1 view .LVU52
 237              		.loc 1 118 3 view .LVU53
 238              		.loc 1 118 3 view .LVU54
 239              		.loc 1 120 3 view .LVU55
 240              		.loc 1 120 17 is_stmt 0 view .LVU56
 241 000d 8B500C   		movl	12(%eax), %edx
 242              		.loc 1 120 6 view .LVU57
 243 0010 83C410   		addl	$16, %esp
 244              		.cfi_def_cfa_offset 16
 245 0013 85D2     		testl	%edx, %edx
 246 0015 7411     		je	.L15
 247              		.loc 1 121 5 is_stmt 1 view .LVU58
 248              		.loc 1 121 10 is_stmt 0 view .LVU59
 249 0017 8B442414 		movl	20(%esp), %eax
 250              	.LVL15:
 251              		.loc 1 121 10 view .LVU60
 252 001b 8B44C204 		movl	4(%edx,%eax,8), %eax
 253              	.LVL16:
 254              		.loc 1 128 1 view .LVU61
 255 001f 83C40C   		addl	$12, %esp
 256              		.cfi_remember_state
 257              		.cfi_def_cfa_offset 4
 258 0022 C3       		ret
 259              	.LVL17:
 260              		.p2align 4,,10
 261 0023 8D742600 		.p2align 3
 261      90
 262              	.L15:
 263              		.cfi_restore_state
 264              		.loc 1 124 5 is_stmt 1 view .LVU62
 265              		.loc 1 124 10 is_stmt 0 view .LVU63
 266 0028 8B4010   		movl	16(%eax), %eax
 267              	.LVL18:
 268              		.loc 1 127 3 is_stmt 1 view .LVU64
 269              		.loc 1 128 1 is_stmt 0 view .LVU65
 270 002b 83C40C   		addl	$12, %esp
 271              		.cfi_def_cfa_offset 4
 272 002e C3       		ret
 273              		.cfi_endproc
GAS LISTING /tmp/ccsBUNhs.s 			page 6


 274              	.LFE301:
 275              		.size	flashGetSectorSize, .-flashGetSectorSize
 276              		.section	.text.flashGetOffsetSector,"ax",@progbits
 277              		.p2align 4
 278              		.globl	flashGetOffsetSector
 279              		.type	flashGetOffsetSector, @function
 280              	flashGetOffsetSector:
 281              	.LVL19:
 282              	.LFB302:
 283              		.loc 1 139 77 is_stmt 1 view -0
 284              		.cfi_startproc
 285              		.loc 1 140 3 view .LVU67
 286              		.loc 1 141 3 view .LVU68
 287              		.loc 1 139 77 is_stmt 0 view .LVU69
 288 0000 57       		pushl	%edi
 289              		.cfi_def_cfa_offset 8
 290              		.cfi_offset 7, -8
 291 0001 56       		pushl	%esi
 292              		.cfi_def_cfa_offset 12
 293              		.cfi_offset 6, -12
 294 0002 53       		pushl	%ebx
 295              		.cfi_def_cfa_offset 16
 296              		.cfi_offset 3, -16
 297              		.loc 1 139 77 view .LVU70
 298 0003 8B442410 		movl	16(%esp), %eax
 299 0007 8B742414 		movl	20(%esp), %esi
 300              		.loc 1 141 42 view .LVU71
 301 000b 8B10     		movl	(%eax), %edx
 302 000d 83EC0C   		subl	$12, %esp
 303              		.cfi_def_cfa_offset 28
 304 0010 50       		pushl	%eax
 305              		.cfi_def_cfa_offset 32
 306 0011 FF5204   		call	*4(%edx)
 307              	.LVL20:
 308              		.loc 1 145 17 view .LVU72
 309 0014 8B580C   		movl	12(%eax), %ebx
 310              		.loc 1 141 42 view .LVU73
 311 0017 89C7     		movl	%eax, %edi
 312              	.LVL21:
 313              		.loc 1 143 3 is_stmt 1 view .LVU74
 314              		.loc 1 143 3 view .LVU75
 315              		.loc 1 143 3 view .LVU76
 316              		.loc 1 145 3 view .LVU77
 317              		.loc 1 145 6 is_stmt 0 view .LVU78
 318 0019 83C410   		addl	$16, %esp
 319              		.cfi_def_cfa_offset 16
 320 001c 85DB     		testl	%ebx, %ebx
 321 001e 7440     		je	.L19
 322              	.LVL22:
 323              	.LBB12:
 324              		.loc 1 148 19 is_stmt 1 view .LVU79
 325              		.loc 1 148 31 is_stmt 0 view .LVU80
 326 0020 8B7808   		movl	8(%eax), %edi
 327              		.loc 1 148 12 view .LVU81
 328 0023 31C0     		xorl	%eax, %eax
 329              	.LVL23:
 330              		.loc 1 148 19 view .LVU82
GAS LISTING /tmp/ccsBUNhs.s 			page 7


 331 0025 85FF     		testl	%edi, %edi
 332 0027 750E     		jne	.L22
 333 0029 EB20     		jmp	.L18
 334              	.LVL24:
 335 002b 8D742600 		.p2align 4,,10
 335      90
 336              		.p2align 3
 337              	.L24:
 338              		.loc 1 148 49 is_stmt 1 discriminator 2 view .LVU83
 339 0030 83C001   		addl	$1, %eax
 340              	.LVL25:
 341              		.loc 1 148 19 discriminator 2 view .LVU84
 342 0033 39F8     		cmpl	%edi, %eax
 343 0035 7419     		je	.L30
 344              	.LVL26:
 345              	.L22:
 346              		.loc 1 149 7 view .LVU85
 347              		.loc 1 149 20 is_stmt 0 view .LVU86
 348 0037 8B0CC3   		movl	(%ebx,%eax,8), %ecx
 349              	.LVL27:
 350              		.loc 1 150 7 is_stmt 1 view .LVU87
 351              		.loc 1 151 7 view .LVU88
 352              		.loc 1 150 33 is_stmt 0 view .LVU89
 353 003a 8B54C304 		movl	4(%ebx,%eax,8), %edx
 354 003e 01CA     		addl	%ecx, %edx
 355              		.loc 1 150 18 view .LVU90
 356 0040 83EA01   		subl	$1, %edx
 357              		.loc 1 151 10 view .LVU91
 358 0043 39D6     		cmpl	%edx, %esi
 359 0045 77E9     		ja	.L24
 360 0047 39CE     		cmpl	%ecx, %esi
 361 0049 72E5     		jb	.L24
 362              	.LVL28:
 363              	.L18:
 364              		.loc 1 151 10 view .LVU92
 365              	.LBE12:
 366              		.loc 1 165 1 view .LVU93
 367 004b 5B       		popl	%ebx
 368              		.cfi_remember_state
 369              		.cfi_restore 3
 370              		.cfi_def_cfa_offset 12
 371 004c 5E       		popl	%esi
 372              		.cfi_restore 6
 373              		.cfi_def_cfa_offset 8
 374 004d 5F       		popl	%edi
 375              		.cfi_restore 7
 376              		.cfi_def_cfa_offset 4
 377 004e C3       		ret
 378              	.LVL29:
 379 004f 90       		.p2align 4,,10
 380              		.p2align 3
 381              	.L30:
 382              		.cfi_restore_state
 383              		.loc 1 165 1 view .LVU94
 384 0050 5B       		popl	%ebx
 385              		.cfi_remember_state
 386              		.cfi_restore 3
GAS LISTING /tmp/ccsBUNhs.s 			page 8


 387              		.cfi_def_cfa_offset 12
 388              	.LVL30:
 389              		.loc 1 164 10 view .LVU95
 390 0051 31C0     		xorl	%eax, %eax
 391              	.LVL31:
 392              		.loc 1 165 1 view .LVU96
 393 0053 5E       		popl	%esi
 394              		.cfi_restore 6
 395              		.cfi_def_cfa_offset 8
 396 0054 5F       		popl	%edi
 397              		.cfi_restore 7
 398              		.cfi_def_cfa_offset 4
 399 0055 C3       		ret
 400              	.LVL32:
 401 0056 8DB42600 		.p2align 4,,10
 401      0000008D 
 401      7600
 402              		.p2align 3
 403              	.L19:
 404              		.cfi_restore_state
 405              		.loc 1 158 5 is_stmt 1 view .LVU97
 406              		.loc 1 158 12 is_stmt 0 view .LVU98
 407 0060 89F0     		movl	%esi, %eax
 408              	.LVL33:
 409              		.loc 1 158 12 view .LVU99
 410 0062 31D2     		xorl	%edx, %edx
 411              		.loc 1 165 1 view .LVU100
 412 0064 5B       		popl	%ebx
 413              		.cfi_restore 3
 414              		.cfi_def_cfa_offset 12
 415 0065 5E       		popl	%esi
 416              		.cfi_restore 6
 417              		.cfi_def_cfa_offset 8
 418              		.loc 1 158 12 view .LVU101
 419 0066 F77710   		divl	16(%edi)
 420              	.LVL34:
 421              		.loc 1 159 5 is_stmt 1 view .LVU102
 422              		.loc 1 165 1 is_stmt 0 view .LVU103
 423 0069 5F       		popl	%edi
 424              		.cfi_restore 7
 425              		.cfi_def_cfa_offset 4
 426              	.LVL35:
 427              		.loc 1 165 1 view .LVU104
 428 006a C3       		ret
 429              		.cfi_endproc
 430              	.LFE302:
 431              		.size	flashGetOffsetSector, .-flashGetOffsetSector
 432              		.section	.text.flashGetOffsetAddress,"ax",@progbits
 433              		.p2align 4
 434              		.globl	flashGetOffsetAddress
 435              		.type	flashGetOffsetAddress, @function
 436              	flashGetOffsetAddress:
 437              	.LVL36:
 438              	.LFB303:
 439              		.loc 1 176 69 is_stmt 1 view -0
 440              		.cfi_startproc
 441              		.loc 1 177 3 view .LVU106
GAS LISTING /tmp/ccsBUNhs.s 			page 9


 442              		.loc 1 176 69 is_stmt 0 view .LVU107
 443 0000 83EC18   		subl	$24, %esp
 444              		.cfi_def_cfa_offset 28
 445              		.loc 1 176 69 view .LVU108
 446 0003 8B44241C 		movl	28(%esp), %eax
 447              		.loc 1 177 42 view .LVU109
 448 0007 8B10     		movl	(%eax), %edx
 449 0009 50       		pushl	%eax
 450              		.cfi_def_cfa_offset 32
 451 000a FF5204   		call	*4(%edx)
 452              	.LVL37:
 453              		.loc 1 179 3 is_stmt 1 view .LVU110
 454              		.loc 1 179 3 view .LVU111
 455              		.loc 1 179 3 view .LVU112
 456              		.loc 1 181 3 view .LVU113
 457              		.loc 1 181 55 is_stmt 0 view .LVU114
 458 000d 8B542424 		movl	36(%esp), %edx
 459 0011 035014   		addl	20(%eax), %edx
 460              		.loc 1 182 1 view .LVU115
 461 0014 83C41C   		addl	$28, %esp
 462              		.cfi_def_cfa_offset 4
 463              		.loc 1 181 55 view .LVU116
 464 0017 89D0     		movl	%edx, %eax
 465              	.LVL38:
 466              		.loc 1 182 1 view .LVU117
 467 0019 C3       		ret
 468              		.cfi_endproc
 469              	.LFE303:
 470              		.size	flashGetOffsetAddress, .-flashGetOffsetAddress
 471              		.section	.text.flashGetAddressOffset,"ax",@progbits
 472              		.p2align 4
 473              		.globl	flashGetAddressOffset
 474              		.type	flashGetAddressOffset, @function
 475              	flashGetAddressOffset:
 476              	.LVL39:
 477              	.LFB304:
 478              		.loc 1 193 67 is_stmt 1 view -0
 479              		.cfi_startproc
 480              		.loc 1 194 3 view .LVU119
 481              		.loc 1 193 67 is_stmt 0 view .LVU120
 482 0000 83EC18   		subl	$24, %esp
 483              		.cfi_def_cfa_offset 28
 484              		.loc 1 193 67 view .LVU121
 485 0003 8B44241C 		movl	28(%esp), %eax
 486              		.loc 1 194 42 view .LVU122
 487 0007 8B10     		movl	(%eax), %edx
 488 0009 50       		pushl	%eax
 489              		.cfi_def_cfa_offset 32
 490 000a FF5204   		call	*4(%edx)
 491              	.LVL40:
 492              		.loc 1 196 3 is_stmt 1 view .LVU123
 493              		.loc 1 196 3 view .LVU124
 494              		.loc 1 196 3 view .LVU125
 495              		.loc 1 201 3 view .LVU126
 496              		.loc 1 201 31 is_stmt 0 view .LVU127
 497 000d 8B542424 		movl	36(%esp), %edx
 498 0011 2B5014   		subl	20(%eax), %edx
GAS LISTING /tmp/ccsBUNhs.s 			page 10


 499              		.loc 1 202 1 view .LVU128
 500 0014 83C41C   		addl	$28, %esp
 501              		.cfi_def_cfa_offset 4
 502              		.loc 1 201 31 view .LVU129
 503 0017 89D0     		movl	%edx, %eax
 504              	.LVL41:
 505              		.loc 1 202 1 view .LVU130
 506 0019 C3       		ret
 507              		.cfi_endproc
 508              	.LFE304:
 509              		.size	flashGetAddressOffset, .-flashGetAddressOffset
 510              		.section	.text.__x86.get_pc_thunk.bx,"axG",@progbits,__x86.get_pc_thunk.bx,comdat
 511              		.globl	__x86.get_pc_thunk.bx
 512              		.hidden	__x86.get_pc_thunk.bx
 513              		.type	__x86.get_pc_thunk.bx, @function
 514              	__x86.get_pc_thunk.bx:
 515              	.LFB305:
 516              		.cfi_startproc
 517 0000 8B1C24   		movl	(%esp), %ebx
 518 0003 C3       		ret
 519              		.cfi_endproc
 520              	.LFE305:
 521              		.text
 522              	.Letext0:
 523              		.file 3 "/usr/lib/gcc/x86_64-linux-gnu/11/include/stddef.h"
 524              		.file 4 "/usr/include/bits/types.h"
 525              		.file 5 "/usr/include/bits/stdint-uintn.h"
 526              		.file 6 "../../../os/rt/include/chtime.h"
 527              		.file 7 "../../../os/hal/include/hal_flash.h"
 528              		.file 8 "../../../os/rt/include/chthreads.h"
 2393 0054 2F686F6D 		.section	.note.GNU-stack,"",@progbits
 2393      652F616C 
 2393      65782F43 
 2393      68696269 
 2393      4F532F64 
GAS LISTING /tmp/ccsBUNhs.s 			page 48

