GAS LISTING /tmp/ccgXgxdZ.s 			page 1


   1              		.file	"memstreams.c"
   2              		.text
   3              	.Ltext0:
   4              		.file 0 "/home/alex/ChibiOS/demos/various/RT-Posix-Simulator" "../../../os/hal/lib/streams/memstre
   5              		.section	.text._put,"ax",@progbits
   6              		.p2align 4
   7              		.type	_put, @function
   8              	_put:
   9              	.LVL0:
  10              	.LFB313:
  11              		.file 1 "../../../os/hal/lib/streams/memstreams.c"
  12              		.loc 1 67 40 view -0
  13              		.cfi_startproc
  14              		.loc 1 68 3 view .LVU1
  15              		.loc 1 67 40 is_stmt 0 view .LVU2
  16 0000 53       		pushl	%ebx
  17              		.cfi_def_cfa_offset 8
  18              		.cfi_offset 3, -8
  19              		.loc 1 67 40 view .LVU3
  20 0001 8B442408 		movl	8(%esp), %eax
  21              	.LVL1:
  22              		.loc 1 70 3 is_stmt 1 view .LVU4
  23              		.loc 1 67 40 is_stmt 0 view .LVU5
  24 0005 8B4C240C 		movl	12(%esp), %ecx
  25              		.loc 1 70 22 view .LVU6
  26 0009 8B500C   		movl	12(%eax), %edx
  27              		.loc 1 70 6 view .LVU7
  28 000c 395008   		cmpl	%edx, 8(%eax)
  29 000f 740E     		je	.L3
  30              		.loc 1 72 3 is_stmt 1 view .LVU8
  31              		.loc 1 72 29 is_stmt 0 view .LVU9
  32 0011 8B5804   		movl	4(%eax), %ebx
  33 0014 880C13   		movb	%cl, (%ebx,%edx)
  34              		.loc 1 73 3 is_stmt 1 view .LVU10
  35              		.loc 1 73 12 is_stmt 0 view .LVU11
  36 0017 83400C01 		addl	$1, 12(%eax)
  37              		.loc 1 74 3 is_stmt 1 view .LVU12
  38              		.loc 1 74 10 is_stmt 0 view .LVU13
  39 001b 31C0     		xorl	%eax, %eax
  40              		.loc 1 75 1 view .LVU14
  41 001d 5B       		popl	%ebx
  42              		.cfi_remember_state
  43              		.cfi_restore 3
  44              		.cfi_def_cfa_offset 4
  45 001e C3       		ret
  46              	.LVL2:
  47              	.L3:
  48              		.cfi_restore_state
  49              		.loc 1 71 12 view .LVU15
  50 001f B8FEFFFF 		movl	$-2, %eax
  50      FF
  51              	.LVL3:
  52              		.loc 1 75 1 view .LVU16
  53 0024 5B       		popl	%ebx
  54              		.cfi_restore 3
  55              		.cfi_def_cfa_offset 4
  56 0025 C3       		ret
GAS LISTING /tmp/ccgXgxdZ.s 			page 2


  57              		.cfi_endproc
  58              	.LFE313:
  59              		.size	_put, .-_put
  60              		.section	.text._get,"ax",@progbits
  61              		.p2align 4
  62              		.type	_get, @function
  63              	_get:
  64              	.LVL4:
  65              	.LFB314:
  66              		.loc 1 77 29 is_stmt 1 view -0
  67              		.cfi_startproc
  68              		.loc 1 78 3 view .LVU18
  69              		.loc 1 79 3 view .LVU19
  70              		.loc 1 77 29 is_stmt 0 view .LVU20
  71 0000 8B4C2404 		movl	4(%esp), %ecx
  72              	.LVL5:
  73              		.loc 1 81 3 is_stmt 1 view .LVU21
  74              		.loc 1 81 21 is_stmt 0 view .LVU22
  75 0004 8B5110   		movl	16(%ecx), %edx
  76              		.loc 1 81 6 view .LVU23
  77 0007 39510C   		cmpl	%edx, 12(%ecx)
  78 000a 740E     		je	.L8
  79              		.loc 1 83 3 is_stmt 1 view .LVU24
  80              		.loc 1 83 5 is_stmt 0 view .LVU25
  81 000c 8B4104   		movl	4(%ecx), %eax
  82 000f 0FB60410 		movzbl	(%eax,%edx), %eax
  83              	.LVL6:
  84              		.loc 1 84 3 is_stmt 1 view .LVU26
  85              		.loc 1 84 15 is_stmt 0 view .LVU27
  86 0013 83C201   		addl	$1, %edx
  87 0016 895110   		movl	%edx, 16(%ecx)
  88              		.loc 1 85 3 is_stmt 1 view .LVU28
  89              		.loc 1 85 10 is_stmt 0 view .LVU29
  90 0019 C3       		ret
  91              	.LVL7:
  92              	.L8:
  93              		.loc 1 82 12 view .LVU30
  94 001a B8FEFFFF 		movl	$-2, %eax
  94      FF
  95              		.loc 1 86 1 view .LVU31
  96 001f C3       		ret
  97              		.cfi_endproc
  98              	.LFE314:
  99              		.size	_get, .-_get
 100              		.section	.text._unget,"ax",@progbits
 101              		.p2align 4
 102              		.type	_unget, @function
 103              	_unget:
 104              	.LVL8:
 105              	.LFB315:
 106              		.loc 1 89 1 is_stmt 1 view -0
 107              		.cfi_startproc
 108              		.loc 1 90 3 view .LVU33
 109              		.loc 1 89 1 is_stmt 0 view .LVU34
 110 0000 53       		pushl	%ebx
 111              		.cfi_def_cfa_offset 8
 112              		.cfi_offset 3, -8
GAS LISTING /tmp/ccgXgxdZ.s 			page 3


 113              		.loc 1 89 1 view .LVU35
 114 0001 8B542408 		movl	8(%esp), %edx
 115              	.LVL9:
 116              		.loc 1 92 3 is_stmt 1 view .LVU36
 117              		.loc 1 89 1 is_stmt 0 view .LVU37
 118 0005 8B4C240C 		movl	12(%esp), %ecx
 119              		.loc 1 92 10 view .LVU38
 120 0009 8B4210   		movl	16(%edx), %eax
 121              		.loc 1 92 6 view .LVU39
 122 000c 85C0     		testl	%eax, %eax
 123 000e 7418     		je	.L11
 124              		.loc 1 94 3 is_stmt 1 view .LVU40
 125              		.loc 1 94 15 is_stmt 0 view .LVU41
 126 0010 8D58FF   		leal	-1(%eax), %ebx
 127 0013 895A10   		movl	%ebx, 16(%edx)
 128              		.loc 1 95 3 is_stmt 1 view .LVU42
 129              		.loc 1 95 32 is_stmt 0 view .LVU43
 130 0016 8B5204   		movl	4(%edx), %edx
 131 0019 884C02FF 		movb	%cl, -1(%edx,%eax)
 132              		.loc 1 97 3 is_stmt 1 view .LVU44
 133              		.loc 1 97 10 is_stmt 0 view .LVU45
 134 001d 31C0     		xorl	%eax, %eax
 135              		.loc 1 98 1 view .LVU46
 136 001f 5B       		popl	%ebx
 137              		.cfi_remember_state
 138              		.cfi_restore 3
 139              		.cfi_def_cfa_offset 4
 140 0020 C3       		ret
 141              	.LVL10:
 142              		.p2align 4,,10
 143 0021 8DB42600 		.p2align 3
 143      000000
 144              	.L11:
 145              		.cfi_restore_state
 146              		.loc 1 93 12 view .LVU47
 147 0028 B8FEFFFF 		movl	$-2, %eax
 147      FF
 148              		.loc 1 98 1 view .LVU48
 149 002d 5B       		popl	%ebx
 150              		.cfi_restore 3
 151              		.cfi_def_cfa_offset 4
 152 002e C3       		ret
 153              		.cfi_endproc
 154              	.LFE315:
 155              		.size	_unget, .-_unget
 156              		.section	.text._writes,"ax",@progbits
 157              		.p2align 4
 158              		.type	_writes, @function
 159              	_writes:
 160              	.LVL11:
 161              	.LFB311:
 162              		.loc 1 47 62 is_stmt 1 view -0
 163              		.cfi_startproc
 164              		.loc 1 48 3 view .LVU50
 165              		.loc 1 47 62 is_stmt 0 view .LVU51
 166 0000 57       		pushl	%edi
 167              		.cfi_def_cfa_offset 8
GAS LISTING /tmp/ccgXgxdZ.s 			page 4


 168              		.cfi_offset 7, -8
 169 0001 56       		pushl	%esi
 170              		.cfi_def_cfa_offset 12
 171              		.cfi_offset 6, -12
 172 0002 53       		pushl	%ebx
 173              		.cfi_def_cfa_offset 16
 174              		.cfi_offset 3, -16
 175              		.loc 1 47 62 view .LVU52
 176 0003 8B7C2410 		movl	16(%esp), %edi
 177              	.LVL12:
 178              		.loc 1 50 3 is_stmt 1 view .LVU53
 179 0007 E8FCFFFF 		call	__x86.get_pc_thunk.bx
 179      FF
 180 000c 81C30200 		addl	$_GLOBAL_OFFSET_TABLE_, %ebx
 180      0000
 181 0012 8B542418 		movl	24(%esp), %edx
 182              		.loc 1 50 22 is_stmt 0 view .LVU54
 183 0016 8B470C   		movl	12(%edi), %eax
 184              		.loc 1 50 17 view .LVU55
 185 0019 8B7708   		movl	8(%edi), %esi
 186 001c 29C6     		subl	%eax, %esi
 187 001e 39D6     		cmpl	%edx, %esi
 188 0020 0F47F2   		cmova	%edx, %esi
 189              	.LVL13:
 190              		.loc 1 52 3 is_stmt 1 view .LVU56
 191              	.LBB6:
 192              	.LBI6:
 193              		.file 2 "/usr/include/bits/string_fortified.h"
 194              		.loc 2 26 1 view .LVU57
 195              	.LBB7:
 196              		.loc 2 29 3 view .LVU58
 197              	.LBE7:
 198              	.LBE6:
 199              		.loc 1 52 22 is_stmt 0 view .LVU59
 200 0023 034704   		addl	4(%edi), %eax
 201              	.LVL14:
 202              	.LBB9:
 203              	.LBB8:
 204              		.loc 2 29 10 view .LVU60
 205 0026 83EC04   		subl	$4, %esp
 206              		.cfi_def_cfa_offset 20
 207 0029 56       		pushl	%esi
 208              		.cfi_def_cfa_offset 24
 209 002a FF74241C 		pushl	28(%esp)
 210              		.cfi_def_cfa_offset 28
 211 002e 50       		pushl	%eax
 212              		.cfi_def_cfa_offset 32
 213 002f E8FCFFFF 		call	memcpy@PLT
 213      FF
 214              	.LVL15:
 215              		.loc 2 29 10 view .LVU61
 216              	.LBE8:
 217              	.LBE9:
 218              		.loc 1 53 3 is_stmt 1 view .LVU62
 219              		.loc 1 54 10 is_stmt 0 view .LVU63
 220 0034 83C410   		addl	$16, %esp
 221              		.cfi_def_cfa_offset 16
GAS LISTING /tmp/ccgXgxdZ.s 			page 5


 222              		.loc 1 53 12 view .LVU64
 223 0037 01770C   		addl	%esi, 12(%edi)
 224              		.loc 1 54 3 is_stmt 1 view .LVU65
 225              		.loc 1 55 1 is_stmt 0 view .LVU66
 226 003a 89F0     		movl	%esi, %eax
 227 003c 5B       		popl	%ebx
 228              		.cfi_restore 3
 229              		.cfi_def_cfa_offset 12
 230 003d 5E       		popl	%esi
 231              		.cfi_restore 6
 232              		.cfi_def_cfa_offset 8
 233              	.LVL16:
 234              		.loc 1 55 1 view .LVU67
 235 003e 5F       		popl	%edi
 236              		.cfi_restore 7
 237              		.cfi_def_cfa_offset 4
 238 003f C3       		ret
 239              		.cfi_endproc
 240              	.LFE311:
 241              		.size	_writes, .-_writes
 242              		.section	.text._reads,"ax",@progbits
 243              		.p2align 4
 244              		.type	_reads, @function
 245              	_reads:
 246              	.LVL17:
 247              	.LFB312:
 248              		.loc 1 57 55 is_stmt 1 view -0
 249              		.cfi_startproc
 250              		.loc 1 58 3 view .LVU69
 251              		.loc 1 57 55 is_stmt 0 view .LVU70
 252 0000 57       		pushl	%edi
 253              		.cfi_def_cfa_offset 8
 254              		.cfi_offset 7, -8
 255 0001 56       		pushl	%esi
 256              		.cfi_def_cfa_offset 12
 257              		.cfi_offset 6, -12
 258 0002 53       		pushl	%ebx
 259              		.cfi_def_cfa_offset 16
 260              		.cfi_offset 3, -16
 261              		.loc 1 57 55 view .LVU71
 262 0003 8B7C2410 		movl	16(%esp), %edi
 263              	.LVL18:
 264              		.loc 1 60 3 is_stmt 1 view .LVU72
 265 0007 E8FCFFFF 		call	__x86.get_pc_thunk.bx
 265      FF
 266 000c 81C30200 		addl	$_GLOBAL_OFFSET_TABLE_, %ebx
 266      0000
 267 0012 8B542418 		movl	24(%esp), %edx
 268              		.loc 1 60 21 is_stmt 0 view .LVU73
 269 0016 8B4710   		movl	16(%edi), %eax
 270              		.loc 1 60 16 view .LVU74
 271 0019 8B770C   		movl	12(%edi), %esi
 272 001c 29C6     		subl	%eax, %esi
 273 001e 39D6     		cmpl	%edx, %esi
 274 0020 0F47F2   		cmova	%edx, %esi
 275              	.LVL19:
 276              		.loc 1 62 3 is_stmt 1 view .LVU75
GAS LISTING /tmp/ccgXgxdZ.s 			page 6


 277              	.LBB10:
 278              	.LBI10:
 279              		.loc 2 26 1 view .LVU76
 280              	.LBB11:
 281              		.loc 2 29 3 view .LVU77
 282              	.LBE11:
 283              	.LBE10:
 284              		.loc 1 62 26 is_stmt 0 view .LVU78
 285 0023 034704   		addl	4(%edi), %eax
 286              	.LVL20:
 287              	.LBB13:
 288              	.LBB12:
 289              		.loc 2 29 10 view .LVU79
 290 0026 83EC04   		subl	$4, %esp
 291              		.cfi_def_cfa_offset 20
 292 0029 56       		pushl	%esi
 293              		.cfi_def_cfa_offset 24
 294 002a 50       		pushl	%eax
 295              		.cfi_def_cfa_offset 28
 296 002b FF742420 		pushl	32(%esp)
 297              		.cfi_def_cfa_offset 32
 298 002f E8FCFFFF 		call	memcpy@PLT
 298      FF
 299              	.LVL21:
 300              		.loc 2 29 10 view .LVU80
 301              	.LBE12:
 302              	.LBE13:
 303              		.loc 1 63 3 is_stmt 1 view .LVU81
 304              		.loc 1 64 10 is_stmt 0 view .LVU82
 305 0034 83C410   		addl	$16, %esp
 306              		.cfi_def_cfa_offset 16
 307              		.loc 1 63 15 view .LVU83
 308 0037 017710   		addl	%esi, 16(%edi)
 309              		.loc 1 64 3 is_stmt 1 view .LVU84
 310              		.loc 1 65 1 is_stmt 0 view .LVU85
 311 003a 89F0     		movl	%esi, %eax
 312 003c 5B       		popl	%ebx
 313              		.cfi_restore 3
 314              		.cfi_def_cfa_offset 12
 315 003d 5E       		popl	%esi
 316              		.cfi_restore 6
 317              		.cfi_def_cfa_offset 8
 318              	.LVL22:
 319              		.loc 1 65 1 view .LVU86
 320 003e 5F       		popl	%edi
 321              		.cfi_restore 7
 322              		.cfi_def_cfa_offset 4
 323 003f C3       		ret
 324              		.cfi_endproc
 325              	.LFE312:
 326              		.size	_reads, .-_reads
 327              		.section	.text.msObjectInit,"ax",@progbits
 328              		.p2align 4
 329              		.globl	msObjectInit
 330              		.type	msObjectInit, @function
 331              	msObjectInit:
 332              	.LVL23:
GAS LISTING /tmp/ccgXgxdZ.s 			page 7


 333              	.LFB316:
 334              		.loc 1 117 44 is_stmt 1 view -0
 335              		.cfi_startproc
 336              		.loc 1 119 3 view .LVU88
 337 0000 E8FCFFFF 		call	__x86.get_pc_thunk.dx
 337      FF
 338 0005 81C20200 		addl	$_GLOBAL_OFFSET_TABLE_, %edx
 338      0000
 339              		.loc 1 117 44 is_stmt 0 view .LVU89
 340 000b 8B442404 		movl	4(%esp), %eax
 341              		.loc 1 123 15 view .LVU90
 342 000f C7401000 		movl	$0, 16(%eax)
 342      000000
 343              		.loc 1 119 15 view .LVU91
 344 0016 8D920000 		leal	vmt@GOTOFF(%edx), %edx
 344      0000
 345 001c 8910     		movl	%edx, (%eax)
 346              		.loc 1 120 3 is_stmt 1 view .LVU92
 347              		.loc 1 120 15 is_stmt 0 view .LVU93
 348 001e 8B542408 		movl	8(%esp), %edx
 349 0022 895004   		movl	%edx, 4(%eax)
 350              		.loc 1 121 3 is_stmt 1 view .LVU94
 351              		.loc 1 121 15 is_stmt 0 view .LVU95
 352 0025 8B54240C 		movl	12(%esp), %edx
 353 0029 895008   		movl	%edx, 8(%eax)
 354              		.loc 1 122 3 is_stmt 1 view .LVU96
 355              		.loc 1 122 15 is_stmt 0 view .LVU97
 356 002c 8B542410 		movl	16(%esp), %edx
 357 0030 89500C   		movl	%edx, 12(%eax)
 358              		.loc 1 123 3 is_stmt 1 view .LVU98
 359              		.loc 1 124 1 is_stmt 0 view .LVU99
 360 0033 C3       		ret
 361              		.cfi_endproc
 362              	.LFE316:
 363              		.size	msObjectInit, .-msObjectInit
 364              		.section	.data.rel.ro.local.vmt,"aw"
 365              		.align 4
 366              		.type	vmt, @object
 367              		.size	vmt, 24
 368              	vmt:
 369 0000 00000000 		.long	0
 370 0004 00000000 		.long	_writes
 371 0008 00000000 		.long	_reads
 372 000c 00000000 		.long	_put
 373 0010 00000000 		.long	_get
 374 0014 00000000 		.long	_unget
 375              		.section	.text.__x86.get_pc_thunk.dx,"axG",@progbits,__x86.get_pc_thunk.dx,comdat
 376              		.globl	__x86.get_pc_thunk.dx
 377              		.hidden	__x86.get_pc_thunk.dx
 378              		.type	__x86.get_pc_thunk.dx, @function
 379              	__x86.get_pc_thunk.dx:
 380              	.LFB317:
 381              		.cfi_startproc
 382 0000 8B1424   		movl	(%esp), %edx
 383 0003 C3       		ret
 384              		.cfi_endproc
 385              	.LFE317:
GAS LISTING /tmp/ccgXgxdZ.s 			page 8


 386              		.section	.text.__x86.get_pc_thunk.bx,"axG",@progbits,__x86.get_pc_thunk.bx,comdat
 387              		.globl	__x86.get_pc_thunk.bx
 388              		.hidden	__x86.get_pc_thunk.bx
 389              		.type	__x86.get_pc_thunk.bx, @function
 390              	__x86.get_pc_thunk.bx:
 391              	.LFB318:
 392              		.cfi_startproc
 393 0000 8B1C24   		movl	(%esp), %ebx
 394 0003 C3       		ret
 395              		.cfi_endproc
 396              	.LFE318:
 397              		.text
 398              	.Letext0:
 399              		.file 3 "/usr/lib/gcc/x86_64-linux-gnu/11/include/stddef.h"
 400              		.file 4 "/usr/include/bits/types.h"
 401              		.file 5 "/usr/include/bits/stdint-intn.h"
 402              		.file 6 "/usr/include/bits/stdint-uintn.h"
 403              		.file 7 "../../../os/common/ports/SIMIA32/compilers/GCC/chtypes.h"
 404              		.file 8 "../../../os/hal/lib/streams/memstreams.h"
 405              		.file 9 "<built-in>"
 1848 005d 2F686F6D 		.section	.note.GNU-stack,"",@progbits
 1848      652F616C 
 1848      65782F43 
 1848      68696269 
 1848      4F532F64 
GAS LISTING /tmp/ccgXgxdZ.s 			page 36

