GAS LISTING /tmp/ccXkgrjd.s 			page 1


   1              		.file	"rt_test_sequence_011.c"
   2              		.text
   3              	.Ltext0:
   4              		.file 0 "/home/alex/ChibiOS/demos/various/RT-Posix-Simulator" "../../../test/rt/source/test/rt_tes
   5              		.section	.rodata.rt_test_011_002_execute.str1.1,"aMS",@progbits,1
   6              	.LC0:
   7 0000 4100     		.string	"A"
   8              	.LC1:
   9 0002 64796E31 		.string	"dyn1"
   9      00
  10              	.LC2:
  11 0007 4200     		.string	"B"
  12              	.LC3:
  13 0009 64796E32 		.string	"dyn2"
  13      00
  14              	.LC4:
  15 000e 4300     		.string	"C"
  16              	.LC5:
  17 0010 64796E33 		.string	"dyn3"
  17      00
  18              	.LC6:
  19 0015 4400     		.string	"D"
  20              	.LC7:
  21 0017 64796E34 		.string	"dyn4"
  21      00
  22              	.LC8:
  23 001c 4500     		.string	"E"
  24              	.LC9:
  25 001e 64796E35 		.string	"dyn5"
  25      00
  26              	.LC10:
  27 0023 74687265 		.string	"thread creation failed"
  27      61642063 
  27      72656174 
  27      696F6E20 
  27      6661696C 
  28              	.LC11:
  29 003a 74687265 		.string	"thread creation not failed"
  29      61642063 
  29      72656174 
  29      696F6E20 
  29      6E6F7420 
  30              	.LC12:
  31 0055 696E7661 		.string	"invalid sequence"
  31      6C696420 
  31      73657175 
  31      656E6365 
  31      00
  32              	.LC13:
  33 0066 41424344 		.string	"ABCD"
  33      00
  34              	.LC14:
  35 006b 706F6F6C 		.string	"pool list empty"
  35      206C6973 
  35      7420656D 
  35      70747900 
  36              	.LC15:
GAS LISTING /tmp/ccXkgrjd.s 			page 2


  37 007b 706F6F6C 		.string	"pool list not empty"
  37      206C6973 
  37      74206E6F 
  37      7420656D 
  37      70747900 
  38              		.section	.text.rt_test_011_002_execute,"ax",@progbits
  39              		.p2align 4
  40              		.type	rt_test_011_002_execute, @function
  41              	rt_test_011_002_execute:
  42              	.LFB307:
  43              		.file 1 "../../../test/rt/source/test/rt_test_sequence_011.c"
  44              		.loc 1 209 43 view -0
  45              		.cfi_startproc
  46              		.loc 1 210 3 view .LVU1
  47              		.loc 1 211 3 view .LVU2
  48              		.loc 1 214 3 view .LVU3
  49              		.loc 1 209 43 is_stmt 0 view .LVU4
  50 0000 55       		pushl	%ebp
  51              		.cfi_def_cfa_offset 8
  52              		.cfi_offset 5, -8
  53 0001 57       		pushl	%edi
  54              		.cfi_def_cfa_offset 12
  55              		.cfi_offset 7, -12
  56 0002 56       		pushl	%esi
  57              		.cfi_def_cfa_offset 16
  58              		.cfi_offset 6, -16
  59 0003 53       		pushl	%ebx
  60              		.cfi_def_cfa_offset 20
  61              		.cfi_offset 3, -20
  62 0004 E8FCFFFF 		call	__x86.get_pc_thunk.bx
  62      FF
  63 0009 81C30200 		addl	$_GLOBAL_OFFSET_TABLE_, %ebx
  63      0000
  64 000f 83EC1C   		subl	$28, %esp
  65              		.cfi_def_cfa_offset 48
  66              		.loc 1 214 3 view .LVU5
  67 0012 8B830000 		movl	chtest@GOT(%ebx), %eax
  67      0000
  68 0018 8BAB0000 		movl	wa@GOT(%ebx), %ebp
  68      0000
  69 001e 8DB30000 		leal	mp1@GOTOFF(%ebx), %esi
  69      0000
  70 0024 8944240C 		movl	%eax, 12(%esp)
  71 0028 8D7D10   		leal	16(%ebp), %edi
  72 002b C7000100 		movl	$1, (%eax)
  72      0000
  73              		.loc 1 216 5 is_stmt 1 view .LVU6
  74              	.LVL0:
  75              		.loc 1 216 19 view .LVU7
  76              	.L2:
  77              		.loc 1 217 7 discriminator 3 view .LVU8
  78 0031 83EC08   		subl	$8, %esp
  79              		.cfi_def_cfa_offset 56
  80 0034 FF7500   		pushl	0(%ebp)
  81              		.cfi_def_cfa_offset 60
  82              		.loc 1 216 19 is_stmt 0 discriminator 3 view .LVU9
  83 0037 83C504   		addl	$4, %ebp
GAS LISTING /tmp/ccXkgrjd.s 			page 3


  84              		.loc 1 217 7 discriminator 3 view .LVU10
  85 003a 56       		pushl	%esi
  86              		.cfi_def_cfa_offset 64
  87 003b E8FCFFFF 		call	chPoolFree@PLT
  87      FF
  88              	.LVL1:
  89              		.loc 1 216 25 is_stmt 1 discriminator 3 view .LVU11
  90              		.loc 1 216 19 discriminator 3 view .LVU12
  91 0040 83C410   		addl	$16, %esp
  92              		.cfi_def_cfa_offset 48
  93 0043 39FD     		cmpl	%edi, %ebp
  94 0045 75EA     		jne	.L2
  95              		.loc 1 219 3 view .LVU13
  96              		.loc 1 219 19 view .LVU14
  97              		.loc 1 222 3 view .LVU15
  98              		.loc 1 224 5 view .LVU16
  99              	.LBB14:
 100              	.LBI14:
 101              		.file 2 "../../../os/rt/include/chthreads.h"
 102              		.loc 2 540 23 view .LVU17
 103              	.LBB15:
 104              		.loc 2 542 3 view .LVU18
 105              	.LBB16:
 106              	.LBI16:
 107              		.loc 2 527 25 view .LVU19
 108              	.LBB17:
 109              		.loc 2 529 3 view .LVU20
 110              		.loc 2 529 10 is_stmt 0 view .LVU21
 111 0047 8B830000 		movl	ch0@GOT(%ebx), %eax
 111      0000
 112              	.LBE17:
 113              	.LBE16:
 114              	.LBE15:
 115              	.LBE14:
 116              		.loc 1 231 18 view .LVU22
 117 004d 83EC0C   		subl	$12, %esp
 118              		.cfi_def_cfa_offset 60
 119 0050 8DAB0000 		leal	dyn_thread1@GOTOFF(%ebx), %ebp
 119      0000
 120              	.LBB19:
 121              	.LBB18:
 122              		.loc 2 542 37 view .LVU23
 123 0056 8B400C   		movl	12(%eax), %eax
 124 0059 8B4808   		movl	8(%eax), %ecx
 125              	.LVL2:
 126              		.loc 2 542 37 view .LVU24
 127              	.LBE18:
 128              	.LBE19:
 129              		.loc 1 226 3 is_stmt 1 view .LVU25
 130              		.loc 1 226 19 view .LVU26
 131              		.loc 1 229 3 view .LVU27
 132 005c 8B442418 		movl	24(%esp), %eax
 133 0060 C7000300 		movl	$3, (%eax)
 133      0000
 134              		.loc 1 231 5 view .LVU28
 135              		.loc 1 231 18 is_stmt 0 view .LVU29
 136 0066 8D830000 		leal	.LC0@GOTOFF(%ebx), %eax
GAS LISTING /tmp/ccXkgrjd.s 			page 4


 136      0000
 137 006c 50       		pushl	%eax
 138              		.cfi_def_cfa_offset 64
 139 006d 8D41FF   		leal	-1(%ecx), %eax
 140 0070 55       		pushl	%ebp
 141              		.cfi_def_cfa_offset 68
 142 0071 894C241C 		movl	%ecx, 28(%esp)
 143 0075 50       		pushl	%eax
 144              		.cfi_def_cfa_offset 72
 145 0076 8D830000 		leal	.LC1@GOTOFF(%ebx), %eax
 145      0000
 146 007c 50       		pushl	%eax
 147              		.cfi_def_cfa_offset 76
 148 007d 56       		pushl	%esi
 149              		.cfi_def_cfa_offset 80
 150 007e E8FCFFFF 		call	chThdCreateFromMemoryPool@PLT
 150      FF
 151              	.LVL3:
 152              		.loc 1 231 16 view .LVU30
 153 0083 8BBB0000 		movl	threads@GOT(%ebx), %edi
 153      0000
 154              		.loc 1 232 18 view .LVU31
 155 0089 83C414   		addl	$20, %esp
 156              		.cfi_def_cfa_offset 60
 157              		.loc 1 231 16 view .LVU32
 158 008c 8907     		movl	%eax, (%edi)
 159              		.loc 1 232 5 is_stmt 1 view .LVU33
 160              		.loc 1 232 18 is_stmt 0 view .LVU34
 161 008e 8D830000 		leal	.LC2@GOTOFF(%ebx), %eax
 161      0000
 162 0094 50       		pushl	%eax
 163              		.cfi_def_cfa_offset 64
 164 0095 55       		pushl	%ebp
 165              		.cfi_def_cfa_offset 68
 166 0096 8B4C241C 		movl	28(%esp), %ecx
 167 009a 8D41FE   		leal	-2(%ecx), %eax
 168 009d 50       		pushl	%eax
 169              		.cfi_def_cfa_offset 72
 170 009e 8D830000 		leal	.LC3@GOTOFF(%ebx), %eax
 170      0000
 171 00a4 50       		pushl	%eax
 172              		.cfi_def_cfa_offset 76
 173 00a5 56       		pushl	%esi
 174              		.cfi_def_cfa_offset 80
 175 00a6 E8FCFFFF 		call	chThdCreateFromMemoryPool@PLT
 175      FF
 176              	.LVL4:
 177              		.loc 1 233 18 view .LVU35
 178 00ab 83C414   		addl	$20, %esp
 179              		.cfi_def_cfa_offset 60
 180              		.loc 1 232 16 view .LVU36
 181 00ae 894704   		movl	%eax, 4(%edi)
 182              		.loc 1 233 5 is_stmt 1 view .LVU37
 183              		.loc 1 233 18 is_stmt 0 view .LVU38
 184 00b1 8D830000 		leal	.LC4@GOTOFF(%ebx), %eax
 184      0000
 185 00b7 50       		pushl	%eax
GAS LISTING /tmp/ccXkgrjd.s 			page 5


 186              		.cfi_def_cfa_offset 64
 187 00b8 55       		pushl	%ebp
 188              		.cfi_def_cfa_offset 68
 189 00b9 8B4C241C 		movl	28(%esp), %ecx
 190 00bd 8D41FD   		leal	-3(%ecx), %eax
 191 00c0 50       		pushl	%eax
 192              		.cfi_def_cfa_offset 72
 193 00c1 8D830000 		leal	.LC5@GOTOFF(%ebx), %eax
 193      0000
 194 00c7 50       		pushl	%eax
 195              		.cfi_def_cfa_offset 76
 196 00c8 56       		pushl	%esi
 197              		.cfi_def_cfa_offset 80
 198 00c9 E8FCFFFF 		call	chThdCreateFromMemoryPool@PLT
 198      FF
 199              	.LVL5:
 200              		.loc 1 234 18 view .LVU39
 201 00ce 83C414   		addl	$20, %esp
 202              		.cfi_def_cfa_offset 60
 203              		.loc 1 233 16 view .LVU40
 204 00d1 894708   		movl	%eax, 8(%edi)
 205              		.loc 1 234 5 is_stmt 1 view .LVU41
 206              		.loc 1 234 18 is_stmt 0 view .LVU42
 207 00d4 8D830000 		leal	.LC6@GOTOFF(%ebx), %eax
 207      0000
 208 00da 50       		pushl	%eax
 209              		.cfi_def_cfa_offset 64
 210 00db 55       		pushl	%ebp
 211              		.cfi_def_cfa_offset 68
 212 00dc 8B4C241C 		movl	28(%esp), %ecx
 213 00e0 8D41FC   		leal	-4(%ecx), %eax
 214 00e3 50       		pushl	%eax
 215              		.cfi_def_cfa_offset 72
 216 00e4 8D830000 		leal	.LC7@GOTOFF(%ebx), %eax
 216      0000
 217 00ea 50       		pushl	%eax
 218              		.cfi_def_cfa_offset 76
 219 00eb 56       		pushl	%esi
 220              		.cfi_def_cfa_offset 80
 221 00ec E8FCFFFF 		call	chThdCreateFromMemoryPool@PLT
 221      FF
 222              	.LVL6:
 223              		.loc 1 235 18 view .LVU43
 224 00f1 83C414   		addl	$20, %esp
 225              		.cfi_def_cfa_offset 60
 226              		.loc 1 234 16 view .LVU44
 227 00f4 89470C   		movl	%eax, 12(%edi)
 228              		.loc 1 235 5 is_stmt 1 view .LVU45
 229              		.loc 1 235 18 is_stmt 0 view .LVU46
 230 00f7 8D830000 		leal	.LC8@GOTOFF(%ebx), %eax
 230      0000
 231 00fd 50       		pushl	%eax
 232              		.cfi_def_cfa_offset 64
 233 00fe 55       		pushl	%ebp
 234              		.cfi_def_cfa_offset 68
 235 00ff 8B4C241C 		movl	28(%esp), %ecx
 236 0103 8D41FB   		leal	-5(%ecx), %eax
GAS LISTING /tmp/ccXkgrjd.s 			page 6


 237 0106 50       		pushl	%eax
 238              		.cfi_def_cfa_offset 72
 239 0107 8D830000 		leal	.LC9@GOTOFF(%ebx), %eax
 239      0000
 240 010d 50       		pushl	%eax
 241              		.cfi_def_cfa_offset 76
 242 010e 56       		pushl	%esi
 243              		.cfi_def_cfa_offset 80
 244 010f E8FCFFFF 		call	chThdCreateFromMemoryPool@PLT
 244      FF
 245              	.LVL7:
 246              		.loc 1 242 5 view .LVU47
 247 0114 8B2F     		movl	(%edi), %ebp
 248              		.loc 1 235 16 view .LVU48
 249 0116 894710   		movl	%eax, 16(%edi)
 250              		.loc 1 237 3 is_stmt 1 view .LVU49
 251              		.loc 1 237 19 view .LVU50
 252              		.loc 1 240 3 view .LVU51
 253 0119 8B44242C 		movl	44(%esp), %eax
 254              		.loc 1 242 5 is_stmt 0 view .LVU52
 255 011d 83C420   		addl	$32, %esp
 256              		.cfi_def_cfa_offset 48
 257              		.loc 1 240 3 view .LVU53
 258 0120 C7000400 		movl	$4, (%eax)
 258      0000
 259              		.loc 1 242 5 is_stmt 1 view .LVU54
 260 0126 31C0     		xorl	%eax, %eax
 261 0128 85ED     		testl	%ebp, %ebp
 262 012a 7418     		je	.L3
 263              		.loc 1 242 5 is_stmt 0 discriminator 1 view .LVU55
 264 012c 8B4F04   		movl	4(%edi), %ecx
 265 012f 85C9     		testl	%ecx, %ecx
 266 0131 7411     		je	.L3
 267              		.loc 1 242 5 discriminator 3 view .LVU56
 268 0133 8B5708   		movl	8(%edi), %edx
 269 0136 85D2     		testl	%edx, %edx
 270 0138 740A     		je	.L3
 271              		.loc 1 242 5 discriminator 5 view .LVU57
 272 013a 8B6F0C   		movl	12(%edi), %ebp
 273 013d 31C0     		xorl	%eax, %eax
 274 013f 85ED     		testl	%ebp, %ebp
 275 0141 0F95C0   		setne	%al
 276              	.L3:
 277              		.loc 1 242 5 discriminator 10 view .LVU58
 278 0144 83EC08   		subl	$8, %esp
 279              		.cfi_def_cfa_offset 56
 280 0147 8D930000 		leal	.LC10@GOTOFF(%ebx), %edx
 280      0000
 281 014d 52       		pushl	%edx
 282              		.cfi_def_cfa_offset 60
 283 014e 50       		pushl	%eax
 284              		.cfi_def_cfa_offset 64
 285 014f E8FCFFFF 		call	__test_assert@PLT
 285      FF
 286              	.LVL8:
 287 0154 83C410   		addl	$16, %esp
 288              		.cfi_def_cfa_offset 48
GAS LISTING /tmp/ccXkgrjd.s 			page 7


 289 0157 84C0     		testb	%al, %al
 290 0159 740D     		je	.L15
 291              	.L1:
 292              		.loc 1 269 1 view .LVU59
 293 015b 83C41C   		addl	$28, %esp
 294              		.cfi_remember_state
 295              		.cfi_def_cfa_offset 20
 296 015e 5B       		popl	%ebx
 297              		.cfi_restore 3
 298              		.cfi_def_cfa_offset 16
 299 015f 5E       		popl	%esi
 300              		.cfi_restore 6
 301              		.cfi_def_cfa_offset 12
 302 0160 5F       		popl	%edi
 303              		.cfi_restore 7
 304              		.cfi_def_cfa_offset 8
 305 0161 5D       		popl	%ebp
 306              		.cfi_restore 5
 307              		.cfi_def_cfa_offset 4
 308 0162 C3       		ret
 309              		.p2align 4,,10
 310 0163 8D742600 		.p2align 3
 310      90
 311              	.L15:
 312              		.cfi_restore_state
 313              		.loc 1 246 42 is_stmt 1 view .LVU60
 314              		.loc 1 247 5 view .LVU61
 315 0168 83EC08   		subl	$8, %esp
 316              		.cfi_def_cfa_offset 56
 317 016b 8D830000 		leal	.LC11@GOTOFF(%ebx), %eax
 317      0000
 318 0171 50       		pushl	%eax
 319              		.cfi_def_cfa_offset 60
 320 0172 8B7F10   		movl	16(%edi), %edi
 321 0175 31C0     		xorl	%eax, %eax
 322 0177 85FF     		testl	%edi, %edi
 323 0179 0F94C0   		sete	%al
 324 017c 50       		pushl	%eax
 325              		.cfi_def_cfa_offset 64
 326 017d E8FCFFFF 		call	__test_assert@PLT
 326      FF
 327              	.LVL9:
 328 0182 83C410   		addl	$16, %esp
 329              		.cfi_def_cfa_offset 48
 330 0185 84C0     		testb	%al, %al
 331 0187 75D2     		jne	.L1
 332              		.loc 1 248 46 view .LVU62
 333              		.loc 1 250 3 view .LVU63
 334              		.loc 1 250 19 view .LVU64
 335              		.loc 1 254 3 view .LVU65
 336 0189 8B7C240C 		movl	12(%esp), %edi
 337 018d C7070500 		movl	$5, (%edi)
 337      0000
 338              		.loc 1 256 5 view .LVU66
 339 0193 E8FCFFFF 		call	test_wait_threads@PLT
 339      FF
 340              	.LVL10:
GAS LISTING /tmp/ccXkgrjd.s 			page 8


 341              		.loc 1 257 5 view .LVU67
 342 0198 83EC08   		subl	$8, %esp
 343              		.cfi_def_cfa_offset 56
 344 019b 8D830000 		leal	.LC12@GOTOFF(%ebx), %eax
 344      0000
 345 01a1 50       		pushl	%eax
 346              		.cfi_def_cfa_offset 60
 347 01a2 8D830000 		leal	.LC13@GOTOFF(%ebx), %eax
 347      0000
 348 01a8 50       		pushl	%eax
 349              		.cfi_def_cfa_offset 64
 350 01a9 E8FCFFFF 		call	__test_assert_sequence@PLT
 350      FF
 351              	.LVL11:
 352 01ae 83C410   		addl	$16, %esp
 353              		.cfi_def_cfa_offset 48
 354 01b1 84C0     		testb	%al, %al
 355 01b3 75A6     		jne	.L1
 356              		.loc 1 257 53 discriminator 2 view .LVU68
 357              		.loc 1 259 3 discriminator 2 view .LVU69
 358              		.loc 1 259 19 discriminator 2 view .LVU70
 359              		.loc 1 262 3 discriminator 2 view .LVU71
 360 01b5 C7070600 		movl	$6, (%edi)
 360      0000
 361              		.loc 1 264 5 discriminator 2 view .LVU72
 362              	.LVL12:
 363              		.loc 1 264 19 discriminator 2 view .LVU73
 364 01bb 8DAB0000 		leal	.LC14@GOTOFF(%ebx), %ebp
 364      0000
 365              		.loc 1 262 3 is_stmt 0 discriminator 2 view .LVU74
 366 01c1 BF040000 		movl	$4, %edi
 366      00
 367              	.LVL13:
 368              	.L7:
 369              		.loc 1 265 7 is_stmt 1 view .LVU75
 370 01c6 83EC0C   		subl	$12, %esp
 371              		.cfi_def_cfa_offset 60
 372 01c9 56       		pushl	%esi
 373              		.cfi_def_cfa_offset 64
 374 01ca E8FCFFFF 		call	chPoolAlloc@PLT
 374      FF
 375              	.LVL14:
 376 01cf 5A       		popl	%edx
 377              		.cfi_def_cfa_offset 60
 378 01d0 59       		popl	%ecx
 379              		.cfi_def_cfa_offset 56
 380 01d1 55       		pushl	%ebp
 381              		.cfi_def_cfa_offset 60
 382 01d2 85C0     		testl	%eax, %eax
 383 01d4 0F95C0   		setne	%al
 384 01d7 0FB6C0   		movzbl	%al, %eax
 385 01da 50       		pushl	%eax
 386              		.cfi_def_cfa_offset 64
 387 01db E8FCFFFF 		call	__test_assert@PLT
 387      FF
 388              	.LVL15:
 389 01e0 83C410   		addl	$16, %esp
GAS LISTING /tmp/ccXkgrjd.s 			page 9


 390              		.cfi_def_cfa_offset 48
 391 01e3 84C0     		testb	%al, %al
 392 01e5 0F8570FF 		jne	.L1
 392      FFFF
 393              		.loc 1 264 25 discriminator 2 view .LVU76
 394              	.LVL16:
 395              		.loc 1 264 19 discriminator 2 view .LVU77
 396 01eb 83EF01   		subl	$1, %edi
 397              	.LVL17:
 398              		.loc 1 264 19 is_stmt 0 discriminator 2 view .LVU78
 399 01ee 75D6     		jne	.L7
 400              		.loc 1 265 64 is_stmt 1 view .LVU79
 401              		.loc 1 266 5 view .LVU80
 402 01f0 83EC0C   		subl	$12, %esp
 403              		.cfi_def_cfa_offset 60
 404 01f3 56       		pushl	%esi
 405              		.cfi_def_cfa_offset 64
 406 01f4 E8FCFFFF 		call	chPoolAlloc@PLT
 406      FF
 407              	.LVL18:
 408 01f9 5A       		popl	%edx
 409              		.cfi_def_cfa_offset 60
 410 01fa 8D930000 		leal	.LC15@GOTOFF(%ebx), %edx
 410      0000
 411 0200 59       		popl	%ecx
 412              		.cfi_def_cfa_offset 56
 413 0201 85C0     		testl	%eax, %eax
 414 0203 52       		pushl	%edx
 415              		.cfi_def_cfa_offset 60
 416 0204 0F94C0   		sete	%al
 417 0207 0FB6C0   		movzbl	%al, %eax
 418 020a 50       		pushl	%eax
 419              		.cfi_def_cfa_offset 64
 420 020b E8FCFFFF 		call	__test_assert@PLT
 420      FF
 421              	.LVL19:
 422 0210 83C410   		addl	$16, %esp
 423              		.cfi_def_cfa_offset 48
 424              		.loc 1 266 66 view .LVU81
 425              		.loc 1 268 3 view .LVU82
 426              		.loc 1 268 19 view .LVU83
 427              		.loc 1 269 1 is_stmt 0 view .LVU84
 428 0213 83C41C   		addl	$28, %esp
 429              		.cfi_def_cfa_offset 20
 430 0216 5B       		popl	%ebx
 431              		.cfi_restore 3
 432              		.cfi_def_cfa_offset 16
 433 0217 5E       		popl	%esi
 434              		.cfi_restore 6
 435              		.cfi_def_cfa_offset 12
 436 0218 5F       		popl	%edi
 437              		.cfi_restore 7
 438              		.cfi_def_cfa_offset 8
 439              	.LVL20:
 440              		.loc 1 269 1 view .LVU85
 441 0219 5D       		popl	%ebp
 442              		.cfi_restore 5
GAS LISTING /tmp/ccXkgrjd.s 			page 10


 443              		.cfi_def_cfa_offset 4
 444 021a C3       		ret
 445              		.cfi_endproc
 446              	.LFE307:
 447              		.size	rt_test_011_002_execute, .-rt_test_011_002_execute
 448              		.section	.text.dyn_thread1,"ax",@progbits
 449              		.p2align 4
 450              		.type	dyn_thread1, @function
 451              	dyn_thread1:
 452              	.LVL21:
 453              	.LFB303:
 454              		.loc 1 57 37 is_stmt 1 view -0
 455              		.cfi_startproc
 456              		.loc 1 59 3 view .LVU87
 457              		.loc 1 57 37 is_stmt 0 view .LVU88
 458 0000 53       		pushl	%ebx
 459              		.cfi_def_cfa_offset 8
 460              		.cfi_offset 3, -8
 461 0001 E8FCFFFF 		call	__x86.get_pc_thunk.bx
 461      FF
 462 0006 81C30200 		addl	$_GLOBAL_OFFSET_TABLE_, %ebx
 462      0000
 463 000c 83EC14   		subl	$20, %esp
 464              		.cfi_def_cfa_offset 28
 465              		.loc 1 59 3 view .LVU89
 466 000f 8B44241C 		movl	28(%esp), %eax
 467 0013 0FBE00   		movsbl	(%eax), %eax
 468 0016 50       		pushl	%eax
 469              		.cfi_def_cfa_offset 32
 470 0017 E8FCFFFF 		call	test_emit_token@PLT
 470      FF
 471              	.LVL22:
 472              		.loc 1 60 1 view .LVU90
 473 001c 83C418   		addl	$24, %esp
 474              		.cfi_def_cfa_offset 8
 475 001f 5B       		popl	%ebx
 476              		.cfi_restore 3
 477              		.cfi_def_cfa_offset 4
 478 0020 C3       		ret
 479              		.cfi_endproc
 480              	.LFE303:
 481              		.size	dyn_thread1, .-dyn_thread1
 482              		.section	.text.rt_test_011_002_setup,"ax",@progbits
 483              		.p2align 4
 484              		.type	rt_test_011_002_setup, @function
 485              	rt_test_011_002_setup:
 486              	.LFB306:
 487              		.loc 1 205 41 is_stmt 1 view -0
 488              		.cfi_startproc
 489              		.loc 1 206 3 view .LVU92
 490              	.LVL23:
 491              	.LBB20:
 492              	.LBI20:
 493              		.file 3 "../../../os/oslib/include/chmempools.h"
 494              		.loc 3 191 20 view .LVU93
 495              	.LBB21:
 496              		.loc 3 195 3 view .LVU94
GAS LISTING /tmp/ccXkgrjd.s 			page 11


 497              	.LBE21:
 498              	.LBE20:
 499              		.loc 1 205 41 is_stmt 0 view .LVU95
 500 0000 53       		pushl	%ebx
 501              		.cfi_def_cfa_offset 8
 502              		.cfi_offset 3, -8
 503 0001 E8FCFFFF 		call	__x86.get_pc_thunk.bx
 503      FF
 504 0006 81C30200 		addl	$_GLOBAL_OFFSET_TABLE_, %ebx
 504      0000
 505 000c 83EC08   		subl	$8, %esp
 506              		.cfi_def_cfa_offset 16
 507              	.LBB23:
 508              	.LBB22:
 509              		.loc 3 195 3 view .LVU96
 510 000f 6A00     		pushl	$0
 511              		.cfi_def_cfa_offset 20
 512 0011 6A04     		pushl	$4
 513              		.cfi_def_cfa_offset 24
 514 0013 68404100 		pushl	$16704
 514      00
 515              		.cfi_def_cfa_offset 28
 516 0018 8D830000 		leal	mp1@GOTOFF(%ebx), %eax
 516      0000
 517 001e 50       		pushl	%eax
 518              		.cfi_def_cfa_offset 32
 519 001f E8FCFFFF 		call	chPoolObjectInitAligned@PLT
 519      FF
 520              	.LVL24:
 521              		.loc 3 195 3 view .LVU97
 522              	.LBE22:
 523              	.LBE23:
 524              		.loc 1 207 1 view .LVU98
 525 0024 83C418   		addl	$24, %esp
 526              		.cfi_def_cfa_offset 8
 527 0027 5B       		popl	%ebx
 528              		.cfi_restore 3
 529              		.cfi_def_cfa_offset 4
 530 0028 C3       		ret
 531              		.cfi_endproc
 532              	.LFE306:
 533              		.size	rt_test_011_002_setup, .-rt_test_011_002_setup
 534              		.section	.rodata.rt_test_011_001_execute.str1.1,"aMS",@progbits,1
 535              	.LC16:
 536 0000 68656170 		.string	"heap fragmented"
 536      20667261 
 536      676D656E 
 536      74656400 
 537              	.LC17:
 538 0010 414200   		.string	"AB"
 539              	.LC18:
 540 0013 66726167 		.string	"fragmentation changed"
 540      6D656E74 
 540      6174696F 
 540      6E206368 
 540      616E6765 
 541              	.LC19:
GAS LISTING /tmp/ccXkgrjd.s 			page 12


 542 0029 746F7461 		.string	"total free space changed"
 542      6C206672 
 542      65652073 
 542      70616365 
 542      20636861 
 543              	.LC20:
 544 0042 6C617267 		.string	"largest fragment size changed"
 544      65737420 
 544      66726167 
 544      6D656E74 
 544      2073697A 
 545              		.section	.text.rt_test_011_001_execute,"ax",@progbits
 546              		.p2align 4
 547              		.type	rt_test_011_001_execute, @function
 548              	rt_test_011_001_execute:
 549              	.LFB305:
 550              		.loc 1 98 43 is_stmt 1 view -0
 551              		.cfi_startproc
 552 0000 55       		pushl	%ebp
 553              		.cfi_def_cfa_offset 8
 554              		.cfi_offset 5, -8
 555 0001 57       		pushl	%edi
 556              		.cfi_def_cfa_offset 12
 557              		.cfi_offset 7, -12
 558 0002 56       		pushl	%esi
 559              		.cfi_def_cfa_offset 16
 560              		.cfi_offset 6, -16
 561 0003 53       		pushl	%ebx
 562              		.cfi_def_cfa_offset 20
 563              		.cfi_offset 3, -20
 564 0004 E8FCFFFF 		call	__x86.get_pc_thunk.bx
 564      FF
 565 0009 81C30200 		addl	$_GLOBAL_OFFSET_TABLE_, %ebx
 565      0000
 566 000f 83EC40   		subl	$64, %esp
 567              		.cfi_def_cfa_offset 84
 568              	.LVL25:
 569              		.loc 1 108 3 view .LVU100
 570              		.loc 1 108 19 view .LVU101
 571              		.loc 1 111 3 view .LVU102
 572              	.LBB24:
 573              	.LBB25:
 574              	.LBB26:
 575              	.LBB27:
 576              		.loc 2 529 10 is_stmt 0 view .LVU103
 577 0012 65A11400 		movl	%gs:20, %eax
 577      0000
 578 0018 89442430 		movl	%eax, 48(%esp)
 579 001c 8B830000 		movl	ch0@GOT(%ebx), %eax
 579      0000
 580              	.LBE27:
 581              	.LBE26:
 582              	.LBE25:
 583              	.LBE24:
 584              		.loc 1 113 10 view .LVU104
 585 0022 8DAB0000 		leal	heap1@GOTOFF(%ebx), %ebp
 585      0000
GAS LISTING /tmp/ccXkgrjd.s 			page 13


 586              		.loc 1 111 3 view .LVU105
 587 0028 8BBB0000 		movl	chtest@GOT(%ebx), %edi
 587      0000
 588 002e C7070200 		movl	$2, (%edi)
 588      0000
 589              		.loc 1 113 5 is_stmt 1 view .LVU106
 590              	.LBB29:
 591              	.LBB28:
 592              		.loc 2 542 37 is_stmt 0 view .LVU107
 593 0034 8B400C   		movl	12(%eax), %eax
 594 0037 8B4008   		movl	8(%eax), %eax
 595 003a 89442404 		movl	%eax, 4(%esp)
 596              	.LVL26:
 597              		.loc 2 542 37 view .LVU108
 598              	.LBE28:
 599              	.LBE29:
 600              		.loc 1 113 10 view .LVU109
 601 003e 8D442424 		leal	36(%esp), %eax
 602 0042 50       		pushl	%eax
 603              		.cfi_def_cfa_offset 88
 604 0043 8D442424 		leal	36(%esp), %eax
 605 0047 50       		pushl	%eax
 606              		.cfi_def_cfa_offset 92
 607 0048 55       		pushl	%ebp
 608              		.cfi_def_cfa_offset 96
 609 0049 E8FCFFFF 		call	chHeapStatus@PLT
 609      FF
 610              	.LVL27:
 611 004e 89C6     		movl	%eax, %esi
 612              	.LVL28:
 613              		.loc 1 114 5 is_stmt 1 view .LVU110
 614 0050 58       		popl	%eax
 615              		.cfi_def_cfa_offset 92
 616              	.LVL29:
 617              		.loc 1 114 5 is_stmt 0 view .LVU111
 618 0051 8D830000 		leal	.LC16@GOTOFF(%ebx), %eax
 618      0000
 619 0057 5A       		popl	%edx
 620              		.cfi_def_cfa_offset 88
 621 0058 50       		pushl	%eax
 622              		.cfi_def_cfa_offset 92
 623 0059 31C0     		xorl	%eax, %eax
 624 005b 83FE01   		cmpl	$1, %esi
 625 005e 0F94C0   		sete	%al
 626 0061 50       		pushl	%eax
 627              		.cfi_def_cfa_offset 96
 628 0062 E8FCFFFF 		call	__test_assert@PLT
 628      FF
 629              	.LVL30:
 630 0067 83C410   		addl	$16, %esp
 631              		.cfi_def_cfa_offset 80
 632 006a 84C0     		testb	%al, %al
 633 006c 7422     		je	.L26
 634              	.L20:
 635              		.loc 1 169 1 view .LVU112
 636 006e 8B44242C 		movl	44(%esp), %eax
 637 0072 652B0514 		subl	%gs:20, %eax
GAS LISTING /tmp/ccXkgrjd.s 			page 14


 637      000000
 638 0079 0F85DC01 		jne	.L27
 638      0000
 639 007f 83C43C   		addl	$60, %esp
 640              		.cfi_remember_state
 641              		.cfi_def_cfa_offset 20
 642 0082 5B       		popl	%ebx
 643              		.cfi_restore 3
 644              		.cfi_def_cfa_offset 16
 645 0083 5E       		popl	%esi
 646              		.cfi_restore 6
 647              		.cfi_def_cfa_offset 12
 648              	.LVL31:
 649              		.loc 1 169 1 view .LVU113
 650 0084 5F       		popl	%edi
 651              		.cfi_restore 7
 652              		.cfi_def_cfa_offset 8
 653 0085 5D       		popl	%ebp
 654              		.cfi_restore 5
 655              		.cfi_def_cfa_offset 4
 656 0086 C3       		ret
 657              	.LVL32:
 658 0087 8DB42600 		.p2align 4,,10
 658      00000066 
 658      90
 659              		.p2align 3
 660              	.L26:
 661              		.cfi_restore_state
 662              		.loc 1 114 44 is_stmt 1 discriminator 2 view .LVU114
 663              		.loc 1 116 3 discriminator 2 view .LVU115
 664              		.loc 1 116 19 discriminator 2 view .LVU116
 665              		.loc 1 119 3 discriminator 2 view .LVU117
 666              		.loc 1 121 18 is_stmt 0 discriminator 2 view .LVU118
 667 0090 83EC08   		subl	$8, %esp
 668              		.cfi_def_cfa_offset 88
 669 0093 8D830000 		leal	.LC0@GOTOFF(%ebx), %eax
 669      0000
 670 0099 8D8B0000 		leal	dyn_thread1@GOTOFF(%ebx), %ecx
 670      0000
 671              		.loc 1 119 3 discriminator 2 view .LVU119
 672 009f C7070300 		movl	$3, (%edi)
 672      0000
 673              		.loc 1 121 5 is_stmt 1 discriminator 2 view .LVU120
 674              		.loc 1 121 18 is_stmt 0 discriminator 2 view .LVU121
 675 00a5 50       		pushl	%eax
 676              		.cfi_def_cfa_offset 92
 677 00a6 894C2410 		movl	%ecx, 16(%esp)
 678 00aa 51       		pushl	%ecx
 679              		.cfi_def_cfa_offset 96
 680 00ab 8B442410 		movl	16(%esp), %eax
 681 00af 83E801   		subl	$1, %eax
 682 00b2 50       		pushl	%eax
 683              		.cfi_def_cfa_offset 100
 684 00b3 8D830000 		leal	.LC1@GOTOFF(%ebx), %eax
 684      0000
 685 00b9 50       		pushl	%eax
 686              		.cfi_def_cfa_offset 104
GAS LISTING /tmp/ccXkgrjd.s 			page 15


 687 00ba 68404100 		pushl	$16704
 687      00
 688              		.cfi_def_cfa_offset 108
 689 00bf 55       		pushl	%ebp
 690              		.cfi_def_cfa_offset 112
 691 00c0 E8FCFFFF 		call	chThdCreateFromHeap@PLT
 691      FF
 692              	.LVL33:
 693              		.loc 1 121 16 discriminator 2 view .LVU122
 694 00c5 8B930000 		movl	threads@GOT(%ebx), %edx
 694      0000
 695              		.loc 1 125 5 discriminator 2 view .LVU123
 696 00cb 8D8B0000 		leal	.LC10@GOTOFF(%ebx), %ecx
 696      0000
 697              		.loc 1 121 16 discriminator 2 view .LVU124
 698 00d1 8954242C 		movl	%edx, 44(%esp)
 699              		.loc 1 125 5 discriminator 2 view .LVU125
 700 00d5 83C418   		addl	$24, %esp
 701              		.cfi_def_cfa_offset 88
 702 00d8 85C0     		testl	%eax, %eax
 703              		.loc 1 121 16 discriminator 2 view .LVU126
 704 00da 8902     		movl	%eax, (%edx)
 705              		.loc 1 125 5 is_stmt 1 discriminator 2 view .LVU127
 706 00dc 0F95C0   		setne	%al
 707 00df 0FB6C0   		movzbl	%al, %eax
 708 00e2 894C2410 		movl	%ecx, 16(%esp)
 709 00e6 51       		pushl	%ecx
 710              		.cfi_def_cfa_offset 92
 711 00e7 50       		pushl	%eax
 712              		.cfi_def_cfa_offset 96
 713 00e8 E8FCFFFF 		call	__test_assert@PLT
 713      FF
 714              	.LVL34:
 715 00ed 83C410   		addl	$16, %esp
 716              		.cfi_def_cfa_offset 80
 717 00f0 84C0     		testb	%al, %al
 718 00f2 0F8576FF 		jne	.L20
 718      FFFF
 719              		.loc 1 125 62 discriminator 2 view .LVU128
 720              		.loc 1 127 3 discriminator 2 view .LVU129
 721              		.loc 1 127 19 discriminator 2 view .LVU130
 722              		.loc 1 130 3 discriminator 2 view .LVU131
 723              		.loc 1 132 18 is_stmt 0 discriminator 2 view .LVU132
 724 00f8 83EC08   		subl	$8, %esp
 725              		.cfi_def_cfa_offset 88
 726 00fb 8D830000 		leal	.LC2@GOTOFF(%ebx), %eax
 726      0000
 727              		.loc 1 130 3 discriminator 2 view .LVU133
 728 0101 C7070400 		movl	$4, (%edi)
 728      0000
 729              		.loc 1 132 5 is_stmt 1 discriminator 2 view .LVU134
 730              		.loc 1 132 18 is_stmt 0 discriminator 2 view .LVU135
 731 0107 50       		pushl	%eax
 732              		.cfi_def_cfa_offset 92
 733 0108 FF742410 		pushl	16(%esp)
 734              		.cfi_def_cfa_offset 96
 735 010c 8B442410 		movl	16(%esp), %eax
GAS LISTING /tmp/ccXkgrjd.s 			page 16


 736 0110 83E802   		subl	$2, %eax
 737 0113 50       		pushl	%eax
 738              		.cfi_def_cfa_offset 100
 739 0114 8D830000 		leal	.LC3@GOTOFF(%ebx), %eax
 739      0000
 740 011a 50       		pushl	%eax
 741              		.cfi_def_cfa_offset 104
 742 011b 68404100 		pushl	$16704
 742      00
 743              		.cfi_def_cfa_offset 108
 744 0120 55       		pushl	%ebp
 745              		.cfi_def_cfa_offset 112
 746 0121 E8FCFFFF 		call	chThdCreateFromHeap@PLT
 746      FF
 747              	.LVL35:
 748              		.loc 1 132 16 discriminator 2 view .LVU136
 749 0126 8B54242C 		movl	44(%esp), %edx
 750              		.loc 1 136 5 discriminator 2 view .LVU137
 751 012a 83C418   		addl	$24, %esp
 752              		.cfi_def_cfa_offset 88
 753 012d 85C0     		testl	%eax, %eax
 754              		.loc 1 132 16 discriminator 2 view .LVU138
 755 012f 894204   		movl	%eax, 4(%edx)
 756              		.loc 1 136 5 is_stmt 1 discriminator 2 view .LVU139
 757 0132 0F95C0   		setne	%al
 758 0135 0FB6C0   		movzbl	%al, %eax
 759 0138 FF742410 		pushl	16(%esp)
 760              		.cfi_def_cfa_offset 92
 761 013c 50       		pushl	%eax
 762              		.cfi_def_cfa_offset 96
 763 013d E8FCFFFF 		call	__test_assert@PLT
 763      FF
 764              	.LVL36:
 765 0142 83C410   		addl	$16, %esp
 766              		.cfi_def_cfa_offset 80
 767 0145 84C0     		testb	%al, %al
 768 0147 0F8521FF 		jne	.L20
 768      FFFF
 769              		.loc 1 136 62 discriminator 2 view .LVU140
 770              		.loc 1 138 3 discriminator 2 view .LVU141
 771              		.loc 1 138 19 discriminator 2 view .LVU142
 772              		.loc 1 141 3 discriminator 2 view .LVU143
 773              		.loc 1 143 18 is_stmt 0 discriminator 2 view .LVU144
 774 014d 83EC08   		subl	$8, %esp
 775              		.cfi_def_cfa_offset 88
 776 0150 8D830000 		leal	.LC4@GOTOFF(%ebx), %eax
 776      0000
 777              		.loc 1 141 3 discriminator 2 view .LVU145
 778 0156 C7070500 		movl	$5, (%edi)
 778      0000
 779              		.loc 1 143 5 is_stmt 1 discriminator 2 view .LVU146
 780              		.loc 1 143 18 is_stmt 0 discriminator 2 view .LVU147
 781 015c 50       		pushl	%eax
 782              		.cfi_def_cfa_offset 92
 783 015d FF742410 		pushl	16(%esp)
 784              		.cfi_def_cfa_offset 96
 785 0161 8B442410 		movl	16(%esp), %eax
GAS LISTING /tmp/ccXkgrjd.s 			page 17


 786 0165 83E803   		subl	$3, %eax
 787 0168 50       		pushl	%eax
 788              		.cfi_def_cfa_offset 100
 789 0169 8D830000 		leal	.LC5@GOTOFF(%ebx), %eax
 789      0000
 790 016f 50       		pushl	%eax
 791              		.cfi_def_cfa_offset 104
 792 0170 68000000 		pushl	$-2147483648
 792      80
 793              		.cfi_def_cfa_offset 108
 794 0175 55       		pushl	%ebp
 795              		.cfi_def_cfa_offset 112
 796 0176 E8FCFFFF 		call	chThdCreateFromHeap@PLT
 796      FF
 797              	.LVL37:
 798              		.loc 1 143 16 discriminator 2 view .LVU148
 799 017b 8B54242C 		movl	44(%esp), %edx
 800              		.loc 1 147 5 discriminator 2 view .LVU149
 801 017f 83C418   		addl	$24, %esp
 802              		.cfi_def_cfa_offset 88
 803 0182 85C0     		testl	%eax, %eax
 804              		.loc 1 143 16 discriminator 2 view .LVU150
 805 0184 894208   		movl	%eax, 8(%edx)
 806              		.loc 1 147 5 is_stmt 1 discriminator 2 view .LVU151
 807 0187 0F94C0   		sete	%al
 808 018a 8D930000 		leal	.LC11@GOTOFF(%ebx), %edx
 808      0000
 809 0190 0FB6C0   		movzbl	%al, %eax
 810 0193 52       		pushl	%edx
 811              		.cfi_def_cfa_offset 92
 812 0194 50       		pushl	%eax
 813              		.cfi_def_cfa_offset 96
 814 0195 E8FCFFFF 		call	__test_assert@PLT
 814      FF
 815              	.LVL38:
 816 019a 83C410   		addl	$16, %esp
 817              		.cfi_def_cfa_offset 80
 818 019d 84C0     		testb	%al, %al
 819 019f 0F85C9FE 		jne	.L20
 819      FFFF
 820              		.loc 1 147 66 discriminator 2 view .LVU152
 821              		.loc 1 149 3 discriminator 2 view .LVU153
 822              		.loc 1 149 19 discriminator 2 view .LVU154
 823              		.loc 1 153 3 discriminator 2 view .LVU155
 824 01a5 C7070600 		movl	$6, (%edi)
 824      0000
 825              		.loc 1 155 5 discriminator 2 view .LVU156
 826 01ab E8FCFFFF 		call	test_wait_threads@PLT
 826      FF
 827              	.LVL39:
 828              		.loc 1 156 5 discriminator 2 view .LVU157
 829 01b0 83EC08   		subl	$8, %esp
 830              		.cfi_def_cfa_offset 88
 831 01b3 8D830000 		leal	.LC12@GOTOFF(%ebx), %eax
 831      0000
 832 01b9 50       		pushl	%eax
 833              		.cfi_def_cfa_offset 92
GAS LISTING /tmp/ccXkgrjd.s 			page 18


 834 01ba 8D830000 		leal	.LC17@GOTOFF(%ebx), %eax
 834      0000
 835 01c0 50       		pushl	%eax
 836              		.cfi_def_cfa_offset 96
 837 01c1 E8FCFFFF 		call	__test_assert_sequence@PLT
 837      FF
 838              	.LVL40:
 839 01c6 83C410   		addl	$16, %esp
 840              		.cfi_def_cfa_offset 80
 841 01c9 84C0     		testb	%al, %al
 842 01cb 0F859DFE 		jne	.L20
 842      FFFF
 843              		.loc 1 156 51 discriminator 2 view .LVU158
 844              		.loc 1 158 3 discriminator 2 view .LVU159
 845              		.loc 1 158 19 discriminator 2 view .LVU160
 846              		.loc 1 161 3 discriminator 2 view .LVU161
 847              		.loc 1 163 10 is_stmt 0 discriminator 2 view .LVU162
 848 01d1 83EC04   		subl	$4, %esp
 849              		.cfi_def_cfa_offset 84
 850              		.loc 1 161 3 discriminator 2 view .LVU163
 851 01d4 C7070700 		movl	$7, (%edi)
 851      0000
 852              		.loc 1 163 5 is_stmt 1 discriminator 2 view .LVU164
 853              		.loc 1 163 10 is_stmt 0 discriminator 2 view .LVU165
 854 01da 8D44242C 		leal	44(%esp), %eax
 855 01de 50       		pushl	%eax
 856              		.cfi_def_cfa_offset 88
 857 01df 8D44242C 		leal	44(%esp), %eax
 858 01e3 50       		pushl	%eax
 859              		.cfi_def_cfa_offset 92
 860 01e4 55       		pushl	%ebp
 861              		.cfi_def_cfa_offset 96
 862 01e5 E8FCFFFF 		call	chHeapStatus@PLT
 862      FF
 863              	.LVL41:
 864              		.loc 1 164 5 is_stmt 1 discriminator 2 view .LVU166
 865 01ea 5A       		popl	%edx
 866              		.cfi_def_cfa_offset 92
 867 01eb 8D930000 		leal	.LC18@GOTOFF(%ebx), %edx
 867      0000
 868 01f1 59       		popl	%ecx
 869              		.cfi_def_cfa_offset 88
 870 01f2 39C6     		cmpl	%eax, %esi
 871 01f4 52       		pushl	%edx
 872              		.cfi_def_cfa_offset 92
 873 01f5 0F94C0   		sete	%al
 874              	.LVL42:
 875              		.loc 1 164 5 is_stmt 0 discriminator 2 view .LVU167
 876 01f8 0FB6C0   		movzbl	%al, %eax
 877 01fb 50       		pushl	%eax
 878              		.cfi_def_cfa_offset 96
 879 01fc E8FCFFFF 		call	__test_assert@PLT
 879      FF
 880              	.LVL43:
 881 0201 83C410   		addl	$16, %esp
 882              		.cfi_def_cfa_offset 80
 883 0204 84C0     		testb	%al, %al
GAS LISTING /tmp/ccXkgrjd.s 			page 19


 884 0206 0F8562FE 		jne	.L20
 884      FFFF
 885              		.loc 1 164 51 is_stmt 1 discriminator 2 view .LVU168
 886              		.loc 1 165 5 discriminator 2 view .LVU169
 887 020c 83EC08   		subl	$8, %esp
 888              		.cfi_def_cfa_offset 88
 889 020f 8D830000 		leal	.LC19@GOTOFF(%ebx), %eax
 889      0000
 890 0215 50       		pushl	%eax
 891              		.cfi_def_cfa_offset 92
 892 0216 8B442430 		movl	48(%esp), %eax
 893 021a 39442428 		cmpl	%eax, 40(%esp)
 894 021e 0F94C0   		sete	%al
 895 0221 0FB6C0   		movzbl	%al, %eax
 896 0224 50       		pushl	%eax
 897              		.cfi_def_cfa_offset 96
 898 0225 E8FCFFFF 		call	__test_assert@PLT
 898      FF
 899              	.LVL44:
 900 022a 83C410   		addl	$16, %esp
 901              		.cfi_def_cfa_offset 80
 902 022d 84C0     		testb	%al, %al
 903 022f 0F8539FE 		jne	.L20
 903      FFFF
 904              		.loc 1 165 62 discriminator 2 view .LVU170
 905              		.loc 1 166 5 discriminator 2 view .LVU171
 906 0235 83EC08   		subl	$8, %esp
 907              		.cfi_def_cfa_offset 88
 908 0238 8D830000 		leal	.LC20@GOTOFF(%ebx), %eax
 908      0000
 909 023e 50       		pushl	%eax
 910              		.cfi_def_cfa_offset 92
 911 023f 8B442434 		movl	52(%esp), %eax
 912 0243 3944242C 		cmpl	%eax, 44(%esp)
 913 0247 0F94C0   		sete	%al
 914 024a 0FB6C0   		movzbl	%al, %eax
 915 024d 50       		pushl	%eax
 916              		.cfi_def_cfa_offset 96
 917 024e E8FCFFFF 		call	__test_assert@PLT
 917      FF
 918              	.LVL45:
 919              		.loc 1 166 5 discriminator 2 view .LVU172
 920 0253 83C410   		addl	$16, %esp
 921              		.cfi_def_cfa_offset 80
 922 0256 E913FEFF 		jmp	.L20
 922      FF
 923              	.L27:
 924              		.loc 1 169 1 is_stmt 0 view .LVU173
 925 025b E8FCFFFF 		call	__stack_chk_fail_local
 925      FF
 926              	.LVL46:
 927              		.cfi_endproc
 928              	.LFE305:
 929              		.size	rt_test_011_001_execute, .-rt_test_011_001_execute
 930              		.section	.text.rt_test_011_001_setup,"ax",@progbits
 931              		.p2align 4
 932              		.type	rt_test_011_001_setup, @function
GAS LISTING /tmp/ccXkgrjd.s 			page 20


 933              	rt_test_011_001_setup:
 934              	.LFB304:
 935              		.loc 1 94 41 is_stmt 1 view -0
 936              		.cfi_startproc
 937              		.loc 1 95 3 view .LVU175
 938              		.loc 1 94 41 is_stmt 0 view .LVU176
 939 0000 53       		pushl	%ebx
 940              		.cfi_def_cfa_offset 8
 941              		.cfi_offset 3, -8
 942 0001 E8FCFFFF 		call	__x86.get_pc_thunk.bx
 942      FF
 943 0006 81C30200 		addl	$_GLOBAL_OFFSET_TABLE_, %ebx
 943      0000
 944 000c 83EC0C   		subl	$12, %esp
 945              		.cfi_def_cfa_offset 20
 946              		.loc 1 95 3 view .LVU177
 947 000f 68404601 		pushl	$83520
 947      00
 948              		.cfi_def_cfa_offset 24
 949 0014 8D830000 		leal	heap1@GOTOFF(%ebx), %eax
 949      0000
 950 001a FFB30000 		pushl	test_buffer@GOT(%ebx)
 950      0000
 951              		.cfi_def_cfa_offset 28
 952 0020 50       		pushl	%eax
 953              		.cfi_def_cfa_offset 32
 954 0021 E8FCFFFF 		call	chHeapObjectInit@PLT
 954      FF
 955              	.LVL47:
 956              		.loc 1 96 1 view .LVU178
 957 0026 83C418   		addl	$24, %esp
 958              		.cfi_def_cfa_offset 8
 959 0029 5B       		popl	%ebx
 960              		.cfi_restore 3
 961              		.cfi_def_cfa_offset 4
 962 002a C3       		ret
 963              		.cfi_endproc
 964              	.LFE304:
 965              		.size	rt_test_011_001_setup, .-rt_test_011_001_setup
 966              		.globl	rt_test_sequence_011
 967              		.section	.rodata.str1.1,"aMS",@progbits,1
 968              	.LC21:
 969 0000 44796E61 		.string	"Dynamic threads"
 969      6D696320 
 969      74687265 
 969      61647300 
 970              		.section	.data.rel.ro.local.rt_test_sequence_011,"aw"
 971              		.align 4
 972              		.type	rt_test_sequence_011, @object
 973              		.size	rt_test_sequence_011, 8
 974              	rt_test_sequence_011:
 975 0000 00000000 		.long	.LC21
 976 0004 00000000 		.long	rt_test_sequence_011_array
 977              		.globl	rt_test_sequence_011_array
 978              		.section	.data.rel.ro.local.rt_test_sequence_011_array,"aw"
 979              		.align 4
 980              		.type	rt_test_sequence_011_array, @object
GAS LISTING /tmp/ccXkgrjd.s 			page 21


 981              		.size	rt_test_sequence_011_array, 12
 982              	rt_test_sequence_011_array:
 983 0000 00000000 		.long	rt_test_011_001
 984 0004 00000000 		.long	rt_test_011_002
 985 0008 00000000 		.long	0
 986              		.section	.rodata.str1.4,"aMS",@progbits,1
 987              		.align 4
 988              	.LC22:
 989 0000 54687265 		.string	"Threads creation from Memory Pool"
 989      61647320 
 989      63726561 
 989      74696F6E 
 989      2066726F 
 990              		.section	.data.rel.ro.local.rt_test_011_002,"aw"
 991              		.align 4
 992              		.type	rt_test_011_002, @object
 993              		.size	rt_test_011_002, 16
 994              	rt_test_011_002:
 995 0000 00000000 		.long	.LC22
 996 0004 00000000 		.long	rt_test_011_002_setup
 997 0008 00000000 		.long	0
 998 000c 00000000 		.long	rt_test_011_002_execute
 999              		.section	.rodata.str1.4
 1000 0022 0000     		.align 4
 1001              	.LC23:
 1002 0024 54687265 		.string	"Threads creation from Memory Heap"
 1002      61647320 
 1002      63726561 
 1002      74696F6E 
 1002      2066726F 
 1003              		.section	.data.rel.ro.local.rt_test_011_001,"aw"
 1004              		.align 4
 1005              		.type	rt_test_011_001, @object
 1006              		.size	rt_test_011_001, 16
 1007              	rt_test_011_001:
 1008 0000 24000000 		.long	.LC23
 1009 0004 00000000 		.long	rt_test_011_001_setup
 1010 0008 00000000 		.long	0
 1011 000c 00000000 		.long	rt_test_011_001_execute
 1012              		.section	.bss.mp1,"aw",@nobits
 1013              		.align 4
 1014              		.type	mp1, @object
 1015              		.size	mp1, 16
 1016              	mp1:
 1017 0000 00000000 		.zero	16
 1017      00000000 
 1017      00000000 
 1017      00000000 
 1018              		.section	.bss.heap1,"aw",@nobits
 1019              		.align 32
 1020              		.type	heap1, @object
 1021              		.size	heap1, 36
 1022              	heap1:
 1023 0000 00000000 		.zero	36
 1023      00000000 
 1023      00000000 
 1023      00000000 
GAS LISTING /tmp/ccXkgrjd.s 			page 22


 1023      00000000 
 1024              		.section	.text.__x86.get_pc_thunk.bx,"axG",@progbits,__x86.get_pc_thunk.bx,comdat
 1025              		.globl	__x86.get_pc_thunk.bx
 1026              		.hidden	__x86.get_pc_thunk.bx
 1027              		.type	__x86.get_pc_thunk.bx, @function
 1028              	__x86.get_pc_thunk.bx:
 1029              	.LFB308:
 1030              		.cfi_startproc
 1031 0000 8B1C24   		movl	(%esp), %ebx
 1032 0003 C3       		ret
 1033              		.cfi_endproc
 1034              	.LFE308:
 1035              		.text
 1036              	.Letext0:
 1037              		.file 4 "/usr/lib/gcc/x86_64-linux-gnu/11/include/stddef.h"
 1038              		.file 5 "/usr/include/bits/types.h"
 1039              		.file 6 "/usr/include/bits/stdint-intn.h"
 1040              		.file 7 "/usr/include/bits/stdint-uintn.h"
 1041              		.file 8 "../../../os/common/ports/SIMIA32/compilers/GCC/chtypes.h"
 1042              		.file 9 "../../../os/rt/include/chearly.h"
 1043              		.file 10 "../../../os/rt/include/chobjects.h"
 1044              		.file 11 "../../../os/rt/include/chrfcu.h"
 1045              		.file 12 "../../../os/rt/include/chdebug.h"
 1046              		.file 13 "../../../os/rt/include/chtime.h"
 1047              		.file 14 "../../../os/rt/include/chlists.h"
 1048              		.file 15 "../../../os/common/ports/SIMIA32/chcore.h"
 1049              		.file 16 "../../../os/rt/include/chsem.h"
 1050              		.file 17 "../../../os/rt/include/chmtx.h"
 1051              		.file 18 "../../../os/oslib/include/chmemchecks.h"
 1052              		.file 19 "../../../os/oslib/include/chmemcore.h"
 1053              		.file 20 "../../../os/oslib/include/chmemheaps.h"
 1054              		.file 21 "../../../os/hal/include/hal_streams.h"
 1055              		.file 22 "../../../os/test/include/ch_test.h"
 1056              		.file 23 "../../../test/rt/source/test/rt_test_sequence_011.h"
 1057              		.file 24 "../../../test/rt/source/test/rt_test_root.h"
 1058              		.file 25 "../../../os/rt/include/chsys.h"
 1059              		.file 26 "../../../os/rt/include/chdynamic.h"
 4685 0068 2F686F6D 		.section	.note.GNU-stack,"",@progbits
 4685      652F616C 
 4685      65782F43 
 4685      68696269 
 4685      4F532F64 
GAS LISTING /tmp/ccXkgrjd.s 			page 94

