GAS LISTING /tmp/ccpCnXe4.s 			page 1


   1              		.file	"chcore.c"
   2              		.text
   3              	.Ltext0:
   4              		.file 0 "/home/alex/ChibiOS/demos/various/LAB3_VARIANT3" "../../../os/common/ports/SIMIA32/chcore.
   5              		.section	.text.__dummy,"ax",@progbits
   6              		.p2align 4
   7              		.type	__dummy, @function
   8              	__dummy:
   9              	.LVL0:
  10              	.LFB203:
  11              		.file 1 "../../../os/common/ports/SIMIA32/chcore.c"
  12              		.loc 1 82 51 view -0
  13              		.cfi_startproc
  14              		.loc 1 83 3 view .LVU1
  15              		.loc 1 83 14 view .LVU2
  16              		.loc 1 85 3 view .LVU3
  17              	#APP
  18              	# 85 "../../../os/common/ports/SIMIA32/chcore.c" 1
  19              		.globl port_switch                             
  20 0000 55       		port_switch:push    %ebp                                   
  21 0001 56       		push    %esi                                   
  22 0002 57       		push    %edi                                   
  23 0003 53       		push    %ebx                                   
  24 0004 89620C   		movl    %esp, 12(%edx)           
  25 0007 8B610C   		movl    12(%ecx), %esp           
  26 000a 5B       		pop     %ebx                                   
  27 000b 5F       		pop     %edi                                   
  28 000c 5E       		pop     %esi                                   
  29 000d 5D       		pop     %ebp                                   
  30 000e C3       		ret
  31              	# 0 "" 2
  32              		.loc 1 107 1 is_stmt 0 view .LVU4
  33              	#NO_APP
  34 000f C3       		ret
  35              		.cfi_endproc
  36              	.LFE203:
  37              		.size	__dummy, .-__dummy
  38              		.section	.text._port_thread_start,"ax",@progbits
  39              		.p2align 4
  40              		.globl	_port_thread_start
  41              		.type	_port_thread_start, @function
  42              	_port_thread_start:
  43              	.LVL1:
  44              	.LFB204:
  45              		.loc 1 115 55 is_stmt 1 view -0
  46              		.cfi_startproc
  47              		.loc 1 117 3 view .LVU6
  48              	.LBB8:
  49              	.LBI8:
  50              		.file 2 "../../../os/rt/include/chsys.h"
  51              		.loc 2 421 20 view .LVU7
  52              	.LBB9:
  53              		.loc 2 423 23 view .LVU8
  54              		.loc 2 424 34 view .LVU9
  55              		.loc 2 430 3 view .LVU10
  56              		.loc 2 430 3 view .LVU11
  57              		.loc 2 430 3 view .LVU12
GAS LISTING /tmp/ccpCnXe4.s 			page 2


  58              		.loc 2 434 3 view .LVU13
  59              	.LBB10:
  60              	.LBI10:
  61              		.file 3 "../../../os/common/ports/SIMIA32/chcore.h"
  62              		.loc 3 370 20 view .LVU14
  63              	.LBB11:
  64              		.loc 3 372 3 view .LVU15
  65              	.LBE11:
  66              	.LBE10:
  67              	.LBE9:
  68              	.LBE8:
  69              		.loc 1 115 55 is_stmt 0 view .LVU16
  70 0000 53       		pushl	%ebx
  71              		.cfi_def_cfa_offset 8
  72              		.cfi_offset 3, -8
  73 0001 E8FCFFFF 		call	__x86.get_pc_thunk.bx
  73      FF
  74 0006 81C30200 		addl	$_GLOBAL_OFFSET_TABLE_, %ebx
  74      0000
  75 000c 83EC14   		subl	$20, %esp
  76              		.cfi_def_cfa_offset 28
  77              		.loc 1 118 3 view .LVU17
  78 000f FF742420 		pushl	32(%esp)
  79              		.cfi_def_cfa_offset 32
  80              	.LBB15:
  81              	.LBB14:
  82              	.LBB13:
  83              	.LBB12:
  84              		.loc 3 372 16 view .LVU18
  85 0013 C7830000 		movl	$0, port_irq_sts@GOTOFF(%ebx)
  85      00000000 
  85      0000
  86              	.LBE12:
  87              	.LBE13:
  88              	.LBE14:
  89              	.LBE15:
  90              		.loc 1 118 3 is_stmt 1 view .LVU19
  91 001d FF542420 		call	*32(%esp)
  92              	.LVL2:
  93              		.loc 1 119 3 view .LVU20
  94 0021 C7042400 		movl	$0, (%esp)
  94      000000
  95 0028 E8FCFFFF 		call	chThdExit@PLT
  95      FF
  96              	.LVL3:
  97 002d 83C410   		addl	$16, %esp
  98              		.cfi_def_cfa_offset 16
  99              	.L4:
 100              		.loc 1 120 3 discriminator 1 view .LVU21
 101              		.loc 1 120 8 discriminator 1 view .LVU22
 102              		.loc 1 120 3 discriminator 1 view .LVU23
 103              		.loc 1 120 8 discriminator 1 view .LVU24
 104 0030 EBFE     		jmp	.L4
 105              		.cfi_endproc
 106              	.LFE204:
 107              		.size	_port_thread_start, .-_port_thread_start
 108              		.section	.text.port_rt_get_counter_value,"ax",@progbits
GAS LISTING /tmp/ccpCnXe4.s 			page 3


 109              		.p2align 4
 110              		.globl	port_rt_get_counter_value
 111              		.type	port_rt_get_counter_value, @function
 112              	port_rt_get_counter_value:
 113              	.LFB205:
 114              		.loc 1 129 41 view -0
 115              		.cfi_startproc
 116 0000 53       		pushl	%ebx
 117              		.cfi_def_cfa_offset 8
 118              		.cfi_offset 3, -8
 119 0001 E8FCFFFF 		call	__x86.get_pc_thunk.bx
 119      FF
 120 0006 81C30200 		addl	$_GLOBAL_OFFSET_TABLE_, %ebx
 120      0000
 121 000c 83EC20   		subl	$32, %esp
 122              		.cfi_def_cfa_offset 40
 123              		.loc 1 129 41 is_stmt 0 view .LVU26
 124 000f 65A11400 		movl	%gs:20, %eax
 124      0000
 125 0015 89442414 		movl	%eax, 20(%esp)
 126 0019 31C0     		xorl	%eax, %eax
 127              		.loc 1 137 3 is_stmt 1 view .LVU27
 128              		.loc 1 139 3 view .LVU28
 129 001b 6A00     		pushl	$0
 130              		.cfi_def_cfa_offset 44
 131 001d 8D442410 		leal	16(%esp), %eax
 132 0021 50       		pushl	%eax
 133              		.cfi_def_cfa_offset 48
 134 0022 E8FCFFFF 		call	gettimeofday@PLT
 134      FF
 135              	.LVL4:
 136              		.loc 1 140 3 view .LVU29
 137              		.loc 1 140 30 is_stmt 0 view .LVU30
 138 0027 69442414 		imull	$1000000, 20(%esp), %eax
 138      40420F00 
 139              		.loc 1 140 50 view .LVU31
 140 002f 03442418 		addl	24(%esp), %eax
 141 0033 83C410   		addl	$16, %esp
 142              		.cfi_def_cfa_offset 32
 143              		.loc 1 142 1 view .LVU32
 144 0036 8B54240C 		movl	12(%esp), %edx
 145 003a 652B1514 		subl	%gs:20, %edx
 145      000000
 146 0041 7505     		jne	.L9
 147 0043 83C418   		addl	$24, %esp
 148              		.cfi_remember_state
 149              		.cfi_def_cfa_offset 8
 150 0046 5B       		popl	%ebx
 151              		.cfi_restore 3
 152              		.cfi_def_cfa_offset 4
 153 0047 C3       		ret
 154              	.L9:
 155              		.cfi_restore_state
 156 0048 E8FCFFFF 		call	__stack_chk_fail_local
 156      FF
 157              	.LVL5:
 158              		.cfi_endproc
GAS LISTING /tmp/ccpCnXe4.s 			page 4


 159              	.LFE205:
 160              		.size	port_rt_get_counter_value, .-port_rt_get_counter_value
 161              		.globl	port_irq_sts
 162              		.section	.bss.port_irq_sts,"aw",@nobits
 163              		.align 4
 164              		.type	port_irq_sts, @object
 165              		.size	port_irq_sts, 4
 166              	port_irq_sts:
 167 0000 00000000 		.zero	4
 168              		.globl	port_isr_context_flag
 169              		.section	.bss.port_isr_context_flag,"aw",@nobits
 170              		.type	port_isr_context_flag, @object
 171              		.size	port_isr_context_flag, 1
 172              	port_isr_context_flag:
 173 0000 00       		.zero	1
 174              		.section	.text.__x86.get_pc_thunk.bx,"axG",@progbits,__x86.get_pc_thunk.bx,comdat
 175              		.globl	__x86.get_pc_thunk.bx
 176              		.hidden	__x86.get_pc_thunk.bx
 177              		.type	__x86.get_pc_thunk.bx, @function
 178              	__x86.get_pc_thunk.bx:
 179              	.LFB206:
 180              		.cfi_startproc
 181 0000 8B1C24   		movl	(%esp), %ebx
 182 0003 C3       		ret
 183              		.cfi_endproc
 184              	.LFE206:
 185              		.text
 186              	.Letext0:
 187              		.file 4 "/usr/include/bits/types.h"
 188              		.file 5 "/usr/include/bits/types/struct_timeval.h"
 189              		.file 6 "/usr/include/bits/stdint-intn.h"
 190              		.file 7 "/usr/include/bits/stdint-uintn.h"
 191              		.file 8 "../../../os/common/ports/SIMIA32/compilers/GCC/chtypes.h"
 192              		.file 9 "../../../os/rt/include/chearly.h"
 193              		.file 10 "../../../os/rt/include/chobjects.h"
 194              		.file 11 "../../../os/rt/include/chrfcu.h"
 195              		.file 12 "../../../os/rt/include/chdebug.h"
 196              		.file 13 "../../../os/rt/include/chtime.h"
 197              		.file 14 "../../../os/rt/include/chlists.h"
 198              		.file 15 "../../../os/rt/include/chsem.h"
 199              		.file 16 "../../../os/rt/include/chmtx.h"
 200              		.file 17 "/usr/include/sys/time.h"
 201              		.file 18 "../../../os/rt/include/chthreads.h"
 2375 0059 2F686F6D 		.section	.note.GNU-stack,"",@progbits
 2375      652F616C 
 2375      65782F43 
 2375      68696269 
 2375      4F532F64 
GAS LISTING /tmp/ccpCnXe4.s 			page 48

