GAS LISTING /tmp/ccRfHGUP.s 			page 1


   1              		.file	"chmemheaps.c"
   2              		.text
   3              	.Ltext0:
   4              		.file 0 "/home/alex/ChibiOS/demos/various/LAB3_VARIANT3" "../../../os/oslib/src/chmemheaps.c"
   5              		.section	.text.__heap_init,"ax",@progbits
   6              		.p2align 4
   7              		.globl	__heap_init
   8              		.type	__heap_init, @function
   9              	__heap_init:
  10              	.LFB215:
  11              		.file 1 "../../../os/oslib/src/chmemheaps.c"
  12              		.loc 1 111 24 view -0
  13              		.cfi_startproc
  14              		.loc 1 113 3 view .LVU1
  15              		.loc 1 111 24 is_stmt 0 view .LVU2
  16 0000 56       		pushl	%esi
  17              		.cfi_def_cfa_offset 8
  18              		.cfi_offset 6, -8
  19 0001 53       		pushl	%ebx
  20              		.cfi_def_cfa_offset 12
  21              		.cfi_offset 3, -12
  22 0002 E8FCFFFF 		call	__x86.get_pc_thunk.bx
  22      FF
  23 0007 81C30200 		addl	$_GLOBAL_OFFSET_TABLE_, %ebx
  23      0000
  24 000d 83EC10   		subl	$16, %esp
  25              		.cfi_def_cfa_offset 28
  26              		.loc 1 114 3 view .LVU3
  27 0010 8DB30400 		leal	4+default_heap@GOTOFF(%ebx), %esi
  27      0000
  28              		.loc 1 113 25 view .LVU4
  29 0016 8B830000 		movl	chCoreAllocFromTop@GOT(%ebx), %eax
  29      0000
  30              		.loc 1 114 3 view .LVU5
  31 001c 56       		pushl	%esi
  32              		.cfi_def_cfa_offset 32
  33              		.loc 1 113 25 view .LVU6
  34 001d 89830000 		movl	%eax, default_heap@GOTOFF(%ebx)
  34      0000
  35              		.loc 1 114 3 is_stmt 1 view .LVU7
  36 0023 E8FCFFFF 		call	chCoreGetStatusX@PLT
  36      FF
  37              	.LVL0:
  38              		.loc 1 115 3 view .LVU8
  39              		.loc 1 118 3 is_stmt 0 view .LVU9
  40 0028 8D4610   		leal	16(%esi), %eax
  41              		.loc 1 115 37 view .LVU10
  42 002b C7830C00 		movl	$0, 12+default_heap@GOTOFF(%ebx)
  42      00000000 
  42      0000
  43              		.loc 1 116 3 is_stmt 1 view .LVU11
  44              		.loc 1 116 38 is_stmt 0 view .LVU12
  45 0035 C7831000 		movl	$0, 16+default_heap@GOTOFF(%ebx)
  45      00000000 
  45      0000
  46              		.loc 1 118 3 is_stmt 1 view .LVU13
  47 003f 890424   		movl	%eax, (%esp)
GAS LISTING /tmp/ccRfHGUP.s 			page 2


  48 0042 E8FCFFFF 		call	chMtxObjectInit@PLT
  48      FF
  49              	.LVL1:
  50              		.loc 1 122 1 is_stmt 0 view .LVU14
  51 0047 83C414   		addl	$20, %esp
  52              		.cfi_def_cfa_offset 12
  53 004a 5B       		popl	%ebx
  54              		.cfi_restore 3
  55              		.cfi_def_cfa_offset 8
  56 004b 5E       		popl	%esi
  57              		.cfi_restore 6
  58              		.cfi_def_cfa_offset 4
  59 004c C3       		ret
  60              		.cfi_endproc
  61              	.LFE215:
  62              		.size	__heap_init, .-__heap_init
  63              		.section	.text.chHeapObjectInit,"ax",@progbits
  64              		.p2align 4
  65              		.globl	chHeapObjectInit
  66              		.type	chHeapObjectInit, @function
  67              	chHeapObjectInit:
  68              	.LVL2:
  69              	.LFB216:
  70              		.loc 1 136 69 is_stmt 1 view -0
  71              		.cfi_startproc
  72              		.loc 1 137 3 view .LVU16
  73              		.loc 1 136 69 is_stmt 0 view .LVU17
  74 0000 56       		pushl	%esi
  75              		.cfi_def_cfa_offset 8
  76              		.cfi_offset 6, -8
  77 0001 53       		pushl	%ebx
  78              		.cfi_def_cfa_offset 12
  79              		.cfi_offset 3, -12
  80 0002 E8FCFFFF 		call	__x86.get_pc_thunk.bx
  80      FF
  81 0007 81C30200 		addl	$_GLOBAL_OFFSET_TABLE_, %ebx
  81      0000
  82 000d 83EC10   		subl	$16, %esp
  83              		.cfi_def_cfa_offset 28
  84              		.loc 1 136 69 view .LVU18
  85 0010 8B4C2420 		movl	32(%esp), %ecx
  86              		.loc 1 152 28 view .LVU19
  87 0014 8B742424 		movl	36(%esp), %esi
  88              		.loc 1 136 69 view .LVU20
  89 0018 8B44241C 		movl	28(%esp), %eax
  90              		.loc 1 137 40 view .LVU21
  91 001c 8D5107   		leal	7(%ecx), %edx
  92 001f 83E2F8   		andl	$-8, %edx
  93              	.LVL3:
  94              		.loc 1 139 3 is_stmt 1 view .LVU22
  95              		.loc 1 139 3 view .LVU23
  96              		.loc 1 139 3 view .LVU24
  97              		.loc 1 144 3 view .LVU25
  98              		.loc 1 148 3 view .LVU26
  99              		.loc 1 148 19 is_stmt 0 view .LVU27
 100 0022 C7000000 		movl	$0, (%eax)
 100      0000
GAS LISTING /tmp/ccRfHGUP.s 			page 3


 101              		.loc 1 149 3 is_stmt 1 view .LVU28
 102              		.loc 1 156 3 is_stmt 0 view .LVU29
 103 0028 83C014   		addl	$20, %eax
 104              		.loc 1 144 34 view .LVU30
 105 002b 29D1     		subl	%edx, %ecx
 106              	.LVL4:
 107              		.loc 1 149 31 view .LVU31
 108 002d 8950F8   		movl	%edx, -8(%eax)
 109              		.loc 1 150 3 is_stmt 1 view .LVU32
 110              		.loc 1 152 28 is_stmt 0 view .LVU33
 111 0030 8D4C31F8 		leal	-8(%ecx,%esi), %ecx
 112              	.LVL5:
 113              		.loc 1 150 32 view .LVU34
 114 0034 C740FC00 		movl	$0, -4(%eax)
 114      000000
 115              		.loc 1 151 3 is_stmt 1 view .LVU35
 116              		.loc 1 152 54 is_stmt 0 view .LVU36
 117 003b C1E903   		shrl	$3, %ecx
 118              		.loc 1 151 19 view .LVU37
 119 003e C7020000 		movl	$0, (%edx)
 119      0000
 120              		.loc 1 152 3 is_stmt 1 view .LVU38
 121              		.loc 1 152 20 is_stmt 0 view .LVU39
 122 0044 894A04   		movl	%ecx, 4(%edx)
 123              		.loc 1 153 3 is_stmt 1 view .LVU40
 124              		.loc 1 153 20 is_stmt 0 view .LVU41
 125 0047 8950F0   		movl	%edx, -16(%eax)
 126              		.loc 1 154 3 is_stmt 1 view .LVU42
 127              		.loc 1 154 22 is_stmt 0 view .LVU43
 128 004a 8D14CD08 		leal	8(,%ecx,8), %edx
 128      000000
 129              	.LVL6:
 130              		.loc 1 154 22 view .LVU44
 131 0051 8950F4   		movl	%edx, -12(%eax)
 132              		.loc 1 156 3 is_stmt 1 view .LVU45
 133 0054 50       		pushl	%eax
 134              		.cfi_def_cfa_offset 32
 135              	.LVL7:
 136              		.loc 1 156 3 is_stmt 0 view .LVU46
 137 0055 E8FCFFFF 		call	chMtxObjectInit@PLT
 137      FF
 138              	.LVL8:
 139              		.loc 1 160 1 view .LVU47
 140 005a 83C414   		addl	$20, %esp
 141              		.cfi_def_cfa_offset 12
 142 005d 5B       		popl	%ebx
 143              		.cfi_restore 3
 144              		.cfi_def_cfa_offset 8
 145 005e 5E       		popl	%esi
 146              		.cfi_restore 6
 147              		.cfi_def_cfa_offset 4
 148              	.LVL9:
 149              		.loc 1 160 1 view .LVU48
 150 005f C3       		ret
 151              		.cfi_endproc
 152              	.LFE216:
 153              		.size	chHeapObjectInit, .-chHeapObjectInit
GAS LISTING /tmp/ccRfHGUP.s 			page 4


 154              		.section	.text.chHeapObjectDispose,"ax",@progbits
 155              		.p2align 4
 156              		.globl	chHeapObjectDispose
 157              		.type	chHeapObjectDispose, @function
 158              	chHeapObjectDispose:
 159              	.LVL10:
 160              	.LFB217:
 161              		.loc 1 177 48 is_stmt 1 view -0
 162              		.cfi_startproc
 163              		.loc 1 179 3 view .LVU50
 164              		.loc 1 179 3 view .LVU51
 165              		.loc 1 179 3 view .LVU52
 166              		.loc 1 184 1 is_stmt 0 view .LVU53
 167 0000 C3       		ret
 168              		.cfi_endproc
 169              	.LFE217:
 170              		.size	chHeapObjectDispose, .-chHeapObjectDispose
 171              		.section	.text.chHeapAllocAligned,"ax",@progbits
 172              		.p2align 4
 173              		.globl	chHeapAllocAligned
 174              		.type	chHeapAllocAligned, @function
 175              	chHeapAllocAligned:
 176              	.LVL11:
 177              	.LFB218:
 178              		.loc 1 203 77 is_stmt 1 view -0
 179              		.cfi_startproc
 180              		.loc 1 204 3 view .LVU55
 181              		.loc 1 205 3 view .LVU56
 182              		.loc 1 207 3 view .LVU57
 183              		.loc 1 207 3 view .LVU58
 184              		.loc 1 207 3 view .LVU59
 185              		.loc 1 210 3 view .LVU60
 186              		.loc 1 203 77 is_stmt 0 view .LVU61
 187 0000 55       		pushl	%ebp
 188              		.cfi_def_cfa_offset 8
 189              		.cfi_offset 5, -8
 190 0001 57       		pushl	%edi
 191              		.cfi_def_cfa_offset 12
 192              		.cfi_offset 7, -12
 193 0002 56       		pushl	%esi
 194              		.cfi_def_cfa_offset 16
 195              		.cfi_offset 6, -16
 196 0003 53       		pushl	%ebx
 197              		.cfi_def_cfa_offset 20
 198              		.cfi_offset 3, -20
 199 0004 E8FCFFFF 		call	__x86.get_pc_thunk.bx
 199      FF
 200 0009 81C30200 		addl	$_GLOBAL_OFFSET_TABLE_, %ebx
 200      0000
 201 000f 83EC38   		subl	$56, %esp
 202              		.cfi_def_cfa_offset 76
 203              		.loc 1 211 11 view .LVU62
 204 0012 8B44244C 		movl	76(%esp), %eax
 205              		.loc 1 203 77 view .LVU63
 206 0016 8B542454 		movl	84(%esp), %edx
 207              		.loc 1 211 11 view .LVU64
 208 001a 85C0     		testl	%eax, %eax
GAS LISTING /tmp/ccRfHGUP.s 			page 5


 209 001c 8D830000 		leal	default_heap@GOTOFF(%ebx), %eax
 209      0000
 210 0022 0F454424 		cmovne	76(%esp), %eax
 210      4C
 211 0027 895C2420 		movl	%ebx, 32(%esp)
 212 002b 8944244C 		movl	%eax, 76(%esp)
 213              	.LVL12:
 214              		.loc 1 215 3 is_stmt 1 view .LVU65
 215 002f B8080000 		movl	$8, %eax
 215      00
 216              	.LVL13:
 217              		.loc 1 215 3 is_stmt 0 view .LVU66
 218 0034 39C2     		cmpl	%eax, %edx
 219 0036 0F43C2   		cmovnb	%edx, %eax
 220 0039 89442428 		movl	%eax, 40(%esp)
 221 003d 89C7     		movl	%eax, %edi
 222              	.LVL14:
 223              		.loc 1 220 3 is_stmt 1 view .LVU67
 224              		.loc 1 220 11 is_stmt 0 view .LVU68
 225 003f 8B442450 		movl	80(%esp), %eax
 226              	.LVL15:
 227              		.loc 1 220 11 view .LVU69
 228 0043 83C007   		addl	$7, %eax
 229              		.loc 1 220 9 view .LVU70
 230 0046 C1E803   		shrl	$3, %eax
 231 0049 8944241C 		movl	%eax, 28(%esp)
 232              	.LVL16:
 233              		.loc 1 223 3 is_stmt 1 view .LVU71
 234 004d 8B44244C 		movl	76(%esp), %eax
 235              	.LVL17:
 236              		.loc 1 223 3 is_stmt 0 view .LVU72
 237 0051 83C014   		addl	$20, %eax
 238 0054 89442424 		movl	%eax, 36(%esp)
 239 0058 50       		pushl	%eax
 240              		.cfi_def_cfa_offset 80
 241 0059 E8FCFFFF 		call	chMtxLock@PLT
 241      FF
 242              	.LVL18:
 243              		.loc 1 226 3 is_stmt 1 view .LVU73
 244              		.loc 1 226 6 is_stmt 0 view .LVU74
 245 005e 8B442450 		movl	80(%esp), %eax
 246 0062 83C00C   		addl	$12, %eax
 247 0065 8944241C 		movl	%eax, 28(%esp)
 248              	.LVL19:
 249              		.loc 1 227 3 is_stmt 1 view .LVU75
 250              		.loc 1 227 26 view .LVU76
 251              		.loc 1 227 10 is_stmt 0 view .LVU77
 252 0069 8B442450 		movl	80(%esp), %eax
 253              	.LVL20:
 254              		.loc 1 227 26 view .LVU78
 255 006d 83C410   		addl	$16, %esp
 256              		.cfi_def_cfa_offset 64
 257              		.loc 1 227 10 view .LVU79
 258 0070 8B400C   		movl	12(%eax), %eax
 259              		.loc 1 227 26 view .LVU80
 260 0073 85C0     		testl	%eax, %eax
 261 0075 743F     		je	.L9
GAS LISTING /tmp/ccRfHGUP.s 			page 6


 262 0077 8D6F07   		leal	7(%edi), %ebp
 263              		.loc 1 233 28 view .LVU81
 264 007a F7DF     		negl	%edi
 265              	.LVL21:
 266              		.loc 1 233 28 view .LVU82
 267 007c 897C2408 		movl	%edi, 8(%esp)
 268 0080 EB08     		jmp	.L15
 269              	.LVL22:
 270              		.p2align 4,,10
 271 0082 8DB60000 		.p2align 3
 271      0000
 272              	.L16:
 273              		.loc 1 233 28 view .LVU83
 274 0088 89D0     		movl	%edx, %eax
 275              	.LVL23:
 276              	.L15:
 277              		.loc 1 230 5 is_stmt 1 view .LVU84
 278              		.loc 1 233 5 view .LVU85
 279              		.loc 1 235 16 is_stmt 0 view .LVU86
 280 008a 8B7804   		movl	4(%eax), %edi
 281              		.loc 1 233 28 view .LVU87
 282 008d 8D3428   		leal	(%eax,%ebp), %esi
 283 0090 23742408 		andl	8(%esp), %esi
 284              		.loc 1 233 63 view .LVU88
 285 0094 8D4EF8   		leal	-8(%esi), %ecx
 286              	.LVL24:
 287              		.loc 1 235 5 is_stmt 1 view .LVU89
 288              		.loc 1 235 16 is_stmt 0 view .LVU90
 289 0097 8D54F808 		leal	8(%eax,%edi,8), %edx
 290              		.loc 1 235 8 view .LVU91
 291 009b 39CA     		cmpl	%ecx, %edx
 292 009d 760D     		jbe	.L10
 293              		.loc 1 235 47 discriminator 1 view .LVU92
 294 009f 89D3     		movl	%edx, %ebx
 295 00a1 29F3     		subl	%esi, %ebx
 296 00a3 C1FB03   		sarl	$3, %ebx
 297              		.loc 1 235 34 discriminator 1 view .LVU93
 298 00a6 3B5C2410 		cmpl	16(%esp), %ebx
 299 00aa 7364     		jnb	.L25
 300              	.L10:
 301              	.LVL25:
 302              		.loc 1 227 26 is_stmt 1 view .LVU94
 303              		.loc 1 227 10 is_stmt 0 view .LVU95
 304 00ac 8B10     		movl	(%eax), %edx
 305 00ae 8944240C 		movl	%eax, 12(%esp)
 306              		.loc 1 227 26 view .LVU96
 307 00b2 85D2     		testl	%edx, %edx
 308 00b4 75D2     		jne	.L16
 309              	.LVL26:
 310              	.L9:
 311              		.loc 1 295 3 is_stmt 1 view .LVU97
 312 00b6 83EC0C   		subl	$12, %esp
 313              		.cfi_def_cfa_offset 76
 314 00b9 FF742424 		pushl	36(%esp)
 315              		.cfi_def_cfa_offset 80
 316 00bd 8B5C2424 		movl	36(%esp), %ebx
 317 00c1 E8FCFFFF 		call	chMtxUnlock@PLT
GAS LISTING /tmp/ccRfHGUP.s 			page 7


 317      FF
 318              	.LVL27:
 319              		.loc 1 299 3 view .LVU98
 320              		.loc 1 299 12 is_stmt 0 view .LVU99
 321 00c6 8B442450 		movl	80(%esp), %eax
 322              		.loc 1 299 6 view .LVU100
 323 00ca 83C410   		addl	$16, %esp
 324              		.cfi_def_cfa_offset 64
 325              		.loc 1 299 12 view .LVU101
 326 00cd 8B10     		movl	(%eax), %edx
 327              		.loc 1 299 6 view .LVU102
 328 00cf 85D2     		testl	%edx, %edx
 329 00d1 0F84C100 		je	.L17
 329      0000
 330              		.loc 1 300 5 is_stmt 1 view .LVU103
 331              		.loc 1 300 11 is_stmt 0 view .LVU104
 332 00d7 83EC04   		subl	$4, %esp
 333              		.cfi_def_cfa_offset 68
 334 00da 6A08     		pushl	$8
 335              		.cfi_def_cfa_offset 72
 336 00dc FF742424 		pushl	36(%esp)
 337              		.cfi_def_cfa_offset 76
 338 00e0 8B44241C 		movl	28(%esp), %eax
 339 00e4 C1E003   		sall	$3, %eax
 340 00e7 50       		pushl	%eax
 341              		.cfi_def_cfa_offset 80
 342 00e8 FFD2     		call	*%edx
 343              	.LVL28:
 344 00ea 89C6     		movl	%eax, %esi
 345              	.LVL29:
 346              		.loc 1 303 5 is_stmt 1 view .LVU105
 347              		.loc 1 303 8 is_stmt 0 view .LVU106
 348 00ec 83C410   		addl	$16, %esp
 349              		.cfi_def_cfa_offset 64
 350 00ef 85C0     		testl	%eax, %eax
 351 00f1 740E     		je	.L7
 352              		.loc 1 304 7 is_stmt 1 view .LVU107
 353              	.LVL30:
 354              		.loc 1 305 7 view .LVU108
 355              		.loc 1 305 23 is_stmt 0 view .LVU109
 356 00f3 8B442440 		movl	64(%esp), %eax
 357              	.LVL31:
 358              		.loc 1 305 23 view .LVU110
 359 00f7 8946F8   		movl	%eax, -8(%esi)
 360              		.loc 1 306 7 is_stmt 1 view .LVU111
 361              		.loc 1 306 23 is_stmt 0 view .LVU112
 362 00fa 8B442444 		movl	68(%esp), %eax
 363 00fe 8946FC   		movl	%eax, -4(%esi)
 364              		.loc 1 309 7 is_stmt 1 view .LVU113
 365              	.LVL32:
 366              	.L7:
 367              		.loc 1 315 1 is_stmt 0 view .LVU114
 368 0101 83C42C   		addl	$44, %esp
 369              		.cfi_remember_state
 370              		.cfi_def_cfa_offset 20
 371 0104 89F0     		movl	%esi, %eax
 372 0106 5B       		popl	%ebx
GAS LISTING /tmp/ccRfHGUP.s 			page 8


 373              		.cfi_restore 3
 374              		.cfi_def_cfa_offset 16
 375 0107 5E       		popl	%esi
 376              		.cfi_restore 6
 377              		.cfi_def_cfa_offset 12
 378              	.LVL33:
 379              		.loc 1 315 1 view .LVU115
 380 0108 5F       		popl	%edi
 381              		.cfi_restore 7
 382              		.cfi_def_cfa_offset 8
 383 0109 5D       		popl	%ebp
 384              		.cfi_restore 5
 385              		.cfi_def_cfa_offset 4
 386 010a C3       		ret
 387              	.LVL34:
 388 010b 8D742600 		.p2align 4,,10
 388      90
 389              		.p2align 3
 390              	.L25:
 391              		.cfi_restore_state
 392              		.loc 1 239 7 is_stmt 1 view .LVU116
 393              	.LBB2:
 394              		.loc 1 244 28 is_stmt 0 view .LVU117
 395 0110 8D6808   		leal	8(%eax), %ebp
 396              	.LBE2:
 397              		.loc 1 239 10 view .LVU118
 398 0113 39C8     		cmpl	%ecx, %eax
 399 0115 7259     		jb	.L26
 400              		.loc 1 263 9 is_stmt 1 view .LVU119
 401              	.LBB5:
 402              	.LBB3:
 403              		.loc 1 254 29 is_stmt 0 view .LVU120
 404 0117 8B18     		movl	(%eax), %ebx
 405              	.LBE3:
 406              	.LBE5:
 407              		.loc 1 263 12 view .LVU121
 408 0119 3B7C2410 		cmpl	16(%esp), %edi
 409 011d 0F848100 		je	.L27
 409      0000
 410              	.LBB6:
 411              		.loc 1 269 11 is_stmt 1 view .LVU122
 412              		.loc 1 271 11 view .LVU123
 413              		.loc 1 271 14 is_stmt 0 view .LVU124
 414 0123 8B4C2410 		movl	16(%esp), %ecx
 415              	.LVL35:
 416              		.loc 1 274 27 view .LVU125
 417 0127 8B7C240C 		movl	12(%esp), %edi
 418 012b 89EE     		movl	%ebp, %esi
 419              	.LVL36:
 420              		.loc 1 271 14 view .LVU126
 421 012d 8D4CC808 		leal	8(%eax,%ecx,8), %ecx
 422              	.LVL37:
 423              		.loc 1 272 11 is_stmt 1 view .LVU127
 424              		.loc 1 272 27 is_stmt 0 view .LVU128
 425 0131 8919     		movl	%ebx, (%ecx)
 426              		.loc 1 273 11 is_stmt 1 view .LVU129
 427              		.loc 1 273 30 is_stmt 0 view .LVU130
GAS LISTING /tmp/ccRfHGUP.s 			page 9


 428 0133 8D5908   		leal	8(%ecx), %ebx
 429 0136 29DA     		subl	%ebx, %edx
 430 0138 C1FA03   		sarl	$3, %edx
 431              		.loc 1 273 28 view .LVU131
 432 013b 895104   		movl	%edx, 4(%ecx)
 433              		.loc 1 274 11 is_stmt 1 view .LVU132
 434              		.loc 1 274 27 is_stmt 0 view .LVU133
 435 013e 890F     		movl	%ecx, (%edi)
 436 0140 89C1     		movl	%eax, %ecx
 437              	.LVL38:
 438              	.L12:
 439              		.loc 1 274 27 view .LVU134
 440              	.LBE6:
 441              		.loc 1 279 7 is_stmt 1 view .LVU135
 442              		.loc 1 279 23 is_stmt 0 view .LVU136
 443 0142 8B442444 		movl	68(%esp), %eax
 444              	.LVL39:
 445              		.loc 1 283 7 view .LVU137
 446 0146 83EC0C   		subl	$12, %esp
 447              		.cfi_def_cfa_offset 76
 448              		.loc 1 279 23 view .LVU138
 449 0149 894104   		movl	%eax, 4(%ecx)
 450              		.loc 1 280 7 is_stmt 1 view .LVU139
 451              		.loc 1 280 23 is_stmt 0 view .LVU140
 452 014c 8B44244C 		movl	76(%esp), %eax
 453 0150 8901     		movl	%eax, (%ecx)
 454              		.loc 1 283 7 is_stmt 1 view .LVU141
 455 0152 FF742424 		pushl	36(%esp)
 456              		.cfi_def_cfa_offset 80
 457 0156 8B5C2424 		movl	36(%esp), %ebx
 458 015a E8FCFFFF 		call	chMtxUnlock@PLT
 458      FF
 459              	.LVL40:
 460              		.loc 1 286 7 view .LVU142
 461              		.loc 1 286 14 is_stmt 0 view .LVU143
 462 015f 83C410   		addl	$16, %esp
 463              		.cfi_def_cfa_offset 64
 464              		.loc 1 315 1 view .LVU144
 465 0162 89F0     		movl	%esi, %eax
 466 0164 83C42C   		addl	$44, %esp
 467              		.cfi_remember_state
 468              		.cfi_def_cfa_offset 20
 469 0167 5B       		popl	%ebx
 470              		.cfi_restore 3
 471              		.cfi_def_cfa_offset 16
 472 0168 5E       		popl	%esi
 473              		.cfi_restore 6
 474              		.cfi_def_cfa_offset 12
 475 0169 5F       		popl	%edi
 476              		.cfi_restore 7
 477              		.cfi_def_cfa_offset 8
 478 016a 5D       		popl	%ebp
 479              		.cfi_restore 5
 480              		.cfi_def_cfa_offset 4
 481 016b C3       		ret
 482              	.LVL41:
 483 016c 8D742600 		.p2align 4,,10
GAS LISTING /tmp/ccRfHGUP.s 			page 10


 484              		.p2align 3
 485              	.L26:
 486              		.cfi_restore_state
 487              	.LBB7:
 488              		.loc 1 241 9 is_stmt 1 view .LVU145
 489              		.loc 1 243 9 view .LVU146
 490              		.loc 1 244 9 view .LVU147
 491              		.loc 1 244 28 is_stmt 0 view .LVU148
 492 0170 89CA     		movl	%ecx, %edx
 493 0172 29EA     		subl	%ebp, %edx
 494              		.loc 1 245 12 view .LVU149
 495 0174 8B6C2410 		movl	16(%esp), %ebp
 496              		.loc 1 244 28 view .LVU150
 497 0178 C1FA03   		sarl	$3, %edx
 498              		.loc 1 244 26 view .LVU151
 499 017b 895004   		movl	%edx, 4(%eax)
 500              		.loc 1 245 9 is_stmt 1 view .LVU152
 501              		.loc 1 245 12 is_stmt 0 view .LVU153
 502 017e 39EB     		cmpl	%ebp, %ebx
 503 0180 76C0     		jbe	.L12
 504              	.LBB4:
 505              		.loc 1 247 11 is_stmt 1 view .LVU154
 506              		.loc 1 250 11 view .LVU155
 507              		.loc 1 251 47 is_stmt 0 view .LVU156
 508 0182 29EB     		subl	%ebp, %ebx
 509              	.LVL42:
 510              		.loc 1 250 14 view .LVU157
 511 0184 8D7CE908 		leal	8(%ecx,%ebp,8), %edi
 512              	.LVL43:
 513              		.loc 1 251 11 is_stmt 1 view .LVU158
 514              		.loc 1 251 47 is_stmt 0 view .LVU159
 515 0188 89DA     		movl	%ebx, %edx
 516 018a 83EA01   		subl	$1, %edx
 517 018d 895704   		movl	%edx, 4(%edi)
 518              		.loc 1 254 11 is_stmt 1 view .LVU160
 519              		.loc 1 254 29 is_stmt 0 view .LVU161
 520 0190 8B10     		movl	(%eax), %edx
 521              		.loc 1 254 27 view .LVU162
 522 0192 8917     		movl	%edx, (%edi)
 523              		.loc 1 255 11 is_stmt 1 view .LVU163
 524              		.loc 1 255 27 is_stmt 0 view .LVU164
 525 0194 8938     		movl	%edi, (%eax)
 526 0196 EBAA     		jmp	.L12
 527              	.LVL44:
 528              	.L17:
 529              		.loc 1 255 27 view .LVU165
 530              	.LBE4:
 531              	.LBE7:
 532              		.loc 1 315 1 view .LVU166
 533 0198 83C42C   		addl	$44, %esp
 534              		.cfi_remember_state
 535              		.cfi_def_cfa_offset 20
 536              		.loc 1 314 10 view .LVU167
 537 019b 31F6     		xorl	%esi, %esi
 538              		.loc 1 315 1 view .LVU168
 539 019d 5B       		popl	%ebx
 540              		.cfi_restore 3
GAS LISTING /tmp/ccRfHGUP.s 			page 11


 541              		.cfi_def_cfa_offset 16
 542 019e 89F0     		movl	%esi, %eax
 543 01a0 5E       		popl	%esi
 544              		.cfi_restore 6
 545              		.cfi_def_cfa_offset 12
 546 01a1 5F       		popl	%edi
 547              		.cfi_restore 7
 548              		.cfi_def_cfa_offset 8
 549 01a2 5D       		popl	%ebp
 550              		.cfi_restore 5
 551              		.cfi_def_cfa_offset 4
 552 01a3 C3       		ret
 553              	.LVL45:
 554              	.L27:
 555              		.cfi_restore_state
 556              		.loc 1 265 11 is_stmt 1 view .LVU169
 557              		.loc 1 265 27 is_stmt 0 view .LVU170
 558 01a4 8B4C240C 		movl	12(%esp), %ecx
 559              	.LVL46:
 560              		.loc 1 265 27 view .LVU171
 561 01a8 89EE     		movl	%ebp, %esi
 562              	.LVL47:
 563              		.loc 1 265 27 view .LVU172
 564 01aa 8919     		movl	%ebx, (%ecx)
 565 01ac 89C1     		movl	%eax, %ecx
 566 01ae EB92     		jmp	.L12
 567              		.cfi_endproc
 568              	.LFE218:
 569              		.size	chHeapAllocAligned, .-chHeapAllocAligned
 570              		.section	.text.chHeapFree,"ax",@progbits
 571              		.p2align 4
 572              		.globl	chHeapFree
 573              		.type	chHeapFree, @function
 574              	chHeapFree:
 575              	.LVL48:
 576              	.LFB219:
 577              		.loc 1 324 26 is_stmt 1 view -0
 578              		.cfi_startproc
 579              		.loc 1 325 3 view .LVU174
 580              		.loc 1 326 3 view .LVU175
 581              		.loc 1 328 3 view .LVU176
 582              		.loc 1 328 3 view .LVU177
 583              		.loc 1 328 3 view .LVU178
 584              		.loc 1 331 3 view .LVU179
 585              		.loc 1 324 26 is_stmt 0 view .LVU180
 586 0000 55       		pushl	%ebp
 587              		.cfi_def_cfa_offset 8
 588              		.cfi_offset 5, -8
 589 0001 57       		pushl	%edi
 590              		.cfi_def_cfa_offset 12
 591              		.cfi_offset 7, -12
 592 0002 56       		pushl	%esi
 593              		.cfi_def_cfa_offset 16
 594              		.cfi_offset 6, -16
 595 0003 53       		pushl	%ebx
 596              		.cfi_def_cfa_offset 20
 597              		.cfi_offset 3, -20
GAS LISTING /tmp/ccRfHGUP.s 			page 12


 598 0004 E8FCFFFF 		call	__x86.get_pc_thunk.bx
 598      FF
 599 0009 81C30200 		addl	$_GLOBAL_OFFSET_TABLE_, %ebx
 599      0000
 600 000f 83EC28   		subl	$40, %esp
 601              		.cfi_def_cfa_offset 60
 602              		.loc 1 324 26 view .LVU181
 603 0012 8B6C243C 		movl	60(%esp), %ebp
 604              		.loc 1 341 22 view .LVU182
 605 0016 8B45FC   		movl	-4(%ebp), %eax
 606              		.loc 1 333 9 view .LVU183
 607 0019 8B55F8   		movl	-8(%ebp), %edx
 608              		.loc 1 331 6 view .LVU184
 609 001c 8D75F8   		leal	-8(%ebp), %esi
 610              	.LVL49:
 611              		.loc 1 333 3 is_stmt 1 view .LVU185
 612              		.loc 1 334 3 view .LVU186
 613 001f 895C2414 		movl	%ebx, 20(%esp)
 614              		.loc 1 341 22 is_stmt 0 view .LVU187
 615 0023 83C007   		addl	$7, %eax
 616              		.loc 1 334 6 view .LVU188
 617 0026 8D7A0C   		leal	12(%edx), %edi
 618              	.LVL50:
 619              		.loc 1 341 3 is_stmt 1 view .LVU189
 620              		.loc 1 342 56 is_stmt 0 view .LVU190
 621 0029 C1E803   		shrl	$3, %eax
 622 002c 8945FC   		movl	%eax, -4(%ebp)
 623              		.loc 1 345 3 is_stmt 1 view .LVU191
 624 002f 8D4214   		leal	20(%edx), %eax
 625 0032 89442418 		movl	%eax, 24(%esp)
 626 0036 50       		pushl	%eax
 627              		.cfi_def_cfa_offset 64
 628 0037 E8FCFFFF 		call	chMtxLock@PLT
 628      FF
 629              	.LVL51:
 630              		.loc 1 345 3 is_stmt 0 view .LVU192
 631 003c 83C410   		addl	$16, %esp
 632              		.cfi_def_cfa_offset 48
 633              		.loc 1 334 6 view .LVU193
 634 003f 89F8     		movl	%edi, %eax
 635              	.LVL52:
 636              		.p2align 4,,10
 637 0041 8DB42600 		.p2align 3
 637      000000
 638              	.L36:
 639              		.loc 1 347 3 is_stmt 1 discriminator 7 view .LVU194
 640              		.loc 1 348 5 discriminator 7 view .LVU195
 641              		.loc 1 348 5 discriminator 7 view .LVU196
 642              		.loc 1 348 5 discriminator 7 view .LVU197
 643              		.loc 1 350 5 discriminator 7 view .LVU198
 644              		.loc 1 350 33 is_stmt 0 discriminator 7 view .LVU199
 645 0048 39C6     		cmpl	%eax, %esi
 646 004a 89C3     		movl	%eax, %ebx
 647 004c 0F97C2   		seta	%dl
 648              		.loc 1 350 8 discriminator 7 view .LVU200
 649 004f 39F8     		cmpl	%edi, %eax
 650              		.loc 1 351 11 discriminator 7 view .LVU201
GAS LISTING /tmp/ccRfHGUP.s 			page 13


 651 0051 8B00     		movl	(%eax), %eax
 652              	.LVL53:
 653              		.loc 1 350 8 discriminator 7 view .LVU202
 654 0053 0F94C1   		sete	%cl
 655              		.loc 1 350 33 discriminator 7 view .LVU203
 656 0056 08CA     		orb	%cl, %dl
 657 0058 74EE     		je	.L36
 658              	.LVL54:
 659              		.loc 1 350 47 discriminator 3 view .LVU204
 660 005a 85C0     		testl	%eax, %eax
 661 005c 7404     		je	.L30
 662              		.loc 1 351 36 view .LVU205
 663 005e 39C6     		cmpl	%eax, %esi
 664 0060 73E6     		jnb	.L36
 665              	.L30:
 666              		.loc 1 353 7 is_stmt 1 view .LVU206
 667              		.loc 1 353 23 is_stmt 0 view .LVU207
 668 0062 8945F8   		movl	%eax, -8(%ebp)
 669              		.loc 1 354 7 is_stmt 1 view .LVU208
 670              		.loc 1 356 11 is_stmt 0 view .LVU209
 671 0065 8B45FC   		movl	-4(%ebp), %eax
 672              		.loc 1 354 23 view .LVU210
 673 0068 8933     		movl	%esi, (%ebx)
 674              		.loc 1 356 7 is_stmt 1 view .LVU211
 675              		.loc 1 356 31 is_stmt 0 view .LVU212
 676 006a 8B55F8   		movl	-8(%ebp), %edx
 677              		.loc 1 356 11 view .LVU213
 678 006d 83C001   		addl	$1, %eax
 679 0070 8D0CC6   		leal	(%esi,%eax,8), %ecx
 680              		.loc 1 356 10 view .LVU214
 681 0073 39CA     		cmpl	%ecx, %edx
 682 0075 7429     		je	.L40
 683              		.loc 1 361 7 is_stmt 1 view .LVU215
 684              		.loc 1 361 12 is_stmt 0 view .LVU216
 685 0077 8B4304   		movl	4(%ebx), %eax
 686 007a 8D54C308 		leal	8(%ebx,%eax,8), %edx
 687              		.loc 1 361 10 view .LVU217
 688 007e 39D6     		cmpl	%edx, %esi
 689 0080 7434     		je	.L41
 690              	.L32:
 691              		.loc 1 366 7 is_stmt 1 view .LVU218
 692              		.loc 1 372 3 view .LVU219
 693 0082 83EC0C   		subl	$12, %esp
 694              		.cfi_def_cfa_offset 60
 695 0085 FF742418 		pushl	24(%esp)
 696              		.cfi_def_cfa_offset 64
 697 0089 8B5C2418 		movl	24(%esp), %ebx
 698 008d E8FCFFFF 		call	chMtxUnlock@PLT
 698      FF
 699              	.LVL55:
 700              		.loc 1 374 3 view .LVU220
 701              		.loc 1 375 1 is_stmt 0 view .LVU221
 702 0092 83C42C   		addl	$44, %esp
 703              		.cfi_def_cfa_offset 20
 704 0095 5B       		popl	%ebx
 705              		.cfi_restore 3
 706              		.cfi_def_cfa_offset 16
GAS LISTING /tmp/ccRfHGUP.s 			page 14


 707 0096 5E       		popl	%esi
 708              		.cfi_restore 6
 709              		.cfi_def_cfa_offset 12
 710              	.LVL56:
 711              		.loc 1 375 1 view .LVU222
 712 0097 5F       		popl	%edi
 713              		.cfi_restore 7
 714              		.cfi_def_cfa_offset 8
 715 0098 5D       		popl	%ebp
 716              		.cfi_restore 5
 717              		.cfi_def_cfa_offset 4
 718              	.LVL57:
 719              		.loc 1 375 1 view .LVU223
 720 0099 C3       		ret
 721              	.LVL58:
 722 009a 8DB60000 		.p2align 4,,10
 722      0000
 723              		.p2align 3
 724              	.L40:
 725              		.cfi_def_cfa_offset 48
 726              		.cfi_offset 3, -20
 727              		.cfi_offset 5, -8
 728              		.cfi_offset 6, -16
 729              		.cfi_offset 7, -12
 730              		.loc 1 358 9 is_stmt 1 view .LVU224
 731              		.loc 1 358 26 is_stmt 0 view .LVU225
 732 00a0 034204   		addl	4(%edx), %eax
 733 00a3 8945FC   		movl	%eax, -4(%ebp)
 734              		.loc 1 359 9 is_stmt 1 view .LVU226
 735              		.loc 1 359 27 is_stmt 0 view .LVU227
 736 00a6 8B02     		movl	(%edx), %eax
 737              		.loc 1 359 25 view .LVU228
 738 00a8 8945F8   		movl	%eax, -8(%ebp)
 739              		.loc 1 361 7 is_stmt 1 view .LVU229
 740              		.loc 1 361 12 is_stmt 0 view .LVU230
 741 00ab 8B4304   		movl	4(%ebx), %eax
 742 00ae 8D54C308 		leal	8(%ebx,%eax,8), %edx
 743              		.loc 1 361 10 view .LVU231
 744 00b2 39D6     		cmpl	%edx, %esi
 745 00b4 75CC     		jne	.L32
 746              	.L41:
 747              		.loc 1 363 9 is_stmt 1 view .LVU232
 748              		.loc 1 363 26 is_stmt 0 view .LVU233
 749 00b6 8B55FC   		movl	-4(%ebp), %edx
 750 00b9 8D441001 		leal	1(%eax,%edx), %eax
 751 00bd 894304   		movl	%eax, 4(%ebx)
 752              		.loc 1 364 9 is_stmt 1 view .LVU234
 753              		.loc 1 364 27 is_stmt 0 view .LVU235
 754 00c0 8B45F8   		movl	-8(%ebp), %eax
 755              		.loc 1 364 25 view .LVU236
 756 00c3 8903     		movl	%eax, (%ebx)
 757 00c5 EBBB     		jmp	.L32
 758              		.cfi_endproc
 759              	.LFE219:
 760              		.size	chHeapFree, .-chHeapFree
 761              		.section	.text.chHeapStatus,"ax",@progbits
 762              		.p2align 4
GAS LISTING /tmp/ccRfHGUP.s 			page 15


 763              		.globl	chHeapStatus
 764              		.type	chHeapStatus, @function
 765              	chHeapStatus:
 766              	.LVL59:
 767              	.LFB220:
 768              		.loc 1 392 77 is_stmt 1 view -0
 769              		.cfi_startproc
 770              		.loc 1 393 3 view .LVU238
 771              		.loc 1 394 3 view .LVU239
 772              		.loc 1 396 3 view .LVU240
 773              		.loc 1 392 77 is_stmt 0 view .LVU241
 774 0000 55       		pushl	%ebp
 775              		.cfi_def_cfa_offset 8
 776              		.cfi_offset 5, -8
 777 0001 E8FCFFFF 		call	__x86.get_pc_thunk.bp
 777      FF
 778 0006 81C50200 		addl	$_GLOBAL_OFFSET_TABLE_, %ebp
 778      0000
 779 000c 57       		pushl	%edi
 780              		.cfi_def_cfa_offset 12
 781              		.cfi_offset 7, -12
 782 000d 56       		pushl	%esi
 783              		.cfi_def_cfa_offset 16
 784              		.cfi_offset 6, -16
 785 000e 53       		pushl	%ebx
 786              		.cfi_def_cfa_offset 20
 787              		.cfi_offset 3, -20
 788 000f 83EC18   		subl	$24, %esp
 789              		.cfi_def_cfa_offset 44
 790              		.loc 1 392 77 view .LVU242
 791 0012 8B74242C 		movl	44(%esp), %esi
 792              		.loc 1 397 11 view .LVU243
 793 0016 8D850000 		leal	default_heap@GOTOFF(%ebp), %eax
 793      0000
 794              		.loc 1 400 3 view .LVU244
 795 001c 89EB     		movl	%ebp, %ebx
 796              		.loc 1 397 11 view .LVU245
 797 001e 85F6     		testl	%esi, %esi
 798 0020 0F44F0   		cmove	%eax, %esi
 799              	.LVL60:
 800              		.loc 1 400 3 is_stmt 1 view .LVU246
 801 0023 8D7E14   		leal	20(%esi), %edi
 802 0026 57       		pushl	%edi
 803              		.cfi_def_cfa_offset 48
 804 0027 E8FCFFFF 		call	chMtxLock@PLT
 804      FF
 805              	.LVL61:
 806              		.loc 1 401 3 view .LVU247
 807              		.loc 1 402 3 view .LVU248
 808              		.loc 1 403 3 view .LVU249
 809              		.loc 1 404 3 view .LVU250
 810              		.loc 1 405 3 view .LVU251
 811              		.loc 1 405 26 view .LVU252
 812              		.loc 1 405 10 is_stmt 0 view .LVU253
 813 002c 8B460C   		movl	12(%esi), %eax
 814              		.loc 1 405 26 view .LVU254
 815 002f 83C410   		addl	$16, %esp
GAS LISTING /tmp/ccRfHGUP.s 			page 16


 816              		.cfi_def_cfa_offset 32
 817              		.loc 1 402 10 view .LVU255
 818 0032 31C9     		xorl	%ecx, %ecx
 819              		.loc 1 401 10 view .LVU256
 820 0034 31DB     		xorl	%ebx, %ebx
 821              		.loc 1 403 5 view .LVU257
 822 0036 31F6     		xorl	%esi, %esi
 823              	.LVL62:
 824              		.loc 1 405 26 view .LVU258
 825 0038 85C0     		testl	%eax, %eax
 826 003a 7417     		je	.L44
 827              	.LVL63:
 828 003c 8D742600 		.p2align 4,,10
 829              		.p2align 3
 830              	.L45:
 831              	.LBB8:
 832              		.loc 1 406 5 is_stmt 1 view .LVU259
 833              		.loc 1 406 12 is_stmt 0 view .LVU260
 834 0040 8B5004   		movl	4(%eax), %edx
 835              	.LVL64:
 836              		.loc 1 409 5 is_stmt 1 view .LVU261
 837              	.LBE8:
 838              		.loc 1 405 10 is_stmt 0 view .LVU262
 839 0043 8B00     		movl	(%eax), %eax
 840              	.LBB9:
 841              		.loc 1 409 6 view .LVU263
 842 0045 83C601   		addl	$1, %esi
 843              	.LVL65:
 844              		.loc 1 410 5 is_stmt 1 view .LVU264
 845              		.loc 1 410 12 is_stmt 0 view .LVU265
 846 0048 01D3     		addl	%edx, %ebx
 847              	.LVL66:
 848              		.loc 1 411 5 is_stmt 1 view .LVU266
 849 004a 39D1     		cmpl	%edx, %ecx
 850 004c 0F42CA   		cmovb	%edx, %ecx
 851              	.LVL67:
 852              		.loc 1 411 5 is_stmt 0 view .LVU267
 853              	.LBE9:
 854              		.loc 1 405 26 is_stmt 1 view .LVU268
 855 004f 85C0     		testl	%eax, %eax
 856 0051 75ED     		jne	.L45
 857              	.LVL68:
 858              	.L44:
 859              		.loc 1 419 3 view .LVU269
 860              		.loc 1 419 6 is_stmt 0 view .LVU270
 861 0053 8B542424 		movl	36(%esp), %edx
 862 0057 85D2     		testl	%edx, %edx
 863 0059 7409     		je	.L46
 864              		.loc 1 420 5 is_stmt 1 view .LVU271
 865              		.loc 1 420 22 is_stmt 0 view .LVU272
 866 005b 8B442424 		movl	36(%esp), %eax
 867 005f C1E303   		sall	$3, %ebx
 868 0062 8918     		movl	%ebx, (%eax)
 869              	.L46:
 870              		.loc 1 424 3 is_stmt 1 view .LVU273
 871              		.loc 1 424 6 is_stmt 0 view .LVU274
 872 0064 8B442428 		movl	40(%esp), %eax
GAS LISTING /tmp/ccRfHGUP.s 			page 17


 873 0068 85C0     		testl	%eax, %eax
 874 006a 7409     		je	.L47
 875              		.loc 1 425 5 is_stmt 1 view .LVU275
 876              		.loc 1 425 24 is_stmt 0 view .LVU276
 877 006c 8B442428 		movl	40(%esp), %eax
 878 0070 C1E103   		sall	$3, %ecx
 879 0073 8908     		movl	%ecx, (%eax)
 880              	.L47:
 881              		.loc 1 427 3 is_stmt 1 view .LVU277
 882 0075 83EC0C   		subl	$12, %esp
 883              		.cfi_def_cfa_offset 44
 884 0078 89EB     		movl	%ebp, %ebx
 885 007a 57       		pushl	%edi
 886              		.cfi_def_cfa_offset 48
 887 007b E8FCFFFF 		call	chMtxUnlock@PLT
 887      FF
 888              	.LVL69:
 889              		.loc 1 429 3 view .LVU278
 890              		.loc 1 430 1 is_stmt 0 view .LVU279
 891 0080 83C41C   		addl	$28, %esp
 892              		.cfi_def_cfa_offset 20
 893 0083 89F0     		movl	%esi, %eax
 894 0085 5B       		popl	%ebx
 895              		.cfi_restore 3
 896              		.cfi_def_cfa_offset 16
 897 0086 5E       		popl	%esi
 898              		.cfi_restore 6
 899              		.cfi_def_cfa_offset 12
 900 0087 5F       		popl	%edi
 901              		.cfi_restore 7
 902              		.cfi_def_cfa_offset 8
 903              	.LVL70:
 904              		.loc 1 430 1 view .LVU280
 905 0088 5D       		popl	%ebp
 906              		.cfi_restore 5
 907              		.cfi_def_cfa_offset 4
 908              	.LVL71:
 909              		.loc 1 430 1 view .LVU281
 910 0089 C3       		ret
 911              		.cfi_endproc
 912              	.LFE220:
 913              		.size	chHeapStatus, .-chHeapStatus
 914              		.section	.text.chHeapIntegrityCheck,"ax",@progbits
 915              		.p2align 4
 916              		.globl	chHeapIntegrityCheck
 917              		.type	chHeapIntegrityCheck, @function
 918              	chHeapIntegrityCheck:
 919              	.LVL72:
 920              	.LFB221:
 921              		.loc 1 444 49 is_stmt 1 view -0
 922              		.cfi_startproc
 923              		.loc 1 445 3 view .LVU283
 924              		.loc 1 446 3 view .LVU284
 925              		.loc 1 449 3 view .LVU285
 926              		.loc 1 444 49 is_stmt 0 view .LVU286
 927 0000 55       		pushl	%ebp
 928              		.cfi_def_cfa_offset 8
GAS LISTING /tmp/ccRfHGUP.s 			page 18


 929              		.cfi_offset 5, -8
 930 0001 57       		pushl	%edi
 931              		.cfi_def_cfa_offset 12
 932              		.cfi_offset 7, -12
 933 0002 56       		pushl	%esi
 934              		.cfi_def_cfa_offset 16
 935              		.cfi_offset 6, -16
 936 0003 53       		pushl	%ebx
 937              		.cfi_def_cfa_offset 20
 938              		.cfi_offset 3, -20
 939 0004 E8FCFFFF 		call	__x86.get_pc_thunk.bx
 939      FF
 940 0009 81C30200 		addl	$_GLOBAL_OFFSET_TABLE_, %ebx
 940      0000
 941 000f 83EC0C   		subl	$12, %esp
 942              		.cfi_def_cfa_offset 32
 943              		.loc 1 444 49 view .LVU287
 944 0012 8B742420 		movl	32(%esp), %esi
 945              		.loc 1 450 11 view .LVU288
 946 0016 85F6     		testl	%esi, %esi
 947 0018 8D830000 		leal	default_heap@GOTOFF(%ebx), %eax
 947      0000
 948 001e 0F44F0   		cmove	%eax, %esi
 949              	.LVL73:
 950              		.loc 1 454 3 is_stmt 1 view .LVU289
 951              		.loc 1 454 12 is_stmt 0 view .LVU290
 952 0021 8B06     		movl	(%esi), %eax
 953              		.loc 1 454 6 view .LVU291
 954 0023 85C0     		testl	%eax, %eax
 955 0025 7410     		je	.L61
 956              		.loc 1 455 5 is_stmt 1 view .LVU292
 957              		.loc 1 455 10 is_stmt 0 view .LVU293
 958 0027 83EC0C   		subl	$12, %esp
 959              		.cfi_def_cfa_offset 44
 960 002a 50       		pushl	%eax
 961              		.cfi_def_cfa_offset 48
 962 002b E8FCFFFF 		call	chMemIsAddressExecutableX@PLT
 962      FF
 963              	.LVL74:
 964              		.loc 1 455 8 view .LVU294
 965 0030 83C410   		addl	$16, %esp
 966              		.cfi_def_cfa_offset 32
 967 0033 84C0     		testb	%al, %al
 968 0035 7479     		je	.L75
 969              	.L61:
 970              		.loc 1 461 3 is_stmt 1 view .LVU295
 971 0037 83EC0C   		subl	$12, %esp
 972              		.cfi_def_cfa_offset 44
 973 003a 8D7E14   		leal	20(%esi), %edi
 974 003d 57       		pushl	%edi
 975              		.cfi_def_cfa_offset 48
 976 003e E8FCFFFF 		call	chMtxLock@PLT
 976      FF
 977              	.LVL75:
 978              		.loc 1 463 3 view .LVU296
 979              		.loc 1 464 3 view .LVU297
 980              		.loc 1 464 6 is_stmt 0 view .LVU298
GAS LISTING /tmp/ccRfHGUP.s 			page 19


 981 0043 8D460C   		leal	12(%esi), %eax
 982              	.LVL76:
 983              		.loc 1 465 3 is_stmt 1 view .LVU299
 984              		.loc 1 465 9 is_stmt 0 view .LVU300
 985 0046 83C410   		addl	$16, %esp
 986              		.cfi_def_cfa_offset 32
 987              		.loc 1 463 10 view .LVU301
 988 0049 31D2     		xorl	%edx, %edx
 989              	.LVL77:
 990              		.loc 1 465 33 is_stmt 1 view .LVU302
 991              		.loc 1 465 14 is_stmt 0 view .LVU303
 992 004b 8B00     		movl	(%eax), %eax
 993              	.LVL78:
 994              		.loc 1 465 33 view .LVU304
 995 004d 85C0     		testl	%eax, %eax
 996 004f 7457     		je	.L76
 997              	.L64:
 998              		.loc 1 468 5 is_stmt 1 view .LVU305
 999              		.loc 1 468 8 is_stmt 0 view .LVU306
 1000 0051 39C2     		cmpl	%eax, %edx
 1001 0053 7327     		jnb	.L67
 1002              		.loc 1 474 5 is_stmt 1 view .LVU307
 1003              		.loc 1 474 8 is_stmt 0 view .LVU308
 1004 0055 A807     		testb	$7, %al
 1005 0057 7523     		jne	.L67
 1006              		.loc 1 480 5 is_stmt 1 view .LVU309
 1007 0059 8B5604   		movl	4(%esi), %edx
 1008              	.LVL79:
 1009              	.LBB12:
 1010              	.LBI12:
 1011              		.file 2 "../../../os/oslib/include/chmemchecks.h"
 1012              		.loc 2 121 20 view .LVU310
 1013              	.LBB13:
 1014              		.loc 2 124 3 view .LVU311
 1015              		.loc 2 125 3 view .LVU312
 1016              		.loc 2 126 3 view .LVU313
 1017              		.loc 2 127 3 view .LVU314
 1018              	.LBE13:
 1019              	.LBE12:
 1020              		.loc 1 482 30 is_stmt 0 view .LVU315
 1021 005c 8B4804   		movl	4(%eax), %ecx
 1022              	.LBB16:
 1023              	.LBB14:
 1024              		.loc 2 125 50 view .LVU316
 1025 005f 8B6E08   		movl	8(%esi), %ebp
 1026              		.loc 2 127 18 view .LVU317
 1027 0062 8D4CC807 		leal	7(%eax,%ecx,8), %ecx
 1028              	.LVL80:
 1029              		.loc 2 129 3 is_stmt 1 view .LVU318
 1030              		.loc 2 129 3 view .LVU319
 1031              		.loc 2 129 3 view .LVU320
 1032              		.loc 2 131 3 view .LVU321
 1033              		.loc 2 125 18 is_stmt 0 view .LVU322
 1034 0066 8D6C2AFF 		leal	-1(%edx,%ebp), %ebp
 1035              	.LVL81:
 1036              		.loc 2 131 53 view .LVU323
 1037 006a 39E9     		cmpl	%ebp, %ecx
GAS LISTING /tmp/ccRfHGUP.s 			page 20


 1038 006c 770E     		ja	.L67
 1039              		.loc 2 131 23 view .LVU324
 1040 006e 39C8     		cmpl	%ecx, %eax
 1041 0070 0F96C1   		setbe	%cl
 1042              	.LVL82:
 1043              		.loc 2 131 40 view .LVU325
 1044 0073 39D0     		cmpl	%edx, %eax
 1045 0075 0F93C2   		setnb	%dl
 1046              	.LVL83:
 1047              		.loc 2 131 53 view .LVU326
 1048 0078 84D1     		testb	%dl, %cl
 1049 007a 7524     		jne	.L77
 1050              	.LVL84:
 1051              	.L67:
 1052              		.loc 2 131 53 view .LVU327
 1053              	.LBE14:
 1054              	.LBE16:
 1055              		.loc 1 469 14 view .LVU328
 1056 007c BE010000 		movl	$1, %esi
 1056      00
 1057              	.LVL85:
 1058              	.L63:
 1059              		.loc 1 491 3 is_stmt 1 view .LVU329
 1060 0081 83EC0C   		subl	$12, %esp
 1061              		.cfi_def_cfa_offset 44
 1062 0084 57       		pushl	%edi
 1063              		.cfi_def_cfa_offset 48
 1064 0085 E8FCFFFF 		call	chMtxUnlock@PLT
 1064      FF
 1065              	.LVL86:
 1066              		.loc 1 493 3 view .LVU330
 1067              		.loc 1 493 10 is_stmt 0 view .LVU331
 1068 008a 83C410   		addl	$16, %esp
 1069              		.cfi_def_cfa_offset 32
 1070              		.loc 1 494 1 view .LVU332
 1071 008d 89F0     		movl	%esi, %eax
 1072 008f 83C40C   		addl	$12, %esp
 1073              		.cfi_remember_state
 1074              		.cfi_def_cfa_offset 20
 1075 0092 5B       		popl	%ebx
 1076              		.cfi_restore 3
 1077              		.cfi_def_cfa_offset 16
 1078 0093 5E       		popl	%esi
 1079              		.cfi_restore 6
 1080              		.cfi_def_cfa_offset 12
 1081              	.LVL87:
 1082              		.loc 1 494 1 view .LVU333
 1083 0094 5F       		popl	%edi
 1084              		.cfi_restore 7
 1085              		.cfi_def_cfa_offset 8
 1086              	.LVL88:
 1087              		.loc 1 494 1 view .LVU334
 1088 0095 5D       		popl	%ebp
 1089              		.cfi_restore 5
 1090              		.cfi_def_cfa_offset 4
 1091 0096 C3       		ret
 1092              	.LVL89:
GAS LISTING /tmp/ccRfHGUP.s 			page 21


 1093 0097 8DB42600 		.p2align 4,,10
 1093      00000066 
 1093      90
 1094              		.p2align 3
 1095              	.L77:
 1096              		.cfi_restore_state
 1097              	.LBB17:
 1098              	.LBB15:
 1099              		.loc 1 494 1 view .LVU335
 1100 00a0 89C2     		movl	%eax, %edx
 1101              	.LVL90:
 1102              		.loc 1 494 1 view .LVU336
 1103              	.LBE15:
 1104              	.LBE17:
 1105              		.loc 1 465 33 is_stmt 1 view .LVU337
 1106              		.loc 1 465 14 is_stmt 0 view .LVU338
 1107 00a2 8B00     		movl	(%eax), %eax
 1108              	.LVL91:
 1109              		.loc 1 465 33 view .LVU339
 1110 00a4 85C0     		testl	%eax, %eax
 1111 00a6 75A9     		jne	.L64
 1112              	.LVL92:
 1113              	.L76:
 1114              		.loc 1 445 8 view .LVU340
 1115 00a8 31F6     		xorl	%esi, %esi
 1116              	.LVL93:
 1117              		.loc 1 445 8 view .LVU341
 1118 00aa EBD5     		jmp	.L63
 1119              	.LVL94:
 1120 00ac 8D742600 		.p2align 4,,10
 1121              		.p2align 3
 1122              	.L75:
 1123              		.loc 1 494 1 view .LVU342
 1124 00b0 83C40C   		addl	$12, %esp
 1125              		.cfi_def_cfa_offset 20
 1126              		.loc 1 456 14 view .LVU343
 1127 00b3 BE010000 		movl	$1, %esi
 1127      00
 1128              	.LVL95:
 1129              		.loc 1 494 1 view .LVU344
 1130 00b8 5B       		popl	%ebx
 1131              		.cfi_restore 3
 1132              		.cfi_def_cfa_offset 16
 1133              	.LVL96:
 1134              		.loc 1 494 1 view .LVU345
 1135 00b9 89F0     		movl	%esi, %eax
 1136 00bb 5E       		popl	%esi
 1137              		.cfi_restore 6
 1138              		.cfi_def_cfa_offset 12
 1139 00bc 5F       		popl	%edi
 1140              		.cfi_restore 7
 1141              		.cfi_def_cfa_offset 8
 1142 00bd 5D       		popl	%ebp
 1143              		.cfi_restore 5
 1144              		.cfi_def_cfa_offset 4
 1145 00be C3       		ret
 1146              		.cfi_endproc
GAS LISTING /tmp/ccRfHGUP.s 			page 22


 1147              	.LFE221:
 1148              		.size	chHeapIntegrityCheck, .-chHeapIntegrityCheck
 1149              		.section	.bss.default_heap,"aw",@nobits
 1150              		.align 32
 1151              		.type	default_heap, @object
 1152              		.size	default_heap, 36
 1153              	default_heap:
 1154 0000 00000000 		.zero	36
 1154      00000000 
 1154      00000000 
 1154      00000000 
 1154      00000000 
 1155              		.section	.text.__x86.get_pc_thunk.bx,"axG",@progbits,__x86.get_pc_thunk.bx,comdat
 1156              		.globl	__x86.get_pc_thunk.bx
 1157              		.hidden	__x86.get_pc_thunk.bx
 1158              		.type	__x86.get_pc_thunk.bx, @function
 1159              	__x86.get_pc_thunk.bx:
 1160              	.LFB223:
 1161              		.cfi_startproc
 1162 0000 8B1C24   		movl	(%esp), %ebx
 1163 0003 C3       		ret
 1164              		.cfi_endproc
 1165              	.LFE223:
 1166              		.section	.text.__x86.get_pc_thunk.bp,"axG",@progbits,__x86.get_pc_thunk.bp,comdat
 1167              		.globl	__x86.get_pc_thunk.bp
 1168              		.hidden	__x86.get_pc_thunk.bp
 1169              		.type	__x86.get_pc_thunk.bp, @function
 1170              	__x86.get_pc_thunk.bp:
 1171              	.LFB224:
 1172              		.cfi_startproc
 1173 0000 8B2C24   		movl	(%esp), %ebp
 1174 0003 C3       		ret
 1175              		.cfi_endproc
 1176              	.LFE224:
 1177              		.text
 1178              	.Letext0:
 1179              		.file 3 "/usr/lib/gcc/x86_64-linux-gnu/11/include/stddef.h"
 1180              		.file 4 "/usr/include/bits/types.h"
 1181              		.file 5 "/usr/include/bits/stdint-intn.h"
 1182              		.file 6 "/usr/include/bits/stdint-uintn.h"
 1183              		.file 7 "../../../os/common/ports/SIMIA32/compilers/GCC/chtypes.h"
 1184              		.file 8 "../../../os/rt/include/chearly.h"
 1185              		.file 9 "../../../os/rt/include/chobjects.h"
 1186              		.file 10 "../../../os/rt/include/chrfcu.h"
 1187              		.file 11 "../../../os/rt/include/chdebug.h"
 1188              		.file 12 "../../../os/rt/include/chtime.h"
 1189              		.file 13 "../../../os/rt/include/chlists.h"
 1190              		.file 14 "../../../os/common/ports/SIMIA32/chcore.h"
 1191              		.file 15 "../../../os/rt/include/chsem.h"
 1192              		.file 16 "../../../os/rt/include/chmtx.h"
 1193              		.file 17 "../../../os/oslib/include/chmemcore.h"
 1194              		.file 18 "../../../os/oslib/include/chmemheaps.h"
 5430 0052 2F686F6D 		.section	.note.GNU-stack,"",@progbits
 5430      652F616C 
 5430      65782F43 
 5430      68696269 
 5430      4F532F64 
GAS LISTING /tmp/ccRfHGUP.s 			page 103

