GAS LISTING /tmp/ccx1Kzwe.s 			page 1


   1              		.file	"console.c"
   2              		.text
   3              	.Ltext0:
   4              		.file 0 "/home/alex/ChibiOS/demos/various/LAB3_VARIANT3" "../../../os/hal/ports/simulator/console.
   5              		.section	.text._ctl,"ax",@progbits
   6              		.p2align 4
   7              		.type	_ctl, @function
   8              	_ctl:
   9              	.LVL0:
  10              	.LFB307:
  11              		.file 1 "../../../os/hal/ports/simulator/console.c"
  12              		.loc 1 116 64 view -0
  13              		.cfi_startproc
  14              		.loc 1 118 3 view .LVU1
  15              		.loc 1 119 3 view .LVU2
  16              		.loc 1 120 3 view .LVU3
  17              		.loc 1 122 3 view .LVU4
  18              		.loc 1 123 1 is_stmt 0 view .LVU5
  19 0000 31C0     		xorl	%eax, %eax
  20 0002 C3       		ret
  21              		.cfi_endproc
  22              	.LFE307:
  23              		.size	_ctl, .-_ctl
  24              		.section	.text._read,"ax",@progbits
  25              		.p2align 4
  26              		.type	_read, @function
  27              	_read:
  28              	.LVL1:
  29              	.LFB300:
  30              		.loc 1 56 54 is_stmt 1 view -0
  31              		.cfi_startproc
  32              		.loc 1 58 3 view .LVU7
  33              		.loc 1 60 3 view .LVU8
  34              		.loc 1 56 54 is_stmt 0 view .LVU9
  35 0000 53       		pushl	%ebx
  36              		.cfi_def_cfa_offset 8
  37              		.cfi_offset 3, -8
  38 0001 E8FCFFFF 		call	__x86.get_pc_thunk.bx
  38      FF
  39 0006 81C30200 		addl	$_GLOBAL_OFFSET_TABLE_, %ebx
  39      0000
  40 000c 83EC08   		subl	$8, %esp
  41              		.cfi_def_cfa_offset 16
  42              	.LVL2:
  43              	.LBB6:
  44              	.LBI6:
  45              		.file 2 "/usr/include/bits/stdio2.h"
  46              		.loc 2 288 1 is_stmt 1 view .LVU10
  47              	.LBB7:
  48              		.loc 2 291 3 view .LVU11
  49              		.loc 2 292 3 view .LVU12
  50              		.loc 2 293 5 view .LVU13
  51              	.LBE7:
  52              	.LBE6:
  53              		.loc 1 60 10 is_stmt 0 view .LVU14
  54 000f 8B830000 		movl	stdin@GOT(%ebx), %eax
  54      0000
GAS LISTING /tmp/ccx1Kzwe.s 			page 2


  55              	.LVL3:
  56              	.LBB9:
  57              	.LBB8:
  58              		.loc 2 293 12 view .LVU15
  59 0015 FF30     		pushl	(%eax)
  60              		.cfi_def_cfa_offset 20
  61 0017 FF74241C 		pushl	28(%esp)
  62              		.cfi_def_cfa_offset 24
  63 001b 6A01     		pushl	$1
  64              		.cfi_def_cfa_offset 28
  65 001d FF742420 		pushl	32(%esp)
  66              		.cfi_def_cfa_offset 32
  67 0021 E8FCFFFF 		call	fread@PLT
  67      FF
  68              	.LVL4:
  69              		.loc 2 293 12 view .LVU16
  70              	.LBE8:
  71              	.LBE9:
  72              		.loc 1 61 1 view .LVU17
  73 0026 83C418   		addl	$24, %esp
  74              		.cfi_def_cfa_offset 8
  75 0029 5B       		popl	%ebx
  76              		.cfi_restore 3
  77              		.cfi_def_cfa_offset 4
  78 002a C3       		ret
  79              		.cfi_endproc
  80              	.LFE300:
  81              		.size	_read, .-_read
  82              		.section	.text._readt,"ax",@progbits
  83              		.p2align 4
  84              		.type	_readt, @function
  85              	_readt:
  86              	.LVL5:
  87              	.LFB306:
  88              		.loc 1 108 75 is_stmt 1 view -0
  89              		.cfi_startproc
  90              		.loc 1 110 3 view .LVU19
  91              		.loc 1 111 3 view .LVU20
  92              		.loc 1 113 3 view .LVU21
  93              		.loc 1 108 75 is_stmt 0 view .LVU22
  94 0000 53       		pushl	%ebx
  95              		.cfi_def_cfa_offset 8
  96              		.cfi_offset 3, -8
  97 0001 E8FCFFFF 		call	__x86.get_pc_thunk.bx
  97      FF
  98 0006 81C30200 		addl	$_GLOBAL_OFFSET_TABLE_, %ebx
  98      0000
  99 000c 83EC08   		subl	$8, %esp
 100              		.cfi_def_cfa_offset 16
 101              	.LVL6:
 102              	.LBB10:
 103              	.LBI10:
 104              		.loc 2 288 1 is_stmt 1 view .LVU23
 105              	.LBB11:
 106              		.loc 2 291 3 view .LVU24
 107              		.loc 2 292 3 view .LVU25
 108              		.loc 2 293 5 view .LVU26
GAS LISTING /tmp/ccx1Kzwe.s 			page 3


 109              	.LBE11:
 110              	.LBE10:
 111              		.loc 1 113 10 is_stmt 0 view .LVU27
 112 000f 8B830000 		movl	stdin@GOT(%ebx), %eax
 112      0000
 113              	.LVL7:
 114              	.LBB13:
 115              	.LBB12:
 116              		.loc 2 293 12 view .LVU28
 117 0015 FF30     		pushl	(%eax)
 118              		.cfi_def_cfa_offset 20
 119 0017 FF74241C 		pushl	28(%esp)
 120              		.cfi_def_cfa_offset 24
 121 001b 6A01     		pushl	$1
 122              		.cfi_def_cfa_offset 28
 123 001d FF742420 		pushl	32(%esp)
 124              		.cfi_def_cfa_offset 32
 125 0021 E8FCFFFF 		call	fread@PLT
 125      FF
 126              	.LVL8:
 127              		.loc 2 293 12 view .LVU29
 128              	.LBE12:
 129              	.LBE13:
 130              		.loc 1 114 1 view .LVU30
 131 0026 83C418   		addl	$24, %esp
 132              		.cfi_def_cfa_offset 8
 133 0029 5B       		popl	%ebx
 134              		.cfi_restore 3
 135              		.cfi_def_cfa_offset 4
 136 002a C3       		ret
 137              		.cfi_endproc
 138              	.LFE306:
 139              		.size	_readt, .-_readt
 140              		.section	.text._writet,"ax",@progbits
 141              		.p2align 4
 142              		.type	_writet, @function
 143              	_writet:
 144              	.LVL9:
 145              	.LFB305:
 146              		.loc 1 97 82 is_stmt 1 view -0
 147              		.cfi_startproc
 148              		.loc 1 98 3 view .LVU32
 149              		.loc 1 100 3 view .LVU33
 150              		.loc 1 101 3 view .LVU34
 151              		.loc 1 103 3 view .LVU35
 152              		.loc 1 97 82 is_stmt 0 view .LVU36
 153 0000 57       		pushl	%edi
 154              		.cfi_def_cfa_offset 8
 155              		.cfi_offset 7, -8
 156 0001 56       		pushl	%esi
 157              		.cfi_def_cfa_offset 12
 158              		.cfi_offset 6, -12
 159 0002 53       		pushl	%ebx
 160              		.cfi_def_cfa_offset 16
 161              		.cfi_offset 3, -16
 162 0003 E8FCFFFF 		call	__x86.get_pc_thunk.bx
 162      FF
GAS LISTING /tmp/ccx1Kzwe.s 			page 4


 163 0008 81C30200 		addl	$_GLOBAL_OFFSET_TABLE_, %ebx
 163      0000
 164              		.loc 1 103 9 view .LVU37
 165 000e 8BBB0000 		movl	stdout@GOT(%ebx), %edi
 165      0000
 166 0014 FF37     		pushl	(%edi)
 167              		.cfi_def_cfa_offset 20
 168 0016 FF74241C 		pushl	28(%esp)
 169              		.cfi_def_cfa_offset 24
 170 001a 6A01     		pushl	$1
 171              		.cfi_def_cfa_offset 28
 172 001c FF742420 		pushl	32(%esp)
 173              		.cfi_def_cfa_offset 32
 174 0020 E8FCFFFF 		call	fwrite@PLT
 174      FF
 175              	.LVL10:
 176 0025 89C6     		movl	%eax, %esi
 177              	.LVL11:
 178              		.loc 1 104 3 is_stmt 1 view .LVU38
 179 0027 58       		popl	%eax
 180              		.cfi_def_cfa_offset 28
 181              	.LVL12:
 182              		.loc 1 104 3 is_stmt 0 view .LVU39
 183 0028 FF37     		pushl	(%edi)
 184              		.cfi_def_cfa_offset 32
 185 002a E8FCFFFF 		call	fflush@PLT
 185      FF
 186              	.LVL13:
 187              		.loc 1 105 3 is_stmt 1 view .LVU40
 188              		.loc 1 105 10 is_stmt 0 view .LVU41
 189 002f 83C410   		addl	$16, %esp
 190              		.cfi_def_cfa_offset 16
 191              		.loc 1 106 1 view .LVU42
 192 0032 89F0     		movl	%esi, %eax
 193 0034 5B       		popl	%ebx
 194              		.cfi_restore 3
 195              		.cfi_def_cfa_offset 12
 196 0035 5E       		popl	%esi
 197              		.cfi_restore 6
 198              		.cfi_def_cfa_offset 8
 199              	.LVL14:
 200              		.loc 1 106 1 view .LVU43
 201 0036 5F       		popl	%edi
 202              		.cfi_restore 7
 203              		.cfi_def_cfa_offset 4
 204 0037 C3       		ret
 205              		.cfi_endproc
 206              	.LFE305:
 207              		.size	_writet, .-_writet
 208              		.section	.text._write,"ax",@progbits
 209              		.p2align 4
 210              		.type	_write, @function
 211              	_write:
 212              	.LVL15:
 213              	.LFB299:
 214              		.loc 1 46 61 is_stmt 1 view -0
 215              		.cfi_startproc
GAS LISTING /tmp/ccx1Kzwe.s 			page 5


 216              		.loc 1 47 3 view .LVU45
 217              		.loc 1 49 3 view .LVU46
 218              		.loc 1 51 3 view .LVU47
 219              		.loc 1 46 61 is_stmt 0 view .LVU48
 220 0000 57       		pushl	%edi
 221              		.cfi_def_cfa_offset 8
 222              		.cfi_offset 7, -8
 223 0001 56       		pushl	%esi
 224              		.cfi_def_cfa_offset 12
 225              		.cfi_offset 6, -12
 226 0002 53       		pushl	%ebx
 227              		.cfi_def_cfa_offset 16
 228              		.cfi_offset 3, -16
 229 0003 E8FCFFFF 		call	__x86.get_pc_thunk.bx
 229      FF
 230 0008 81C30200 		addl	$_GLOBAL_OFFSET_TABLE_, %ebx
 230      0000
 231              		.loc 1 51 9 view .LVU49
 232 000e 8BBB0000 		movl	stdout@GOT(%ebx), %edi
 232      0000
 233 0014 FF37     		pushl	(%edi)
 234              		.cfi_def_cfa_offset 20
 235 0016 FF74241C 		pushl	28(%esp)
 236              		.cfi_def_cfa_offset 24
 237 001a 6A01     		pushl	$1
 238              		.cfi_def_cfa_offset 28
 239 001c FF742420 		pushl	32(%esp)
 240              		.cfi_def_cfa_offset 32
 241 0020 E8FCFFFF 		call	fwrite@PLT
 241      FF
 242              	.LVL16:
 243 0025 89C6     		movl	%eax, %esi
 244              	.LVL17:
 245              		.loc 1 52 3 is_stmt 1 view .LVU50
 246 0027 58       		popl	%eax
 247              		.cfi_def_cfa_offset 28
 248              	.LVL18:
 249              		.loc 1 52 3 is_stmt 0 view .LVU51
 250 0028 FF37     		pushl	(%edi)
 251              		.cfi_def_cfa_offset 32
 252 002a E8FCFFFF 		call	fflush@PLT
 252      FF
 253              	.LVL19:
 254              		.loc 1 53 3 is_stmt 1 view .LVU52
 255              		.loc 1 53 10 is_stmt 0 view .LVU53
 256 002f 83C410   		addl	$16, %esp
 257              		.cfi_def_cfa_offset 16
 258              		.loc 1 54 1 view .LVU54
 259 0032 89F0     		movl	%esi, %eax
 260 0034 5B       		popl	%ebx
 261              		.cfi_restore 3
 262              		.cfi_def_cfa_offset 12
 263 0035 5E       		popl	%esi
 264              		.cfi_restore 6
 265              		.cfi_def_cfa_offset 8
 266              	.LVL20:
 267              		.loc 1 54 1 view .LVU55
GAS LISTING /tmp/ccx1Kzwe.s 			page 6


 268 0036 5F       		popl	%edi
 269              		.cfi_restore 7
 270              		.cfi_def_cfa_offset 4
 271 0037 C3       		ret
 272              		.cfi_endproc
 273              	.LFE299:
 274              		.size	_write, .-_write
 275              		.section	.text._gett,"ax",@progbits
 276              		.p2align 4
 277              		.type	_gett, @function
 278              	_gett:
 279              	.LVL21:
 280              	.LFB304:
 281              		.loc 1 89 50 is_stmt 1 view -0
 282              		.cfi_startproc
 283              		.loc 1 91 3 view .LVU57
 284              		.loc 1 92 3 view .LVU58
 285              		.loc 1 94 3 view .LVU59
 286              		.loc 1 89 50 is_stmt 0 view .LVU60
 287 0000 53       		pushl	%ebx
 288              		.cfi_def_cfa_offset 8
 289              		.cfi_offset 3, -8
 290 0001 E8FCFFFF 		call	__x86.get_pc_thunk.bx
 290      FF
 291 0006 81C30200 		addl	$_GLOBAL_OFFSET_TABLE_, %ebx
 291      0000
 292 000c 83EC14   		subl	$20, %esp
 293              		.cfi_def_cfa_offset 28
 294              		.loc 1 94 10 view .LVU61
 295 000f 8B830000 		movl	stdin@GOT(%ebx), %eax
 295      0000
 296 0015 FF30     		pushl	(%eax)
 297              		.cfi_def_cfa_offset 32
 298 0017 E8FCFFFF 		call	fgetc@PLT
 298      FF
 299              	.LVL22:
 300              		.loc 1 95 1 view .LVU62
 301 001c 83C418   		addl	$24, %esp
 302              		.cfi_def_cfa_offset 8
 303 001f 5B       		popl	%ebx
 304              		.cfi_restore 3
 305              		.cfi_def_cfa_offset 4
 306 0020 C3       		ret
 307              		.cfi_endproc
 308              	.LFE304:
 309              		.size	_gett, .-_gett
 310              		.section	.text._get,"ax",@progbits
 311              		.p2align 4
 312              		.type	_get, @function
 313              	_get:
 314              	.LVL23:
 315              	.LFB302:
 316              		.loc 1 72 29 is_stmt 1 view -0
 317              		.cfi_startproc
 318              		.loc 1 74 3 view .LVU64
 319              		.loc 1 76 3 view .LVU65
 320              		.loc 1 72 29 is_stmt 0 view .LVU66
GAS LISTING /tmp/ccx1Kzwe.s 			page 7


 321 0000 53       		pushl	%ebx
 322              		.cfi_def_cfa_offset 8
 323              		.cfi_offset 3, -8
 324 0001 E8FCFFFF 		call	__x86.get_pc_thunk.bx
 324      FF
 325 0006 81C30200 		addl	$_GLOBAL_OFFSET_TABLE_, %ebx
 325      0000
 326 000c 83EC14   		subl	$20, %esp
 327              		.cfi_def_cfa_offset 28
 328              		.loc 1 76 10 view .LVU67
 329 000f 8B830000 		movl	stdin@GOT(%ebx), %eax
 329      0000
 330 0015 FF30     		pushl	(%eax)
 331              		.cfi_def_cfa_offset 32
 332 0017 E8FCFFFF 		call	fgetc@PLT
 332      FF
 333              	.LVL24:
 334              		.loc 1 77 1 view .LVU68
 335 001c 83C418   		addl	$24, %esp
 336              		.cfi_def_cfa_offset 8
 337 001f 5B       		popl	%ebx
 338              		.cfi_restore 3
 339              		.cfi_def_cfa_offset 4
 340 0020 C3       		ret
 341              		.cfi_endproc
 342              	.LFE302:
 343              		.size	_get, .-_get
 344              		.section	.text._putt,"ax",@progbits
 345              		.p2align 4
 346              		.type	_putt, @function
 347              	_putt:
 348              	.LVL25:
 349              	.LFB303:
 350              		.loc 1 79 61 is_stmt 1 view -0
 351              		.cfi_startproc
 352              		.loc 1 81 3 view .LVU70
 353              		.loc 1 82 3 view .LVU71
 354              		.loc 1 84 3 view .LVU72
 355              		.loc 1 79 61 is_stmt 0 view .LVU73
 356 0000 56       		pushl	%esi
 357              		.cfi_def_cfa_offset 8
 358              		.cfi_offset 6, -8
 359 0001 53       		pushl	%ebx
 360              		.cfi_def_cfa_offset 12
 361              		.cfi_offset 3, -12
 362 0002 E8FCFFFF 		call	__x86.get_pc_thunk.bx
 362      FF
 363 0007 81C30200 		addl	$_GLOBAL_OFFSET_TABLE_, %ebx
 363      0000
 364 000d 83EC0C   		subl	$12, %esp
 365              		.cfi_def_cfa_offset 24
 366              		.loc 1 84 3 view .LVU74
 367 0010 8BB30000 		movl	stdout@GOT(%ebx), %esi
 367      0000
 368 0016 FF36     		pushl	(%esi)
 369              		.cfi_def_cfa_offset 28
 370 0018 0FB64424 		movzbl	32(%esp), %eax
GAS LISTING /tmp/ccx1Kzwe.s 			page 8


 370      20
 371 001d 50       		pushl	%eax
 372              		.cfi_def_cfa_offset 32
 373 001e E8FCFFFF 		call	fputc@PLT
 373      FF
 374              	.LVL26:
 375              		.loc 1 85 3 is_stmt 1 view .LVU75
 376 0023 58       		popl	%eax
 377              		.cfi_def_cfa_offset 28
 378 0024 FF36     		pushl	(%esi)
 379              		.cfi_def_cfa_offset 32
 380 0026 E8FCFFFF 		call	fflush@PLT
 380      FF
 381              	.LVL27:
 382              		.loc 1 86 3 view .LVU76
 383              		.loc 1 87 1 is_stmt 0 view .LVU77
 384 002b 83C414   		addl	$20, %esp
 385              		.cfi_def_cfa_offset 12
 386 002e 31C0     		xorl	%eax, %eax
 387 0030 5B       		popl	%ebx
 388              		.cfi_restore 3
 389              		.cfi_def_cfa_offset 8
 390 0031 5E       		popl	%esi
 391              		.cfi_restore 6
 392              		.cfi_def_cfa_offset 4
 393 0032 C3       		ret
 394              		.cfi_endproc
 395              	.LFE303:
 396              		.size	_putt, .-_putt
 397              		.section	.text._put,"ax",@progbits
 398              		.p2align 4
 399              		.type	_put, @function
 400              	_put:
 401              	.LVL28:
 402              	.LFB301:
 403              		.loc 1 63 40 is_stmt 1 view -0
 404              		.cfi_startproc
 405              		.loc 1 65 3 view .LVU79
 406              		.loc 1 67 3 view .LVU80
 407              		.loc 1 63 40 is_stmt 0 view .LVU81
 408 0000 56       		pushl	%esi
 409              		.cfi_def_cfa_offset 8
 410              		.cfi_offset 6, -8
 411 0001 53       		pushl	%ebx
 412              		.cfi_def_cfa_offset 12
 413              		.cfi_offset 3, -12
 414 0002 E8FCFFFF 		call	__x86.get_pc_thunk.bx
 414      FF
 415 0007 81C30200 		addl	$_GLOBAL_OFFSET_TABLE_, %ebx
 415      0000
 416 000d 83EC0C   		subl	$12, %esp
 417              		.cfi_def_cfa_offset 24
 418              		.loc 1 67 3 view .LVU82
 419 0010 8BB30000 		movl	stdout@GOT(%ebx), %esi
 419      0000
 420 0016 FF36     		pushl	(%esi)
 421              		.cfi_def_cfa_offset 28
GAS LISTING /tmp/ccx1Kzwe.s 			page 9


 422 0018 0FB64424 		movzbl	32(%esp), %eax
 422      20
 423 001d 50       		pushl	%eax
 424              		.cfi_def_cfa_offset 32
 425 001e E8FCFFFF 		call	fputc@PLT
 425      FF
 426              	.LVL29:
 427              		.loc 1 68 3 is_stmt 1 view .LVU83
 428 0023 58       		popl	%eax
 429              		.cfi_def_cfa_offset 28
 430 0024 FF36     		pushl	(%esi)
 431              		.cfi_def_cfa_offset 32
 432 0026 E8FCFFFF 		call	fflush@PLT
 432      FF
 433              	.LVL30:
 434              		.loc 1 69 3 view .LVU84
 435              		.loc 1 70 1 is_stmt 0 view .LVU85
 436 002b 83C414   		addl	$20, %esp
 437              		.cfi_def_cfa_offset 12
 438 002e 31C0     		xorl	%eax, %eax
 439 0030 5B       		popl	%ebx
 440              		.cfi_restore 3
 441              		.cfi_def_cfa_offset 8
 442 0031 5E       		popl	%esi
 443              		.cfi_restore 6
 444              		.cfi_def_cfa_offset 4
 445 0032 C3       		ret
 446              		.cfi_endproc
 447              	.LFE301:
 448              		.size	_put, .-_put
 449              		.section	.text.conInit,"ax",@progbits
 450              		.p2align 4
 451              		.globl	conInit
 452              		.type	conInit, @function
 453              	conInit:
 454              	.LFB308:
 455              		.loc 1 140 20 is_stmt 1 view -0
 456              		.cfi_startproc
 457              		.loc 1 142 3 view .LVU87
 458 0000 E8FCFFFF 		call	__x86.get_pc_thunk.ax
 458      FF
 459 0005 05010000 		addl	$_GLOBAL_OFFSET_TABLE_, %eax
 459      00
 460              		.loc 1 142 11 is_stmt 0 view .LVU88
 461 000a 8D900000 		leal	vmt@GOTOFF(%eax), %edx
 461      0000
 462 0010 89900000 		movl	%edx, CD1@GOTOFF(%eax)
 462      0000
 463              		.loc 1 143 1 view .LVU89
 464 0016 C3       		ret
 465              		.cfi_endproc
 466              	.LFE308:
 467              		.size	conInit, .-conInit
 468              		.section	.data.rel.ro.local.vmt,"aw"
 469              		.align 32
 470              		.type	vmt, @object
 471              		.size	vmt, 40
GAS LISTING /tmp/ccx1Kzwe.s 			page 10


 472              	vmt:
 473 0000 00000000 		.long	0
 474 0004 00000000 		.long	_write
 475 0008 00000000 		.long	_read
 476 000c 00000000 		.long	_put
 477 0010 00000000 		.long	_get
 478 0014 00000000 		.long	_putt
 479 0018 00000000 		.long	_gett
 480 001c 00000000 		.long	_writet
 481 0020 00000000 		.long	_readt
 482 0024 00000000 		.long	_ctl
 483              		.globl	CD1
 484              		.section	.bss.CD1,"aw",@nobits
 485              		.align 4
 486              		.type	CD1, @object
 487              		.size	CD1, 4
 488              	CD1:
 489 0000 00000000 		.zero	4
 490              		.section	.text.__x86.get_pc_thunk.ax,"axG",@progbits,__x86.get_pc_thunk.ax,comdat
 491              		.globl	__x86.get_pc_thunk.ax
 492              		.hidden	__x86.get_pc_thunk.ax
 493              		.type	__x86.get_pc_thunk.ax, @function
 494              	__x86.get_pc_thunk.ax:
 495              	.LFB309:
 496              		.cfi_startproc
 497 0000 8B0424   		movl	(%esp), %eax
 498 0003 C3       		ret
 499              		.cfi_endproc
 500              	.LFE309:
 501              		.section	.text.__x86.get_pc_thunk.bx,"axG",@progbits,__x86.get_pc_thunk.bx,comdat
 502              		.globl	__x86.get_pc_thunk.bx
 503              		.hidden	__x86.get_pc_thunk.bx
 504              		.type	__x86.get_pc_thunk.bx, @function
 505              	__x86.get_pc_thunk.bx:
 506              	.LFB310:
 507              		.cfi_startproc
 508 0000 8B1C24   		movl	(%esp), %ebx
 509 0003 C3       		ret
 510              		.cfi_endproc
 511              	.LFE310:
 512              		.text
 513              	.Letext0:
 514              		.file 3 "/usr/lib/gcc/x86_64-linux-gnu/11/include/stddef.h"
 515              		.file 4 "/usr/include/bits/types.h"
 516              		.file 5 "/usr/include/bits/types/struct_FILE.h"
 517              		.file 6 "/usr/include/bits/types/FILE.h"
 518              		.file 7 "/usr/include/stdio.h"
 519              		.file 8 "/usr/include/bits/stdint-intn.h"
 520              		.file 9 "/usr/include/bits/stdint-uintn.h"
 521              		.file 10 "../../../os/common/ports/SIMIA32/compilers/GCC/chtypes.h"
 522              		.file 11 "../../../os/rt/include/chtime.h"
 523              		.file 12 "../../../os/hal/include/hal_channels.h"
 524              		.file 13 "../../../os/hal/ports/simulator/console.h"
 2789 0059 2F686F6D 		.section	.note.GNU-stack,"",@progbits
 2789      652F616C 
 2789      65782F43 
 2789      68696269 
 2789      4F532F64 
GAS LISTING /tmp/ccx1Kzwe.s 			page 55

