GAS LISTING /tmp/cc4X8CAU.s 			page 1


   1              		.file	"hal.c"
   2              		.text
   3              	.Ltext0:
   4              		.file 0 "/home/alex/ChibiOS/demos/various/LAB3_VARIANT3" "../../../os/hal/src/hal.c"
   5              		.section	.text.halInit,"ax",@progbits
   6              		.p2align 4
   7              		.globl	halInit
   8              		.type	halInit, @function
   9              	halInit:
  10              	.LFB299:
  11              		.file 1 "../../../os/hal/src/hal.c"
  12              		.loc 1 56 20 view -0
  13              		.cfi_startproc
  14              		.loc 1 59 3 view .LVU1
  15              		.loc 1 62 3 view .LVU2
  16              		.loc 1 56 20 is_stmt 0 view .LVU3
  17 0000 53       		pushl	%ebx
  18              		.cfi_def_cfa_offset 8
  19              		.cfi_offset 3, -8
  20 0001 E8FCFFFF 		call	__x86.get_pc_thunk.bx
  20      FF
  21 0006 81C30200 		addl	$_GLOBAL_OFFSET_TABLE_, %ebx
  21      0000
  22 000c 83EC08   		subl	$8, %esp
  23              		.cfi_def_cfa_offset 16
  24              		.loc 1 62 3 view .LVU4
  25 000f E8FCFFFF 		call	hal_lld_init@PLT
  25      FF
  26              	.LVL0:
  27              		.loc 1 68 3 is_stmt 1 view .LVU5
  28 0014 8B830000 		movl	pal_default_config@GOT(%ebx), %eax
  28      0000
  29 001a 8B930000 		movl	vio_port_1@GOT(%ebx), %edx
  29      0000
  30 0020 8B08     		movl	(%eax), %ecx
  31 0022 890A     		movl	%ecx, (%edx)
  32 0024 8B4804   		movl	4(%eax), %ecx
  33 0027 894A04   		movl	%ecx, 4(%edx)
  34 002a 8B4808   		movl	8(%eax), %ecx
  35 002d 894A08   		movl	%ecx, 8(%edx)
  36 0030 8B930000 		movl	vio_port_2@GOT(%ebx), %edx
  36      0000
  37 0036 8B480C   		movl	12(%eax), %ecx
  38 0039 890A     		movl	%ecx, (%edx)
  39 003b 8B4810   		movl	16(%eax), %ecx
  40 003e 8B4014   		movl	20(%eax), %eax
  41 0041 894A04   		movl	%ecx, 4(%edx)
  42 0044 894208   		movl	%eax, 8(%edx)
  43              		.loc 1 105 3 view .LVU6
  44 0047 E8FCFFFF 		call	sdInit@PLT
  44      FF
  45              	.LVL1:
  46              		.loc 1 149 3 view .LVU7
  47 004c E8FCFFFF 		call	boardInit@PLT
  47      FF
  48              	.LVL2:
  49              		.loc 1 156 3 view .LVU8
GAS LISTING /tmp/cc4X8CAU.s 			page 2


  50 0051 E8FCFFFF 		call	stInit@PLT
  50      FF
  51              	.LVL3:
  52              		.loc 1 158 1 is_stmt 0 view .LVU9
  53 0056 83C408   		addl	$8, %esp
  54              		.cfi_def_cfa_offset 8
  55 0059 5B       		popl	%ebx
  56              		.cfi_restore 3
  57              		.cfi_def_cfa_offset 4
  58 005a C3       		ret
  59              		.cfi_endproc
  60              	.LFE299:
  61              		.size	halInit, .-halInit
  62              		.section	.text.__x86.get_pc_thunk.bx,"axG",@progbits,__x86.get_pc_thunk.bx,comdat
  63              		.globl	__x86.get_pc_thunk.bx
  64              		.hidden	__x86.get_pc_thunk.bx
  65              		.type	__x86.get_pc_thunk.bx, @function
  66              	__x86.get_pc_thunk.bx:
  67              	.LFB300:
  68              		.cfi_startproc
  69 0000 8B1C24   		movl	(%esp), %ebx
  70 0003 C3       		ret
  71              		.cfi_endproc
  72              	.LFE300:
  73              		.text
  74              	.Letext0:
  75              		.file 2 "/usr/include/bits/types.h"
  76              		.file 3 "/usr/include/bits/stdint-uintn.h"
  77              		.file 4 "../../../os/hal/ports/simulator/hal_pal_lld.h"
  78              		.file 5 "../../../os/hal/include/hal_st.h"
  79              		.file 6 "../../../os/hal/boards/simulator/board.h"
  80              		.file 7 "../../../os/hal/include/hal_serial.h"
  81              		.file 8 "../../../os/hal/ports/simulator/posix/hal_lld.h"
  82              		.file 9 "../../../os/hal/osal/rt-nil/osal.h"
 605 0049 2F686F6D 		.section	.note.GNU-stack,"",@progbits
 605      652F616C 
 605      65782F43 
 605      68696269 
 605      4F532F64 
GAS LISTING /tmp/cc4X8CAU.s 			page 14

