GAS LISTING /tmp/ccRIPDwC.s 			page 1


   1              		.file	"main.c"
   2              		.text
   3              	.Ltext0:
   4              		.file 0 "/home/alex/ChibiOS/demos/various/LAB3_VARIANT3" "main.c"
   5              		.section	.text.safe_print,"ax",@progbits
   6              		.p2align 4
   7              		.type	safe_print, @function
   8              	safe_print:
   9              	.LVL0:
  10              	.LFB310:
  11              		.file 1 "main.c"
  12              		.loc 1 46 46 view -0
  13              		.cfi_startproc
  14              		.loc 1 47 5 view .LVU1
  15              		.loc 1 46 46 is_stmt 0 view .LVU2
  16 0000 56       		pushl	%esi
  17              		.cfi_def_cfa_offset 8
  18              		.cfi_offset 6, -8
  19 0001 53       		pushl	%ebx
  20              		.cfi_def_cfa_offset 12
  21              		.cfi_offset 3, -12
  22 0002 E8FCFFFF 		call	__x86.get_pc_thunk.bx
  22      FF
  23 0007 81C30200 		addl	$_GLOBAL_OFFSET_TABLE_, %ebx
  23      0000
  24 000d 83EC10   		subl	$16, %esp
  25              		.cfi_def_cfa_offset 28
  26              		.loc 1 47 5 view .LVU3
  27 0010 8DB30000 		leal	print_mutex@GOTOFF(%ebx), %esi
  27      0000
  28 0016 56       		pushl	%esi
  29              		.cfi_def_cfa_offset 32
  30 0017 E8FCFFFF 		call	chMtxLock@PLT
  30      FF
  31              	.LVL1:
  32              		.loc 1 48 5 is_stmt 1 view .LVU4
  33              		.loc 1 49 5 view .LVU5
  34 001c 8D442424 		leal	36(%esp), %eax
  35              	.LVL2:
  36              		.loc 1 50 5 view .LVU6
  37 0020 83C40C   		addl	$12, %esp
  38              		.cfi_def_cfa_offset 20
  39 0023 50       		pushl	%eax
  40              		.cfi_def_cfa_offset 24
  41 0024 FF742418 		pushl	24(%esp)
  42              		.cfi_def_cfa_offset 28
  43 0028 FFB30000 		pushl	SD1@GOT(%ebx)
  43      0000
  44              		.cfi_def_cfa_offset 32
  45 002e E8FCFFFF 		call	chvprintf@PLT
  45      FF
  46              	.LVL3:
  47              		.loc 1 51 5 view .LVU7
  48              		.loc 1 52 5 view .LVU8
  49 0033 893424   		movl	%esi, (%esp)
  50 0036 E8FCFFFF 		call	chMtxUnlock@PLT
  50      FF
GAS LISTING /tmp/ccRIPDwC.s 			page 2


  51              	.LVL4:
  52              		.loc 1 53 1 is_stmt 0 view .LVU9
  53 003b 83C414   		addl	$20, %esp
  54              		.cfi_def_cfa_offset 12
  55 003e 5B       		popl	%ebx
  56              		.cfi_restore 3
  57              		.cfi_def_cfa_offset 8
  58 003f 5E       		popl	%esi
  59              		.cfi_restore 6
  60              		.cfi_def_cfa_offset 4
  61 0040 C3       		ret
  62              		.cfi_endproc
  63              	.LFE310:
  64              		.size	safe_print, .-safe_print
  65              		.section	.rodata.buffer_print.str1.4,"aMS",@progbits,1
  66              		.align 4
  67              	.LC0:
  68 0000 25733A20 		.string	"%s: count=%2u, head=%2u, tail=%2u\r\n"
  68      636F756E 
  68      743D2532 
  68      752C2068 
  68      6561643D 
  69              		.section	.rodata.buffer_print.str1.1,"aMS",@progbits,1
  70              	.LC1:
  71 0000 436F6E74 		.string	"Contents: "
  71      656E7473 
  71      3A2000
  72              	.LC2:
  73 000b 656D7074 		.string	"empty"
  73      7900
  74              	.LC3:
  75 0011 25336420 		.string	"%3d "
  75      00
  76              	.LC4:
  77 0016 0D0A00   		.string	"\r\n"
  78              		.section	.text.buffer_print,"ax",@progbits
  79              		.p2align 4
  80              		.type	buffer_print, @function
  81              	buffer_print:
  82              	.LVL5:
  83              	.LFB313:
  84              		.loc 1 94 63 is_stmt 1 view -0
  85              		.cfi_startproc
  86              		.loc 1 95 5 view .LVU11
  87              		.loc 1 94 63 is_stmt 0 view .LVU12
  88 0000 55       		pushl	%ebp
  89              		.cfi_def_cfa_offset 8
  90              		.cfi_offset 5, -8
  91 0001 57       		pushl	%edi
  92              		.cfi_def_cfa_offset 12
  93              		.cfi_offset 7, -12
  94 0002 56       		pushl	%esi
  95              		.cfi_def_cfa_offset 16
  96              		.cfi_offset 6, -16
  97 0003 E8FCFFFF 		call	__x86.get_pc_thunk.si
  97      FF
  98 0008 81C60200 		addl	$_GLOBAL_OFFSET_TABLE_, %esi
GAS LISTING /tmp/ccRIPDwC.s 			page 3


  98      0000
  99 000e 53       		pushl	%ebx
 100              		.cfi_def_cfa_offset 20
 101              		.cfi_offset 3, -20
 102 000f 89C3     		movl	%eax, %ebx
 103 0011 83EC28   		subl	$40, %esp
 104              		.cfi_def_cfa_offset 60
 105 0014 89742418 		movl	%esi, 24(%esp)
 106              		.loc 1 95 5 view .LVU13
 107 0018 FF702C   		pushl	44(%eax)
 108              		.cfi_def_cfa_offset 64
 109 001b FF7028   		pushl	40(%eax)
 110              		.cfi_def_cfa_offset 68
 111 001e FF7030   		pushl	48(%eax)
 112              		.cfi_def_cfa_offset 72
 113 0021 8D860000 		leal	.LC0@GOTOFF(%esi), %eax
 113      0000
 114              	.LVL6:
 115              		.loc 1 95 5 view .LVU14
 116 0027 52       		pushl	%edx
 117              		.cfi_def_cfa_offset 76
 118 0028 50       		pushl	%eax
 119              		.cfi_def_cfa_offset 80
 120 0029 E8FCFFFF 		call	safe_print
 120      FF
 121              	.LVL7:
 122              		.loc 1 97 5 is_stmt 1 view .LVU15
 123 002e 83C414   		addl	$20, %esp
 124              		.cfi_def_cfa_offset 60
 125 0031 8D860000 		leal	.LC1@GOTOFF(%esi), %eax
 125      0000
 126 0037 50       		pushl	%eax
 127              		.cfi_def_cfa_offset 64
 128 0038 E8FCFFFF 		call	safe_print
 128      FF
 129              	.LVL8:
 130              		.loc 1 99 5 view .LVU16
 131              		.loc 1 99 8 is_stmt 0 view .LVU17
 132 003d 8B4330   		movl	48(%ebx), %eax
 133 0040 83C410   		addl	$16, %esp
 134              		.cfi_def_cfa_offset 48
 135 0043 85C0     		testl	%eax, %eax
 136 0045 7469     		je	.L10
 137              	.LBB41:
 138              		.loc 1 102 9 is_stmt 1 view .LVU18
 139 0047 8B44240C 		movl	12(%esp), %eax
 140              		.loc 1 102 16 is_stmt 0 view .LVU19
 141 004b 8B7B2C   		movl	44(%ebx), %edi
 142              	.LVL9:
 143              		.loc 1 103 9 is_stmt 1 view .LVU20
 144              	.LBB42:
 145              		.loc 1 103 14 view .LVU21
 146              		.loc 1 103 30 view .LVU22
 147              		.loc 1 103 21 is_stmt 0 view .LVU23
 148 004e 31F6     		xorl	%esi, %esi
 149 0050 8DA80000 		leal	.LC3@GOTOFF(%eax), %ebp
 149      0000
GAS LISTING /tmp/ccRIPDwC.s 			page 4


 150              	.LVL10:
 151 0056 8DB42600 		.p2align 4,,10
 151      0000008D 
 151      7600
 152              		.p2align 3
 153              	.L7:
 154              		.loc 1 104 13 is_stmt 1 discriminator 3 view .LVU24
 155 0060 83EC08   		subl	$8, %esp
 156              		.cfi_def_cfa_offset 56
 157 0063 FF34BB   		pushl	(%ebx,%edi,4)
 158              		.cfi_def_cfa_offset 60
 159              		.loc 1 103 45 is_stmt 0 discriminator 3 view .LVU25
 160 0066 83C601   		addl	$1, %esi
 161              	.LVL11:
 162              		.loc 1 104 13 discriminator 3 view .LVU26
 163 0069 55       		pushl	%ebp
 164              		.cfi_def_cfa_offset 64
 165 006a E8FCFFFF 		call	safe_print
 165      FF
 166              	.LVL12:
 167              		.loc 1 105 13 is_stmt 1 discriminator 3 view .LVU27
 168              		.loc 1 105 24 is_stmt 0 discriminator 3 view .LVU28
 169 006f 8D4F01   		leal	1(%edi), %ecx
 170              		.loc 1 105 17 discriminator 3 view .LVU29
 171 0072 B8CDCCCC 		movl	$-858993459, %eax
 171      CC
 172              		.loc 1 103 30 discriminator 3 view .LVU30
 173 0077 83C410   		addl	$16, %esp
 174              		.cfi_def_cfa_offset 48
 175              		.loc 1 105 17 discriminator 3 view .LVU31
 176 007a F7E1     		mull	%ecx
 177 007c C1EA03   		shrl	$3, %edx
 178 007f 8D0492   		leal	(%edx,%edx,4), %eax
 179 0082 01C0     		addl	%eax, %eax
 180 0084 29C1     		subl	%eax, %ecx
 181 0086 89CF     		movl	%ecx, %edi
 182              	.LVL13:
 183              		.loc 1 103 45 is_stmt 1 discriminator 3 view .LVU32
 184              		.loc 1 103 30 discriminator 3 view .LVU33
 185 0088 397330   		cmpl	%esi, 48(%ebx)
 186 008b 77D3     		ja	.L7
 187              	.LVL14:
 188              	.L6:
 189              		.loc 1 103 30 is_stmt 0 discriminator 3 view .LVU34
 190              	.LBE42:
 191              	.LBE41:
 192              		.loc 1 108 5 is_stmt 1 view .LVU35
 193 008d 83EC0C   		subl	$12, %esp
 194              		.cfi_def_cfa_offset 60
 195 0090 8B442418 		movl	24(%esp), %eax
 196 0094 8D800000 		leal	.LC4@GOTOFF(%eax), %eax
 196      0000
 197 009a 50       		pushl	%eax
 198              		.cfi_def_cfa_offset 64
 199 009b E8FCFFFF 		call	safe_print
 199      FF
 200              	.LVL15:
GAS LISTING /tmp/ccRIPDwC.s 			page 5


 201              		.loc 1 109 1 is_stmt 0 view .LVU36
 202 00a0 83C42C   		addl	$44, %esp
 203              		.cfi_def_cfa_offset 20
 204 00a3 5B       		popl	%ebx
 205              		.cfi_restore 3
 206              		.cfi_def_cfa_offset 16
 207              	.LVL16:
 208              		.loc 1 109 1 view .LVU37
 209 00a4 5E       		popl	%esi
 210              		.cfi_restore 6
 211              		.cfi_def_cfa_offset 12
 212 00a5 5F       		popl	%edi
 213              		.cfi_restore 7
 214              		.cfi_def_cfa_offset 8
 215 00a6 5D       		popl	%ebp
 216              		.cfi_restore 5
 217              		.cfi_def_cfa_offset 4
 218 00a7 C3       		ret
 219              	.LVL17:
 220 00a8 8DB42600 		.p2align 4,,10
 220      00000090 
 221              		.p2align 3
 222              	.L10:
 223              		.cfi_def_cfa_offset 48
 224              		.cfi_offset 3, -20
 225              		.cfi_offset 5, -8
 226              		.cfi_offset 6, -16
 227              		.cfi_offset 7, -12
 228              		.loc 1 100 9 is_stmt 1 view .LVU38
 229 00b0 83EC0C   		subl	$12, %esp
 230              		.cfi_def_cfa_offset 60
 231 00b3 8B442418 		movl	24(%esp), %eax
 232 00b7 8D800000 		leal	.LC2@GOTOFF(%eax), %eax
 232      0000
 233 00bd 50       		pushl	%eax
 234              		.cfi_def_cfa_offset 64
 235 00be E8FCFFFF 		call	safe_print
 235      FF
 236              	.LVL18:
 237 00c3 83C410   		addl	$16, %esp
 238              		.cfi_def_cfa_offset 48
 239 00c6 EBC5     		jmp	.L6
 240              		.cfi_endproc
 241              	.LFE313:
 242              		.size	buffer_print, .-buffer_print
 243              		.section	.rodata.main.str1.1,"aMS",@progbits,1
 244              	.LC5:
 245 0000 42756666 		.string	"Buffer1"
 245      65723100 
 246              	.LC6:
 247 0008 42756666 		.string	"Buffer2"
 247      65723200 
 248              		.section	.rodata.main.str1.4,"aMS",@progbits,1
 249              		.align 4
 250              	.LC7:
 251 0000 0D0A3D3D 		.string	"\r\n=== Ticket System with Two Buffers ===\r\n"
 251      3D205469 
GAS LISTING /tmp/ccRIPDwC.s 			page 6


 251      636B6574 
 251      20537973 
 251      74656D20 
 252 002b 00       		.align 4
 253              	.LC8:
 254 002c 52756E6E 		.string	"Running %d user tasks in main loop...\r\n\r\n"
 254      696E6720 
 254      25642075 
 254      73657220 
 254      7461736B 
 255              		.globl	__udivdi3
 256              		.globl	__divdi3
 257              		.section	.rodata.main.str1.1
 258              	.LC9:
 259 0010 5B546173 		.string	"[Task %d] Wrote to %s: %d\r\n"
 259      6B202564 
 259      5D205772 
 259      6F746520 
 259      746F2025 
 260              		.section	.rodata.main.str1.4
 261 0056 0000     		.align 4
 262              	.LC10:
 263 0058 5B546173 		.string	"[Task %d] %s is busy or full\r\n"
 263      6B202564 
 263      5D202573 
 263      20697320 
 263      62757379 
 264              		.section	.rodata.main.str1.1
 265              	.LC11:
 266 002c 5B546173 		.string	"[Task %d] Read from %s: %d\r\n"
 266      6B202564 
 266      5D205265 
 266      61642066 
 266      726F6D20 
 267              		.section	.rodata.main.str1.4
 268 0077 00       		.align 4
 269              	.LC12:
 270 0078 5B546173 		.string	"[Task %d] %s is busy or empty\r\n"
 270      6B202564 
 270      5D202573 
 270      20697320 
 270      62757379 
 271              		.section	.rodata.main.str1.1
 272              	.LC13:
 273 0049 0D0A3D3D 		.string	"\r\n=== Buffer Status ===\r\n"
 273      3D204275 
 273      66666572 
 273      20537461 
 273      74757320 
 274              	.LC14:
 275 0063 3D3D3D3D 		.string	"====================\r\n\r\n"
 275      3D3D3D3D 
 275      3D3D3D3D 
 275      3D3D3D3D 
 275      3D3D3D3D 
 276              		.section	.text.startup.main,"ax",@progbits
 277              		.p2align 4
GAS LISTING /tmp/ccRIPDwC.s 			page 7


 278              		.globl	main
 279              		.type	main, @function
 280              	main:
 281              	.LFB316:
 282              		.loc 1 158 16 view -0
 283              		.cfi_startproc
 284              		.loc 1 159 5 view .LVU40
 285              		.loc 1 158 16 is_stmt 0 view .LVU41
 286 0000 8D4C2404 		leal	4(%esp), %ecx
 287              		.cfi_def_cfa 1, 0
 288 0004 83E4F0   		andl	$-16, %esp
 289 0007 FF71FC   		pushl	-4(%ecx)
 290 000a 55       		pushl	%ebp
 291 000b 89E5     		movl	%esp, %ebp
 292              		.cfi_escape 0x10,0x5,0x2,0x75,0
 293 000d 57       		pushl	%edi
 294 000e 56       		pushl	%esi
 295              		.cfi_escape 0x10,0x7,0x2,0x75,0x7c
 296              		.cfi_escape 0x10,0x6,0x2,0x75,0x78
 297 000f E8FCFFFF 		call	__x86.get_pc_thunk.si
 297      FF
 298 0014 81C60200 		addl	$_GLOBAL_OFFSET_TABLE_, %esi
 298      0000
 299 001a 53       		pushl	%ebx
 300 001b 51       		pushl	%ecx
 301              		.cfi_escape 0xf,0x3,0x75,0x70,0x6
 302              		.cfi_escape 0x10,0x3,0x2,0x75,0x74
 303 001c 83EC68   		subl	$104, %esp
 304              		.loc 1 159 5 view .LVU42
 305 001f 89F3     		movl	%esi, %ebx
 306 0021 E8FCFFFF 		call	halInit@PLT
 306      FF
 307              	.LVL19:
 308              		.loc 1 160 5 is_stmt 1 view .LVU43
 309 0026 E8FCFFFF 		call	chSysInit@PLT
 309      FF
 310              	.LVL20:
 311              		.loc 1 161 5 view .LVU44
 312 002b 83EC08   		subl	$8, %esp
 313 002e 6A00     		pushl	$0
 314 0030 FFB60000 		pushl	SD1@GOT(%esi)
 314      0000
 315 0036 E8FCFFFF 		call	sdStart@PLT
 315      FF
 316              	.LVL21:
 317              		.loc 1 162 5 view .LVU45
 318 003b 8D860000 		leal	print_mutex@GOTOFF(%esi), %eax
 318      0000
 319 0041 890424   		movl	%eax, (%esp)
 320 0044 E8FCFFFF 		call	chMtxObjectInit@PLT
 320      FF
 321              	.LVL22:
 322              		.loc 1 165 5 view .LVU46
 323              	.LBB77:
 324              	.LBI77:
 325              		.loc 1 37 13 view .LVU47
 326              	.LBB78:
GAS LISTING /tmp/ccRIPDwC.s 			page 8


 327              		.loc 1 38 5 view .LVU48
 328 0049 8D860000 		leal	user_tasks@GOTOFF(%esi), %eax
 328      0000
 329 004f 83C410   		addl	$16, %esp
 330              	.LBE78:
 331              	.LBE77:
 332              	.LBB81:
 333              	.LBB82:
 334              		.loc 1 113 14 is_stmt 0 view .LVU49
 335 0052 31C9     		xorl	%ecx, %ecx
 336              	.LBE82:
 337              	.LBE81:
 338              	.LBB84:
 339              	.LBB79:
 340              		.loc 1 38 15 view .LVU50
 341 0054 C7862800 		movl	$0, 40+buffer1@GOTOFF(%esi)
 341      00000000 
 341      0000
 342              		.loc 1 39 5 is_stmt 1 view .LVU51
 343              	.LBE79:
 344              	.LBE84:
 345              	.LBB85:
 346              	.LBB86:
 347              		.loc 1 42 18 is_stmt 0 view .LVU52
 348 005e 89C7     		movl	%eax, %edi
 349              	.LBE86:
 350              	.LBE85:
 351              	.LBB88:
 352              	.LBB80:
 353              		.loc 1 39 15 view .LVU53
 354 0060 C7862C00 		movl	$0, 44+buffer1@GOTOFF(%esi)
 354      00000000 
 354      0000
 355              		.loc 1 40 5 is_stmt 1 view .LVU54
 356              		.loc 1 40 16 is_stmt 0 view .LVU55
 357 006a C7863000 		movl	$0, 48+buffer1@GOTOFF(%esi)
 357      00000000 
 357      0000
 358              		.loc 1 41 5 is_stmt 1 view .LVU56
 359              		.loc 1 41 18 is_stmt 0 view .LVU57
 360 0074 C7863400 		movl	$0, 52+buffer1@GOTOFF(%esi)
 360      00000000 
 360      0000
 361              		.loc 1 42 5 is_stmt 1 view .LVU58
 362              		.loc 1 42 18 is_stmt 0 view .LVU59
 363 007e C7863800 		movl	$0, 56+buffer1@GOTOFF(%esi)
 363      00000000 
 363      0000
 364              	.LVL23:
 365              		.loc 1 42 18 view .LVU60
 366              	.LBE80:
 367              	.LBE88:
 368              		.loc 1 166 5 is_stmt 1 view .LVU61
 369              	.LBB89:
 370              	.LBI85:
 371              		.loc 1 37 13 view .LVU62
 372              	.LBB87:
GAS LISTING /tmp/ccRIPDwC.s 			page 9


 373              		.loc 1 38 5 view .LVU63
 374              		.loc 1 38 15 is_stmt 0 view .LVU64
 375 0088 C7862800 		movl	$0, 40+buffer2@GOTOFF(%esi)
 375      00000000 
 375      0000
 376              		.loc 1 39 5 is_stmt 1 view .LVU65
 377              		.loc 1 39 15 is_stmt 0 view .LVU66
 378 0092 C7862C00 		movl	$0, 44+buffer2@GOTOFF(%esi)
 378      00000000 
 378      0000
 379              		.loc 1 40 5 is_stmt 1 view .LVU67
 380              		.loc 1 40 16 is_stmt 0 view .LVU68
 381 009c C7863000 		movl	$0, 48+buffer2@GOTOFF(%esi)
 381      00000000 
 381      0000
 382              		.loc 1 41 5 is_stmt 1 view .LVU69
 383              		.loc 1 41 18 is_stmt 0 view .LVU70
 384 00a6 C7863400 		movl	$0, 52+buffer2@GOTOFF(%esi)
 384      00000000 
 384      0000
 385              		.loc 1 42 5 is_stmt 1 view .LVU71
 386              		.loc 1 42 18 is_stmt 0 view .LVU72
 387 00b0 C7863800 		movl	$0, 56+buffer2@GOTOFF(%esi)
 387      00000000 
 387      0000
 388              	.LVL24:
 389              		.loc 1 42 18 view .LVU73
 390              	.LBE87:
 391              	.LBE89:
 392              		.loc 1 169 5 is_stmt 1 view .LVU74
 393              	.LBB90:
 394              	.LBI81:
 395              		.loc 1 112 13 view .LVU75
 396              		.loc 1 113 5 view .LVU76
 397              	.LBB83:
 398              		.loc 1 113 10 view .LVU77
 399              		.loc 1 113 23 view .LVU78
 400 00ba 8945AC   		movl	%eax, -84(%ebp)
 401              	.LVL25:
 402              	.L12:
 403              		.loc 1 114 9 view .LVU79
 404              		.loc 1 114 36 is_stmt 0 view .LVU80
 405 00bd 83C101   		addl	$1, %ecx
 406              	.LVL26:
 407              		.loc 1 115 40 view .LVU81
 408 00c0 89F3     		movl	%esi, %ebx
 409              		.loc 1 113 23 view .LVU82
 410 00c2 83C70C   		addl	$12, %edi
 411              		.loc 1 114 32 view .LVU83
 412 00c5 894FFC   		movl	%ecx, -4(%edi)
 413 00c8 894DE4   		movl	%ecx, -28(%ebp)
 414              		.loc 1 115 9 is_stmt 1 view .LVU84
 415              		.loc 1 115 40 is_stmt 0 view .LVU85
 416 00cb E8FCFFFF 		call	rand@PLT
 416      FF
 417              	.LVL27:
 418              		.loc 1 113 23 view .LVU86
GAS LISTING /tmp/ccRIPDwC.s 			page 10


 419 00d0 8B4DE4   		movl	-28(%ebp), %ecx
 420              		.loc 1 116 32 view .LVU87
 421 00d3 C747F400 		movl	$0, -12(%edi)
 421      000000
 422              		.loc 1 115 40 view .LVU88
 423 00da 89C3     		movl	%eax, %ebx
 424              		.loc 1 115 47 view .LVU89
 425 00dc B81F85EB 		movl	$1374389535, %eax
 425      51
 426 00e1 F7EB     		imull	%ebx
 427 00e3 89D8     		movl	%ebx, %eax
 428 00e5 C1F81F   		sarl	$31, %eax
 429 00e8 C1FA07   		sarl	$7, %edx
 430 00eb 29C2     		subl	%eax, %edx
 431 00ed 69C29001 		imull	$400, %edx, %eax
 431      0000
 432 00f3 29C3     		subl	%eax, %ebx
 433              		.loc 1 115 38 view .LVU90
 434 00f5 8D4364   		leal	100(%ebx), %eax
 435 00f8 8947F8   		movl	%eax, -8(%edi)
 436              		.loc 1 116 9 is_stmt 1 view .LVU91
 437              		.loc 1 113 38 view .LVU92
 438              	.LVL28:
 439              		.loc 1 113 23 view .LVU93
 440 00fb 83F90A   		cmpl	$10, %ecx
 441 00fe 75BD     		jne	.L12
 442              	.LVL29:
 443              		.loc 1 113 23 is_stmt 0 view .LVU94
 444              	.LBE83:
 445              	.LBE90:
 446              		.loc 1 171 5 is_stmt 1 view .LVU95
 447 0100 83EC0C   		subl	$12, %esp
 448 0103 8D860000 		leal	.LC7@GOTOFF(%esi), %eax
 448      0000
 449 0109 50       		pushl	%eax
 450 010a E8FCFFFF 		call	safe_print
 450      FF
 451              	.LVL30:
 452              		.loc 1 172 5 view .LVU96
 453 010f 58       		popl	%eax
 454 0110 8D860000 		leal	.LC8@GOTOFF(%esi), %eax
 454      0000
 455 0116 5A       		popl	%edx
 456 0117 6A0A     		pushl	$10
 457 0119 50       		pushl	%eax
 458 011a E8FCFFFF 		call	safe_print
 458      FF
 459              	.LVL31:
 460              		.loc 1 174 5 view .LVU97
 461              		.loc 1 174 5 is_stmt 0 view .LVU98
 462 011f 8B860000 		movl	ch0@GOT(%esi), %eax
 462      0000
 463              		.loc 1 174 15 view .LVU99
 464 0125 C745B400 		movl	$0, -76(%ebp)
 464      000000
 465              		.loc 1 172 5 view .LVU100
 466 012c 83C410   		addl	$16, %esp
GAS LISTING /tmp/ccRIPDwC.s 			page 11


 467 012f 8945DC   		movl	%eax, -36(%ebp)
 468 0132 8B45AC   		movl	-84(%ebp), %eax
 469 0135 83C078   		addl	$120, %eax
 470 0138 8945D4   		movl	%eax, -44(%ebp)
 471 013b 8B860000 		movl	port_irq_sts@GOT(%esi), %eax
 471      0000
 472 0141 8945D8   		movl	%eax, -40(%ebp)
 473 0144 8D860000 		leal	buffer1@GOTOFF(%esi), %eax
 473      0000
 474 014a 8945CC   		movl	%eax, -52(%ebp)
 475 014d 8D860000 		leal	.LC5@GOTOFF(%esi), %eax
 475      0000
 476 0153 8945C4   		movl	%eax, -60(%ebp)
 477 0156 8D860000 		leal	buffer2@GOTOFF(%esi), %eax
 477      0000
 478 015c 8945C8   		movl	%eax, -56(%ebp)
 479 015f 8D860000 		leal	.LC6@GOTOFF(%esi), %eax
 479      0000
 480 0165 8945C0   		movl	%eax, -64(%ebp)
 481 0168 8D860000 		leal	.LC9@GOTOFF(%esi), %eax
 481      0000
 482 016e 8945A8   		movl	%eax, -88(%ebp)
 483 0171 8D860000 		leal	.LC10@GOTOFF(%esi), %eax
 483      0000
 484 0177 8945A4   		movl	%eax, -92(%ebp)
 485 017a 8D860000 		leal	.LC11@GOTOFF(%esi), %eax
 485      0000
 486 0180 8945A0   		movl	%eax, -96(%ebp)
 487 0183 8D860000 		leal	.LC12@GOTOFF(%esi), %eax
 487      0000
 488 0189 89459C   		movl	%eax, -100(%ebp)
 489 018c 8D860000 		leal	.LC13@GOTOFF(%esi), %eax
 489      0000
 490 0192 894594   		movl	%eax, -108(%ebp)
 491 0195 8D860000 		leal	.LC14@GOTOFF(%esi), %eax
 491      0000
 492 019b 894598   		movl	%eax, -104(%ebp)
 493              	.LVL32:
 494 019e 6690     		.p2align 4,,10
 495              		.p2align 3
 496              	.L21:
 497              		.loc 1 176 5 is_stmt 1 view .LVU101
 498              	.LBB91:
 499              		.loc 1 177 9 view .LVU102
 500              	.LBB92:
 501              	.LBI92:
 502              		.file 2 "../../../os/rt/include/chvt.h"
 503              		.loc 2 154 25 view .LVU103
 504              	.LBB93:
 505              		.loc 2 155 3 view .LVU104
 506              		.loc 2 157 3 view .LVU105
 507              		.loc 2 158 3 view .LVU106
 508              	.LBB94:
 509              	.LBI94:
 510              		.loc 2 135 25 view .LVU107
 511              	.LBB95:
 512              		.loc 2 138 3 view .LVU108
GAS LISTING /tmp/ccRIPDwC.s 			page 12


 513              		.loc 2 138 26 is_stmt 0 view .LVU109
 514 01a0 8B45DC   		movl	-36(%ebp), %eax
 515 01a3 8B7DAC   		movl	-84(%ebp), %edi
 516 01a6 8B401C   		movl	28(%eax), %eax
 517 01a9 8945BC   		movl	%eax, -68(%ebp)
 518              	.LVL33:
 519              		.loc 2 138 26 view .LVU110
 520              	.LBE95:
 521              	.LBE94:
 522              		.loc 2 159 3 is_stmt 1 view .LVU111
 523              		.loc 2 161 3 view .LVU112
 524              		.loc 2 161 3 is_stmt 0 view .LVU113
 525              	.LBE93:
 526              	.LBE92:
 527              		.loc 1 180 9 is_stmt 1 view .LVU114
 528              	.LBB96:
 529              		.loc 1 180 14 view .LVU115
 530              		.loc 1 180 27 view .LVU116
 531 01ac EB0E     		jmp	.L19
 532              	.LVL34:
 533 01ae 6690     		.p2align 4,,10
 534              		.p2align 3
 535              	.L13:
 536              		.loc 1 180 42 view .LVU117
 537              		.loc 1 180 27 view .LVU118
 538 01b0 83C70C   		addl	$12, %edi
 539 01b3 397DD4   		cmpl	%edi, -44(%ebp)
 540 01b6 0F841D01 		je	.L32
 540      0000
 541              	.LVL35:
 542              	.L19:
 543              		.loc 1 181 13 discriminator 3 view .LVU119
 544              	.LBB97:
 545              	.LBI97:
 546              		.loc 1 121 13 discriminator 3 view .LVU120
 547              	.LBB98:
 548              		.loc 1 122 5 discriminator 3 view .LVU121
 549              	.LBB99:
 550              	.LBI99:
 551              		.loc 2 154 25 discriminator 3 view .LVU122
 552              	.LBB100:
 553              		.loc 2 155 3 discriminator 3 view .LVU123
 554              		.loc 2 157 3 discriminator 3 view .LVU124
 555              		.loc 2 158 3 discriminator 3 view .LVU125
 556              	.LBB101:
 557              	.LBI101:
 558              		.loc 2 135 25 discriminator 3 view .LVU126
 559              	.LBB102:
 560              		.loc 2 138 3 discriminator 3 view .LVU127
 561              		.loc 2 138 26 is_stmt 0 discriminator 3 view .LVU128
 562 01bc 8B45DC   		movl	-36(%ebp), %eax
 563              	.LBE102:
 564              	.LBE101:
 565              	.LBB105:
 566              	.LBB106:
 567              	.LBB107:
 568              	.LBB108:
GAS LISTING /tmp/ccRIPDwC.s 			page 13


 569              		.file 3 "../../../os/common/ports/SIMIA32/chcore.h"
 570              		.loc 3 372 16 discriminator 3 view .LVU129
 571 01bf 8B4DD8   		movl	-40(%ebp), %ecx
 572              	.LBE108:
 573              	.LBE107:
 574              	.LBE106:
 575              	.LBE105:
 576              	.LBE100:
 577              	.LBE99:
 578              		.loc 1 124 33 discriminator 3 view .LVU130
 579 01c2 89F3     		movl	%esi, %ebx
 580              	.LBB120:
 581              	.LBB119:
 582              	.LBB115:
 583              	.LBB103:
 584              		.loc 2 138 26 discriminator 3 view .LVU131
 585 01c4 8B401C   		movl	28(%eax), %eax
 586              	.LBE103:
 587              	.LBE115:
 588              	.LBB116:
 589              	.LBB113:
 590              	.LBB111:
 591              	.LBB109:
 592              		.loc 3 372 16 discriminator 3 view .LVU132
 593 01c7 C7010000 		movl	$0, (%ecx)
 593      0000
 594              	.LBE109:
 595              	.LBE111:
 596              	.LBE113:
 597              	.LBE116:
 598              	.LBB117:
 599              	.LBB104:
 600              		.loc 2 138 26 discriminator 3 view .LVU133
 601 01cd 8945E0   		movl	%eax, -32(%ebp)
 602              	.LVL36:
 603              		.loc 2 138 26 discriminator 3 view .LVU134
 604              	.LBE104:
 605              	.LBE117:
 606              		.loc 2 159 3 is_stmt 1 discriminator 3 view .LVU135
 607              	.LBB118:
 608              	.LBI105:
 609              		.file 4 "../../../os/rt/include/chsys.h"
 610              		.loc 4 421 20 discriminator 3 view .LVU136
 611              	.LBB114:
 612              		.loc 4 423 23 discriminator 3 view .LVU137
 613              		.loc 4 424 34 discriminator 3 view .LVU138
 614              		.loc 4 430 3 discriminator 3 view .LVU139
 615              		.loc 4 430 3 discriminator 3 view .LVU140
 616              		.loc 4 430 3 discriminator 3 view .LVU141
 617              		.loc 4 434 3 discriminator 3 view .LVU142
 618              	.LBB112:
 619              	.LBI107:
 620              		.loc 3 370 20 discriminator 3 view .LVU143
 621              	.LBB110:
 622              		.loc 3 372 3 discriminator 3 view .LVU144
 623              	.LBE110:
 624              	.LBE112:
GAS LISTING /tmp/ccRIPDwC.s 			page 14


 625              	.LBE114:
 626              	.LBE118:
 627              		.loc 2 161 3 discriminator 3 view .LVU145
 628              		.loc 2 161 3 is_stmt 0 discriminator 3 view .LVU146
 629              	.LBE119:
 630              	.LBE120:
 631              		.loc 1 124 5 is_stmt 1 discriminator 3 view .LVU147
 632              		.loc 1 124 13 is_stmt 0 discriminator 3 view .LVU148
 633 01d0 2B07     		subl	(%edi), %eax
 634              	.LVL37:
 635              		.loc 1 124 13 discriminator 3 view .LVU149
 636 01d2 8945E4   		movl	%eax, -28(%ebp)
 637              		.loc 1 124 33 discriminator 3 view .LVU150
 638 01d5 B8E80300 		movl	$1000, %eax
 638      00
 639 01da F76704   		mull	4(%edi)
 640 01dd 6A00     		pushl	$0
 641 01df 68E80300 		pushl	$1000
 641      00
 642 01e4 05E70300 		addl	$999, %eax
 642      00
 643 01e9 83D200   		adcl	$0, %edx
 644 01ec 52       		pushl	%edx
 645 01ed 50       		pushl	%eax
 646 01ee E8FCFFFF 		call	__udivdi3@PLT
 646      FF
 647              	.LVL38:
 648 01f3 83C410   		addl	$16, %esp
 649              		.loc 1 124 8 discriminator 3 view .LVU151
 650 01f6 3945E4   		cmpl	%eax, -28(%ebp)
 651 01f9 72B5     		jb	.L13
 652              	.LBB121:
 653              		.loc 1 126 9 is_stmt 1 view .LVU152
 654              		.loc 1 126 30 is_stmt 0 view .LVU153
 655 01fb E8FCFFFF 		call	rand@PLT
 655      FF
 656              	.LVL39:
 657              		.loc 1 126 53 view .LVU154
 658 0200 A801     		testb	$1, %al
 659 0202 0F842801 		je	.L22
 659      0000
 660              		.loc 1 127 21 view .LVU155
 661 0208 8B45C4   		movl	-60(%ebp), %eax
 662              		.loc 1 126 53 view .LVU156
 663 020b 8B4DCC   		movl	-52(%ebp), %ecx
 664              		.loc 1 127 21 view .LVU157
 665 020e 8945E4   		movl	%eax, -28(%ebp)
 666              	.L14:
 667              		.loc 1 130 13 view .LVU158
 668 0211 89F3     		movl	%esi, %ebx
 669 0213 894DD0   		movl	%ecx, -48(%ebp)
 670              	.LVL40:
 671              		.loc 1 130 9 is_stmt 1 view .LVU159
 672              		.loc 1 130 13 is_stmt 0 view .LVU160
 673 0216 E8FCFFFF 		call	rand@PLT
 673      FF
 674              	.LVL41:
GAS LISTING /tmp/ccRIPDwC.s 			page 15


 675              		.loc 1 130 12 view .LVU161
 676 021b 8B4DD0   		movl	-48(%ebp), %ecx
 677 021e A801     		testb	$1, %al
 678 0220 0F841A01 		je	.L15
 678      0000
 679              	.LBB122:
 680              		.loc 1 132 13 is_stmt 1 view .LVU162
 681              		.loc 1 133 13 view .LVU163
 682              		.loc 1 133 32 is_stmt 0 view .LVU164
 683 0226 8B960000 		movl	counter.0@GOTOFF(%esi), %edx
 683      0000
 684 022c 8D4201   		leal	1(%edx), %eax
 685 022f 89860000 		movl	%eax, counter.0@GOTOFF(%esi)
 685      0000
 686              	.LVL42:
 687              		.loc 1 134 13 is_stmt 1 view .LVU165
 688              	.LBB123:
 689              	.LBI123:
 690              		.loc 1 75 13 view .LVU166
 691              	.LBB124:
 692              		.loc 1 76 5 view .LVU167
 693              	.LBE124:
 694              	.LBE123:
 695              		.loc 1 135 17 is_stmt 0 view .LVU168
 696 0235 8B4708   		movl	8(%edi), %eax
 697 0238 8945D0   		movl	%eax, -48(%ebp)
 698              	.LBB126:
 699              	.LBB125:
 700              		.loc 1 76 8 view .LVU169
 701 023b 8B4134   		movl	52(%ecx), %eax
 702 023e 85C0     		testl	%eax, %eax
 703 0240 0F8F5A01 		jg	.L16
 703      0000
 704              		.loc 1 76 26 view .LVU170
 705 0246 8B5938   		movl	56(%ecx), %ebx
 706 0249 85DB     		testl	%ebx, %ebx
 707 024b 0F8F4F01 		jg	.L16
 707      0000
 708              		.loc 1 80 5 is_stmt 1 view .LVU171
 709              		.loc 1 80 12 is_stmt 0 view .LVU172
 710 0251 8B5930   		movl	48(%ecx), %ebx
 711              		.loc 1 80 8 view .LVU173
 712 0254 895DB0   		movl	%ebx, -80(%ebp)
 713 0257 83FB0A   		cmpl	$10, %ebx
 714 025a 0F844001 		je	.L16
 714      0000
 715              		.loc 1 84 5 is_stmt 1 view .LVU174
 716              		.loc 1 85 5 view .LVU175
 717              		.loc 1 85 18 is_stmt 0 view .LVU176
 718 0260 8B5928   		movl	40(%ecx), %ebx
 719              		.loc 1 85 26 view .LVU177
 720 0263 8955B8   		movl	%edx, -72(%ebp)
 721 0266 891499   		movl	%edx, (%ecx,%ebx,4)
 722              		.loc 1 86 5 is_stmt 1 view .LVU178
 723              		.loc 1 86 28 is_stmt 0 view .LVU179
 724 0269 83C301   		addl	$1, %ebx
 725              		.loc 1 86 33 view .LVU180
GAS LISTING /tmp/ccRIPDwC.s 			page 16


 726 026c BACDCCCC 		movl	$-858993459, %edx
 726      CC
 727              	.LVL43:
 728              		.loc 1 86 33 view .LVU181
 729 0271 89D8     		movl	%ebx, %eax
 730 0273 F7E2     		mull	%edx
 731 0275 C1EA03   		shrl	$3, %edx
 732 0278 8D0492   		leal	(%edx,%edx,4), %eax
 733 027b 01C0     		addl	%eax, %eax
 734 027d 29C3     		subl	%eax, %ebx
 735 027f 895928   		movl	%ebx, 40(%ecx)
 736              		.loc 1 87 5 is_stmt 1 view .LVU182
 737              		.loc 1 87 15 is_stmt 0 view .LVU183
 738 0282 8B5DB0   		movl	-80(%ebp), %ebx
 739 0285 83C301   		addl	$1, %ebx
 740 0288 895930   		movl	%ebx, 48(%ecx)
 741              		.loc 1 88 5 is_stmt 1 view .LVU184
 742              		.loc 1 90 5 view .LVU185
 743              	.LVL44:
 744              		.loc 1 90 5 is_stmt 0 view .LVU186
 745              	.LBE125:
 746              	.LBE126:
 747              		.loc 1 135 17 is_stmt 1 view .LVU187
 748 028b FF75B8   		pushl	-72(%ebp)
 749 028e FF75E4   		pushl	-28(%ebp)
 750 0291 FF75D0   		pushl	-48(%ebp)
 751 0294 FF75A8   		pushl	-88(%ebp)
 752 0297 E8FCFFFF 		call	safe_print
 752      FF
 753              	.LVL45:
 754 029c 83C410   		addl	$16, %esp
 755              	.LVL46:
 756              	.L17:
 757              		.loc 1 135 17 is_stmt 0 view .LVU188
 758              	.LBE122:
 759              		.loc 1 153 9 is_stmt 1 view .LVU189
 760              		.loc 1 153 24 is_stmt 0 view .LVU190
 761 029f 8B45E0   		movl	-32(%ebp), %eax
 762              		.loc 1 154 32 view .LVU191
 763 02a2 89F3     		movl	%esi, %ebx
 764              	.LBE121:
 765              	.LBE98:
 766              	.LBE97:
 767              		.loc 1 180 27 view .LVU192
 768 02a4 83C70C   		addl	$12, %edi
 769              	.LBB144:
 770              	.LBB142:
 771              	.LBB140:
 772              		.loc 1 153 24 view .LVU193
 773 02a7 8947F4   		movl	%eax, -12(%edi)
 774              		.loc 1 154 9 is_stmt 1 view .LVU194
 775              		.loc 1 154 32 is_stmt 0 view .LVU195
 776 02aa E8FCFFFF 		call	rand@PLT
 776      FF
 777              	.LVL47:
 778 02af 89C3     		movl	%eax, %ebx
 779              		.loc 1 154 39 view .LVU196
GAS LISTING /tmp/ccRIPDwC.s 			page 17


 780 02b1 B81F85EB 		movl	$1374389535, %eax
 780      51
 781 02b6 F7EB     		imull	%ebx
 782 02b8 89D8     		movl	%ebx, %eax
 783 02ba C1F81F   		sarl	$31, %eax
 784 02bd C1FA07   		sarl	$7, %edx
 785 02c0 29C2     		subl	%eax, %edx
 786 02c2 69D29001 		imull	$400, %edx, %edx
 786      0000
 787 02c8 29D3     		subl	%edx, %ebx
 788              		.loc 1 154 30 view .LVU197
 789 02ca 83C364   		addl	$100, %ebx
 790 02cd 895FF8   		movl	%ebx, -8(%edi)
 791              		.loc 1 154 30 view .LVU198
 792              	.LBE140:
 793              	.LBE142:
 794              	.LBE144:
 795              		.loc 1 180 42 is_stmt 1 view .LVU199
 796              		.loc 1 180 27 view .LVU200
 797 02d0 397DD4   		cmpl	%edi, -44(%ebp)
 798 02d3 0F85E3FE 		jne	.L19
 798      FFFF
 799              	.LVL48:
 800              	.L32:
 801              		.loc 1 180 27 is_stmt 0 view .LVU201
 802              	.LBE96:
 803              		.loc 1 185 9 is_stmt 1 view .LVU202
 804              		.loc 1 185 17 is_stmt 0 view .LVU203
 805 02d9 8B7DBC   		movl	-68(%ebp), %edi
 806 02dc 89F8     		movl	%edi, %eax
 807 02de 2B45B4   		subl	-76(%ebp), %eax
 808              		.loc 1 185 12 view .LVU204
 809 02e1 3DE70300 		cmpl	$999, %eax
 809      00
 810 02e6 7630     		jbe	.L20
 811              		.loc 1 186 13 is_stmt 1 view .LVU205
 812 02e8 83EC0C   		subl	$12, %esp
 813 02eb FF7594   		pushl	-108(%ebp)
 814 02ee E8FCFFFF 		call	safe_print
 814      FF
 815              	.LVL49:
 816              		.loc 1 187 13 view .LVU206
 817 02f3 8B55C4   		movl	-60(%ebp), %edx
 818 02f6 8B45CC   		movl	-52(%ebp), %eax
 819 02f9 E8FCFFFF 		call	buffer_print
 819      FF
 820              	.LVL50:
 821              		.loc 1 188 13 view .LVU207
 822 02fe 8B55C0   		movl	-64(%ebp), %edx
 823 0301 8B45C8   		movl	-56(%ebp), %eax
 824 0304 E8FCFFFF 		call	buffer_print
 824      FF
 825              	.LVL51:
 826              		.loc 1 189 13 view .LVU208
 827 0309 58       		popl	%eax
 828 030a FF7598   		pushl	-104(%ebp)
 829 030d E8FCFFFF 		call	safe_print
GAS LISTING /tmp/ccRIPDwC.s 			page 18


 829      FF
 830              	.LVL52:
 831              		.loc 1 190 13 view .LVU209
 832              		.loc 1 190 31 is_stmt 0 view .LVU210
 833 0312 897DB4   		movl	%edi, -76(%ebp)
 834              		.loc 1 189 13 view .LVU211
 835 0315 83C410   		addl	$16, %esp
 836              	.LVL53:
 837              	.L20:
 838              		.loc 1 194 9 is_stmt 1 view .LVU212
 839 0318 83EC0C   		subl	$12, %esp
 840 031b 89F3     		movl	%esi, %ebx
 841 031d 6A0A     		pushl	$10
 842 031f E8FCFFFF 		call	chThdSleep@PLT
 842      FF
 843              	.LVL54:
 844              	.LBE91:
 845              		.loc 1 176 11 view .LVU213
 846              		.loc 1 176 18 is_stmt 0 view .LVU214
 847 0324 83C410   		addl	$16, %esp
 848 0327 E974FEFF 		jmp	.L21
 848      FF
 849 032c 8D742600 		.p2align 4,,10
 850              		.p2align 3
 851              	.L22:
 852              	.LBB147:
 853              	.LBB146:
 854              	.LBB145:
 855              	.LBB143:
 856              	.LBB141:
 857              		.loc 1 127 21 view .LVU215
 858 0330 8B45C0   		movl	-64(%ebp), %eax
 859              		.loc 1 126 53 view .LVU216
 860 0333 8B4DC8   		movl	-56(%ebp), %ecx
 861              		.loc 1 127 21 view .LVU217
 862 0336 8945E4   		movl	%eax, -28(%ebp)
 863 0339 E9D3FEFF 		jmp	.L14
 863      FF
 864              	.LVL55:
 865 033e 6690     		.p2align 4,,10
 866              		.p2align 3
 867              	.L15:
 868              	.LBB127:
 869              		.loc 1 143 13 is_stmt 1 view .LVU218
 870              		.loc 1 144 13 view .LVU219
 871              	.LBB128:
 872              	.LBI128:
 873              		.loc 1 56 13 view .LVU220
 874              	.LBB129:
 875              		.loc 1 57 5 view .LVU221
 876              	.LBE129:
 877              	.LBE128:
 878              	.LBE127:
 879              	.LBB134:
 880              		.loc 1 135 17 is_stmt 0 view .LVU222
 881 0340 8B4708   		movl	8(%edi), %eax
 882              	.LBE134:
GAS LISTING /tmp/ccRIPDwC.s 			page 19


 883              	.LBB135:
 884              	.LBB132:
 885              	.LBB130:
 886              		.loc 1 57 8 view .LVU223
 887 0343 8B5138   		movl	56(%ecx), %edx
 888              	.LBE130:
 889              	.LBE132:
 890              	.LBE135:
 891              	.LBB136:
 892              		.loc 1 135 17 view .LVU224
 893 0346 8945D0   		movl	%eax, -48(%ebp)
 894              	.LBE136:
 895              	.LBB137:
 896              	.LBB133:
 897              	.LBB131:
 898              		.loc 1 57 8 view .LVU225
 899 0349 85D2     		testl	%edx, %edx
 900 034b 7F73     		jg	.L18
 901              		.loc 1 61 5 is_stmt 1 view .LVU226
 902              		.loc 1 61 12 is_stmt 0 view .LVU227
 903 034d 8B5930   		movl	48(%ecx), %ebx
 904              		.loc 1 61 8 view .LVU228
 905 0350 895DB8   		movl	%ebx, -72(%ebp)
 906 0353 85DB     		testl	%ebx, %ebx
 907 0355 7469     		je	.L18
 908              		.loc 1 65 5 is_stmt 1 view .LVU229
 909              		.loc 1 66 5 view .LVU230
 910              	.LVL56:
 911              		.loc 1 67 5 view .LVU231
 912              		.loc 1 66 27 is_stmt 0 view .LVU232
 913 0357 8B592C   		movl	44(%ecx), %ebx
 914              		.loc 1 66 23 view .LVU233
 915 035a 8B1499   		movl	(%ecx,%ebx,4), %edx
 916              		.loc 1 67 28 view .LVU234
 917 035d 83C301   		addl	$1, %ebx
 918              		.loc 1 67 33 view .LVU235
 919 0360 89D8     		movl	%ebx, %eax
 920              		.loc 1 66 23 view .LVU236
 921 0362 8955B0   		movl	%edx, -80(%ebp)
 922              	.LVL57:
 923              		.loc 1 67 33 view .LVU237
 924 0365 BACDCCCC 		movl	$-858993459, %edx
 924      CC
 925 036a F7E2     		mull	%edx
 926 036c C1EA03   		shrl	$3, %edx
 927 036f 8D0492   		leal	(%edx,%edx,4), %eax
 928 0372 01C0     		addl	%eax, %eax
 929 0374 29C3     		subl	%eax, %ebx
 930 0376 89592C   		movl	%ebx, 44(%ecx)
 931              		.loc 1 68 5 is_stmt 1 view .LVU238
 932              		.loc 1 68 15 is_stmt 0 view .LVU239
 933 0379 8B5DB8   		movl	-72(%ebp), %ebx
 934 037c 83EB01   		subl	$1, %ebx
 935 037f 895930   		movl	%ebx, 48(%ecx)
 936              		.loc 1 69 5 is_stmt 1 view .LVU240
 937              		.loc 1 71 5 view .LVU241
 938              	.LVL58:
GAS LISTING /tmp/ccRIPDwC.s 			page 20


 939              		.loc 1 71 5 is_stmt 0 view .LVU242
 940              	.LBE131:
 941              	.LBE133:
 942              		.loc 1 145 17 is_stmt 1 view .LVU243
 943 0382 FF75B0   		pushl	-80(%ebp)
 944 0385 FF75E4   		pushl	-28(%ebp)
 945 0388 FF75D0   		pushl	-48(%ebp)
 946 038b FF75A0   		pushl	-96(%ebp)
 947 038e E8FCFFFF 		call	safe_print
 947      FF
 948              	.LVL59:
 949 0393 83C410   		addl	$16, %esp
 950 0396 E904FFFF 		jmp	.L17
 950      FF
 951              	.LVL60:
 952 039b 8D742600 		.p2align 4,,10
 952      90
 953              		.p2align 3
 954              	.L16:
 955              		.loc 1 145 17 is_stmt 0 view .LVU244
 956              	.LBE137:
 957              	.LBB138:
 958              		.loc 1 138 17 is_stmt 1 view .LVU245
 959 03a0 83EC04   		subl	$4, %esp
 960 03a3 FF75E4   		pushl	-28(%ebp)
 961 03a6 FF75D0   		pushl	-48(%ebp)
 962 03a9 FF75A4   		pushl	-92(%ebp)
 963 03ac E8FCFFFF 		call	safe_print
 963      FF
 964              	.LVL61:
 965              		.loc 1 138 17 is_stmt 0 view .LVU246
 966 03b1 83C410   		addl	$16, %esp
 967 03b4 E9E6FEFF 		jmp	.L17
 967      FF
 968              	.LVL62:
 969 03b9 8DB42600 		.p2align 4,,10
 969      000000
 970              		.p2align 3
 971              	.L18:
 972              		.loc 1 138 17 view .LVU247
 973              	.LBE138:
 974              	.LBB139:
 975              		.loc 1 148 17 is_stmt 1 view .LVU248
 976 03c0 83EC04   		subl	$4, %esp
 977 03c3 FF75E4   		pushl	-28(%ebp)
 978 03c6 FF75D0   		pushl	-48(%ebp)
 979 03c9 FF759C   		pushl	-100(%ebp)
 980 03cc E8FCFFFF 		call	safe_print
 980      FF
 981              	.LVL63:
 982 03d1 83C410   		addl	$16, %esp
 983 03d4 E9C6FEFF 		jmp	.L17
 983      FF
 984              	.LBE139:
 985              	.LBE141:
 986              	.LBE143:
 987              	.LBE145:
GAS LISTING /tmp/ccRIPDwC.s 			page 21


 988              	.LBE146:
 989              	.LBE147:
 990              		.cfi_endproc
 991              	.LFE316:
 992              		.size	main, .-main
 993              		.section	.data.counter.0,"aw"
 994              		.align 4
 995              		.type	counter.0, @object
 996              		.size	counter.0, 4
 997              	counter.0:
 998 0000 01000000 		.long	1
 999              		.section	.bss.user_tasks,"aw",@nobits
 1000              		.align 32
 1001              		.type	user_tasks, @object
 1002              		.size	user_tasks, 120
 1003              	user_tasks:
 1004 0000 00000000 		.zero	120
 1004      00000000 
 1004      00000000 
 1004      00000000 
 1004      00000000 
 1005              		.section	.bss.buffer2,"aw",@nobits
 1006              		.align 32
 1007              		.type	buffer2, @object
 1008              		.size	buffer2, 60
 1009              	buffer2:
 1010 0000 00000000 		.zero	60
 1010      00000000 
 1010      00000000 
 1010      00000000 
 1010      00000000 
 1011              		.section	.bss.buffer1,"aw",@nobits
 1012              		.align 32
 1013              		.type	buffer1, @object
 1014              		.size	buffer1, 60
 1015              	buffer1:
 1016 0000 00000000 		.zero	60
 1016      00000000 
 1016      00000000 
 1016      00000000 
 1016      00000000 
 1017              		.section	.bss.print_mutex,"aw",@nobits
 1018              		.align 4
 1019              		.type	print_mutex, @object
 1020              		.size	print_mutex, 16
 1021              	print_mutex:
 1022 0000 00000000 		.zero	16
 1022      00000000 
 1022      00000000 
 1022      00000000 
 1023              		.section	.text.__x86.get_pc_thunk.bx,"axG",@progbits,__x86.get_pc_thunk.bx,comdat
 1024              		.globl	__x86.get_pc_thunk.bx
 1025              		.hidden	__x86.get_pc_thunk.bx
 1026              		.type	__x86.get_pc_thunk.bx, @function
 1027              	__x86.get_pc_thunk.bx:
 1028              	.LFB317:
 1029              		.cfi_startproc
GAS LISTING /tmp/ccRIPDwC.s 			page 22


 1030 0000 8B1C24   		movl	(%esp), %ebx
 1031 0003 C3       		ret
 1032              		.cfi_endproc
 1033              	.LFE317:
 1034              		.section	.text.__x86.get_pc_thunk.si,"axG",@progbits,__x86.get_pc_thunk.si,comdat
 1035              		.globl	__x86.get_pc_thunk.si
 1036              		.hidden	__x86.get_pc_thunk.si
 1037              		.type	__x86.get_pc_thunk.si, @function
 1038              	__x86.get_pc_thunk.si:
 1039              	.LFB318:
 1040              		.cfi_startproc
 1041 0000 8B3424   		movl	(%esp), %esi
 1042 0003 C3       		ret
 1043              		.cfi_endproc
 1044              	.LFE318:
 1045              		.text
 1046              	.Letext0:
 1047              		.file 5 "/usr/lib/gcc/x86_64-linux-gnu/11/include/stddef.h"
 1048              		.file 6 "/usr/include/bits/types.h"
 1049              		.file 7 "/usr/include/bits/stdint-intn.h"
 1050              		.file 8 "/usr/include/bits/stdint-uintn.h"
 1051              		.file 9 "../../../os/common/ports/SIMIA32/compilers/GCC/chtypes.h"
 1052              		.file 10 "../../../os/rt/include/chearly.h"
 1053              		.file 11 "../../../os/rt/include/chobjects.h"
 1054              		.file 12 "../../../os/rt/include/chrfcu.h"
 1055              		.file 13 "../../../os/rt/include/chdebug.h"
 1056              		.file 14 "../../../os/rt/include/chtime.h"
 1057              		.file 15 "../../../os/rt/include/chlists.h"
 1058              		.file 16 "../../../os/rt/include/chsem.h"
 1059              		.file 17 "../../../os/rt/include/chmtx.h"
 1060              		.file 18 "../../../os/rt/include/chevents.h"
 1061              		.file 19 "/usr/lib/gcc/x86_64-linux-gnu/11/include/stdarg.h"
 1062              		.file 20 "../../../os/hal/include/hal_streams.h"
 1063              		.file 21 "../../../os/hal/include/hal_queues.h"
 1064              		.file 22 "../../../os/hal/include/hal_serial.h"
 1065              		.file 23 "../../../os/hal/ports/simulator/posix/hal_serial_lld.h"
 1066              		.file 24 "../../../os/rt/include/chthreads.h"
 1067              		.file 25 "../../../os/hal/lib/streams/chprintf.h"
 1068              		.file 26 "../../../os/hal/include/hal.h"
 1069              		.file 27 "/usr/include/stdlib.h"
 5815 0036 2F686F6D 		.section	.note.GNU-stack,"",@progbits
 5815      652F616C 
 5815      65782F43 
 5815      68696269 
 5815      4F532F64 
GAS LISTING /tmp/ccRIPDwC.s 			page 114

