GAS LISTING /tmp/cccLQQXn.s 			page 1


   1              		.file	"oslib_test_sequence_006.c"
   2              		.text
   3              	.Ltext0:
   4              		.file 0 "/home/alex/ChibiOS/demos/various/LAB3_VARIANT3" "../../../test/oslib/source/test/oslib_te
   5              		.section	.text.obj_write,"ax",@progbits
   6              		.p2align 4
   7              		.type	obj_write, @function
   8              	obj_write:
   9              	.LVL0:
  10              	.LFB316:
  11              		.file 1 "../../../test/oslib/source/test/oslib_test_sequence_006.c"
  12              		.loc 1 82 35 view -0
  13              		.cfi_startproc
  14              		.loc 1 83 3 view .LVU1
  15              		.loc 1 84 3 view .LVU2
  16              		.loc 1 86 3 view .LVU3
  17              		.loc 1 82 35 is_stmt 0 view .LVU4
  18 0000 53       		pushl	%ebx
  19              		.cfi_def_cfa_offset 8
  20              		.cfi_offset 3, -8
  21 0001 E8FCFFFF 		call	__x86.get_pc_thunk.bx
  21      FF
  22 0006 81C30200 		addl	$_GLOBAL_OFFSET_TABLE_, %ebx
  22      0000
  23 000c 83EC14   		subl	$20, %esp
  24              		.cfi_def_cfa_offset 28
  25              		.loc 1 86 23 view .LVU5
  26 000f 8B442420 		movl	32(%esp), %eax
  27 0013 8B4014   		movl	20(%eax), %eax
  28 0016 83C041   		addl	$65, %eax
  29              		.loc 1 86 3 view .LVU6
  30 0019 0FBEC0   		movsbl	%al, %eax
  31 001c 50       		pushl	%eax
  32              		.cfi_def_cfa_offset 32
  33 001d E8FCFFFF 		call	test_emit_token@PLT
  33      FF
  34              	.LVL1:
  35              		.loc 1 88 3 is_stmt 1 view .LVU7
  36              		.loc 1 89 1 is_stmt 0 view .LVU8
  37 0022 83C418   		addl	$24, %esp
  38              		.cfi_def_cfa_offset 8
  39 0025 31C0     		xorl	%eax, %eax
  40 0027 5B       		popl	%ebx
  41              		.cfi_restore 3
  42              		.cfi_def_cfa_offset 4
  43 0028 C3       		ret
  44              		.cfi_endproc
  45              	.LFE316:
  46              		.size	obj_write, .-obj_write
  47              		.section	.text.obj_read,"ax",@progbits
  48              		.p2align 4
  49              		.type	obj_read, @function
  50              	obj_read:
  51              	.LVL2:
  52              	.LFB315:
  53              		.loc 1 67 34 is_stmt 1 view -0
  54              		.cfi_startproc
GAS LISTING /tmp/cccLQQXn.s 			page 2


  55              		.loc 1 69 3 view .LVU10
  56              		.loc 1 67 34 is_stmt 0 view .LVU11
  57 0000 57       		pushl	%edi
  58              		.cfi_def_cfa_offset 8
  59              		.cfi_offset 7, -8
  60 0001 56       		pushl	%esi
  61              		.cfi_def_cfa_offset 12
  62              		.cfi_offset 6, -12
  63 0002 53       		pushl	%ebx
  64              		.cfi_def_cfa_offset 16
  65              		.cfi_offset 3, -16
  66              		.loc 1 67 34 view .LVU12
  67 0003 8B742414 		movl	20(%esp), %esi
  68 0007 E8FCFFFF 		call	__x86.get_pc_thunk.bx
  68      FF
  69 000c 81C30200 		addl	$_GLOBAL_OFFSET_TABLE_, %ebx
  69      0000
  70 0012 8B7C2418 		movl	24(%esp), %edi
  71              		.loc 1 69 23 view .LVU13
  72 0016 0FB64614 		movzbl	20(%esi), %eax
  73              		.loc 1 69 3 view .LVU14
  74 001a 83EC0C   		subl	$12, %esp
  75              		.cfi_def_cfa_offset 28
  76              		.loc 1 69 23 view .LVU15
  77 001d 83C061   		addl	$97, %eax
  78              		.loc 1 69 3 view .LVU16
  79 0020 0FBEC0   		movsbl	%al, %eax
  80 0023 50       		pushl	%eax
  81              		.cfi_def_cfa_offset 32
  82 0024 E8FCFFFF 		call	test_emit_token@PLT
  82      FF
  83              	.LVL3:
  84              		.loc 1 71 3 is_stmt 1 view .LVU17
  85              		.loc 1 73 6 is_stmt 0 view .LVU18
  86 0029 89F8     		movl	%edi, %eax
  87              		.loc 1 71 19 view .LVU19
  88 002b 836624F7 		andl	$-9, 36(%esi)
  89              		.loc 1 73 3 is_stmt 1 view .LVU20
  90              		.loc 1 73 6 is_stmt 0 view .LVU21
  91 002f 83C410   		addl	$16, %esp
  92              		.cfi_def_cfa_offset 16
  93 0032 84C0     		testb	%al, %al
  94 0034 750A     		jne	.L7
  95              		.loc 1 77 3 is_stmt 1 view .LVU22
  96              		.loc 1 78 1 is_stmt 0 view .LVU23
  97 0036 5B       		popl	%ebx
  98              		.cfi_remember_state
  99              		.cfi_restore 3
 100              		.cfi_def_cfa_offset 12
 101 0037 31C0     		xorl	%eax, %eax
 102 0039 5E       		popl	%esi
 103              		.cfi_restore 6
 104              		.cfi_def_cfa_offset 8
 105 003a 5F       		popl	%edi
 106              		.cfi_restore 7
 107              		.cfi_def_cfa_offset 4
 108 003b C3       		ret
GAS LISTING /tmp/cccLQQXn.s 			page 3


 109 003c 8D742600 		.p2align 4,,10
 110              		.p2align 3
 111              	.L7:
 112              		.cfi_restore_state
 113              		.loc 1 74 5 is_stmt 1 view .LVU24
 114              	.LVL4:
 115              	.LBB23:
 116              	.LBI23:
 117              		.file 2 "../../../os/oslib/include/chobjcaches.h"
 118              		.loc 2 280 20 view .LVU25
 119              	.LBB24:
 120              		.loc 2 283 3 view .LVU26
 121              	.LBB25:
 122              	.LBI25:
 123              		.file 3 "../../../os/rt/include/chsys.h"
 124              		.loc 3 407 20 view .LVU27
 125              		.loc 3 409 3 view .LVU28
 126              	.LBB26:
 127              	.LBI26:
 128              		.file 4 "../../../os/common/ports/SIMIA32/chcore.h"
 129              		.loc 4 361 20 view .LVU29
 130              	.LBB27:
 131              		.loc 4 363 3 view .LVU30
 132              		.loc 4 363 16 is_stmt 0 view .LVU31
 133 0040 8BBB0000 		movl	port_irq_sts@GOT(%ebx), %edi
 133      0000
 134              	.LBE27:
 135              	.LBE26:
 136              	.LBE25:
 137              		.loc 2 284 3 view .LVU32
 138 0046 83EC08   		subl	$8, %esp
 139              		.cfi_def_cfa_offset 24
 140              	.LBB30:
 141              	.LBB29:
 142              	.LBB28:
 143              		.loc 4 363 16 view .LVU33
 144 0049 C7070100 		movl	$1, (%edi)
 144      0000
 145              	.LBE28:
 146              	.LBE29:
 147              		.loc 3 410 35 is_stmt 1 view .LVU34
 148              		.loc 3 411 21 view .LVU35
 149              	.LBE30:
 150              		.loc 2 284 3 view .LVU36
 151 004f 56       		pushl	%esi
 152              		.cfi_def_cfa_offset 28
 153 0050 FF74241C 		pushl	28(%esp)
 154              		.cfi_def_cfa_offset 32
 155 0054 E8FCFFFF 		call	chCacheReleaseObjectI@PLT
 155      FF
 156              	.LVL5:
 157              		.loc 2 285 3 view .LVU37
 158 0059 E8FCFFFF 		call	chSchRescheduleS@PLT
 158      FF
 159              	.LVL6:
 160              		.loc 2 286 3 view .LVU38
 161              	.LBB31:
GAS LISTING /tmp/cccLQQXn.s 			page 4


 162              	.LBI31:
 163              		.loc 3 421 20 view .LVU39
 164              	.LBB32:
 165              		.loc 3 423 23 view .LVU40
 166              		.loc 3 424 34 view .LVU41
 167              		.loc 3 430 3 view .LVU42
 168              		.loc 3 430 3 view .LVU43
 169              		.loc 3 430 3 view .LVU44
 170              		.loc 3 434 3 view .LVU45
 171              	.LBB33:
 172              	.LBI33:
 173              		.loc 4 370 20 view .LVU46
 174              	.LBB34:
 175              		.loc 4 372 3 view .LVU47
 176              	.LBE34:
 177              	.LBE33:
 178              	.LBE32:
 179              	.LBE31:
 180              		.loc 2 287 1 is_stmt 0 view .LVU48
 181 005e 83C410   		addl	$16, %esp
 182              		.cfi_def_cfa_offset 16
 183              	.LVL7:
 184              		.loc 2 287 1 view .LVU49
 185              	.LBE24:
 186              	.LBE23:
 187              		.loc 1 77 3 is_stmt 1 view .LVU50
 188              	.LBB40:
 189              	.LBB39:
 190              	.LBB38:
 191              	.LBB37:
 192              	.LBB36:
 193              	.LBB35:
 194              		.loc 4 372 16 is_stmt 0 view .LVU51
 195 0061 C7070000 		movl	$0, (%edi)
 195      0000
 196              	.LBE35:
 197              	.LBE36:
 198              	.LBE37:
 199              	.LBE38:
 200              	.LBE39:
 201              	.LBE40:
 202              		.loc 1 78 1 view .LVU52
 203 0067 31C0     		xorl	%eax, %eax
 204 0069 5B       		popl	%ebx
 205              		.cfi_restore 3
 206              		.cfi_def_cfa_offset 12
 207 006a 5E       		popl	%esi
 208              		.cfi_restore 6
 209              		.cfi_def_cfa_offset 8
 210 006b 5F       		popl	%edi
 211              		.cfi_restore 7
 212              		.cfi_def_cfa_offset 4
 213 006c C3       		ret
 214              		.cfi_endproc
 215              	.LFE315:
 216              		.size	obj_read, .-obj_read
 217              		.section	.rodata.oslib_test_006_001_execute.str1.1,"aMS",@progbits,1
GAS LISTING /tmp/cccLQQXn.s 			page 5


 218              	.LC0:
 219 0000 6E6F7420 		.string	"not in hash"
 219      696E2068 
 219      61736800 
 220              	.LC1:
 221 000c 73686F75 		.string	"should not be in sync"
 221      6C64206E 
 221      6F742062 
 221      6520696E 
 221      2073796E 
 222              	.LC2:
 223 0022 756E6578 		.string	"unexpected tokens"
 223      70656374 
 223      65642074 
 223      6F6B656E 
 223      7300
 224              	.LC3:
 225 0034 00       		.string	""
 226              	.LC4:
 227 0035 696E2073 		.string	"in sync"
 227      796E6300 
 228              	.LC5:
 229 003d 72657475 		.string	"returned error"
 229      726E6564 
 229      20657272 
 229      6F7200
 230              	.LC6:
 231 004c 6E6F7420 		.string	"not in sync"
 231      696E2073 
 231      796E6300 
 232              	.LC7:
 233 0058 61626364 		.string	"abcdefgh"
 233      65666768 
 233      00
 234              		.section	.text.oslib_test_006_001_execute,"ax",@progbits
 235              		.p2align 4
 236              		.type	oslib_test_006_001_execute, @function
 237              	oslib_test_006_001_execute:
 238              	.LFB317:
 239              		.loc 1 113 46 is_stmt 1 view -0
 240              		.cfi_startproc
 241              		.loc 1 116 3 view .LVU54
 242              		.loc 1 113 46 is_stmt 0 view .LVU55
 243 0000 55       		pushl	%ebp
 244              		.cfi_def_cfa_offset 8
 245              		.cfi_offset 5, -8
 246 0001 57       		pushl	%edi
 247              		.cfi_def_cfa_offset 12
 248              		.cfi_offset 7, -12
 249 0002 56       		pushl	%esi
 250              		.cfi_def_cfa_offset 16
 251              		.cfi_offset 6, -16
 252 0003 53       		pushl	%ebx
 253              		.cfi_def_cfa_offset 20
 254              		.cfi_offset 3, -20
 255 0004 E8FCFFFF 		call	__x86.get_pc_thunk.bx
 255      FF
GAS LISTING /tmp/cccLQQXn.s 			page 6


 256 0009 81C30200 		addl	$_GLOBAL_OFFSET_TABLE_, %ebx
 256      0000
 257 000f 83EC3C   		subl	$60, %esp
 258              		.cfi_def_cfa_offset 80
 259              		.loc 1 116 3 view .LVU56
 260 0012 8BBB0000 		movl	chtest@GOT(%ebx), %edi
 260      0000
 261              		.loc 1 118 5 view .LVU57
 262 0018 8D830000 		leal	obj_write@GOTOFF(%ebx), %eax
 262      0000
 263 001e 8DB30000 		leal	cache1@GOTOFF(%ebx), %esi
 263      0000
 264              		.loc 1 116 3 view .LVU58
 265 0024 897C2420 		movl	%edi, 32(%esp)
 266 0028 C7070100 		movl	$1, (%edi)
 266      0000
 267              		.loc 1 118 5 is_stmt 1 view .LVU59
 268 002e 50       		pushl	%eax
 269              		.cfi_def_cfa_offset 84
 270 002f 8D830000 		leal	obj_read@GOTOFF(%ebx), %eax
 270      0000
 271 0035 50       		pushl	%eax
 272              		.cfi_def_cfa_offset 88
 273 0036 8D830000 		leal	objects@GOTOFF(%ebx), %eax
 273      0000
 274 003c 50       		pushl	%eax
 275              		.cfi_def_cfa_offset 92
 276 003d 8D830000 		leal	hash_elements@GOTOFF(%ebx), %eax
 276      0000
 277 0043 6A3C     		pushl	$60
 278              		.cfi_def_cfa_offset 96
 279 0045 6A04     		pushl	$4
 280              		.cfi_def_cfa_offset 100
 281 0047 50       		pushl	%eax
 282              		.cfi_def_cfa_offset 104
 283 0048 6A08     		pushl	$8
 284              		.cfi_def_cfa_offset 108
 285 004a 56       		pushl	%esi
 286              		.cfi_def_cfa_offset 112
 287 004b E8FCFFFF 		call	chCacheObjectInit@PLT
 287      FF
 288              	.LVL8:
 289              		.loc 1 127 3 view .LVU60
 290              		.loc 1 127 19 view .LVU61
 291              		.loc 1 130 3 view .LVU62
 292 0050 83C420   		addl	$32, %esp
 293              		.cfi_def_cfa_offset 80
 294 0053 8D830000 		leal	.LC0@GOTOFF(%ebx), %eax
 294      0000
 295 0059 C7070200 		movl	$2, (%edi)
 295      0000
 296              	.LBB96:
 297              		.loc 1 132 5 view .LVU63
 298              		.loc 1 134 5 view .LVU64
 299              	.LVL9:
 300              		.loc 1 134 19 view .LVU65
 301 005f 89442410 		movl	%eax, 16(%esp)
GAS LISTING /tmp/cccLQQXn.s 			page 7


 302              	.LBB97:
 303              		.loc 1 138 7 is_stmt 0 view .LVU66
 304 0063 8D830000 		leal	.LC1@GOTOFF(%ebx), %eax
 304      0000
 305              	.LBE97:
 306              		.loc 1 134 12 view .LVU67
 307 0069 31FF     		xorl	%edi, %edi
 308              	.LBB123:
 309              		.loc 1 138 7 view .LVU68
 310 006b 89442414 		movl	%eax, 20(%esp)
 311              	.LBB98:
 312              	.LBB99:
 313              	.LBB100:
 314              	.LBB101:
 315              	.LBB102:
 316              		.loc 4 363 16 view .LVU69
 317 006f 8B830000 		movl	port_irq_sts@GOT(%ebx), %eax
 317      0000
 318 0075 8944240C 		movl	%eax, 12(%esp)
 319              	.LVL10:
 320 0079 8DB42600 		.p2align 4,,10
 320      000000
 321              		.p2align 3
 322              	.L12:
 323              		.loc 4 363 16 view .LVU70
 324              	.LBE102:
 325              	.LBE101:
 326              	.LBE100:
 327              	.LBE99:
 328              	.LBE98:
 329              		.loc 1 135 7 is_stmt 1 view .LVU71
 330              		.loc 1 135 28 is_stmt 0 view .LVU72
 331 0080 83EC04   		subl	$4, %esp
 332              		.cfi_def_cfa_offset 84
 333 0083 57       		pushl	%edi
 334              		.cfi_def_cfa_offset 88
 335 0084 6A00     		pushl	$0
 336              		.cfi_def_cfa_offset 92
 337 0086 56       		pushl	%esi
 338              		.cfi_def_cfa_offset 96
 339 0087 E8FCFFFF 		call	chCacheGetObject@PLT
 339      FF
 340              	.LVL11:
 341 008c 89C5     		movl	%eax, %ebp
 342              	.LVL12:
 343              		.loc 1 137 7 is_stmt 1 view .LVU73
 344 008e 58       		popl	%eax
 345              		.cfi_def_cfa_offset 92
 346              	.LVL13:
 347              		.loc 1 137 7 is_stmt 0 view .LVU74
 348 008f 5A       		popl	%edx
 349              		.cfi_def_cfa_offset 88
 350 0090 FF742418 		pushl	24(%esp)
 351              		.cfi_def_cfa_offset 92
 352 0094 8B4524   		movl	36(%ebp), %eax
 353 0097 D1E8     		shrl	%eax
 354 0099 83E001   		andl	$1, %eax
GAS LISTING /tmp/cccLQQXn.s 			page 8


 355 009c 50       		pushl	%eax
 356              		.cfi_def_cfa_offset 96
 357 009d E8FCFFFF 		call	__test_assert@PLT
 357      FF
 358              	.LVL14:
 359 00a2 83C410   		addl	$16, %esp
 360              		.cfi_def_cfa_offset 80
 361 00a5 84C0     		testb	%al, %al
 362 00a7 0F850B04 		jne	.L8
 362      0000
 363              		.loc 1 137 75 is_stmt 1 discriminator 2 view .LVU75
 364              		.loc 1 138 7 discriminator 2 view .LVU76
 365 00ad 83EC08   		subl	$8, %esp
 366              		.cfi_def_cfa_offset 88
 367 00b0 FF74241C 		pushl	28(%esp)
 368              		.cfi_def_cfa_offset 92
 369 00b4 8B4524   		movl	36(%ebp), %eax
 370 00b7 C1E803   		shrl	$3, %eax
 371 00ba 83E001   		andl	$1, %eax
 372 00bd 50       		pushl	%eax
 373              		.cfi_def_cfa_offset 96
 374 00be E8FCFFFF 		call	__test_assert@PLT
 374      FF
 375              	.LVL15:
 376 00c3 83C410   		addl	$16, %esp
 377              		.cfi_def_cfa_offset 80
 378 00c6 84C0     		testb	%al, %al
 379 00c8 0F85EA03 		jne	.L8
 379      0000
 380              		.loc 1 138 86 view .LVU77
 381              		.loc 1 140 7 view .LVU78
 382              	.LVL16:
 383              	.LBB120:
 384              	.LBI98:
 385              		.loc 2 280 20 view .LVU79
 386              	.LBB117:
 387              		.loc 2 283 3 view .LVU80
 388              	.LBB107:
 389              	.LBI100:
 390              		.loc 3 407 20 view .LVU81
 391              		.loc 3 409 3 view .LVU82
 392              	.LBB105:
 393              	.LBI101:
 394              		.loc 4 361 20 view .LVU83
 395              	.LBB103:
 396              		.loc 4 363 3 view .LVU84
 397              		.loc 4 363 16 is_stmt 0 view .LVU85
 398 00ce 8B44240C 		movl	12(%esp), %eax
 399              	.LBE103:
 400              	.LBE105:
 401              	.LBE107:
 402              		.loc 2 284 3 view .LVU86
 403 00d2 83EC08   		subl	$8, %esp
 404              		.cfi_def_cfa_offset 88
 405              	.LBE117:
 406              	.LBE120:
 407              	.LBE123:
GAS LISTING /tmp/cccLQQXn.s 			page 9


 408              		.loc 1 134 41 view .LVU87
 409 00d5 83C701   		addl	$1, %edi
 410              	.LVL17:
 411              	.LBB124:
 412              	.LBB121:
 413              	.LBB118:
 414              	.LBB108:
 415              	.LBB106:
 416              	.LBB104:
 417              		.loc 4 363 16 view .LVU88
 418 00d8 C7000100 		movl	$1, (%eax)
 418      0000
 419              	.LBE104:
 420              	.LBE106:
 421              		.loc 3 410 35 is_stmt 1 view .LVU89
 422              		.loc 3 411 21 view .LVU90
 423              	.LBE108:
 424              		.loc 2 284 3 view .LVU91
 425 00de 55       		pushl	%ebp
 426              		.cfi_def_cfa_offset 92
 427 00df 56       		pushl	%esi
 428              		.cfi_def_cfa_offset 96
 429 00e0 E8FCFFFF 		call	chCacheReleaseObjectI@PLT
 429      FF
 430              	.LVL18:
 431              		.loc 2 285 3 view .LVU92
 432 00e5 E8FCFFFF 		call	chSchRescheduleS@PLT
 432      FF
 433              	.LVL19:
 434              		.loc 2 286 3 view .LVU93
 435              	.LBB109:
 436              	.LBI109:
 437              		.loc 3 421 20 view .LVU94
 438              	.LBB110:
 439              		.loc 3 423 23 view .LVU95
 440              		.loc 3 424 34 view .LVU96
 441              		.loc 3 430 3 view .LVU97
 442              		.loc 3 430 3 view .LVU98
 443              		.loc 3 430 3 view .LVU99
 444              		.loc 3 434 3 view .LVU100
 445              	.LBB111:
 446              	.LBI111:
 447              		.loc 4 370 20 view .LVU101
 448              	.LBB112:
 449              		.loc 4 372 3 view .LVU102
 450              		.loc 4 372 16 is_stmt 0 view .LVU103
 451 00ea 8B44241C 		movl	28(%esp), %eax
 452              	.LBE112:
 453              	.LBE111:
 454              	.LBE110:
 455              	.LBE109:
 456              	.LBE118:
 457              	.LBE121:
 458              	.LBE124:
 459              		.loc 1 134 19 view .LVU104
 460 00ee 83C410   		addl	$16, %esp
 461              		.cfi_def_cfa_offset 80
GAS LISTING /tmp/cccLQQXn.s 			page 10


 462              	.LBB125:
 463              	.LBB122:
 464              	.LBB119:
 465              	.LBB116:
 466              	.LBB115:
 467              	.LBB114:
 468              	.LBB113:
 469              		.loc 4 372 16 view .LVU105
 470 00f1 C7000000 		movl	$0, (%eax)
 470      0000
 471              	.LVL20:
 472              		.loc 4 372 16 view .LVU106
 473              	.LBE113:
 474              	.LBE114:
 475              	.LBE115:
 476              	.LBE116:
 477              	.LBE119:
 478              	.LBE122:
 479              	.LBE125:
 480              		.loc 1 134 41 is_stmt 1 view .LVU107
 481              		.loc 1 134 19 view .LVU108
 482 00f7 83FF08   		cmpl	$8, %edi
 483 00fa 7584     		jne	.L12
 484              		.loc 1 143 5 view .LVU109
 485 00fc 83EC08   		subl	$8, %esp
 486              		.cfi_def_cfa_offset 88
 487 00ff 8D830000 		leal	.LC2@GOTOFF(%ebx), %eax
 487      0000
 488 0105 8944242C 		movl	%eax, 44(%esp)
 489 0109 50       		pushl	%eax
 490              		.cfi_def_cfa_offset 92
 491 010a 8D830000 		leal	.LC3@GOTOFF(%ebx), %eax
 491      0000
 492 0110 89442434 		movl	%eax, 52(%esp)
 493 0114 50       		pushl	%eax
 494              		.cfi_def_cfa_offset 96
 495 0115 E8FCFFFF 		call	__test_assert_sequence@PLT
 495      FF
 496              	.LVL21:
 497 011a 83C410   		addl	$16, %esp
 498              		.cfi_def_cfa_offset 80
 499 011d 84C0     		testb	%al, %al
 500 011f 0F859303 		jne	.L8
 500      0000
 501              		.loc 1 143 50 discriminator 2 view .LVU110
 502              	.LBE96:
 503              		.loc 1 145 3 discriminator 2 view .LVU111
 504              		.loc 1 145 19 discriminator 2 view .LVU112
 505              		.loc 1 149 3 discriminator 2 view .LVU113
 506 0125 8B442420 		movl	32(%esp), %eax
 507              	.LBB126:
 508              		.loc 1 154 12 is_stmt 0 discriminator 2 view .LVU114
 509 0129 31ED     		xorl	%ebp, %ebp
 510              	.LVL22:
 511              		.loc 1 154 12 discriminator 2 view .LVU115
 512              	.LBE126:
 513              		.loc 1 149 3 discriminator 2 view .LVU116
GAS LISTING /tmp/cccLQQXn.s 			page 11


 514 012b C7000300 		movl	$3, (%eax)
 514      0000
 515              	.LBB150:
 516              		.loc 1 151 5 is_stmt 1 discriminator 2 view .LVU117
 517              		.loc 1 152 5 discriminator 2 view .LVU118
 518              		.loc 1 154 5 discriminator 2 view .LVU119
 519              	.LVL23:
 520              		.loc 1 154 19 discriminator 2 view .LVU120
 521              	.LBB127:
 522              		.loc 1 158 7 is_stmt 0 discriminator 2 view .LVU121
 523 0131 8D830000 		leal	.LC4@GOTOFF(%ebx), %eax
 523      0000
 524 0137 89442414 		movl	%eax, 20(%esp)
 525              		.loc 1 162 7 discriminator 2 view .LVU122
 526 013b 8D830000 		leal	.LC5@GOTOFF(%ebx), %eax
 526      0000
 527 0141 89442418 		movl	%eax, 24(%esp)
 528              	.LVL24:
 529              	.L13:
 530              		.loc 1 155 7 is_stmt 1 view .LVU123
 531              		.loc 1 155 27 is_stmt 0 view .LVU124
 532 0145 83EC04   		subl	$4, %esp
 533              		.cfi_def_cfa_offset 84
 534 0148 55       		pushl	%ebp
 535              		.cfi_def_cfa_offset 88
 536 0149 6A00     		pushl	$0
 537              		.cfi_def_cfa_offset 92
 538 014b 56       		pushl	%esi
 539              		.cfi_def_cfa_offset 96
 540 014c E8FCFFFF 		call	chCacheGetObject@PLT
 540      FF
 541              	.LVL25:
 542              		.loc 1 157 7 view .LVU125
 543 0151 59       		popl	%ecx
 544              		.cfi_def_cfa_offset 92
 545              		.loc 1 155 27 view .LVU126
 546 0152 89C7     		movl	%eax, %edi
 547              	.LVL26:
 548              		.loc 1 157 7 is_stmt 1 view .LVU127
 549 0154 58       		popl	%eax
 550              		.cfi_def_cfa_offset 88
 551              	.LVL27:
 552              		.loc 1 157 7 is_stmt 0 view .LVU128
 553 0155 FF742418 		pushl	24(%esp)
 554              		.cfi_def_cfa_offset 92
 555 0159 8B4724   		movl	36(%edi), %eax
 556 015c D1E8     		shrl	%eax
 557 015e 83E001   		andl	$1, %eax
 558 0161 50       		pushl	%eax
 559              		.cfi_def_cfa_offset 96
 560 0162 E8FCFFFF 		call	__test_assert@PLT
 560      FF
 561              	.LVL28:
 562 0167 83C410   		addl	$16, %esp
 563              		.cfi_def_cfa_offset 80
 564 016a 84C0     		testb	%al, %al
 565 016c 0F854603 		jne	.L8
GAS LISTING /tmp/cccLQQXn.s 			page 12


 565      0000
 566              		.loc 1 157 75 is_stmt 1 discriminator 2 view .LVU129
 567              		.loc 1 158 7 discriminator 2 view .LVU130
 568 0172 83EC08   		subl	$8, %esp
 569              		.cfi_def_cfa_offset 88
 570 0175 FF74241C 		pushl	28(%esp)
 571              		.cfi_def_cfa_offset 92
 572 0179 8B4724   		movl	36(%edi), %eax
 573 017c C1E803   		shrl	$3, %eax
 574 017f 83E001   		andl	$1, %eax
 575 0182 50       		pushl	%eax
 576              		.cfi_def_cfa_offset 96
 577 0183 E8FCFFFF 		call	__test_assert@PLT
 577      FF
 578              	.LVL29:
 579 0188 83C410   		addl	$16, %esp
 580              		.cfi_def_cfa_offset 80
 581 018b 84C0     		testb	%al, %al
 582 018d 0F852503 		jne	.L8
 582      0000
 583              		.loc 1 158 72 discriminator 2 view .LVU131
 584              		.loc 1 160 7 discriminator 2 view .LVU132
 585              		.loc 1 160 15 is_stmt 0 discriminator 2 view .LVU133
 586 0193 83EC04   		subl	$4, %esp
 587              		.cfi_def_cfa_offset 84
 588 0196 6A00     		pushl	$0
 589              		.cfi_def_cfa_offset 88
 590 0198 57       		pushl	%edi
 591              		.cfi_def_cfa_offset 92
 592 0199 56       		pushl	%esi
 593              		.cfi_def_cfa_offset 96
 594 019a E8FCFFFF 		call	chCacheReadObject@PLT
 594      FF
 595              	.LVL30:
 596              		.loc 1 162 7 is_stmt 1 discriminator 2 view .LVU134
 597 019f 59       		popl	%ecx
 598              		.cfi_def_cfa_offset 92
 599 01a0 5A       		popl	%edx
 600              		.cfi_def_cfa_offset 88
 601 01a1 FF742420 		pushl	32(%esp)
 602              		.cfi_def_cfa_offset 92
 603 01a5 83F001   		xorl	$1, %eax
 604              	.LVL31:
 605              		.loc 1 162 7 is_stmt 0 discriminator 2 view .LVU135
 606 01a8 0FB6C0   		movzbl	%al, %eax
 607 01ab 50       		pushl	%eax
 608              		.cfi_def_cfa_offset 96
 609 01ac E8FCFFFF 		call	__test_assert@PLT
 609      FF
 610              	.LVL32:
 611 01b1 83C410   		addl	$16, %esp
 612              		.cfi_def_cfa_offset 80
 613 01b4 84C0     		testb	%al, %al
 614 01b6 0F85FC02 		jne	.L8
 614      0000
 615              		.loc 1 162 52 is_stmt 1 discriminator 2 view .LVU136
 616              		.loc 1 163 7 discriminator 2 view .LVU137
GAS LISTING /tmp/cccLQQXn.s 			page 13


 617 01bc 83EC08   		subl	$8, %esp
 618              		.cfi_def_cfa_offset 88
 619 01bf FF742418 		pushl	24(%esp)
 620              		.cfi_def_cfa_offset 92
 621 01c3 8B4724   		movl	36(%edi), %eax
 622 01c6 D1E8     		shrl	%eax
 623 01c8 83E001   		andl	$1, %eax
 624 01cb 50       		pushl	%eax
 625              		.cfi_def_cfa_offset 96
 626 01cc E8FCFFFF 		call	__test_assert@PLT
 626      FF
 627              	.LVL33:
 628 01d1 83C410   		addl	$16, %esp
 629              		.cfi_def_cfa_offset 80
 630 01d4 84C0     		testb	%al, %al
 631 01d6 0F85DC02 		jne	.L8
 631      0000
 632              		.loc 1 163 75 discriminator 2 view .LVU138
 633              		.loc 1 164 7 discriminator 2 view .LVU139
 634 01dc 83EC08   		subl	$8, %esp
 635              		.cfi_def_cfa_offset 88
 636 01df 8D830000 		leal	.LC6@GOTOFF(%ebx), %eax
 636      0000
 637 01e5 89442424 		movl	%eax, 36(%esp)
 638 01e9 50       		pushl	%eax
 639              		.cfi_def_cfa_offset 92
 640 01ea 8B4724   		movl	36(%edi), %eax
 641 01ed C1E803   		shrl	$3, %eax
 642 01f0 83F001   		xorl	$1, %eax
 643 01f3 83E001   		andl	$1, %eax
 644 01f6 50       		pushl	%eax
 645              		.cfi_def_cfa_offset 96
 646 01f7 E8FCFFFF 		call	__test_assert@PLT
 646      FF
 647              	.LVL34:
 648 01fc 83C410   		addl	$16, %esp
 649              		.cfi_def_cfa_offset 80
 650 01ff 84C0     		testb	%al, %al
 651 0201 0F85B102 		jne	.L8
 651      0000
 652              		.loc 1 164 76 view .LVU140
 653              		.loc 1 166 7 view .LVU141
 654              	.LVL35:
 655              	.LBB128:
 656              	.LBI128:
 657              		.loc 2 280 20 view .LVU142
 658              	.LBB129:
 659              		.loc 2 283 3 view .LVU143
 660              	.LBB130:
 661              	.LBI130:
 662              		.loc 3 407 20 view .LVU144
 663              		.loc 3 409 3 view .LVU145
 664              	.LBB131:
 665              	.LBI131:
 666              		.loc 4 361 20 view .LVU146
 667              	.LBB132:
 668              		.loc 4 363 3 view .LVU147
GAS LISTING /tmp/cccLQQXn.s 			page 14


 669              		.loc 4 363 16 is_stmt 0 view .LVU148
 670 0207 8B44240C 		movl	12(%esp), %eax
 671              	.LBE132:
 672              	.LBE131:
 673              	.LBE130:
 674              		.loc 2 284 3 view .LVU149
 675 020b 83EC08   		subl	$8, %esp
 676              		.cfi_def_cfa_offset 88
 677              	.LBE129:
 678              	.LBE128:
 679              	.LBE127:
 680              		.loc 1 154 41 view .LVU150
 681 020e 83C501   		addl	$1, %ebp
 682              	.LVL36:
 683              	.LBB148:
 684              	.LBB146:
 685              	.LBB144:
 686              	.LBB135:
 687              	.LBB134:
 688              	.LBB133:
 689              		.loc 4 363 16 view .LVU151
 690 0211 C7000100 		movl	$1, (%eax)
 690      0000
 691              	.LBE133:
 692              	.LBE134:
 693              		.loc 3 410 35 is_stmt 1 view .LVU152
 694              		.loc 3 411 21 view .LVU153
 695              	.LBE135:
 696              		.loc 2 284 3 view .LVU154
 697 0217 57       		pushl	%edi
 698              		.cfi_def_cfa_offset 92
 699 0218 56       		pushl	%esi
 700              		.cfi_def_cfa_offset 96
 701 0219 E8FCFFFF 		call	chCacheReleaseObjectI@PLT
 701      FF
 702              	.LVL37:
 703              		.loc 2 285 3 view .LVU155
 704 021e E8FCFFFF 		call	chSchRescheduleS@PLT
 704      FF
 705              	.LVL38:
 706              		.loc 2 286 3 view .LVU156
 707              	.LBB136:
 708              	.LBI136:
 709              		.loc 3 421 20 view .LVU157
 710              	.LBB137:
 711              		.loc 3 423 23 view .LVU158
 712              		.loc 3 424 34 view .LVU159
 713              		.loc 3 430 3 view .LVU160
 714              		.loc 3 430 3 view .LVU161
 715              		.loc 3 430 3 view .LVU162
 716              		.loc 3 434 3 view .LVU163
 717              	.LBB138:
 718              	.LBI138:
 719              		.loc 4 370 20 view .LVU164
 720              	.LBB139:
 721              		.loc 4 372 3 view .LVU165
 722              		.loc 4 372 16 is_stmt 0 view .LVU166
GAS LISTING /tmp/cccLQQXn.s 			page 15


 723 0223 8B44241C 		movl	28(%esp), %eax
 724              	.LBE139:
 725              	.LBE138:
 726              	.LBE137:
 727              	.LBE136:
 728              	.LBE144:
 729              	.LBE146:
 730              	.LBE148:
 731              		.loc 1 154 19 view .LVU167
 732 0227 83C410   		addl	$16, %esp
 733              		.cfi_def_cfa_offset 80
 734              	.LBB149:
 735              	.LBB147:
 736              	.LBB145:
 737              	.LBB143:
 738              	.LBB142:
 739              	.LBB141:
 740              	.LBB140:
 741              		.loc 4 372 16 view .LVU168
 742 022a C7000000 		movl	$0, (%eax)
 742      0000
 743              	.LVL39:
 744              		.loc 4 372 16 view .LVU169
 745              	.LBE140:
 746              	.LBE141:
 747              	.LBE142:
 748              	.LBE143:
 749              	.LBE145:
 750              	.LBE147:
 751              	.LBE149:
 752              		.loc 1 154 41 is_stmt 1 view .LVU170
 753              		.loc 1 154 19 view .LVU171
 754 0230 83FD08   		cmpl	$8, %ebp
 755 0233 0F850CFF 		jne	.L13
 755      FFFF
 756              		.loc 1 169 5 view .LVU172
 757 0239 83EC08   		subl	$8, %esp
 758              		.cfi_def_cfa_offset 88
 759 023c 8D830000 		leal	.LC7@GOTOFF(%ebx), %eax
 759      0000
 760 0242 FF74242C 		pushl	44(%esp)
 761              		.cfi_def_cfa_offset 92
 762 0246 89442438 		movl	%eax, 56(%esp)
 763 024a 50       		pushl	%eax
 764              		.cfi_def_cfa_offset 96
 765 024b E8FCFFFF 		call	__test_assert_sequence@PLT
 765      FF
 766              	.LVL40:
 767 0250 83C410   		addl	$16, %esp
 768              		.cfi_def_cfa_offset 80
 769 0253 84C0     		testb	%al, %al
 770 0255 0F855D02 		jne	.L8
 770      0000
 771              		.loc 1 169 58 discriminator 2 view .LVU173
 772              	.LBE150:
 773              		.loc 1 171 3 discriminator 2 view .LVU174
 774              		.loc 1 171 19 discriminator 2 view .LVU175
GAS LISTING /tmp/cccLQQXn.s 			page 16


 775              		.loc 1 175 3 discriminator 2 view .LVU176
 776 025b 8B442420 		movl	32(%esp), %eax
 777              	.LBB151:
 778              		.loc 1 180 12 is_stmt 0 discriminator 2 view .LVU177
 779 025f 31FF     		xorl	%edi, %edi
 780              	.LVL41:
 781              		.loc 1 180 12 discriminator 2 view .LVU178
 782              	.LBE151:
 783              		.loc 1 175 3 discriminator 2 view .LVU179
 784 0261 C7000400 		movl	$4, (%eax)
 784      0000
 785              	.LBB175:
 786              		.loc 1 177 5 is_stmt 1 discriminator 2 view .LVU180
 787              		.loc 1 178 5 discriminator 2 view .LVU181
 788              		.loc 1 180 5 discriminator 2 view .LVU182
 789              	.LVL42:
 790              		.loc 1 180 19 discriminator 2 view .LVU183
 791              	.L14:
 792              	.LBB152:
 793              		.loc 1 181 7 view .LVU184
 794              		.loc 1 181 27 is_stmt 0 view .LVU185
 795 0267 83EC04   		subl	$4, %esp
 796              		.cfi_def_cfa_offset 84
 797 026a 57       		pushl	%edi
 798              		.cfi_def_cfa_offset 88
 799 026b 6A00     		pushl	$0
 800              		.cfi_def_cfa_offset 92
 801 026d 56       		pushl	%esi
 802              		.cfi_def_cfa_offset 96
 803 026e E8FCFFFF 		call	chCacheGetObject@PLT
 803      FF
 804              	.LVL43:
 805 0273 89C5     		movl	%eax, %ebp
 806              	.LVL44:
 807              		.loc 1 183 7 is_stmt 1 view .LVU186
 808 0275 58       		popl	%eax
 809              		.cfi_def_cfa_offset 92
 810              	.LVL45:
 811              		.loc 1 183 7 is_stmt 0 view .LVU187
 812 0276 5A       		popl	%edx
 813              		.cfi_def_cfa_offset 88
 814 0277 FF742418 		pushl	24(%esp)
 815              		.cfi_def_cfa_offset 92
 816 027b 8B4524   		movl	36(%ebp), %eax
 817 027e D1E8     		shrl	%eax
 818 0280 83E001   		andl	$1, %eax
 819 0283 50       		pushl	%eax
 820              		.cfi_def_cfa_offset 96
 821 0284 E8FCFFFF 		call	__test_assert@PLT
 821      FF
 822              	.LVL46:
 823 0289 83C410   		addl	$16, %esp
 824              		.cfi_def_cfa_offset 80
 825 028c 84C0     		testb	%al, %al
 826 028e 0F852402 		jne	.L8
 826      0000
 827              		.loc 1 183 75 is_stmt 1 discriminator 2 view .LVU188
GAS LISTING /tmp/cccLQQXn.s 			page 17


 828              		.loc 1 184 7 discriminator 2 view .LVU189
 829 0294 83EC08   		subl	$8, %esp
 830              		.cfi_def_cfa_offset 88
 831 0297 FF74241C 		pushl	28(%esp)
 832              		.cfi_def_cfa_offset 92
 833 029b 8B4524   		movl	36(%ebp), %eax
 834 029e C1E803   		shrl	$3, %eax
 835 02a1 83E001   		andl	$1, %eax
 836 02a4 50       		pushl	%eax
 837              		.cfi_def_cfa_offset 96
 838 02a5 E8FCFFFF 		call	__test_assert@PLT
 838      FF
 839              	.LVL47:
 840 02aa 83C410   		addl	$16, %esp
 841              		.cfi_def_cfa_offset 80
 842 02ad 84C0     		testb	%al, %al
 843 02af 0F850302 		jne	.L8
 843      0000
 844              		.loc 1 184 72 discriminator 2 view .LVU190
 845              		.loc 1 186 7 discriminator 2 view .LVU191
 846              		.loc 1 186 15 is_stmt 0 discriminator 2 view .LVU192
 847 02b5 83EC04   		subl	$4, %esp
 848              		.cfi_def_cfa_offset 84
 849 02b8 6A01     		pushl	$1
 850              		.cfi_def_cfa_offset 88
 851 02ba 55       		pushl	%ebp
 852              		.cfi_def_cfa_offset 92
 853 02bb 56       		pushl	%esi
 854              		.cfi_def_cfa_offset 96
 855 02bc E8FCFFFF 		call	chCacheReadObject@PLT
 855      FF
 856              	.LVL48:
 857              		.loc 1 188 7 is_stmt 1 discriminator 2 view .LVU193
 858 02c1 59       		popl	%ecx
 859              		.cfi_def_cfa_offset 92
 860 02c2 5D       		popl	%ebp
 861              		.cfi_def_cfa_offset 88
 862              	.LVL49:
 863              		.loc 1 188 7 is_stmt 0 discriminator 2 view .LVU194
 864 02c3 FF742420 		pushl	32(%esp)
 865              		.cfi_def_cfa_offset 92
 866 02c7 83F001   		xorl	$1, %eax
 867              	.LVL50:
 868              		.loc 1 188 7 discriminator 2 view .LVU195
 869 02ca 0FB6C0   		movzbl	%al, %eax
 870 02cd 50       		pushl	%eax
 871              		.cfi_def_cfa_offset 96
 872 02ce E8FCFFFF 		call	__test_assert@PLT
 872      FF
 873              	.LVL51:
 874 02d3 83C410   		addl	$16, %esp
 875              		.cfi_def_cfa_offset 80
 876 02d6 84C0     		testb	%al, %al
 877 02d8 0F85DA01 		jne	.L8
 877      0000
 878              		.loc 1 188 52 is_stmt 1 discriminator 2 view .LVU196
 879              		.loc 1 190 7 discriminator 2 view .LVU197
GAS LISTING /tmp/cccLQQXn.s 			page 18


 880              		.loc 1 190 14 is_stmt 0 discriminator 2 view .LVU198
 881 02de 83EC04   		subl	$4, %esp
 882              		.cfi_def_cfa_offset 84
 883 02e1 57       		pushl	%edi
 884              		.cfi_def_cfa_offset 88
 885 02e2 6A00     		pushl	$0
 886              		.cfi_def_cfa_offset 92
 887 02e4 56       		pushl	%esi
 888              		.cfi_def_cfa_offset 96
 889 02e5 E8FCFFFF 		call	chCacheGetObject@PLT
 889      FF
 890              	.LVL52:
 891 02ea 89C5     		movl	%eax, %ebp
 892              	.LVL53:
 893              		.loc 1 192 7 is_stmt 1 discriminator 2 view .LVU199
 894 02ec 58       		popl	%eax
 895              		.cfi_def_cfa_offset 92
 896              	.LVL54:
 897              		.loc 1 192 7 is_stmt 0 discriminator 2 view .LVU200
 898 02ed 5A       		popl	%edx
 899              		.cfi_def_cfa_offset 88
 900 02ee FF742418 		pushl	24(%esp)
 901              		.cfi_def_cfa_offset 92
 902 02f2 8B4524   		movl	36(%ebp), %eax
 903 02f5 D1E8     		shrl	%eax
 904 02f7 83E001   		andl	$1, %eax
 905 02fa 50       		pushl	%eax
 906              		.cfi_def_cfa_offset 96
 907 02fb E8FCFFFF 		call	__test_assert@PLT
 907      FF
 908              	.LVL55:
 909 0300 83C410   		addl	$16, %esp
 910              		.cfi_def_cfa_offset 80
 911 0303 84C0     		testb	%al, %al
 912 0305 0F85AD01 		jne	.L8
 912      0000
 913              		.loc 1 192 75 is_stmt 1 discriminator 2 view .LVU201
 914              		.loc 1 193 7 discriminator 2 view .LVU202
 915 030b 83EC08   		subl	$8, %esp
 916              		.cfi_def_cfa_offset 88
 917 030e FF742424 		pushl	36(%esp)
 918              		.cfi_def_cfa_offset 92
 919 0312 8B4524   		movl	36(%ebp), %eax
 920 0315 C1E803   		shrl	$3, %eax
 921 0318 83F001   		xorl	$1, %eax
 922 031b 83E001   		andl	$1, %eax
 923 031e 50       		pushl	%eax
 924              		.cfi_def_cfa_offset 96
 925 031f E8FCFFFF 		call	__test_assert@PLT
 925      FF
 926              	.LVL56:
 927 0324 83C410   		addl	$16, %esp
 928              		.cfi_def_cfa_offset 80
 929 0327 84C0     		testb	%al, %al
 930 0329 0F858901 		jne	.L8
 930      0000
 931              		.loc 1 193 76 view .LVU203
GAS LISTING /tmp/cccLQQXn.s 			page 19


 932              		.loc 1 195 7 view .LVU204
 933              	.LVL57:
 934              	.LBB153:
 935              	.LBI153:
 936              		.loc 2 280 20 view .LVU205
 937              	.LBB154:
 938              		.loc 2 283 3 view .LVU206
 939              	.LBB155:
 940              	.LBI155:
 941              		.loc 3 407 20 view .LVU207
 942              		.loc 3 409 3 view .LVU208
 943              	.LBB156:
 944              	.LBI156:
 945              		.loc 4 361 20 view .LVU209
 946              	.LBB157:
 947              		.loc 4 363 3 view .LVU210
 948              		.loc 4 363 16 is_stmt 0 view .LVU211
 949 032f 8B44240C 		movl	12(%esp), %eax
 950              	.LBE157:
 951              	.LBE156:
 952              	.LBE155:
 953              		.loc 2 284 3 view .LVU212
 954 0333 83EC08   		subl	$8, %esp
 955              		.cfi_def_cfa_offset 88
 956              	.LBE154:
 957              	.LBE153:
 958              	.LBE152:
 959              		.loc 1 180 41 view .LVU213
 960 0336 83C701   		addl	$1, %edi
 961              	.LVL58:
 962              	.LBB173:
 963              	.LBB171:
 964              	.LBB169:
 965              	.LBB160:
 966              	.LBB159:
 967              	.LBB158:
 968              		.loc 4 363 16 view .LVU214
 969 0339 C7000100 		movl	$1, (%eax)
 969      0000
 970              	.LBE158:
 971              	.LBE159:
 972              		.loc 3 410 35 is_stmt 1 view .LVU215
 973              		.loc 3 411 21 view .LVU216
 974              	.LBE160:
 975              		.loc 2 284 3 view .LVU217
 976 033f 55       		pushl	%ebp
 977              		.cfi_def_cfa_offset 92
 978 0340 56       		pushl	%esi
 979              		.cfi_def_cfa_offset 96
 980 0341 E8FCFFFF 		call	chCacheReleaseObjectI@PLT
 980      FF
 981              	.LVL59:
 982              		.loc 2 285 3 view .LVU218
 983 0346 E8FCFFFF 		call	chSchRescheduleS@PLT
 983      FF
 984              	.LVL60:
 985              		.loc 2 286 3 view .LVU219
GAS LISTING /tmp/cccLQQXn.s 			page 20


 986              	.LBB161:
 987              	.LBI161:
 988              		.loc 3 421 20 view .LVU220
 989              	.LBB162:
 990              		.loc 3 423 23 view .LVU221
 991              		.loc 3 424 34 view .LVU222
 992              		.loc 3 430 3 view .LVU223
 993              		.loc 3 430 3 view .LVU224
 994              		.loc 3 430 3 view .LVU225
 995              		.loc 3 434 3 view .LVU226
 996              	.LBB163:
 997              	.LBI163:
 998              		.loc 4 370 20 view .LVU227
 999              	.LBB164:
 1000              		.loc 4 372 3 view .LVU228
 1001              		.loc 4 372 16 is_stmt 0 view .LVU229
 1002 034b 8B44241C 		movl	28(%esp), %eax
 1003              	.LBE164:
 1004              	.LBE163:
 1005              	.LBE162:
 1006              	.LBE161:
 1007              	.LBE169:
 1008              	.LBE171:
 1009              	.LBE173:
 1010              		.loc 1 180 19 view .LVU230
 1011 034f 83C410   		addl	$16, %esp
 1012              		.cfi_def_cfa_offset 80
 1013              	.LBB174:
 1014              	.LBB172:
 1015              	.LBB170:
 1016              	.LBB168:
 1017              	.LBB167:
 1018              	.LBB166:
 1019              	.LBB165:
 1020              		.loc 4 372 16 view .LVU231
 1021 0352 C7000000 		movl	$0, (%eax)
 1021      0000
 1022              	.LVL61:
 1023              		.loc 4 372 16 view .LVU232
 1024              	.LBE165:
 1025              	.LBE166:
 1026              	.LBE167:
 1027              	.LBE168:
 1028              	.LBE170:
 1029              	.LBE172:
 1030              	.LBE174:
 1031              		.loc 1 180 41 is_stmt 1 view .LVU233
 1032              		.loc 1 180 19 view .LVU234
 1033 0358 83FF08   		cmpl	$8, %edi
 1034 035b 0F8506FF 		jne	.L14
 1034      FFFF
 1035              		.loc 1 198 5 view .LVU235
 1036 0361 83EC08   		subl	$8, %esp
 1037              		.cfi_def_cfa_offset 88
 1038 0364 FF74242C 		pushl	44(%esp)
 1039              		.cfi_def_cfa_offset 92
 1040 0368 FF742438 		pushl	56(%esp)
GAS LISTING /tmp/cccLQQXn.s 			page 21


 1041              		.cfi_def_cfa_offset 96
 1042 036c E8FCFFFF 		call	__test_assert_sequence@PLT
 1042      FF
 1043              	.LVL62:
 1044 0371 83C410   		addl	$16, %esp
 1045              		.cfi_def_cfa_offset 80
 1046 0374 84C0     		testb	%al, %al
 1047 0376 0F853C01 		jne	.L8
 1047      0000
 1048              		.loc 1 198 58 discriminator 2 view .LVU236
 1049              	.LBE175:
 1050              		.loc 1 200 3 discriminator 2 view .LVU237
 1051              		.loc 1 200 19 discriminator 2 view .LVU238
 1052              		.loc 1 203 3 discriminator 2 view .LVU239
 1053 037c 8B442420 		movl	32(%esp), %eax
 1054              	.LBB176:
 1055              		.loc 1 207 12 is_stmt 0 discriminator 2 view .LVU240
 1056 0380 BD040000 		movl	$4, %ebp
 1056      00
 1057              	.LVL63:
 1058              		.loc 1 207 12 discriminator 2 view .LVU241
 1059              	.LBE176:
 1060              		.loc 1 203 3 discriminator 2 view .LVU242
 1061 0385 C7000500 		movl	$5, (%eax)
 1061      0000
 1062              	.LBB200:
 1063              		.loc 1 205 5 is_stmt 1 discriminator 2 view .LVU243
 1064              		.loc 1 207 5 discriminator 2 view .LVU244
 1065              	.LVL64:
 1066              		.loc 1 207 29 discriminator 2 view .LVU245
 1067              	.L15:
 1068              	.LBB177:
 1069              		.loc 1 208 7 view .LVU246
 1070              		.loc 1 208 27 is_stmt 0 view .LVU247
 1071 038b 83EC04   		subl	$4, %esp
 1072              		.cfi_def_cfa_offset 84
 1073 038e 55       		pushl	%ebp
 1074              		.cfi_def_cfa_offset 88
 1075 038f 6A00     		pushl	$0
 1076              		.cfi_def_cfa_offset 92
 1077 0391 56       		pushl	%esi
 1078              		.cfi_def_cfa_offset 96
 1079 0392 E8FCFFFF 		call	chCacheGetObject@PLT
 1079      FF
 1080              	.LVL65:
 1081              		.loc 1 210 7 view .LVU248
 1082 0397 59       		popl	%ecx
 1083              		.cfi_def_cfa_offset 92
 1084              		.loc 1 208 27 view .LVU249
 1085 0398 89C7     		movl	%eax, %edi
 1086              	.LVL66:
 1087              		.loc 1 210 7 is_stmt 1 view .LVU250
 1088 039a 58       		popl	%eax
 1089              		.cfi_def_cfa_offset 88
 1090              	.LVL67:
 1091              		.loc 1 210 7 is_stmt 0 view .LVU251
 1092 039b FF742418 		pushl	24(%esp)
GAS LISTING /tmp/cccLQQXn.s 			page 22


 1093              		.cfi_def_cfa_offset 92
 1094 039f 8B4724   		movl	36(%edi), %eax
 1095 03a2 D1E8     		shrl	%eax
 1096 03a4 83E001   		andl	$1, %eax
 1097 03a7 50       		pushl	%eax
 1098              		.cfi_def_cfa_offset 96
 1099 03a8 E8FCFFFF 		call	__test_assert@PLT
 1099      FF
 1100              	.LVL68:
 1101 03ad 83C410   		addl	$16, %esp
 1102              		.cfi_def_cfa_offset 80
 1103 03b0 84C0     		testb	%al, %al
 1104 03b2 0F850001 		jne	.L8
 1104      0000
 1105              		.loc 1 210 75 is_stmt 1 discriminator 2 view .LVU252
 1106              		.loc 1 211 7 discriminator 2 view .LVU253
 1107 03b8 83EC08   		subl	$8, %esp
 1108              		.cfi_def_cfa_offset 88
 1109 03bb FF742424 		pushl	36(%esp)
 1110              		.cfi_def_cfa_offset 92
 1111 03bf 8B4724   		movl	36(%edi), %eax
 1112 03c2 C1E803   		shrl	$3, %eax
 1113 03c5 83F001   		xorl	$1, %eax
 1114 03c8 83E001   		andl	$1, %eax
 1115 03cb 50       		pushl	%eax
 1116              		.cfi_def_cfa_offset 96
 1117 03cc E8FCFFFF 		call	__test_assert@PLT
 1117      FF
 1118              	.LVL69:
 1119 03d1 83C410   		addl	$16, %esp
 1120              		.cfi_def_cfa_offset 80
 1121 03d4 84C0     		testb	%al, %al
 1122 03d6 0F85DC00 		jne	.L8
 1122      0000
 1123              		.loc 1 211 76 view .LVU254
 1124              		.loc 1 213 7 view .LVU255
 1125              	.LVL70:
 1126              	.LBB178:
 1127              	.LBI178:
 1128              		.loc 2 280 20 view .LVU256
 1129              	.LBB179:
 1130              		.loc 2 283 3 view .LVU257
 1131              	.LBB180:
 1132              	.LBI180:
 1133              		.loc 3 407 20 view .LVU258
 1134              		.loc 3 409 3 view .LVU259
 1135              	.LBB181:
 1136              	.LBI181:
 1137              		.loc 4 361 20 view .LVU260
 1138              	.LBB182:
 1139              		.loc 4 363 3 view .LVU261
 1140              		.loc 4 363 16 is_stmt 0 view .LVU262
 1141 03dc 8B44240C 		movl	12(%esp), %eax
 1142              	.LBE182:
 1143              	.LBE181:
 1144              	.LBE180:
 1145              		.loc 2 284 3 view .LVU263
GAS LISTING /tmp/cccLQQXn.s 			page 23


 1146 03e0 83EC08   		subl	$8, %esp
 1147              		.cfi_def_cfa_offset 88
 1148              	.LBE179:
 1149              	.LBE178:
 1150              	.LBE177:
 1151              		.loc 1 207 51 view .LVU264
 1152 03e3 83C501   		addl	$1, %ebp
 1153              	.LVL71:
 1154              	.LBB198:
 1155              	.LBB196:
 1156              	.LBB194:
 1157              	.LBB185:
 1158              	.LBB184:
 1159              	.LBB183:
 1160              		.loc 4 363 16 view .LVU265
 1161 03e6 C7000100 		movl	$1, (%eax)
 1161      0000
 1162              	.LBE183:
 1163              	.LBE184:
 1164              		.loc 3 410 35 is_stmt 1 view .LVU266
 1165              		.loc 3 411 21 view .LVU267
 1166              	.LBE185:
 1167              		.loc 2 284 3 view .LVU268
 1168 03ec 57       		pushl	%edi
 1169              		.cfi_def_cfa_offset 92
 1170 03ed 56       		pushl	%esi
 1171              		.cfi_def_cfa_offset 96
 1172 03ee E8FCFFFF 		call	chCacheReleaseObjectI@PLT
 1172      FF
 1173              	.LVL72:
 1174              		.loc 2 285 3 view .LVU269
 1175 03f3 E8FCFFFF 		call	chSchRescheduleS@PLT
 1175      FF
 1176              	.LVL73:
 1177              		.loc 2 286 3 view .LVU270
 1178              	.LBB186:
 1179              	.LBI186:
 1180              		.loc 3 421 20 view .LVU271
 1181              	.LBB187:
 1182              		.loc 3 423 23 view .LVU272
 1183              		.loc 3 424 34 view .LVU273
 1184              		.loc 3 430 3 view .LVU274
 1185              		.loc 3 430 3 view .LVU275
 1186              		.loc 3 430 3 view .LVU276
 1187              		.loc 3 434 3 view .LVU277
 1188              	.LBB188:
 1189              	.LBI188:
 1190              		.loc 4 370 20 view .LVU278
 1191              	.LBB189:
 1192              		.loc 4 372 3 view .LVU279
 1193              		.loc 4 372 16 is_stmt 0 view .LVU280
 1194 03f8 8B44241C 		movl	28(%esp), %eax
 1195              	.LBE189:
 1196              	.LBE188:
 1197              	.LBE187:
 1198              	.LBE186:
 1199              	.LBE194:
GAS LISTING /tmp/cccLQQXn.s 			page 24


 1200              	.LBE196:
 1201              	.LBE198:
 1202              		.loc 1 207 29 view .LVU281
 1203 03fc 83C410   		addl	$16, %esp
 1204              		.cfi_def_cfa_offset 80
 1205              	.LBB199:
 1206              	.LBB197:
 1207              	.LBB195:
 1208              	.LBB193:
 1209              	.LBB192:
 1210              	.LBB191:
 1211              	.LBB190:
 1212              		.loc 4 372 16 view .LVU282
 1213 03ff C7000000 		movl	$0, (%eax)
 1213      0000
 1214              	.LVL74:
 1215              		.loc 4 372 16 view .LVU283
 1216              	.LBE190:
 1217              	.LBE191:
 1218              	.LBE192:
 1219              	.LBE193:
 1220              	.LBE195:
 1221              	.LBE197:
 1222              	.LBE199:
 1223              		.loc 1 207 51 is_stmt 1 view .LVU284
 1224              		.loc 1 207 29 view .LVU285
 1225 0405 83FD08   		cmpl	$8, %ebp
 1226 0408 7581     		jne	.L15
 1227              		.loc 1 216 5 view .LVU286
 1228 040a 83EC08   		subl	$8, %esp
 1229              		.cfi_def_cfa_offset 88
 1230 040d FF74242C 		pushl	44(%esp)
 1231              		.cfi_def_cfa_offset 92
 1232 0411 FF742434 		pushl	52(%esp)
 1233              		.cfi_def_cfa_offset 96
 1234 0415 E8FCFFFF 		call	__test_assert_sequence@PLT
 1234      FF
 1235              	.LVL75:
 1236 041a 83C410   		addl	$16, %esp
 1237              		.cfi_def_cfa_offset 80
 1238 041d 84C0     		testb	%al, %al
 1239 041f 0F859300 		jne	.L8
 1239      0000
 1240              		.loc 1 216 50 discriminator 2 view .LVU287
 1241              	.LBE200:
 1242              		.loc 1 218 3 discriminator 2 view .LVU288
 1243              		.loc 1 218 19 discriminator 2 view .LVU289
 1244              		.loc 1 221 3 discriminator 2 view .LVU290
 1245 0425 8B442420 		movl	32(%esp), %eax
 1246              	.LBB201:
 1247              		.loc 1 225 12 is_stmt 0 discriminator 2 view .LVU291
 1248 0429 31ED     		xorl	%ebp, %ebp
 1249              	.LVL76:
 1250              		.loc 1 225 12 discriminator 2 view .LVU292
 1251              	.LBE201:
 1252              		.loc 1 221 3 discriminator 2 view .LVU293
 1253 042b C7000600 		movl	$6, (%eax)
GAS LISTING /tmp/cccLQQXn.s 			page 25


 1253      0000
 1254              	.LBB225:
 1255              		.loc 1 223 5 is_stmt 1 discriminator 2 view .LVU294
 1256              		.loc 1 225 5 discriminator 2 view .LVU295
 1257              	.LVL77:
 1258              		.loc 1 225 19 discriminator 2 view .LVU296
 1259              	.L16:
 1260              	.LBB202:
 1261              		.loc 1 226 7 view .LVU297
 1262              		.loc 1 226 27 is_stmt 0 view .LVU298
 1263 0431 83EC04   		subl	$4, %esp
 1264              		.cfi_def_cfa_offset 84
 1265 0434 55       		pushl	%ebp
 1266              		.cfi_def_cfa_offset 88
 1267 0435 6A00     		pushl	$0
 1268              		.cfi_def_cfa_offset 92
 1269 0437 56       		pushl	%esi
 1270              		.cfi_def_cfa_offset 96
 1271 0438 E8FCFFFF 		call	chCacheGetObject@PLT
 1271      FF
 1272              	.LVL78:
 1273 043d 89C7     		movl	%eax, %edi
 1274              	.LVL79:
 1275              		.loc 1 228 7 is_stmt 1 view .LVU299
 1276 043f 58       		popl	%eax
 1277              		.cfi_def_cfa_offset 92
 1278              	.LVL80:
 1279              		.loc 1 228 7 is_stmt 0 view .LVU300
 1280 0440 5A       		popl	%edx
 1281              		.cfi_def_cfa_offset 88
 1282 0441 FF742418 		pushl	24(%esp)
 1283              		.cfi_def_cfa_offset 92
 1284 0445 8B4724   		movl	36(%edi), %eax
 1285 0448 D1E8     		shrl	%eax
 1286 044a 83E001   		andl	$1, %eax
 1287 044d 50       		pushl	%eax
 1288              		.cfi_def_cfa_offset 96
 1289 044e E8FCFFFF 		call	__test_assert@PLT
 1289      FF
 1290              	.LVL81:
 1291 0453 83C410   		addl	$16, %esp
 1292              		.cfi_def_cfa_offset 80
 1293 0456 84C0     		testb	%al, %al
 1294 0458 755E     		jne	.L8
 1295              		.loc 1 228 75 is_stmt 1 discriminator 2 view .LVU301
 1296              		.loc 1 229 7 discriminator 2 view .LVU302
 1297 045a 83EC08   		subl	$8, %esp
 1298              		.cfi_def_cfa_offset 88
 1299 045d FF74241C 		pushl	28(%esp)
 1300              		.cfi_def_cfa_offset 92
 1301 0461 8B4724   		movl	36(%edi), %eax
 1302 0464 C1E803   		shrl	$3, %eax
 1303 0467 83E001   		andl	$1, %eax
 1304 046a 50       		pushl	%eax
 1305              		.cfi_def_cfa_offset 96
 1306 046b E8FCFFFF 		call	__test_assert@PLT
 1306      FF
GAS LISTING /tmp/cccLQQXn.s 			page 26


 1307              	.LVL82:
 1308 0470 83C410   		addl	$16, %esp
 1309              		.cfi_def_cfa_offset 80
 1310 0473 84C0     		testb	%al, %al
 1311 0475 7541     		jne	.L8
 1312              		.loc 1 229 72 view .LVU303
 1313              		.loc 1 231 7 view .LVU304
 1314              	.LVL83:
 1315              	.LBB203:
 1316              	.LBI203:
 1317              		.loc 2 280 20 view .LVU305
 1318              	.LBB204:
 1319              		.loc 2 283 3 view .LVU306
 1320              	.LBB205:
 1321              	.LBI205:
 1322              		.loc 3 407 20 view .LVU307
 1323              		.loc 3 409 3 view .LVU308
 1324              	.LBB206:
 1325              	.LBI206:
 1326              		.loc 4 361 20 view .LVU309
 1327              	.LBB207:
 1328              		.loc 4 363 3 view .LVU310
 1329              		.loc 4 363 16 is_stmt 0 view .LVU311
 1330 0477 8B44240C 		movl	12(%esp), %eax
 1331              	.LBE207:
 1332              	.LBE206:
 1333              	.LBE205:
 1334              		.loc 2 284 3 view .LVU312
 1335 047b 83EC08   		subl	$8, %esp
 1336              		.cfi_def_cfa_offset 88
 1337              	.LBE204:
 1338              	.LBE203:
 1339              	.LBE202:
 1340              		.loc 1 225 35 view .LVU313
 1341 047e 83C501   		addl	$1, %ebp
 1342              	.LVL84:
 1343              	.LBB223:
 1344              	.LBB221:
 1345              	.LBB219:
 1346              	.LBB210:
 1347              	.LBB209:
 1348              	.LBB208:
 1349              		.loc 4 363 16 view .LVU314
 1350 0481 C7000100 		movl	$1, (%eax)
 1350      0000
 1351              	.LBE208:
 1352              	.LBE209:
 1353              		.loc 3 410 35 is_stmt 1 view .LVU315
 1354              		.loc 3 411 21 view .LVU316
 1355              	.LBE210:
 1356              		.loc 2 284 3 view .LVU317
 1357 0487 57       		pushl	%edi
 1358              		.cfi_def_cfa_offset 92
 1359 0488 56       		pushl	%esi
 1360              		.cfi_def_cfa_offset 96
 1361 0489 E8FCFFFF 		call	chCacheReleaseObjectI@PLT
 1361      FF
GAS LISTING /tmp/cccLQQXn.s 			page 27


 1362              	.LVL85:
 1363              		.loc 2 285 3 view .LVU318
 1364 048e E8FCFFFF 		call	chSchRescheduleS@PLT
 1364      FF
 1365              	.LVL86:
 1366              		.loc 2 286 3 view .LVU319
 1367              	.LBB211:
 1368              	.LBI211:
 1369              		.loc 3 421 20 view .LVU320
 1370              	.LBB212:
 1371              		.loc 3 423 23 view .LVU321
 1372              		.loc 3 424 34 view .LVU322
 1373              		.loc 3 430 3 view .LVU323
 1374              		.loc 3 430 3 view .LVU324
 1375              		.loc 3 430 3 view .LVU325
 1376              		.loc 3 434 3 view .LVU326
 1377              	.LBB213:
 1378              	.LBI213:
 1379              		.loc 4 370 20 view .LVU327
 1380              	.LBB214:
 1381              		.loc 4 372 3 view .LVU328
 1382              		.loc 4 372 16 is_stmt 0 view .LVU329
 1383 0493 8B44241C 		movl	28(%esp), %eax
 1384              	.LBE214:
 1385              	.LBE213:
 1386              	.LBE212:
 1387              	.LBE211:
 1388              	.LBE219:
 1389              	.LBE221:
 1390              	.LBE223:
 1391              		.loc 1 225 19 view .LVU330
 1392 0497 83C410   		addl	$16, %esp
 1393              		.cfi_def_cfa_offset 80
 1394              	.LBB224:
 1395              	.LBB222:
 1396              	.LBB220:
 1397              	.LBB218:
 1398              	.LBB217:
 1399              	.LBB216:
 1400              	.LBB215:
 1401              		.loc 4 372 16 view .LVU331
 1402 049a C7000000 		movl	$0, (%eax)
 1402      0000
 1403              	.LVL87:
 1404              		.loc 4 372 16 view .LVU332
 1405              	.LBE215:
 1406              	.LBE216:
 1407              	.LBE217:
 1408              	.LBE218:
 1409              	.LBE220:
 1410              	.LBE222:
 1411              	.LBE224:
 1412              		.loc 1 225 35 is_stmt 1 view .LVU333
 1413              		.loc 1 225 19 view .LVU334
 1414 04a0 83FD04   		cmpl	$4, %ebp
 1415 04a3 758C     		jne	.L16
 1416              		.loc 1 234 5 view .LVU335
GAS LISTING /tmp/cccLQQXn.s 			page 28


 1417 04a5 83EC08   		subl	$8, %esp
 1418              		.cfi_def_cfa_offset 88
 1419 04a8 FF74242C 		pushl	44(%esp)
 1420              		.cfi_def_cfa_offset 92
 1421 04ac FF742434 		pushl	52(%esp)
 1422              		.cfi_def_cfa_offset 96
 1423 04b0 E8FCFFFF 		call	__test_assert_sequence@PLT
 1423      FF
 1424              	.LVL88:
 1425 04b5 83C410   		addl	$16, %esp
 1426              		.cfi_def_cfa_offset 80
 1427              		.loc 1 234 50 view .LVU336
 1428              	.LBE225:
 1429              		.loc 1 236 3 view .LVU337
 1430              		.loc 1 236 19 view .LVU338
 1431              	.LVL89:
 1432              	.L8:
 1433              		.loc 1 237 1 is_stmt 0 view .LVU339
 1434 04b8 83C43C   		addl	$60, %esp
 1435              		.cfi_def_cfa_offset 20
 1436 04bb 5B       		popl	%ebx
 1437              		.cfi_restore 3
 1438              		.cfi_def_cfa_offset 16
 1439 04bc 5E       		popl	%esi
 1440              		.cfi_restore 6
 1441              		.cfi_def_cfa_offset 12
 1442 04bd 5F       		popl	%edi
 1443              		.cfi_restore 7
 1444              		.cfi_def_cfa_offset 8
 1445 04be 5D       		popl	%ebp
 1446              		.cfi_restore 5
 1447              		.cfi_def_cfa_offset 4
 1448 04bf C3       		ret
 1449              		.cfi_endproc
 1450              	.LFE317:
 1451              		.size	oslib_test_006_001_execute, .-oslib_test_006_001_execute
 1452              		.globl	oslib_test_sequence_006
 1453              		.section	.rodata.str1.1,"aMS",@progbits,1
 1454              	.LC8:
 1455 0000 4F626A65 		.string	"Objects Caches"
 1455      63747320 
 1455      43616368 
 1455      657300
 1456              		.section	.data.rel.ro.local.oslib_test_sequence_006,"aw"
 1457              		.align 4
 1458              		.type	oslib_test_sequence_006, @object
 1459              		.size	oslib_test_sequence_006, 8
 1460              	oslib_test_sequence_006:
 1461 0000 00000000 		.long	.LC8
 1462 0004 00000000 		.long	oslib_test_sequence_006_array
 1463              		.globl	oslib_test_sequence_006_array
 1464              		.section	.data.rel.ro.local.oslib_test_sequence_006_array,"aw"
 1465              		.align 4
 1466              		.type	oslib_test_sequence_006_array, @object
 1467              		.size	oslib_test_sequence_006_array, 8
 1468              	oslib_test_sequence_006_array:
 1469 0000 00000000 		.long	oslib_test_006_001
GAS LISTING /tmp/cccLQQXn.s 			page 29


 1470 0004 00000000 		.long	0
 1471              		.section	.rodata.str1.1
 1472              	.LC9:
 1473 000f 43616368 		.string	"Cache initialization"
 1473      6520696E 
 1473      69746961 
 1473      6C697A61 
 1473      74696F6E 
 1474              		.section	.data.rel.ro.local.oslib_test_006_001,"aw"
 1475              		.align 4
 1476              		.type	oslib_test_006_001, @object
 1477              		.size	oslib_test_006_001, 16
 1478              	oslib_test_006_001:
 1479 0000 0F000000 		.long	.LC9
 1480 0004 00000000 		.long	0
 1481 0008 00000000 		.long	0
 1482 000c 00000000 		.long	oslib_test_006_001_execute
 1483              		.section	.bss.cache1,"aw",@nobits
 1484              		.align 32
 1485              		.type	cache1, @object
 1486              		.size	cache1, 68
 1487              	cache1:
 1488 0000 00000000 		.zero	68
 1488      00000000 
 1488      00000000 
 1488      00000000 
 1488      00000000 
 1489              		.section	.bss.objects,"aw",@nobits
 1490              		.align 32
 1491              		.type	objects, @object
 1492              		.size	objects, 240
 1493              	objects:
 1494 0000 00000000 		.zero	240
 1494      00000000 
 1494      00000000 
 1494      00000000 
 1494      00000000 
 1495              		.section	.bss.hash_elements,"aw",@nobits
 1496              		.align 32
 1497              		.type	hash_elements, @object
 1498              		.size	hash_elements, 64
 1499              	hash_elements:
 1500 0000 00000000 		.zero	64
 1500      00000000 
 1500      00000000 
 1500      00000000 
 1500      00000000 
 1501              		.section	.text.__x86.get_pc_thunk.bx,"axG",@progbits,__x86.get_pc_thunk.bx,comdat
 1502              		.globl	__x86.get_pc_thunk.bx
 1503              		.hidden	__x86.get_pc_thunk.bx
 1504              		.type	__x86.get_pc_thunk.bx, @function
 1505              	__x86.get_pc_thunk.bx:
 1506              	.LFB318:
 1507              		.cfi_startproc
 1508 0000 8B1C24   		movl	(%esp), %ebx
 1509 0003 C3       		ret
 1510              		.cfi_endproc
GAS LISTING /tmp/cccLQQXn.s 			page 30


 1511              	.LFE318:
 1512              		.text
 1513              	.Letext0:
 1514              		.file 5 "/usr/lib/gcc/x86_64-linux-gnu/11/include/stddef.h"
 1515              		.file 6 "/usr/include/bits/types.h"
 1516              		.file 7 "/usr/include/bits/stdint-intn.h"
 1517              		.file 8 "/usr/include/bits/stdint-uintn.h"
 1518              		.file 9 "../../../os/common/ports/SIMIA32/compilers/GCC/chtypes.h"
 1519              		.file 10 "../../../os/rt/include/chlists.h"
 1520              		.file 11 "../../../os/rt/include/chsem.h"
 1521              		.file 12 "../../../os/hal/include/hal_streams.h"
 1522              		.file 13 "../../../os/test/include/ch_test.h"
 1523              		.file 14 "../../../test/oslib/source/test/oslib_test_sequence_006.h"
 1524              		.file 15 "../../../os/rt/include/chschd.h"
 4879 0069 2F686F6D 		.section	.note.GNU-stack,"",@progbits
 4879      652F616C 
 4879      65782F43 
 4879      68696269 
 4879      4F532F64 
GAS LISTING /tmp/cccLQQXn.s 			page 94

