GAS LISTING /tmp/ccSlpKKk.s 			page 1


   1              		.file	"ch_test_printf.c"
   2              		.text
   3              	.Ltext0:
   4              		.file 0 "/home/alex/ChibiOS/demos/various/LAB2_VARIANT2" "../../../os/test/src/ch_test_printf.c"
   5              		.section	.text.test_putchar,"ax",@progbits
   6              		.p2align 4
   7              		.globl	test_putchar
   8              		.type	test_putchar, @function
   9              	test_putchar:
  10              	.LVL0:
  11              	.LFB305:
  12              		.file 1 "../../../os/test/src/ch_test_printf.c"
  13              		.loc 1 98 27 view -0
  14              		.cfi_startproc
  15              		.loc 1 100 3 view .LVU1
  16 0000 E8FCFFFF 		call	__x86.get_pc_thunk.dx
  16      FF
  17 0005 81C20200 		addl	$_GLOBAL_OFFSET_TABLE_, %edx
  17      0000
  18              		.loc 1 98 27 is_stmt 0 view .LVU2
  19 000b 8B442404 		movl	4(%esp), %eax
  20              		.loc 1 100 13 view .LVU3
  21 000f 8B920000 		movl	chtest@GOT(%edx), %edx
  21      0000
  22 0015 8B5220   		movl	32(%edx), %edx
  23              		.loc 1 100 6 view .LVU4
  24 0018 85D2     		testl	%edx, %edx
  25 001a 740C     		je	.L1
  26              		.loc 1 101 5 is_stmt 1 view .LVU5
  27 001c 0FBEC0   		movsbl	%al, %eax
  28 001f 89442404 		movl	%eax, 4(%esp)
  29              	.LVL1:
  30              		.loc 1 101 5 is_stmt 0 view .LVU6
  31 0023 FFE2     		jmp	*%edx
  32              	.LVL2:
  33              		.p2align 4,,10
  34 0025 8D7600   		.p2align 3
  35              	.L1:
  36              		.loc 1 103 1 view .LVU7
  37 0028 C3       		ret
  38              		.cfi_endproc
  39              	.LFE305:
  40              		.size	test_putchar, .-test_putchar
  41              		.section	.rodata.test_vprintf.str1.1,"aMS",@progbits,1
  42              	.LC0:
  43 0000 286E756C 		.string	"(null)"
  43      6C2900
  44              		.section	.text.test_vprintf,"ax",@progbits
  45              		.p2align 4
  46              		.globl	test_vprintf
  47              		.type	test_vprintf, @function
  48              	test_vprintf:
  49              	.LVL3:
  50              	.LFB306:
  51              		.loc 1 128 47 is_stmt 1 view -0
  52              		.cfi_startproc
  53              		.loc 1 128 47 is_stmt 0 view .LVU9
GAS LISTING /tmp/ccSlpKKk.s 			page 2


  54 0000 E8FCFFFF 		call	__x86.get_pc_thunk.cx
  54      FF
  55 0005 81C10200 		addl	$_GLOBAL_OFFSET_TABLE_, %ecx
  55      0000
  56 000b 55       		pushl	%ebp
  57              		.cfi_def_cfa_offset 8
  58              		.cfi_offset 5, -8
  59 000c 57       		pushl	%edi
  60              		.cfi_def_cfa_offset 12
  61              		.cfi_offset 7, -12
  62 000d 56       		pushl	%esi
  63              		.cfi_def_cfa_offset 16
  64              		.cfi_offset 6, -16
  65 000e 53       		pushl	%ebx
  66              		.cfi_def_cfa_offset 20
  67              		.cfi_offset 3, -20
  68 000f 83EC4C   		subl	$76, %esp
  69              		.cfi_def_cfa_offset 96
  70              		.loc 1 128 47 view .LVU10
  71 0012 8B442464 		movl	100(%esp), %eax
  72 0016 8B6C2460 		movl	96(%esp), %ebp
  73 001a 894C2428 		movl	%ecx, 40(%esp)
  74 001e 89442424 		movl	%eax, 36(%esp)
  75 0022 65A11400 		movl	%gs:20, %eax
  75      0000
  76 0028 8944243C 		movl	%eax, 60(%esp)
  77 002c 31C0     		xorl	%eax, %eax
  78              		.loc 1 129 3 is_stmt 1 view .LVU11
  79              		.loc 1 130 3 view .LVU12
  80              		.loc 1 132 3 view .LVU13
  81              	.LVL4:
  82              		.loc 1 133 3 view .LVU14
  83              	.LBB38:
  84              		.loc 1 134 5 view .LVU15
  85              		.loc 1 135 5 view .LVU16
  86              		.loc 1 136 5 view .LVU17
  87              		.loc 1 138 5 view .LVU18
  88              		.loc 1 138 7 is_stmt 0 view .LVU19
  89 002e 0FBE4500 		movsbl	0(%ebp), %eax
  90              	.LVL5:
  91              		.loc 1 139 5 is_stmt 1 view .LVU20
  92              		.loc 1 139 8 is_stmt 0 view .LVU21
  93 0032 84C0     		testb	%al, %al
  94 0034 0F848C01 		je	.L73
  94      0000
  95 003a 8B990000 		movl	chtest@GOT(%ecx), %ebx
  95      0000
  96              	.LBE38:
  97              		.loc 1 132 5 view .LVU22
  98 0040 C7442410 		movl	$0, 16(%esp)
  98      00000000 
  99 0048 8D7501   		leal	1(%ebp), %esi
 100              	.LVL6:
 101              		.loc 1 132 5 view .LVU23
 102 004b 895C240C 		movl	%ebx, 12(%esp)
 103 004f EB31     		jmp	.L6
 104              	.LVL7:
GAS LISTING /tmp/ccSlpKKk.s 			page 3


 105              		.p2align 4,,10
 106 0051 8DB42600 		.p2align 3
 106      000000
 107              	.L144:
 108              	.LBB78:
 109              		.loc 1 144 7 is_stmt 1 discriminator 1 view .LVU24
 110              	.LBB39:
 111              	.LBI39:
 112              		.loc 1 98 6 discriminator 1 view .LVU25
 113              	.LBB40:
 114              		.loc 1 100 3 discriminator 1 view .LVU26
 115              		.loc 1 100 13 is_stmt 0 discriminator 1 view .LVU27
 116 0058 8B5C240C 		movl	12(%esp), %ebx
 117 005c 8B5320   		movl	32(%ebx), %edx
 118              		.loc 1 100 6 discriminator 1 view .LVU28
 119 005f 85D2     		testl	%edx, %edx
 120 0061 7409     		je	.L8
 121              		.loc 1 101 5 is_stmt 1 view .LVU29
 122 0063 83EC0C   		subl	$12, %esp
 123              		.cfi_def_cfa_offset 108
 124 0066 50       		pushl	%eax
 125              		.cfi_def_cfa_offset 112
 126 0067 FFD2     		call	*%edx
 127              	.LVL8:
 128              		.loc 1 101 5 is_stmt 0 view .LVU30
 129 0069 83C410   		addl	$16, %esp
 130              		.cfi_def_cfa_offset 96
 131              	.L8:
 132              		.loc 1 101 5 view .LVU31
 133              	.LBE40:
 134              	.LBE39:
 135              		.loc 1 145 7 is_stmt 1 view .LVU32
 136              		.loc 1 146 7 view .LVU33
 137              		.loc 1 145 8 is_stmt 0 view .LVU34
 138 006c 83442410 		addl	$1, 16(%esp)
 138      01
 139              	.LVL9:
 140              		.loc 1 146 7 view .LVU35
 141 0071 89F5     		movl	%esi, %ebp
 142              	.LVL10:
 143              	.L9:
 144              		.loc 1 146 7 view .LVU36
 145              	.LBE78:
 146              		.loc 1 133 3 is_stmt 1 view .LVU37
 147              	.LBB79:
 148              		.loc 1 134 5 view .LVU38
 149              		.loc 1 135 5 view .LVU39
 150              		.loc 1 136 5 view .LVU40
 151              		.loc 1 138 5 view .LVU41
 152              		.loc 1 138 7 is_stmt 0 view .LVU42
 153 0073 0FBE4500 		movsbl	0(%ebp), %eax
 154              		.loc 1 138 13 view .LVU43
 155 0077 8D7501   		leal	1(%ebp), %esi
 156              	.LVL11:
 157              		.loc 1 139 5 is_stmt 1 view .LVU44
 158              		.loc 1 139 8 is_stmt 0 view .LVU45
 159 007a 84C0     		testb	%al, %al
GAS LISTING /tmp/ccSlpKKk.s 			page 4


 160 007c 0F844E01 		je	.L4
 160      0000
 161              	.LVL12:
 162              	.L6:
 163              		.loc 1 143 5 is_stmt 1 view .LVU46
 164              		.loc 1 143 8 is_stmt 0 view .LVU47
 165 0082 3C25     		cmpb	$37, %al
 166 0084 75D2     		jne	.L144
 167              		.loc 1 150 5 is_stmt 1 view .LVU48
 168              	.LVL13:
 169              		.loc 1 151 5 view .LVU49
 170              		.loc 1 154 5 view .LVU50
 171              		.loc 1 155 5 view .LVU51
 172              		.loc 1 155 8 is_stmt 0 view .LVU52
 173 0086 807D012D 		cmpb	$45, 1(%ebp)
 174              		.loc 1 154 16 view .LVU53
 175 008a C6442420 		movb	$0, 32(%esp)
 175      00
 176              		.loc 1 155 8 view .LVU54
 177 008f 7508     		jne	.L10
 178              		.loc 1 156 7 is_stmt 1 view .LVU55
 179              		.loc 1 157 18 is_stmt 0 view .LVU56
 180 0091 C6442420 		movb	$1, 32(%esp)
 180      01
 181              		.loc 1 156 10 view .LVU57
 182 0096 8D7502   		leal	2(%ebp), %esi
 183              	.LVL14:
 184              		.loc 1 157 7 is_stmt 1 view .LVU58
 185              	.L10:
 186              		.loc 1 161 5 view .LVU59
 187              		.loc 1 162 5 view .LVU60
 188              		.loc 1 162 9 is_stmt 0 view .LVU61
 189 0099 0FB606   		movzbl	(%esi), %eax
 190              	.LVL15:
 191              		.loc 1 161 13 view .LVU62
 192 009c 31FF     		xorl	%edi, %edi
 193              		.loc 1 162 8 view .LVU63
 194 009e 3C2B     		cmpb	$43, %al
 195 00a0 750C     		jne	.L11
 196              		.loc 1 163 7 is_stmt 1 view .LVU64
 197              	.LVL16:
 198              		.loc 1 164 7 view .LVU65
 199              		.loc 1 169 9 is_stmt 0 view .LVU66
 200 00a2 0FB64601 		movzbl	1(%esi), %eax
 201              		.loc 1 164 15 view .LVU67
 202 00a6 BF010000 		movl	$1, %edi
 202      00
 203              		.loc 1 163 10 view .LVU68
 204 00ab 83C601   		addl	$1, %esi
 205              	.LVL17:
 206              	.L11:
 207              		.loc 1 168 5 is_stmt 1 view .LVU69
 208              		.loc 1 169 5 view .LVU70
 209              		.loc 1 168 12 is_stmt 0 view .LVU71
 210 00ae C644241F 		movb	$32, 31(%esp)
 210      20
 211              		.loc 1 169 8 view .LVU72
GAS LISTING /tmp/ccSlpKKk.s 			page 5


 212 00b3 3C30     		cmpb	$48, %al
 213 00b5 750C     		jne	.L12
 214              		.loc 1 170 7 is_stmt 1 view .LVU73
 215              	.LVL18:
 216              		.loc 1 171 7 view .LVU74
 217              		.loc 1 171 14 is_stmt 0 view .LVU75
 218 00b7 C644241F 		movb	$48, 31(%esp)
 218      30
 219              		.loc 1 175 10 view .LVU76
 220 00bc 0FB64601 		movzbl	1(%esi), %eax
 221              		.loc 1 170 10 view .LVU77
 222 00c0 83C601   		addl	$1, %esi
 223              	.LVL19:
 224              	.L12:
 225              		.loc 1 175 5 is_stmt 1 view .LVU78
 226              		.loc 1 175 8 is_stmt 0 view .LVU79
 227 00c3 3C2A     		cmpb	$42, %al
 228 00c5 7569     		jne	.L13
 229              		.loc 1 176 7 is_stmt 1 view .LVU80
 230              		.loc 1 176 13 is_stmt 0 view .LVU81
 231 00c7 8B442424 		movl	36(%esp), %eax
 232              		.loc 1 198 15 view .LVU82
 233 00cb C7442414 		movl	$0, 20(%esp)
 233      00000000 
 234              		.loc 1 178 15 view .LVU83
 235 00d3 8D6E02   		leal	2(%esi), %ebp
 236              		.loc 1 176 13 view .LVU84
 237 00d6 8D5004   		leal	4(%eax), %edx
 238              	.LVL20:
 239              		.loc 1 176 13 view .LVU85
 240 00d9 8B00     		movl	(%eax), %eax
 241 00db 89442418 		movl	%eax, 24(%esp)
 242              		.loc 1 177 7 is_stmt 1 view .LVU86
 243              	.LVL21:
 244              		.loc 1 178 7 view .LVU87
 245              		.loc 1 178 9 is_stmt 0 view .LVU88
 246 00df 0FB64601 		movzbl	1(%esi), %eax
 247              	.LVL22:
 248              		.loc 1 198 5 is_stmt 1 view .LVU89
 249              		.loc 1 199 5 view .LVU90
 250              		.loc 1 199 8 is_stmt 0 view .LVU91
 251 00e3 3C2E     		cmpb	$46, %al
 252 00e5 0F848B00 		je	.L145
 252      0000
 253              	.LVL23:
 254              	.L16:
 255              		.loc 1 221 5 is_stmt 1 view .LVU92
 256              		.loc 1 221 26 is_stmt 0 view .LVU93
 257 00eb 89C1     		movl	%eax, %ecx
 258 00ed 83E1DF   		andl	$-33, %ecx
 259              		.loc 1 221 8 view .LVU94
 260 00f0 80F94C   		cmpb	$76, %cl
 261 00f3 0F85AC00 		jne	.L20
 261      0000
 262              	.LVL24:
 263              	.L147:
 264              		.loc 1 222 7 is_stmt 1 view .LVU95
GAS LISTING /tmp/ccSlpKKk.s 			page 6


 265              		.loc 1 223 7 view .LVU96
 266              		.loc 1 223 9 is_stmt 0 view .LVU97
 267 00f9 0FB64500 		movzbl	0(%ebp), %eax
 268              		.loc 1 224 7 is_stmt 1 view .LVU98
 269              		.loc 1 224 10 is_stmt 0 view .LVU99
 270 00fd 84C0     		testb	%al, %al
 271 00ff 0F84CB00 		je	.L4
 271      0000
 272              	.LVL25:
 273              		.loc 1 233 5 view .LVU100
 274 0105 8D48BC   		leal	-68(%eax), %ecx
 275              		.loc 1 223 15 view .LVU101
 276 0108 83C501   		addl	$1, %ebp
 277              	.LVL26:
 278              		.loc 1 233 5 is_stmt 1 view .LVU102
 279 010b 80F934   		cmpb	$52, %cl
 280 010e 0F870C01 		ja	.L22
 280      0000
 281 0114 8B5C2428 		movl	40(%esp), %ebx
 282 0118 0FB6C9   		movzbl	%cl, %ecx
 283 011b 8BB48B00 		movl	.L66@GOTOFF(%ebx,%ecx,4), %esi
 283      000000
 284 0122 01DE     		addl	%ebx, %esi
 285 0124 FFE6     		jmp	*%esi
 286              		.section	.rodata.test_vprintf,"a",@progbits
 287              		.align 4
 288              		.align 4
 289              	.L66:
 290 0000 00000000 		.long	.L103@GOTOFF
 291 0004 00000000 		.long	.L22@GOTOFF
 292 0008 00000000 		.long	.L22@GOTOFF
 293 000c 00000000 		.long	.L22@GOTOFF
 294 0010 00000000 		.long	.L22@GOTOFF
 295 0014 00000000 		.long	.L103@GOTOFF
 296 0018 00000000 		.long	.L22@GOTOFF
 297 001c 00000000 		.long	.L22@GOTOFF
 298 0020 00000000 		.long	.L22@GOTOFF
 299 0024 00000000 		.long	.L22@GOTOFF
 300 0028 00000000 		.long	.L22@GOTOFF
 301 002c 00000000 		.long	.L68@GOTOFF
 302 0030 00000000 		.long	.L82@GOTOFF
 303 0034 00000000 		.long	.L22@GOTOFF
 304 0038 00000000 		.long	.L22@GOTOFF
 305 003c 00000000 		.long	.L22@GOTOFF
 306 0040 00000000 		.long	.L22@GOTOFF
 307 0044 00000000 		.long	.L67@GOTOFF
 308 0048 00000000 		.long	.L22@GOTOFF
 309 004c 00000000 		.long	.L22@GOTOFF
 310 0050 00000000 		.long	.L82@GOTOFF
 311 0054 00000000 		.long	.L22@GOTOFF
 312 0058 00000000 		.long	.L22@GOTOFF
 313 005c 00000000 		.long	.L22@GOTOFF
 314 0060 00000000 		.long	.L22@GOTOFF
 315 0064 00000000 		.long	.L22@GOTOFF
 316 0068 00000000 		.long	.L22@GOTOFF
 317 006c 00000000 		.long	.L22@GOTOFF
 318 0070 00000000 		.long	.L22@GOTOFF
GAS LISTING /tmp/ccSlpKKk.s 			page 7


 319 0074 00000000 		.long	.L22@GOTOFF
 320 0078 00000000 		.long	.L22@GOTOFF
 321 007c 00000000 		.long	.L29@GOTOFF
 322 0080 00000000 		.long	.L103@GOTOFF
 323 0084 00000000 		.long	.L22@GOTOFF
 324 0088 00000000 		.long	.L22@GOTOFF
 325 008c 00000000 		.long	.L22@GOTOFF
 326 0090 00000000 		.long	.L22@GOTOFF
 327 0094 00000000 		.long	.L103@GOTOFF
 328 0098 00000000 		.long	.L22@GOTOFF
 329 009c 00000000 		.long	.L22@GOTOFF
 330 00a0 00000000 		.long	.L22@GOTOFF
 331 00a4 00000000 		.long	.L22@GOTOFF
 332 00a8 00000000 		.long	.L22@GOTOFF
 333 00ac 00000000 		.long	.L68@GOTOFF
 334 00b0 00000000 		.long	.L82@GOTOFF
 335 00b4 00000000 		.long	.L22@GOTOFF
 336 00b8 00000000 		.long	.L22@GOTOFF
 337 00bc 00000000 		.long	.L26@GOTOFF
 338 00c0 00000000 		.long	.L22@GOTOFF
 339 00c4 00000000 		.long	.L67@GOTOFF
 340 00c8 00000000 		.long	.L22@GOTOFF
 341 00cc 00000000 		.long	.L22@GOTOFF
 342 00d0 00000000 		.long	.L82@GOTOFF
 343              		.section	.text.test_vprintf
 344              	.LVL27:
 345 0126 8DB42600 		.p2align 4,,10
 345      0000008D 
 345      7600
 346              		.p2align 3
 347              	.L13:
 348              		.loc 1 182 7 view .LVU103
 349              		.loc 1 183 9 view .LVU104
 350              		.loc 1 183 17 is_stmt 0 view .LVU105
 351 0130 83C601   		addl	$1, %esi
 352              	.LVL28:
 353              		.loc 1 184 9 is_stmt 1 view .LVU106
 354              		.loc 1 184 12 is_stmt 0 view .LVU107
 355 0133 84C0     		testb	%al, %al
 356 0135 0F849500 		je	.L4
 356      0000
 357              		.loc 1 181 13 view .LVU108
 358 013b 31C9     		xorl	%ecx, %ecx
 359 013d EB12     		jmp	.L15
 360              	.LVL29:
 361 013f 90       		.p2align 4,,10
 362              		.p2align 3
 363              	.L146:
 364              		.loc 1 188 11 is_stmt 1 view .LVU109
 365              		.loc 1 189 11 view .LVU110
 366              		.loc 1 189 25 is_stmt 0 view .LVU111
 367 0140 8D0489   		leal	(%ecx,%ecx,4), %eax
 368              		.loc 1 189 30 view .LVU112
 369 0143 0FB6D2   		movzbl	%dl, %edx
 370              	.LVL30:
 371              		.loc 1 189 17 view .LVU113
 372 0146 8D0C42   		leal	(%edx,%eax,2), %ecx
GAS LISTING /tmp/ccSlpKKk.s 			page 8


 373              	.LVL31:
 374              		.loc 1 182 13 is_stmt 1 view .LVU114
 375              		.loc 1 182 7 view .LVU115
 376              		.loc 1 183 9 view .LVU116
 377              		.loc 1 183 11 is_stmt 0 view .LVU117
 378 0149 0FB646FF 		movzbl	-1(%esi), %eax
 379              	.LVL32:
 380              		.loc 1 184 9 is_stmt 1 view .LVU118
 381              		.loc 1 184 12 is_stmt 0 view .LVU119
 382 014d 84C0     		testb	%al, %al
 383 014f 747F     		je	.L4
 384              	.LVL33:
 385              	.L15:
 386              		.loc 1 187 9 is_stmt 1 view .LVU120
 387              		.loc 1 187 24 is_stmt 0 view .LVU121
 388 0151 8D50D0   		leal	-48(%eax), %edx
 389 0154 89F5     		movl	%esi, %ebp
 390              		.loc 1 183 17 view .LVU122
 391 0156 83C601   		addl	$1, %esi
 392              	.LVL34:
 393              		.loc 1 187 12 view .LVU123
 394 0159 80FA09   		cmpb	$9, %dl
 395 015c 76E2     		jbe	.L146
 396 015e 894C2418 		movl	%ecx, 24(%esp)
 397 0162 8B542424 		movl	36(%esp), %edx
 398              	.LVL35:
 399              		.loc 1 198 5 is_stmt 1 view .LVU124
 400              		.loc 1 199 5 view .LVU125
 401              		.loc 1 198 15 is_stmt 0 view .LVU126
 402 0166 C7442414 		movl	$0, 20(%esp)
 402      00000000 
 403              		.loc 1 199 8 view .LVU127
 404 016e 3C2E     		cmpb	$46, %al
 405 0170 0F8575FF 		jne	.L16
 405      FFFF
 406              	.L145:
 407              		.loc 1 200 7 is_stmt 1 view .LVU128
 408              	.LVL36:
 409              		.loc 1 200 9 is_stmt 0 view .LVU129
 410 0176 0FB64500 		movzbl	0(%ebp), %eax
 411              		.loc 1 201 7 is_stmt 1 view .LVU130
 412              		.loc 1 201 10 is_stmt 0 view .LVU131
 413 017a 84C0     		testb	%al, %al
 414 017c 7452     		je	.L4
 415              	.LVL37:
 416              		.loc 1 204 7 is_stmt 1 view .LVU132
 417              		.loc 1 200 15 is_stmt 0 view .LVU133
 418 017e 8D7501   		leal	1(%ebp), %esi
 419 0181 31DB     		xorl	%ebx, %ebx
 420              		.loc 1 204 10 view .LVU134
 421 0183 3C2A     		cmpb	$42, %al
 422 0185 757A     		jne	.L18
 423              		.loc 1 205 9 is_stmt 1 view .LVU135
 424              	.LVL38:
 425              		.loc 1 205 19 is_stmt 0 view .LVU136
 426 0187 8B02     		movl	(%edx), %eax
 427              	.LVL39:
GAS LISTING /tmp/ccSlpKKk.s 			page 9


 428              		.loc 1 206 17 view .LVU137
 429 0189 83C502   		addl	$2, %ebp
 430              	.LVL40:
 431              		.loc 1 205 19 view .LVU138
 432 018c 83C204   		addl	$4, %edx
 433              	.LVL41:
 434              		.loc 1 205 19 view .LVU139
 435 018f 89442414 		movl	%eax, 20(%esp)
 436              	.LVL42:
 437              		.loc 1 206 9 is_stmt 1 view .LVU140
 438              		.loc 1 206 11 is_stmt 0 view .LVU141
 439 0193 0FB645FF 		movzbl	-1(%ebp), %eax
 440              	.LVL43:
 441              		.loc 1 221 5 is_stmt 1 view .LVU142
 442              		.loc 1 221 26 is_stmt 0 view .LVU143
 443 0197 89C1     		movl	%eax, %ecx
 444 0199 83E1DF   		andl	$-33, %ecx
 445              		.loc 1 221 8 view .LVU144
 446 019c 80F94C   		cmpb	$76, %cl
 447 019f 0F8454FF 		je	.L147
 447      FFFF
 448              	.L20:
 449              		.loc 1 229 7 is_stmt 1 view .LVU145
 450              		.loc 1 233 5 is_stmt 0 view .LVU146
 451 01a5 8D70BC   		leal	-68(%eax), %esi
 452              		.loc 1 229 28 view .LVU147
 453 01a8 8D58BF   		leal	-65(%eax), %ebx
 454              		.loc 1 233 5 view .LVU148
 455 01ab 89F1     		movl	%esi, %ecx
 456              		.loc 1 229 28 view .LVU149
 457 01ad 885C242C 		movb	%bl, 44(%esp)
 458              	.LVL44:
 459              		.loc 1 233 5 is_stmt 1 view .LVU150
 460 01b1 80F934   		cmpb	$52, %cl
 461 01b4 776A     		ja	.L22
 462 01b6 8B5C2428 		movl	40(%esp), %ebx
 463              	.LVL45:
 464              		.loc 1 233 5 is_stmt 0 view .LVU151
 465 01ba 0FB6F1   		movzbl	%cl, %esi
 466 01bd 039CB3D4 		addl	.L24@GOTOFF(%ebx,%esi,4), %ebx
 466      000000
 467 01c4 FFE3     		jmp	*%ebx
 468              		.section	.rodata.test_vprintf
 469              		.align 4
 470              		.align 4
 471              	.L24:
 472 00d4 00000000 		.long	.L28@GOTOFF
 473 00d8 00000000 		.long	.L22@GOTOFF
 474 00dc 00000000 		.long	.L22@GOTOFF
 475 00e0 00000000 		.long	.L22@GOTOFF
 476 00e4 00000000 		.long	.L22@GOTOFF
 477 00e8 00000000 		.long	.L28@GOTOFF
 478 00ec 00000000 		.long	.L22@GOTOFF
 479 00f0 00000000 		.long	.L22@GOTOFF
 480 00f4 00000000 		.long	.L22@GOTOFF
 481 00f8 00000000 		.long	.L22@GOTOFF
 482 00fc 00000000 		.long	.L22@GOTOFF
GAS LISTING /tmp/ccSlpKKk.s 			page 10


 483 0100 00000000 		.long	.L27@GOTOFF
 484 0104 00000000 		.long	.L23@GOTOFF
 485 0108 00000000 		.long	.L22@GOTOFF
 486 010c 00000000 		.long	.L22@GOTOFF
 487 0110 00000000 		.long	.L22@GOTOFF
 488 0114 00000000 		.long	.L22@GOTOFF
 489 0118 00000000 		.long	.L79@GOTOFF
 490 011c 00000000 		.long	.L22@GOTOFF
 491 0120 00000000 		.long	.L22@GOTOFF
 492 0124 00000000 		.long	.L23@GOTOFF
 493 0128 00000000 		.long	.L22@GOTOFF
 494 012c 00000000 		.long	.L22@GOTOFF
 495 0130 00000000 		.long	.L22@GOTOFF
 496 0134 00000000 		.long	.L22@GOTOFF
 497 0138 00000000 		.long	.L22@GOTOFF
 498 013c 00000000 		.long	.L22@GOTOFF
 499 0140 00000000 		.long	.L22@GOTOFF
 500 0144 00000000 		.long	.L22@GOTOFF
 501 0148 00000000 		.long	.L22@GOTOFF
 502 014c 00000000 		.long	.L22@GOTOFF
 503 0150 00000000 		.long	.L29@GOTOFF
 504 0154 00000000 		.long	.L28@GOTOFF
 505 0158 00000000 		.long	.L22@GOTOFF
 506 015c 00000000 		.long	.L22@GOTOFF
 507 0160 00000000 		.long	.L22@GOTOFF
 508 0164 00000000 		.long	.L22@GOTOFF
 509 0168 00000000 		.long	.L28@GOTOFF
 510 016c 00000000 		.long	.L22@GOTOFF
 511 0170 00000000 		.long	.L22@GOTOFF
 512 0174 00000000 		.long	.L22@GOTOFF
 513 0178 00000000 		.long	.L22@GOTOFF
 514 017c 00000000 		.long	.L22@GOTOFF
 515 0180 00000000 		.long	.L27@GOTOFF
 516 0184 00000000 		.long	.L23@GOTOFF
 517 0188 00000000 		.long	.L22@GOTOFF
 518 018c 00000000 		.long	.L22@GOTOFF
 519 0190 00000000 		.long	.L26@GOTOFF
 520 0194 00000000 		.long	.L22@GOTOFF
 521 0198 00000000 		.long	.L79@GOTOFF
 522 019c 00000000 		.long	.L22@GOTOFF
 523 01a0 00000000 		.long	.L22@GOTOFF
 524 01a4 00000000 		.long	.L23@GOTOFF
 525              		.section	.text.test_vprintf
 526              	.LVL46:
 527              	.L73:
 528              		.loc 1 233 5 view .LVU152
 529              	.LBE79:
 530              		.loc 1 132 5 view .LVU153
 531 01c6 C7442410 		movl	$0, 16(%esp)
 531      00000000 
 532              	.LVL47:
 533 01ce 6690     		.p2align 4,,10
 534              		.p2align 3
 535              	.L4:
 536              		.loc 1 329 1 view .LVU154
 537 01d0 8B44243C 		movl	60(%esp), %eax
 538 01d4 652B0514 		subl	%gs:20, %eax
GAS LISTING /tmp/ccSlpKKk.s 			page 11


 538      000000
 539 01db 0F856404 		jne	.L148
 539      0000
 540 01e1 8B442410 		movl	16(%esp), %eax
 541 01e5 83C44C   		addl	$76, %esp
 542              		.cfi_remember_state
 543              		.cfi_def_cfa_offset 20
 544 01e8 5B       		popl	%ebx
 545              		.cfi_restore 3
 546              		.cfi_def_cfa_offset 16
 547 01e9 5E       		popl	%esi
 548              		.cfi_restore 6
 549              		.cfi_def_cfa_offset 12
 550 01ea 5F       		popl	%edi
 551              		.cfi_restore 7
 552              		.cfi_def_cfa_offset 8
 553 01eb 5D       		popl	%ebp
 554              		.cfi_restore 5
 555              		.cfi_def_cfa_offset 4
 556 01ec C3       		ret
 557              	.LVL48:
 558 01ed 8D7600   		.p2align 4,,10
 559              		.p2align 3
 560              	.L19:
 561              		.cfi_restore_state
 562              	.LBB80:
 563              		.loc 1 210 11 is_stmt 1 view .LVU155
 564              		.loc 1 211 11 view .LVU156
 565              		.loc 1 211 33 is_stmt 0 view .LVU157
 566 01f0 8D049B   		leal	(%ebx,%ebx,4), %eax
 567              		.loc 1 211 38 view .LVU158
 568 01f3 0FB6C9   		movzbl	%cl, %ecx
 569              		.loc 1 211 21 view .LVU159
 570 01f6 8D1C41   		leal	(%ecx,%eax,2), %ebx
 571              	.LVL49:
 572              		.loc 1 212 11 is_stmt 1 view .LVU160
 573              		.loc 1 212 13 is_stmt 0 view .LVU161
 574 01f9 0FB646FF 		movzbl	-1(%esi), %eax
 575              	.LVL50:
 576              		.loc 1 213 11 is_stmt 1 view .LVU162
 577              		.loc 1 213 14 is_stmt 0 view .LVU163
 578 01fd 84C0     		testb	%al, %al
 579 01ff 74CF     		je	.L4
 580              	.LVL51:
 581              	.L18:
 582              		.loc 1 209 27 is_stmt 1 view .LVU164
 583 0201 8D48D0   		leal	-48(%eax), %ecx
 584 0204 89F5     		movl	%esi, %ebp
 585              		.loc 1 212 19 is_stmt 0 view .LVU165
 586 0206 83C601   		addl	$1, %esi
 587              	.LVL52:
 588              		.loc 1 209 27 view .LVU166
 589 0209 80F909   		cmpb	$9, %cl
 590 020c 76E2     		jbe	.L19
 591 020e 895C2414 		movl	%ebx, 20(%esp)
 592 0212 E9D4FEFF 		jmp	.L16
 592      FF
GAS LISTING /tmp/ccSlpKKk.s 			page 12


 593              	.LVL53:
 594 0217 8DB42600 		.p2align 4,,10
 594      00000066 
 594      90
 595              		.p2align 3
 596              	.L22:
 597              	.LBB44:
 598              		.loc 1 296 7 is_stmt 1 view .LVU167
 599              		.loc 1 296 12 is_stmt 0 view .LVU168
 600 0220 88442430 		movb	%al, 48(%esp)
 601              		.loc 1 297 7 is_stmt 1 view .LVU169
 602 0224 8B442418 		movl	24(%esp), %eax
 603 0228 89542424 		movl	%edx, 36(%esp)
 604 022c 83E801   		subl	$1, %eax
 605              	.LVL54:
 606              	.L30:
 607              		.loc 1 297 7 is_stmt 0 view .LVU170
 608              	.LBE44:
 609              		.loc 1 299 5 is_stmt 1 view .LVU171
 610              		.loc 1 300 5 view .LVU172
 611              		.loc 1 301 5 view .LVU173
 612 022f 31F6     		xorl	%esi, %esi
 613 0231 85C0     		testl	%eax, %eax
 614 0233 0F49F0   		cmovns	%eax, %esi
 615              		.loc 1 304 8 is_stmt 0 view .LVU174
 616 0236 807C2420 		cmpb	$0, 32(%esp)
 616      00
 617 023b 89742414 		movl	%esi, 20(%esp)
 618              	.LVL55:
 619              		.loc 1 304 5 is_stmt 1 view .LVU175
 620              		.loc 1 304 8 is_stmt 0 view .LVU176
 621 023f 0F85CB01 		jne	.L86
 621      0000
 622              		.loc 1 305 13 view .LVU177
 623 0245 F75C2414 		negl	20(%esp)
 624              		.loc 1 304 8 view .LVU178
 625 0249 8D7C2430 		leal	48(%esp), %edi
 626              	.LVL56:
 627              		.loc 1 305 7 is_stmt 1 view .LVU179
 628              		.loc 1 307 5 view .LVU180
 629              		.loc 1 304 8 is_stmt 0 view .LVU181
 630 024d C7442418 		movl	$0, 24(%esp)
 630      00000000 
 631              		.loc 1 307 8 view .LVU182
 632 0255 85C0     		testl	%eax, %eax
 633 0257 0F8F3501 		jg	.L149
 633      0000
 634              	.LVL57:
 635 025d 8D7600   		.p2align 4,,10
 636              		.p2align 3
 637              	.L53:
 638              		.loc 1 318 16 is_stmt 1 view .LVU183
 639              		.loc 1 318 16 is_stmt 0 view .LVU184
 640 0260 8B4C2418 		movl	24(%esp), %ecx
 641 0264 8B5C240C 		movl	12(%esp), %ebx
 642 0268 85C9     		testl	%ecx, %ecx
 643 026a 7837     		js	.L61
GAS LISTING /tmp/ccSlpKKk.s 			page 13


 644              	.LVL58:
 645              	.L62:
 646              		.loc 1 318 16 view .LVU185
 647 026c 8B442418 		movl	24(%esp), %eax
 648              		.loc 1 304 8 view .LVU186
 649 0270 89FE     		movl	%edi, %esi
 650 0272 8D3C07   		leal	(%edi,%eax), %edi
 651              		.p2align 4,,10
 652 0275 8D7600   		.p2align 3
 653              	.L60:
 654              	.LVL59:
 655              		.loc 1 319 7 is_stmt 1 view .LVU187
 656              	.LBB51:
 657              	.LBB52:
 658              		.loc 1 100 13 is_stmt 0 view .LVU188
 659 0278 8B4320   		movl	32(%ebx), %eax
 660              	.LBE52:
 661              	.LBE51:
 662              		.loc 1 319 22 view .LVU189
 663 027b 83C601   		addl	$1, %esi
 664              	.LVL60:
 665              	.LBB56:
 666              	.LBI51:
 667              		.loc 1 98 6 is_stmt 1 view .LVU190
 668              	.LBB53:
 669              		.loc 1 100 3 view .LVU191
 670              		.loc 1 100 6 is_stmt 0 view .LVU192
 671 027e 85C0     		testl	%eax, %eax
 672 0280 740D     		je	.L59
 673              		.loc 1 101 5 is_stmt 1 view .LVU193
 674              	.LBE53:
 675              	.LBE56:
 676              		.loc 1 319 7 is_stmt 0 view .LVU194
 677 0282 0FBE56FF 		movsbl	-1(%esi), %edx
 678              	.LBB57:
 679              	.LBB54:
 680              		.loc 1 101 5 view .LVU195
 681 0286 83EC0C   		subl	$12, %esp
 682              		.cfi_def_cfa_offset 108
 683 0289 52       		pushl	%edx
 684              		.cfi_def_cfa_offset 112
 685              	.LVL61:
 686              		.loc 1 101 5 view .LVU196
 687 028a FFD0     		call	*%eax
 688              	.LVL62:
 689 028c 83C410   		addl	$16, %esp
 690              		.cfi_def_cfa_offset 96
 691              	.L59:
 692              		.loc 1 101 5 view .LVU197
 693              	.LBE54:
 694              	.LBE57:
 695              		.loc 1 320 7 is_stmt 1 view .LVU198
 696              		.loc 1 318 16 view .LVU199
 697              		.loc 1 318 16 is_stmt 0 view .LVU200
 698 028f 39F7     		cmpl	%esi, %edi
 699 0291 79E5     		jns	.L60
 700              		.loc 1 320 8 view .LVU201
GAS LISTING /tmp/ccSlpKKk.s 			page 14


 701 0293 8B5C2410 		movl	16(%esp), %ebx
 702 0297 8B442418 		movl	24(%esp), %eax
 703 029b 8D441801 		leal	1(%eax,%ebx), %eax
 704 029f 89442410 		movl	%eax, 16(%esp)
 705              	.LVL63:
 706              	.L61:
 707              		.loc 1 323 12 is_stmt 1 view .LVU202
 708 02a3 8B7C2414 		movl	20(%esp), %edi
 709 02a7 85FF     		testl	%edi, %edi
 710 02a9 0F84C4FD 		je	.L9
 710      FFFF
 711              		.loc 1 314 9 is_stmt 0 view .LVU203
 712 02af 0FBE5C24 		movsbl	31(%esp), %ebx
 712      1F
 713              	.LVL64:
 714              		.p2align 4,,10
 715 02b4 8D742600 		.p2align 3
 716              	.L64:
 717              		.loc 1 324 7 is_stmt 1 view .LVU204
 718              	.LBB58:
 719              	.LBI58:
 720              		.loc 1 98 6 view .LVU205
 721              	.LBB59:
 722              		.loc 1 100 3 view .LVU206
 723              		.loc 1 100 13 is_stmt 0 view .LVU207
 724 02b8 8B44240C 		movl	12(%esp), %eax
 725 02bc 8B4020   		movl	32(%eax), %eax
 726              		.loc 1 100 6 view .LVU208
 727 02bf 85C0     		testl	%eax, %eax
 728 02c1 7409     		je	.L63
 729              		.loc 1 101 5 is_stmt 1 view .LVU209
 730 02c3 83EC0C   		subl	$12, %esp
 731              		.cfi_def_cfa_offset 108
 732 02c6 53       		pushl	%ebx
 733              		.cfi_def_cfa_offset 112
 734 02c7 FFD0     		call	*%eax
 735              	.LVL65:
 736 02c9 83C410   		addl	$16, %esp
 737              		.cfi_def_cfa_offset 96
 738              	.L63:
 739              		.loc 1 101 5 is_stmt 0 view .LVU210
 740              	.LBE59:
 741              	.LBE58:
 742              		.loc 1 325 7 is_stmt 1 view .LVU211
 743              		.loc 1 326 7 view .LVU212
 744              	.LVL66:
 745              		.loc 1 323 12 view .LVU213
 746 02cc 83EF01   		subl	$1, %edi
 747              	.LVL67:
 748              		.loc 1 323 12 is_stmt 0 view .LVU214
 749 02cf 75E7     		jne	.L64
 750              		.loc 1 325 8 view .LVU215
 751 02d1 8B5C2410 		movl	16(%esp), %ebx
 752 02d5 8B442414 		movl	20(%esp), %eax
 753 02d9 01D8     		addl	%ebx, %eax
 754 02db 89442410 		movl	%eax, 16(%esp)
 755 02df E98FFDFF 		jmp	.L9
GAS LISTING /tmp/ccSlpKKk.s 			page 15


 755      FF
 756              	.LVL68:
 757              	.L29:
 758              	.LBB60:
 759              		.loc 1 234 7 is_stmt 1 view .LVU216
 760              		.loc 1 235 7 view .LVU217
 761              		.loc 1 238 7 view .LVU218
 762              		.loc 1 239 7 view .LVU219
 763              		.loc 1 239 14 is_stmt 0 view .LVU220
 764 02e4 8D4204   		leal	4(%edx), %eax
 765              		.loc 1 238 14 view .LVU221
 766 02e7 C644241F 		movb	$32, 31(%esp)
 766      20
 767              		.loc 1 239 14 view .LVU222
 768 02ec 89442424 		movl	%eax, 36(%esp)
 769              	.LVL69:
 770              		.loc 1 239 12 view .LVU223
 771 02f0 8B02     		movl	(%edx), %eax
 772              	.LVL70:
 773              		.loc 1 239 12 view .LVU224
 774 02f2 88442430 		movb	%al, 48(%esp)
 775              		.loc 1 240 7 is_stmt 1 view .LVU225
 776 02f6 8B442418 		movl	24(%esp), %eax
 777 02fa 83E801   		subl	$1, %eax
 778 02fd E92DFFFF 		jmp	.L30
 778      FF
 779              	.LVL71:
 780              	.L26:
 781              		.loc 1 242 7 view .LVU226
 782              		.loc 1 243 7 view .LVU227
 783              		.loc 1 243 14 is_stmt 0 view .LVU228
 784 0302 8B3A     		movl	(%edx), %edi
 785              	.LVL72:
 786              		.loc 1 243 14 view .LVU229
 787 0304 8D4204   		leal	4(%edx), %eax
 788 0307 89442424 		movl	%eax, 36(%esp)
 789              	.LVL73:
 790              		.loc 1 243 10 view .LVU230
 791 030b 85FF     		testl	%edi, %edi
 792 030d 0F84F802 		je	.L150
 792      0000
 793              		.loc 1 246 10 view .LVU231
 794 0313 8B5C2414 		movl	20(%esp), %ebx
 795              		.loc 1 249 20 view .LVU232
 796 0317 0FB607   		movzbl	(%edi), %eax
 797              	.LVL74:
 798              		.loc 1 246 7 is_stmt 1 view .LVU233
 799              		.loc 1 246 10 is_stmt 0 view .LVU234
 800 031a 85DB     		testl	%ebx, %ebx
 801 031c 0F840301 		je	.L34
 801      0000
 802              	.LVL75:
 803              		.loc 1 249 32 is_stmt 1 discriminator 1 view .LVU235
 804 0322 84C0     		testb	%al, %al
 805 0324 0F840801 		je	.L35
 805      0000
 806              	.LVL76:
GAS LISTING /tmp/ccSlpKKk.s 			page 16


 807              	.L33:
 808              		.loc 1 249 32 is_stmt 0 view .LVU236
 809 032a 8B5C2414 		movl	20(%esp), %ebx
 810 032e 83EB01   		subl	$1, %ebx
 811              	.LVL77:
 812              		.loc 1 249 32 view .LVU237
 813 0331 0F88FB00 		js	.L35
 813      0000
 814              	.LVL78:
 815              	.L32:
 816              		.loc 1 249 32 discriminator 4 view .LVU238
 817 0337 89F8     		movl	%edi, %eax
 818 0339 EB0D     		jmp	.L38
 819              	.LVL79:
 820 033b 8D742600 		.p2align 4,,10
 820      90
 821              		.p2align 3
 822              	.L36:
 823              		.loc 1 249 32 discriminator 4 view .LVU239
 824 0340 89FA     		movl	%edi, %edx
 825 0342 29C2     		subl	%eax, %edx
 826              		.loc 1 249 32 discriminator 3 view .LVU240
 827 0344 01DA     		addl	%ebx, %edx
 828 0346 7808     		js	.L143
 829              	.LVL80:
 830              	.L38:
 831              		.loc 1 251 7 is_stmt 1 discriminator 4 view .LVU241
 832              		.loc 1 249 56 discriminator 4 view .LVU242
 833 0348 83C001   		addl	$1, %eax
 834              	.LVL81:
 835              		.loc 1 249 32 discriminator 4 view .LVU243
 836 034b 803800   		cmpb	$0, (%eax)
 837 034e 75F0     		jne	.L36
 838              	.L143:
 839              		.loc 1 249 32 is_stmt 0 discriminator 4 view .LVU244
 840              	.LBE60:
 841              		.loc 1 299 7 view .LVU245
 842 0350 29F8     		subl	%edi, %eax
 843              	.LVL82:
 844              	.LBB61:
 845              		.loc 1 242 14 view .LVU246
 846 0352 C644241F 		movb	$32, 31(%esp)
 846      20
 847              	.LBE61:
 848              		.loc 1 299 7 view .LVU247
 849 0357 89C1     		movl	%eax, %ecx
 850              		.loc 1 300 11 view .LVU248
 851 0359 8B442418 		movl	24(%esp), %eax
 852              		.loc 1 311 10 view .LVU249
 853 035d 8D59FF   		leal	-1(%ecx), %ebx
 854 0360 895C2418 		movl	%ebx, 24(%esp)
 855              		.loc 1 300 11 view .LVU250
 856 0364 29C8     		subl	%ecx, %eax
 857              	.LVL83:
 858 0366 8DB42600 		.p2align 4,,10
 858      0000008D 
 858      7600
GAS LISTING /tmp/ccSlpKKk.s 			page 17


 859              		.p2align 3
 860              	.L37:
 861              		.loc 1 299 5 is_stmt 1 view .LVU251
 862              		.loc 1 300 5 view .LVU252
 863              		.loc 1 301 5 view .LVU253
 864 0370 31F6     		xorl	%esi, %esi
 865 0372 85C0     		testl	%eax, %eax
 866 0374 0F49F0   		cmovns	%eax, %esi
 867              		.loc 1 304 8 is_stmt 0 view .LVU254
 868 0377 807C2420 		cmpb	$0, 32(%esp)
 868      00
 869 037c 89742414 		movl	%esi, 20(%esp)
 870              	.LVL84:
 871              		.loc 1 304 5 is_stmt 1 view .LVU255
 872              		.loc 1 304 8 is_stmt 0 view .LVU256
 873 0380 0F85DAFE 		jne	.L53
 873      FFFF
 874              		.loc 1 305 7 is_stmt 1 view .LVU257
 875              		.loc 1 305 13 is_stmt 0 view .LVU258
 876 0386 F75C2414 		negl	20(%esp)
 877              	.LVL85:
 878              		.loc 1 307 5 is_stmt 1 view .LVU259
 879              		.loc 1 307 8 is_stmt 0 view .LVU260
 880 038a 85C0     		testl	%eax, %eax
 881 038c 0F8ECEFE 		jle	.L53
 881      FFFF
 882              	.L149:
 883              		.loc 1 308 7 is_stmt 1 view .LVU261
 884              		.loc 1 308 13 is_stmt 0 view .LVU262
 885 0392 0FBE17   		movsbl	(%edi), %edx
 886              	.LBB62:
 887              	.LBB41:
 888              		.loc 1 100 13 view .LVU263
 889 0395 8B44240C 		movl	12(%esp), %eax
 890              	.LBE41:
 891              	.LBE62:
 892              		.loc 1 308 24 view .LVU264
 893 0399 8D4AD5   		leal	-43(%edx), %ecx
 894              	.LBB63:
 895              	.LBB42:
 896              		.loc 1 100 13 view .LVU265
 897 039c 89C3     		movl	%eax, %ebx
 898 039e 8B4020   		movl	32(%eax), %eax
 899              	.LBE42:
 900              	.LBE63:
 901              		.loc 1 308 40 view .LVU266
 902 03a1 81E1FD00 		andl	$253, %ecx
 902      0000
 903 03a7 750B     		jne	.L54
 904 03a9 807C241F 		cmpb	$48, 31(%esp)
 904      30
 905 03ae 0F841302 		je	.L151
 905      0000
 906              	.LVL86:
 907              	.L54:
 908              		.loc 1 314 9 discriminator 1 view .LVU267
 909 03b4 8B742414 		movl	20(%esp), %esi
GAS LISTING /tmp/ccSlpKKk.s 			page 18


 910 03b8 0FBE4C24 		movsbl	31(%esp), %ecx
 910      1F
 911 03bd 897C2420 		movl	%edi, 32(%esp)
 912              	.LVL87:
 913              		.loc 1 314 9 discriminator 1 view .LVU268
 914 03c1 89F7     		movl	%esi, %edi
 915 03c3 89CE     		movl	%ecx, %esi
 916 03c5 EB0C     		jmp	.L58
 917              	.LVL88:
 918 03c7 8DB42600 		.p2align 4,,10
 918      00000066 
 918      90
 919              		.p2align 3
 920              	.L152:
 921              	.LBB64:
 922              	.LBB55:
 923              		.loc 1 100 13 view .LVU269
 924 03d0 8B4320   		movl	32(%ebx), %eax
 925              	.LVL89:
 926              	.L58:
 927              		.loc 1 100 13 view .LVU270
 928              	.LBE55:
 929              	.LBE64:
 930              		.loc 1 313 7 is_stmt 1 discriminator 1 view .LVU271
 931              		.loc 1 314 9 discriminator 1 view .LVU272
 932              	.LBB65:
 933              	.LBI65:
 934              		.loc 1 98 6 discriminator 1 view .LVU273
 935              	.LBB66:
 936              		.loc 1 100 3 discriminator 1 view .LVU274
 937              		.loc 1 100 6 is_stmt 0 discriminator 1 view .LVU275
 938 03d3 85C0     		testl	%eax, %eax
 939 03d5 7409     		je	.L56
 940              		.loc 1 101 5 is_stmt 1 view .LVU276
 941 03d7 83EC0C   		subl	$12, %esp
 942              		.cfi_def_cfa_offset 108
 943 03da 56       		pushl	%esi
 944              		.cfi_def_cfa_offset 112
 945 03db FFD0     		call	*%eax
 946              	.LVL90:
 947 03dd 83C410   		addl	$16, %esp
 948              		.cfi_def_cfa_offset 96
 949              	.L56:
 950              		.loc 1 101 5 is_stmt 0 view .LVU277
 951              	.LBE66:
 952              	.LBE65:
 953              		.loc 1 315 9 is_stmt 1 view .LVU278
 954              		.loc 1 316 24 view .LVU279
 955              	.LVL91:
 956              		.loc 1 316 24 is_stmt 0 view .LVU280
 957 03e0 83C701   		addl	$1, %edi
 958              	.LVL92:
 959              		.loc 1 316 24 view .LVU281
 960 03e3 75EB     		jne	.L152
 961              	.LVL93:
 962              		.loc 1 318 16 is_stmt 1 view .LVU282
 963 03e5 8B542418 		movl	24(%esp), %edx
GAS LISTING /tmp/ccSlpKKk.s 			page 19


 964              		.loc 1 315 10 is_stmt 0 view .LVU283
 965 03e9 8B4C2414 		movl	20(%esp), %ecx
 966              		.loc 1 316 24 view .LVU284
 967 03ed C7442414 		movl	$0, 20(%esp)
 967      00000000 
 968              	.LVL94:
 969              		.loc 1 315 10 view .LVU285
 970 03f5 294C2410 		subl	%ecx, 16(%esp)
 971              	.LVL95:
 972              		.loc 1 315 10 view .LVU286
 973 03f9 8B7C2420 		movl	32(%esp), %edi
 974              		.loc 1 318 16 view .LVU287
 975 03fd 85D2     		testl	%edx, %edx
 976 03ff 0F8967FE 		jns	.L62
 976      FFFF
 977 0405 E969FCFF 		jmp	.L9
 977      FF
 978              	.LVL96:
 979 040a 8DB60000 		.p2align 4,,10
 979      0000
 980              		.p2align 3
 981              	.L86:
 982              		.loc 1 304 8 view .LVU288
 983 0410 C7442418 		movl	$0, 24(%esp)
 983      00000000 
 984 0418 8B5C240C 		movl	12(%esp), %ebx
 985 041c 8D7C2430 		leal	48(%esp), %edi
 986              	.LVL97:
 987              		.loc 1 304 8 view .LVU289
 988 0420 E947FEFF 		jmp	.L62
 988      FF
 989              	.LVL98:
 990              	.L34:
 991              	.LBB68:
 992              		.loc 1 249 32 is_stmt 1 view .LVU290
 993 0425 BBFE7F00 		movl	$32766, %ebx
 993      00
 994 042a 84C0     		testb	%al, %al
 995 042c 0F8505FF 		jne	.L32
 995      FFFF
 996              	.LVL99:
 997              	.L35:
 998              		.loc 1 249 32 is_stmt 0 view .LVU291
 999              	.LBE68:
 1000              		.loc 1 299 5 is_stmt 1 view .LVU292
 1001              		.loc 1 300 5 view .LVU293
 1002              		.loc 1 301 5 view .LVU294
 1003 0432 8B442418 		movl	24(%esp), %eax
 1004 0436 31F6     		xorl	%esi, %esi
 1005              		.loc 1 304 8 is_stmt 0 view .LVU295
 1006 0438 C644241F 		movb	$32, 31(%esp)
 1006      20
 1007 043d 85C0     		testl	%eax, %eax
 1008 043f 0F49F0   		cmovns	%eax, %esi
 1009 0442 807C2420 		cmpb	$0, 32(%esp)
 1009      00
 1010 0447 89742414 		movl	%esi, 20(%esp)
GAS LISTING /tmp/ccSlpKKk.s 			page 20


 1011              	.LVL100:
 1012              		.loc 1 304 5 is_stmt 1 view .LVU296
 1013              		.loc 1 304 8 is_stmt 0 view .LVU297
 1014 044b 0F8552FE 		jne	.L61
 1014      FFFF
 1015              		.loc 1 305 7 is_stmt 1 view .LVU298
 1016              		.loc 1 307 5 view .LVU299
 1017              		.loc 1 307 8 is_stmt 0 view .LVU300
 1018 0451 8B442418 		movl	24(%esp), %eax
 1019              		.loc 1 305 13 view .LVU301
 1020 0455 F75C2414 		negl	20(%esp)
 1021              		.loc 1 307 8 view .LVU302
 1022 0459 85C0     		testl	%eax, %eax
 1023 045b 0F8E42FE 		jle	.L61
 1023      FFFF
 1024              		.loc 1 308 7 is_stmt 1 view .LVU303
 1025              	.LBB69:
 1026              	.LBB43:
 1027              		.loc 1 100 13 is_stmt 0 view .LVU304
 1028 0461 8B44240C 		movl	12(%esp), %eax
 1029 0465 C7442418 		movl	$-1, 24(%esp)
 1029      FFFFFFFF 
 1030 046d 89C3     		movl	%eax, %ebx
 1031 046f 8B4020   		movl	32(%eax), %eax
 1032 0472 E93DFFFF 		jmp	.L54
 1032      FF
 1033              	.LVL101:
 1034 0477 8DB42600 		.p2align 4,,10
 1034      00000066 
 1034      90
 1035              		.p2align 3
 1036              	.L28:
 1037              		.loc 1 100 13 view .LVU305
 1038              	.LBE43:
 1039              	.LBE69:
 1040              	.LBB70:
 1041              		.loc 1 257 7 is_stmt 1 view .LVU306
 1042              		.loc 1 261 13 is_stmt 0 view .LVU307
 1043 0480 8D7204   		leal	4(%edx), %esi
 1044              		.loc 1 257 10 view .LVU308
 1045 0483 807C242C 		cmpb	$25, 44(%esp)
 1045      19
 1046              		.loc 1 261 13 view .LVU309
 1047 0488 89742424 		movl	%esi, 36(%esp)
 1048              		.loc 1 257 10 view .LVU310
 1049 048c 0F860F01 		jbe	.L40
 1049      0000
 1050              		.loc 1 261 9 is_stmt 1 view .LVU311
 1051              	.LVL102:
 1052              		.loc 1 261 13 is_stmt 0 view .LVU312
 1053 0492 8B32     		movl	(%edx), %esi
 1054              	.LVL103:
 1055              		.loc 1 263 7 is_stmt 1 view .LVU313
 1056              		.loc 1 263 10 is_stmt 0 view .LVU314
 1057 0494 85F6     		testl	%esi, %esi
 1058 0496 0F881301 		js	.L153
 1058      0000
GAS LISTING /tmp/ccSlpKKk.s 			page 21


 1059              	.LVL104:
 1060              	.L42:
 1061              		.loc 1 268 9 is_stmt 1 view .LVU315
 1062              		.loc 1 268 12 is_stmt 0 view .LVU316
 1063 049c 89F8     		movl	%edi, %eax
 1064 049e 84C0     		testb	%al, %al
 1065 04a0 0F848501 		je	.L81
 1065      0000
 1066              	.LVL105:
 1067              		.loc 1 269 11 is_stmt 1 view .LVU317
 1068              		.loc 1 269 11 is_stmt 0 view .LVU318
 1069 04a6 8D442430 		leal	48(%esp), %eax
 1070              	.LVL106:
 1071              		.loc 1 269 16 view .LVU319
 1072 04aa C6442430 		movb	$43, 48(%esp)
 1072      2B
 1073              		.loc 1 269 13 view .LVU320
 1074 04af 8D5C2431 		leal	49(%esp), %ebx
 1075              	.LVL107:
 1076              		.loc 1 269 13 view .LVU321
 1077 04b3 89442414 		movl	%eax, 20(%esp)
 1078              	.LVL108:
 1079              	.L43:
 1080              		.loc 1 271 7 is_stmt 1 view .LVU322
 1081              	.LBB45:
 1082              	.LBI45:
 1083              		.loc 1 84 14 view .LVU323
 1084              		.loc 1 86 3 view .LVU324
 1085              	.LBB46:
 1086              	.LBI46:
 1087              		.loc 1 52 14 view .LVU325
 1088              	.LBB47:
 1089              		.loc 1 53 3 view .LVU326
 1090              		.loc 1 54 3 view .LVU327
 1091              		.loc 1 55 3 view .LVU328
 1092              		.loc 1 57 3 view .LVU329
 1093              		.loc 1 58 3 view .LVU330
 1094              		.loc 1 64 3 view .LVU331
 1095              		.loc 1 64 5 is_stmt 0 view .LVU332
 1096 04b7 8D430B   		leal	11(%ebx), %eax
 1097 04ba 8944242C 		movl	%eax, 44(%esp)
 1098              	.LVL109:
 1099              		.loc 1 64 5 view .LVU333
 1100 04be 89C1     		movl	%eax, %ecx
 1101              	.LVL110:
 1102              		.p2align 4,,10
 1103              		.p2align 3
 1104              	.L44:
 1105              		.loc 1 65 3 is_stmt 1 view .LVU334
 1106              		.loc 1 66 5 view .LVU335
 1107              		.loc 1 66 7 is_stmt 0 view .LVU336
 1108 04c0 B8CDCCCC 		movl	$-858993459, %eax
 1108      CC
 1109              		.loc 1 71 10 view .LVU337
 1110 04c5 83E901   		subl	$1, %ecx
 1111              	.LVL111:
 1112              		.loc 1 66 7 view .LVU338
GAS LISTING /tmp/ccSlpKKk.s 			page 22


 1113 04c8 F7E6     		mull	%esi
 1114 04ca C1EA03   		shrl	$3, %edx
 1115 04cd 8D3C92   		leal	(%edx,%edx,4), %edi
 1116 04d0 89D0     		movl	%edx, %eax
 1117 04d2 01FF     		addl	%edi, %edi
 1118 04d4 29FE     		subl	%edi, %esi
 1119              	.LVL112:
 1120              		.loc 1 66 7 view .LVU339
 1121 04d6 89F2     		movl	%esi, %edx
 1122              	.LVL113:
 1123              		.loc 1 67 5 is_stmt 1 view .LVU340
 1124              		.loc 1 68 5 view .LVU341
 1125              		.loc 1 71 5 view .LVU342
 1126              		.loc 1 72 7 is_stmt 0 view .LVU343
 1127 04d8 89C6     		movl	%eax, %esi
 1128              		.loc 1 67 7 view .LVU344
 1129 04da 83C230   		addl	$48, %edx
 1130              	.LVL114:
 1131              		.loc 1 71 10 view .LVU345
 1132 04dd 8811     		movb	%dl, (%ecx)
 1133              		.loc 1 72 5 is_stmt 1 view .LVU346
 1134              	.LVL115:
 1135              		.loc 1 73 5 view .LVU347
 1136              		.loc 1 74 15 view .LVU348
 1137 04df 85C0     		testl	%eax, %eax
 1138 04e1 75DD     		jne	.L44
 1139              		.loc 1 76 3 view .LVU349
 1140              	.LVL116:
 1141              		.loc 1 76 5 is_stmt 0 view .LVU350
 1142 04e3 8B44242C 		movl	44(%esp), %eax
 1143              	.LVL117:
 1144              		.loc 1 76 5 view .LVU351
 1145 04e7 29C8     		subl	%ecx, %eax
 1146              	.LVL118:
 1147              		.loc 1 76 5 view .LVU352
 1148 04e9 01D8     		addl	%ebx, %eax
 1149              	.LVL119:
 1150              		.loc 1 76 5 view .LVU353
 1151 04eb EB06     		jmp	.L46
 1152              	.LVL120:
 1153 04ed 8D7600   		.p2align 4,,10
 1154              		.p2align 3
 1155              	.L45:
 1156              		.loc 1 78 12 view .LVU354
 1157 04f0 0FB611   		movzbl	(%ecx), %edx
 1158              	.L46:
 1159              		.loc 1 77 3 is_stmt 1 view .LVU355
 1160              		.loc 1 78 5 view .LVU356
 1161              		.loc 1 78 7 is_stmt 0 view .LVU357
 1162 04f3 83C301   		addl	$1, %ebx
 1163              	.LVL121:
 1164              		.loc 1 78 14 view .LVU358
 1165 04f6 83C101   		addl	$1, %ecx
 1166              	.LVL122:
 1167              		.loc 1 78 10 view .LVU359
 1168 04f9 8853FF   		movb	%dl, -1(%ebx)
 1169              		.loc 1 79 12 is_stmt 1 view .LVU360
GAS LISTING /tmp/ccSlpKKk.s 			page 23


 1170              		.loc 1 79 12 is_stmt 0 view .LVU361
 1171 04fc 39C3     		cmpl	%eax, %ebx
 1172 04fe 75F0     		jne	.L45
 1173              	.LBE47:
 1174              	.LBE46:
 1175              	.LBE45:
 1176              	.LBE70:
 1177              		.loc 1 299 7 view .LVU362
 1178 0500 8B7C2414 		movl	20(%esp), %edi
 1179              		.loc 1 300 11 view .LVU363
 1180 0504 8B442418 		movl	24(%esp), %eax
 1181              		.loc 1 299 7 view .LVU364
 1182 0508 29FB     		subl	%edi, %ebx
 1183              	.LVL123:
 1184              		.loc 1 300 11 view .LVU365
 1185 050a 29D8     		subl	%ebx, %eax
 1186              		.loc 1 311 10 view .LVU366
 1187 050c 83EB01   		subl	$1, %ebx
 1188 050f 895C2418 		movl	%ebx, 24(%esp)
 1189 0513 E958FEFF 		jmp	.L37
 1189      FF
 1190              	.LVL124:
 1191              	.L23:
 1192              		.loc 1 233 5 view .LVU367
 1193 0518 BB100000 		movl	$16, %ebx
 1193      00
 1194              	.L25:
 1195              	.LVL125:
 1196              	.LBB71:
 1197              		.loc 1 287 7 is_stmt 1 view .LVU368
 1198              		.loc 1 261 13 is_stmt 0 view .LVU369
 1199 051d 8D7204   		leal	4(%edx), %esi
 1200              		.loc 1 287 10 view .LVU370
 1201 0520 807C242C 		cmpb	$25, 44(%esp)
 1201      19
 1202              		.loc 1 291 13 view .LVU371
 1203 0525 8B02     		movl	(%edx), %eax
 1204              		.loc 1 261 13 view .LVU372
 1205 0527 89742424 		movl	%esi, 36(%esp)
 1206              		.loc 1 287 10 view .LVU373
 1207 052b 7669     		jbe	.L48
 1208              	.LVL126:
 1209              	.L47:
 1210              		.loc 1 287 10 view .LVU374
 1211              	.LBE71:
 1212              		.loc 1 233 5 view .LVU375
 1213 052d 8D74243B 		leal	59(%esp), %esi
 1214              	.LVL127:
 1215              		.loc 1 233 5 view .LVU376
 1216 0531 89F1     		movl	%esi, %ecx
 1217              	.LVL128:
 1218              		.p2align 4,,10
 1219 0533 8D742600 		.p2align 3
 1219      90
 1220              	.L50:
 1221              	.LBB72:
 1222              	.LBB48:
GAS LISTING /tmp/ccSlpKKk.s 			page 24


 1223              	.LBB49:
 1224              	.LBB50:
 1225              		.loc 1 65 3 is_stmt 1 view .LVU377
 1226              		.loc 1 66 5 view .LVU378
 1227 0538 99       		cltd
 1228 0539 F7FB     		idivl	%ebx
 1229              	.LVL129:
 1230              		.loc 1 67 5 view .LVU379
 1231              		.loc 1 67 7 is_stmt 0 view .LVU380
 1232 053b 8D7A30   		leal	48(%edx), %edi
 1233              	.LVL130:
 1234              		.loc 1 68 5 is_stmt 1 view .LVU381
 1235              		.loc 1 69 9 is_stmt 0 view .LVU382
 1236 053e 83C237   		addl	$55, %edx
 1237 0541 83FF39   		cmpl	$57, %edi
 1238 0544 0F4FFA   		cmovg	%edx, %edi
 1239              	.LVL131:
 1240              		.loc 1 71 5 is_stmt 1 view .LVU383
 1241              		.loc 1 71 10 is_stmt 0 view .LVU384
 1242 0547 83E901   		subl	$1, %ecx
 1243              	.LVL132:
 1244              		.loc 1 71 12 view .LVU385
 1245 054a 89FA     		movl	%edi, %edx
 1246 054c 88542414 		movb	%dl, 20(%esp)
 1247              		.loc 1 71 10 view .LVU386
 1248 0550 8811     		movb	%dl, (%ecx)
 1249              		.loc 1 72 5 is_stmt 1 view .LVU387
 1250              	.LVL133:
 1251              		.loc 1 73 5 view .LVU388
 1252              		.loc 1 74 15 view .LVU389
 1253 0552 85C0     		testl	%eax, %eax
 1254 0554 75E2     		jne	.L50
 1255              		.loc 1 76 3 view .LVU390
 1256              		.loc 1 76 5 is_stmt 0 view .LVU391
 1257 0556 8D442430 		leal	48(%esp), %eax
 1258              	.LVL134:
 1259              		.loc 1 76 5 view .LVU392
 1260 055a 29CE     		subl	%ecx, %esi
 1261              	.LVL135:
 1262              		.loc 1 76 5 view .LVU393
 1263 055c 89442414 		movl	%eax, 20(%esp)
 1264 0560 8D1C30   		leal	(%eax,%esi), %ebx
 1265 0563 EB06     		jmp	.L52
 1266              	.LVL136:
 1267              		.p2align 4,,10
 1268 0565 8D7600   		.p2align 3
 1269              	.L51:
 1270              		.loc 1 78 12 view .LVU394
 1271 0568 0FB611   		movzbl	(%ecx), %edx
 1272              	.LVL137:
 1273              	.L52:
 1274              		.loc 1 77 3 is_stmt 1 view .LVU395
 1275              		.loc 1 78 5 view .LVU396
 1276              		.loc 1 78 7 is_stmt 0 view .LVU397
 1277 056b 83C001   		addl	$1, %eax
 1278              	.LVL138:
 1279              		.loc 1 78 14 view .LVU398
GAS LISTING /tmp/ccSlpKKk.s 			page 25


 1280 056e 83C101   		addl	$1, %ecx
 1281              	.LVL139:
 1282              		.loc 1 78 10 view .LVU399
 1283 0571 8850FF   		movb	%dl, -1(%eax)
 1284              		.loc 1 79 12 is_stmt 1 view .LVU400
 1285              	.LVL140:
 1286              		.loc 1 79 12 is_stmt 0 view .LVU401
 1287 0574 39D8     		cmpl	%ebx, %eax
 1288 0576 75F0     		jne	.L51
 1289              	.LBE50:
 1290              	.LBE49:
 1291              	.LBE48:
 1292              	.LBE72:
 1293              		.loc 1 300 11 view .LVU402
 1294 0578 8B442418 		movl	24(%esp), %eax
 1295              	.LVL141:
 1296              		.loc 1 311 10 view .LVU403
 1297 057c 8D5EFF   		leal	-1(%esi), %ebx
 1298              		.loc 1 151 7 view .LVU404
 1299 057f 8B7C2414 		movl	20(%esp), %edi
 1300              	.LVL142:
 1301              		.loc 1 311 10 view .LVU405
 1302 0583 895C2418 		movl	%ebx, 24(%esp)
 1303              		.loc 1 300 11 view .LVU406
 1304 0587 29F0     		subl	%esi, %eax
 1305 0589 E9E2FDFF 		jmp	.L37
 1305      FF
 1306              	.LVL143:
 1307              	.L82:
 1308              	.LBB73:
 1309              		.loc 1 277 13 view .LVU407
 1310 058e BB100000 		movl	$16, %ebx
 1310      00
 1311 0593 8D7204   		leal	4(%edx), %esi
 1312              	.LVL144:
 1313              	.L48:
 1314              		.loc 1 288 9 is_stmt 1 view .LVU408
 1315              		.loc 1 288 15 is_stmt 0 view .LVU409
 1316 0596 89742424 		movl	%esi, 36(%esp)
 1317              	.LVL145:
 1318              		.loc 1 288 13 view .LVU410
 1319 059a 8B02     		movl	(%edx), %eax
 1320              	.LVL146:
 1321              		.loc 1 288 13 view .LVU411
 1322 059c EB8F     		jmp	.L47
 1323              	.LVL147:
 1324              	.L103:
 1325              		.loc 1 288 13 view .LVU412
 1326 059e 8D7204   		leal	4(%edx), %esi
 1327              	.LVL148:
 1328              	.L40:
 1329              		.loc 1 258 9 is_stmt 1 view .LVU413
 1330              		.loc 1 258 13 is_stmt 0 view .LVU414
 1331 05a1 89742424 		movl	%esi, 36(%esp)
 1332              	.LVL149:
 1333              		.loc 1 258 13 view .LVU415
 1334 05a5 8B32     		movl	(%edx), %esi
GAS LISTING /tmp/ccSlpKKk.s 			page 26


 1335              	.LVL150:
 1336              		.loc 1 263 7 is_stmt 1 view .LVU416
 1337              		.loc 1 263 10 is_stmt 0 view .LVU417
 1338 05a7 85F6     		testl	%esi, %esi
 1339 05a9 0F89EDFE 		jns	.L42
 1339      FFFF
 1340              	.L153:
 1341              		.loc 1 264 9 is_stmt 1 view .LVU418
 1342              	.LVL151:
 1343              		.loc 1 264 9 is_stmt 0 view .LVU419
 1344 05af 8D442430 		leal	48(%esp), %eax
 1345              	.LVL152:
 1346              		.loc 1 264 14 view .LVU420
 1347 05b3 C6442430 		movb	$45, 48(%esp)
 1347      2D
 1348              		.loc 1 265 9 is_stmt 1 view .LVU421
 1349              	.LVL153:
 1350              		.loc 1 265 13 is_stmt 0 view .LVU422
 1351 05b8 F7DE     		negl	%esi
 1352              	.LVL154:
 1353              		.loc 1 264 11 view .LVU423
 1354 05ba 8D5C2431 		leal	49(%esp), %ebx
 1355              	.LVL155:
 1356              		.loc 1 264 11 view .LVU424
 1357 05be 89442414 		movl	%eax, 20(%esp)
 1358              	.LVL156:
 1359              		.loc 1 264 11 view .LVU425
 1360 05c2 E9F0FEFF 		jmp	.L43
 1360      FF
 1361              	.LVL157:
 1362              	.L151:
 1363              		.loc 1 264 11 view .LVU426
 1364              	.LBE73:
 1365              		.loc 1 309 9 is_stmt 1 view .LVU427
 1366              		.loc 1 309 24 is_stmt 0 view .LVU428
 1367 05c7 83C701   		addl	$1, %edi
 1368              	.LVL158:
 1369              	.LBB74:
 1370              	.LBI74:
 1371              		.loc 1 98 6 is_stmt 1 view .LVU429
 1372              	.LBB75:
 1373              		.loc 1 100 3 view .LVU430
 1374              		.loc 1 100 6 is_stmt 0 view .LVU431
 1375 05ca 85C0     		testl	%eax, %eax
 1376 05cc 7410     		je	.L55
 1377              		.loc 1 101 5 is_stmt 1 view .LVU432
 1378 05ce 83EC0C   		subl	$12, %esp
 1379              		.cfi_def_cfa_offset 108
 1380 05d1 52       		pushl	%edx
 1381              		.cfi_def_cfa_offset 112
 1382 05d2 FFD0     		call	*%eax
 1383              	.LVL159:
 1384              		.loc 1 101 5 is_stmt 0 view .LVU433
 1385              	.LBE75:
 1386              	.LBE74:
 1387              	.LBB76:
 1388              	.LBB67:
GAS LISTING /tmp/ccSlpKKk.s 			page 27


 1389              		.loc 1 100 13 view .LVU434
 1390 05d4 8B44241C 		movl	28(%esp), %eax
 1391 05d8 8B4020   		movl	32(%eax), %eax
 1392 05db 83C410   		addl	$16, %esp
 1393              		.cfi_def_cfa_offset 96
 1394              	.L55:
 1395              		.loc 1 100 13 view .LVU435
 1396              	.LBE67:
 1397              	.LBE76:
 1398              		.loc 1 310 9 is_stmt 1 view .LVU436
 1399              		.loc 1 311 9 view .LVU437
 1400              		.loc 1 310 10 is_stmt 0 view .LVU438
 1401 05de 83442410 		addl	$1, 16(%esp)
 1401      01
 1402              	.LVL160:
 1403              		.loc 1 318 16 view .LVU439
 1404 05e3 836C2418 		subl	$1, 24(%esp)
 1404      01
 1405 05e8 E9C7FDFF 		jmp	.L54
 1405      FF
 1406              	.LVL161:
 1407              	.L27:
 1408              	.LBB77:
 1409              		.loc 1 285 13 view .LVU440
 1410 05ed BB080000 		movl	$8, %ebx
 1410      00
 1411 05f2 E926FFFF 		jmp	.L25
 1411      FF
 1412              	.LVL162:
 1413              	.L68:
 1414              		.loc 1 287 7 is_stmt 1 view .LVU441
 1415              		.loc 1 285 13 is_stmt 0 view .LVU442
 1416 05f7 BB080000 		movl	$8, %ebx
 1416      00
 1417 05fc 8D7204   		leal	4(%edx), %esi
 1418 05ff EB95     		jmp	.L48
 1419              	.LVL163:
 1420              	.L79:
 1421              		.loc 1 281 13 view .LVU443
 1422 0601 BB0A0000 		movl	$10, %ebx
 1422      00
 1423 0606 E912FFFF 		jmp	.L25
 1423      FF
 1424              	.LVL164:
 1425              	.L150:
 1426              		.loc 1 246 7 is_stmt 1 view .LVU444
 1427              		.loc 1 244 11 is_stmt 0 view .LVU445
 1428 060b 8B442428 		movl	40(%esp), %eax
 1429              	.LVL165:
 1430              		.loc 1 246 10 view .LVU446
 1431 060f 8B742414 		movl	20(%esp), %esi
 1432              		.loc 1 244 11 view .LVU447
 1433 0613 8DB80000 		leal	.LC0@GOTOFF(%eax), %edi
 1433      0000
 1434              		.loc 1 246 10 view .LVU448
 1435 0619 85F6     		testl	%esi, %esi
 1436 061b 0F8509FD 		jne	.L33
GAS LISTING /tmp/ccSlpKKk.s 			page 28


 1436      FFFF
 1437              		.loc 1 249 32 view .LVU449
 1438 0621 BBFE7F00 		movl	$32766, %ebx
 1438      00
 1439 0626 E90CFDFF 		jmp	.L32
 1439      FF
 1440              	.LVL166:
 1441              	.L81:
 1442              		.loc 1 249 32 view .LVU450
 1443              	.LBE77:
 1444              		.loc 1 150 7 view .LVU451
 1445 062b 8D5C2430 		leal	48(%esp), %ebx
 1446              	.LVL167:
 1447              		.loc 1 150 7 view .LVU452
 1448 062f 895C2414 		movl	%ebx, 20(%esp)
 1449              	.LVL168:
 1450              		.loc 1 150 7 view .LVU453
 1451 0633 E97FFEFF 		jmp	.L43
 1451      FF
 1452              	.LVL169:
 1453              	.L67:
 1454              		.loc 1 233 5 view .LVU454
 1455 0638 BB0A0000 		movl	$10, %ebx
 1455      00
 1456 063d 8D7204   		leal	4(%edx), %esi
 1457 0640 E951FFFF 		jmp	.L48
 1457      FF
 1458              	.LVL170:
 1459              	.L148:
 1460              		.loc 1 233 5 view .LVU455
 1461              	.LBE80:
 1462              		.loc 1 329 1 view .LVU456
 1463 0645 E8FCFFFF 		call	__stack_chk_fail_local
 1463      FF
 1464              	.LVL171:
 1465              		.cfi_endproc
 1466              	.LFE306:
 1467              		.size	test_vprintf, .-test_vprintf
 1468              		.section	.text.test_printf,"ax",@progbits
 1469              		.p2align 4
 1470              		.globl	test_printf
 1471              		.type	test_printf, @function
 1472              	test_printf:
 1473              	.LVL172:
 1474              	.LFB307:
 1475              		.loc 1 353 39 is_stmt 1 view -0
 1476              		.cfi_startproc
 1477              		.loc 1 354 3 view .LVU458
 1478              		.loc 1 355 3 view .LVU459
 1479              		.loc 1 357 3 view .LVU460
 1480              		.loc 1 353 39 is_stmt 0 view .LVU461
 1481 0000 83EC0C   		subl	$12, %esp
 1482              		.cfi_def_cfa_offset 16
 1483              		.loc 1 357 3 view .LVU462
 1484 0003 8D442414 		leal	20(%esp), %eax
 1485              	.LVL173:
 1486              		.loc 1 358 3 is_stmt 1 view .LVU463
GAS LISTING /tmp/ccSlpKKk.s 			page 29


 1487              		.loc 1 358 21 is_stmt 0 view .LVU464
 1488 0007 83EC08   		subl	$8, %esp
 1489              		.cfi_def_cfa_offset 24
 1490 000a 50       		pushl	%eax
 1491              		.cfi_def_cfa_offset 28
 1492 000b FF74241C 		pushl	28(%esp)
 1493              		.cfi_def_cfa_offset 32
 1494 000f E8FCFFFF 		call	test_vprintf
 1494      FF
 1495              	.LVL174:
 1496              		.loc 1 359 3 is_stmt 1 view .LVU465
 1497              		.loc 1 361 3 view .LVU466
 1498              		.loc 1 362 1 is_stmt 0 view .LVU467
 1499 0014 83C41C   		addl	$28, %esp
 1500              		.cfi_def_cfa_offset 4
 1501 0017 C3       		ret
 1502              		.cfi_endproc
 1503              	.LFE307:
 1504              		.size	test_printf, .-test_printf
 1505              		.section	.text.__x86.get_pc_thunk.dx,"axG",@progbits,__x86.get_pc_thunk.dx,comdat
 1506              		.globl	__x86.get_pc_thunk.dx
 1507              		.hidden	__x86.get_pc_thunk.dx
 1508              		.type	__x86.get_pc_thunk.dx, @function
 1509              	__x86.get_pc_thunk.dx:
 1510              	.LFB309:
 1511              		.cfi_startproc
 1512 0000 8B1424   		movl	(%esp), %edx
 1513 0003 C3       		ret
 1514              		.cfi_endproc
 1515              	.LFE309:
 1516              		.section	.text.__x86.get_pc_thunk.cx,"axG",@progbits,__x86.get_pc_thunk.cx,comdat
 1517              		.globl	__x86.get_pc_thunk.cx
 1518              		.hidden	__x86.get_pc_thunk.cx
 1519              		.type	__x86.get_pc_thunk.cx, @function
 1520              	__x86.get_pc_thunk.cx:
 1521              	.LFB310:
 1522              		.cfi_startproc
 1523 0000 8B0C24   		movl	(%esp), %ecx
 1524 0003 C3       		ret
 1525              		.cfi_endproc
 1526              	.LFE310:
 1527              		.text
 1528              	.Letext0:
 1529              		.file 2 "/usr/lib/gcc/x86_64-linux-gnu/11/include/stdarg.h"
 1530              		.file 3 "/usr/lib/gcc/x86_64-linux-gnu/11/include/stddef.h"
 1531              		.file 4 "/usr/include/bits/types.h"
 1532              		.file 5 "/usr/include/bits/stdint-intn.h"
 1533              		.file 6 "/usr/include/bits/stdint-uintn.h"
 1534              		.file 7 "../../../os/common/ports/SIMIA32/compilers/GCC/chtypes.h"
 1535              		.file 8 "../../../os/hal/include/hal_streams.h"
 1536              		.file 9 "../../../os/test/include/ch_test.h"
 5712 0055 2F686F6D 		.section	.note.GNU-stack,"",@progbits
 5712      652F616C 
 5712      65782F43 
 5712      68696269 
 5712      4F532F64 
GAS LISTING /tmp/ccSlpKKk.s 			page 106

