GAS LISTING /tmp/cca35Yhx.s 			page 1


   1              		.file	"chschd.c"
   2              		.text
   3              	.Ltext0:
   4              		.file 0 "/home/alex/ChibiOS/demos/various/LAB2_VARIANT2" "../../../os/rt/src/chschd.c"
   5              		.section	.text.__sch_wakeup,"ax",@progbits
   6              		.p2align 4
   7              		.type	__sch_wakeup, @function
   8              	__sch_wakeup:
   9              	.LVL0:
  10              	.LFB207:
  11              		.file 1 "../../../os/rt/src/chschd.c"
  12              		.loc 1 188 57 view -0
  13              		.cfi_startproc
  14              		.loc 1 189 3 view .LVU1
  15 0000 E8FCFFFF 		call	__x86.get_pc_thunk.ax
  15      FF
  16 0005 05010000 		addl	$_GLOBAL_OFFSET_TABLE_, %eax
  16      00
  17              		.loc 1 188 57 is_stmt 0 view .LVU2
  18 000a 53       		pushl	%ebx
  19              		.cfi_def_cfa_offset 8
  20              		.cfi_offset 3, -8
  21              		.loc 1 188 57 view .LVU3
  22 000b 8B54240C 		movl	12(%esp), %edx
  23              	.LVL1:
  24              		.loc 1 191 3 is_stmt 1 view .LVU4
  25              		.loc 1 193 3 view .LVU5
  26              	.LBB58:
  27              	.LBI58:
  28              		.file 2 "../../../os/rt/include/chsys.h"
  29              		.loc 2 451 20 view .LVU6
  30              		.loc 2 453 3 view .LVU7
  31              	.LBB59:
  32              	.LBI59:
  33              		.file 3 "../../../os/common/ports/SIMIA32/chcore.h"
  34              		.loc 3 380 20 view .LVU8
  35              	.LBB60:
  36              		.loc 3 382 3 view .LVU9
  37              	.LBE60:
  38              	.LBE59:
  39              	.LBE58:
  40              		.loc 1 194 3 is_stmt 0 view .LVU10
  41 000f 807A1C0C 		cmpb	$12, 28(%edx)
  42              	.LBB63:
  43              	.LBB62:
  44              	.LBB61:
  45              		.loc 3 382 16 view .LVU11
  46 0013 8B980000 		movl	port_irq_sts@GOT(%eax), %ebx
  46      0000
  47 0019 C7030100 		movl	$1, (%ebx)
  47      0000
  48              	.LBE61:
  49              	.LBE62:
  50              		.loc 2 454 35 is_stmt 1 view .LVU12
  51              		.loc 2 455 30 view .LVU13
  52              	.LBE63:
  53              		.loc 1 194 3 view .LVU14
GAS LISTING /tmp/cca35Yhx.s 			page 2


  54 001f 7720     		ja	.L2
  55 0021 0FB64A1C 		movzbl	28(%edx), %ecx
  56 0025 03848800 		addl	.L4@GOTOFF(%eax,%ecx,4), %eax
  56      000000
  57 002c FFE0     		jmp	*%eax
  58              		.section	.rodata.__sch_wakeup,"a",@progbits
  59              		.align 4
  60              		.align 4
  61              	.L4:
  62 0000 00000000 		.long	.L7@GOTOFF
  63 0004 00000000 		.long	.L2@GOTOFF
  64 0008 00000000 		.long	.L2@GOTOFF
  65 000c 00000000 		.long	.L6@GOTOFF
  66 0010 00000000 		.long	.L3@GOTOFF
  67 0014 00000000 		.long	.L5@GOTOFF
  68 0018 00000000 		.long	.L2@GOTOFF
  69 001c 00000000 		.long	.L3@GOTOFF
  70 0020 00000000 		.long	.L2@GOTOFF
  71 0024 00000000 		.long	.L2@GOTOFF
  72 0028 00000000 		.long	.L2@GOTOFF
  73 002c 00000000 		.long	.L2@GOTOFF
  74 0030 00000000 		.long	.L3@GOTOFF
  75              		.section	.text.__sch_wakeup
  76 002e 6690     		.p2align 4,,10
  77              		.p2align 3
  78              	.L5:
  79              		.loc 1 205 5 view .LVU15
  80              		.loc 1 205 27 is_stmt 0 view .LVU16
  81 0030 8B4234   		movl	52(%edx), %eax
  82              	.LVL2:
  83              	.LBB64:
  84              	.LBI64:
  85              		.file 4 "../../../os/rt/include/chsem.h"
  86              		.loc 4 175 20 is_stmt 1 view .LVU17
  87              	.LBB65:
  88              		.loc 4 177 21 view .LVU18
  89              		.loc 4 179 3 view .LVU19
  90              		.loc 4 179 10 is_stmt 0 view .LVU20
  91 0033 83400801 		addl	$1, 8(%eax)
  92              	.LVL3:
  93              	.L3:
  94              		.loc 4 179 10 view .LVU21
  95              	.LBE65:
  96              	.LBE64:
  97              		.loc 1 218 5 is_stmt 1 view .LVU22
  98              	.LBB66:
  99              	.LBI66:
 100              		.file 5 "../../../os/rt/include/chlists.h"
 101              		.loc 5 378 27 view .LVU23
 102              	.LBB67:
 103              		.loc 5 380 3 view .LVU24
 104              		.loc 5 380 4 is_stmt 0 view .LVU25
 105 0037 8B4A04   		movl	4(%edx), %ecx
 106              		.loc 5 380 20 view .LVU26
 107 003a 8B02     		movl	(%edx), %eax
 108              		.loc 5 380 17 view .LVU27
 109 003c 8901     		movl	%eax, (%ecx)
GAS LISTING /tmp/cca35Yhx.s 			page 3


 110              		.loc 5 381 3 is_stmt 1 view .LVU28
 111              		.loc 5 381 17 is_stmt 0 view .LVU29
 112 003e 894804   		movl	%ecx, 4(%eax)
 113              		.loc 5 383 3 is_stmt 1 view .LVU30
 114              	.LVL4:
 115              	.L2:
 116              		.loc 5 383 3 is_stmt 0 view .LVU31
 117              	.LBE67:
 118              	.LBE66:
 119              		.loc 1 226 3 is_stmt 1 view .LVU32
 120              	.LBB68:
 121              	.LBB69:
 122              		.loc 1 80 10 is_stmt 0 view .LVU33
 123 0041 8B4210   		movl	16(%edx), %eax
 124              	.LBB70:
 125              	.LBB71:
 126              		.loc 5 439 12 view .LVU34
 127 0044 8B4A08   		movl	8(%edx), %ecx
 128              	.LBE71:
 129              	.LBE70:
 130              	.LBE69:
 131              	.LBE68:
 132              		.loc 1 226 16 view .LVU35
 133 0047 C74234FF 		movl	$-1, 52(%edx)
 133      FFFFFF
 134              		.loc 1 229 3 is_stmt 1 view .LVU36
 135              	.LVL5:
 136              	.LBB75:
 137              	.LBI68:
 138              		.loc 1 67 18 view .LVU37
 139              	.LBB74:
 140              		.loc 1 69 3 view .LVU38
 141              		.loc 1 69 3 view .LVU39
 142              		.loc 1 69 3 view .LVU40
 143              		.loc 1 74 34 view .LVU41
 144              		.loc 1 77 3 view .LVU42
 145              		.loc 1 77 13 is_stmt 0 view .LVU43
 146 004e C6421C00 		movb	$0, 28(%edx)
 147              		.loc 1 80 3 is_stmt 1 view .LVU44
 148              	.LVL6:
 149              	.LBB73:
 150              	.LBI70:
 151              		.loc 5 433 36 view .LVU45
 152              		.p2align 4,,10
 153 0052 8DB60000 		.p2align 3
 153      0000
 154              	.L8:
 155              	.LBB72:
 156              		.loc 5 437 3 view .LVU46
 157              		.loc 5 438 5 view .LVU47
 158              		.loc 5 438 9 is_stmt 0 view .LVU48
 159 0058 8B00     		movl	(%eax), %eax
 160              	.LVL7:
 161              		.loc 5 439 12 is_stmt 1 view .LVU49
 162 005a 394808   		cmpl	%ecx, 8(%eax)
 163 005d 73F9     		jnb	.L8
 164              		.loc 5 442 3 view .LVU50
GAS LISTING /tmp/cca35Yhx.s 			page 4


 165              		.loc 5 443 22 is_stmt 0 view .LVU51
 166 005f 8B4804   		movl	4(%eax), %ecx
 167              		.loc 5 442 17 view .LVU52
 168 0062 8902     		movl	%eax, (%edx)
 169              		.loc 5 443 3 is_stmt 1 view .LVU53
 170              		.loc 5 443 17 is_stmt 0 view .LVU54
 171 0064 894A04   		movl	%ecx, 4(%edx)
 172              		.loc 5 444 3 is_stmt 1 view .LVU55
 173              		.loc 5 444 17 is_stmt 0 view .LVU56
 174 0067 8911     		movl	%edx, (%ecx)
 175              		.loc 5 445 3 is_stmt 1 view .LVU57
 176              		.loc 5 445 17 is_stmt 0 view .LVU58
 177 0069 895004   		movl	%edx, 4(%eax)
 178              		.loc 5 447 3 is_stmt 1 view .LVU59
 179              	.LVL8:
 180              		.loc 5 447 3 is_stmt 0 view .LVU60
 181              	.LBE72:
 182              	.LBE73:
 183              	.LBE74:
 184              	.LBE75:
 185              		.loc 1 230 3 is_stmt 1 view .LVU61
 186              	.LBB76:
 187              	.LBI76:
 188              		.loc 2 473 20 view .LVU62
 189              	.LBB77:
 190              		.loc 2 475 32 view .LVU63
 191              		.loc 2 476 34 view .LVU64
 192              		.loc 2 477 3 view .LVU65
 193              	.L7:
 194              		.loc 2 477 3 is_stmt 0 view .LVU66
 195              	.LBE77:
 196              	.LBE76:
 197              	.LBB78:
 198              	.LBB79:
 199              	.LBB80:
 200              		.loc 3 392 16 view .LVU67
 201 006c C7030000 		movl	$0, (%ebx)
 201      0000
 202              	.LBE80:
 203              	.LBE79:
 204              	.LBE78:
 205              		.loc 1 233 1 view .LVU68
 206 0072 5B       		popl	%ebx
 207              		.cfi_remember_state
 208              		.cfi_restore 3
 209              		.cfi_def_cfa_offset 4
 210 0073 C3       		ret
 211              		.p2align 4,,10
 212 0074 8D742600 		.p2align 3
 213              	.L6:
 214              		.cfi_restore_state
 215              		.loc 1 201 5 is_stmt 1 view .LVU69
 216              		.loc 1 201 11 is_stmt 0 view .LVU70
 217 0078 8B4234   		movl	52(%edx), %eax
 218              		.loc 1 201 18 view .LVU71
 219 007b C7000000 		movl	$0, (%eax)
 219      0000
GAS LISTING /tmp/cca35Yhx.s 			page 5


 220              		.loc 1 202 5 is_stmt 1 view .LVU72
 221 0081 EBBE     		jmp	.L2
 222              		.cfi_endproc
 223              	.LFE207:
 224              		.size	__sch_wakeup, .-__sch_wakeup
 225              		.section	.text.chSchReadyI,"ax",@progbits
 226              		.p2align 4
 227              		.globl	chSchReadyI
 228              		.type	chSchReadyI, @function
 229              	chSchReadyI:
 230              	.LVL9:
 231              	.LFB208:
 232              		.loc 1 280 37 view -0
 233              		.cfi_startproc
 234              		.loc 1 282 21 view .LVU74
 235              		.loc 1 283 3 view .LVU75
 236              		.loc 1 283 3 view .LVU76
 237              		.loc 1 283 3 view .LVU77
 238              		.loc 1 293 3 view .LVU78
 239              		.loc 1 280 37 is_stmt 0 view .LVU79
 240 0000 8B4C2404 		movl	4(%esp), %ecx
 241              	.LVL10:
 242              	.LBB85:
 243              	.LBI85:
 244              		.loc 1 67 18 is_stmt 1 view .LVU80
 245              	.LBB86:
 246              		.loc 1 69 3 view .LVU81
 247              		.loc 1 69 3 view .LVU82
 248              		.loc 1 69 3 view .LVU83
 249              		.loc 1 74 34 view .LVU84
 250              		.loc 1 77 3 view .LVU85
 251              		.loc 1 80 10 is_stmt 0 view .LVU86
 252 0004 8B4110   		movl	16(%ecx), %eax
 253              	.LBB87:
 254              	.LBB88:
 255              		.loc 5 439 12 view .LVU87
 256 0007 8B5108   		movl	8(%ecx), %edx
 257              	.LBE88:
 258              	.LBE87:
 259              		.loc 1 77 13 view .LVU88
 260 000a C6411C00 		movb	$0, 28(%ecx)
 261              		.loc 1 80 3 is_stmt 1 view .LVU89
 262              	.LVL11:
 263              	.LBB90:
 264              	.LBI87:
 265              		.loc 5 433 36 view .LVU90
 266 000e 6690     		.p2align 4,,10
 267              		.p2align 3
 268              	.L13:
 269              	.LBB89:
 270              		.loc 5 437 3 view .LVU91
 271              		.loc 5 438 5 view .LVU92
 272              		.loc 5 438 9 is_stmt 0 view .LVU93
 273 0010 8B00     		movl	(%eax), %eax
 274              	.LVL12:
 275              		.loc 5 439 12 is_stmt 1 view .LVU94
 276 0012 395008   		cmpl	%edx, 8(%eax)
GAS LISTING /tmp/cca35Yhx.s 			page 6


 277 0015 73F9     		jnb	.L13
 278              		.loc 5 442 3 view .LVU95
 279              		.loc 5 443 22 is_stmt 0 view .LVU96
 280 0017 8B5004   		movl	4(%eax), %edx
 281              		.loc 5 442 17 view .LVU97
 282 001a 8901     		movl	%eax, (%ecx)
 283              		.loc 5 443 3 is_stmt 1 view .LVU98
 284              		.loc 5 443 17 is_stmt 0 view .LVU99
 285 001c 895104   		movl	%edx, 4(%ecx)
 286              		.loc 5 444 3 is_stmt 1 view .LVU100
 287              		.loc 5 444 17 is_stmt 0 view .LVU101
 288 001f 890A     		movl	%ecx, (%edx)
 289              		.loc 5 445 3 is_stmt 1 view .LVU102
 290              		.loc 5 445 17 is_stmt 0 view .LVU103
 291 0021 894804   		movl	%ecx, 4(%eax)
 292              		.loc 5 447 3 is_stmt 1 view .LVU104
 293              	.LVL13:
 294              		.loc 5 447 3 is_stmt 0 view .LVU105
 295              	.LBE89:
 296              	.LBE90:
 297              	.LBE86:
 298              	.LBE85:
 299              		.loc 1 294 1 view .LVU106
 300 0024 89C8     		movl	%ecx, %eax
 301 0026 C3       		ret
 302              		.cfi_endproc
 303              	.LFE208:
 304              		.size	chSchReadyI, .-chSchReadyI
 305              		.section	.text.chSchGoSleepS,"ax",@progbits
 306              		.p2align 4
 307              		.globl	chSchGoSleepS
 308              		.type	chSchGoSleepS, @function
 309              	chSchGoSleepS:
 310              	.LVL14:
 311              	.LFB209:
 312              		.loc 1 305 39 is_stmt 1 view -0
 313              		.cfi_startproc
 314              		.loc 1 306 3 view .LVU108
 315              		.loc 1 307 3 view .LVU109
 316              		.loc 1 305 39 is_stmt 0 view .LVU110
 317 0000 56       		pushl	%esi
 318              		.cfi_def_cfa_offset 8
 319              		.cfi_offset 6, -8
 320 0001 53       		pushl	%ebx
 321              		.cfi_def_cfa_offset 12
 322              		.cfi_offset 3, -12
 323 0002 E8FCFFFF 		call	__x86.get_pc_thunk.bx
 323      FF
 324 0007 81C30200 		addl	$_GLOBAL_OFFSET_TABLE_, %ebx
 324      0000
 325 000d 83EC04   		subl	$4, %esp
 326              		.cfi_def_cfa_offset 16
 327              		.loc 1 316 14 view .LVU111
 328 0010 8B4C2410 		movl	16(%esp), %ecx
 329              		.loc 1 307 13 view .LVU112
 330 0014 8B830000 		movl	ch0@GOT(%ebx), %eax
 330      0000
GAS LISTING /tmp/cca35Yhx.s 			page 7


 331 001a 8B500C   		movl	12(%eax), %edx
 332              	.LVL15:
 333              		.loc 1 308 3 is_stmt 1 view .LVU113
 334              		.loc 1 310 21 view .LVU114
 335              		.loc 1 312 3 view .LVU115
 336              		.loc 1 312 3 view .LVU116
 337              		.loc 1 312 3 view .LVU117
 338              		.loc 1 313 3 view .LVU118
 339              		.loc 1 313 3 view .LVU119
 340              		.loc 1 313 3 view .LVU120
 341              		.loc 1 316 3 view .LVU121
 342              		.loc 1 316 14 is_stmt 0 view .LVU122
 343 001d 884A1C   		movb	%cl, 28(%edx)
 344              		.loc 1 325 3 is_stmt 1 view .LVU123
 345              	.LVL16:
 346              	.LBB93:
 347              	.LBI93:
 348              		.loc 5 412 36 view .LVU124
 349              	.LBB94:
 350              		.loc 5 413 3 view .LVU125
 351              		.loc 5 413 24 is_stmt 0 view .LVU126
 352 0020 8B08     		movl	(%eax), %ecx
 353              	.LVL17:
 354              		.loc 5 415 3 is_stmt 1 view .LVU127
 355              		.loc 5 415 22 is_stmt 0 view .LVU128
 356 0022 8B31     		movl	(%ecx), %esi
 357              		.loc 5 416 19 view .LVU129
 358 0024 894604   		movl	%eax, 4(%esi)
 359              		.loc 5 415 19 view .LVU130
 360 0027 8930     		movl	%esi, (%eax)
 361              		.loc 5 416 3 is_stmt 1 view .LVU131
 362              		.loc 5 418 3 view .LVU132
 363              	.LVL18:
 364              		.loc 5 418 3 is_stmt 0 view .LVU133
 365              	.LBE94:
 366              	.LBE93:
 367              		.loc 1 326 3 is_stmt 1 view .LVU134
 368              		.loc 1 326 14 is_stmt 0 view .LVU135
 369 0029 C6411C01 		movb	$1, 28(%ecx)
 370              		.loc 1 327 3 is_stmt 1 view .LVU136
 371 002d 89480C   		movl	%ecx, 12(%eax)
 372              		.loc 1 330 3 view .LVU137
 373              		.loc 1 331 5 view .LVU138
 374              		.loc 1 331 29 view .LVU139
 375              		.loc 1 335 3 view .LVU140
 376              		.loc 1 335 3 view .LVU141
 377              		.loc 1 335 3 view .LVU142
 378              		.loc 1 335 3 view .LVU143
 379              		.loc 1 335 3 view .LVU144
 380 0030 E8FCFFFF 		call	port_switch@PLT
 380      FF
 381              	.LVL19:
 382              		.loc 1 335 24 view .LVU145
 383              		.loc 1 336 1 is_stmt 0 view .LVU146
 384 0035 83C404   		addl	$4, %esp
 385              		.cfi_def_cfa_offset 12
 386 0038 5B       		popl	%ebx
GAS LISTING /tmp/cca35Yhx.s 			page 8


 387              		.cfi_restore 3
 388              		.cfi_def_cfa_offset 8
 389 0039 5E       		popl	%esi
 390              		.cfi_restore 6
 391              		.cfi_def_cfa_offset 4
 392 003a C3       		ret
 393              		.cfi_endproc
 394              	.LFE209:
 395              		.size	chSchGoSleepS, .-chSchGoSleepS
 396              		.section	.text.chSchGoSleepTimeoutS,"ax",@progbits
 397              		.p2align 4
 398              		.globl	chSchGoSleepTimeoutS
 399              		.type	chSchGoSleepTimeoutS, @function
 400              	chSchGoSleepTimeoutS:
 401              	.LVL20:
 402              	.LFB210:
 403              		.loc 1 358 70 is_stmt 1 view -0
 404              		.cfi_startproc
 405              		.loc 1 358 70 is_stmt 0 view .LVU148
 406 0000 55       		pushl	%ebp
 407              		.cfi_def_cfa_offset 8
 408              		.cfi_offset 5, -8
 409 0001 57       		pushl	%edi
 410              		.cfi_def_cfa_offset 12
 411              		.cfi_offset 7, -12
 412 0002 56       		pushl	%esi
 413              		.cfi_def_cfa_offset 16
 414              		.cfi_offset 6, -16
 415 0003 53       		pushl	%ebx
 416              		.cfi_def_cfa_offset 20
 417              		.cfi_offset 3, -20
 418 0004 E8FCFFFF 		call	__x86.get_pc_thunk.bx
 418      FF
 419 0009 81C30200 		addl	$_GLOBAL_OFFSET_TABLE_, %ebx
 419      0000
 420 000f 83EC3C   		subl	$60, %esp
 421              		.cfi_def_cfa_offset 80
 422              		.loc 1 358 70 view .LVU149
 423 0012 658B0D14 		movl	%gs:20, %ecx
 423      000000
 424 0019 894C242C 		movl	%ecx, 44(%esp)
 425 001d 31C9     		xorl	%ecx, %ecx
 426              		.loc 1 359 3 is_stmt 1 view .LVU150
 427              		.loc 1 358 70 is_stmt 0 view .LVU151
 428 001f 8B442454 		movl	84(%esp), %eax
 429 0023 8B542450 		movl	80(%esp), %edx
 430              		.loc 1 359 13 view .LVU152
 431 0027 8BB30000 		movl	ch0@GOT(%ebx), %esi
 431      0000
 432 002d 8B7E0C   		movl	12(%esi), %edi
 433              	.LVL21:
 434              		.loc 1 361 21 is_stmt 1 view .LVU153
 435              		.loc 1 363 3 view .LVU154
 436              		.loc 1 363 6 is_stmt 0 view .LVU155
 437 0030 83F8FF   		cmpl	$-1, %eax
 438 0033 746B     		je	.L18
 439              	.LBB106:
GAS LISTING /tmp/cca35Yhx.s 			page 9


 440              		.loc 1 366 5 view .LVU156
 441 0035 8D8B0000 		leal	__sch_wakeup@GOTOFF(%ebx), %ecx
 441      0000
 442 003b 8954240C 		movl	%edx, 12(%esp)
 443              		.loc 1 364 5 is_stmt 1 view .LVU157
 444              		.loc 1 366 5 view .LVU158
 445 003f 57       		pushl	%edi
 446              		.cfi_def_cfa_offset 84
 447 0040 51       		pushl	%ecx
 448              		.cfi_def_cfa_offset 88
 449 0041 50       		pushl	%eax
 450              		.cfi_def_cfa_offset 92
 451 0042 8D6C2420 		leal	32(%esp), %ebp
 452 0046 55       		pushl	%ebp
 453              		.cfi_def_cfa_offset 96
 454 0047 E8FCFFFF 		call	chVTDoSetI@PLT
 454      FF
 455              	.LVL22:
 456              		.loc 1 367 5 view .LVU159
 457              	.LBB107:
 458              	.LBI107:
 459              		.loc 1 305 6 view .LVU160
 460              	.LBB108:
 461              		.loc 1 306 3 view .LVU161
 462              		.loc 1 307 3 view .LVU162
 463              		.loc 1 307 13 is_stmt 0 view .LVU163
 464 004c 8B460C   		movl	12(%esi), %eax
 465              	.LVL23:
 466              		.loc 1 308 3 is_stmt 1 view .LVU164
 467              		.loc 1 310 21 view .LVU165
 468              		.loc 1 312 3 view .LVU166
 469              		.loc 1 312 3 view .LVU167
 470              		.loc 1 312 3 view .LVU168
 471              		.loc 1 313 3 view .LVU169
 472              		.loc 1 313 3 view .LVU170
 473              		.loc 1 313 3 view .LVU171
 474              		.loc 1 316 3 view .LVU172
 475              		.loc 1 316 14 is_stmt 0 view .LVU173
 476 004f 8B54241C 		movl	28(%esp), %edx
 477              	.LBB109:
 478              	.LBB110:
 479              		.loc 5 413 24 view .LVU174
 480 0053 8B0E     		movl	(%esi), %ecx
 481              	.LBE110:
 482              	.LBE109:
 483              		.loc 1 316 14 view .LVU175
 484 0055 88501C   		movb	%dl, 28(%eax)
 485              		.loc 1 325 3 is_stmt 1 view .LVU176
 486              	.LVL24:
 487              	.LBB113:
 488              	.LBI109:
 489              		.loc 5 412 36 view .LVU177
 490              	.LBB111:
 491              		.loc 5 413 3 view .LVU178
 492              		.loc 5 415 3 view .LVU179
 493              		.loc 5 415 22 is_stmt 0 view .LVU180
 494 0058 8B11     		movl	(%ecx), %edx
GAS LISTING /tmp/cca35Yhx.s 			page 10


 495              		.loc 5 416 19 view .LVU181
 496 005a 897204   		movl	%esi, 4(%edx)
 497              	.LBE111:
 498              	.LBE113:
 499              		.loc 1 326 14 view .LVU182
 500 005d C6411C01 		movb	$1, 28(%ecx)
 501              	.LBB114:
 502              	.LBB112:
 503              		.loc 5 415 19 view .LVU183
 504 0061 8916     		movl	%edx, (%esi)
 505              		.loc 5 416 3 is_stmt 1 view .LVU184
 506              		.loc 5 418 3 view .LVU185
 507              	.LVL25:
 508              		.loc 5 418 3 is_stmt 0 view .LVU186
 509              	.LBE112:
 510              	.LBE114:
 511              		.loc 1 326 3 is_stmt 1 view .LVU187
 512              		.loc 1 327 3 view .LVU188
 513              		.loc 1 335 3 is_stmt 0 view .LVU189
 514 0063 89C2     		movl	%eax, %edx
 515              		.loc 1 327 3 view .LVU190
 516 0065 894E0C   		movl	%ecx, 12(%esi)
 517              		.loc 1 330 3 is_stmt 1 view .LVU191
 518              		.loc 1 331 5 view .LVU192
 519              		.loc 1 331 29 view .LVU193
 520              		.loc 1 335 3 view .LVU194
 521              		.loc 1 335 3 view .LVU195
 522              		.loc 1 335 3 view .LVU196
 523              		.loc 1 335 3 view .LVU197
 524              		.loc 1 335 3 view .LVU198
 525 0068 E8FCFFFF 		call	port_switch@PLT
 525      FF
 526              	.LVL26:
 527              		.loc 1 335 24 view .LVU199
 528              		.loc 1 335 24 is_stmt 0 view .LVU200
 529              	.LBE108:
 530              	.LBE107:
 531              		.loc 1 368 5 is_stmt 1 view .LVU201
 532              	.LBB115:
 533              	.LBI115:
 534              		.file 6 "../../../os/rt/include/chvt.h"
 535              		.loc 6 261 20 view .LVU202
 536              	.LBB116:
 537              		.loc 6 263 21 view .LVU203
 538              		.loc 6 265 3 view .LVU204
 539              		.loc 6 265 3 is_stmt 0 view .LVU205
 540              	.LBE116:
 541              	.LBE115:
 542              		.loc 1 368 8 view .LVU206
 543 006d 8B442424 		movl	36(%esp), %eax
 544 0071 83C410   		addl	$16, %esp
 545              		.cfi_def_cfa_offset 80
 546 0074 85C0     		testl	%eax, %eax
 547 0076 740C     		je	.L20
 548              		.loc 1 369 7 is_stmt 1 view .LVU207
 549 0078 83EC0C   		subl	$12, %esp
 550              		.cfi_def_cfa_offset 92
GAS LISTING /tmp/cca35Yhx.s 			page 11


 551 007b 55       		pushl	%ebp
 552              		.cfi_def_cfa_offset 96
 553 007c E8FCFFFF 		call	chVTDoResetI@PLT
 553      FF
 554              	.LVL27:
 555 0081 83C410   		addl	$16, %esp
 556              		.cfi_def_cfa_offset 80
 557              	.LVL28:
 558              	.L20:
 559              		.loc 1 369 7 is_stmt 0 view .LVU208
 560              	.LBE106:
 561              		.loc 1 376 3 is_stmt 1 view .LVU209
 562              		.loc 1 376 15 is_stmt 0 view .LVU210
 563 0084 8B4734   		movl	52(%edi), %eax
 564              		.loc 1 377 1 view .LVU211
 565 0087 8B54242C 		movl	44(%esp), %edx
 566 008b 652B1514 		subl	%gs:20, %edx
 566      000000
 567 0092 7528     		jne	.L23
 568 0094 83C43C   		addl	$60, %esp
 569              		.cfi_remember_state
 570              		.cfi_def_cfa_offset 20
 571 0097 5B       		popl	%ebx
 572              		.cfi_restore 3
 573              		.cfi_def_cfa_offset 16
 574 0098 5E       		popl	%esi
 575              		.cfi_restore 6
 576              		.cfi_def_cfa_offset 12
 577 0099 5F       		popl	%edi
 578              		.cfi_restore 7
 579              		.cfi_def_cfa_offset 8
 580              	.LVL29:
 581              		.loc 1 377 1 view .LVU212
 582 009a 5D       		popl	%ebp
 583              		.cfi_restore 5
 584              		.cfi_def_cfa_offset 4
 585 009b C3       		ret
 586              	.LVL30:
 587 009c 8D742600 		.p2align 4,,10
 588              		.p2align 3
 589              	.L18:
 590              		.cfi_restore_state
 591              		.loc 1 373 5 is_stmt 1 view .LVU213
 592              	.LBB117:
 593              	.LBI117:
 594              		.loc 1 305 6 view .LVU214
 595              	.LBB118:
 596              		.loc 1 306 3 view .LVU215
 597              		.loc 1 307 3 view .LVU216
 598              		.loc 1 308 3 view .LVU217
 599              		.loc 1 310 21 view .LVU218
 600              		.loc 1 312 3 view .LVU219
 601              		.loc 1 312 3 view .LVU220
 602              		.loc 1 312 3 view .LVU221
 603              		.loc 1 313 3 view .LVU222
 604              		.loc 1 313 3 view .LVU223
 605              		.loc 1 313 3 view .LVU224
GAS LISTING /tmp/cca35Yhx.s 			page 12


 606              		.loc 1 316 3 view .LVU225
 607              	.LBB119:
 608              	.LBB120:
 609              		.loc 5 413 24 is_stmt 0 view .LVU226
 610 00a0 8B0E     		movl	(%esi), %ecx
 611              	.LBE120:
 612              	.LBE119:
 613              		.loc 1 316 14 view .LVU227
 614 00a2 88571C   		movb	%dl, 28(%edi)
 615              		.loc 1 325 3 is_stmt 1 view .LVU228
 616              	.LVL31:
 617              	.LBB124:
 618              	.LBI119:
 619              		.loc 5 412 36 view .LVU229
 620              	.LBB121:
 621              		.loc 5 413 3 view .LVU230
 622              		.loc 5 415 3 view .LVU231
 623              	.LBE121:
 624              	.LBE124:
 625              		.loc 1 335 3 is_stmt 0 view .LVU232
 626 00a5 89FA     		movl	%edi, %edx
 627              	.LVL32:
 628              	.LBB125:
 629              	.LBB122:
 630              		.loc 5 415 22 view .LVU233
 631 00a7 8B01     		movl	(%ecx), %eax
 632              		.loc 5 416 19 view .LVU234
 633 00a9 897004   		movl	%esi, 4(%eax)
 634              	.LVL33:
 635              		.loc 5 416 19 view .LVU235
 636              	.LBE122:
 637              	.LBE125:
 638              		.loc 1 326 14 view .LVU236
 639 00ac C6411C01 		movb	$1, 28(%ecx)
 640              	.LBB126:
 641              	.LBB123:
 642              		.loc 5 415 19 view .LVU237
 643 00b0 8906     		movl	%eax, (%esi)
 644              		.loc 5 416 3 is_stmt 1 view .LVU238
 645              		.loc 5 418 3 view .LVU239
 646              	.LVL34:
 647              		.loc 5 418 3 is_stmt 0 view .LVU240
 648              	.LBE123:
 649              	.LBE126:
 650              		.loc 1 326 3 is_stmt 1 view .LVU241
 651              		.loc 1 327 3 view .LVU242
 652 00b2 894E0C   		movl	%ecx, 12(%esi)
 653              		.loc 1 330 3 view .LVU243
 654              		.loc 1 331 5 view .LVU244
 655              		.loc 1 331 29 view .LVU245
 656              		.loc 1 335 3 view .LVU246
 657              		.loc 1 335 3 view .LVU247
 658              		.loc 1 335 3 view .LVU248
 659              		.loc 1 335 3 view .LVU249
 660              		.loc 1 335 3 view .LVU250
 661 00b5 E8FCFFFF 		call	port_switch@PLT
 661      FF
GAS LISTING /tmp/cca35Yhx.s 			page 13


 662              	.LVL35:
 663              		.loc 1 335 24 view .LVU251
 664              		.loc 1 336 1 is_stmt 0 view .LVU252
 665 00ba EBC8     		jmp	.L20
 666              	.LVL36:
 667              	.L23:
 668              		.loc 1 336 1 view .LVU253
 669              	.LBE118:
 670              	.LBE117:
 671              		.loc 1 377 1 view .LVU254
 672 00bc E8FCFFFF 		call	__stack_chk_fail_local
 672      FF
 673              	.LVL37:
 674              		.cfi_endproc
 675              	.LFE210:
 676              		.size	chSchGoSleepTimeoutS, .-chSchGoSleepTimeoutS
 677              		.section	.text.chSchWakeupS,"ax",@progbits
 678              		.p2align 4
 679              		.globl	chSchWakeupS
 680              		.type	chSchWakeupS, @function
 681              	chSchWakeupS:
 682              	.LVL38:
 683              	.LFB211:
 684              		.loc 1 396 45 is_stmt 1 view -0
 685              		.cfi_startproc
 686              		.loc 1 397 3 view .LVU256
 687              		.loc 1 398 3 view .LVU257
 688              		.loc 1 396 45 is_stmt 0 view .LVU258
 689 0000 55       		pushl	%ebp
 690              		.cfi_def_cfa_offset 8
 691              		.cfi_offset 5, -8
 692 0001 57       		pushl	%edi
 693              		.cfi_def_cfa_offset 12
 694              		.cfi_offset 7, -12
 695 0002 56       		pushl	%esi
 696              		.cfi_def_cfa_offset 16
 697              		.cfi_offset 6, -16
 698 0003 E8FCFFFF 		call	__x86.get_pc_thunk.si
 698      FF
 699 0008 81C60200 		addl	$_GLOBAL_OFFSET_TABLE_, %esi
 699      0000
 700 000e 53       		pushl	%ebx
 701              		.cfi_def_cfa_offset 20
 702              		.cfi_offset 3, -20
 703 000f 83EC0C   		subl	$12, %esp
 704              		.cfi_def_cfa_offset 32
 705              		.loc 1 396 45 view .LVU259
 706 0012 8B4C2420 		movl	32(%esp), %ecx
 707              		.loc 1 408 17 view .LVU260
 708 0016 8B442424 		movl	36(%esp), %eax
 709              		.loc 1 398 13 view .LVU261
 710 001a 8BAE0000 		movl	ch0@GOT(%esi), %ebp
 710      0000
 711              		.loc 1 426 7 view .LVU262
 712 0020 8B5908   		movl	8(%ecx), %ebx
 713              		.loc 1 408 17 view .LVU263
 714 0023 894134   		movl	%eax, 52(%ecx)
GAS LISTING /tmp/cca35Yhx.s 			page 14


 715              		.loc 1 398 13 view .LVU264
 716 0026 8B7D0C   		movl	12(%ebp), %edi
 717              	.LVL39:
 718              		.loc 1 400 21 is_stmt 1 view .LVU265
 719              		.loc 1 402 3 view .LVU266
 720              		.loc 1 402 3 view .LVU267
 721              		.loc 1 402 3 view .LVU268
 722              		.loc 1 408 3 view .LVU269
 723              		.loc 1 426 3 view .LVU270
 724              		.loc 1 426 7 is_stmt 0 view .LVU271
 725 0029 8B5708   		movl	8(%edi), %edx
 726              		.loc 1 426 6 view .LVU272
 727 002c 39D3     		cmpl	%edx, %ebx
 728 002e 7730     		ja	.L25
 729              		.loc 1 427 5 is_stmt 1 view .LVU273
 730              	.LVL40:
 731              	.LBB135:
 732              	.LBI135:
 733              		.loc 1 67 18 view .LVU274
 734              	.LBB136:
 735              		.loc 1 69 3 view .LVU275
 736              		.loc 1 69 3 view .LVU276
 737              		.loc 1 69 3 view .LVU277
 738              		.loc 1 74 34 view .LVU278
 739              		.loc 1 77 3 view .LVU279
 740              		.loc 1 77 13 is_stmt 0 view .LVU280
 741 0030 C6411C00 		movb	$0, 28(%ecx)
 742              		.loc 1 80 3 is_stmt 1 view .LVU281
 743              		.loc 1 80 10 is_stmt 0 view .LVU282
 744 0034 8B4110   		movl	16(%ecx), %eax
 745              	.LVL41:
 746              	.LBB137:
 747              	.LBI137:
 748              		.loc 5 433 36 is_stmt 1 view .LVU283
 749 0037 8DB42600 		.p2align 4,,10
 749      00000066 
 749      90
 750              		.p2align 3
 751              	.L26:
 752              	.LBB138:
 753              		.loc 5 437 3 view .LVU284
 754              		.loc 5 438 5 view .LVU285
 755              		.loc 5 438 9 is_stmt 0 view .LVU286
 756 0040 8B00     		movl	(%eax), %eax
 757              	.LVL42:
 758              		.loc 5 439 12 is_stmt 1 view .LVU287
 759 0042 3B5808   		cmpl	8(%eax), %ebx
 760 0045 76F9     		jbe	.L26
 761              		.loc 5 442 3 view .LVU288
 762              		.loc 5 443 22 is_stmt 0 view .LVU289
 763 0047 8B5004   		movl	4(%eax), %edx
 764              		.loc 5 442 17 view .LVU290
 765 004a 8901     		movl	%eax, (%ecx)
 766              		.loc 5 443 3 is_stmt 1 view .LVU291
 767              		.loc 5 443 17 is_stmt 0 view .LVU292
 768 004c 895104   		movl	%edx, 4(%ecx)
 769              		.loc 5 444 3 is_stmt 1 view .LVU293
GAS LISTING /tmp/cca35Yhx.s 			page 15


 770              		.loc 5 444 17 is_stmt 0 view .LVU294
 771 004f 890A     		movl	%ecx, (%edx)
 772              		.loc 5 445 3 is_stmt 1 view .LVU295
 773              		.loc 5 445 17 is_stmt 0 view .LVU296
 774 0051 894804   		movl	%ecx, 4(%eax)
 775              		.loc 5 447 3 is_stmt 1 view .LVU297
 776              	.LVL43:
 777              		.loc 5 447 3 is_stmt 0 view .LVU298
 778              	.LBE138:
 779              	.LBE137:
 780              	.LBE136:
 781              	.LBE135:
 782              		.loc 1 446 1 view .LVU299
 783 0054 83C40C   		addl	$12, %esp
 784              		.cfi_remember_state
 785              		.cfi_def_cfa_offset 20
 786 0057 5B       		popl	%ebx
 787              		.cfi_restore 3
 788              		.cfi_def_cfa_offset 16
 789 0058 5E       		popl	%esi
 790              		.cfi_restore 6
 791              		.cfi_def_cfa_offset 12
 792 0059 5F       		popl	%edi
 793              		.cfi_restore 7
 794              		.cfi_def_cfa_offset 8
 795              	.LVL44:
 796              		.loc 1 446 1 view .LVU300
 797 005a 5D       		popl	%ebp
 798              		.cfi_restore 5
 799              		.cfi_def_cfa_offset 4
 800              	.LVL45:
 801              		.loc 1 446 1 view .LVU301
 802 005b C3       		ret
 803              	.LVL46:
 804 005c 8D742600 		.p2align 4,,10
 805              		.p2align 3
 806              	.L25:
 807              		.cfi_restore_state
 808              		.loc 1 432 5 is_stmt 1 view .LVU302
 809              	.LBB139:
 810              	.LBI139:
 811              		.loc 1 100 18 view .LVU303
 812              	.LBB140:
 813              		.loc 1 102 3 view .LVU304
 814              		.loc 1 102 3 view .LVU305
 815              		.loc 1 102 3 view .LVU306
 816              		.loc 1 107 34 view .LVU307
 817              		.loc 1 110 3 view .LVU308
 818              		.loc 1 110 13 is_stmt 0 view .LVU309
 819 0060 C6471C00 		movb	$0, 28(%edi)
 820              		.loc 1 113 3 is_stmt 1 view .LVU310
 821              		.loc 1 113 10 is_stmt 0 view .LVU311
 822 0064 8B4710   		movl	16(%edi), %eax
 823              	.LVL47:
 824              	.LBB141:
 825              	.LBI141:
 826              		.loc 5 462 36 is_stmt 1 view .LVU312
GAS LISTING /tmp/cca35Yhx.s 			page 16


 827 0067 8DB42600 		.p2align 4,,10
 827      00000066 
 827      90
 828              		.p2align 3
 829              	.L28:
 830              	.LBB142:
 831              		.loc 5 466 3 view .LVU313
 832              		.loc 5 467 5 view .LVU314
 833              		.loc 5 467 9 is_stmt 0 view .LVU315
 834 0070 8B00     		movl	(%eax), %eax
 835              	.LVL48:
 836              		.loc 5 468 12 is_stmt 1 view .LVU316
 837 0072 3B5008   		cmpl	8(%eax), %edx
 838 0075 72F9     		jb	.L28
 839              		.loc 5 471 3 view .LVU317
 840              		.loc 5 472 22 is_stmt 0 view .LVU318
 841 0077 8B5004   		movl	4(%eax), %edx
 842              		.loc 5 471 17 view .LVU319
 843 007a 8907     		movl	%eax, (%edi)
 844              		.loc 5 472 3 is_stmt 1 view .LVU320
 845              	.LBE142:
 846              	.LBE141:
 847              	.LBE140:
 848              	.LBE139:
 849              		.loc 1 444 5 is_stmt 0 view .LVU321
 850 007c 89F3     		movl	%esi, %ebx
 851              	.LBB149:
 852              	.LBB147:
 853              	.LBB145:
 854              	.LBB143:
 855              		.loc 5 472 17 view .LVU322
 856 007e 895704   		movl	%edx, 4(%edi)
 857              		.loc 5 473 3 is_stmt 1 view .LVU323
 858              		.loc 5 473 17 is_stmt 0 view .LVU324
 859 0081 893A     		movl	%edi, (%edx)
 860              		.loc 5 474 3 is_stmt 1 view .LVU325
 861              	.LBE143:
 862              	.LBE145:
 863              	.LBE147:
 864              	.LBE149:
 865              		.loc 1 444 5 is_stmt 0 view .LVU326
 866 0083 89FA     		movl	%edi, %edx
 867              	.LBB150:
 868              	.LBB148:
 869              	.LBB146:
 870              	.LBB144:
 871              		.loc 5 474 17 view .LVU327
 872 0085 897804   		movl	%edi, 4(%eax)
 873              		.loc 5 476 3 is_stmt 1 view .LVU328
 874              	.LVL49:
 875              		.loc 5 476 3 is_stmt 0 view .LVU329
 876              	.LBE144:
 877              	.LBE146:
 878              	.LBE148:
 879              	.LBE150:
 880              		.loc 1 435 5 is_stmt 1 view .LVU330
 881              		.loc 1 436 7 view .LVU331
GAS LISTING /tmp/cca35Yhx.s 			page 17


 882              		.loc 1 436 31 view .LVU332
 883              		.loc 1 440 5 view .LVU333
 884              		.loc 1 440 16 is_stmt 0 view .LVU334
 885 0088 C6411C01 		movb	$1, 28(%ecx)
 886              		.loc 1 441 5 is_stmt 1 view .LVU335
 887 008c 894D0C   		movl	%ecx, 12(%ebp)
 888              		.loc 1 444 5 view .LVU336
 889              		.loc 1 444 5 view .LVU337
 890              		.loc 1 444 5 view .LVU338
 891              		.loc 1 444 5 view .LVU339
 892              		.loc 1 444 5 view .LVU340
 893 008f E8FCFFFF 		call	port_switch@PLT
 893      FF
 894              	.LVL50:
 895              		.loc 1 444 26 view .LVU341
 896              		.loc 1 446 1 is_stmt 0 view .LVU342
 897 0094 83C40C   		addl	$12, %esp
 898              		.cfi_def_cfa_offset 20
 899 0097 5B       		popl	%ebx
 900              		.cfi_restore 3
 901              		.cfi_def_cfa_offset 16
 902 0098 5E       		popl	%esi
 903              		.cfi_restore 6
 904              		.cfi_def_cfa_offset 12
 905 0099 5F       		popl	%edi
 906              		.cfi_restore 7
 907              		.cfi_def_cfa_offset 8
 908              	.LVL51:
 909              		.loc 1 446 1 view .LVU343
 910 009a 5D       		popl	%ebp
 911              		.cfi_restore 5
 912              		.cfi_def_cfa_offset 4
 913 009b C3       		ret
 914              		.cfi_endproc
 915              	.LFE211:
 916              		.size	chSchWakeupS, .-chSchWakeupS
 917              		.section	.text.chSchIsPreemptionRequired,"ax",@progbits
 918              		.p2align 4
 919              		.globl	chSchIsPreemptionRequired
 920              		.type	chSchIsPreemptionRequired, @function
 921              	chSchIsPreemptionRequired:
 922              	.LFB213:
 923              		.loc 1 484 38 is_stmt 1 view -0
 924              		.cfi_startproc
 925              		.loc 1 485 3 view .LVU345
 926              	.LVL52:
 927              		.loc 1 486 3 view .LVU346
 928              		.loc 1 488 3 view .LVU347
 929              		.loc 1 489 3 view .LVU348
 930              		.loc 1 500 3 view .LVU349
 931 0000 E8FCFFFF 		call	__x86.get_pc_thunk.ax
 931      FF
 932 0005 05010000 		addl	$_GLOBAL_OFFSET_TABLE_, %eax
 932      00
 933              		.loc 1 488 16 is_stmt 0 view .LVU350
 934 000a 8B800000 		movl	ch0@GOT(%eax), %eax
 934      0000
GAS LISTING /tmp/cca35Yhx.s 			page 18


 935              	.LVL53:
 936              		.loc 1 488 11 view .LVU351
 937 0010 8B10     		movl	(%eax), %edx
 938              		.loc 1 489 11 view .LVU352
 939 0012 8B400C   		movl	12(%eax), %eax
 940              	.LVL54:
 941              		.loc 1 500 13 view .LVU353
 942 0015 8B4008   		movl	8(%eax), %eax
 943 0018 394208   		cmpl	%eax, 8(%edx)
 944 001b 0F97C0   		seta	%al
 945              		.loc 1 502 1 view .LVU354
 946 001e C3       		ret
 947              		.cfi_endproc
 948              	.LFE213:
 949              		.size	chSchIsPreemptionRequired, .-chSchIsPreemptionRequired
 950              		.section	.text.chSchDoPreemption,"ax",@progbits
 951              		.p2align 4
 952              		.globl	chSchDoPreemption
 953              		.type	chSchDoPreemption, @function
 954              	chSchDoPreemption:
 955              	.LFB214:
 956              		.loc 1 516 30 is_stmt 1 view -0
 957              		.cfi_startproc
 958              		.loc 1 517 3 view .LVU356
 959              	.LVL55:
 960              		.loc 1 518 3 view .LVU357
 961              		.loc 1 516 30 is_stmt 0 view .LVU358
 962 0000 56       		pushl	%esi
 963              		.cfi_def_cfa_offset 8
 964              		.cfi_offset 6, -8
 965 0001 53       		pushl	%ebx
 966              		.cfi_def_cfa_offset 12
 967              		.cfi_offset 3, -12
 968 0002 E8FCFFFF 		call	__x86.get_pc_thunk.bx
 968      FF
 969 0007 81C30200 		addl	$_GLOBAL_OFFSET_TABLE_, %ebx
 969      0000
 970 000d 83EC04   		subl	$4, %esp
 971              		.cfi_def_cfa_offset 16
 972              		.loc 1 518 13 view .LVU359
 973 0010 8B830000 		movl	ch0@GOT(%ebx), %eax
 973      0000
 974              	.LBB157:
 975              	.LBB158:
 976              		.loc 5 413 24 view .LVU360
 977 0016 8B30     		movl	(%eax), %esi
 978              	.LBE158:
 979              	.LBE157:
 980              		.loc 1 518 13 view .LVU361
 981 0018 8B480C   		movl	12(%eax), %ecx
 982              	.LVL56:
 983              		.loc 1 519 3 is_stmt 1 view .LVU362
 984              		.loc 1 522 3 view .LVU363
 985              	.LBB161:
 986              	.LBI157:
 987              		.loc 5 412 36 view .LVU364
 988              	.LBB159:
GAS LISTING /tmp/cca35Yhx.s 			page 19


 989              		.loc 5 413 3 view .LVU365
 990              		.loc 5 415 3 view .LVU366
 991              		.loc 5 415 22 is_stmt 0 view .LVU367
 992 001b 8B16     		movl	(%esi), %edx
 993              		.loc 5 416 19 view .LVU368
 994 001d 894204   		movl	%eax, 4(%edx)
 995              	.LBE159:
 996              	.LBE161:
 997              		.loc 1 523 14 view .LVU369
 998 0020 C6461C01 		movb	$1, 28(%esi)
 999              	.LBB162:
 1000              	.LBB163:
 1001              		.loc 1 110 13 view .LVU370
 1002 0024 C6411C00 		movb	$0, 28(%ecx)
 1003              	.LBE163:
 1004              	.LBE162:
 1005              	.LBB173:
 1006              	.LBB160:
 1007              		.loc 5 415 19 view .LVU371
 1008 0028 8910     		movl	%edx, (%eax)
 1009              		.loc 5 416 3 is_stmt 1 view .LVU372
 1010              		.loc 5 418 3 view .LVU373
 1011              	.LVL57:
 1012              		.loc 5 418 3 is_stmt 0 view .LVU374
 1013              	.LBE160:
 1014              	.LBE173:
 1015              		.loc 1 523 3 is_stmt 1 view .LVU375
 1016              		.loc 1 524 3 view .LVU376
 1017              	.LBB174:
 1018              	.LBB170:
 1019              	.LBB164:
 1020              	.LBB165:
 1021              		.loc 5 468 12 is_stmt 0 view .LVU377
 1022 002a 8B5108   		movl	8(%ecx), %edx
 1023              	.LBE165:
 1024              	.LBE164:
 1025              	.LBE170:
 1026              	.LBE174:
 1027              		.loc 1 524 3 view .LVU378
 1028 002d 89700C   		movl	%esi, 12(%eax)
 1029              		.loc 1 527 3 is_stmt 1 view .LVU379
 1030              		.loc 1 528 5 view .LVU380
 1031              		.loc 1 528 29 view .LVU381
 1032              		.loc 1 551 3 view .LVU382
 1033              	.LVL58:
 1034              	.LBB175:
 1035              	.LBI162:
 1036              		.loc 1 100 18 view .LVU383
 1037              	.LBB171:
 1038              		.loc 1 102 3 view .LVU384
 1039              		.loc 1 102 3 view .LVU385
 1040              		.loc 1 102 3 view .LVU386
 1041              		.loc 1 107 34 view .LVU387
 1042              		.loc 1 110 3 view .LVU388
 1043              		.loc 1 113 3 view .LVU389
 1044              		.loc 1 113 10 is_stmt 0 view .LVU390
 1045 0030 8B4110   		movl	16(%ecx), %eax
GAS LISTING /tmp/cca35Yhx.s 			page 20


 1046              	.LVL59:
 1047              	.LBB168:
 1048              	.LBI164:
 1049              		.loc 5 462 36 is_stmt 1 view .LVU391
 1050              		.p2align 4,,10
 1051 0033 8D742600 		.p2align 3
 1051      90
 1052              	.L34:
 1053              	.LBB166:
 1054              		.loc 5 466 3 view .LVU392
 1055              		.loc 5 467 5 view .LVU393
 1056              		.loc 5 467 9 is_stmt 0 view .LVU394
 1057 0038 8B00     		movl	(%eax), %eax
 1058              	.LVL60:
 1059              		.loc 5 468 12 is_stmt 1 view .LVU395
 1060 003a 395008   		cmpl	%edx, 8(%eax)
 1061 003d 77F9     		ja	.L34
 1062              		.loc 5 471 3 view .LVU396
 1063              		.loc 5 472 22 is_stmt 0 view .LVU397
 1064 003f 8B5004   		movl	4(%eax), %edx
 1065              		.loc 5 471 17 view .LVU398
 1066 0042 8901     		movl	%eax, (%ecx)
 1067              		.loc 5 472 3 is_stmt 1 view .LVU399
 1068              		.loc 5 472 17 is_stmt 0 view .LVU400
 1069 0044 895104   		movl	%edx, 4(%ecx)
 1070              		.loc 5 473 3 is_stmt 1 view .LVU401
 1071              		.loc 5 473 17 is_stmt 0 view .LVU402
 1072 0047 890A     		movl	%ecx, (%edx)
 1073              		.loc 5 474 3 is_stmt 1 view .LVU403
 1074              	.LBE166:
 1075              	.LBE168:
 1076              	.LBE171:
 1077              	.LBE175:
 1078              		.loc 1 555 3 is_stmt 0 view .LVU404
 1079 0049 89CA     		movl	%ecx, %edx
 1080              	.LBB176:
 1081              	.LBB172:
 1082              	.LBB169:
 1083              	.LBB167:
 1084              		.loc 5 474 17 view .LVU405
 1085 004b 894804   		movl	%ecx, 4(%eax)
 1086              		.loc 5 476 3 is_stmt 1 view .LVU406
 1087              	.LVL61:
 1088              		.loc 5 476 3 is_stmt 0 view .LVU407
 1089              	.LBE167:
 1090              	.LBE169:
 1091              	.LBE172:
 1092              	.LBE176:
 1093              		.loc 1 555 3 is_stmt 1 view .LVU408
 1094              		.loc 1 555 3 view .LVU409
 1095              		.loc 1 555 3 view .LVU410
 1096              		.loc 1 555 3 view .LVU411
 1097              		.loc 1 555 3 view .LVU412
 1098 004e 89F1     		movl	%esi, %ecx
 1099 0050 E8FCFFFF 		call	port_switch@PLT
 1099      FF
 1100              	.LVL62:
GAS LISTING /tmp/cca35Yhx.s 			page 21


 1101              		.loc 1 555 24 view .LVU413
 1102              		.loc 1 556 1 is_stmt 0 view .LVU414
 1103 0055 83C404   		addl	$4, %esp
 1104              		.cfi_def_cfa_offset 12
 1105 0058 5B       		popl	%ebx
 1106              		.cfi_restore 3
 1107              		.cfi_def_cfa_offset 8
 1108 0059 5E       		popl	%esi
 1109              		.cfi_restore 6
 1110              		.cfi_def_cfa_offset 4
 1111              	.LVL63:
 1112              		.loc 1 556 1 view .LVU415
 1113 005a C3       		ret
 1114              		.cfi_endproc
 1115              	.LFE214:
 1116              		.size	chSchDoPreemption, .-chSchDoPreemption
 1117              		.set	__sch_reschedule_ahead,chSchDoPreemption
 1118              		.section	.text.chSchRescheduleS,"ax",@progbits
 1119              		.p2align 4
 1120              		.globl	chSchRescheduleS
 1121              		.type	chSchRescheduleS, @function
 1122              	chSchRescheduleS:
 1123              	.LFB212:
 1124              		.loc 1 457 29 is_stmt 1 view -0
 1125              		.cfi_startproc
 1126              		.loc 1 458 3 view .LVU417
 1127              	.LVL64:
 1128              		.loc 1 459 3 view .LVU418
 1129              		.loc 1 461 21 view .LVU419
 1130              		.loc 1 465 3 view .LVU420
 1131 0000 E8FCFFFF 		call	__x86.get_pc_thunk.ax
 1131      FF
 1132 0005 05010000 		addl	$_GLOBAL_OFFSET_TABLE_, %eax
 1132      00
 1133              		.loc 1 465 7 is_stmt 0 view .LVU421
 1134 000a 8B800000 		movl	ch0@GOT(%eax), %eax
 1134      0000
 1135 0010 8B10     		movl	(%eax), %edx
 1136 0012 8B400C   		movl	12(%eax), %eax
 1137              		.loc 1 465 6 view .LVU422
 1138 0015 8B4008   		movl	8(%eax), %eax
 1139 0018 394208   		cmpl	%eax, 8(%edx)
 1140 001b 7703     		ja	.L39
 1141              		.loc 1 468 1 view .LVU423
 1142 001d C3       		ret
 1143 001e 6690     		.p2align 4,,10
 1144              		.p2align 3
 1145              	.L39:
 1146              		.loc 1 466 5 is_stmt 1 view .LVU424
 1147 0020 E9FCFFFF 		jmp	__sch_reschedule_ahead
 1147      FF
 1148              	.LVL65:
 1149              		.loc 1 466 5 is_stmt 0 view .LVU425
 1150              		.cfi_endproc
 1151              	.LFE212:
 1152              		.size	chSchRescheduleS, .-chSchRescheduleS
 1153              		.section	.text.chSchPreemption,"ax",@progbits
GAS LISTING /tmp/cca35Yhx.s 			page 22


 1154              		.p2align 4
 1155              		.globl	chSchPreemption
 1156              		.type	chSchPreemption, @function
 1157              	chSchPreemption:
 1158              	.LFB219:
 1159              		.cfi_startproc
 1160 0000 E8FCFFFF 		call	__x86.get_pc_thunk.ax
 1160      FF
 1161 0005 05010000 		addl	$_GLOBAL_OFFSET_TABLE_, %eax
 1161      00
 1162 000a 8B800000 		movl	ch0@GOT(%eax), %eax
 1162      0000
 1163 0010 8B10     		movl	(%eax), %edx
 1164 0012 8B400C   		movl	12(%eax), %eax
 1165 0015 8B4008   		movl	8(%eax), %eax
 1166 0018 394208   		cmpl	%eax, 8(%edx)
 1167 001b 7703     		ja	.L42
 1168 001d C3       		ret
 1169 001e 6690     		.p2align 4,,10
 1170              		.p2align 3
 1171              	.L42:
 1172 0020 E9FCFFFF 		jmp	__sch_reschedule_ahead
 1172      FF
 1173              		.cfi_endproc
 1174              	.LFE219:
 1175              		.size	chSchPreemption, .-chSchPreemption
 1176              		.section	.text.chSchDoYieldS,"ax",@progbits
 1177              		.p2align 4
 1178              		.globl	chSchDoYieldS
 1179              		.type	chSchDoYieldS, @function
 1180              	chSchDoYieldS:
 1181              	.LFB216:
 1182              		.loc 1 601 26 is_stmt 1 view -0
 1183              		.cfi_startproc
 1184              		.loc 1 602 3 view .LVU427
 1185              	.LVL66:
 1186              		.loc 1 603 3 view .LVU428
 1187              		.loc 1 601 26 is_stmt 0 view .LVU429
 1188 0000 57       		pushl	%edi
 1189              		.cfi_def_cfa_offset 8
 1190              		.cfi_offset 7, -8
 1191 0001 56       		pushl	%esi
 1192              		.cfi_def_cfa_offset 12
 1193              		.cfi_offset 6, -12
 1194 0002 53       		pushl	%ebx
 1195              		.cfi_def_cfa_offset 16
 1196              		.cfi_offset 3, -16
 1197 0003 E8FCFFFF 		call	__x86.get_pc_thunk.bx
 1197      FF
 1198 0008 81C30200 		addl	$_GLOBAL_OFFSET_TABLE_, %ebx
 1198      0000
 1199              		.loc 1 603 13 view .LVU430
 1200 000e 8B830000 		movl	ch0@GOT(%ebx), %eax
 1200      0000
 1201 0014 8B480C   		movl	12(%eax), %ecx
 1202              	.LVL67:
 1203              		.loc 1 605 21 is_stmt 1 view .LVU431
GAS LISTING /tmp/cca35Yhx.s 			page 23


 1204              		.loc 1 609 3 view .LVU432
 1205              		.loc 1 609 7 is_stmt 0 view .LVU433
 1206 0017 8B30     		movl	(%eax), %esi
 1207 0019 8B5108   		movl	8(%ecx), %edx
 1208              		.loc 1 609 6 view .LVU434
 1209 001c 395608   		cmpl	%edx, 8(%esi)
 1210 001f 7307     		jnb	.L48
 1211              		.loc 1 612 1 view .LVU435
 1212 0021 5B       		popl	%ebx
 1213              		.cfi_remember_state
 1214              		.cfi_restore 3
 1215              		.cfi_def_cfa_offset 12
 1216 0022 5E       		popl	%esi
 1217              		.cfi_restore 6
 1218              		.cfi_def_cfa_offset 8
 1219 0023 5F       		popl	%edi
 1220              		.cfi_restore 7
 1221              		.cfi_def_cfa_offset 4
 1222 0024 C3       		ret
 1223              		.p2align 4,,10
 1224 0025 8D7600   		.p2align 3
 1225              	.L48:
 1226              		.cfi_restore_state
 1227              		.loc 1 610 5 is_stmt 1 view .LVU436
 1228              	.LBB185:
 1229              	.LBI185:
 1230              		.loc 1 127 13 view .LVU437
 1231              	.LBB186:
 1232              		.loc 1 128 3 view .LVU438
 1233              	.LVL68:
 1234              		.loc 1 129 3 view .LVU439
 1235              		.loc 1 130 3 view .LVU440
 1236              		.loc 1 133 3 view .LVU441
 1237              	.LBB187:
 1238              	.LBI187:
 1239              		.loc 5 412 36 view .LVU442
 1240              	.LBB188:
 1241              		.loc 5 413 3 view .LVU443
 1242              		.loc 5 415 3 view .LVU444
 1243              		.loc 5 415 22 is_stmt 0 view .LVU445
 1244 0028 8B3E     		movl	(%esi), %edi
 1245              		.loc 5 416 19 view .LVU446
 1246 002a 894704   		movl	%eax, 4(%edi)
 1247              	.LBE188:
 1248              	.LBE187:
 1249              		.loc 1 134 14 view .LVU447
 1250 002d C6461C01 		movb	$1, 28(%esi)
 1251              	.LBB190:
 1252              	.LBB191:
 1253              		.loc 1 77 13 view .LVU448
 1254 0031 C6411C00 		movb	$0, 28(%ecx)
 1255              	.LBE191:
 1256              	.LBE190:
 1257              	.LBB198:
 1258              	.LBB189:
 1259              		.loc 5 415 19 view .LVU449
 1260 0035 8938     		movl	%edi, (%eax)
GAS LISTING /tmp/cca35Yhx.s 			page 24


 1261              		.loc 5 416 3 is_stmt 1 view .LVU450
 1262              		.loc 5 418 3 view .LVU451
 1263              	.LVL69:
 1264              		.loc 5 418 3 is_stmt 0 view .LVU452
 1265              	.LBE189:
 1266              	.LBE198:
 1267              		.loc 1 134 3 is_stmt 1 view .LVU453
 1268              		.loc 1 135 3 view .LVU454
 1269 0037 89700C   		movl	%esi, 12(%eax)
 1270              		.loc 1 138 3 view .LVU455
 1271              		.loc 1 139 5 view .LVU456
 1272              		.loc 1 139 29 view .LVU457
 1273              		.loc 1 148 3 view .LVU458
 1274              	.LVL70:
 1275              	.LBB199:
 1276              	.LBI190:
 1277              		.loc 1 67 18 view .LVU459
 1278              	.LBB196:
 1279              		.loc 1 69 3 view .LVU460
 1280              		.loc 1 69 3 view .LVU461
 1281              		.loc 1 69 3 view .LVU462
 1282              		.loc 1 74 34 view .LVU463
 1283              		.loc 1 77 3 view .LVU464
 1284              		.loc 1 80 3 view .LVU465
 1285              		.loc 1 80 10 is_stmt 0 view .LVU466
 1286 003a 8B4110   		movl	16(%ecx), %eax
 1287              	.LVL71:
 1288              	.LBB192:
 1289              	.LBI192:
 1290              		.loc 5 433 36 is_stmt 1 view .LVU467
 1291 003d 8D7600   		.p2align 4,,10
 1292              		.p2align 3
 1293              	.L45:
 1294              	.LBB193:
 1295              		.loc 5 437 3 view .LVU468
 1296              		.loc 5 438 5 view .LVU469
 1297              		.loc 5 438 9 is_stmt 0 view .LVU470
 1298 0040 8B00     		movl	(%eax), %eax
 1299              	.LVL72:
 1300              		.loc 5 439 12 is_stmt 1 view .LVU471
 1301 0042 3B5008   		cmpl	8(%eax), %edx
 1302 0045 76F9     		jbe	.L45
 1303              		.loc 5 442 3 view .LVU472
 1304              		.loc 5 443 22 is_stmt 0 view .LVU473
 1305 0047 8B5004   		movl	4(%eax), %edx
 1306              		.loc 5 442 17 view .LVU474
 1307 004a 8901     		movl	%eax, (%ecx)
 1308              		.loc 5 443 3 is_stmt 1 view .LVU475
 1309              		.loc 5 443 17 is_stmt 0 view .LVU476
 1310 004c 895104   		movl	%edx, 4(%ecx)
 1311              		.loc 5 444 3 is_stmt 1 view .LVU477
 1312              		.loc 5 444 17 is_stmt 0 view .LVU478
 1313 004f 890A     		movl	%ecx, (%edx)
 1314              		.loc 5 445 3 is_stmt 1 view .LVU479
 1315              	.LBE193:
 1316              	.LBE192:
 1317              	.LBE196:
GAS LISTING /tmp/cca35Yhx.s 			page 25


 1318              	.LBE199:
 1319              		.loc 1 151 3 is_stmt 0 view .LVU480
 1320 0051 89CA     		movl	%ecx, %edx
 1321              	.LBB200:
 1322              	.LBB197:
 1323              	.LBB195:
 1324              	.LBB194:
 1325              		.loc 5 445 17 view .LVU481
 1326 0053 894804   		movl	%ecx, 4(%eax)
 1327              		.loc 5 447 3 is_stmt 1 view .LVU482
 1328              	.LVL73:
 1329              		.loc 5 447 3 is_stmt 0 view .LVU483
 1330              	.LBE194:
 1331              	.LBE195:
 1332              	.LBE197:
 1333              	.LBE200:
 1334              		.loc 1 151 3 is_stmt 1 view .LVU484
 1335              		.loc 1 151 3 view .LVU485
 1336              		.loc 1 151 3 view .LVU486
 1337              		.loc 1 151 3 view .LVU487
 1338              		.loc 1 151 3 view .LVU488
 1339 0056 89F1     		movl	%esi, %ecx
 1340              	.LVL74:
 1341              		.loc 1 151 3 is_stmt 0 view .LVU489
 1342 0058 E8FCFFFF 		call	port_switch@PLT
 1342      FF
 1343              	.LVL75:
 1344              		.loc 1 151 24 is_stmt 1 view .LVU490
 1345              		.loc 1 151 24 is_stmt 0 view .LVU491
 1346              	.LBE186:
 1347              	.LBE185:
 1348              		.loc 1 612 1 view .LVU492
 1349 005d 5B       		popl	%ebx
 1350              		.cfi_restore 3
 1351              		.cfi_def_cfa_offset 12
 1352 005e 5E       		popl	%esi
 1353              		.cfi_restore 6
 1354              		.cfi_def_cfa_offset 8
 1355              	.LVL76:
 1356              		.loc 1 612 1 view .LVU493
 1357 005f 5F       		popl	%edi
 1358              		.cfi_restore 7
 1359              		.cfi_def_cfa_offset 4
 1360 0060 C3       		ret
 1361              		.cfi_endproc
 1362              	.LFE216:
 1363              		.size	chSchDoYieldS, .-chSchDoYieldS
 1364              		.section	.text.chSchSelectFirst,"ax",@progbits
 1365              		.p2align 4
 1366              		.globl	chSchSelectFirst
 1367              		.type	chSchSelectFirst, @function
 1368              	chSchSelectFirst:
 1369              	.LFB217:
 1370              		.loc 1 626 34 is_stmt 1 view -0
 1371              		.cfi_startproc
 1372              		.loc 1 627 3 view .LVU495
 1373              	.LVL77:
GAS LISTING /tmp/cca35Yhx.s 			page 26


 1374              		.loc 1 628 3 view .LVU496
 1375 0000 E8FCFFFF 		call	__x86.get_pc_thunk.ax
 1375      FF
 1376 0005 05010000 		addl	$_GLOBAL_OFFSET_TABLE_, %eax
 1376      00
 1377              		.loc 1 626 34 is_stmt 0 view .LVU497
 1378 000a 53       		pushl	%ebx
 1379              		.cfi_def_cfa_offset 8
 1380              		.cfi_offset 3, -8
 1381              		.loc 1 628 13 view .LVU498
 1382 000b 8B800000 		movl	ch0@GOT(%eax), %eax
 1382      0000
 1383              	.LBB207:
 1384              	.LBB208:
 1385              		.loc 5 413 24 view .LVU499
 1386 0011 8B18     		movl	(%eax), %ebx
 1387              	.LBE208:
 1388              	.LBE207:
 1389              		.loc 1 628 13 view .LVU500
 1390 0013 8B480C   		movl	12(%eax), %ecx
 1391              	.LVL78:
 1392              		.loc 1 629 3 is_stmt 1 view .LVU501
 1393              		.loc 1 632 3 view .LVU502
 1394              	.LBB211:
 1395              	.LBI207:
 1396              		.loc 5 412 36 view .LVU503
 1397              	.LBB209:
 1398              		.loc 5 413 3 view .LVU504
 1399              		.loc 5 415 3 view .LVU505
 1400              		.loc 5 415 22 is_stmt 0 view .LVU506
 1401 0016 8B13     		movl	(%ebx), %edx
 1402              		.loc 5 416 19 view .LVU507
 1403 0018 894204   		movl	%eax, 4(%edx)
 1404              	.LBE209:
 1405              	.LBE211:
 1406              		.loc 1 633 14 view .LVU508
 1407 001b C6431C01 		movb	$1, 28(%ebx)
 1408              	.LBB212:
 1409              	.LBB213:
 1410              		.loc 1 110 13 view .LVU509
 1411 001f C6411C00 		movb	$0, 28(%ecx)
 1412              	.LBE213:
 1413              	.LBE212:
 1414              	.LBB220:
 1415              	.LBB210:
 1416              		.loc 5 415 19 view .LVU510
 1417 0023 8910     		movl	%edx, (%eax)
 1418              		.loc 5 416 3 is_stmt 1 view .LVU511
 1419              		.loc 5 418 3 view .LVU512
 1420              	.LVL79:
 1421              		.loc 5 418 3 is_stmt 0 view .LVU513
 1422              	.LBE210:
 1423              	.LBE220:
 1424              		.loc 1 633 3 is_stmt 1 view .LVU514
 1425              		.loc 1 634 3 view .LVU515
 1426              	.LBB221:
 1427              	.LBB218:
GAS LISTING /tmp/cca35Yhx.s 			page 27


 1428              	.LBB214:
 1429              	.LBB215:
 1430              		.loc 5 468 12 is_stmt 0 view .LVU516
 1431 0025 8B5108   		movl	8(%ecx), %edx
 1432              	.LBE215:
 1433              	.LBE214:
 1434              	.LBE218:
 1435              	.LBE221:
 1436              		.loc 1 634 3 view .LVU517
 1437 0028 89580C   		movl	%ebx, 12(%eax)
 1438              		.loc 1 637 3 is_stmt 1 view .LVU518
 1439              		.loc 1 638 5 view .LVU519
 1440              		.loc 1 638 29 view .LVU520
 1441              		.loc 1 642 3 view .LVU521
 1442              	.LVL80:
 1443              	.LBB222:
 1444              	.LBI212:
 1445              		.loc 1 100 18 view .LVU522
 1446              	.LBB219:
 1447              		.loc 1 102 3 view .LVU523
 1448              		.loc 1 102 3 view .LVU524
 1449              		.loc 1 102 3 view .LVU525
 1450              		.loc 1 107 34 view .LVU526
 1451              		.loc 1 110 3 view .LVU527
 1452              		.loc 1 113 3 view .LVU528
 1453              		.loc 1 113 10 is_stmt 0 view .LVU529
 1454 002b 8B4110   		movl	16(%ecx), %eax
 1455              	.LVL81:
 1456              	.LBB217:
 1457              	.LBI214:
 1458              		.loc 5 462 36 is_stmt 1 view .LVU530
 1459 002e 6690     		.p2align 4,,10
 1460              		.p2align 3
 1461              	.L50:
 1462              	.LBB216:
 1463              		.loc 5 466 3 view .LVU531
 1464              		.loc 5 467 5 view .LVU532
 1465              		.loc 5 467 9 is_stmt 0 view .LVU533
 1466 0030 8B00     		movl	(%eax), %eax
 1467              	.LVL82:
 1468              		.loc 5 468 12 is_stmt 1 view .LVU534
 1469 0032 395008   		cmpl	%edx, 8(%eax)
 1470 0035 77F9     		ja	.L50
 1471              		.loc 5 471 3 view .LVU535
 1472              		.loc 5 472 22 is_stmt 0 view .LVU536
 1473 0037 8B5004   		movl	4(%eax), %edx
 1474              		.loc 5 471 17 view .LVU537
 1475 003a 8901     		movl	%eax, (%ecx)
 1476              		.loc 5 472 3 is_stmt 1 view .LVU538
 1477              		.loc 5 472 17 is_stmt 0 view .LVU539
 1478 003c 895104   		movl	%edx, 4(%ecx)
 1479              		.loc 5 473 3 is_stmt 1 view .LVU540
 1480              		.loc 5 473 17 is_stmt 0 view .LVU541
 1481 003f 890A     		movl	%ecx, (%edx)
 1482              		.loc 5 474 3 is_stmt 1 view .LVU542
 1483              		.loc 5 474 17 is_stmt 0 view .LVU543
 1484 0041 894804   		movl	%ecx, 4(%eax)
GAS LISTING /tmp/cca35Yhx.s 			page 28


 1485              		.loc 5 476 3 is_stmt 1 view .LVU544
 1486              	.LVL83:
 1487              		.loc 5 476 3 is_stmt 0 view .LVU545
 1488              	.LBE216:
 1489              	.LBE217:
 1490              	.LBE219:
 1491              	.LBE222:
 1492              		.loc 1 644 3 is_stmt 1 view .LVU546
 1493              		.loc 1 645 1 is_stmt 0 view .LVU547
 1494 0044 89D8     		movl	%ebx, %eax
 1495 0046 5B       		popl	%ebx
 1496              		.cfi_restore 3
 1497              		.cfi_def_cfa_offset 4
 1498              	.LVL84:
 1499              		.loc 1 645 1 view .LVU548
 1500 0047 C3       		ret
 1501              		.cfi_endproc
 1502              	.LFE217:
 1503              		.size	chSchSelectFirst, .-chSchSelectFirst
 1504              		.section	.text.__x86.get_pc_thunk.ax,"axG",@progbits,__x86.get_pc_thunk.ax,comdat
 1505              		.globl	__x86.get_pc_thunk.ax
 1506              		.hidden	__x86.get_pc_thunk.ax
 1507              		.type	__x86.get_pc_thunk.ax, @function
 1508              	__x86.get_pc_thunk.ax:
 1509              	.LFB222:
 1510              		.cfi_startproc
 1511 0000 8B0424   		movl	(%esp), %eax
 1512 0003 C3       		ret
 1513              		.cfi_endproc
 1514              	.LFE222:
 1515              		.section	.text.__x86.get_pc_thunk.bx,"axG",@progbits,__x86.get_pc_thunk.bx,comdat
 1516              		.globl	__x86.get_pc_thunk.bx
 1517              		.hidden	__x86.get_pc_thunk.bx
 1518              		.type	__x86.get_pc_thunk.bx, @function
 1519              	__x86.get_pc_thunk.bx:
 1520              	.LFB223:
 1521              		.cfi_startproc
 1522 0000 8B1C24   		movl	(%esp), %ebx
 1523 0003 C3       		ret
 1524              		.cfi_endproc
 1525              	.LFE223:
 1526              		.section	.text.__x86.get_pc_thunk.si,"axG",@progbits,__x86.get_pc_thunk.si,comdat
 1527              		.globl	__x86.get_pc_thunk.si
 1528              		.hidden	__x86.get_pc_thunk.si
 1529              		.type	__x86.get_pc_thunk.si, @function
 1530              	__x86.get_pc_thunk.si:
 1531              	.LFB224:
 1532              		.cfi_startproc
 1533 0000 8B3424   		movl	(%esp), %esi
 1534 0003 C3       		ret
 1535              		.cfi_endproc
 1536              	.LFE224:
 1537              		.text
 1538              	.Letext0:
 1539              		.file 7 "/usr/include/bits/types.h"
 1540              		.file 8 "/usr/include/bits/stdint-intn.h"
 1541              		.file 9 "/usr/include/bits/stdint-uintn.h"
GAS LISTING /tmp/cca35Yhx.s 			page 29


 1542              		.file 10 "../../../os/common/ports/SIMIA32/compilers/GCC/chtypes.h"
 1543              		.file 11 "../../../os/rt/include/chearly.h"
 1544              		.file 12 "../../../os/rt/include/chobjects.h"
 1545              		.file 13 "../../../os/rt/include/chrfcu.h"
 1546              		.file 14 "../../../os/rt/include/chdebug.h"
 1547              		.file 15 "../../../os/rt/include/chtime.h"
 1548              		.file 16 "../../../os/rt/include/chmtx.h"
 6230 004b 2F686F6D 		.section	.note.GNU-stack,"",@progbits
 6230      652F616C 
 6230      65782F43 
 6230      68696269 
 6230      4F532F64 
GAS LISTING /tmp/cca35Yhx.s 			page 118

