GAS LISTING /tmp/ccXcKoVp.s 			page 1


   1              		.file	"rt_test_sequence_006.c"
   2              		.text
   3              	.Ltext0:
   4              		.file 0 "/home/alex/ChibiOS/demos/various/LAB2_VARIANT2" "../../../test/rt/source/test/rt_test_seq
   5              		.section	.text.rt_test_006_001_setup,"ax",@progbits
   6              		.p2align 4
   7              		.type	rt_test_006_001_setup, @function
   8              	rt_test_006_001_setup:
   9              	.LFB304:
  10              		.file 1 "../../../test/rt/source/test/rt_test_sequence_006.c"
  11              		.loc 1 73 41 view -0
  12              		.cfi_startproc
  13              		.loc 1 74 3 view .LVU1
  14 0000 E8FCFFFF 		call	__x86.get_pc_thunk.ax
  14      FF
  15 0005 05010000 		addl	$_GLOBAL_OFFSET_TABLE_, %eax
  15      00
  16              		.loc 1 74 7 is_stmt 0 view .LVU2
  17 000a C7800000 		movl	$0, tr1@GOTOFF(%eax)
  17      00000000 
  17      0000
  18              		.loc 1 75 1 view .LVU3
  19 0014 C3       		ret
  20              		.cfi_endproc
  21              	.LFE304:
  22              		.size	rt_test_006_001_setup, .-rt_test_006_001_setup
  23              		.section	.rodata.rt_test_006_001_execute.str1.1,"aMS",@progbits,1
  24              	.LC0:
  25 0000 4100     		.string	"A"
  26              	.LC1:
  27 0002 6E6F7420 		.string	"not NULL"
  27      4E554C4C 
  27      00
  28              	.LC2:
  29 000b 77726F6E 		.string	"wrong returned message"
  29      67207265 
  29      7475726E 
  29      6564206D 
  29      65737361 
  30              	.LC3:
  31 0022 6F757420 		.string	"out of time window"
  31      6F662074 
  31      696D6520 
  31      77696E64 
  31      6F7700
  32              		.section	.text.rt_test_006_001_execute,"ax",@progbits
  33              		.p2align 4
  34              		.type	rt_test_006_001_execute, @function
  35              	rt_test_006_001_execute:
  36              	.LFB305:
  37              		.loc 1 77 43 is_stmt 1 view -0
  38              		.cfi_startproc
  39              		.loc 1 78 3 view .LVU5
  40              		.loc 1 79 3 view .LVU6
  41              		.loc 1 84 3 view .LVU7
  42              		.loc 1 77 43 is_stmt 0 view .LVU8
  43 0000 55       		pushl	%ebp
GAS LISTING /tmp/ccXcKoVp.s 			page 2


  44              		.cfi_def_cfa_offset 8
  45              		.cfi_offset 5, -8
  46 0001 57       		pushl	%edi
  47              		.cfi_def_cfa_offset 12
  48              		.cfi_offset 7, -12
  49 0002 56       		pushl	%esi
  50              		.cfi_def_cfa_offset 16
  51              		.cfi_offset 6, -16
  52 0003 53       		pushl	%ebx
  53              		.cfi_def_cfa_offset 20
  54              		.cfi_offset 3, -20
  55 0004 E8FCFFFF 		call	__x86.get_pc_thunk.bx
  55      FF
  56 0009 81C30200 		addl	$_GLOBAL_OFFSET_TABLE_, %ebx
  56      0000
  57 000f 83EC28   		subl	$40, %esp
  58              		.cfi_def_cfa_offset 60
  59              		.loc 1 84 3 view .LVU9
  60 0012 8B830000 		movl	chtest@GOT(%ebx), %eax
  60      0000
  61              	.LBB42:
  62              	.LBB43:
  63              	.LBB44:
  64              	.LBB45:
  65              		.file 2 "../../../os/rt/include/chthreads.h"
  66              		.loc 2 529 10 view .LVU10
  67 0018 8BAB0000 		movl	ch0@GOT(%ebx), %ebp
  67      0000
  68              	.LBE45:
  69              	.LBE44:
  70              	.LBE43:
  71              	.LBE42:
  72              		.loc 1 88 11 view .LVU11
  73 001e 8DB30000 		leal	tr1@GOTOFF(%ebx), %esi
  73      0000
  74              		.loc 1 84 3 view .LVU12
  75 0024 89442414 		movl	%eax, 20(%esp)
  76 0028 C7000100 		movl	$1, (%eax)
  76      0000
  77              		.loc 1 86 5 is_stmt 1 view .LVU13
  78              	.LBB50:
  79              	.LBI42:
  80              		.loc 2 540 23 view .LVU14
  81              	.LBB48:
  82              		.loc 2 542 3 view .LVU15
  83              	.LBB47:
  84              	.LBI44:
  85              		.loc 2 527 25 view .LVU16
  86              	.LBB46:
  87              		.loc 2 529 3 view .LVU17
  88              	.LBE46:
  89              	.LBE47:
  90              	.LBE48:
  91              	.LBE50:
  92              		.loc 1 86 18 is_stmt 0 view .LVU18
  93 002e 8D830000 		leal	.LC0@GOTOFF(%ebx), %eax
  93      0000
GAS LISTING /tmp/ccXcKoVp.s 			page 3


  94 0034 50       		pushl	%eax
  95              		.cfi_def_cfa_offset 64
  96 0035 8D830000 		leal	thread1@GOTOFF(%ebx), %eax
  96      0000
  97 003b 50       		pushl	%eax
  98              		.cfi_def_cfa_offset 68
  99              	.LBB51:
 100              	.LBB49:
 101              		.loc 2 542 37 view .LVU19
 102 003c 8B450C   		movl	12(%ebp), %eax
 103              	.LBE49:
 104              	.LBE51:
 105              		.loc 1 86 18 view .LVU20
 106 003f 8B4008   		movl	8(%eax), %eax
 107 0042 83E801   		subl	$1, %eax
 108 0045 50       		pushl	%eax
 109              		.cfi_def_cfa_offset 72
 110              		.loc 1 86 38 view .LVU21
 111 0046 8B830000 		movl	wa@GOT(%ebx), %eax
 111      0000
 112              		.loc 1 86 18 view .LVU22
 113 004c 68404100 		pushl	$16704
 113      00
 114              		.cfi_def_cfa_offset 76
 115 0051 FF30     		pushl	(%eax)
 116              		.cfi_def_cfa_offset 80
 117 0053 E8FCFFFF 		call	chThdCreateStatic@PLT
 117      FF
 118              	.LVL0:
 119              		.loc 1 88 11 view .LVU23
 120 0058 83C418   		addl	$24, %esp
 121              		.cfi_def_cfa_offset 56
 122              	.LBB52:
 123              	.LBB53:
 124              	.LBB54:
 125              		.file 3 "../../../os/common/ports/SIMIA32/chcore.h"
 126              		.loc 3 363 16 view .LVU24
 127 005b 8BBB0000 		movl	port_irq_sts@GOT(%ebx), %edi
 127      0000
 128              	.LBE54:
 129              	.LBE53:
 130              	.LBE52:
 131              		.loc 1 86 18 view .LVU25
 132 0061 89C2     		movl	%eax, %edx
 133              		.loc 1 86 16 view .LVU26
 134 0063 8B830000 		movl	threads@GOT(%ebx), %eax
 134      0000
 135              	.LBB59:
 136              	.LBB57:
 137              	.LBB55:
 138              		.loc 3 363 16 view .LVU27
 139 0069 C7070100 		movl	$1, (%edi)
 139      0000
 140              	.LBE55:
 141              	.LBE57:
 142              	.LBE59:
 143              		.loc 1 86 16 view .LVU28
GAS LISTING /tmp/ccXcKoVp.s 			page 4


 144 006f 8910     		movl	%edx, (%eax)
 145              		.loc 1 87 5 is_stmt 1 view .LVU29
 146              	.LBB60:
 147              	.LBI52:
 148              		.file 4 "../../../os/rt/include/chsys.h"
 149              		.loc 4 407 20 view .LVU30
 150              		.loc 4 409 3 view .LVU31
 151              	.LBB58:
 152              	.LBI53:
 153              		.loc 3 361 20 view .LVU32
 154              	.LBB56:
 155              		.loc 3 363 3 view .LVU33
 156              	.LBE56:
 157              	.LBE58:
 158              		.loc 4 410 35 view .LVU34
 159              		.loc 4 411 21 view .LVU35
 160              	.LBE60:
 161              		.loc 1 88 5 view .LVU36
 162              		.loc 1 88 11 is_stmt 0 view .LVU37
 163 0071 6AFF     		pushl	$-1
 164              		.cfi_def_cfa_offset 60
 165 0073 56       		pushl	%esi
 166              		.cfi_def_cfa_offset 64
 167 0074 E8FCFFFF 		call	chThdSuspendTimeoutS@PLT
 167      FF
 168              	.LVL1:
 169              		.loc 1 89 5 is_stmt 1 view .LVU38
 170              	.LBB61:
 171              	.LBI61:
 172              		.loc 4 421 20 view .LVU39
 173              	.LBB62:
 174              		.loc 4 423 23 view .LVU40
 175              		.loc 4 424 34 view .LVU41
 176              		.loc 4 430 3 view .LVU42
 177              		.loc 4 430 3 view .LVU43
 178              		.loc 4 430 3 view .LVU44
 179              		.loc 4 434 3 view .LVU45
 180              	.LBB63:
 181              	.LBI63:
 182              		.loc 3 370 20 view .LVU46
 183              	.LBB64:
 184              		.loc 3 372 3 view .LVU47
 185              	.LBE64:
 186              	.LBE63:
 187              	.LBE62:
 188              	.LBE61:
 189              		.loc 1 90 5 is_stmt 0 view .LVU48
 190 0079 8D8B0000 		leal	.LC1@GOTOFF(%ebx), %ecx
 190      0000
 191              	.LBB68:
 192              	.LBB67:
 193              	.LBB66:
 194              	.LBB65:
 195              		.loc 3 372 16 view .LVU49
 196 007f C7070000 		movl	$0, (%edi)
 196      0000
 197              	.LBE65:
GAS LISTING /tmp/ccXcKoVp.s 			page 5


 198              	.LBE66:
 199              	.LBE67:
 200              	.LBE68:
 201              		.loc 1 90 5 is_stmt 1 view .LVU50
 202              		.loc 1 88 11 is_stmt 0 view .LVU51
 203 0085 89442414 		movl	%eax, 20(%esp)
 204              	.LVL2:
 205              		.loc 1 90 5 view .LVU52
 206 0089 58       		popl	%eax
 207              		.cfi_def_cfa_offset 60
 208 008a 31C0     		xorl	%eax, %eax
 209 008c 5A       		popl	%edx
 210              		.cfi_def_cfa_offset 56
 211 008d 894C2408 		movl	%ecx, 8(%esp)
 212 0091 51       		pushl	%ecx
 213              		.cfi_def_cfa_offset 60
 214 0092 8B8B0000 		movl	tr1@GOTOFF(%ebx), %ecx
 214      0000
 215 0098 85C9     		testl	%ecx, %ecx
 216 009a 0F94C0   		sete	%al
 217 009d 50       		pushl	%eax
 218              		.cfi_def_cfa_offset 64
 219 009e E8FCFFFF 		call	__test_assert@PLT
 219      FF
 220              	.LVL3:
 221 00a3 83C410   		addl	$16, %esp
 222              		.cfi_def_cfa_offset 48
 223 00a6 84C0     		testb	%al, %al
 224 00a8 740E     		je	.L8
 225              	.L3:
 226              		.loc 1 112 1 view .LVU53
 227 00aa 83C41C   		addl	$28, %esp
 228              		.cfi_remember_state
 229              		.cfi_def_cfa_offset 20
 230 00ad 5B       		popl	%ebx
 231              		.cfi_restore 3
 232              		.cfi_def_cfa_offset 16
 233 00ae 5E       		popl	%esi
 234              		.cfi_restore 6
 235              		.cfi_def_cfa_offset 12
 236 00af 5F       		popl	%edi
 237              		.cfi_restore 7
 238              		.cfi_def_cfa_offset 8
 239 00b0 5D       		popl	%ebp
 240              		.cfi_restore 5
 241              		.cfi_def_cfa_offset 4
 242 00b1 C3       		ret
 243              		.p2align 4,,10
 244 00b2 8DB60000 		.p2align 3
 244      0000
 245              	.L8:
 246              		.cfi_restore_state
 247              		.loc 1 90 41 is_stmt 1 discriminator 2 view .LVU54
 248              		.loc 1 91 5 discriminator 2 view .LVU55
 249 00b8 83EC08   		subl	$8, %esp
 250              		.cfi_def_cfa_offset 56
 251 00bb 8D930000 		leal	.LC2@GOTOFF(%ebx), %edx
GAS LISTING /tmp/ccXcKoVp.s 			page 6


 251      0000
 252 00c1 31C0     		xorl	%eax, %eax
 253 00c3 89542414 		movl	%edx, 20(%esp)
 254 00c7 52       		pushl	%edx
 255              		.cfi_def_cfa_offset 60
 256 00c8 8B4C2410 		movl	16(%esp), %ecx
 257 00cc 85C9     		testl	%ecx, %ecx
 258 00ce 0F94C0   		sete	%al
 259 00d1 50       		pushl	%eax
 260              		.cfi_def_cfa_offset 64
 261 00d2 E8FCFFFF 		call	__test_assert@PLT
 261      FF
 262              	.LVL4:
 263 00d7 83C410   		addl	$16, %esp
 264              		.cfi_def_cfa_offset 48
 265 00da 84C0     		testb	%al, %al
 266 00dc 75CC     		jne	.L3
 267              		.loc 1 91 56 discriminator 2 view .LVU56
 268              		.loc 1 92 5 discriminator 2 view .LVU57
 269 00de E8FCFFFF 		call	test_wait_threads@PLT
 269      FF
 270              	.LVL5:
 271              		.loc 1 94 3 discriminator 2 view .LVU58
 272              		.loc 1 94 19 discriminator 2 view .LVU59
 273              		.loc 1 99 3 discriminator 2 view .LVU60
 274 00e3 8B442408 		movl	8(%esp), %eax
 275              		.loc 1 103 11 is_stmt 0 discriminator 2 view .LVU61
 276 00e7 83EC08   		subl	$8, %esp
 277              		.cfi_def_cfa_offset 56
 278              	.LBB69:
 279              	.LBB70:
 280              		.file 5 "../../../os/rt/include/chvt.h"
 281              		.loc 5 138 26 discriminator 2 view .LVU62
 282 00ea 8B6D1C   		movl	28(%ebp), %ebp
 283              	.LBE70:
 284              	.LBE69:
 285              	.LBB72:
 286              	.LBB73:
 287              	.LBB74:
 288              		.loc 3 363 16 discriminator 2 view .LVU63
 289 00ed C7070100 		movl	$1, (%edi)
 289      0000
 290              	.LBE74:
 291              	.LBE73:
 292              	.LBE72:
 293              		.loc 1 99 3 discriminator 2 view .LVU64
 294 00f3 C7000200 		movl	$2, (%eax)
 294      0000
 295              		.loc 1 101 5 is_stmt 1 discriminator 2 view .LVU65
 296              	.LBB77:
 297              	.LBI72:
 298              		.loc 4 407 20 discriminator 2 view .LVU66
 299              		.loc 4 409 3 discriminator 2 view .LVU67
 300              	.LBB76:
 301              	.LBI73:
 302              		.loc 3 361 20 discriminator 2 view .LVU68
 303              	.LBB75:
GAS LISTING /tmp/ccXcKoVp.s 			page 7


 304              		.loc 3 363 3 discriminator 2 view .LVU69
 305              	.LBE75:
 306              	.LBE76:
 307              		.loc 4 410 35 discriminator 2 view .LVU70
 308              		.loc 4 411 21 discriminator 2 view .LVU71
 309              	.LBE77:
 310              		.loc 1 102 5 discriminator 2 view .LVU72
 311              	.LBB78:
 312              	.LBI69:
 313              		.loc 5 135 25 discriminator 2 view .LVU73
 314              	.LBB71:
 315              		.loc 5 138 3 discriminator 2 view .LVU74
 316              	.LVL6:
 317              		.loc 5 138 3 is_stmt 0 discriminator 2 view .LVU75
 318              	.LBE71:
 319              	.LBE78:
 320              		.loc 1 103 5 is_stmt 1 discriminator 2 view .LVU76
 321              		.loc 1 103 11 is_stmt 0 discriminator 2 view .LVU77
 322 00f9 6A0A     		pushl	$10
 323              		.cfi_def_cfa_offset 60
 324 00fb 56       		pushl	%esi
 325              		.cfi_def_cfa_offset 64
 326 00fc E8FCFFFF 		call	chThdSuspendTimeoutS@PLT
 326      FF
 327              	.LVL7:
 328              		.loc 1 105 5 discriminator 2 view .LVU78
 329 0101 83C40C   		addl	$12, %esp
 330              		.cfi_def_cfa_offset 52
 331              	.LBB79:
 332              	.LBB80:
 333              	.LBB81:
 334              	.LBB82:
 335              		.loc 3 372 16 discriminator 2 view .LVU79
 336 0104 C7070000 		movl	$0, (%edi)
 336      0000
 337              	.LBE82:
 338              	.LBE81:
 339              	.LBE80:
 340              	.LBE79:
 341              		.loc 1 103 11 discriminator 2 view .LVU80
 342 010a 89C6     		movl	%eax, %esi
 343              	.LVL8:
 344              		.loc 1 104 5 is_stmt 1 discriminator 2 view .LVU81
 345              	.LBB86:
 346              	.LBI79:
 347              		.loc 4 421 20 discriminator 2 view .LVU82
 348              	.LBB85:
 349              		.loc 4 423 23 discriminator 2 view .LVU83
 350              		.loc 4 424 34 discriminator 2 view .LVU84
 351              		.loc 4 430 3 discriminator 2 view .LVU85
 352              		.loc 4 430 3 discriminator 2 view .LVU86
 353              		.loc 4 430 3 discriminator 2 view .LVU87
 354              		.loc 4 434 3 discriminator 2 view .LVU88
 355              	.LBB84:
 356              	.LBI81:
 357              		.loc 3 370 20 discriminator 2 view .LVU89
 358              	.LBB83:
GAS LISTING /tmp/ccXcKoVp.s 			page 8


 359              		.loc 3 372 3 discriminator 2 view .LVU90
 360              	.LBE83:
 361              	.LBE84:
 362              	.LBE85:
 363              	.LBE86:
 364              		.loc 1 105 5 discriminator 2 view .LVU91
 365              	.LBB87:
 366              	.LBI87:
 367              		.file 6 "../../../os/rt/include/chtime.h"
 368              		.loc 6 442 25 discriminator 2 view .LVU92
 369              	.LBB88:
 370              		.loc 6 449 3 discriminator 2 view .LVU93
 371              		.loc 6 449 3 is_stmt 0 discriminator 2 view .LVU94
 372              	.LBE88:
 373              	.LBE87:
 374              	.LBB90:
 375              	.LBI90:
 376              		.loc 6 442 25 is_stmt 1 discriminator 2 view .LVU95
 377              	.LBB91:
 378              		.loc 6 449 3 discriminator 2 view .LVU96
 379              		.loc 6 449 3 is_stmt 0 discriminator 2 view .LVU97
 380              	.LBE91:
 381              	.LBE90:
 382              		.loc 1 105 5 discriminator 2 view .LVU98
 383 010c 8D830000 		leal	.LC3@GOTOFF(%ebx), %eax
 383      0000
 384              	.LVL9:
 385              		.loc 1 105 5 discriminator 2 view .LVU99
 386 0112 50       		pushl	%eax
 387              		.cfi_def_cfa_offset 56
 388              	.LBB93:
 389              	.LBB89:
 390              		.loc 6 449 18 discriminator 2 view .LVU100
 391 0113 8D450B   		leal	11(%ebp), %eax
 392              	.LBE89:
 393              	.LBE93:
 394              	.LBB94:
 395              	.LBB92:
 396 0116 83C50A   		addl	$10, %ebp
 397              	.LVL10:
 398              		.loc 6 449 18 discriminator 2 view .LVU101
 399              	.LBE92:
 400              	.LBE94:
 401              		.loc 1 105 5 discriminator 2 view .LVU102
 402 0119 50       		pushl	%eax
 403              		.cfi_def_cfa_offset 60
 404 011a 55       		pushl	%ebp
 405              		.cfi_def_cfa_offset 64
 406 011b E8FCFFFF 		call	__test_assert_time_window@PLT
 406      FF
 407              	.LVL11:
 408 0120 83C410   		addl	$16, %esp
 409              		.cfi_def_cfa_offset 48
 410 0123 84C0     		testb	%al, %al
 411 0125 7583     		jne	.L3
 412              		.loc 1 107 50 is_stmt 1 view .LVU103
 413              		.loc 1 108 5 view .LVU104
GAS LISTING /tmp/ccXcKoVp.s 			page 9


 414 0127 8B930000 		movl	tr1@GOTOFF(%ebx), %edx
 414      0000
 415 012d 83EC08   		subl	$8, %esp
 416              		.cfi_def_cfa_offset 56
 417 0130 31C0     		xorl	%eax, %eax
 418 0132 FF742408 		pushl	8(%esp)
 419              		.cfi_def_cfa_offset 60
 420 0136 85D2     		testl	%edx, %edx
 421 0138 0F94C0   		sete	%al
 422 013b 50       		pushl	%eax
 423              		.cfi_def_cfa_offset 64
 424 013c E8FCFFFF 		call	__test_assert@PLT
 424      FF
 425              	.LVL12:
 426 0141 83C410   		addl	$16, %esp
 427              		.cfi_def_cfa_offset 48
 428 0144 84C0     		testb	%al, %al
 429 0146 0F855EFF 		jne	.L3
 429      FFFF
 430              		.loc 1 108 41 discriminator 2 view .LVU105
 431              		.loc 1 109 5 discriminator 2 view .LVU106
 432 014c 83EC08   		subl	$8, %esp
 433              		.cfi_def_cfa_offset 56
 434 014f 31C0     		xorl	%eax, %eax
 435 0151 83FEFF   		cmpl	$-1, %esi
 436 0154 0F94C0   		sete	%al
 437 0157 FF742414 		pushl	20(%esp)
 438              		.cfi_def_cfa_offset 60
 439 015b 50       		pushl	%eax
 440              		.cfi_def_cfa_offset 64
 441 015c E8FCFFFF 		call	__test_assert@PLT
 441      FF
 442              	.LVL13:
 443 0161 83C410   		addl	$16, %esp
 444              		.cfi_def_cfa_offset 48
 445              		.loc 1 109 62 discriminator 2 view .LVU107
 446              		.loc 1 111 3 discriminator 2 view .LVU108
 447              		.loc 1 111 19 discriminator 2 view .LVU109
 448 0164 E941FFFF 		jmp	.L3
 448      FF
 449              		.cfi_endproc
 450              	.LFE305:
 451              		.size	rt_test_006_001_execute, .-rt_test_006_001_execute
 452              		.section	.text.thread1,"ax",@progbits
 453              		.p2align 4
 454              		.type	thread1, @function
 455              	thread1:
 456              	.LVL14:
 457              	.LFB303:
 458              		.loc 1 43 33 view -0
 459              		.cfi_startproc
 460              		.loc 1 45 3 view .LVU111
 461              	.LBB95:
 462              	.LBI95:
 463              		.loc 4 407 20 view .LVU112
 464              		.loc 4 409 3 view .LVU113
 465              	.LBB96:
GAS LISTING /tmp/ccXcKoVp.s 			page 10


 466              	.LBI96:
 467              		.loc 3 361 20 view .LVU114
 468              	.LBB97:
 469              		.loc 3 363 3 view .LVU115
 470              	.LBE97:
 471              	.LBE96:
 472              	.LBE95:
 473              		.loc 1 43 33 is_stmt 0 view .LVU116
 474 0000 56       		pushl	%esi
 475              		.cfi_def_cfa_offset 8
 476              		.cfi_offset 6, -8
 477 0001 53       		pushl	%ebx
 478              		.cfi_def_cfa_offset 12
 479              		.cfi_offset 3, -12
 480 0002 E8FCFFFF 		call	__x86.get_pc_thunk.bx
 480      FF
 481 0007 81C30200 		addl	$_GLOBAL_OFFSET_TABLE_, %ebx
 481      0000
 482 000d 83EC0C   		subl	$12, %esp
 483              		.cfi_def_cfa_offset 24
 484              		.loc 1 46 3 view .LVU117
 485 0010 6A00     		pushl	$0
 486              		.cfi_def_cfa_offset 28
 487 0012 8D830000 		leal	tr1@GOTOFF(%ebx), %eax
 487      0000
 488              	.LBB102:
 489              	.LBB100:
 490              	.LBB98:
 491              		.loc 3 363 16 view .LVU118
 492 0018 8BB30000 		movl	port_irq_sts@GOT(%ebx), %esi
 492      0000
 493              	.LBE98:
 494              	.LBE100:
 495              	.LBE102:
 496              		.loc 1 46 3 view .LVU119
 497 001e 50       		pushl	%eax
 498              		.cfi_def_cfa_offset 32
 499              	.LBB103:
 500              	.LBB101:
 501              	.LBB99:
 502              		.loc 3 363 16 view .LVU120
 503 001f C7060100 		movl	$1, (%esi)
 503      0000
 504              	.LBE99:
 505              	.LBE101:
 506              		.loc 4 410 35 is_stmt 1 view .LVU121
 507              		.loc 4 411 21 view .LVU122
 508              	.LBE103:
 509              		.loc 1 46 3 view .LVU123
 510 0025 E8FCFFFF 		call	chThdResumeI@PLT
 510      FF
 511              	.LVL15:
 512              		.loc 1 47 3 view .LVU124
 513 002a E8FCFFFF 		call	chSchRescheduleS@PLT
 513      FF
 514              	.LVL16:
 515              		.loc 1 48 3 view .LVU125
GAS LISTING /tmp/ccXcKoVp.s 			page 11


 516              	.LBB104:
 517              	.LBI104:
 518              		.loc 4 421 20 view .LVU126
 519              	.LBB105:
 520              		.loc 4 423 23 view .LVU127
 521              		.loc 4 424 34 view .LVU128
 522              		.loc 4 430 3 view .LVU129
 523              		.loc 4 430 3 view .LVU130
 524              		.loc 4 430 3 view .LVU131
 525              		.loc 4 434 3 view .LVU132
 526              	.LBB106:
 527              	.LBI106:
 528              		.loc 3 370 20 view .LVU133
 529              	.LBB107:
 530              		.loc 3 372 3 view .LVU134
 531              	.LBE107:
 532              	.LBE106:
 533              	.LBE105:
 534              	.LBE104:
 535              		.loc 1 49 3 is_stmt 0 view .LVU135
 536 002f 8B442420 		movl	32(%esp), %eax
 537              	.LBB111:
 538              	.LBB110:
 539              	.LBB109:
 540              	.LBB108:
 541              		.loc 3 372 16 view .LVU136
 542 0033 C7060000 		movl	$0, (%esi)
 542      0000
 543              	.LBE108:
 544              	.LBE109:
 545              	.LBE110:
 546              	.LBE111:
 547              		.loc 1 49 3 is_stmt 1 view .LVU137
 548 0039 0FBE00   		movsbl	(%eax), %eax
 549 003c 890424   		movl	%eax, (%esp)
 550 003f E8FCFFFF 		call	test_emit_token@PLT
 550      FF
 551              	.LVL17:
 552              		.loc 1 50 1 is_stmt 0 view .LVU138
 553 0044 83C414   		addl	$20, %esp
 554              		.cfi_def_cfa_offset 12
 555 0047 5B       		popl	%ebx
 556              		.cfi_restore 3
 557              		.cfi_def_cfa_offset 8
 558 0048 5E       		popl	%esi
 559              		.cfi_restore 6
 560              		.cfi_def_cfa_offset 4
 561 0049 C3       		ret
 562              		.cfi_endproc
 563              	.LFE303:
 564              		.size	thread1, .-thread1
 565              		.globl	rt_test_sequence_006
 566              		.section	.rodata.str1.1,"aMS",@progbits,1
 567              	.LC4:
 568 0000 53757370 		.string	"Suspend/Resume"
 568      656E642F 
 568      52657375 
GAS LISTING /tmp/ccXcKoVp.s 			page 12


 568      6D6500
 569              		.section	.data.rel.ro.local.rt_test_sequence_006,"aw"
 570              		.align 4
 571              		.type	rt_test_sequence_006, @object
 572              		.size	rt_test_sequence_006, 8
 573              	rt_test_sequence_006:
 574 0000 00000000 		.long	.LC4
 575 0004 00000000 		.long	rt_test_sequence_006_array
 576              		.globl	rt_test_sequence_006_array
 577              		.section	.data.rel.ro.local.rt_test_sequence_006_array,"aw"
 578              		.align 4
 579              		.type	rt_test_sequence_006_array, @object
 580              		.size	rt_test_sequence_006_array, 8
 581              	rt_test_sequence_006_array:
 582 0000 00000000 		.long	rt_test_006_001
 583 0004 00000000 		.long	0
 584              		.section	.rodata.str1.4,"aMS",@progbits,1
 585              		.align 4
 586              	.LC5:
 587 0000 53757370 		.string	"Suspend and Resume functionality"
 587      656E6420 
 587      616E6420 
 587      52657375 
 587      6D652066 
 588              		.section	.data.rel.ro.local.rt_test_006_001,"aw"
 589              		.align 4
 590              		.type	rt_test_006_001, @object
 591              		.size	rt_test_006_001, 16
 592              	rt_test_006_001:
 593 0000 00000000 		.long	.LC5
 594 0004 00000000 		.long	rt_test_006_001_setup
 595 0008 00000000 		.long	0
 596 000c 00000000 		.long	rt_test_006_001_execute
 597              		.section	.bss.tr1,"aw",@nobits
 598              		.align 4
 599              		.type	tr1, @object
 600              		.size	tr1, 4
 601              	tr1:
 602 0000 00000000 		.zero	4
 603              		.section	.text.__x86.get_pc_thunk.ax,"axG",@progbits,__x86.get_pc_thunk.ax,comdat
 604              		.globl	__x86.get_pc_thunk.ax
 605              		.hidden	__x86.get_pc_thunk.ax
 606              		.type	__x86.get_pc_thunk.ax, @function
 607              	__x86.get_pc_thunk.ax:
 608              	.LFB306:
 609              		.cfi_startproc
 610 0000 8B0424   		movl	(%esp), %eax
 611 0003 C3       		ret
 612              		.cfi_endproc
 613              	.LFE306:
 614              		.section	.text.__x86.get_pc_thunk.bx,"axG",@progbits,__x86.get_pc_thunk.bx,comdat
 615              		.globl	__x86.get_pc_thunk.bx
 616              		.hidden	__x86.get_pc_thunk.bx
 617              		.type	__x86.get_pc_thunk.bx, @function
 618              	__x86.get_pc_thunk.bx:
 619              	.LFB307:
 620              		.cfi_startproc
GAS LISTING /tmp/ccXcKoVp.s 			page 13


 621 0000 8B1C24   		movl	(%esp), %ebx
 622 0003 C3       		ret
 623              		.cfi_endproc
 624              	.LFE307:
 625              		.text
 626              	.Letext0:
 627              		.file 7 "/usr/lib/gcc/x86_64-linux-gnu/11/include/stddef.h"
 628              		.file 8 "/usr/include/bits/types.h"
 629              		.file 9 "/usr/include/bits/stdint-intn.h"
 630              		.file 10 "/usr/include/bits/stdint-uintn.h"
 631              		.file 11 "../../../os/common/ports/SIMIA32/compilers/GCC/chtypes.h"
 632              		.file 12 "../../../os/rt/include/chearly.h"
 633              		.file 13 "../../../os/rt/include/chobjects.h"
 634              		.file 14 "../../../os/rt/include/chrfcu.h"
 635              		.file 15 "../../../os/rt/include/chdebug.h"
 636              		.file 16 "../../../os/rt/include/chlists.h"
 637              		.file 17 "../../../os/rt/include/chsem.h"
 638              		.file 18 "../../../os/rt/include/chmtx.h"
 639              		.file 19 "../../../os/hal/include/hal_streams.h"
 640              		.file 20 "../../../os/test/include/ch_test.h"
 641              		.file 21 "../../../test/rt/source/test/rt_test_sequence_006.h"
 642              		.file 22 "../../../test/rt/source/test/rt_test_root.h"
 643              		.file 23 "../../../os/rt/include/chschd.h"
 3890 0063 2F686F6D 		.section	.note.GNU-stack,"",@progbits
 3890      652F616C 
 3890      65782F43 
 3890      68696269 
 3890      4F532F64 
GAS LISTING /tmp/ccXcKoVp.s 			page 77

