GAS LISTING /tmp/ccgRcd3x.s 			page 1


   1              		.file	"bufstreams.c"
   2              		.text
   3              	.Ltext0:
   4              		.file 0 "/home/alex/ChibiOS/demos/various/LAB3_VARIANT2" "../../../os/hal/lib/streams/bufstreams.c
   5              		.section	.text._writes,"ax",@progbits
   6              		.p2align 4
   7              		.type	_writes, @function
   8              	_writes:
   9              	.LVL0:
  10              	.LFB311:
  11              		.file 1 "../../../os/hal/lib/streams/bufstreams.c"
  12              		.loc 1 51 62 view -0
  13              		.cfi_startproc
  14              		.loc 1 52 3 view .LVU1
  15              		.loc 1 53 3 view .LVU2
  16              		.loc 1 53 14 is_stmt 0 view .LVU3
  17 0000 8B442404 		movl	4(%esp), %eax
  18 0004 8B4004   		movl	4(%eax), %eax
  19              		.loc 1 53 25 view .LVU4
  20 0007 8B10     		movl	(%eax), %edx
  21              		.loc 1 53 10 view .LVU5
  22 0009 89442404 		movl	%eax, 4(%esp)
  23              	.LVL1:
  24              		.loc 1 53 10 view .LVU6
  25 000d FF6204   		jmp	*4(%edx)
  26              	.LVL2:
  27              		.cfi_endproc
  28              	.LFE311:
  29              		.size	_writes, .-_writes
  30              		.section	.text._put,"ax",@progbits
  31              		.p2align 4
  32              		.type	_put, @function
  33              	_put:
  34              	.LVL3:
  35              	.LFB313:
  36              		.loc 1 72 40 is_stmt 1 view -0
  37              		.cfi_startproc
  38              		.loc 1 73 3 view .LVU8
  39              		.loc 1 74 3 view .LVU9
  40              		.loc 1 74 14 is_stmt 0 view .LVU10
  41 0000 8B442404 		movl	4(%esp), %eax
  42              		.loc 1 74 10 view .LVU11
  43 0004 0FB64C24 		movzbl	8(%esp), %ecx
  43      08
  44              		.loc 1 74 14 view .LVU12
  45 0009 8B4004   		movl	4(%eax), %eax
  46              		.loc 1 74 25 view .LVU13
  47 000c 8B10     		movl	(%eax), %edx
  48              		.loc 1 74 10 view .LVU14
  49 000e 894C2408 		movl	%ecx, 8(%esp)
  50              	.LVL4:
  51              		.loc 1 74 10 view .LVU15
  52 0012 89442404 		movl	%eax, 4(%esp)
  53              	.LVL5:
  54              		.loc 1 74 10 view .LVU16
  55 0016 FF620C   		jmp	*12(%edx)
  56              	.LVL6:
GAS LISTING /tmp/ccgRcd3x.s 			page 2


  57              		.loc 1 74 10 view .LVU17
  58              		.cfi_endproc
  59              	.LFE313:
  60              		.size	_put, .-_put
  61              		.section	.text._unget,"ax",@progbits
  62              		.p2align 4
  63              		.type	_unget, @function
  64              	_unget:
  65              	.LVL7:
  66              	.LFB315:
  67              		.loc 1 87 42 is_stmt 1 view -0
  68              		.cfi_startproc
  69              		.loc 1 88 3 view .LVU19
  70              		.loc 1 87 42 is_stmt 0 view .LVU20
  71 0000 8B442408 		movl	8(%esp), %eax
  72 0004 8B4C2404 		movl	4(%esp), %ecx
  73              	.LVL8:
  74              		.loc 1 90 3 is_stmt 1 view .LVU21
  75              		.loc 1 90 6 is_stmt 0 view .LVU22
  76 0008 3CFE     		cmpb	$-2, %al
  77 000a 741C     		je	.L7
  78              		.loc 1 90 40 discriminator 1 view .LVU23
  79 000c 8B510C   		movl	12(%ecx), %edx
  80              		.loc 1 90 32 discriminator 1 view .LVU24
  81 000f 85D2     		testl	%edx, %edx
  82 0011 7415     		je	.L7
  83              		.loc 1 94 3 is_stmt 1 view .LVU25
  84              		.loc 1 94 16 is_stmt 0 view .LVU26
  85 0013 83EA01   		subl	$1, %edx
  86              		.loc 1 94 31 view .LVU27
  87 0016 89510C   		movl	%edx, 12(%ecx)
  88 0019 88441108 		movb	%al, 8(%ecx,%edx)
  89              		.loc 1 96 3 is_stmt 1 view .LVU28
  90              		.loc 1 96 10 is_stmt 0 view .LVU29
  91 001d 0FB6C0   		movzbl	%al, %eax
  92 0020 C3       		ret
  93              		.p2align 4,,10
  94 0021 8DB42600 		.p2align 3
  94      000000
  95              	.L7:
  96              		.loc 1 91 12 view .LVU30
  97 0028 B8FEFFFF 		movl	$-2, %eax
  97      FF
  98              		.loc 1 97 1 view .LVU31
  99 002d C3       		ret
 100              		.cfi_endproc
 101              	.LFE315:
 102              		.size	_unget, .-_unget
 103              		.section	.text._reads,"ax",@progbits
 104              		.p2align 4
 105              		.type	_reads, @function
 106              	_reads:
 107              	.LVL9:
 108              	.LFB312:
 109              		.loc 1 56 55 is_stmt 1 view -0
 110              		.cfi_startproc
 111              		.loc 1 57 3 view .LVU33
GAS LISTING /tmp/ccgRcd3x.s 			page 3


 112              		.loc 1 56 55 is_stmt 0 view .LVU34
 113 0000 55       		pushl	%ebp
 114              		.cfi_def_cfa_offset 8
 115              		.cfi_offset 5, -8
 116              		.loc 1 60 34 view .LVU35
 117 0001 B8010000 		movl	$1, %eax
 117      00
 118              		.loc 1 56 55 view .LVU36
 119 0006 57       		pushl	%edi
 120              		.cfi_def_cfa_offset 12
 121              		.cfi_offset 7, -12
 122 0007 56       		pushl	%esi
 123              		.cfi_def_cfa_offset 16
 124              		.cfi_offset 6, -16
 125              		.loc 1 60 34 view .LVU37
 126 0008 89C6     		movl	%eax, %esi
 127              		.loc 1 56 55 view .LVU38
 128 000a 53       		pushl	%ebx
 129              		.cfi_def_cfa_offset 20
 130              		.cfi_offset 3, -20
 131 000b E8FCFFFF 		call	__x86.get_pc_thunk.bx
 131      FF
 132 0010 81C30200 		addl	$_GLOBAL_OFFSET_TABLE_, %ebx
 132      0000
 133 0016 83EC10   		subl	$16, %esp
 134              		.cfi_def_cfa_offset 36
 135              		.loc 1 56 55 view .LVU39
 136 0019 8B6C2424 		movl	36(%esp), %ebp
 137              	.LVL10:
 138              		.loc 1 58 3 is_stmt 1 view .LVU40
 139              		.loc 1 60 3 view .LVU41
 140              		.loc 1 56 55 is_stmt 0 view .LVU42
 141 001d 8B7C242C 		movl	44(%esp), %edi
 142              		.loc 1 60 34 view .LVU43
 143 0021 2B750C   		subl	12(%ebp), %esi
 144 0024 39FE     		cmpl	%edi, %esi
 145 0026 0F47F7   		cmova	%edi, %esi
 146              	.LVL11:
 147              		.loc 1 66 3 is_stmt 1 view .LVU44
 148              	.LBB6:
 149              	.LBI6:
 150              		.file 2 "/usr/include/bits/string_fortified.h"
 151              		.loc 2 26 1 view .LVU45
 152              	.LBB7:
 153              		.loc 2 29 3 view .LVU46
 154              	.LBE7:
 155              	.LBE6:
 156              		.loc 1 66 52 is_stmt 0 view .LVU47
 157 0029 29F0     		subl	%esi, %eax
 158              	.LBB10:
 159              	.LBB8:
 160              		.loc 2 29 10 view .LVU48
 161 002b 56       		pushl	%esi
 162              		.cfi_def_cfa_offset 40
 163              	.LBE8:
 164              	.LBE10:
 165              		.loc 1 69 21 view .LVU49
GAS LISTING /tmp/ccgRcd3x.s 			page 4


 166 002c 29F7     		subl	%esi, %edi
 167              		.loc 1 66 3 view .LVU50
 168 002e 8D440508 		leal	8(%ebp,%eax), %eax
 169              	.LBB11:
 170              	.LBB9:
 171              		.loc 2 29 10 view .LVU51
 172 0032 50       		pushl	%eax
 173              		.cfi_def_cfa_offset 44
 174 0033 FF742430 		pushl	48(%esp)
 175              		.cfi_def_cfa_offset 48
 176 0037 E8FCFFFF 		call	memcpy@PLT
 176      FF
 177              	.LVL12:
 178              		.loc 2 29 10 view .LVU52
 179              	.LBE9:
 180              	.LBE11:
 181              		.loc 1 67 3 is_stmt 1 view .LVU53
 182              		.loc 1 69 25 is_stmt 0 view .LVU54
 183 003c 8B4504   		movl	4(%ebp), %eax
 184              		.loc 1 69 21 view .LVU55
 185 003f 83C40C   		addl	$12, %esp
 186              		.cfi_def_cfa_offset 36
 187              		.loc 1 67 13 view .LVU56
 188 0042 01750C   		addl	%esi, 12(%ebp)
 189              		.loc 1 69 3 is_stmt 1 view .LVU57
 190              		.loc 1 69 36 is_stmt 0 view .LVU58
 191 0045 8B10     		movl	(%eax), %edx
 192              		.loc 1 69 21 view .LVU59
 193 0047 57       		pushl	%edi
 194              		.cfi_def_cfa_offset 40
 195 0048 8B6C242C 		movl	44(%esp), %ebp
 196              	.LVL13:
 197              		.loc 1 69 21 view .LVU60
 198 004c 01F5     		addl	%esi, %ebp
 199 004e 55       		pushl	%ebp
 200              		.cfi_def_cfa_offset 44
 201 004f 50       		pushl	%eax
 202              		.cfi_def_cfa_offset 48
 203 0050 FF5208   		call	*8(%edx)
 204              	.LVL14:
 205              		.loc 1 69 19 view .LVU61
 206 0053 01F0     		addl	%esi, %eax
 207              		.loc 1 70 1 view .LVU62
 208 0055 83C41C   		addl	$28, %esp
 209              		.cfi_def_cfa_offset 20
 210 0058 5B       		popl	%ebx
 211              		.cfi_restore 3
 212              		.cfi_def_cfa_offset 16
 213 0059 5E       		popl	%esi
 214              		.cfi_restore 6
 215              		.cfi_def_cfa_offset 12
 216              	.LVL15:
 217              		.loc 1 70 1 view .LVU63
 218 005a 5F       		popl	%edi
 219              		.cfi_restore 7
 220              		.cfi_def_cfa_offset 8
 221 005b 5D       		popl	%ebp
GAS LISTING /tmp/ccgRcd3x.s 			page 5


 222              		.cfi_restore 5
 223              		.cfi_def_cfa_offset 4
 224 005c C3       		ret
 225              		.cfi_endproc
 226              	.LFE312:
 227              		.size	_reads, .-_reads
 228              		.section	.text._get,"ax",@progbits
 229              		.p2align 4
 230              		.type	_get, @function
 231              	_get:
 232              	.LVL16:
 233              	.LFB314:
 234              		.loc 1 77 29 is_stmt 1 view -0
 235              		.cfi_startproc
 236              		.loc 1 78 3 view .LVU65
 237              		.loc 1 77 29 is_stmt 0 view .LVU66
 238 0000 8B442404 		movl	4(%esp), %eax
 239              	.LVL17:
 240              		.loc 1 80 3 is_stmt 1 view .LVU67
 241              		.loc 1 80 11 is_stmt 0 view .LVU68
 242 0004 8B500C   		movl	12(%eax), %edx
 243              		.loc 1 80 6 view .LVU69
 244 0007 83FA01   		cmpl	$1, %edx
 245 000a 7414     		je	.L12
 246              		.loc 1 84 3 is_stmt 1 view .LVU70
 247              		.loc 1 84 32 is_stmt 0 view .LVU71
 248 000c 8D4A01   		leal	1(%edx), %ecx
 249 000f 89480C   		movl	%ecx, 12(%eax)
 250              		.loc 1 84 22 view .LVU72
 251 0012 0FB64410 		movzbl	8(%eax,%edx), %eax
 251      08
 252              		.loc 1 85 1 view .LVU73
 253 0017 C3       		ret
 254              	.LVL18:
 255 0018 8DB42600 		.p2align 4,,10
 255      00000090 
 256              		.p2align 3
 257              	.L12:
 258              	.LBB14:
 259              	.LBI14:
 260              		.loc 1 77 14 is_stmt 1 view .LVU74
 261              	.LBB15:
 262              		.loc 1 81 5 view .LVU75
 263              		.loc 1 81 16 is_stmt 0 view .LVU76
 264 0020 8B4004   		movl	4(%eax), %eax
 265              	.LVL19:
 266              		.loc 1 81 27 view .LVU77
 267 0023 8B10     		movl	(%eax), %edx
 268              		.loc 1 81 12 view .LVU78
 269 0025 89442404 		movl	%eax, 4(%esp)
 270              	.LVL20:
 271              		.loc 1 81 12 view .LVU79
 272 0029 FF6210   		jmp	*16(%edx)
 273              	.LVL21:
 274              	.LBE15:
 275              	.LBE14:
 276              		.cfi_endproc
GAS LISTING /tmp/ccgRcd3x.s 			page 6


 277              	.LFE314:
 278              		.size	_get, .-_get
 279              		.section	.text.bsaObjectInit,"ax",@progbits
 280              		.p2align 4
 281              		.globl	bsaObjectInit
 282              		.type	bsaObjectInit, @function
 283              	bsaObjectInit:
 284              	.LVL22:
 285              	.LFB316:
 286              		.loc 1 115 77 is_stmt 1 view -0
 287              		.cfi_startproc
 288              		.loc 1 117 3 view .LVU81
 289 0000 E8FCFFFF 		call	__x86.get_pc_thunk.dx
 289      FF
 290 0005 81C20200 		addl	$_GLOBAL_OFFSET_TABLE_, %edx
 290      0000
 291              		.loc 1 115 77 is_stmt 0 view .LVU82
 292 000b 8B442404 		movl	4(%esp), %eax
 293              	.LBB16:
 294              	.LBB17:
 295              		.loc 2 59 10 view .LVU83
 296 000f C64008FE 		movb	$-2, 8(%eax)
 297              	.LBE17:
 298              	.LBE16:
 299              		.loc 1 120 16 view .LVU84
 300 0013 C7400C01 		movl	$1, 12(%eax)
 300      000000
 301              		.loc 1 117 16 view .LVU85
 302 001a 8D920000 		leal	vmt@GOTOFF(%edx), %edx
 302      0000
 303 0020 8910     		movl	%edx, (%eax)
 304              		.loc 1 118 3 is_stmt 1 view .LVU86
 305              		.loc 1 118 16 is_stmt 0 view .LVU87
 306 0022 8B542408 		movl	8(%esp), %edx
 307 0026 895004   		movl	%edx, 4(%eax)
 308              		.loc 1 119 3 is_stmt 1 view .LVU88
 309              	.LVL23:
 310              	.LBB19:
 311              	.LBI16:
 312              		.loc 2 57 1 view .LVU89
 313              	.LBB18:
 314              		.loc 2 59 3 view .LVU90
 315              		.loc 2 59 3 is_stmt 0 view .LVU91
 316              	.LBE18:
 317              	.LBE19:
 318              		.loc 1 120 3 is_stmt 1 view .LVU92
 319              		.loc 1 121 1 is_stmt 0 view .LVU93
 320 0029 C3       		ret
 321              		.cfi_endproc
 322              	.LFE316:
 323              		.size	bsaObjectInit, .-bsaObjectInit
 324              		.section	.data.rel.ro.local.vmt,"aw"
 325              		.align 4
 326              		.type	vmt, @object
 327              		.size	vmt, 24
 328              	vmt:
 329 0000 00000000 		.long	0
GAS LISTING /tmp/ccgRcd3x.s 			page 7


 330 0004 00000000 		.long	_writes
 331 0008 00000000 		.long	_reads
 332 000c 00000000 		.long	_put
 333 0010 00000000 		.long	_get
 334 0014 00000000 		.long	_unget
 335              		.section	.text.__x86.get_pc_thunk.dx,"axG",@progbits,__x86.get_pc_thunk.dx,comdat
 336              		.globl	__x86.get_pc_thunk.dx
 337              		.hidden	__x86.get_pc_thunk.dx
 338              		.type	__x86.get_pc_thunk.dx, @function
 339              	__x86.get_pc_thunk.dx:
 340              	.LFB318:
 341              		.cfi_startproc
 342 0000 8B1424   		movl	(%esp), %edx
 343 0003 C3       		ret
 344              		.cfi_endproc
 345              	.LFE318:
 346              		.section	.text.__x86.get_pc_thunk.bx,"axG",@progbits,__x86.get_pc_thunk.bx,comdat
 347              		.globl	__x86.get_pc_thunk.bx
 348              		.hidden	__x86.get_pc_thunk.bx
 349              		.type	__x86.get_pc_thunk.bx, @function
 350              	__x86.get_pc_thunk.bx:
 351              	.LFB319:
 352              		.cfi_startproc
 353 0000 8B1C24   		movl	(%esp), %ebx
 354 0003 C3       		ret
 355              		.cfi_endproc
 356              	.LFE319:
 357              		.text
 358              	.Letext0:
 359              		.file 3 "/usr/lib/gcc/x86_64-linux-gnu/11/include/stddef.h"
 360              		.file 4 "/usr/include/bits/types.h"
 361              		.file 5 "/usr/include/bits/stdint-intn.h"
 362              		.file 6 "/usr/include/bits/stdint-uintn.h"
 363              		.file 7 "../../../os/common/ports/SIMIA32/compilers/GCC/chtypes.h"
 364              		.file 8 "../../../os/hal/include/hal_streams.h"
 365              		.file 9 "../../../os/hal/lib/streams/bufstreams.h"
 366              		.file 10 "<built-in>"
 2121 0058 2F686F6D 		.section	.note.GNU-stack,"",@progbits
 2121      652F616C 
 2121      65782F43 
 2121      68696269 
 2121      4F532F64 
GAS LISTING /tmp/ccgRcd3x.s 			page 41

