GAS LISTING /tmp/cckYWR0Z.s 			page 1


   1              		.file	"main.c"
   2              		.text
   3              	.Ltext0:
   4              		.file 0 "/home/alex/ChibiOS/demos/various/LAB3_VARIANT2" "main.c"
   5              		.section	.rodata.print_buffer_state.str1.4,"aMS",@progbits,1
   6              		.align 4
   7              	.LC0:
   8 0000 25733A20 		.string	"%s: count=%2u, head=%2u, tail=%2u\r\n"
   8      636F756E 
   8      743D2532 
   8      752C2068 
   8      6561643D 
   9              		.section	.rodata.print_buffer_state.str1.1,"aMS",@progbits,1
  10              	.LC1:
  11 0000 436F6E74 		.string	"Contents: "
  11      656E7473 
  11      3A2000
  12              	.LC2:
  13 000b 656D7074 		.string	"empty"
  13      7900
  14              	.LC3:
  15 0011 25336420 		.string	"%3d "
  15      00
  16              	.LC4:
  17 0016 0D0A00   		.string	"\r\n"
  18              		.section	.text.print_buffer_state,"ax",@progbits
  19              		.p2align 4
  20              		.type	print_buffer_state, @function
  21              	print_buffer_state:
  22              	.LVL0:
  23              	.LFB302:
  24              		.file 1 "main.c"
  25              		.loc 1 171 103 view -0
  26              		.cfi_startproc
  27              		.loc 1 172 5 view .LVU1
  28              		.loc 1 171 103 is_stmt 0 view .LVU2
  29 0000 55       		pushl	%ebp
  30              		.cfi_def_cfa_offset 8
  31              		.cfi_offset 5, -8
  32 0001 57       		pushl	%edi
  33              		.cfi_def_cfa_offset 12
  34              		.cfi_offset 7, -12
  35 0002 31FF     		xorl	%edi, %edi
  36 0004 56       		pushl	%esi
  37              		.cfi_def_cfa_offset 16
  38              		.cfi_offset 6, -16
  39 0005 53       		pushl	%ebx
  40              		.cfi_def_cfa_offset 20
  41              		.cfi_offset 3, -20
  42 0006 E8FCFFFF 		call	__x86.get_pc_thunk.bx
  42      FF
  43 000b 81C30200 		addl	$_GLOBAL_OFFSET_TABLE_, %ebx
  43      0000
  44 0011 83EC24   		subl	$36, %esp
  45              		.cfi_def_cfa_offset 56
  46              		.loc 1 171 103 view .LVU3
  47 0014 8B742438 		movl	56(%esp), %esi
GAS LISTING /tmp/cckYWR0Z.s 			page 2


  48 0018 89542410 		movl	%edx, 16(%esp)
  49              		.loc 1 172 5 view .LVU4
  50 001c 56       		pushl	%esi
  51              		.cfi_def_cfa_offset 60
  52 001d 8BAB0000 		movl	SD1@GOT(%ebx), %ebp
  52      0000
  53 0023 51       		pushl	%ecx
  54              		.cfi_def_cfa_offset 64
  55 0024 FF742444 		pushl	68(%esp)
  56              		.cfi_def_cfa_offset 68
  57 0028 50       		pushl	%eax
  58              		.cfi_def_cfa_offset 72
  59 0029 8D830000 		leal	.LC0@GOTOFF(%ebx), %eax
  59      0000
  60              	.LVL1:
  61              		.loc 1 172 5 view .LVU5
  62 002f 50       		pushl	%eax
  63              		.cfi_def_cfa_offset 76
  64 0030 55       		pushl	%ebp
  65              		.cfi_def_cfa_offset 80
  66 0031 E8FCFFFF 		call	chprintf@PLT
  66      FF
  67              	.LVL2:
  68              		.loc 1 173 5 is_stmt 1 view .LVU6
  69 0036 83C418   		addl	$24, %esp
  70              		.cfi_def_cfa_offset 56
  71 0039 8D830000 		leal	.LC1@GOTOFF(%ebx), %eax
  71      0000
  72 003f 50       		pushl	%eax
  73              		.cfi_def_cfa_offset 60
  74 0040 55       		pushl	%ebp
  75              		.cfi_def_cfa_offset 64
  76 0041 E8FCFFFF 		call	chprintf@PLT
  76      FF
  77              	.LVL3:
  78              		.loc 1 175 5 view .LVU7
  79              		.loc 1 175 8 is_stmt 0 view .LVU8
  80 0046 83C410   		addl	$16, %esp
  81              		.cfi_def_cfa_offset 48
  82 0049 8D830000 		leal	.LC3@GOTOFF(%ebx), %eax
  82      0000
  83 004f 8944240C 		movl	%eax, 12(%esp)
  84 0053 8B442434 		movl	52(%esp), %eax
  85 0057 85C0     		testl	%eax, %eax
  86 0059 7455     		je	.L11
  87 005b 8D742600 		.p2align 4,,10
  87      90
  88              		.p2align 3
  89              	.L2:
  90              	.LVL4:
  91              	.LBB20:
  92              	.LBB21:
  93              		.loc 1 180 13 is_stmt 1 discriminator 3 view .LVU9
  94 0060 83EC04   		subl	$4, %esp
  95              		.cfi_def_cfa_offset 52
  96              		.loc 1 179 40 is_stmt 0 discriminator 3 view .LVU10
  97 0063 83C701   		addl	$1, %edi
GAS LISTING /tmp/cckYWR0Z.s 			page 3


  98              	.LVL5:
  99              		.loc 1 180 13 discriminator 3 view .LVU11
 100 0066 8B44240C 		movl	12(%esp), %eax
 101 006a FF34B0   		pushl	(%eax,%esi,4)
 102              		.cfi_def_cfa_offset 56
 103 006d FF742414 		pushl	20(%esp)
 104              		.cfi_def_cfa_offset 60
 105 0071 55       		pushl	%ebp
 106              		.cfi_def_cfa_offset 64
 107 0072 E8FCFFFF 		call	chprintf@PLT
 107      FF
 108              	.LVL6:
 109              		.loc 1 181 13 is_stmt 1 discriminator 3 view .LVU12
 110              		.loc 1 181 24 is_stmt 0 discriminator 3 view .LVU13
 111 0077 8D4E01   		leal	1(%esi), %ecx
 112              		.loc 1 181 17 discriminator 3 view .LVU14
 113 007a B8CDCCCC 		movl	$-858993459, %eax
 113      CC
 114              		.loc 1 179 30 discriminator 3 view .LVU15
 115 007f 83C410   		addl	$16, %esp
 116              		.cfi_def_cfa_offset 48
 117              		.loc 1 181 17 discriminator 3 view .LVU16
 118 0082 F7E1     		mull	%ecx
 119 0084 C1EA03   		shrl	$3, %edx
 120 0087 8D0492   		leal	(%edx,%edx,4), %eax
 121 008a 01C0     		addl	%eax, %eax
 122 008c 29C1     		subl	%eax, %ecx
 123 008e 89CE     		movl	%ecx, %esi
 124              	.LVL7:
 125              		.loc 1 179 40 is_stmt 1 discriminator 3 view .LVU17
 126              		.loc 1 179 30 discriminator 3 view .LVU18
 127 0090 397C2434 		cmpl	%edi, 52(%esp)
 128 0094 75CA     		jne	.L2
 129              	.LVL8:
 130              	.L3:
 131              		.loc 1 179 30 is_stmt 0 discriminator 3 view .LVU19
 132              	.LBE21:
 133              	.LBE20:
 134              		.loc 1 184 5 is_stmt 1 view .LVU20
 135 0096 83EC08   		subl	$8, %esp
 136              		.cfi_def_cfa_offset 56
 137 0099 8D830000 		leal	.LC4@GOTOFF(%ebx), %eax
 137      0000
 138 009f 50       		pushl	%eax
 139              		.cfi_def_cfa_offset 60
 140 00a0 55       		pushl	%ebp
 141              		.cfi_def_cfa_offset 64
 142 00a1 E8FCFFFF 		call	chprintf@PLT
 142      FF
 143              	.LVL9:
 144              		.loc 1 185 1 is_stmt 0 view .LVU21
 145 00a6 83C42C   		addl	$44, %esp
 146              		.cfi_def_cfa_offset 20
 147 00a9 5B       		popl	%ebx
 148              		.cfi_restore 3
 149              		.cfi_def_cfa_offset 16
 150 00aa 5E       		popl	%esi
GAS LISTING /tmp/cckYWR0Z.s 			page 4


 151              		.cfi_restore 6
 152              		.cfi_def_cfa_offset 12
 153 00ab 5F       		popl	%edi
 154              		.cfi_restore 7
 155              		.cfi_def_cfa_offset 8
 156 00ac 5D       		popl	%ebp
 157              		.cfi_restore 5
 158              		.cfi_def_cfa_offset 4
 159 00ad C3       		ret
 160 00ae 6690     		.p2align 4,,10
 161              		.p2align 3
 162              	.L11:
 163              		.cfi_def_cfa_offset 48
 164              		.cfi_offset 3, -20
 165              		.cfi_offset 5, -8
 166              		.cfi_offset 6, -16
 167              		.cfi_offset 7, -12
 168              		.loc 1 176 9 is_stmt 1 view .LVU22
 169 00b0 83EC08   		subl	$8, %esp
 170              		.cfi_def_cfa_offset 56
 171 00b3 8D830000 		leal	.LC2@GOTOFF(%ebx), %eax
 171      0000
 172 00b9 50       		pushl	%eax
 173              		.cfi_def_cfa_offset 60
 174 00ba 55       		pushl	%ebp
 175              		.cfi_def_cfa_offset 64
 176 00bb E8FCFFFF 		call	chprintf@PLT
 176      FF
 177              	.LVL10:
 178 00c0 83C410   		addl	$16, %esp
 179              		.cfi_def_cfa_offset 48
 180 00c3 EBD1     		jmp	.L3
 181              		.cfi_endproc
 182              	.LFE302:
 183              		.size	print_buffer_state, .-print_buffer_state
 184              		.section	.rodata.Monitor.str1.1,"aMS",@progbits,1
 185              	.LC5:
 186 0000 0D0A3D3D 		.string	"\r\n=== Buffer Status ===\r\n"
 186      3D204275 
 186      66666572 
 186      20537461 
 186      74757320 
 187              	.LC6:
 188 001a 42756666 		.string	"Buffer1"
 188      65723100 
 189              	.LC7:
 190 0022 42756666 		.string	"Buffer2"
 190      65723200 
 191              	.LC8:
 192 002a 3D3D3D3D 		.string	"====================\r\n\r\n"
 192      3D3D3D3D 
 192      3D3D3D3D 
 192      3D3D3D3D 
 192      3D3D3D3D 
 193              		.section	.text.Monitor,"ax",@progbits
 194              		.p2align 4
 195              		.type	Monitor, @function
GAS LISTING /tmp/cckYWR0Z.s 			page 5


 196              	Monitor:
 197              	.LVL11:
 198              	.LFB301:
 199              		.loc 1 146 35 view -0
 200              		.cfi_startproc
 201              		.loc 1 146 35 is_stmt 0 view .LVU24
 202 0000 55       		pushl	%ebp
 203              		.cfi_def_cfa_offset 8
 204              		.cfi_offset 5, -8
 205 0001 57       		pushl	%edi
 206              		.cfi_def_cfa_offset 12
 207              		.cfi_offset 7, -12
 208 0002 56       		pushl	%esi
 209              		.cfi_def_cfa_offset 16
 210              		.cfi_offset 6, -16
 211 0003 53       		pushl	%ebx
 212              		.cfi_def_cfa_offset 20
 213              		.cfi_offset 3, -20
 214 0004 E8FCFFFF 		call	__x86.get_pc_thunk.bx
 214      FF
 215 0009 81C30200 		addl	$_GLOBAL_OFFSET_TABLE_, %ebx
 215      0000
 216 000f 83EC2C   		subl	$44, %esp
 217              		.cfi_def_cfa_offset 64
 218 0012 8D830000 		leal	.LC5@GOTOFF(%ebx), %eax
 218      0000
 219 0018 8DAB0000 		leal	buffer1_mutex@GOTOFF(%ebx), %ebp
 219      0000
 220 001e 89442408 		movl	%eax, 8(%esp)
 221 0022 8B830000 		movl	SD1@GOT(%ebx), %eax
 221      0000
 222 0028 8DBB0000 		leal	buffer2_mutex@GOTOFF(%ebx), %edi
 222      0000
 223 002e 8DB30000 		leal	print_mutex@GOTOFF(%ebx), %esi
 223      0000
 224 0034 89442404 		movl	%eax, 4(%esp)
 225 0038 8D830000 		leal	buffer1@GOTOFF(%ebx), %eax
 225      0000
 226 003e 8944240C 		movl	%eax, 12(%esp)
 227 0042 8D830000 		leal	.LC6@GOTOFF(%ebx), %eax
 227      0000
 228 0048 89442410 		movl	%eax, 16(%esp)
 229 004c 8D830000 		leal	buffer2@GOTOFF(%ebx), %eax
 229      0000
 230 0052 89442414 		movl	%eax, 20(%esp)
 231 0056 8D830000 		leal	.LC7@GOTOFF(%ebx), %eax
 231      0000
 232 005c 89442418 		movl	%eax, 24(%esp)
 233 0060 8D830000 		leal	.LC8@GOTOFF(%ebx), %eax
 233      0000
 234 0066 8944241C 		movl	%eax, 28(%esp)
 235 006a 8DB60000 		.p2align 4,,10
 235      0000
 236              		.p2align 3
 237              	.L13:
 238              		.loc 1 147 5 is_stmt 1 discriminator 1 view .LVU25
 239              		.loc 1 149 5 discriminator 1 view .LVU26
GAS LISTING /tmp/cckYWR0Z.s 			page 6


 240              		.loc 1 151 9 discriminator 1 view .LVU27
 241 0070 83EC0C   		subl	$12, %esp
 242              		.cfi_def_cfa_offset 76
 243 0073 55       		pushl	%ebp
 244              		.cfi_def_cfa_offset 80
 245 0074 E8FCFFFF 		call	chMtxLock@PLT
 245      FF
 246              	.LVL12:
 247              		.loc 1 152 9 discriminator 1 view .LVU28
 248 0079 893C24   		movl	%edi, (%esp)
 249 007c E8FCFFFF 		call	chMtxLock@PLT
 249      FF
 250              	.LVL13:
 251              		.loc 1 154 9 discriminator 1 view .LVU29
 252 0081 893424   		movl	%esi, (%esp)
 253 0084 E8FCFFFF 		call	chMtxLock@PLT
 253      FF
 254              	.LVL14:
 255              		.loc 1 155 9 discriminator 1 view .LVU30
 256 0089 58       		popl	%eax
 257              		.cfi_def_cfa_offset 76
 258 008a 5A       		popl	%edx
 259              		.cfi_def_cfa_offset 72
 260 008b FF742410 		pushl	16(%esp)
 261              		.cfi_def_cfa_offset 76
 262 008f FF742410 		pushl	16(%esp)
 263              		.cfi_def_cfa_offset 80
 264 0093 E8FCFFFF 		call	chprintf@PLT
 264      FF
 265              	.LVL15:
 266              		.loc 1 157 9 discriminator 1 view .LVU31
 267 0098 59       		popl	%ecx
 268              		.cfi_def_cfa_offset 76
 269 0099 58       		popl	%eax
 270              		.cfi_def_cfa_offset 72
 271 009a FFB30000 		pushl	buffer1_count@GOTOFF(%ebx)
 271      0000
 272              		.cfi_def_cfa_offset 76
 273 00a0 8B8B0000 		movl	buffer1_head@GOTOFF(%ebx), %ecx
 273      0000
 274 00a6 FFB30000 		pushl	buffer1_tail@GOTOFF(%ebx)
 274      0000
 275              		.cfi_def_cfa_offset 80
 276 00ac 8B54241C 		movl	28(%esp), %edx
 277 00b0 8B442420 		movl	32(%esp), %eax
 278 00b4 E8FCFFFF 		call	print_buffer_state
 278      FF
 279              	.LVL16:
 280              		.loc 1 158 9 discriminator 1 view .LVU32
 281 00b9 58       		popl	%eax
 282              		.cfi_def_cfa_offset 76
 283 00ba 5A       		popl	%edx
 284              		.cfi_def_cfa_offset 72
 285 00bb FFB30000 		pushl	buffer2_count@GOTOFF(%ebx)
 285      0000
 286              		.cfi_def_cfa_offset 76
 287 00c1 8B8B0000 		movl	buffer2_head@GOTOFF(%ebx), %ecx
GAS LISTING /tmp/cckYWR0Z.s 			page 7


 287      0000
 288 00c7 FFB30000 		pushl	buffer2_tail@GOTOFF(%ebx)
 288      0000
 289              		.cfi_def_cfa_offset 80
 290 00cd 8B542424 		movl	36(%esp), %edx
 291 00d1 8B442428 		movl	40(%esp), %eax
 292 00d5 E8FCFFFF 		call	print_buffer_state
 292      FF
 293              	.LVL17:
 294              		.loc 1 160 9 discriminator 1 view .LVU33
 295 00da 59       		popl	%ecx
 296              		.cfi_def_cfa_offset 76
 297 00db 58       		popl	%eax
 298              		.cfi_def_cfa_offset 72
 299 00dc FF742424 		pushl	36(%esp)
 300              		.cfi_def_cfa_offset 76
 301 00e0 FF742410 		pushl	16(%esp)
 302              		.cfi_def_cfa_offset 80
 303 00e4 E8FCFFFF 		call	chprintf@PLT
 303      FF
 304              	.LVL18:
 305              		.loc 1 161 9 discriminator 1 view .LVU34
 306 00e9 893424   		movl	%esi, (%esp)
 307 00ec E8FCFFFF 		call	chMtxUnlock@PLT
 307      FF
 308              	.LVL19:
 309              		.loc 1 163 9 discriminator 1 view .LVU35
 310 00f1 893C24   		movl	%edi, (%esp)
 311 00f4 E8FCFFFF 		call	chMtxUnlock@PLT
 311      FF
 312              	.LVL20:
 313              		.loc 1 164 9 discriminator 1 view .LVU36
 314 00f9 892C24   		movl	%ebp, (%esp)
 315 00fc E8FCFFFF 		call	chMtxUnlock@PLT
 315      FF
 316              	.LVL21:
 317              		.loc 1 166 9 discriminator 1 view .LVU37
 318 0101 C7042464 		movl	$100, (%esp)
 318      000000
 319 0108 E8FCFFFF 		call	chThdSleep@PLT
 319      FF
 320              	.LVL22:
 321              		.loc 1 149 11 discriminator 1 view .LVU38
 322              		.loc 1 166 9 is_stmt 0 discriminator 1 view .LVU39
 323 010d 83C410   		addl	$16, %esp
 324              		.cfi_def_cfa_offset 64
 325 0110 E95BFFFF 		jmp	.L13
 325      FF
 326              		.cfi_endproc
 327              	.LFE301:
 328              		.size	Monitor, .-Monitor
 329              		.section	.rodata.Task2.str1.4,"aMS",@progbits,1
 330              		.align 4
 331              	.LC9:
 332 0000 5B544153 		.string	"[TASK2] Read from buffer1: %3d (count: %2u/10)\r\n"
 332      4B325D20 
 332      52656164 
GAS LISTING /tmp/cckYWR0Z.s 			page 8


 332      2066726F 
 332      6D206275 
 333 0031 000000   		.align 4
 334              	.LC10:
 335 0034 5B544153 		.string	"[TASK2] Buffer2 full, skipping write\r\n"
 335      4B325D20 
 335      42756666 
 335      65723220 
 335      66756C6C 
 336 005b 00       		.align 4
 337              	.LC11:
 338 005c 5B544153 		.string	"[TASK2] Added to buffer2: %3d (count: %2u/10)\r\n"
 338      4B325D20 
 338      41646465 
 338      6420746F 
 338      20627566 
 339              		.section	.text.Task2,"ax",@progbits
 340              		.p2align 4
 341              		.type	Task2, @function
 342              	Task2:
 343              	.LVL23:
 344              	.LFB300:
 345              		.loc 1 95 33 is_stmt 1 view -0
 346              		.cfi_startproc
 347              		.loc 1 95 33 is_stmt 0 view .LVU41
 348 0000 55       		pushl	%ebp
 349              		.cfi_def_cfa_offset 8
 350              		.cfi_offset 5, -8
 351 0001 57       		pushl	%edi
 352              		.cfi_def_cfa_offset 12
 353              		.cfi_offset 7, -12
 354 0002 56       		pushl	%esi
 355              		.cfi_def_cfa_offset 16
 356              		.cfi_offset 6, -16
 357 0003 53       		pushl	%ebx
 358              		.cfi_def_cfa_offset 20
 359              		.cfi_offset 3, -20
 360 0004 E8FCFFFF 		call	__x86.get_pc_thunk.bx
 360      FF
 361 0009 81C30200 		addl	$_GLOBAL_OFFSET_TABLE_, %ebx
 361      0000
 362 000f 83EC5C   		subl	$92, %esp
 363              		.cfi_def_cfa_offset 112
 364              		.loc 1 95 33 view .LVU42
 365 0012 65A11400 		movl	%gs:20, %eax
 365      0000
 366 0018 8944244C 		movl	%eax, 76(%esp)
 367 001c 31C0     		xorl	%eax, %eax
 368              		.loc 1 96 5 is_stmt 1 view .LVU43
 369              		.loc 1 97 5 view .LVU44
 370              		.loc 1 98 5 view .LVU45
 371              	.LVL24:
 372              	.LBB22:
 373              	.LBI22:
 374              		.file 2 "../../../os/rt/include/chevents.h"
 375              		.loc 2 205 20 view .LVU46
 376              	.LBB23:
GAS LISTING /tmp/cckYWR0Z.s 			page 9


 377              		.loc 2 209 3 view .LVU47
 378              	.LBB24:
 379              	.LBI24:
 380              		.loc 2 185 20 view .LVU48
 381              	.LBB25:
 382              		.loc 2 189 3 view .LVU49
 383 001e 6AFF     		pushl	$-1
 384              		.cfi_def_cfa_offset 116
 385 0020 6A01     		pushl	$1
 386              		.cfi_def_cfa_offset 120
 387 0022 8DB30000 		leal	print_mutex@GOTOFF(%ebx), %esi
 387      0000
 388 0028 8D442440 		leal	64(%esp), %eax
 389              	.LVL25:
 390              		.loc 2 189 3 is_stmt 0 view .LVU50
 391 002c 50       		pushl	%eax
 392              		.cfi_def_cfa_offset 124
 393 002d 8D830000 		leal	buffer1_event@GOTOFF(%ebx), %eax
 393      0000
 394              	.LVL26:
 395              		.loc 2 189 3 view .LVU51
 396 0033 50       		pushl	%eax
 397              		.cfi_def_cfa_offset 128
 398 0034 E8FCFFFF 		call	chEvtRegisterMaskWithFlags@PLT
 398      FF
 399              	.LVL27:
 400              		.loc 2 189 3 view .LVU52
 401              	.LBE25:
 402              	.LBE24:
 403              		.loc 2 210 1 view .LVU53
 404 0039 83C410   		addl	$16, %esp
 405              		.cfi_def_cfa_offset 112
 406 003c 8D830000 		leal	buffer1_mutex@GOTOFF(%ebx), %eax
 406      0000
 407 0042 89442414 		movl	%eax, 20(%esp)
 408 0046 8D830000 		leal	buffer1@GOTOFF(%ebx), %eax
 408      0000
 409 004c 8944242C 		movl	%eax, 44(%esp)
 410 0050 8D830000 		leal	.LC9@GOTOFF(%ebx), %eax
 410      0000
 411 0056 89442428 		movl	%eax, 40(%esp)
 412 005a 8B830000 		movl	SD1@GOT(%ebx), %eax
 412      0000
 413 0060 89442410 		movl	%eax, 16(%esp)
 414 0064 8D830000 		leal	buffer2_mutex@GOTOFF(%ebx), %eax
 414      0000
 415 006a 8944240C 		movl	%eax, 12(%esp)
 416 006e 8D830000 		leal	.LC10@GOTOFF(%ebx), %eax
 416      0000
 417 0074 89442418 		movl	%eax, 24(%esp)
 418 0078 8D830000 		leal	buffer2@GOTOFF(%ebx), %eax
 418      0000
 419 007e 89442424 		movl	%eax, 36(%esp)
 420 0082 8D830000 		leal	.LC11@GOTOFF(%ebx), %eax
 420      0000
 421 0088 89442420 		movl	%eax, 32(%esp)
 422 008c 8D830000 		leal	buffer2_event@GOTOFF(%ebx), %eax
GAS LISTING /tmp/cckYWR0Z.s 			page 10


 422      0000
 423 0092 8944241C 		movl	%eax, 28(%esp)
 424 0096 EB46     		jmp	.L20
 425              	.LVL28:
 426 0098 8DB42600 		.p2align 4,,10
 426      00000090 
 427              		.p2align 3
 428              	.L30:
 429              		.loc 2 210 1 view .LVU54
 430              	.LBE23:
 431              	.LBE22:
 432              	.LBB26:
 433              		.loc 1 122 13 is_stmt 1 view .LVU55
 434 00a0 83EC0C   		subl	$12, %esp
 435              		.cfi_def_cfa_offset 124
 436 00a3 FF742418 		pushl	24(%esp)
 437              		.cfi_def_cfa_offset 128
 438 00a7 E8FCFFFF 		call	chMtxUnlock@PLT
 438      FF
 439              	.LVL29:
 440              		.loc 1 124 13 view .LVU56
 441 00ac 893424   		movl	%esi, (%esp)
 442 00af E8FCFFFF 		call	chMtxLock@PLT
 442      FF
 443              	.LVL30:
 444              		.loc 1 125 13 view .LVU57
 445 00b4 5F       		popl	%edi
 446              		.cfi_def_cfa_offset 124
 447 00b5 5D       		popl	%ebp
 448              		.cfi_def_cfa_offset 120
 449              	.LVL31:
 450              		.loc 1 125 13 is_stmt 0 view .LVU58
 451 00b6 FF742420 		pushl	32(%esp)
 452              		.cfi_def_cfa_offset 124
 453 00ba FF74241C 		pushl	28(%esp)
 454              		.cfi_def_cfa_offset 128
 455 00be E8FCFFFF 		call	chprintf@PLT
 455      FF
 456              	.LVL32:
 457              		.loc 1 126 13 is_stmt 1 view .LVU59
 458 00c3 893424   		movl	%esi, (%esp)
 459 00c6 E8FCFFFF 		call	chMtxUnlock@PLT
 459      FF
 460              	.LVL33:
 461 00cb 83C410   		addl	$16, %esp
 462              		.cfi_def_cfa_offset 112
 463              	.L19:
 464              		.loc 1 140 9 view .LVU60
 465 00ce 83EC0C   		subl	$12, %esp
 466              		.cfi_def_cfa_offset 124
 467 00d1 682C0100 		pushl	$300
 467      00
 468              		.cfi_def_cfa_offset 128
 469 00d6 E8FCFFFF 		call	chThdSleep@PLT
 469      FF
 470              	.LVL34:
 471              	.LBE26:
GAS LISTING /tmp/cckYWR0Z.s 			page 11


 472              		.loc 1 100 11 view .LVU61
 473              		.loc 1 100 18 is_stmt 0 view .LVU62
 474 00db 83C410   		addl	$16, %esp
 475              		.cfi_def_cfa_offset 112
 476              	.L20:
 477              		.loc 1 100 5 is_stmt 1 view .LVU63
 478              	.LBB30:
 479              		.loc 1 102 9 view .LVU64
 480              		.loc 1 102 27 is_stmt 0 view .LVU65
 481 00de 83EC08   		subl	$8, %esp
 482              		.cfi_def_cfa_offset 120
 483 00e1 6A0A     		pushl	$10
 484              		.cfi_def_cfa_offset 124
 485 00e3 6A01     		pushl	$1
 486              		.cfi_def_cfa_offset 128
 487 00e5 E8FCFFFF 		call	chEvtWaitOneTimeout@PLT
 487      FF
 488              	.LVL35:
 489              		.loc 1 103 9 is_stmt 1 view .LVU66
 490              		.loc 1 103 12 is_stmt 0 view .LVU67
 491 00ea 83C410   		addl	$16, %esp
 492              		.cfi_def_cfa_offset 112
 493 00ed 85C0     		testl	%eax, %eax
 494 00ef 0F85A300 		jne	.L29
 494      0000
 495              	.LVL36:
 496              	.L16:
 497              		.loc 1 118 9 is_stmt 1 view .LVU68
 498              		.loc 1 120 9 is_stmt 0 view .LVU69
 499 00f5 83EC0C   		subl	$12, %esp
 500              		.cfi_def_cfa_offset 124
 501              		.loc 1 118 33 view .LVU70
 502 00f8 8BAB0000 		movl	number_counter@GOTOFF(%ebx), %ebp
 502      0000
 503              		.loc 1 120 9 view .LVU71
 504 00fe FF742418 		pushl	24(%esp)
 505              		.cfi_def_cfa_offset 128
 506              		.loc 1 118 33 view .LVU72
 507 0102 8D4501   		leal	1(%ebp), %eax
 508 0105 89830000 		movl	%eax, number_counter@GOTOFF(%ebx)
 508      0000
 509              	.LVL37:
 510              		.loc 1 120 9 is_stmt 1 view .LVU73
 511 010b E8FCFFFF 		call	chMtxLock@PLT
 511      FF
 512              	.LVL38:
 513              		.loc 1 121 9 view .LVU74
 514              		.loc 1 121 27 is_stmt 0 view .LVU75
 515 0110 8BBB0000 		movl	buffer2_count@GOTOFF(%ebx), %edi
 515      0000
 516              		.loc 1 121 12 view .LVU76
 517 0116 83C410   		addl	$16, %esp
 518              		.cfi_def_cfa_offset 112
 519 0119 83FF0A   		cmpl	$10, %edi
 520 011c 7482     		je	.L30
 521              		.loc 1 128 13 is_stmt 1 view .LVU77
 522              		.loc 1 128 35 is_stmt 0 view .LVU78
GAS LISTING /tmp/cckYWR0Z.s 			page 12


 523 011e 8B442424 		movl	36(%esp), %eax
 524              		.loc 1 128 20 view .LVU79
 525 0122 8B8B0000 		movl	buffer2_head@GOTOFF(%ebx), %ecx
 525      0000
 526              		.loc 1 132 13 view .LVU80
 527 0128 83EC0C   		subl	$12, %esp
 528              		.cfi_def_cfa_offset 124
 529              		.loc 1 130 26 view .LVU81
 530 012b 83C701   		addl	$1, %edi
 531 012e 89BB0000 		movl	%edi, buffer2_count@GOTOFF(%ebx)
 531      0000
 532              		.loc 1 128 35 view .LVU82
 533 0134 892C88   		movl	%ebp, (%eax,%ecx,4)
 534              		.loc 1 129 13 is_stmt 1 view .LVU83
 535              		.loc 1 129 42 is_stmt 0 view .LVU84
 536 0137 83C101   		addl	$1, %ecx
 537              		.loc 1 129 47 view .LVU85
 538 013a B8CDCCCC 		movl	$-858993459, %eax
 538      CC
 539 013f F7E1     		mull	%ecx
 540              		.loc 1 132 13 view .LVU86
 541 0141 56       		pushl	%esi
 542              		.cfi_def_cfa_offset 128
 543              		.loc 1 129 47 view .LVU87
 544 0142 C1EA03   		shrl	$3, %edx
 545 0145 8D0492   		leal	(%edx,%edx,4), %eax
 546 0148 01C0     		addl	%eax, %eax
 547 014a 29C1     		subl	%eax, %ecx
 548 014c 898B0000 		movl	%ecx, buffer2_head@GOTOFF(%ebx)
 548      0000
 549              		.loc 1 130 13 is_stmt 1 view .LVU88
 550              		.loc 1 132 13 view .LVU89
 551 0152 E8FCFFFF 		call	chMtxLock@PLT
 551      FF
 552              	.LVL39:
 553              		.loc 1 133 13 view .LVU90
 554 0157 FFB30000 		pushl	buffer2_count@GOTOFF(%ebx)
 554      0000
 555              		.cfi_def_cfa_offset 132
 556 015d 55       		pushl	%ebp
 557              		.cfi_def_cfa_offset 136
 558 015e FF742438 		pushl	56(%esp)
 559              		.cfi_def_cfa_offset 140
 560 0162 FF74242C 		pushl	44(%esp)
 561              		.cfi_def_cfa_offset 144
 562 0166 E8FCFFFF 		call	chprintf@PLT
 562      FF
 563              	.LVL40:
 564              		.loc 1 134 13 view .LVU91
 565 016b 83C414   		addl	$20, %esp
 566              		.cfi_def_cfa_offset 124
 567 016e 56       		pushl	%esi
 568              		.cfi_def_cfa_offset 128
 569 016f E8FCFFFF 		call	chMtxUnlock@PLT
 569      FF
 570              	.LVL41:
 571              		.loc 1 136 13 view .LVU92
GAS LISTING /tmp/cckYWR0Z.s 			page 13


 572              	.LBB27:
 573              	.LBI27:
 574              		.loc 2 233 20 view .LVU93
 575              	.LBB28:
 576              		.loc 2 235 3 view .LVU94
 577 0174 58       		popl	%eax
 578              		.cfi_def_cfa_offset 124
 579 0175 5A       		popl	%edx
 580              		.cfi_def_cfa_offset 120
 581 0176 6A00     		pushl	$0
 582              		.cfi_def_cfa_offset 124
 583 0178 FF742428 		pushl	40(%esp)
 584              		.cfi_def_cfa_offset 128
 585 017c E8FCFFFF 		call	chEvtBroadcastFlags@PLT
 585      FF
 586              	.LVL42:
 587              		.loc 2 235 3 is_stmt 0 view .LVU95
 588              	.LBE28:
 589              	.LBE27:
 590              		.loc 1 137 13 is_stmt 1 view .LVU96
 591 0181 59       		popl	%ecx
 592              		.cfi_def_cfa_offset 124
 593 0182 FF742418 		pushl	24(%esp)
 594              		.cfi_def_cfa_offset 128
 595 0186 E8FCFFFF 		call	chMtxUnlock@PLT
 595      FF
 596              	.LVL43:
 597 018b 83C410   		addl	$16, %esp
 598              		.cfi_def_cfa_offset 112
 599 018e E93BFFFF 		jmp	.L19
 599      FF
 600              	.LVL44:
 601              		.p2align 4,,10
 602 0193 8D742600 		.p2align 3
 602      90
 603              	.L29:
 604              		.loc 1 104 13 view .LVU97
 605 0198 83EC0C   		subl	$12, %esp
 606              		.cfi_def_cfa_offset 124
 607 019b FF742420 		pushl	32(%esp)
 608              		.cfi_def_cfa_offset 128
 609 019f E8FCFFFF 		call	chMtxLock@PLT
 609      FF
 610              	.LVL45:
 611              		.loc 1 105 13 view .LVU98
 612              		.loc 1 105 31 is_stmt 0 view .LVU99
 613 01a4 8B8B0000 		movl	buffer1_count@GOTOFF(%ebx), %ecx
 613      0000
 614              		.loc 1 105 16 view .LVU100
 615 01aa 83C410   		addl	$16, %esp
 616              		.cfi_def_cfa_offset 112
 617 01ad 85C9     		testl	%ecx, %ecx
 618 01af 7517     		jne	.L31
 619              	.L17:
 620              		.loc 1 114 13 is_stmt 1 view .LVU101
 621 01b1 83EC0C   		subl	$12, %esp
 622              		.cfi_def_cfa_offset 124
GAS LISTING /tmp/cckYWR0Z.s 			page 14


 623 01b4 FF742420 		pushl	32(%esp)
 624              		.cfi_def_cfa_offset 128
 625 01b8 E8FCFFFF 		call	chMtxUnlock@PLT
 625      FF
 626              	.LVL46:
 627 01bd 83C410   		addl	$16, %esp
 628              		.cfi_def_cfa_offset 112
 629 01c0 E930FFFF 		jmp	.L16
 629      FF
 630              		.p2align 4,,10
 631 01c5 8D7600   		.p2align 3
 632              	.L31:
 633              	.LBB29:
 634              		.loc 1 106 17 view .LVU102
 635              		.loc 1 106 21 is_stmt 0 view .LVU103
 636 01c8 8B44242C 		movl	44(%esp), %eax
 637              		.loc 1 106 34 view .LVU104
 638 01cc 8BBB0000 		movl	buffer1_tail@GOTOFF(%ebx), %edi
 638      0000
 639              		.loc 1 110 17 view .LVU105
 640 01d2 83EC0C   		subl	$12, %esp
 641              		.cfi_def_cfa_offset 124
 642              		.loc 1 108 30 view .LVU106
 643 01d5 83E901   		subl	$1, %ecx
 644 01d8 898B0000 		movl	%ecx, buffer1_count@GOTOFF(%ebx)
 644      0000
 645              		.loc 1 106 21 view .LVU107
 646 01de 8B2CB8   		movl	(%eax,%edi,4), %ebp
 647              	.LVL47:
 648              		.loc 1 107 17 is_stmt 1 view .LVU108
 649              		.loc 1 107 46 is_stmt 0 view .LVU109
 650 01e1 83C701   		addl	$1, %edi
 651              		.loc 1 107 51 view .LVU110
 652 01e4 B8CDCCCC 		movl	$-858993459, %eax
 652      CC
 653              		.loc 1 110 17 view .LVU111
 654 01e9 56       		pushl	%esi
 655              		.cfi_def_cfa_offset 128
 656              		.loc 1 107 51 view .LVU112
 657 01ea F7E7     		mull	%edi
 658 01ec C1EA03   		shrl	$3, %edx
 659 01ef 8D0492   		leal	(%edx,%edx,4), %eax
 660 01f2 01C0     		addl	%eax, %eax
 661 01f4 29C7     		subl	%eax, %edi
 662 01f6 89BB0000 		movl	%edi, buffer1_tail@GOTOFF(%ebx)
 662      0000
 663              		.loc 1 108 17 is_stmt 1 view .LVU113
 664              		.loc 1 110 17 view .LVU114
 665 01fc E8FCFFFF 		call	chMtxLock@PLT
 665      FF
 666              	.LVL48:
 667              		.loc 1 111 17 view .LVU115
 668 0201 FFB30000 		pushl	buffer1_count@GOTOFF(%ebx)
 668      0000
 669              		.cfi_def_cfa_offset 132
 670 0207 55       		pushl	%ebp
 671              		.cfi_def_cfa_offset 136
GAS LISTING /tmp/cckYWR0Z.s 			page 15


 672 0208 FF742440 		pushl	64(%esp)
 673              		.cfi_def_cfa_offset 140
 674 020c FF74242C 		pushl	44(%esp)
 675              		.cfi_def_cfa_offset 144
 676 0210 E8FCFFFF 		call	chprintf@PLT
 676      FF
 677              	.LVL49:
 678              		.loc 1 112 17 view .LVU116
 679 0215 83C414   		addl	$20, %esp
 680              		.cfi_def_cfa_offset 124
 681 0218 56       		pushl	%esi
 682              		.cfi_def_cfa_offset 128
 683 0219 E8FCFFFF 		call	chMtxUnlock@PLT
 683      FF
 684              	.LVL50:
 685 021e 83C410   		addl	$16, %esp
 686              		.cfi_def_cfa_offset 112
 687 0221 EB8E     		jmp	.L17
 688              	.LBE29:
 689              	.LBE30:
 690              		.cfi_endproc
 691              	.LFE300:
 692              		.size	Task2, .-Task2
 693              		.section	.rodata.Task1.str1.4,"aMS",@progbits,1
 694              		.align 4
 695              	.LC12:
 696 0000 5B544153 		.string	"[TASK1] Buffer1 full, skipping write\r\n"
 696      4B315D20 
 696      42756666 
 696      65723120 
 696      66756C6C 
 697 0027 00       		.align 4
 698              	.LC13:
 699 0028 5B544153 		.string	"[TASK1] Added to buffer1: %3d (count: %2u/10)\r\n"
 699      4B315D20 
 699      41646465 
 699      6420746F 
 699      20627566 
 700              		.align 4
 701              	.LC14:
 702 0058 5B544153 		.string	"[TASK1] Read from buffer2: %3d (count: %2u/10)\r\n"
 702      4B315D20 
 702      52656164 
 702      2066726F 
 702      6D206275 
 703              		.section	.text.Task1,"ax",@progbits
 704              		.p2align 4
 705              		.type	Task1, @function
 706              	Task1:
 707              	.LVL51:
 708              	.LFB299:
 709              		.loc 1 44 33 view -0
 710              		.cfi_startproc
 711              		.loc 1 44 33 is_stmt 0 view .LVU118
 712 0000 55       		pushl	%ebp
 713              		.cfi_def_cfa_offset 8
 714              		.cfi_offset 5, -8
GAS LISTING /tmp/cckYWR0Z.s 			page 16


 715 0001 57       		pushl	%edi
 716              		.cfi_def_cfa_offset 12
 717              		.cfi_offset 7, -12
 718 0002 56       		pushl	%esi
 719              		.cfi_def_cfa_offset 16
 720              		.cfi_offset 6, -16
 721 0003 53       		pushl	%ebx
 722              		.cfi_def_cfa_offset 20
 723              		.cfi_offset 3, -20
 724 0004 E8FCFFFF 		call	__x86.get_pc_thunk.bx
 724      FF
 725 0009 81C30200 		addl	$_GLOBAL_OFFSET_TABLE_, %ebx
 725      0000
 726 000f 83EC5C   		subl	$92, %esp
 727              		.cfi_def_cfa_offset 112
 728              		.loc 1 44 33 view .LVU119
 729 0012 65A11400 		movl	%gs:20, %eax
 729      0000
 730 0018 8944244C 		movl	%eax, 76(%esp)
 731 001c 31C0     		xorl	%eax, %eax
 732              		.loc 1 45 5 is_stmt 1 view .LVU120
 733              		.loc 1 46 5 view .LVU121
 734              		.loc 1 47 5 view .LVU122
 735              	.LVL52:
 736              	.LBB31:
 737              	.LBI31:
 738              		.loc 2 205 20 view .LVU123
 739              	.LBB32:
 740              		.loc 2 209 3 view .LVU124
 741              	.LBB33:
 742              	.LBI33:
 743              		.loc 2 185 20 view .LVU125
 744              	.LBB34:
 745              		.loc 2 189 3 view .LVU126
 746 001e 6AFF     		pushl	$-1
 747              		.cfi_def_cfa_offset 116
 748 0020 6A01     		pushl	$1
 749              		.cfi_def_cfa_offset 120
 750 0022 8DB30000 		leal	print_mutex@GOTOFF(%ebx), %esi
 750      0000
 751 0028 8D442440 		leal	64(%esp), %eax
 752              	.LVL53:
 753              		.loc 2 189 3 is_stmt 0 view .LVU127
 754 002c 50       		pushl	%eax
 755              		.cfi_def_cfa_offset 124
 756 002d 8D830000 		leal	buffer2_event@GOTOFF(%ebx), %eax
 756      0000
 757              	.LVL54:
 758              		.loc 2 189 3 view .LVU128
 759 0033 50       		pushl	%eax
 760              		.cfi_def_cfa_offset 128
 761 0034 E8FCFFFF 		call	chEvtRegisterMaskWithFlags@PLT
 761      FF
 762              	.LVL55:
 763              		.loc 2 189 3 view .LVU129
 764              	.LBE34:
 765              	.LBE33:
GAS LISTING /tmp/cckYWR0Z.s 			page 17


 766              		.loc 2 210 1 view .LVU130
 767 0039 83C410   		addl	$16, %esp
 768              		.cfi_def_cfa_offset 112
 769 003c 8D830000 		leal	buffer1_mutex@GOTOFF(%ebx), %eax
 769      0000
 770 0042 8944240C 		movl	%eax, 12(%esp)
 771 0046 8D830000 		leal	.LC12@GOTOFF(%ebx), %eax
 771      0000
 772 004c 89442424 		movl	%eax, 36(%esp)
 773 0050 8B830000 		movl	SD1@GOT(%ebx), %eax
 773      0000
 774 0056 89442414 		movl	%eax, 20(%esp)
 775 005a 8D830000 		leal	buffer1@GOTOFF(%ebx), %eax
 775      0000
 776 0060 8944241C 		movl	%eax, 28(%esp)
 777 0064 8D830000 		leal	.LC13@GOTOFF(%ebx), %eax
 777      0000
 778 006a 89442420 		movl	%eax, 32(%esp)
 779 006e 8D830000 		leal	buffer1_event@GOTOFF(%ebx), %eax
 779      0000
 780 0074 89442418 		movl	%eax, 24(%esp)
 781 0078 8D830000 		leal	buffer2_mutex@GOTOFF(%ebx), %eax
 781      0000
 782 007e 89442410 		movl	%eax, 16(%esp)
 783 0082 8D830000 		leal	buffer2@GOTOFF(%ebx), %eax
 783      0000
 784 0088 89442428 		movl	%eax, 40(%esp)
 785 008c 8D830000 		leal	.LC14@GOTOFF(%ebx), %eax
 785      0000
 786 0092 8944242C 		movl	%eax, 44(%esp)
 787 0096 E9C40000 		jmp	.L37
 787      00
 788              	.LVL56:
 789 009b 8D742600 		.p2align 4,,10
 789      90
 790              		.p2align 3
 791              	.L33:
 792              		.loc 2 210 1 view .LVU131
 793              	.LBE32:
 794              	.LBE31:
 795              	.LBB35:
 796              		.loc 1 61 13 is_stmt 1 view .LVU132
 797              		.loc 1 61 35 is_stmt 0 view .LVU133
 798 00a0 8B44241C 		movl	28(%esp), %eax
 799              		.loc 1 61 20 view .LVU134
 800 00a4 8B8B0000 		movl	buffer1_head@GOTOFF(%ebx), %ecx
 800      0000
 801              		.loc 1 65 13 view .LVU135
 802 00aa 83EC0C   		subl	$12, %esp
 803              		.cfi_def_cfa_offset 124
 804              		.loc 1 63 26 view .LVU136
 805 00ad 83C701   		addl	$1, %edi
 806 00b0 89BB0000 		movl	%edi, buffer1_count@GOTOFF(%ebx)
 806      0000
 807              		.loc 1 61 35 view .LVU137
 808 00b6 892C88   		movl	%ebp, (%eax,%ecx,4)
 809              		.loc 1 62 13 is_stmt 1 view .LVU138
GAS LISTING /tmp/cckYWR0Z.s 			page 18


 810              		.loc 1 62 42 is_stmt 0 view .LVU139
 811 00b9 83C101   		addl	$1, %ecx
 812              		.loc 1 62 47 view .LVU140
 813 00bc B8CDCCCC 		movl	$-858993459, %eax
 813      CC
 814 00c1 F7E1     		mull	%ecx
 815              		.loc 1 65 13 view .LVU141
 816 00c3 56       		pushl	%esi
 817              		.cfi_def_cfa_offset 128
 818              		.loc 1 62 47 view .LVU142
 819 00c4 C1EA03   		shrl	$3, %edx
 820 00c7 8D0492   		leal	(%edx,%edx,4), %eax
 821 00ca 01C0     		addl	%eax, %eax
 822 00cc 29C1     		subl	%eax, %ecx
 823 00ce 898B0000 		movl	%ecx, buffer1_head@GOTOFF(%ebx)
 823      0000
 824              		.loc 1 63 13 is_stmt 1 view .LVU143
 825              		.loc 1 65 13 view .LVU144
 826 00d4 E8FCFFFF 		call	chMtxLock@PLT
 826      FF
 827              	.LVL57:
 828              		.loc 1 66 13 view .LVU145
 829 00d9 FFB30000 		pushl	buffer1_count@GOTOFF(%ebx)
 829      0000
 830              		.cfi_def_cfa_offset 132
 831 00df 55       		pushl	%ebp
 832              		.cfi_def_cfa_offset 136
 833 00e0 FF742438 		pushl	56(%esp)
 834              		.cfi_def_cfa_offset 140
 835 00e4 FF742430 		pushl	48(%esp)
 836              		.cfi_def_cfa_offset 144
 837 00e8 E8FCFFFF 		call	chprintf@PLT
 837      FF
 838              	.LVL58:
 839              		.loc 1 67 13 view .LVU146
 840 00ed 83C414   		addl	$20, %esp
 841              		.cfi_def_cfa_offset 124
 842 00f0 56       		pushl	%esi
 843              		.cfi_def_cfa_offset 128
 844 00f1 E8FCFFFF 		call	chMtxUnlock@PLT
 844      FF
 845              	.LVL59:
 846              		.loc 1 69 13 view .LVU147
 847              	.LBB36:
 848              	.LBI36:
 849              		.loc 2 233 20 view .LVU148
 850              	.LBB37:
 851              		.loc 2 235 3 view .LVU149
 852 00f6 58       		popl	%eax
 853              		.cfi_def_cfa_offset 124
 854 00f7 5A       		popl	%edx
 855              		.cfi_def_cfa_offset 120
 856 00f8 6A00     		pushl	$0
 857              		.cfi_def_cfa_offset 124
 858 00fa FF742424 		pushl	36(%esp)
 859              		.cfi_def_cfa_offset 128
 860 00fe E8FCFFFF 		call	chEvtBroadcastFlags@PLT
GAS LISTING /tmp/cckYWR0Z.s 			page 19


 860      FF
 861              	.LVL60:
 862              		.loc 2 235 3 is_stmt 0 view .LVU150
 863              	.LBE37:
 864              	.LBE36:
 865              		.loc 1 70 13 is_stmt 1 view .LVU151
 866 0103 59       		popl	%ecx
 867              		.cfi_def_cfa_offset 124
 868 0104 FF742418 		pushl	24(%esp)
 869              		.cfi_def_cfa_offset 128
 870 0108 E8FCFFFF 		call	chMtxUnlock@PLT
 870      FF
 871              	.LVL61:
 872 010d 83C410   		addl	$16, %esp
 873              		.cfi_def_cfa_offset 112
 874              	.LVL62:
 875              	.L34:
 876              		.loc 1 74 9 view .LVU152
 877              		.loc 1 74 27 is_stmt 0 view .LVU153
 878 0110 83EC08   		subl	$8, %esp
 879              		.cfi_def_cfa_offset 120
 880 0113 6A0A     		pushl	$10
 881              		.cfi_def_cfa_offset 124
 882 0115 6A01     		pushl	$1
 883              		.cfi_def_cfa_offset 128
 884 0117 E8FCFFFF 		call	chEvtWaitOneTimeout@PLT
 884      FF
 885              	.LVL63:
 886              		.loc 1 75 9 is_stmt 1 view .LVU154
 887              		.loc 1 75 12 is_stmt 0 view .LVU155
 888 011c 83C410   		addl	$16, %esp
 889              		.cfi_def_cfa_offset 112
 890 011f 85C0     		testl	%eax, %eax
 891 0121 742C     		je	.L35
 892              		.loc 1 76 13 is_stmt 1 view .LVU156
 893 0123 83EC0C   		subl	$12, %esp
 894              		.cfi_def_cfa_offset 124
 895 0126 FF74241C 		pushl	28(%esp)
 896              		.cfi_def_cfa_offset 128
 897 012a E8FCFFFF 		call	chMtxLock@PLT
 897      FF
 898              	.LVL64:
 899              		.loc 1 77 13 view .LVU157
 900              		.loc 1 77 31 is_stmt 0 view .LVU158
 901 012f 8B8B0000 		movl	buffer2_count@GOTOFF(%ebx), %ecx
 901      0000
 902              		.loc 1 77 16 view .LVU159
 903 0135 83C410   		addl	$16, %esp
 904              		.cfi_def_cfa_offset 112
 905 0138 85C9     		testl	%ecx, %ecx
 906 013a 0F858000 		jne	.L46
 906      0000
 907              	.L36:
 908              		.loc 1 86 13 is_stmt 1 view .LVU160
 909 0140 83EC0C   		subl	$12, %esp
 910              		.cfi_def_cfa_offset 124
 911 0143 FF74241C 		pushl	28(%esp)
GAS LISTING /tmp/cckYWR0Z.s 			page 20


 912              		.cfi_def_cfa_offset 128
 913 0147 E8FCFFFF 		call	chMtxUnlock@PLT
 913      FF
 914              	.LVL65:
 915 014c 83C410   		addl	$16, %esp
 916              		.cfi_def_cfa_offset 112
 917              	.L35:
 918              		.loc 1 89 9 view .LVU161
 919 014f 83EC0C   		subl	$12, %esp
 920              		.cfi_def_cfa_offset 124
 921 0152 68C80000 		pushl	$200
 921      00
 922              		.cfi_def_cfa_offset 128
 923 0157 E8FCFFFF 		call	chThdSleep@PLT
 923      FF
 924              	.LVL66:
 925              	.LBE35:
 926              		.loc 1 49 11 view .LVU162
 927              		.loc 1 49 18 is_stmt 0 view .LVU163
 928 015c 83C410   		addl	$16, %esp
 929              		.cfi_def_cfa_offset 112
 930              	.L37:
 931              		.loc 1 49 5 is_stmt 1 view .LVU164
 932              	.LBB39:
 933              		.loc 1 51 9 view .LVU165
 934              		.loc 1 53 9 is_stmt 0 view .LVU166
 935 015f 83EC0C   		subl	$12, %esp
 936              		.cfi_def_cfa_offset 124
 937              		.loc 1 51 33 view .LVU167
 938 0162 8BAB0000 		movl	number_counter@GOTOFF(%ebx), %ebp
 938      0000
 939              		.loc 1 53 9 view .LVU168
 940 0168 FF742418 		pushl	24(%esp)
 941              		.cfi_def_cfa_offset 128
 942              		.loc 1 51 33 view .LVU169
 943 016c 8D4501   		leal	1(%ebp), %eax
 944 016f 89830000 		movl	%eax, number_counter@GOTOFF(%ebx)
 944      0000
 945              	.LVL67:
 946              		.loc 1 53 9 is_stmt 1 view .LVU170
 947 0175 E8FCFFFF 		call	chMtxLock@PLT
 947      FF
 948              	.LVL68:
 949              		.loc 1 54 9 view .LVU171
 950              		.loc 1 54 27 is_stmt 0 view .LVU172
 951 017a 8BBB0000 		movl	buffer1_count@GOTOFF(%ebx), %edi
 951      0000
 952              		.loc 1 54 12 view .LVU173
 953 0180 83C410   		addl	$16, %esp
 954              		.cfi_def_cfa_offset 112
 955 0183 83FF0A   		cmpl	$10, %edi
 956 0186 0F8514FF 		jne	.L33
 956      FFFF
 957              		.loc 1 55 13 is_stmt 1 view .LVU174
 958 018c 83EC0C   		subl	$12, %esp
 959              		.cfi_def_cfa_offset 124
 960 018f FF742418 		pushl	24(%esp)
GAS LISTING /tmp/cckYWR0Z.s 			page 21


 961              		.cfi_def_cfa_offset 128
 962 0193 E8FCFFFF 		call	chMtxUnlock@PLT
 962      FF
 963              	.LVL69:
 964              		.loc 1 57 13 view .LVU175
 965 0198 893424   		movl	%esi, (%esp)
 966 019b E8FCFFFF 		call	chMtxLock@PLT
 966      FF
 967              	.LVL70:
 968              		.loc 1 58 13 view .LVU176
 969 01a0 5F       		popl	%edi
 970              		.cfi_def_cfa_offset 124
 971 01a1 5D       		popl	%ebp
 972              		.cfi_def_cfa_offset 120
 973              	.LVL71:
 974              		.loc 1 58 13 is_stmt 0 view .LVU177
 975 01a2 FF74242C 		pushl	44(%esp)
 976              		.cfi_def_cfa_offset 124
 977 01a6 FF742420 		pushl	32(%esp)
 978              		.cfi_def_cfa_offset 128
 979 01aa E8FCFFFF 		call	chprintf@PLT
 979      FF
 980              	.LVL72:
 981              		.loc 1 59 13 is_stmt 1 view .LVU178
 982 01af 893424   		movl	%esi, (%esp)
 983 01b2 E8FCFFFF 		call	chMtxUnlock@PLT
 983      FF
 984              	.LVL73:
 985 01b7 83C410   		addl	$16, %esp
 986              		.cfi_def_cfa_offset 112
 987 01ba E951FFFF 		jmp	.L34
 987      FF
 988 01bf 90       		.p2align 4,,10
 989              		.p2align 3
 990              	.L46:
 991              	.LBB38:
 992              		.loc 1 78 17 view .LVU179
 993              		.loc 1 78 21 is_stmt 0 view .LVU180
 994 01c0 8B442428 		movl	40(%esp), %eax
 995              		.loc 1 78 34 view .LVU181
 996 01c4 8BBB0000 		movl	buffer2_tail@GOTOFF(%ebx), %edi
 996      0000
 997              		.loc 1 82 17 view .LVU182
 998 01ca 83EC0C   		subl	$12, %esp
 999              		.cfi_def_cfa_offset 124
 1000              		.loc 1 80 30 view .LVU183
 1001 01cd 83E901   		subl	$1, %ecx
 1002 01d0 898B0000 		movl	%ecx, buffer2_count@GOTOFF(%ebx)
 1002      0000
 1003              		.loc 1 78 21 view .LVU184
 1004 01d6 8B2CB8   		movl	(%eax,%edi,4), %ebp
 1005              	.LVL74:
 1006              		.loc 1 79 17 is_stmt 1 view .LVU185
 1007              		.loc 1 79 46 is_stmt 0 view .LVU186
 1008 01d9 83C701   		addl	$1, %edi
 1009              		.loc 1 79 51 view .LVU187
 1010 01dc B8CDCCCC 		movl	$-858993459, %eax
GAS LISTING /tmp/cckYWR0Z.s 			page 22


 1010      CC
 1011              		.loc 1 82 17 view .LVU188
 1012 01e1 56       		pushl	%esi
 1013              		.cfi_def_cfa_offset 128
 1014              		.loc 1 79 51 view .LVU189
 1015 01e2 F7E7     		mull	%edi
 1016 01e4 C1EA03   		shrl	$3, %edx
 1017 01e7 8D0492   		leal	(%edx,%edx,4), %eax
 1018 01ea 01C0     		addl	%eax, %eax
 1019 01ec 29C7     		subl	%eax, %edi
 1020 01ee 89BB0000 		movl	%edi, buffer2_tail@GOTOFF(%ebx)
 1020      0000
 1021              		.loc 1 80 17 is_stmt 1 view .LVU190
 1022              		.loc 1 82 17 view .LVU191
 1023 01f4 E8FCFFFF 		call	chMtxLock@PLT
 1023      FF
 1024              	.LVL75:
 1025              		.loc 1 83 17 view .LVU192
 1026 01f9 FFB30000 		pushl	buffer2_count@GOTOFF(%ebx)
 1026      0000
 1027              		.cfi_def_cfa_offset 132
 1028 01ff 55       		pushl	%ebp
 1029              		.cfi_def_cfa_offset 136
 1030 0200 FF742444 		pushl	68(%esp)
 1031              		.cfi_def_cfa_offset 140
 1032 0204 FF742430 		pushl	48(%esp)
 1033              		.cfi_def_cfa_offset 144
 1034 0208 E8FCFFFF 		call	chprintf@PLT
 1034      FF
 1035              	.LVL76:
 1036              		.loc 1 84 17 view .LVU193
 1037 020d 83C414   		addl	$20, %esp
 1038              		.cfi_def_cfa_offset 124
 1039 0210 56       		pushl	%esi
 1040              		.cfi_def_cfa_offset 128
 1041 0211 E8FCFFFF 		call	chMtxUnlock@PLT
 1041      FF
 1042              	.LVL77:
 1043 0216 83C410   		addl	$16, %esp
 1044              		.cfi_def_cfa_offset 112
 1045 0219 E922FFFF 		jmp	.L36
 1045      FF
 1046              	.LBE38:
 1047              	.LBE39:
 1048              		.cfi_endproc
 1049              	.LFE299:
 1050              		.size	Task1, .-Task1
 1051              		.section	.rodata.main.str1.4,"aMS",@progbits,1
 1052              		.align 4
 1053              	.LC15:
 1054 0000 0D0A3D3D 		.string	"\r\n=== Dual Ring Buffer Demo ===\r\n"
 1054      3D204475 
 1054      616C2052 
 1054      696E6720 
 1054      42756666 
 1055 0022 0000     		.align 4
 1056              	.LC16:
GAS LISTING /tmp/cckYWR0Z.s 			page 23


 1057 0024 5461736B 		.string	"Task1 speed: %u ms (writes to buffer1, reads from buffer2)\r\n"
 1057      31207370 
 1057      6565643A 
 1057      20257520 
 1057      6D732028 
 1058 0061 000000   		.align 4
 1059              	.LC17:
 1060 0064 5461736B 		.string	"Task2 speed: %u ms (reads from buffer1, writes to buffer2)\r\n"
 1060      32207370 
 1060      6565643A 
 1060      20257520 
 1060      6D732028 
 1061              		.section	.rodata.main.str1.1,"aMS",@progbits,1
 1062              	.LC18:
 1063 0000 4D6F6E69 		.string	"Monitor speed: %u ms\r\n"
 1063      746F7220 
 1063      73706565 
 1063      643A2025 
 1063      75206D73 
 1064              		.section	.rodata.main.str1.4
 1065 00a1 000000   		.align 4
 1066              	.LC19:
 1067 00a4 42756666 		.string	"Buffer size: %d items each\r\n\r\n"
 1067      65722073 
 1067      697A653A 
 1067      20256420 
 1067      6974656D 
 1068              		.section	.text.startup.main,"ax",@progbits
 1069              		.p2align 4
 1070              		.globl	main
 1071              		.type	main, @function
 1072              	main:
 1073              	.LFB303:
 1074              		.loc 1 187 16 view -0
 1075              		.cfi_startproc
 1076              		.loc 1 188 5 view .LVU195
 1077              		.loc 1 187 16 is_stmt 0 view .LVU196
 1078 0000 8D4C2404 		leal	4(%esp), %ecx
 1079              		.cfi_def_cfa 1, 0
 1080 0004 83E4F0   		andl	$-16, %esp
 1081 0007 FF71FC   		pushl	-4(%ecx)
 1082 000a 55       		pushl	%ebp
 1083 000b 89E5     		movl	%esp, %ebp
 1084              		.cfi_escape 0x10,0x5,0x2,0x75,0
 1085 000d 57       		pushl	%edi
 1086 000e 56       		pushl	%esi
 1087 000f 53       		pushl	%ebx
 1088              		.cfi_escape 0x10,0x7,0x2,0x75,0x7c
 1089              		.cfi_escape 0x10,0x6,0x2,0x75,0x78
 1090              		.cfi_escape 0x10,0x3,0x2,0x75,0x74
 1091 0010 E8FCFFFF 		call	__x86.get_pc_thunk.bx
 1091      FF
 1092 0015 81C30200 		addl	$_GLOBAL_OFFSET_TABLE_, %ebx
 1092      0000
 1093 001b 51       		pushl	%ecx
 1094              		.cfi_escape 0xf,0x3,0x75,0x70,0x6
 1095 001c 83EC08   		subl	$8, %esp
GAS LISTING /tmp/cckYWR0Z.s 			page 24


 1096              		.loc 1 188 5 view .LVU197
 1097 001f E8FCFFFF 		call	halInit@PLT
 1097      FF
 1098              	.LVL78:
 1099              		.loc 1 189 5 is_stmt 1 view .LVU198
 1100              		.loc 1 195 5 is_stmt 0 view .LVU199
 1101 0024 8DBB0000 		leal	print_mutex@GOTOFF(%ebx), %edi
 1101      0000
 1102              		.loc 1 189 5 view .LVU200
 1103 002a E8FCFFFF 		call	chSysInit@PLT
 1103      FF
 1104              	.LVL79:
 1105              		.loc 1 190 5 is_stmt 1 view .LVU201
 1106 002f 8BB30000 		movl	SD1@GOT(%ebx), %esi
 1106      0000
 1107 0035 83EC08   		subl	$8, %esp
 1108 0038 6A00     		pushl	$0
 1109 003a 56       		pushl	%esi
 1110 003b E8FCFFFF 		call	sdStart@PLT
 1110      FF
 1111              	.LVL80:
 1112              		.loc 1 193 5 view .LVU202
 1113 0040 8D830000 		leal	buffer1_mutex@GOTOFF(%ebx), %eax
 1113      0000
 1114 0046 890424   		movl	%eax, (%esp)
 1115 0049 E8FCFFFF 		call	chMtxObjectInit@PLT
 1115      FF
 1116              	.LVL81:
 1117              		.loc 1 194 5 view .LVU203
 1118 004e 8D830000 		leal	buffer2_mutex@GOTOFF(%ebx), %eax
 1118      0000
 1119 0054 890424   		movl	%eax, (%esp)
 1120 0057 E8FCFFFF 		call	chMtxObjectInit@PLT
 1120      FF
 1121              	.LVL82:
 1122              		.loc 1 195 5 view .LVU204
 1123 005c 893C24   		movl	%edi, (%esp)
 1124 005f E8FCFFFF 		call	chMtxObjectInit@PLT
 1124      FF
 1125              	.LVL83:
 1126              		.loc 1 198 5 view .LVU205
 1127 0064 8D830000 		leal	buffer1_event@GOTOFF(%ebx), %eax
 1127      0000
 1128 006a 890424   		movl	%eax, (%esp)
 1129 006d E8FCFFFF 		call	chEvtObjectInit@PLT
 1129      FF
 1130              	.LVL84:
 1131              		.loc 1 199 5 view .LVU206
 1132 0072 8D830000 		leal	buffer2_event@GOTOFF(%ebx), %eax
 1132      0000
 1133 0078 890424   		movl	%eax, (%esp)
 1134 007b E8FCFFFF 		call	chEvtObjectInit@PLT
 1134      FF
 1135              	.LVL85:
 1136              		.loc 1 202 5 view .LVU207
 1137 0080 8D830000 		leal	Task1@GOTOFF(%ebx), %eax
 1137      0000
GAS LISTING /tmp/cckYWR0Z.s 			page 25


 1138 0086 C7042400 		movl	$0, (%esp)
 1138      000000
 1139 008d 50       		pushl	%eax
 1140 008e 8D830000 		leal	waTask1@GOTOFF(%ebx), %eax
 1140      0000
 1141 0094 68800000 		pushl	$128
 1141      00
 1142 0099 68804100 		pushl	$16768
 1142      00
 1143 009e 50       		pushl	%eax
 1144 009f E8FCFFFF 		call	chThdCreateStatic@PLT
 1144      FF
 1145              	.LVL86:
 1146              		.loc 1 203 5 view .LVU208
 1147 00a4 83C414   		addl	$20, %esp
 1148 00a7 8D830000 		leal	Task2@GOTOFF(%ebx), %eax
 1148      0000
 1149 00ad 6A00     		pushl	$0
 1150 00af 50       		pushl	%eax
 1151 00b0 8D830000 		leal	waTask2@GOTOFF(%ebx), %eax
 1151      0000
 1152 00b6 68800000 		pushl	$128
 1152      00
 1153 00bb 68804100 		pushl	$16768
 1153      00
 1154 00c0 50       		pushl	%eax
 1155 00c1 E8FCFFFF 		call	chThdCreateStatic@PLT
 1155      FF
 1156              	.LVL87:
 1157              		.loc 1 204 5 view .LVU209
 1158 00c6 83C414   		addl	$20, %esp
 1159 00c9 8D830000 		leal	Monitor@GOTOFF(%ebx), %eax
 1159      0000
 1160 00cf 6A00     		pushl	$0
 1161 00d1 50       		pushl	%eax
 1162 00d2 8D830000 		leal	waMonitor@GOTOFF(%ebx), %eax
 1162      0000
 1163 00d8 6A7F     		pushl	$127
 1164 00da 68804100 		pushl	$16768
 1164      00
 1165 00df 50       		pushl	%eax
 1166 00e0 E8FCFFFF 		call	chThdCreateStatic@PLT
 1166      FF
 1167              	.LVL88:
 1168              		.loc 1 207 5 view .LVU210
 1169 00e5 83C414   		addl	$20, %esp
 1170 00e8 57       		pushl	%edi
 1171 00e9 E8FCFFFF 		call	chMtxLock@PLT
 1171      FF
 1172              	.LVL89:
 1173              		.loc 1 208 5 view .LVU211
 1174 00ee 58       		popl	%eax
 1175 00ef 8D830000 		leal	.LC15@GOTOFF(%ebx), %eax
 1175      0000
 1176 00f5 5A       		popl	%edx
 1177 00f6 50       		pushl	%eax
 1178 00f7 56       		pushl	%esi
GAS LISTING /tmp/cckYWR0Z.s 			page 26


 1179 00f8 E8FCFFFF 		call	chprintf@PLT
 1179      FF
 1180              	.LVL90:
 1181              		.loc 1 209 5 view .LVU212
 1182 00fd 83C40C   		addl	$12, %esp
 1183 0100 8D830000 		leal	.LC16@GOTOFF(%ebx), %eax
 1183      0000
 1184 0106 68C80000 		pushl	$200
 1184      00
 1185 010b 50       		pushl	%eax
 1186 010c 56       		pushl	%esi
 1187 010d E8FCFFFF 		call	chprintf@PLT
 1187      FF
 1188              	.LVL91:
 1189              		.loc 1 210 5 view .LVU213
 1190 0112 83C40C   		addl	$12, %esp
 1191 0115 8D830000 		leal	.LC17@GOTOFF(%ebx), %eax
 1191      0000
 1192 011b 682C0100 		pushl	$300
 1192      00
 1193 0120 50       		pushl	%eax
 1194 0121 56       		pushl	%esi
 1195 0122 E8FCFFFF 		call	chprintf@PLT
 1195      FF
 1196              	.LVL92:
 1197              		.loc 1 211 5 view .LVU214
 1198 0127 83C40C   		addl	$12, %esp
 1199 012a 8D830000 		leal	.LC18@GOTOFF(%ebx), %eax
 1199      0000
 1200 0130 6A64     		pushl	$100
 1201 0132 50       		pushl	%eax
 1202 0133 56       		pushl	%esi
 1203 0134 E8FCFFFF 		call	chprintf@PLT
 1203      FF
 1204              	.LVL93:
 1205              		.loc 1 212 5 view .LVU215
 1206 0139 83C40C   		addl	$12, %esp
 1207 013c 8D830000 		leal	.LC19@GOTOFF(%ebx), %eax
 1207      0000
 1208 0142 6A0A     		pushl	$10
 1209 0144 50       		pushl	%eax
 1210 0145 56       		pushl	%esi
 1211 0146 E8FCFFFF 		call	chprintf@PLT
 1211      FF
 1212              	.LVL94:
 1213              		.loc 1 213 5 view .LVU216
 1214 014b 893C24   		movl	%edi, (%esp)
 1215 014e E8FCFFFF 		call	chMtxUnlock@PLT
 1215      FF
 1216              	.LVL95:
 1217 0153 83C410   		addl	$16, %esp
 1218 0156 8DB42600 		.p2align 4,,10
 1218      0000008D 
 1218      7600
 1219              		.p2align 3
 1220              	.L48:
 1221              		.loc 1 215 5 discriminator 1 view .LVU217
GAS LISTING /tmp/cckYWR0Z.s 			page 27


 1222              		.loc 1 216 9 discriminator 1 view .LVU218
 1223 0160 83EC0C   		subl	$12, %esp
 1224 0163 68E80300 		pushl	$1000
 1224      00
 1225 0168 E8FCFFFF 		call	chThdSleep@PLT
 1225      FF
 1226              	.LVL96:
 1227              		.loc 1 215 11 discriminator 1 view .LVU219
 1228              		.loc 1 216 9 is_stmt 0 discriminator 1 view .LVU220
 1229 016d 83C410   		addl	$16, %esp
 1230 0170 EBEE     		jmp	.L48
 1231              		.cfi_endproc
 1232              	.LFE303:
 1233              		.size	main, .-main
 1234              		.section	.bss.waMonitor,"aw",@nobits
 1235              		.align 16
 1236              		.type	waMonitor, @object
 1237              		.size	waMonitor, 16768
 1238              	waMonitor:
 1239 0000 00000000 		.zero	16768
 1239      00000000 
 1239      00000000 
 1239      00000000 
 1239      00000000 
 1240              		.section	.bss.waTask2,"aw",@nobits
 1241              		.align 16
 1242              		.type	waTask2, @object
 1243              		.size	waTask2, 16768
 1244              	waTask2:
 1245 0000 00000000 		.zero	16768
 1245      00000000 
 1245      00000000 
 1245      00000000 
 1245      00000000 
 1246              		.section	.bss.waTask1,"aw",@nobits
 1247              		.align 16
 1248              		.type	waTask1, @object
 1249              		.size	waTask1, 16768
 1250              	waTask1:
 1251 0000 00000000 		.zero	16768
 1251      00000000 
 1251      00000000 
 1251      00000000 
 1251      00000000 
 1252              		.section	.data.number_counter,"aw"
 1253              		.align 4
 1254              		.type	number_counter, @object
 1255              		.size	number_counter, 4
 1256              	number_counter:
 1257 0000 01000000 		.long	1
 1258              		.section	.bss.buffer2_event,"aw",@nobits
 1259              		.align 4
 1260              		.type	buffer2_event, @object
 1261              		.size	buffer2_event, 4
 1262              	buffer2_event:
 1263 0000 00000000 		.zero	4
 1264              		.section	.bss.buffer1_event,"aw",@nobits
GAS LISTING /tmp/cckYWR0Z.s 			page 28


 1265              		.align 4
 1266              		.type	buffer1_event, @object
 1267              		.size	buffer1_event, 4
 1268              	buffer1_event:
 1269 0000 00000000 		.zero	4
 1270              		.section	.bss.print_mutex,"aw",@nobits
 1271              		.align 4
 1272              		.type	print_mutex, @object
 1273              		.size	print_mutex, 16
 1274              	print_mutex:
 1275 0000 00000000 		.zero	16
 1275      00000000 
 1275      00000000 
 1275      00000000 
 1276              		.section	.bss.buffer2_mutex,"aw",@nobits
 1277              		.align 4
 1278              		.type	buffer2_mutex, @object
 1279              		.size	buffer2_mutex, 16
 1280              	buffer2_mutex:
 1281 0000 00000000 		.zero	16
 1281      00000000 
 1281      00000000 
 1281      00000000 
 1282              		.section	.bss.buffer1_mutex,"aw",@nobits
 1283              		.align 4
 1284              		.type	buffer1_mutex, @object
 1285              		.size	buffer1_mutex, 16
 1286              	buffer1_mutex:
 1287 0000 00000000 		.zero	16
 1287      00000000 
 1287      00000000 
 1287      00000000 
 1288              		.section	.bss.buffer2_count,"aw",@nobits
 1289              		.align 4
 1290              		.type	buffer2_count, @object
 1291              		.size	buffer2_count, 4
 1292              	buffer2_count:
 1293 0000 00000000 		.zero	4
 1294              		.section	.bss.buffer2_tail,"aw",@nobits
 1295              		.align 4
 1296              		.type	buffer2_tail, @object
 1297              		.size	buffer2_tail, 4
 1298              	buffer2_tail:
 1299 0000 00000000 		.zero	4
 1300              		.section	.bss.buffer2_head,"aw",@nobits
 1301              		.align 4
 1302              		.type	buffer2_head, @object
 1303              		.size	buffer2_head, 4
 1304              	buffer2_head:
 1305 0000 00000000 		.zero	4
 1306              		.section	.bss.buffer2,"aw",@nobits
 1307              		.align 32
 1308              		.type	buffer2, @object
 1309              		.size	buffer2, 40
 1310              	buffer2:
 1311 0000 00000000 		.zero	40
 1311      00000000 
GAS LISTING /tmp/cckYWR0Z.s 			page 29


 1311      00000000 
 1311      00000000 
 1311      00000000 
 1312              		.section	.bss.buffer1_count,"aw",@nobits
 1313              		.align 4
 1314              		.type	buffer1_count, @object
 1315              		.size	buffer1_count, 4
 1316              	buffer1_count:
 1317 0000 00000000 		.zero	4
 1318              		.section	.bss.buffer1_tail,"aw",@nobits
 1319              		.align 4
 1320              		.type	buffer1_tail, @object
 1321              		.size	buffer1_tail, 4
 1322              	buffer1_tail:
 1323 0000 00000000 		.zero	4
 1324              		.section	.bss.buffer1_head,"aw",@nobits
 1325              		.align 4
 1326              		.type	buffer1_head, @object
 1327              		.size	buffer1_head, 4
 1328              	buffer1_head:
 1329 0000 00000000 		.zero	4
 1330              		.section	.bss.buffer1,"aw",@nobits
 1331              		.align 32
 1332              		.type	buffer1, @object
 1333              		.size	buffer1, 40
 1334              	buffer1:
 1335 0000 00000000 		.zero	40
 1335      00000000 
 1335      00000000 
 1335      00000000 
 1335      00000000 
 1336              		.section	.text.__x86.get_pc_thunk.bx,"axG",@progbits,__x86.get_pc_thunk.bx,comdat
 1337              		.globl	__x86.get_pc_thunk.bx
 1338              		.hidden	__x86.get_pc_thunk.bx
 1339              		.type	__x86.get_pc_thunk.bx, @function
 1340              	__x86.get_pc_thunk.bx:
 1341              	.LFB304:
 1342              		.cfi_startproc
 1343 0000 8B1C24   		movl	(%esp), %ebx
 1344 0003 C3       		ret
 1345              		.cfi_endproc
 1346              	.LFE304:
 1347              		.text
 1348              	.Letext0:
 1349              		.file 3 "/usr/lib/gcc/x86_64-linux-gnu/11/include/stddef.h"
 1350              		.file 4 "/usr/include/bits/types.h"
 1351              		.file 5 "/usr/include/bits/stdint-intn.h"
 1352              		.file 6 "/usr/include/bits/stdint-uintn.h"
 1353              		.file 7 "../../../os/common/ports/SIMIA32/compilers/GCC/chtypes.h"
 1354              		.file 8 "../../../os/rt/include/chearly.h"
 1355              		.file 9 "../../../os/rt/include/chobjects.h"
 1356              		.file 10 "../../../os/rt/include/chrfcu.h"
 1357              		.file 11 "../../../os/rt/include/chdebug.h"
 1358              		.file 12 "../../../os/rt/include/chtime.h"
 1359              		.file 13 "../../../os/rt/include/chlists.h"
 1360              		.file 14 "../../../os/common/ports/SIMIA32/chcore.h"
 1361              		.file 15 "../../../os/rt/include/chsem.h"
GAS LISTING /tmp/cckYWR0Z.s 			page 30


 1362              		.file 16 "../../../os/rt/include/chmtx.h"
 1363              		.file 17 "../../../os/rt/include/chthreads.h"
 1364              		.file 18 "../../../os/hal/include/hal_streams.h"
 1365              		.file 19 "../../../os/hal/include/hal_queues.h"
 1366              		.file 20 "../../../os/hal/include/hal_serial.h"
 1367              		.file 21 "../../../os/hal/ports/simulator/posix/hal_serial_lld.h"
 1368              		.file 22 "../../../os/hal/lib/streams/chprintf.h"
 1369              		.file 23 "../../../os/rt/include/chsys.h"
 1370              		.file 24 "../../../os/hal/include/hal.h"
 5797 0036 2F686F6D 		.section	.note.GNU-stack,"",@progbits
 5797      652F616C 
 5797      65782F43 
 5797      68696269 
 5797      4F532F64 
GAS LISTING /tmp/cckYWR0Z.s 			page 116

