GAS LISTING /tmp/ccZJd5BB.s 			page 1


   1              		.file	"oslib_test_sequence_005.c"
   2              		.text
   3              	.Ltext0:
   4              		.file 0 "/home/alex/ChibiOS/demos/various/LAB3_VARIANT2" "../../../test/oslib/source/test/oslib_te
   5              		.section	.text.dis_func_end,"ax",@progbits
   6              		.p2align 4
   7              		.type	dis_func_end, @function
   8              	dis_func_end:
   9              	.LFB308:
  10              		.file 1 "../../../test/oslib/source/test/oslib_test_sequence_005.c"
  11              		.loc 1 92 31 view -0
  12              		.cfi_startproc
  13              		.loc 1 94 3 view .LVU1
  14              		.loc 1 92 31 is_stmt 0 view .LVU2
  15 0000 53       		pushl	%ebx
  16              		.cfi_def_cfa_offset 8
  17              		.cfi_offset 3, -8
  18 0001 E8FCFFFF 		call	__x86.get_pc_thunk.bx
  18      FF
  19 0006 81C30200 		addl	$_GLOBAL_OFFSET_TABLE_, %ebx
  19      0000
  20 000c 83EC14   		subl	$20, %esp
  21              		.cfi_def_cfa_offset 28
  22              		.loc 1 94 3 view .LVU3
  23 000f 6A5A     		pushl	$90
  24              		.cfi_def_cfa_offset 32
  25 0011 E8FCFFFF 		call	test_emit_token@PLT
  25      FF
  26              	.LVL0:
  27              		.loc 1 95 3 is_stmt 1 view .LVU4
  28              		.loc 1 95 13 is_stmt 0 view .LVU5
  29 0016 C6830000 		movb	$1, exit_flag@GOTOFF(%ebx)
  29      000001
  30              		.loc 1 97 3 is_stmt 1 view .LVU6
  31              		.loc 1 98 1 is_stmt 0 view .LVU7
  32 001d 83C418   		addl	$24, %esp
  33              		.cfi_def_cfa_offset 8
  34 0020 B855AA00 		movl	$43605, %eax
  34      00
  35 0025 5B       		popl	%ebx
  36              		.cfi_restore 3
  37              		.cfi_def_cfa_offset 4
  38 0026 C3       		ret
  39              		.cfi_endproc
  40              	.LFE308:
  41              		.size	dis_func_end, .-dis_func_end
  42              		.section	.text.dis_func4,"ax",@progbits
  43              		.p2align 4
  44              		.type	dis_func4, @function
  45              	dis_func4:
  46              	.LVL1:
  47              	.LFB307:
  48              		.loc 1 82 60 is_stmt 1 view -0
  49              		.cfi_startproc
  50              		.loc 1 84 3 view .LVU9
  51              		.loc 1 82 60 is_stmt 0 view .LVU10
  52 0000 56       		pushl	%esi
GAS LISTING /tmp/ccZJd5BB.s 			page 2


  53              		.cfi_def_cfa_offset 8
  54              		.cfi_offset 6, -8
  55 0001 53       		pushl	%ebx
  56              		.cfi_def_cfa_offset 12
  57              		.cfi_offset 3, -12
  58 0002 E8FCFFFF 		call	__x86.get_pc_thunk.bx
  58      FF
  59 0007 81C30200 		addl	$_GLOBAL_OFFSET_TABLE_, %ebx
  59      0000
  60 000d 83EC10   		subl	$16, %esp
  61              		.cfi_def_cfa_offset 28
  62              		.loc 1 82 60 view .LVU11
  63 0010 8B74241C 		movl	28(%esp), %esi
  64              		.loc 1 84 3 view .LVU12
  65 0014 89F0     		movl	%esi, %eax
  66 0016 0FBEC0   		movsbl	%al, %eax
  67 0019 50       		pushl	%eax
  68              		.cfi_def_cfa_offset 32
  69 001a E8FCFFFF 		call	test_emit_token@PLT
  69      FF
  70              	.LVL2:
  71              		.loc 1 85 3 is_stmt 1 view .LVU13
  72 001f 0FBE4424 		movsbl	36(%esp), %eax
  72      24
  73 0024 890424   		movl	%eax, (%esp)
  74 0027 E8FCFFFF 		call	test_emit_token@PLT
  74      FF
  75              	.LVL3:
  76              		.loc 1 86 3 view .LVU14
  77 002c 0FBE4424 		movsbl	40(%esp), %eax
  77      28
  78 0031 890424   		movl	%eax, (%esp)
  79 0034 E8FCFFFF 		call	test_emit_token@PLT
  79      FF
  80              	.LVL4:
  81              		.loc 1 87 3 view .LVU15
  82 0039 0FBE4424 		movsbl	44(%esp), %eax
  82      2C
  83 003e 890424   		movl	%eax, (%esp)
  84 0041 E8FCFFFF 		call	test_emit_token@PLT
  84      FF
  85              	.LVL5:
  86              		.loc 1 89 3 view .LVU16
  87              		.loc 1 90 1 is_stmt 0 view .LVU17
  88 0046 83C414   		addl	$20, %esp
  89              		.cfi_def_cfa_offset 12
  90 0049 89F0     		movl	%esi, %eax
  91 004b 5B       		popl	%ebx
  92              		.cfi_restore 3
  93              		.cfi_def_cfa_offset 8
  94 004c 5E       		popl	%esi
  95              		.cfi_restore 6
  96              		.cfi_def_cfa_offset 4
  97 004d C3       		ret
  98              		.cfi_endproc
  99              	.LFE307:
 100              		.size	dis_func4, .-dis_func4
GAS LISTING /tmp/ccZJd5BB.s 			page 3


 101              		.section	.text.dis_func3,"ax",@progbits
 102              		.p2align 4
 103              		.type	dis_func3, @function
 104              	dis_func3:
 105              	.LVL6:
 106              	.LFB306:
 107              		.loc 1 73 51 is_stmt 1 view -0
 108              		.cfi_startproc
 109              		.loc 1 75 3 view .LVU19
 110              		.loc 1 73 51 is_stmt 0 view .LVU20
 111 0000 56       		pushl	%esi
 112              		.cfi_def_cfa_offset 8
 113              		.cfi_offset 6, -8
 114 0001 53       		pushl	%ebx
 115              		.cfi_def_cfa_offset 12
 116              		.cfi_offset 3, -12
 117 0002 E8FCFFFF 		call	__x86.get_pc_thunk.bx
 117      FF
 118 0007 81C30200 		addl	$_GLOBAL_OFFSET_TABLE_, %ebx
 118      0000
 119 000d 83EC10   		subl	$16, %esp
 120              		.cfi_def_cfa_offset 28
 121              		.loc 1 73 51 view .LVU21
 122 0010 8B74241C 		movl	28(%esp), %esi
 123              		.loc 1 75 3 view .LVU22
 124 0014 89F0     		movl	%esi, %eax
 125 0016 0FBEC0   		movsbl	%al, %eax
 126 0019 50       		pushl	%eax
 127              		.cfi_def_cfa_offset 32
 128 001a E8FCFFFF 		call	test_emit_token@PLT
 128      FF
 129              	.LVL7:
 130              		.loc 1 76 3 is_stmt 1 view .LVU23
 131 001f 0FBE4424 		movsbl	36(%esp), %eax
 131      24
 132 0024 890424   		movl	%eax, (%esp)
 133 0027 E8FCFFFF 		call	test_emit_token@PLT
 133      FF
 134              	.LVL8:
 135              		.loc 1 77 3 view .LVU24
 136 002c 0FBE4424 		movsbl	40(%esp), %eax
 136      28
 137 0031 890424   		movl	%eax, (%esp)
 138 0034 E8FCFFFF 		call	test_emit_token@PLT
 138      FF
 139              	.LVL9:
 140              		.loc 1 79 3 view .LVU25
 141              		.loc 1 80 1 is_stmt 0 view .LVU26
 142 0039 83C414   		addl	$20, %esp
 143              		.cfi_def_cfa_offset 12
 144 003c 89F0     		movl	%esi, %eax
 145 003e 5B       		popl	%ebx
 146              		.cfi_restore 3
 147              		.cfi_def_cfa_offset 8
 148 003f 5E       		popl	%esi
 149              		.cfi_restore 6
 150              		.cfi_def_cfa_offset 4
GAS LISTING /tmp/ccZJd5BB.s 			page 4


 151 0040 C3       		ret
 152              		.cfi_endproc
 153              	.LFE306:
 154              		.size	dis_func3, .-dis_func3
 155              		.section	.text.dis_func2,"ax",@progbits
 156              		.p2align 4
 157              		.type	dis_func2, @function
 158              	dis_func2:
 159              	.LVL10:
 160              	.LFB305:
 161              		.loc 1 65 42 is_stmt 1 view -0
 162              		.cfi_startproc
 163              		.loc 1 67 3 view .LVU28
 164              		.loc 1 65 42 is_stmt 0 view .LVU29
 165 0000 56       		pushl	%esi
 166              		.cfi_def_cfa_offset 8
 167              		.cfi_offset 6, -8
 168 0001 53       		pushl	%ebx
 169              		.cfi_def_cfa_offset 12
 170              		.cfi_offset 3, -12
 171 0002 E8FCFFFF 		call	__x86.get_pc_thunk.bx
 171      FF
 172 0007 81C30200 		addl	$_GLOBAL_OFFSET_TABLE_, %ebx
 172      0000
 173 000d 83EC10   		subl	$16, %esp
 174              		.cfi_def_cfa_offset 28
 175              		.loc 1 65 42 view .LVU30
 176 0010 8B74241C 		movl	28(%esp), %esi
 177              		.loc 1 67 3 view .LVU31
 178 0014 89F0     		movl	%esi, %eax
 179 0016 0FBEC0   		movsbl	%al, %eax
 180 0019 50       		pushl	%eax
 181              		.cfi_def_cfa_offset 32
 182 001a E8FCFFFF 		call	test_emit_token@PLT
 182      FF
 183              	.LVL11:
 184              		.loc 1 68 3 is_stmt 1 view .LVU32
 185 001f 0FBE4424 		movsbl	36(%esp), %eax
 185      24
 186 0024 890424   		movl	%eax, (%esp)
 187 0027 E8FCFFFF 		call	test_emit_token@PLT
 187      FF
 188              	.LVL12:
 189              		.loc 1 70 3 view .LVU33
 190              		.loc 1 71 1 is_stmt 0 view .LVU34
 191 002c 83C414   		addl	$20, %esp
 192              		.cfi_def_cfa_offset 12
 193 002f 89F0     		movl	%esi, %eax
 194 0031 5B       		popl	%ebx
 195              		.cfi_restore 3
 196              		.cfi_def_cfa_offset 8
 197 0032 5E       		popl	%esi
 198              		.cfi_restore 6
 199              		.cfi_def_cfa_offset 4
 200 0033 C3       		ret
 201              		.cfi_endproc
 202              	.LFE305:
GAS LISTING /tmp/ccZJd5BB.s 			page 5


 203              		.size	dis_func2, .-dis_func2
 204              		.section	.text.dis_func1,"ax",@progbits
 205              		.p2align 4
 206              		.type	dis_func1, @function
 207              	dis_func1:
 208              	.LVL13:
 209              	.LFB304:
 210              		.loc 1 58 33 is_stmt 1 view -0
 211              		.cfi_startproc
 212              		.loc 1 60 3 view .LVU36
 213              		.loc 1 58 33 is_stmt 0 view .LVU37
 214 0000 56       		pushl	%esi
 215              		.cfi_def_cfa_offset 8
 216              		.cfi_offset 6, -8
 217 0001 53       		pushl	%ebx
 218              		.cfi_def_cfa_offset 12
 219              		.cfi_offset 3, -12
 220 0002 E8FCFFFF 		call	__x86.get_pc_thunk.bx
 220      FF
 221 0007 81C30200 		addl	$_GLOBAL_OFFSET_TABLE_, %ebx
 221      0000
 222 000d 83EC10   		subl	$16, %esp
 223              		.cfi_def_cfa_offset 28
 224              		.loc 1 58 33 view .LVU38
 225 0010 8B74241C 		movl	28(%esp), %esi
 226              		.loc 1 60 3 view .LVU39
 227 0014 89F0     		movl	%esi, %eax
 228 0016 0FBEC0   		movsbl	%al, %eax
 229 0019 50       		pushl	%eax
 230              		.cfi_def_cfa_offset 32
 231 001a E8FCFFFF 		call	test_emit_token@PLT
 231      FF
 232              	.LVL14:
 233              		.loc 1 62 3 is_stmt 1 view .LVU40
 234              		.loc 1 63 1 is_stmt 0 view .LVU41
 235 001f 83C414   		addl	$20, %esp
 236              		.cfi_def_cfa_offset 12
 237 0022 89F0     		movl	%esi, %eax
 238 0024 5B       		popl	%ebx
 239              		.cfi_restore 3
 240              		.cfi_def_cfa_offset 8
 241 0025 5E       		popl	%esi
 242              		.cfi_restore 6
 243              		.cfi_def_cfa_offset 4
 244 0026 C3       		ret
 245              		.cfi_endproc
 246              	.LFE304:
 247              		.size	dis_func1, .-dis_func1
 248              		.section	.text.dis_func0,"ax",@progbits
 249              		.p2align 4
 250              		.type	dis_func0, @function
 251              	dis_func0:
 252              	.LFB303:
 253              		.loc 1 51 28 is_stmt 1 view -0
 254              		.cfi_startproc
 255              		.loc 1 53 3 view .LVU43
 256              		.loc 1 51 28 is_stmt 0 view .LVU44
GAS LISTING /tmp/ccZJd5BB.s 			page 6


 257 0000 53       		pushl	%ebx
 258              		.cfi_def_cfa_offset 8
 259              		.cfi_offset 3, -8
 260 0001 E8FCFFFF 		call	__x86.get_pc_thunk.bx
 260      FF
 261 0006 81C30200 		addl	$_GLOBAL_OFFSET_TABLE_, %ebx
 261      0000
 262 000c 83EC14   		subl	$20, %esp
 263              		.cfi_def_cfa_offset 28
 264              		.loc 1 53 3 view .LVU45
 265 000f 6A30     		pushl	$48
 266              		.cfi_def_cfa_offset 32
 267 0011 E8FCFFFF 		call	test_emit_token@PLT
 267      FF
 268              	.LVL15:
 269              		.loc 1 55 3 is_stmt 1 view .LVU46
 270              		.loc 1 56 1 is_stmt 0 view .LVU47
 271 0016 83C418   		addl	$24, %esp
 272              		.cfi_def_cfa_offset 8
 273 0019 B8AA5500 		movl	$21930, %eax
 273      00
 274 001e 5B       		popl	%ebx
 275              		.cfi_restore 3
 276              		.cfi_def_cfa_offset 4
 277 001f C3       		ret
 278              		.cfi_endproc
 279              	.LFE303:
 280              		.size	dis_func0, .-dis_func0
 281              		.section	.text.Thread1,"ax",@progbits
 282              		.p2align 4
 283              		.type	Thread1, @function
 284              	Thread1:
 285              	.LVL16:
 286              	.LFB309:
 287              		.loc 1 101 35 is_stmt 1 view -0
 288              		.cfi_startproc
 289              		.loc 1 103 3 view .LVU49
 290              		.loc 1 105 3 view .LVU50
 291              		.loc 1 101 35 is_stmt 0 view .LVU51
 292 0000 53       		pushl	%ebx
 293              		.cfi_def_cfa_offset 8
 294              		.cfi_offset 3, -8
 295 0001 E8FCFFFF 		call	__x86.get_pc_thunk.bx
 295      FF
 296 0006 81C30200 		addl	$_GLOBAL_OFFSET_TABLE_, %ebx
 296      0000
 297 000c 83EC08   		subl	$8, %esp
 298              		.cfi_def_cfa_offset 16
 299              		.loc 1 105 13 view .LVU52
 300 000f C6830000 		movb	$0, exit_flag@GOTOFF(%ebx)
 300      000000
 301 0016 8DB42600 		.p2align 4,,10
 301      0000008D 
 301      7600
 302              		.p2align 3
 303              	.L15:
 304              		.loc 1 106 3 is_stmt 1 discriminator 1 view .LVU53
GAS LISTING /tmp/ccZJd5BB.s 			page 7


 305              		.loc 1 107 5 discriminator 1 view .LVU54
 306 0020 E8FCFFFF 		call	chDelegateDispatch@PLT
 306      FF
 307              	.LVL17:
 308              		.loc 1 108 12 discriminator 1 view .LVU55
 309 0025 80BB0000 		cmpb	$0, exit_flag@GOTOFF(%ebx)
 309      000000
 310 002c 74F2     		je	.L15
 311              		.loc 1 110 3 view .LVU56
 312 002e 83EC0C   		subl	$12, %esp
 313              		.cfi_def_cfa_offset 28
 314 0031 68A50F00 		pushl	$4005
 314      00
 315              		.cfi_def_cfa_offset 32
 316 0036 E8FCFFFF 		call	chThdExit@PLT
 316      FF
 317              	.LVL18:
 318              		.loc 1 111 1 is_stmt 0 view .LVU57
 319 003b 83C418   		addl	$24, %esp
 320              		.cfi_def_cfa_offset 8
 321 003e 5B       		popl	%ebx
 322              		.cfi_restore 3
 323              		.cfi_def_cfa_offset 4
 324 003f C3       		ret
 325              		.cfi_endproc
 326              	.LFE309:
 327              		.size	Thread1, .-Thread1
 328              		.section	.rodata.oslib_test_005_001_execute.str1.1,"aMS",@progbits,1
 329              	.LC0:
 330 0000 64697370 		.string	"dispatcher"
 330      61746368 
 330      657200
 331              	.LC1:
 332 000b 696E7661 		.string	"invalid return value"
 332      6C696420 
 332      72657475 
 332      726E2076 
 332      616C7565 
 333              	.LC2:
 334 0020 756E6578 		.string	"unexpected tokens"
 334      70656374 
 334      65642074 
 334      6F6B656E 
 334      7300
 335              	.LC3:
 336 0032 30414243 		.string	"0ABCDEFGHIJZ"
 336      44454647 
 336      48494A5A 
 336      00
 337              	.LC4:
 338 003f 696E7661 		.string	"invalid exit code"
 338      6C696420 
 338      65786974 
 338      20636F64 
 338      6500
 339              		.section	.text.oslib_test_005_001_execute,"ax",@progbits
 340              		.p2align 4
GAS LISTING /tmp/ccZJd5BB.s 			page 8


 341              		.type	oslib_test_005_001_execute, @function
 342              	oslib_test_005_001_execute:
 343              	.LFB310:
 344              		.loc 1 131 46 is_stmt 1 view -0
 345              		.cfi_startproc
 346 0000 55       		pushl	%ebp
 347              		.cfi_def_cfa_offset 8
 348              		.cfi_offset 5, -8
 349 0001 57       		pushl	%edi
 350              		.cfi_def_cfa_offset 12
 351              		.cfi_offset 7, -12
 352 0002 56       		pushl	%esi
 353              		.cfi_def_cfa_offset 16
 354              		.cfi_offset 6, -16
 355 0003 53       		pushl	%ebx
 356              		.cfi_def_cfa_offset 20
 357              		.cfi_offset 3, -20
 358 0004 E8FCFFFF 		call	__x86.get_pc_thunk.bx
 358      FF
 359 0009 81C30200 		addl	$_GLOBAL_OFFSET_TABLE_, %ebx
 359      0000
 360 000f 83EC48   		subl	$72, %esp
 361              		.cfi_def_cfa_offset 92
 362              		.loc 1 131 46 is_stmt 0 view .LVU59
 363 0012 65A11400 		movl	%gs:20, %eax
 363      0000
 364 0018 89442438 		movl	%eax, 56(%esp)
 365 001c 31C0     		xorl	%eax, %eax
 366              		.loc 1 132 3 is_stmt 1 view .LVU60
 367              		.loc 1 135 3 view .LVU61
 368              	.LBB23:
 369              		.loc 1 137 25 is_stmt 0 view .LVU62
 370 001e C7442430 		movl	$0, 48(%esp)
 370      00000000 
 371 0026 C7442434 		movl	$0, 52(%esp)
 371      00000000 
 372 002e 8D830000 		leal	.LC0@GOTOFF(%ebx), %eax
 372      0000
 373              	.LBE23:
 374              		.loc 1 135 3 view .LVU63
 375 0034 8BBB0000 		movl	chtest@GOT(%ebx), %edi
 375      0000
 376              	.LBB32:
 377              		.loc 1 137 25 view .LVU64
 378 003a 8944241C 		movl	%eax, 28(%esp)
 379 003e 8D830000 		leal	waThread1@GOTOFF(%ebx), %eax
 379      0000
 380 0044 89442420 		movl	%eax, 32(%esp)
 381 0048 05804100 		addl	$16768, %eax
 381      00
 382 004d 89442424 		movl	%eax, 36(%esp)
 383              	.LBB24:
 384              	.LBB25:
 385              	.LBB26:
 386              	.LBB27:
 387              		.file 2 "../../../os/rt/include/chthreads.h"
 388              		.loc 2 529 10 view .LVU65
GAS LISTING /tmp/ccZJd5BB.s 			page 9


 389 0051 8B830000 		movl	ch0@GOT(%ebx), %eax
 389      0000
 390              	.LBE27:
 391              	.LBE26:
 392              	.LBE25:
 393              	.LBE24:
 394              	.LBE32:
 395              		.loc 1 135 3 view .LVU66
 396 0057 C7070100 		movl	$1, (%edi)
 396      0000
 397              	.LBB33:
 398              		.loc 1 137 5 is_stmt 1 view .LVU67
 399              	.LBB31:
 400              	.LBI24:
 401              		.loc 2 540 23 view .LVU68
 402              	.LBB30:
 403              		.loc 2 542 3 view .LVU69
 404              	.LBB29:
 405              	.LBI26:
 406              		.loc 2 527 25 view .LVU70
 407              	.LBB28:
 408              		.loc 2 529 3 view .LVU71
 409              	.LBE28:
 410              	.LBE29:
 411              		.loc 2 542 37 is_stmt 0 view .LVU72
 412 005d 8B400C   		movl	12(%eax), %eax
 413              	.LBE30:
 414              	.LBE31:
 415              		.loc 1 141 36 view .LVU73
 416 0060 8B4008   		movl	8(%eax), %eax
 417 0063 83C001   		addl	$1, %eax
 418              		.loc 1 137 25 view .LVU74
 419 0066 89442428 		movl	%eax, 40(%esp)
 420 006a 8D830000 		leal	Thread1@GOTOFF(%ebx), %eax
 420      0000
 421 0070 8944242C 		movl	%eax, 44(%esp)
 422              		.loc 1 145 5 is_stmt 1 view .LVU75
 423              		.loc 1 145 10 is_stmt 0 view .LVU76
 424 0074 8D44241C 		leal	28(%esp), %eax
 425 0078 50       		pushl	%eax
 426              		.cfi_def_cfa_offset 96
 427 0079 E8FCFFFF 		call	chThdCreate@PLT
 427      FF
 428              	.LVL19:
 429              	.LBE33:
 430              	.LBB34:
 431              	.LBB35:
 432              	.LBB36:
 433              		.file 3 "../../../os/oslib/include/chdelegates.h"
 434              		.loc 3 126 10 view .LVU77
 435 007e 83C40C   		addl	$12, %esp
 436              		.cfi_def_cfa_offset 84
 437              	.LBE36:
 438              	.LBE35:
 439              	.LBE34:
 440              		.loc 1 151 3 view .LVU78
 441 0081 C7070200 		movl	$2, (%edi)
GAS LISTING /tmp/ccZJd5BB.s 			page 10


 441      0000
 442              	.LBB49:
 443              		.loc 1 145 10 view .LVU79
 444 0087 89C6     		movl	%eax, %esi
 445              	.LVL20:
 446              		.loc 1 145 10 view .LVU80
 447              	.LBE49:
 448              		.loc 1 147 3 is_stmt 1 view .LVU81
 449              		.loc 1 147 19 view .LVU82
 450              		.loc 1 151 3 view .LVU83
 451              	.LBB50:
 452              		.loc 1 153 5 view .LVU84
 453              		.loc 1 155 5 view .LVU85
 454              	.LBB38:
 455              	.LBI35:
 456              		.loc 3 124 21 view .LVU86
 457              	.LBB37:
 458              		.loc 3 126 3 view .LVU87
 459              		.loc 3 126 10 is_stmt 0 view .LVU88
 460 0089 8D830000 		leal	dis_func0@GOTOFF(%ebx), %eax
 460      0000
 461              	.LVL21:
 462              		.loc 3 126 10 view .LVU89
 463 008f 50       		pushl	%eax
 464              		.cfi_def_cfa_offset 88
 465 0090 8B830000 		movl	__ch_delegate_fn0@GOT(%ebx), %eax
 465      0000
 466 0096 89442414 		movl	%eax, 20(%esp)
 467 009a 50       		pushl	%eax
 468              		.cfi_def_cfa_offset 92
 469 009b 56       		pushl	%esi
 470              		.cfi_def_cfa_offset 96
 471 009c E8FCFFFF 		call	chDelegateCallVeneer@PLT
 471      FF
 472              	.LVL22:
 473              		.loc 3 126 10 view .LVU90
 474              	.LBE37:
 475              	.LBE38:
 476              		.loc 1 156 5 is_stmt 1 view .LVU91
 477 00a1 5D       		popl	%ebp
 478              		.cfi_def_cfa_offset 92
 479 00a2 8DAB0000 		leal	.LC1@GOTOFF(%ebx), %ebp
 479      0000
 480 00a8 5A       		popl	%edx
 481              		.cfi_def_cfa_offset 88
 482 00a9 3DAA5500 		cmpl	$21930, %eax
 482      00
 483 00ae 55       		pushl	%ebp
 484              		.cfi_def_cfa_offset 92
 485 00af 0F94C0   		sete	%al
 486              	.LVL23:
 487              		.loc 1 156 5 is_stmt 0 view .LVU92
 488 00b2 0FB6C0   		movzbl	%al, %eax
 489 00b5 50       		pushl	%eax
 490              		.cfi_def_cfa_offset 96
 491 00b6 E8FCFFFF 		call	__test_assert@PLT
 491      FF
GAS LISTING /tmp/ccZJd5BB.s 			page 11


 492              	.LVL24:
 493 00bb 83C410   		addl	$16, %esp
 494              		.cfi_def_cfa_offset 80
 495 00be 84C0     		testb	%al, %al
 496 00c0 741E     		je	.L24
 497              	.L18:
 498              		.loc 1 156 5 view .LVU93
 499              	.LBE50:
 500              		.loc 1 184 1 view .LVU94
 501 00c2 8B44242C 		movl	44(%esp), %eax
 502 00c6 652B0514 		subl	%gs:20, %eax
 502      000000
 503 00cd 0F856A01 		jne	.L25
 503      0000
 504 00d3 83C43C   		addl	$60, %esp
 505              		.cfi_remember_state
 506              		.cfi_def_cfa_offset 20
 507 00d6 5B       		popl	%ebx
 508              		.cfi_restore 3
 509              		.cfi_def_cfa_offset 16
 510 00d7 5E       		popl	%esi
 511              		.cfi_restore 6
 512              		.cfi_def_cfa_offset 12
 513              	.LVL25:
 514              		.loc 1 184 1 view .LVU95
 515 00d8 5F       		popl	%edi
 516              		.cfi_restore 7
 517              		.cfi_def_cfa_offset 8
 518 00d9 5D       		popl	%ebp
 519              		.cfi_restore 5
 520              		.cfi_def_cfa_offset 4
 521 00da C3       		ret
 522              	.LVL26:
 523 00db 8D742600 		.p2align 4,,10
 523      90
 524              		.p2align 3
 525              	.L24:
 526              		.cfi_restore_state
 527              	.LBB51:
 528              		.loc 1 156 58 is_stmt 1 view .LVU96
 529              		.loc 1 158 5 view .LVU97
 530              	.LBB39:
 531              	.LBI39:
 532              		.loc 3 140 21 view .LVU98
 533              	.LBB40:
 534              		.loc 3 143 3 view .LVU99
 535              		.loc 3 143 10 is_stmt 0 view .LVU100
 536 00e0 8D830000 		leal	dis_func1@GOTOFF(%ebx), %eax
 536      0000
 537 00e6 6A41     		pushl	$65
 538              		.cfi_def_cfa_offset 84
 539 00e8 50       		pushl	%eax
 540              		.cfi_def_cfa_offset 88
 541 00e9 FFB30000 		pushl	__ch_delegate_fn1@GOT(%ebx)
 541      0000
 542              		.cfi_def_cfa_offset 92
 543 00ef 56       		pushl	%esi
GAS LISTING /tmp/ccZJd5BB.s 			page 12


 544              		.cfi_def_cfa_offset 96
 545 00f0 E8FCFFFF 		call	chDelegateCallVeneer@PLT
 545      FF
 546              	.LVL27:
 547              		.loc 3 143 10 view .LVU101
 548              	.LBE40:
 549              	.LBE39:
 550              		.loc 1 159 5 is_stmt 1 view .LVU102
 551 00f5 5A       		popl	%edx
 552              		.cfi_def_cfa_offset 92
 553 00f6 59       		popl	%ecx
 554              		.cfi_def_cfa_offset 88
 555 00f7 55       		pushl	%ebp
 556              		.cfi_def_cfa_offset 92
 557 00f8 83F841   		cmpl	$65, %eax
 558 00fb 0F94C0   		sete	%al
 559              	.LVL28:
 560              		.loc 1 159 5 is_stmt 0 view .LVU103
 561 00fe 0FB6C0   		movzbl	%al, %eax
 562 0101 50       		pushl	%eax
 563              		.cfi_def_cfa_offset 96
 564 0102 E8FCFFFF 		call	__test_assert@PLT
 564      FF
 565              	.LVL29:
 566 0107 83C410   		addl	$16, %esp
 567              		.cfi_def_cfa_offset 80
 568 010a 84C0     		testb	%al, %al
 569 010c 75B4     		jne	.L18
 570              		.loc 1 159 60 is_stmt 1 view .LVU104
 571              		.loc 1 161 5 view .LVU105
 572              	.LVL30:
 573              	.LBB41:
 574              	.LBI41:
 575              		.loc 3 158 21 view .LVU106
 576              	.LBB42:
 577              		.loc 3 161 3 view .LVU107
 578              		.loc 3 161 10 is_stmt 0 view .LVU108
 579 010e 83EC0C   		subl	$12, %esp
 580              		.cfi_def_cfa_offset 92
 581 0111 8D830000 		leal	dis_func2@GOTOFF(%ebx), %eax
 581      0000
 582 0117 6A43     		pushl	$67
 583              		.cfi_def_cfa_offset 96
 584 0119 6A42     		pushl	$66
 585              		.cfi_def_cfa_offset 100
 586 011b 50       		pushl	%eax
 587              		.cfi_def_cfa_offset 104
 588 011c FFB30000 		pushl	__ch_delegate_fn2@GOT(%ebx)
 588      0000
 589              		.cfi_def_cfa_offset 108
 590 0122 56       		pushl	%esi
 591              		.cfi_def_cfa_offset 112
 592 0123 E8FCFFFF 		call	chDelegateCallVeneer@PLT
 592      FF
 593              	.LVL31:
 594              		.loc 3 161 10 view .LVU109
 595              	.LBE42:
GAS LISTING /tmp/ccZJd5BB.s 			page 13


 596              	.LBE41:
 597              		.loc 1 162 5 is_stmt 1 view .LVU110
 598 0128 83C418   		addl	$24, %esp
 599              		.cfi_def_cfa_offset 88
 600 012b 83F842   		cmpl	$66, %eax
 601 012e 55       		pushl	%ebp
 602              		.cfi_def_cfa_offset 92
 603 012f 0F94C0   		sete	%al
 604              	.LVL32:
 605              		.loc 1 162 5 is_stmt 0 view .LVU111
 606 0132 0FB6C0   		movzbl	%al, %eax
 607 0135 50       		pushl	%eax
 608              		.cfi_def_cfa_offset 96
 609 0136 E8FCFFFF 		call	__test_assert@PLT
 609      FF
 610              	.LVL33:
 611 013b 83C410   		addl	$16, %esp
 612              		.cfi_def_cfa_offset 80
 613 013e 84C0     		testb	%al, %al
 614 0140 7580     		jne	.L18
 615              		.loc 1 162 60 is_stmt 1 view .LVU112
 616              		.loc 1 164 5 view .LVU113
 617              	.LVL34:
 618              	.LBB43:
 619              	.LBI43:
 620              		.loc 3 177 21 view .LVU114
 621              	.LBB44:
 622              		.loc 3 180 3 view .LVU115
 623              		.loc 3 180 10 is_stmt 0 view .LVU116
 624 0142 83EC08   		subl	$8, %esp
 625              		.cfi_def_cfa_offset 88
 626 0145 8D830000 		leal	dis_func3@GOTOFF(%ebx), %eax
 626      0000
 627 014b 6A46     		pushl	$70
 628              		.cfi_def_cfa_offset 92
 629 014d 6A45     		pushl	$69
 630              		.cfi_def_cfa_offset 96
 631 014f 6A44     		pushl	$68
 632              		.cfi_def_cfa_offset 100
 633 0151 50       		pushl	%eax
 634              		.cfi_def_cfa_offset 104
 635 0152 FFB30000 		pushl	__ch_delegate_fn3@GOT(%ebx)
 635      0000
 636              		.cfi_def_cfa_offset 108
 637 0158 56       		pushl	%esi
 638              		.cfi_def_cfa_offset 112
 639 0159 E8FCFFFF 		call	chDelegateCallVeneer@PLT
 639      FF
 640              	.LVL35:
 641              		.loc 3 180 10 view .LVU117
 642              	.LBE44:
 643              	.LBE43:
 644              		.loc 1 165 5 is_stmt 1 view .LVU118
 645 015e 83C418   		addl	$24, %esp
 646              		.cfi_def_cfa_offset 88
 647 0161 83F844   		cmpl	$68, %eax
 648 0164 55       		pushl	%ebp
GAS LISTING /tmp/ccZJd5BB.s 			page 14


 649              		.cfi_def_cfa_offset 92
 650 0165 0F94C0   		sete	%al
 651              	.LVL36:
 652              		.loc 1 165 5 is_stmt 0 view .LVU119
 653 0168 0FB6C0   		movzbl	%al, %eax
 654 016b 50       		pushl	%eax
 655              		.cfi_def_cfa_offset 96
 656 016c E8FCFFFF 		call	__test_assert@PLT
 656      FF
 657              	.LVL37:
 658 0171 83C410   		addl	$16, %esp
 659              		.cfi_def_cfa_offset 80
 660 0174 84C0     		testb	%al, %al
 661 0176 0F8546FF 		jne	.L18
 661      FFFF
 662              		.loc 1 165 60 is_stmt 1 view .LVU120
 663              		.loc 1 167 5 view .LVU121
 664              	.LVL38:
 665              	.LBB45:
 666              	.LBI45:
 667              		.loc 3 197 21 view .LVU122
 668              	.LBB46:
 669              		.loc 3 201 3 view .LVU123
 670              		.loc 3 201 10 is_stmt 0 view .LVU124
 671 017c 83EC04   		subl	$4, %esp
 672              		.cfi_def_cfa_offset 84
 673 017f 8D830000 		leal	dis_func4@GOTOFF(%ebx), %eax
 673      0000
 674 0185 6A4A     		pushl	$74
 675              		.cfi_def_cfa_offset 88
 676 0187 6A49     		pushl	$73
 677              		.cfi_def_cfa_offset 92
 678 0189 6A48     		pushl	$72
 679              		.cfi_def_cfa_offset 96
 680 018b 6A47     		pushl	$71
 681              		.cfi_def_cfa_offset 100
 682 018d 50       		pushl	%eax
 683              		.cfi_def_cfa_offset 104
 684 018e FFB30000 		pushl	__ch_delegate_fn4@GOT(%ebx)
 684      0000
 685              		.cfi_def_cfa_offset 108
 686 0194 56       		pushl	%esi
 687              		.cfi_def_cfa_offset 112
 688 0195 E8FCFFFF 		call	chDelegateCallVeneer@PLT
 688      FF
 689              	.LVL39:
 690              		.loc 3 201 10 view .LVU125
 691              	.LBE46:
 692              	.LBE45:
 693              		.loc 1 168 5 is_stmt 1 view .LVU126
 694 019a 83C418   		addl	$24, %esp
 695              		.cfi_def_cfa_offset 88
 696 019d 83F847   		cmpl	$71, %eax
 697 01a0 55       		pushl	%ebp
 698              		.cfi_def_cfa_offset 92
 699 01a1 0F94C0   		sete	%al
 700              	.LVL40:
GAS LISTING /tmp/ccZJd5BB.s 			page 15


 701              		.loc 1 168 5 is_stmt 0 view .LVU127
 702 01a4 0FB6C0   		movzbl	%al, %eax
 703 01a7 50       		pushl	%eax
 704              		.cfi_def_cfa_offset 96
 705 01a8 E8FCFFFF 		call	__test_assert@PLT
 705      FF
 706              	.LVL41:
 707 01ad 83C410   		addl	$16, %esp
 708              		.cfi_def_cfa_offset 80
 709 01b0 84C0     		testb	%al, %al
 710 01b2 0F850AFF 		jne	.L18
 710      FFFF
 711              		.loc 1 168 60 is_stmt 1 view .LVU128
 712              		.loc 1 170 5 view .LVU129
 713              	.LVL42:
 714              	.LBB47:
 715              	.LBI47:
 716              		.loc 3 124 21 view .LVU130
 717              	.LBB48:
 718              		.loc 3 126 3 view .LVU131
 719              		.loc 3 126 10 is_stmt 0 view .LVU132
 720 01b8 83EC04   		subl	$4, %esp
 721              		.cfi_def_cfa_offset 84
 722 01bb 8D830000 		leal	dis_func_end@GOTOFF(%ebx), %eax
 722      0000
 723 01c1 50       		pushl	%eax
 724              		.cfi_def_cfa_offset 88
 725 01c2 FF742414 		pushl	20(%esp)
 726              		.cfi_def_cfa_offset 92
 727 01c6 56       		pushl	%esi
 728              		.cfi_def_cfa_offset 96
 729 01c7 E8FCFFFF 		call	chDelegateCallVeneer@PLT
 729      FF
 730              	.LVL43:
 731              		.loc 3 126 10 view .LVU133
 732              	.LBE48:
 733              	.LBE47:
 734              		.loc 1 171 5 is_stmt 1 view .LVU134
 735 01cc 5A       		popl	%edx
 736              		.cfi_def_cfa_offset 92
 737 01cd 59       		popl	%ecx
 738              		.cfi_def_cfa_offset 88
 739 01ce 55       		pushl	%ebp
 740              		.cfi_def_cfa_offset 92
 741 01cf 3D55AA00 		cmpl	$43605, %eax
 741      00
 742 01d4 0F94C0   		sete	%al
 743              	.LVL44:
 744              		.loc 1 171 5 is_stmt 0 view .LVU135
 745 01d7 0FB6C0   		movzbl	%al, %eax
 746 01da 50       		pushl	%eax
 747              		.cfi_def_cfa_offset 96
 748 01db E8FCFFFF 		call	__test_assert@PLT
 748      FF
 749              	.LVL45:
 750 01e0 83C410   		addl	$16, %esp
 751              		.cfi_def_cfa_offset 80
GAS LISTING /tmp/ccZJd5BB.s 			page 16


 752 01e3 84C0     		testb	%al, %al
 753 01e5 0F85D7FE 		jne	.L18
 753      FFFF
 754              		.loc 1 171 58 is_stmt 1 discriminator 2 view .LVU136
 755              		.loc 1 173 5 discriminator 2 view .LVU137
 756 01eb 83EC08   		subl	$8, %esp
 757              		.cfi_def_cfa_offset 88
 758 01ee 8D830000 		leal	.LC2@GOTOFF(%ebx), %eax
 758      0000
 759 01f4 50       		pushl	%eax
 760              		.cfi_def_cfa_offset 92
 761 01f5 8D830000 		leal	.LC3@GOTOFF(%ebx), %eax
 761      0000
 762 01fb 50       		pushl	%eax
 763              		.cfi_def_cfa_offset 96
 764 01fc E8FCFFFF 		call	__test_assert_sequence@PLT
 764      FF
 765              	.LVL46:
 766 0201 83C410   		addl	$16, %esp
 767              		.cfi_def_cfa_offset 80
 768 0204 84C0     		testb	%al, %al
 769 0206 0F85B6FE 		jne	.L18
 769      FFFF
 770              		.loc 1 173 62 discriminator 2 view .LVU138
 771              	.LBE51:
 772              		.loc 1 175 3 discriminator 2 view .LVU139
 773              		.loc 1 175 19 discriminator 2 view .LVU140
 774              		.loc 1 178 3 discriminator 2 view .LVU141
 775              	.LBB52:
 776              		.loc 1 180 17 is_stmt 0 discriminator 2 view .LVU142
 777 020c 83EC0C   		subl	$12, %esp
 778              		.cfi_def_cfa_offset 92
 779              	.LBE52:
 780              		.loc 1 178 3 discriminator 2 view .LVU143
 781 020f C7070300 		movl	$3, (%edi)
 781      0000
 782              	.LBB53:
 783              		.loc 1 180 5 is_stmt 1 discriminator 2 view .LVU144
 784              		.loc 1 180 17 is_stmt 0 discriminator 2 view .LVU145
 785 0215 56       		pushl	%esi
 786              		.cfi_def_cfa_offset 96
 787 0216 E8FCFFFF 		call	chThdWait@PLT
 787      FF
 788              	.LVL47:
 789              		.loc 1 181 5 is_stmt 1 discriminator 2 view .LVU146
 790 021b 5A       		popl	%edx
 791              		.cfi_def_cfa_offset 92
 792 021c 8D930000 		leal	.LC4@GOTOFF(%ebx), %edx
 792      0000
 793 0222 59       		popl	%ecx
 794              		.cfi_def_cfa_offset 88
 795 0223 3DA50F00 		cmpl	$4005, %eax
 795      00
 796 0228 52       		pushl	%edx
 797              		.cfi_def_cfa_offset 92
 798 0229 0F94C0   		sete	%al
 799              	.LVL48:
GAS LISTING /tmp/ccZJd5BB.s 			page 17


 800              		.loc 1 181 5 is_stmt 0 discriminator 2 view .LVU147
 801 022c 0FB6C0   		movzbl	%al, %eax
 802 022f 50       		pushl	%eax
 803              		.cfi_def_cfa_offset 96
 804 0230 E8FCFFFF 		call	__test_assert@PLT
 804      FF
 805              	.LVL49:
 806 0235 83C410   		addl	$16, %esp
 807              		.cfi_def_cfa_offset 80
 808              		.loc 1 181 52 is_stmt 1 discriminator 2 view .LVU148
 809              	.LBE53:
 810              		.loc 1 183 3 discriminator 2 view .LVU149
 811              		.loc 1 183 19 discriminator 2 view .LVU150
 812              	.LBB54:
 813 0238 E985FEFF 		jmp	.L18
 813      FF
 814              	.L25:
 815              		.loc 1 183 19 is_stmt 0 discriminator 2 view .LVU151
 816              	.LBE54:
 817              		.loc 1 184 1 view .LVU152
 818 023d E8FCFFFF 		call	__stack_chk_fail_local
 818      FF
 819              	.LVL50:
 820              		.cfi_endproc
 821              	.LFE310:
 822              		.size	oslib_test_005_001_execute, .-oslib_test_005_001_execute
 823              		.globl	oslib_test_sequence_005
 824              		.section	.rodata.str1.1,"aMS",@progbits,1
 825              	.LC5:
 826 0000 54687265 		.string	"Thread Delegates"
 826      61642044 
 826      656C6567 
 826      61746573 
 826      00
 827              		.section	.data.rel.ro.local.oslib_test_sequence_005,"aw"
 828              		.align 4
 829              		.type	oslib_test_sequence_005, @object
 830              		.size	oslib_test_sequence_005, 8
 831              	oslib_test_sequence_005:
 832 0000 00000000 		.long	.LC5
 833 0004 00000000 		.long	oslib_test_sequence_005_array
 834              		.globl	oslib_test_sequence_005_array
 835              		.section	.data.rel.ro.local.oslib_test_sequence_005_array,"aw"
 836              		.align 4
 837              		.type	oslib_test_sequence_005_array, @object
 838              		.size	oslib_test_sequence_005_array, 8
 839              	oslib_test_sequence_005_array:
 840 0000 00000000 		.long	oslib_test_005_001
 841 0004 00000000 		.long	0
 842              		.section	.rodata.str1.1
 843              	.LC6:
 844 0011 44697370 		.string	"Dispatcher test"
 844      61746368 
 844      65722074 
 844      65737400 
 845              		.section	.data.rel.ro.local.oslib_test_005_001,"aw"
 846              		.align 4
GAS LISTING /tmp/ccZJd5BB.s 			page 18


 847              		.type	oslib_test_005_001, @object
 848              		.size	oslib_test_005_001, 16
 849              	oslib_test_005_001:
 850 0000 11000000 		.long	.LC6
 851 0004 00000000 		.long	0
 852 0008 00000000 		.long	0
 853 000c 00000000 		.long	oslib_test_005_001_execute
 854              		.section	.bss.waThread1,"aw",@nobits
 855              		.align 16
 856              		.type	waThread1, @object
 857              		.size	waThread1, 16768
 858              	waThread1:
 859 0000 00000000 		.zero	16768
 859      00000000 
 859      00000000 
 859      00000000 
 859      00000000 
 860              		.section	.bss.exit_flag,"aw",@nobits
 861              		.type	exit_flag, @object
 862              		.size	exit_flag, 1
 863              	exit_flag:
 864 0000 00       		.zero	1
 865              		.section	.text.__x86.get_pc_thunk.bx,"axG",@progbits,__x86.get_pc_thunk.bx,comdat
 866              		.globl	__x86.get_pc_thunk.bx
 867              		.hidden	__x86.get_pc_thunk.bx
 868              		.type	__x86.get_pc_thunk.bx, @function
 869              	__x86.get_pc_thunk.bx:
 870              	.LFB311:
 871              		.cfi_startproc
 872 0000 8B1C24   		movl	(%esp), %ebx
 873 0003 C3       		ret
 874              		.cfi_endproc
 875              	.LFE311:
 876              		.text
 877              	.Letext0:
 878              		.file 4 "/usr/lib/gcc/x86_64-linux-gnu/11/include/stddef.h"
 879              		.file 5 "/usr/include/bits/types.h"
 880              		.file 6 "/usr/include/bits/stdint-intn.h"
 881              		.file 7 "/usr/include/bits/stdint-uintn.h"
 882              		.file 8 "../../../os/common/ports/SIMIA32/compilers/GCC/chtypes.h"
 883              		.file 9 "../../../os/rt/include/chearly.h"
 884              		.file 10 "../../../os/rt/include/chobjects.h"
 885              		.file 11 "../../../os/rt/include/chrfcu.h"
 886              		.file 12 "../../../os/rt/include/chdebug.h"
 887              		.file 13 "../../../os/rt/include/chtime.h"
 888              		.file 14 "../../../os/rt/include/chlists.h"
 889              		.file 15 "../../../os/common/ports/SIMIA32/chcore.h"
 890              		.file 16 "../../../os/rt/include/chsem.h"
 891              		.file 17 "../../../os/rt/include/chmtx.h"
 892              		.file 18 "/usr/lib/gcc/x86_64-linux-gnu/11/include/stdarg.h"
 893              		.file 19 "../../../os/hal/include/hal_streams.h"
 894              		.file 20 "../../../os/test/include/ch_test.h"
 895              		.file 21 "../../../test/oslib/source/test/oslib_test_sequence_005.h"
 896              		.file 22 "../../../os/rt/include/chsys.h"
 4924 0069 2F686F6D 		.section	.note.GNU-stack,"",@progbits
 4924      652F616C 
 4924      65782F43 
 4924      68696269 
 4924      4F532F64 
GAS LISTING /tmp/ccZJd5BB.s 			page 98

