GAS LISTING /tmp/ccfxSUQM.s 			page 1


   1              		.file	"rt_test_sequence_003.c"
   2              		.text
   3              	.Ltext0:
   4              		.file 0 "/home/alex/ChibiOS/demos/various/LAB3_VARIANT2" "../../../test/rt/source/test/rt_test_seq
   5              		.section	.text.rt_test_003_001_execute,"ax",@progbits
   6              		.p2align 4
   7              		.type	rt_test_003_001_execute, @function
   8              	rt_test_003_001_execute:
   9              	.LFB303:
  10              		.file 1 "../../../test/rt/source/test/rt_test_sequence_003.c"
  11              		.loc 1 60 43 view -0
  12              		.cfi_startproc
  13              		.loc 1 64 3 view .LVU1
  14              		.loc 1 60 43 is_stmt 0 view .LVU2
  15 0000 57       		pushl	%edi
  16              		.cfi_def_cfa_offset 8
  17              		.cfi_offset 7, -8
  18 0001 56       		pushl	%esi
  19              		.cfi_def_cfa_offset 12
  20              		.cfi_offset 6, -12
  21 0002 53       		pushl	%ebx
  22              		.cfi_def_cfa_offset 16
  23              		.cfi_offset 3, -16
  24 0003 E8FCFFFF 		call	__x86.get_pc_thunk.bx
  24      FF
  25 0008 81C30200 		addl	$_GLOBAL_OFFSET_TABLE_, %ebx
  25      0000
  26              		.loc 1 64 3 view .LVU3
  27 000e 8B830000 		movl	chtest@GOT(%ebx), %eax
  27      0000
  28              	.LBB61:
  29              	.LBB62:
  30              	.LBB63:
  31              		.file 2 "../../../os/rt/include/chvt.h"
  32              		.loc 2 138 26 view .LVU4
  33 0014 8BB30000 		movl	ch0@GOT(%ebx), %esi
  33      0000
  34              	.LBE63:
  35              	.LBE62:
  36              	.LBE61:
  37              		.loc 1 64 3 view .LVU5
  38 001a C7000100 		movl	$1, (%eax)
  38      0000
  39              	.LBB70:
  40              		.loc 1 66 5 is_stmt 1 view .LVU6
  41              	.LBB65:
  42              	.LBI62:
  43              		.loc 2 135 25 view .LVU7
  44              	.LBB64:
  45              		.loc 2 138 3 view .LVU8
  46              		.loc 2 138 26 is_stmt 0 view .LVU9
  47 0020 8B7E1C   		movl	28(%esi), %edi
  48              	.LVL0:
  49              		.loc 2 138 26 view .LVU10
  50              	.LBE64:
  51              	.LBE65:
  52              		.loc 1 67 5 is_stmt 1 view .LVU11
GAS LISTING /tmp/ccfxSUQM.s 			page 2


  53              		.loc 1 67 17 view .LVU12
  54              	.LBB66:
  55              	.LBI66:
  56              		.loc 2 135 25 view .LVU13
  57              	.LBB67:
  58              		.loc 2 138 3 view .LVU14
  59              		.loc 2 138 26 is_stmt 0 view .LVU15
  60 0023 8B461C   		movl	28(%esi), %eax
  61              	.LBE67:
  62              	.LBE66:
  63              		.loc 1 67 17 view .LVU16
  64 0026 39C7     		cmpl	%eax, %edi
  65 0028 7512     		jne	.L1
  66 002a 8DB60000 		.p2align 4,,10
  66      0000
  67              		.p2align 3
  68              	.L3:
  69              		.loc 1 69 9 is_stmt 1 view .LVU17
  70 0030 E8FCFFFF 		call	_sim_check_for_interrupts@PLT
  70      FF
  71              	.LVL1:
  72              		.loc 1 67 17 view .LVU18
  73              	.LBB69:
  74              		.loc 2 135 25 view .LVU19
  75              	.LBB68:
  76              		.loc 2 138 3 view .LVU20
  77              		.loc 2 138 26 is_stmt 0 view .LVU21
  78 0035 8B461C   		movl	28(%esi), %eax
  79              	.LBE68:
  80              	.LBE69:
  81              		.loc 1 67 17 view .LVU22
  82 0038 39C7     		cmpl	%eax, %edi
  83 003a 74F4     		je	.L3
  84              	.L1:
  85              		.loc 1 67 17 view .LVU23
  86              	.LBE70:
  87              		.loc 1 74 1 view .LVU24
  88 003c 5B       		popl	%ebx
  89              		.cfi_restore 3
  90              		.cfi_def_cfa_offset 12
  91 003d 5E       		popl	%esi
  92              		.cfi_restore 6
  93              		.cfi_def_cfa_offset 8
  94 003e 5F       		popl	%edi
  95              		.cfi_restore 7
  96              		.cfi_def_cfa_offset 4
  97              	.LVL2:
  98              		.loc 1 74 1 view .LVU25
  99 003f C3       		ret
 100              		.cfi_endproc
 101              	.LFE303:
 102              		.size	rt_test_003_001_execute, .-rt_test_003_001_execute
 103              		.section	.rodata.rt_test_003_002_execute.str1.1,"aMS",@progbits,1
 104              	.LC0:
 105 0000 696E2072 		.string	"in range"
 105      616E6765 
 105      00
GAS LISTING /tmp/ccfxSUQM.s 			page 3


 106              	.LC1:
 107 0009 6E6F7420 		.string	"not in range"
 107      696E2072 
 107      616E6765 
 107      00
 108              		.section	.text.rt_test_003_002_execute,"ax",@progbits
 109              		.p2align 4
 110              		.type	rt_test_003_002_execute, @function
 111              	rt_test_003_002_execute:
 112              	.LFB304:
 113              		.loc 1 97 43 is_stmt 1 view -0
 114              		.cfi_startproc
 115              		.loc 1 101 3 view .LVU27
 116              		.loc 1 97 43 is_stmt 0 view .LVU28
 117 0000 55       		pushl	%ebp
 118              		.cfi_def_cfa_offset 8
 119              		.cfi_offset 5, -8
 120 0001 57       		pushl	%edi
 121              		.cfi_def_cfa_offset 12
 122              		.cfi_offset 7, -12
 123 0002 56       		pushl	%esi
 124              		.cfi_def_cfa_offset 16
 125              		.cfi_offset 6, -16
 126 0003 53       		pushl	%ebx
 127              		.cfi_def_cfa_offset 20
 128              		.cfi_offset 3, -20
 129 0004 E8FCFFFF 		call	__x86.get_pc_thunk.bx
 129      FF
 130 0009 81C30200 		addl	$_GLOBAL_OFFSET_TABLE_, %ebx
 130      0000
 131 000f 83EC14   		subl	$20, %esp
 132              		.cfi_def_cfa_offset 40
 133              	.LBB101:
 134              		.loc 1 106 5 view .LVU29
 135 0012 8DB30000 		leal	.LC0@GOTOFF(%ebx), %esi
 135      0000
 136              	.LBE101:
 137              		.loc 1 101 3 view .LVU30
 138 0018 8BBB0000 		movl	chtest@GOT(%ebx), %edi
 138      0000
 139              	.LBB102:
 140              		.loc 1 106 5 view .LVU31
 141 001e 56       		pushl	%esi
 142              		.cfi_def_cfa_offset 44
 143 001f 6A01     		pushl	$1
 144              		.cfi_def_cfa_offset 48
 145              	.LBE102:
 146              		.loc 1 101 3 view .LVU32
 147 0021 C7070100 		movl	$1, (%edi)
 147      0000
 148              	.LBB103:
 149              		.loc 1 103 5 is_stmt 1 view .LVU33
 150              		.loc 1 105 5 view .LVU34
 151              	.LVL3:
 152              		.loc 1 106 5 view .LVU35
 153 0027 E8FCFFFF 		call	__test_assert@PLT
 153      FF
GAS LISTING /tmp/ccfxSUQM.s 			page 4


 154              	.LVL4:
 155 002c 83C410   		addl	$16, %esp
 156              		.cfi_def_cfa_offset 32
 157 002f 84C0     		testb	%al, %al
 158 0031 740D     		je	.L12
 159              	.L7:
 160              	.LBE103:
 161              		.loc 1 147 1 is_stmt 0 view .LVU36
 162 0033 83C40C   		addl	$12, %esp
 163              		.cfi_remember_state
 164              		.cfi_def_cfa_offset 20
 165 0036 5B       		popl	%ebx
 166              		.cfi_restore 3
 167              		.cfi_def_cfa_offset 16
 168 0037 5E       		popl	%esi
 169              		.cfi_restore 6
 170              		.cfi_def_cfa_offset 12
 171 0038 5F       		popl	%edi
 172              		.cfi_restore 7
 173              		.cfi_def_cfa_offset 8
 174 0039 5D       		popl	%ebp
 175              		.cfi_restore 5
 176              		.cfi_def_cfa_offset 4
 177 003a C3       		ret
 178 003b 8D742600 		.p2align 4,,10
 178      90
 179              		.p2align 3
 180              	.L12:
 181              		.cfi_restore_state
 182              	.LBB104:
 183              		.loc 1 106 40 is_stmt 1 view .LVU37
 184              		.loc 1 107 5 view .LVU38
 185              		.loc 1 108 5 view .LVU39
 186 0040 83EC08   		subl	$8, %esp
 187              		.cfi_def_cfa_offset 40
 188 0043 56       		pushl	%esi
 189              		.cfi_def_cfa_offset 44
 190 0044 6A01     		pushl	$1
 191              		.cfi_def_cfa_offset 48
 192 0046 E8FCFFFF 		call	__test_assert@PLT
 192      FF
 193              	.LVL5:
 194 004b 83C410   		addl	$16, %esp
 195              		.cfi_def_cfa_offset 32
 196 004e 84C0     		testb	%al, %al
 197 0050 75E1     		jne	.L7
 198              		.loc 1 108 40 view .LVU40
 199              		.loc 1 109 5 view .LVU41
 200              		.loc 1 110 5 view .LVU42
 201 0052 83EC08   		subl	$8, %esp
 202              		.cfi_def_cfa_offset 40
 203 0055 56       		pushl	%esi
 204              		.cfi_def_cfa_offset 44
 205 0056 6A01     		pushl	$1
 206              		.cfi_def_cfa_offset 48
 207 0058 E8FCFFFF 		call	__test_assert@PLT
 207      FF
GAS LISTING /tmp/ccfxSUQM.s 			page 5


 208              	.LVL6:
 209 005d 83C410   		addl	$16, %esp
 210              		.cfi_def_cfa_offset 32
 211 0060 84C0     		testb	%al, %al
 212 0062 75CF     		jne	.L7
 213              	.LBE104:
 214              	.LBB105:
 215              	.LBI105:
 216              		.loc 1 97 13 view .LVU43
 217              	.LBB106:
 218              	.LBB107:
 219              		.loc 1 110 40 view .LVU44
 220              		.loc 1 111 5 view .LVU45
 221              	.LVL7:
 222              		.loc 1 112 5 view .LVU46
 223 0064 83EC08   		subl	$8, %esp
 224              		.cfi_def_cfa_offset 40
 225 0067 56       		pushl	%esi
 226              		.cfi_def_cfa_offset 44
 227 0068 6A01     		pushl	$1
 228              		.cfi_def_cfa_offset 48
 229 006a E8FCFFFF 		call	__test_assert@PLT
 229      FF
 230              	.LVL8:
 231 006f 83C410   		addl	$16, %esp
 232              		.cfi_def_cfa_offset 32
 233 0072 84C0     		testb	%al, %al
 234 0074 75BD     		jne	.L7
 235              		.loc 1 112 40 view .LVU47
 236              	.LBE107:
 237              		.loc 1 114 3 view .LVU48
 238              		.loc 1 114 19 view .LVU49
 239              		.loc 1 117 3 view .LVU50
 240              	.LBB108:
 241              		.loc 1 122 5 is_stmt 0 view .LVU51
 242 0076 83EC08   		subl	$8, %esp
 243              		.cfi_def_cfa_offset 40
 244 0079 8DAB0000 		leal	.LC1@GOTOFF(%ebx), %ebp
 244      0000
 245              	.LBE108:
 246              		.loc 1 117 3 view .LVU52
 247 007f C7070200 		movl	$2, (%edi)
 247      0000
 248              	.LBB109:
 249              		.loc 1 119 5 is_stmt 1 view .LVU53
 250              		.loc 1 121 5 view .LVU54
 251              	.LVL9:
 252              		.loc 1 122 5 view .LVU55
 253 0085 55       		pushl	%ebp
 254              		.cfi_def_cfa_offset 44
 255 0086 6A01     		pushl	$1
 256              		.cfi_def_cfa_offset 48
 257 0088 E8FCFFFF 		call	__test_assert@PLT
 257      FF
 258              	.LVL10:
 259 008d 83C410   		addl	$16, %esp
 260              		.cfi_def_cfa_offset 32
GAS LISTING /tmp/ccfxSUQM.s 			page 6


 261 0090 84C0     		testb	%al, %al
 262 0092 759F     		jne	.L7
 263              		.loc 1 122 43 view .LVU56
 264              		.loc 1 123 5 view .LVU57
 265              	.LVL11:
 266              		.loc 1 124 5 view .LVU58
 267 0094 83EC08   		subl	$8, %esp
 268              		.cfi_def_cfa_offset 40
 269 0097 56       		pushl	%esi
 270              		.cfi_def_cfa_offset 44
 271 0098 6A01     		pushl	$1
 272              		.cfi_def_cfa_offset 48
 273 009a E8FCFFFF 		call	__test_assert@PLT
 273      FF
 274              	.LVL12:
 275 009f 83C410   		addl	$16, %esp
 276              		.cfi_def_cfa_offset 32
 277 00a2 84C0     		testb	%al, %al
 278 00a4 758D     		jne	.L7
 279              		.loc 1 124 40 view .LVU59
 280              		.loc 1 125 5 view .LVU60
 281              	.LVL13:
 282              		.loc 1 126 5 view .LVU61
 283 00a6 83EC08   		subl	$8, %esp
 284              		.cfi_def_cfa_offset 40
 285 00a9 55       		pushl	%ebp
 286              		.cfi_def_cfa_offset 44
 287 00aa 6A01     		pushl	$1
 288              		.cfi_def_cfa_offset 48
 289 00ac E8FCFFFF 		call	__test_assert@PLT
 289      FF
 290              	.LVL14:
 291 00b1 83C410   		addl	$16, %esp
 292              		.cfi_def_cfa_offset 32
 293 00b4 84C0     		testb	%al, %al
 294 00b6 0F8577FF 		jne	.L7
 294      FFFF
 295              		.loc 1 126 43 view .LVU62
 296              		.loc 1 127 5 view .LVU63
 297              	.LVL15:
 298              		.loc 1 128 5 view .LVU64
 299 00bc 83EC08   		subl	$8, %esp
 300              		.cfi_def_cfa_offset 40
 301 00bf 56       		pushl	%esi
 302              		.cfi_def_cfa_offset 44
 303 00c0 6A01     		pushl	$1
 304              		.cfi_def_cfa_offset 48
 305 00c2 E8FCFFFF 		call	__test_assert@PLT
 305      FF
 306              	.LVL16:
 307 00c7 83C410   		addl	$16, %esp
 308              		.cfi_def_cfa_offset 32
 309 00ca 84C0     		testb	%al, %al
 310 00cc 0F8561FF 		jne	.L7
 310      FFFF
 311              		.loc 1 128 40 view .LVU65
 312              	.LBE109:
GAS LISTING /tmp/ccfxSUQM.s 			page 7


 313              		.loc 1 130 3 view .LVU66
 314              		.loc 1 130 19 view .LVU67
 315              		.loc 1 133 3 view .LVU68
 316              	.LBB110:
 317              		.loc 1 138 5 is_stmt 0 view .LVU69
 318 00d2 83EC08   		subl	$8, %esp
 319              		.cfi_def_cfa_offset 40
 320              	.LBE110:
 321              		.loc 1 133 3 view .LVU70
 322 00d5 C7070300 		movl	$3, (%edi)
 322      0000
 323              	.LBB111:
 324              		.loc 1 135 5 is_stmt 1 view .LVU71
 325              		.loc 1 137 5 view .LVU72
 326              	.LVL17:
 327              		.loc 1 138 5 view .LVU73
 328 00db 55       		pushl	%ebp
 329              		.cfi_def_cfa_offset 44
 330 00dc 6A01     		pushl	$1
 331              		.cfi_def_cfa_offset 48
 332 00de E8FCFFFF 		call	__test_assert@PLT
 332      FF
 333              	.LVL18:
 334 00e3 83C410   		addl	$16, %esp
 335              		.cfi_def_cfa_offset 32
 336 00e6 84C0     		testb	%al, %al
 337 00e8 0F8545FF 		jne	.L7
 337      FFFF
 338              		.loc 1 138 43 view .LVU74
 339              		.loc 1 139 5 view .LVU75
 340              	.LVL19:
 341              		.loc 1 140 5 view .LVU76
 342 00ee 83EC08   		subl	$8, %esp
 343              		.cfi_def_cfa_offset 40
 344 00f1 56       		pushl	%esi
 345              		.cfi_def_cfa_offset 44
 346 00f2 6A01     		pushl	$1
 347              		.cfi_def_cfa_offset 48
 348 00f4 E8FCFFFF 		call	__test_assert@PLT
 348      FF
 349              	.LVL20:
 350 00f9 83C410   		addl	$16, %esp
 351              		.cfi_def_cfa_offset 32
 352 00fc 84C0     		testb	%al, %al
 353 00fe 0F852FFF 		jne	.L7
 353      FFFF
 354              		.loc 1 140 40 view .LVU77
 355              		.loc 1 141 5 view .LVU78
 356              	.LVL21:
 357              		.loc 1 142 5 view .LVU79
 358 0104 52       		pushl	%edx
 359              		.cfi_def_cfa_offset 36
 360 0105 52       		pushl	%edx
 361              		.cfi_def_cfa_offset 40
 362 0106 55       		pushl	%ebp
 363              		.cfi_def_cfa_offset 44
 364 0107 6A01     		pushl	$1
GAS LISTING /tmp/ccfxSUQM.s 			page 8


 365              		.cfi_def_cfa_offset 48
 366 0109 E8FCFFFF 		call	__test_assert@PLT
 366      FF
 367              	.LVL22:
 368 010e 83C410   		addl	$16, %esp
 369              		.cfi_def_cfa_offset 32
 370 0111 84C0     		testb	%al, %al
 371 0113 0F851AFF 		jne	.L7
 371      FFFF
 372              		.loc 1 142 43 view .LVU80
 373              		.loc 1 143 5 view .LVU81
 374              	.LVL23:
 375              		.loc 1 144 5 view .LVU82
 376 0119 50       		pushl	%eax
 377              		.cfi_def_cfa_offset 36
 378 011a 50       		pushl	%eax
 379              		.cfi_def_cfa_offset 40
 380 011b 56       		pushl	%esi
 381              		.cfi_def_cfa_offset 44
 382 011c 6A01     		pushl	$1
 383              		.cfi_def_cfa_offset 48
 384 011e E8FCFFFF 		call	__test_assert@PLT
 384      FF
 385              	.LVL24:
 386 0123 83C410   		addl	$16, %esp
 387              		.cfi_def_cfa_offset 32
 388              	.LVL25:
 389              		.loc 1 144 5 is_stmt 0 view .LVU83
 390              	.LBE111:
 391              	.LBE106:
 392              	.LBE105:
 393              		.loc 1 144 40 is_stmt 1 view .LVU84
 394              		.loc 1 146 3 view .LVU85
 395              		.loc 1 146 19 view .LVU86
 396              	.LBB114:
 397              	.LBB113:
 398              	.LBB112:
 399 0126 E908FFFF 		jmp	.L7
 399      FF
 400              	.LBE112:
 401              	.LBE113:
 402              	.LBE114:
 403              		.cfi_endproc
 404              	.LFE304:
 405              		.size	rt_test_003_002_execute, .-rt_test_003_002_execute
 406              		.globl	rt_test_sequence_003
 407              		.section	.rodata.str1.4,"aMS",@progbits,1
 408              		.align 4
 409              	.LC2:
 410 0000 54696D65 		.string	"Time and Intervals Functionality"
 410      20616E64 
 410      20496E74 
 410      65727661 
 410      6C732046 
 411              		.section	.data.rel.ro.local.rt_test_sequence_003,"aw"
 412              		.align 4
 413              		.type	rt_test_sequence_003, @object
GAS LISTING /tmp/ccfxSUQM.s 			page 9


 414              		.size	rt_test_sequence_003, 8
 415              	rt_test_sequence_003:
 416 0000 00000000 		.long	.LC2
 417 0004 00000000 		.long	rt_test_sequence_003_array
 418              		.globl	rt_test_sequence_003_array
 419              		.section	.data.rel.ro.local.rt_test_sequence_003_array,"aw"
 420              		.align 4
 421              		.type	rt_test_sequence_003_array, @object
 422              		.size	rt_test_sequence_003_array, 12
 423              	rt_test_sequence_003_array:
 424 0000 00000000 		.long	rt_test_003_001
 425 0004 00000000 		.long	rt_test_003_002
 426 0008 00000000 		.long	0
 427              		.section	.rodata.str1.1,"aMS",@progbits,1
 428              	.LC3:
 429 0000 54696D65 		.string	"Time ranges functionality"
 429      2072616E 
 429      67657320 
 429      66756E63 
 429      74696F6E 
 430              		.section	.data.rel.ro.local.rt_test_003_002,"aw"
 431              		.align 4
 432              		.type	rt_test_003_002, @object
 433              		.size	rt_test_003_002, 16
 434              	rt_test_003_002:
 435 0000 00000000 		.long	.LC3
 436 0004 00000000 		.long	0
 437 0008 00000000 		.long	0
 438 000c 00000000 		.long	rt_test_003_002_execute
 439              		.section	.rodata.str1.4
 440 0021 000000   		.align 4
 441              	.LC4:
 442 0024 53797374 		.string	"System Tick Counter functionality"
 442      656D2054 
 442      69636B20 
 442      436F756E 
 442      74657220 
 443              		.section	.data.rel.ro.local.rt_test_003_001,"aw"
 444              		.align 4
 445              		.type	rt_test_003_001, @object
 446              		.size	rt_test_003_001, 16
 447              	rt_test_003_001:
 448 0000 24000000 		.long	.LC4
 449 0004 00000000 		.long	0
 450 0008 00000000 		.long	0
 451 000c 00000000 		.long	rt_test_003_001_execute
 452              		.section	.text.__x86.get_pc_thunk.bx,"axG",@progbits,__x86.get_pc_thunk.bx,comdat
 453              		.globl	__x86.get_pc_thunk.bx
 454              		.hidden	__x86.get_pc_thunk.bx
 455              		.type	__x86.get_pc_thunk.bx, @function
 456              	__x86.get_pc_thunk.bx:
 457              	.LFB306:
 458              		.cfi_startproc
 459 0000 8B1C24   		movl	(%esp), %ebx
 460 0003 C3       		ret
 461              		.cfi_endproc
 462              	.LFE306:
GAS LISTING /tmp/ccfxSUQM.s 			page 10


 463              		.text
 464              	.Letext0:
 465              		.file 3 "/usr/lib/gcc/x86_64-linux-gnu/11/include/stddef.h"
 466              		.file 4 "/usr/include/bits/types.h"
 467              		.file 5 "/usr/include/bits/stdint-intn.h"
 468              		.file 6 "/usr/include/bits/stdint-uintn.h"
 469              		.file 7 "../../../os/common/ports/SIMIA32/compilers/GCC/chtypes.h"
 470              		.file 8 "../../../os/rt/include/chearly.h"
 471              		.file 9 "../../../os/rt/include/chobjects.h"
 472              		.file 10 "../../../os/rt/include/chrfcu.h"
 473              		.file 11 "../../../os/rt/include/chdebug.h"
 474              		.file 12 "../../../os/rt/include/chtime.h"
 475              		.file 13 "../../../os/rt/include/chlists.h"
 476              		.file 14 "../../../os/common/ports/SIMIA32/chcore.h"
 477              		.file 15 "../../../os/rt/include/chsem.h"
 478              		.file 16 "../../../os/rt/include/chmtx.h"
 479              		.file 17 "../../../os/hal/include/hal_streams.h"
 480              		.file 18 "../../../os/test/include/ch_test.h"
 481              		.file 19 "../../../test/rt/source/test/rt_test_sequence_003.h"
 482              		.file 20 "../../../os/rt/include/chsys.h"
 483              		.file 21 "../../../os/hal/ports/simulator/posix/hal_lld.h"
 3295 0063 2F686F6D 		.section	.note.GNU-stack,"",@progbits
 3295      652F616C 
 3295      65782F43 
 3295      68696269 
 3295      4F532F64 
GAS LISTING /tmp/ccfxSUQM.s 			page 66

