GAS LISTING /tmp/ccVaQ2UV.s 			page 1


   1              		.file	"rt_test_sequence_008.c"
   2              		.text
   3              	.Ltext0:
   4              		.file 0 "/home/alex/ChibiOS/demos/various/LAB3_VARIANT2" "../../../test/rt/source/test/rt_test_seq
   5              		.section	.text.rt_test_008_004_teardown,"ax",@progbits
   6              		.p2align 4
   7              		.type	rt_test_008_004_teardown, @function
   8              	rt_test_008_004_teardown:
   9              	.LFB312:
  10              		.file 1 "../../../test/rt/source/test/rt_test_sequence_008.c"
  11              		.loc 1 495 44 view -0
  12              		.cfi_startproc
  13              		.loc 1 496 3 view .LVU1
  14              		.loc 1 495 44 is_stmt 0 view .LVU2
  15 0000 53       		pushl	%ebx
  16              		.cfi_def_cfa_offset 8
  17              		.cfi_offset 3, -8
  18 0001 E8FCFFFF 		call	__x86.get_pc_thunk.bx
  18      FF
  19 0006 81C30200 		addl	$_GLOBAL_OFFSET_TABLE_, %ebx
  19      0000
  20 000c 83EC08   		subl	$8, %esp
  21              		.cfi_def_cfa_offset 16
  22              		.loc 1 496 3 view .LVU3
  23 000f E8FCFFFF 		call	test_wait_threads@PLT
  23      FF
  24              	.LVL0:
  25              		.loc 1 497 1 view .LVU4
  26 0014 83C408   		addl	$8, %esp
  27              		.cfi_def_cfa_offset 8
  28 0017 5B       		popl	%ebx
  29              		.cfi_restore 3
  30              		.cfi_def_cfa_offset 4
  31 0018 C3       		ret
  32              		.cfi_endproc
  33              	.LFE312:
  34              		.size	rt_test_008_004_teardown, .-rt_test_008_004_teardown
  35              		.section	.rodata.rt_test_008_009_execute.str1.1,"aMS",@progbits,1
  36              	.LC0:
  37 0000 4100     		.string	"A"
  38              	.LC1:
  39 0002 4300     		.string	"C"
  40              	.LC2:
  41 0004 4200     		.string	"B"
  42              	.LC3:
  43 0006 696E7661 		.string	"invalid sequence"
  43      6C696420 
  43      73657175 
  43      656E6365 
  43      00
  44              	.LC4:
  45 0017 41424300 		.string	"ABC"
  46              		.section	.text.rt_test_008_009_execute,"ax",@progbits
  47              		.p2align 4
  48              		.type	rt_test_008_009_execute, @function
  49              	rt_test_008_009_execute:
  50              	.LFB321:
GAS LISTING /tmp/ccVaQ2UV.s 			page 2


  51              		.loc 1 1014 43 is_stmt 1 view -0
  52              		.cfi_startproc
  53              		.loc 1 1015 3 view .LVU6
  54              		.loc 1 1018 3 view .LVU7
  55              		.loc 1 1020 5 view .LVU8
  56              	.LBB90:
  57              	.LBI90:
  58              		.file 2 "../../../os/rt/include/chthreads.h"
  59              		.loc 2 540 23 view .LVU9
  60              	.LBB91:
  61              		.loc 2 542 3 view .LVU10
  62              	.LBB92:
  63              	.LBI92:
  64              		.loc 2 527 25 view .LVU11
  65              	.LBB93:
  66              		.loc 2 529 3 view .LVU12
  67              	.LBE93:
  68              	.LBE92:
  69              	.LBE91:
  70              	.LBE90:
  71              		.loc 1 1014 43 is_stmt 0 view .LVU13
  72 0000 55       		pushl	%ebp
  73              		.cfi_def_cfa_offset 8
  74              		.cfi_offset 5, -8
  75 0001 57       		pushl	%edi
  76              		.cfi_def_cfa_offset 12
  77              		.cfi_offset 7, -12
  78 0002 56       		pushl	%esi
  79              		.cfi_def_cfa_offset 16
  80              		.cfi_offset 6, -16
  81 0003 53       		pushl	%ebx
  82              		.cfi_def_cfa_offset 20
  83              		.cfi_offset 3, -20
  84 0004 E8FCFFFF 		call	__x86.get_pc_thunk.bx
  84      FF
  85 0009 81C30200 		addl	$_GLOBAL_OFFSET_TABLE_, %ebx
  85      0000
  86 000f 83EC28   		subl	$40, %esp
  87              		.cfi_def_cfa_offset 60
  88              	.LBB99:
  89              	.LBB96:
  90              	.LBB95:
  91              	.LBB94:
  92              		.loc 2 529 10 view .LVU14
  93 0012 8B830000 		movl	ch0@GOT(%ebx), %eax
  93      0000
  94              	.LBE94:
  95              	.LBE95:
  96              	.LBE96:
  97              	.LBE99:
  98              		.loc 1 1028 38 view .LVU15
  99 0018 8B930000 		movl	wa@GOT(%ebx), %edx
  99      0000
 100              		.loc 1 1026 3 view .LVU16
 101 001e 8BB30000 		movl	chtest@GOT(%ebx), %esi
 101      0000
 102              	.LBB100:
GAS LISTING /tmp/ccVaQ2UV.s 			page 3


 103              	.LBB97:
 104              		.loc 2 542 37 view .LVU17
 105 0024 8B400C   		movl	12(%eax), %eax
 106              	.LBE97:
 107              	.LBE100:
 108              		.loc 1 1026 3 view .LVU18
 109 0027 C7060200 		movl	$2, (%esi)
 109      0000
 110              	.LBB101:
 111              	.LBB98:
 112              		.loc 2 542 37 view .LVU19
 113 002d 8B7808   		movl	8(%eax), %edi
 114              	.LVL1:
 115              		.loc 2 542 37 view .LVU20
 116              	.LBE98:
 117              	.LBE101:
 118              		.loc 1 1022 3 is_stmt 1 view .LVU21
 119              		.loc 1 1022 19 view .LVU22
 120              		.loc 1 1026 3 view .LVU23
 121              		.loc 1 1028 5 view .LVU24
 122              		.loc 1 1028 18 is_stmt 0 view .LVU25
 123 0030 8D830000 		leal	.LC0@GOTOFF(%ebx), %eax
 123      0000
 124 0036 50       		pushl	%eax
 125              		.cfi_def_cfa_offset 64
 126 0037 8D830000 		leal	thread8@GOTOFF(%ebx), %eax
 126      0000
 127 003d 50       		pushl	%eax
 128              		.cfi_def_cfa_offset 68
 129 003e 8D4701   		leal	1(%edi), %eax
 130 0041 50       		pushl	%eax
 131              		.cfi_def_cfa_offset 72
 132 0042 68404100 		pushl	$16704
 132      00
 133              		.cfi_def_cfa_offset 76
 134 0047 FF32     		pushl	(%edx)
 135              		.cfi_def_cfa_offset 80
 136 0049 8954242C 		movl	%edx, 44(%esp)
 137 004d E8FCFFFF 		call	chThdCreateStatic@PLT
 137      FF
 138              	.LVL2:
 139              		.loc 1 1028 16 view .LVU26
 140 0052 8BAB0000 		movl	threads@GOT(%ebx), %ebp
 140      0000
 141              		.loc 1 1036 18 view .LVU27
 142 0058 83C414   		addl	$20, %esp
 143              		.cfi_def_cfa_offset 60
 144              		.loc 1 1034 3 view .LVU28
 145 005b C7060300 		movl	$3, (%esi)
 145      0000
 146              		.loc 1 1028 16 view .LVU29
 147 0061 894500   		movl	%eax, 0(%ebp)
 148              		.loc 1 1030 3 is_stmt 1 view .LVU30
 149              		.loc 1 1030 19 view .LVU31
 150              		.loc 1 1034 3 view .LVU32
 151              		.loc 1 1036 5 view .LVU33
 152              		.loc 1 1036 18 is_stmt 0 view .LVU34
GAS LISTING /tmp/ccVaQ2UV.s 			page 4


 153 0064 8D830000 		leal	.LC1@GOTOFF(%ebx), %eax
 153      0000
 154 006a 50       		pushl	%eax
 155              		.cfi_def_cfa_offset 64
 156 006b 8D830000 		leal	thread6@GOTOFF(%ebx), %eax
 156      0000
 157 0071 50       		pushl	%eax
 158              		.cfi_def_cfa_offset 68
 159 0072 8D4702   		leal	2(%edi), %eax
 160              		.loc 1 1044 18 view .LVU35
 161 0075 83C703   		addl	$3, %edi
 162              	.LVL3:
 163              		.loc 1 1036 18 view .LVU36
 164 0078 50       		pushl	%eax
 165              		.cfi_def_cfa_offset 72
 166 0079 68404100 		pushl	$16704
 166      00
 167              		.cfi_def_cfa_offset 76
 168 007e 8B542428 		movl	40(%esp), %edx
 169 0082 FF7204   		pushl	4(%edx)
 170              		.cfi_def_cfa_offset 80
 171 0085 8954242C 		movl	%edx, 44(%esp)
 172 0089 E8FCFFFF 		call	chThdCreateStatic@PLT
 172      FF
 173              	.LVL4:
 174              		.loc 1 1044 18 view .LVU37
 175 008e 83C414   		addl	$20, %esp
 176              		.cfi_def_cfa_offset 60
 177              		.loc 1 1042 3 view .LVU38
 178 0091 C7060400 		movl	$4, (%esi)
 178      0000
 179              		.loc 1 1036 16 view .LVU39
 180 0097 894504   		movl	%eax, 4(%ebp)
 181              		.loc 1 1038 3 is_stmt 1 view .LVU40
 182              		.loc 1 1038 19 view .LVU41
 183              		.loc 1 1042 3 view .LVU42
 184              		.loc 1 1044 5 view .LVU43
 185              		.loc 1 1044 18 is_stmt 0 view .LVU44
 186 009a 8D830000 		leal	.LC2@GOTOFF(%ebx), %eax
 186      0000
 187 00a0 50       		pushl	%eax
 188              		.cfi_def_cfa_offset 64
 189 00a1 8D830000 		leal	thread9@GOTOFF(%ebx), %eax
 189      0000
 190 00a7 50       		pushl	%eax
 191              		.cfi_def_cfa_offset 68
 192 00a8 57       		pushl	%edi
 193              		.cfi_def_cfa_offset 72
 194              		.loc 1 1053 5 view .LVU45
 195 00a9 8DBB0000 		leal	c1@GOTOFF(%ebx), %edi
 195      0000
 196              	.LVL5:
 197              		.loc 1 1044 18 view .LVU46
 198 00af 68404100 		pushl	$16704
 198      00
 199              		.cfi_def_cfa_offset 76
 200 00b4 8B542428 		movl	40(%esp), %edx
GAS LISTING /tmp/ccVaQ2UV.s 			page 5


 201 00b8 FF7208   		pushl	8(%edx)
 202              		.cfi_def_cfa_offset 80
 203 00bb E8FCFFFF 		call	chThdCreateStatic@PLT
 203      FF
 204              	.LVL6:
 205              		.loc 1 1053 5 view .LVU47
 206 00c0 83C414   		addl	$20, %esp
 207              		.cfi_def_cfa_offset 60
 208              		.loc 1 1051 3 view .LVU48
 209 00c3 C7060500 		movl	$5, (%esi)
 209      0000
 210              		.loc 1 1053 5 view .LVU49
 211 00c9 57       		pushl	%edi
 212              		.cfi_def_cfa_offset 64
 213              		.loc 1 1044 16 view .LVU50
 214 00ca 894508   		movl	%eax, 8(%ebp)
 215              		.loc 1 1046 3 is_stmt 1 view .LVU51
 216              		.loc 1 1046 19 view .LVU52
 217              		.loc 1 1051 3 view .LVU53
 218              		.loc 1 1053 5 view .LVU54
 219 00cd E8FCFFFF 		call	chCondSignal@PLT
 219      FF
 220              	.LVL7:
 221              		.loc 1 1055 3 view .LVU55
 222              		.loc 1 1055 19 view .LVU56
 223              		.loc 1 1058 3 view .LVU57
 224              		.loc 1 1060 5 is_stmt 0 view .LVU58
 225 00d2 893C24   		movl	%edi, (%esp)
 226              		.loc 1 1058 3 view .LVU59
 227 00d5 C7060600 		movl	$6, (%esi)
 227      0000
 228              		.loc 1 1060 5 is_stmt 1 view .LVU60
 229 00db E8FCFFFF 		call	chCondSignal@PLT
 229      FF
 230              	.LVL8:
 231              		.loc 1 1062 3 view .LVU61
 232              		.loc 1 1062 19 view .LVU62
 233              		.loc 1 1065 3 view .LVU63
 234 00e0 C7060700 		movl	$7, (%esi)
 234      0000
 235              		.loc 1 1067 5 view .LVU64
 236 00e6 E8FCFFFF 		call	test_wait_threads@PLT
 236      FF
 237              	.LVL9:
 238              		.loc 1 1068 5 view .LVU65
 239 00eb 58       		popl	%eax
 240              		.cfi_def_cfa_offset 60
 241 00ec 8D830000 		leal	.LC3@GOTOFF(%ebx), %eax
 241      0000
 242 00f2 5A       		popl	%edx
 243              		.cfi_def_cfa_offset 56
 244 00f3 50       		pushl	%eax
 245              		.cfi_def_cfa_offset 60
 246 00f4 8D830000 		leal	.LC4@GOTOFF(%ebx), %eax
 246      0000
 247 00fa 50       		pushl	%eax
 248              		.cfi_def_cfa_offset 64
GAS LISTING /tmp/ccVaQ2UV.s 			page 6


 249 00fb E8FCFFFF 		call	__test_assert_sequence@PLT
 249      FF
 250              	.LVL10:
 251              		.loc 1 1068 52 view .LVU66
 252              		.loc 1 1070 3 view .LVU67
 253              		.loc 1 1070 19 view .LVU68
 254              		.loc 1 1071 1 is_stmt 0 view .LVU69
 255 0100 83C42C   		addl	$44, %esp
 256              		.cfi_def_cfa_offset 20
 257 0103 5B       		popl	%ebx
 258              		.cfi_restore 3
 259              		.cfi_def_cfa_offset 16
 260 0104 5E       		popl	%esi
 261              		.cfi_restore 6
 262              		.cfi_def_cfa_offset 12
 263 0105 5F       		popl	%edi
 264              		.cfi_restore 7
 265              		.cfi_def_cfa_offset 8
 266 0106 5D       		popl	%ebp
 267              		.cfi_restore 5
 268              		.cfi_def_cfa_offset 4
 269 0107 C3       		ret
 270              		.cfi_endproc
 271              	.LFE321:
 272              		.size	rt_test_008_009_execute, .-rt_test_008_009_execute
 273              		.section	.text.thread9,"ax",@progbits
 274              		.p2align 4
 275              		.type	thread9, @function
 276              	thread9:
 277              	.LVL11:
 278              	.LFB308:
 279              		.loc 1 223 33 is_stmt 1 view -0
 280              		.cfi_startproc
 281              		.loc 1 225 3 view .LVU71
 282              		.loc 1 223 33 is_stmt 0 view .LVU72
 283 0000 56       		pushl	%esi
 284              		.cfi_def_cfa_offset 8
 285              		.cfi_offset 6, -8
 286 0001 53       		pushl	%ebx
 287              		.cfi_def_cfa_offset 12
 288              		.cfi_offset 3, -12
 289 0002 E8FCFFFF 		call	__x86.get_pc_thunk.bx
 289      FF
 290 0007 81C30200 		addl	$_GLOBAL_OFFSET_TABLE_, %ebx
 290      0000
 291 000d 83EC10   		subl	$16, %esp
 292              		.cfi_def_cfa_offset 28
 293              		.loc 1 225 3 view .LVU73
 294 0010 8DB30000 		leal	m2@GOTOFF(%ebx), %esi
 294      0000
 295 0016 56       		pushl	%esi
 296              		.cfi_def_cfa_offset 32
 297 0017 E8FCFFFF 		call	chMtxLock@PLT
 297      FF
 298              	.LVL12:
 299              		.loc 1 226 3 is_stmt 1 view .LVU74
 300 001c 8B442420 		movl	32(%esp), %eax
GAS LISTING /tmp/ccVaQ2UV.s 			page 7


 301 0020 0FBE00   		movsbl	(%eax), %eax
 302 0023 890424   		movl	%eax, (%esp)
 303 0026 E8FCFFFF 		call	test_emit_token@PLT
 303      FF
 304              	.LVL13:
 305              		.loc 1 227 3 view .LVU75
 306 002b 893424   		movl	%esi, (%esp)
 307 002e E8FCFFFF 		call	chMtxUnlock@PLT
 307      FF
 308              	.LVL14:
 309              		.loc 1 228 1 is_stmt 0 view .LVU76
 310 0033 83C414   		addl	$20, %esp
 311              		.cfi_def_cfa_offset 12
 312 0036 5B       		popl	%ebx
 313              		.cfi_restore 3
 314              		.cfi_def_cfa_offset 8
 315 0037 5E       		popl	%esi
 316              		.cfi_restore 6
 317              		.cfi_def_cfa_offset 4
 318 0038 C3       		ret
 319              		.cfi_endproc
 320              	.LFE308:
 321              		.size	thread9, .-thread9
 322              		.section	.text.thread1,"ax",@progbits
 323              		.p2align 4
 324              		.type	thread1, @function
 325              	thread1:
 326              	.LVL15:
 327              	.LFB303:
 328              		.loc 1 85 33 is_stmt 1 view -0
 329              		.cfi_startproc
 330              		.loc 1 87 3 view .LVU78
 331              		.loc 1 85 33 is_stmt 0 view .LVU79
 332 0000 56       		pushl	%esi
 333              		.cfi_def_cfa_offset 8
 334              		.cfi_offset 6, -8
 335 0001 53       		pushl	%ebx
 336              		.cfi_def_cfa_offset 12
 337              		.cfi_offset 3, -12
 338 0002 E8FCFFFF 		call	__x86.get_pc_thunk.bx
 338      FF
 339 0007 81C30200 		addl	$_GLOBAL_OFFSET_TABLE_, %ebx
 339      0000
 340 000d 83EC10   		subl	$16, %esp
 341              		.cfi_def_cfa_offset 28
 342              		.loc 1 87 3 view .LVU80
 343 0010 8DB30000 		leal	m1@GOTOFF(%ebx), %esi
 343      0000
 344 0016 56       		pushl	%esi
 345              		.cfi_def_cfa_offset 32
 346 0017 E8FCFFFF 		call	chMtxLock@PLT
 346      FF
 347              	.LVL16:
 348              		.loc 1 88 3 is_stmt 1 view .LVU81
 349 001c 8B442420 		movl	32(%esp), %eax
 350 0020 0FBE00   		movsbl	(%eax), %eax
 351 0023 890424   		movl	%eax, (%esp)
GAS LISTING /tmp/ccVaQ2UV.s 			page 8


 352 0026 E8FCFFFF 		call	test_emit_token@PLT
 352      FF
 353              	.LVL17:
 354              		.loc 1 89 3 view .LVU82
 355 002b 893424   		movl	%esi, (%esp)
 356 002e E8FCFFFF 		call	chMtxUnlock@PLT
 356      FF
 357              	.LVL18:
 358              		.loc 1 90 1 is_stmt 0 view .LVU83
 359 0033 83C414   		addl	$20, %esp
 360              		.cfi_def_cfa_offset 12
 361 0036 5B       		popl	%ebx
 362              		.cfi_restore 3
 363              		.cfi_def_cfa_offset 8
 364 0037 5E       		popl	%esi
 365              		.cfi_restore 6
 366              		.cfi_def_cfa_offset 4
 367 0038 C3       		ret
 368              		.cfi_endproc
 369              	.LFE303:
 370              		.size	thread1, .-thread1
 371              		.section	.text.thread6,"ax",@progbits
 372              		.p2align 4
 373              		.type	thread6, @function
 374              	thread6:
 375              	.LVL19:
 376              	.LFB306:
 377              		.loc 1 201 33 is_stmt 1 view -0
 378              		.cfi_startproc
 379              		.loc 1 203 3 view .LVU85
 380              		.loc 1 201 33 is_stmt 0 view .LVU86
 381 0000 56       		pushl	%esi
 382              		.cfi_def_cfa_offset 8
 383              		.cfi_offset 6, -8
 384 0001 53       		pushl	%ebx
 385              		.cfi_def_cfa_offset 12
 386              		.cfi_offset 3, -12
 387 0002 E8FCFFFF 		call	__x86.get_pc_thunk.bx
 387      FF
 388 0007 81C30200 		addl	$_GLOBAL_OFFSET_TABLE_, %ebx
 388      0000
 389 000d 83EC10   		subl	$16, %esp
 390              		.cfi_def_cfa_offset 28
 391              		.loc 1 203 3 view .LVU87
 392 0010 8DB30000 		leal	m1@GOTOFF(%ebx), %esi
 392      0000
 393 0016 56       		pushl	%esi
 394              		.cfi_def_cfa_offset 32
 395 0017 E8FCFFFF 		call	chMtxLock@PLT
 395      FF
 396              	.LVL20:
 397              		.loc 1 204 3 is_stmt 1 view .LVU88
 398 001c 8D830000 		leal	c1@GOTOFF(%ebx), %eax
 398      0000
 399 0022 890424   		movl	%eax, (%esp)
 400 0025 E8FCFFFF 		call	chCondWait@PLT
 400      FF
GAS LISTING /tmp/ccVaQ2UV.s 			page 9


 401              	.LVL21:
 402              		.loc 1 205 3 view .LVU89
 403 002a 8B442420 		movl	32(%esp), %eax
 404 002e 0FBE00   		movsbl	(%eax), %eax
 405 0031 890424   		movl	%eax, (%esp)
 406 0034 E8FCFFFF 		call	test_emit_token@PLT
 406      FF
 407              	.LVL22:
 408              		.loc 1 206 3 view .LVU90
 409 0039 893424   		movl	%esi, (%esp)
 410 003c E8FCFFFF 		call	chMtxUnlock@PLT
 410      FF
 411              	.LVL23:
 412              		.loc 1 207 1 is_stmt 0 view .LVU91
 413 0041 83C414   		addl	$20, %esp
 414              		.cfi_def_cfa_offset 12
 415 0044 5B       		popl	%ebx
 416              		.cfi_restore 3
 417              		.cfi_def_cfa_offset 8
 418 0045 5E       		popl	%esi
 419              		.cfi_restore 6
 420              		.cfi_def_cfa_offset 4
 421 0046 C3       		ret
 422              		.cfi_endproc
 423              	.LFE306:
 424              		.size	thread6, .-thread6
 425              		.section	.text.thread8,"ax",@progbits
 426              		.p2align 4
 427              		.type	thread8, @function
 428              	thread8:
 429              	.LVL24:
 430              	.LFB307:
 431              		.loc 1 209 33 is_stmt 1 view -0
 432              		.cfi_startproc
 433              		.loc 1 211 3 view .LVU93
 434              		.loc 1 209 33 is_stmt 0 view .LVU94
 435 0000 57       		pushl	%edi
 436              		.cfi_def_cfa_offset 8
 437              		.cfi_offset 7, -8
 438 0001 56       		pushl	%esi
 439              		.cfi_def_cfa_offset 12
 440              		.cfi_offset 6, -12
 441 0002 53       		pushl	%ebx
 442              		.cfi_def_cfa_offset 16
 443              		.cfi_offset 3, -16
 444 0003 E8FCFFFF 		call	__x86.get_pc_thunk.bx
 444      FF
 445 0008 81C30200 		addl	$_GLOBAL_OFFSET_TABLE_, %ebx
 445      0000
 446              		.loc 1 211 3 view .LVU95
 447 000e 83EC0C   		subl	$12, %esp
 448              		.cfi_def_cfa_offset 28
 449 0011 8DB30000 		leal	m2@GOTOFF(%ebx), %esi
 449      0000
 450              		.loc 1 212 3 view .LVU96
 451 0017 8DBB0000 		leal	m1@GOTOFF(%ebx), %edi
 451      0000
GAS LISTING /tmp/ccVaQ2UV.s 			page 10


 452              		.loc 1 211 3 view .LVU97
 453 001d 56       		pushl	%esi
 454              		.cfi_def_cfa_offset 32
 455 001e E8FCFFFF 		call	chMtxLock@PLT
 455      FF
 456              	.LVL25:
 457              		.loc 1 212 3 is_stmt 1 view .LVU98
 458 0023 893C24   		movl	%edi, (%esp)
 459 0026 E8FCFFFF 		call	chMtxLock@PLT
 459      FF
 460              	.LVL26:
 461              		.loc 1 214 3 view .LVU99
 462 002b 58       		popl	%eax
 463              		.cfi_def_cfa_offset 28
 464 002c 8D830000 		leal	c1@GOTOFF(%ebx), %eax
 464      0000
 465 0032 5A       		popl	%edx
 466              		.cfi_def_cfa_offset 24
 467 0033 6AFF     		pushl	$-1
 468              		.cfi_def_cfa_offset 28
 469 0035 50       		pushl	%eax
 470              		.cfi_def_cfa_offset 32
 471 0036 E8FCFFFF 		call	chCondWaitTimeout@PLT
 471      FF
 472              	.LVL27:
 473              		.loc 1 218 3 view .LVU100
 474 003b 8B442420 		movl	32(%esp), %eax
 475 003f 0FBE00   		movsbl	(%eax), %eax
 476 0042 890424   		movl	%eax, (%esp)
 477 0045 E8FCFFFF 		call	test_emit_token@PLT
 477      FF
 478              	.LVL28:
 479              		.loc 1 219 3 view .LVU101
 480 004a 893C24   		movl	%edi, (%esp)
 481 004d E8FCFFFF 		call	chMtxUnlock@PLT
 481      FF
 482              	.LVL29:
 483              		.loc 1 220 3 view .LVU102
 484 0052 893424   		movl	%esi, (%esp)
 485 0055 E8FCFFFF 		call	chMtxUnlock@PLT
 485      FF
 486              	.LVL30:
 487              		.loc 1 221 1 is_stmt 0 view .LVU103
 488 005a 83C410   		addl	$16, %esp
 489              		.cfi_def_cfa_offset 16
 490 005d 5B       		popl	%ebx
 491              		.cfi_restore 3
 492              		.cfi_def_cfa_offset 12
 493 005e 5E       		popl	%esi
 494              		.cfi_restore 6
 495              		.cfi_def_cfa_offset 8
 496 005f 5F       		popl	%edi
 497              		.cfi_restore 7
 498              		.cfi_def_cfa_offset 4
 499 0060 C3       		ret
 500              		.cfi_endproc
 501              	.LFE307:
GAS LISTING /tmp/ccVaQ2UV.s 			page 11


 502              		.size	thread8, .-thread8
 503              		.section	.text.rt_test_008_009_setup,"ax",@progbits
 504              		.p2align 4
 505              		.type	rt_test_008_009_setup, @function
 506              	rt_test_008_009_setup:
 507              	.LFB320:
 508              		.loc 1 1008 41 is_stmt 1 view -0
 509              		.cfi_startproc
 510              		.loc 1 1009 3 view .LVU105
 511              		.loc 1 1008 41 is_stmt 0 view .LVU106
 512 0000 53       		pushl	%ebx
 513              		.cfi_def_cfa_offset 8
 514              		.cfi_offset 3, -8
 515 0001 E8FCFFFF 		call	__x86.get_pc_thunk.bx
 515      FF
 516 0006 81C30200 		addl	$_GLOBAL_OFFSET_TABLE_, %ebx
 516      0000
 517 000c 83EC14   		subl	$20, %esp
 518              		.cfi_def_cfa_offset 28
 519              		.loc 1 1009 3 view .LVU107
 520 000f 8D830000 		leal	c1@GOTOFF(%ebx), %eax
 520      0000
 521 0015 50       		pushl	%eax
 522              		.cfi_def_cfa_offset 32
 523 0016 E8FCFFFF 		call	chCondObjectInit@PLT
 523      FF
 524              	.LVL31:
 525              		.loc 1 1010 3 is_stmt 1 view .LVU108
 526 001b 8D830000 		leal	m1@GOTOFF(%ebx), %eax
 526      0000
 527 0021 890424   		movl	%eax, (%esp)
 528 0024 E8FCFFFF 		call	chMtxObjectInit@PLT
 528      FF
 529              	.LVL32:
 530              		.loc 1 1011 3 view .LVU109
 531 0029 8D830000 		leal	m2@GOTOFF(%ebx), %eax
 531      0000
 532 002f 890424   		movl	%eax, (%esp)
 533 0032 E8FCFFFF 		call	chMtxObjectInit@PLT
 533      FF
 534              	.LVL33:
 535              		.loc 1 1012 1 is_stmt 0 view .LVU110
 536 0037 83C418   		addl	$24, %esp
 537              		.cfi_def_cfa_offset 8
 538 003a 5B       		popl	%ebx
 539              		.cfi_restore 3
 540              		.cfi_def_cfa_offset 4
 541 003b C3       		ret
 542              		.cfi_endproc
 543              	.LFE320:
 544              		.size	rt_test_008_009_setup, .-rt_test_008_009_setup
 545              		.section	.text.rt_test_008_007_setup,"ax",@progbits
 546              		.p2align 4
 547              		.type	rt_test_008_007_setup, @function
 548              	rt_test_008_007_setup:
 549              	.LFB316:
 550              		.loc 1 864 41 is_stmt 1 view -0
GAS LISTING /tmp/ccVaQ2UV.s 			page 12


 551              		.cfi_startproc
 552              		.loc 1 865 3 view .LVU112
 553              		.loc 1 864 41 is_stmt 0 view .LVU113
 554 0000 53       		pushl	%ebx
 555              		.cfi_def_cfa_offset 8
 556              		.cfi_offset 3, -8
 557 0001 E8FCFFFF 		call	__x86.get_pc_thunk.bx
 557      FF
 558 0006 81C30200 		addl	$_GLOBAL_OFFSET_TABLE_, %ebx
 558      0000
 559 000c 83EC14   		subl	$20, %esp
 560              		.cfi_def_cfa_offset 28
 561              		.loc 1 865 3 view .LVU114
 562 000f 8D830000 		leal	c1@GOTOFF(%ebx), %eax
 562      0000
 563 0015 50       		pushl	%eax
 564              		.cfi_def_cfa_offset 32
 565 0016 E8FCFFFF 		call	chCondObjectInit@PLT
 565      FF
 566              	.LVL34:
 567              		.loc 1 866 3 is_stmt 1 view .LVU115
 568 001b 8D830000 		leal	m1@GOTOFF(%ebx), %eax
 568      0000
 569 0021 890424   		movl	%eax, (%esp)
 570 0024 E8FCFFFF 		call	chMtxObjectInit@PLT
 570      FF
 571              	.LVL35:
 572              		.loc 1 867 1 is_stmt 0 view .LVU116
 573 0029 83C418   		addl	$24, %esp
 574              		.cfi_def_cfa_offset 8
 575 002c 5B       		popl	%ebx
 576              		.cfi_restore 3
 577              		.cfi_def_cfa_offset 4
 578 002d C3       		ret
 579              		.cfi_endproc
 580              	.LFE316:
 581              		.size	rt_test_008_007_setup, .-rt_test_008_007_setup
 582              		.section	.text.rt_test_008_004_setup,"ax",@progbits
 583              		.p2align 4
 584              		.type	rt_test_008_004_setup, @function
 585              	rt_test_008_004_setup:
 586              	.LFB311:
 587              		.loc 1 490 41 is_stmt 1 view -0
 588              		.cfi_startproc
 589              		.loc 1 491 3 view .LVU118
 590              		.loc 1 490 41 is_stmt 0 view .LVU119
 591 0000 53       		pushl	%ebx
 592              		.cfi_def_cfa_offset 8
 593              		.cfi_offset 3, -8
 594 0001 E8FCFFFF 		call	__x86.get_pc_thunk.bx
 594      FF
 595 0006 81C30200 		addl	$_GLOBAL_OFFSET_TABLE_, %ebx
 595      0000
 596 000c 83EC14   		subl	$20, %esp
 597              		.cfi_def_cfa_offset 28
 598              		.loc 1 491 3 view .LVU120
 599 000f 8D830000 		leal	m1@GOTOFF(%ebx), %eax
GAS LISTING /tmp/ccVaQ2UV.s 			page 13


 599      0000
 600 0015 50       		pushl	%eax
 601              		.cfi_def_cfa_offset 32
 602 0016 E8FCFFFF 		call	chMtxObjectInit@PLT
 602      FF
 603              	.LVL36:
 604              		.loc 1 492 3 is_stmt 1 view .LVU121
 605 001b 8D830000 		leal	m2@GOTOFF(%ebx), %eax
 605      0000
 606 0021 890424   		movl	%eax, (%esp)
 607 0024 E8FCFFFF 		call	chMtxObjectInit@PLT
 607      FF
 608              	.LVL37:
 609              		.loc 1 493 1 is_stmt 0 view .LVU122
 610 0029 83C418   		addl	$24, %esp
 611              		.cfi_def_cfa_offset 8
 612 002c 5B       		popl	%ebx
 613              		.cfi_restore 3
 614              		.cfi_def_cfa_offset 4
 615 002d C3       		ret
 616              		.cfi_endproc
 617              	.LFE311:
 618              		.size	rt_test_008_004_setup, .-rt_test_008_004_setup
 619              		.section	.text.rt_test_008_001_setup,"ax",@progbits
 620              		.p2align 4
 621              		.type	rt_test_008_001_setup, @function
 622              	rt_test_008_001_setup:
 623              	.LFB309:
 624              		.loc 1 255 41 is_stmt 1 view -0
 625              		.cfi_startproc
 626              		.loc 1 256 3 view .LVU124
 627              		.loc 1 255 41 is_stmt 0 view .LVU125
 628 0000 53       		pushl	%ebx
 629              		.cfi_def_cfa_offset 8
 630              		.cfi_offset 3, -8
 631 0001 E8FCFFFF 		call	__x86.get_pc_thunk.bx
 631      FF
 632 0006 81C30200 		addl	$_GLOBAL_OFFSET_TABLE_, %ebx
 632      0000
 633 000c 83EC14   		subl	$20, %esp
 634              		.cfi_def_cfa_offset 28
 635              		.loc 1 256 3 view .LVU126
 636 000f 8D830000 		leal	m1@GOTOFF(%ebx), %eax
 636      0000
 637 0015 50       		pushl	%eax
 638              		.cfi_def_cfa_offset 32
 639 0016 E8FCFFFF 		call	chMtxObjectInit@PLT
 639      FF
 640              	.LVL38:
 641              		.loc 1 257 1 view .LVU127
 642 001b 83C418   		addl	$24, %esp
 643              		.cfi_def_cfa_offset 8
 644 001e 5B       		popl	%ebx
 645              		.cfi_restore 3
 646              		.cfi_def_cfa_offset 4
 647 001f C3       		ret
 648              		.cfi_endproc
GAS LISTING /tmp/ccVaQ2UV.s 			page 14


 649              	.LFE309:
 650              		.size	rt_test_008_001_setup, .-rt_test_008_001_setup
 651              		.section	.rodata.rt_test_008_008_execute.str1.1,"aMS",@progbits,1
 652              	.LC5:
 653 0000 4500     		.string	"E"
 654              	.LC6:
 655 0002 4400     		.string	"D"
 656              	.LC7:
 657 0004 41424344 		.string	"ABCDE"
 657      4500
 658              		.section	.text.rt_test_008_008_execute,"ax",@progbits
 659              		.p2align 4
 660              		.type	rt_test_008_008_execute, @function
 661              	rt_test_008_008_execute:
 662              	.LFB319:
 663              		.loc 1 940 43 is_stmt 1 view -0
 664              		.cfi_startproc
 665              		.loc 1 944 3 view .LVU129
 666              		.loc 1 940 43 is_stmt 0 view .LVU130
 667 0000 55       		pushl	%ebp
 668              		.cfi_def_cfa_offset 8
 669              		.cfi_offset 5, -8
 670 0001 57       		pushl	%edi
 671              		.cfi_def_cfa_offset 12
 672              		.cfi_offset 7, -12
 673 0002 56       		pushl	%esi
 674              		.cfi_def_cfa_offset 16
 675              		.cfi_offset 6, -16
 676 0003 53       		pushl	%ebx
 677              		.cfi_def_cfa_offset 20
 678              		.cfi_offset 3, -20
 679 0004 E8FCFFFF 		call	__x86.get_pc_thunk.bx
 679      FF
 680 0009 81C30200 		addl	$_GLOBAL_OFFSET_TABLE_, %ebx
 680      0000
 681 000f 83EC28   		subl	$40, %esp
 682              		.cfi_def_cfa_offset 60
 683              	.LBB102:
 684              	.LBB103:
 685              	.LBB104:
 686              	.LBB105:
 687              	.LBB106:
 688              		.loc 2 529 10 view .LVU131
 689 0012 8B830000 		movl	ch0@GOT(%ebx), %eax
 689      0000
 690              	.LBE106:
 691              	.LBE105:
 692              	.LBE104:
 693              	.LBE103:
 694              	.LBE102:
 695              		.loc 1 944 3 view .LVU132
 696 0018 8B930000 		movl	chtest@GOT(%ebx), %edx
 696      0000
 697              	.LBB115:
 698              		.loc 1 947 18 view .LVU133
 699 001e 8DAB0000 		leal	thread6@GOTOFF(%ebx), %ebp
 699      0000
GAS LISTING /tmp/ccVaQ2UV.s 			page 15


 700              		.loc 1 947 38 view .LVU134
 701 0024 8BBB0000 		movl	wa@GOT(%ebx), %edi
 701      0000
 702              	.LBB112:
 703              	.LBB109:
 704              		.loc 2 542 37 view .LVU135
 705 002a 8B400C   		movl	12(%eax), %eax
 706              	.LBE109:
 707              	.LBE112:
 708              	.LBE115:
 709              		.loc 1 944 3 view .LVU136
 710 002d 89542418 		movl	%edx, 24(%esp)
 711              	.LBB116:
 712              		.loc 1 946 5 is_stmt 1 view .LVU137
 713              	.LBB113:
 714              	.LBI103:
 715              		.loc 2 540 23 view .LVU138
 716              	.LBB110:
 717              		.loc 2 542 3 view .LVU139
 718              	.LBB108:
 719              	.LBI105:
 720              		.loc 2 527 25 view .LVU140
 721              	.LBB107:
 722              		.loc 2 529 3 view .LVU141
 723              	.LBE107:
 724              	.LBE108:
 725              	.LBE110:
 726              	.LBE113:
 727              	.LBE116:
 728              		.loc 1 944 3 is_stmt 0 view .LVU142
 729 0031 C7020100 		movl	$1, (%edx)
 729      0000
 730              	.LBB117:
 731              	.LBB114:
 732              	.LBB111:
 733              		.loc 2 542 37 view .LVU143
 734 0037 8B4808   		movl	8(%eax), %ecx
 735              	.LVL39:
 736              		.loc 2 542 37 view .LVU144
 737              	.LBE111:
 738              	.LBE114:
 739              		.loc 1 947 5 is_stmt 1 view .LVU145
 740              		.loc 1 947 18 is_stmt 0 view .LVU146
 741 003a 8D830000 		leal	.LC5@GOTOFF(%ebx), %eax
 741      0000
 742 0040 50       		pushl	%eax
 743              		.cfi_def_cfa_offset 64
 744 0041 55       		pushl	%ebp
 745              		.cfi_def_cfa_offset 68
 746 0042 8D4101   		leal	1(%ecx), %eax
 747 0045 894C241C 		movl	%ecx, 28(%esp)
 748 0049 50       		pushl	%eax
 749              		.cfi_def_cfa_offset 72
 750 004a 68404100 		pushl	$16704
 750      00
 751              		.cfi_def_cfa_offset 76
 752 004f FF37     		pushl	(%edi)
GAS LISTING /tmp/ccVaQ2UV.s 			page 16


 753              		.cfi_def_cfa_offset 80
 754 0051 E8FCFFFF 		call	chThdCreateStatic@PLT
 754      FF
 755              	.LVL40:
 756              		.loc 1 947 16 view .LVU147
 757 0056 8BB30000 		movl	threads@GOT(%ebx), %esi
 757      0000
 758              		.loc 1 948 18 view .LVU148
 759 005c 83C414   		addl	$20, %esp
 760              		.cfi_def_cfa_offset 60
 761              		.loc 1 947 16 view .LVU149
 762 005f 8906     		movl	%eax, (%esi)
 763              		.loc 1 948 5 is_stmt 1 view .LVU150
 764              		.loc 1 948 18 is_stmt 0 view .LVU151
 765 0061 8D830000 		leal	.LC6@GOTOFF(%ebx), %eax
 765      0000
 766 0067 50       		pushl	%eax
 767              		.cfi_def_cfa_offset 64
 768 0068 55       		pushl	%ebp
 769              		.cfi_def_cfa_offset 68
 770 0069 8B4C241C 		movl	28(%esp), %ecx
 771 006d 8D4102   		leal	2(%ecx), %eax
 772 0070 50       		pushl	%eax
 773              		.cfi_def_cfa_offset 72
 774 0071 68404100 		pushl	$16704
 774      00
 775              		.cfi_def_cfa_offset 76
 776 0076 FF7704   		pushl	4(%edi)
 777              		.cfi_def_cfa_offset 80
 778 0079 E8FCFFFF 		call	chThdCreateStatic@PLT
 778      FF
 779              	.LVL41:
 780              		.loc 1 949 18 view .LVU152
 781 007e 83C414   		addl	$20, %esp
 782              		.cfi_def_cfa_offset 60
 783              		.loc 1 948 16 view .LVU153
 784 0081 894604   		movl	%eax, 4(%esi)
 785              		.loc 1 949 5 is_stmt 1 view .LVU154
 786              		.loc 1 949 18 is_stmt 0 view .LVU155
 787 0084 8D830000 		leal	.LC1@GOTOFF(%ebx), %eax
 787      0000
 788 008a 50       		pushl	%eax
 789              		.cfi_def_cfa_offset 64
 790 008b 55       		pushl	%ebp
 791              		.cfi_def_cfa_offset 68
 792 008c 8B4C241C 		movl	28(%esp), %ecx
 793 0090 8D4103   		leal	3(%ecx), %eax
 794 0093 50       		pushl	%eax
 795              		.cfi_def_cfa_offset 72
 796 0094 68404100 		pushl	$16704
 796      00
 797              		.cfi_def_cfa_offset 76
 798 0099 FF7708   		pushl	8(%edi)
 799              		.cfi_def_cfa_offset 80
 800 009c E8FCFFFF 		call	chThdCreateStatic@PLT
 800      FF
 801              	.LVL42:
GAS LISTING /tmp/ccVaQ2UV.s 			page 17


 802              		.loc 1 950 18 view .LVU156
 803 00a1 83C414   		addl	$20, %esp
 804              		.cfi_def_cfa_offset 60
 805              		.loc 1 949 16 view .LVU157
 806 00a4 894608   		movl	%eax, 8(%esi)
 807              		.loc 1 950 5 is_stmt 1 view .LVU158
 808              		.loc 1 950 18 is_stmt 0 view .LVU159
 809 00a7 8D830000 		leal	.LC2@GOTOFF(%ebx), %eax
 809      0000
 810 00ad 50       		pushl	%eax
 811              		.cfi_def_cfa_offset 64
 812 00ae 55       		pushl	%ebp
 813              		.cfi_def_cfa_offset 68
 814 00af 8B4C241C 		movl	28(%esp), %ecx
 815 00b3 8D4104   		leal	4(%ecx), %eax
 816 00b6 50       		pushl	%eax
 817              		.cfi_def_cfa_offset 72
 818 00b7 68404100 		pushl	$16704
 818      00
 819              		.cfi_def_cfa_offset 76
 820 00bc FF770C   		pushl	12(%edi)
 821              		.cfi_def_cfa_offset 80
 822 00bf E8FCFFFF 		call	chThdCreateStatic@PLT
 822      FF
 823              	.LVL43:
 824              		.loc 1 951 18 view .LVU160
 825 00c4 83C414   		addl	$20, %esp
 826              		.cfi_def_cfa_offset 60
 827              		.loc 1 950 16 view .LVU161
 828 00c7 89460C   		movl	%eax, 12(%esi)
 829              		.loc 1 951 5 is_stmt 1 view .LVU162
 830              		.loc 1 951 18 is_stmt 0 view .LVU163
 831 00ca 8D830000 		leal	.LC0@GOTOFF(%ebx), %eax
 831      0000
 832 00d0 50       		pushl	%eax
 833              		.cfi_def_cfa_offset 64
 834 00d1 55       		pushl	%ebp
 835              		.cfi_def_cfa_offset 68
 836 00d2 8B4C241C 		movl	28(%esp), %ecx
 837 00d6 8D4105   		leal	5(%ecx), %eax
 838 00d9 50       		pushl	%eax
 839              		.cfi_def_cfa_offset 72
 840 00da 68404100 		pushl	$16704
 840      00
 841              		.cfi_def_cfa_offset 76
 842 00df FF7710   		pushl	16(%edi)
 843              		.cfi_def_cfa_offset 80
 844 00e2 E8FCFFFF 		call	chThdCreateStatic@PLT
 844      FF
 845              	.LVL44:
 846              	.LBE117:
 847              		.loc 1 957 3 view .LVU164
 848 00e7 8B54242C 		movl	44(%esp), %edx
 849              		.loc 1 959 5 view .LVU165
 850 00eb 83C414   		addl	$20, %esp
 851              		.cfi_def_cfa_offset 60
 852              	.LBB118:
GAS LISTING /tmp/ccVaQ2UV.s 			page 18


 853              		.loc 1 951 16 view .LVU166
 854 00ee 894610   		movl	%eax, 16(%esi)
 855              	.LBE118:
 856              		.loc 1 953 3 is_stmt 1 view .LVU167
 857              		.loc 1 953 19 view .LVU168
 858              		.loc 1 957 3 view .LVU169
 859              		.loc 1 959 5 is_stmt 0 view .LVU170
 860 00f1 8D830000 		leal	c1@GOTOFF(%ebx), %eax
 860      0000
 861              		.loc 1 957 3 view .LVU171
 862 00f7 C7020200 		movl	$2, (%edx)
 862      0000
 863              		.loc 1 959 5 is_stmt 1 view .LVU172
 864 00fd 50       		pushl	%eax
 865              		.cfi_def_cfa_offset 64
 866 00fe E8FCFFFF 		call	chCondBroadcast@PLT
 866      FF
 867              	.LVL45:
 868              		.loc 1 960 5 view .LVU173
 869 0103 E8FCFFFF 		call	test_wait_threads@PLT
 869      FF
 870              	.LVL46:
 871              		.loc 1 961 5 view .LVU174
 872 0108 58       		popl	%eax
 873              		.cfi_def_cfa_offset 60
 874 0109 8D830000 		leal	.LC3@GOTOFF(%ebx), %eax
 874      0000
 875 010f 5A       		popl	%edx
 876              		.cfi_def_cfa_offset 56
 877 0110 50       		pushl	%eax
 878              		.cfi_def_cfa_offset 60
 879 0111 8D830000 		leal	.LC7@GOTOFF(%ebx), %eax
 879      0000
 880 0117 50       		pushl	%eax
 881              		.cfi_def_cfa_offset 64
 882 0118 E8FCFFFF 		call	__test_assert_sequence@PLT
 882      FF
 883              	.LVL47:
 884              		.loc 1 961 54 view .LVU175
 885              		.loc 1 963 3 view .LVU176
 886              		.loc 1 963 19 view .LVU177
 887              		.loc 1 964 1 is_stmt 0 view .LVU178
 888 011d 83C42C   		addl	$44, %esp
 889              		.cfi_def_cfa_offset 20
 890 0120 5B       		popl	%ebx
 891              		.cfi_restore 3
 892              		.cfi_def_cfa_offset 16
 893 0121 5E       		popl	%esi
 894              		.cfi_restore 6
 895              		.cfi_def_cfa_offset 12
 896 0122 5F       		popl	%edi
 897              		.cfi_restore 7
 898              		.cfi_def_cfa_offset 8
 899 0123 5D       		popl	%ebp
 900              		.cfi_restore 5
 901              		.cfi_def_cfa_offset 4
 902 0124 C3       		ret
GAS LISTING /tmp/ccVaQ2UV.s 			page 19


 903              		.cfi_endproc
 904              	.LFE319:
 905              		.size	rt_test_008_008_execute, .-rt_test_008_008_execute
 906              		.section	.text.rt_test_008_007_execute,"ax",@progbits
 907              		.p2align 4
 908              		.type	rt_test_008_007_execute, @function
 909              	rt_test_008_007_execute:
 910              	.LFB317:
 911              		.loc 1 869 43 is_stmt 1 view -0
 912              		.cfi_startproc
 913              		.loc 1 873 3 view .LVU180
 914              		.loc 1 869 43 is_stmt 0 view .LVU181
 915 0000 55       		pushl	%ebp
 916              		.cfi_def_cfa_offset 8
 917              		.cfi_offset 5, -8
 918 0001 57       		pushl	%edi
 919              		.cfi_def_cfa_offset 12
 920              		.cfi_offset 7, -12
 921 0002 56       		pushl	%esi
 922              		.cfi_def_cfa_offset 16
 923              		.cfi_offset 6, -16
 924 0003 53       		pushl	%ebx
 925              		.cfi_def_cfa_offset 20
 926              		.cfi_offset 3, -20
 927 0004 E8FCFFFF 		call	__x86.get_pc_thunk.bx
 927      FF
 928 0009 81C30200 		addl	$_GLOBAL_OFFSET_TABLE_, %ebx
 928      0000
 929 000f 83EC28   		subl	$40, %esp
 930              		.cfi_def_cfa_offset 60
 931              	.LBB119:
 932              	.LBB120:
 933              	.LBB121:
 934              	.LBB122:
 935              	.LBB123:
 936              		.loc 2 529 10 view .LVU182
 937 0012 8B830000 		movl	ch0@GOT(%ebx), %eax
 937      0000
 938              	.LBE123:
 939              	.LBE122:
 940              	.LBE121:
 941              	.LBE120:
 942              	.LBE119:
 943              		.loc 1 873 3 view .LVU183
 944 0018 8B930000 		movl	chtest@GOT(%ebx), %edx
 944      0000
 945              	.LBB132:
 946              		.loc 1 876 18 view .LVU184
 947 001e 8DAB0000 		leal	thread6@GOTOFF(%ebx), %ebp
 947      0000
 948              		.loc 1 876 38 view .LVU185
 949 0024 8BBB0000 		movl	wa@GOT(%ebx), %edi
 949      0000
 950              	.LBB129:
 951              	.LBB126:
 952              		.loc 2 542 37 view .LVU186
 953 002a 8B400C   		movl	12(%eax), %eax
GAS LISTING /tmp/ccVaQ2UV.s 			page 20


 954              	.LBE126:
 955              	.LBE129:
 956              	.LBE132:
 957              		.loc 1 873 3 view .LVU187
 958 002d 89542418 		movl	%edx, 24(%esp)
 959              	.LBB133:
 960              		.loc 1 875 5 is_stmt 1 view .LVU188
 961              	.LBB130:
 962              	.LBI120:
 963              		.loc 2 540 23 view .LVU189
 964              	.LBB127:
 965              		.loc 2 542 3 view .LVU190
 966              	.LBB125:
 967              	.LBI122:
 968              		.loc 2 527 25 view .LVU191
 969              	.LBB124:
 970              		.loc 2 529 3 view .LVU192
 971              	.LBE124:
 972              	.LBE125:
 973              	.LBE127:
 974              	.LBE130:
 975              	.LBE133:
 976              		.loc 1 873 3 is_stmt 0 view .LVU193
 977 0031 C7020100 		movl	$1, (%edx)
 977      0000
 978              	.LBB134:
 979              	.LBB131:
 980              	.LBB128:
 981              		.loc 2 542 37 view .LVU194
 982 0037 8B4808   		movl	8(%eax), %ecx
 983              	.LVL48:
 984              		.loc 2 542 37 view .LVU195
 985              	.LBE128:
 986              	.LBE131:
 987              		.loc 1 876 5 is_stmt 1 view .LVU196
 988              		.loc 1 876 18 is_stmt 0 view .LVU197
 989 003a 8D830000 		leal	.LC5@GOTOFF(%ebx), %eax
 989      0000
 990 0040 50       		pushl	%eax
 991              		.cfi_def_cfa_offset 64
 992 0041 55       		pushl	%ebp
 993              		.cfi_def_cfa_offset 68
 994 0042 8D4101   		leal	1(%ecx), %eax
 995 0045 894C241C 		movl	%ecx, 28(%esp)
 996 0049 50       		pushl	%eax
 997              		.cfi_def_cfa_offset 72
 998 004a 68404100 		pushl	$16704
 998      00
 999              		.cfi_def_cfa_offset 76
 1000 004f FF37     		pushl	(%edi)
 1001              		.cfi_def_cfa_offset 80
 1002 0051 E8FCFFFF 		call	chThdCreateStatic@PLT
 1002      FF
 1003              	.LVL49:
 1004              		.loc 1 876 16 view .LVU198
 1005 0056 8BB30000 		movl	threads@GOT(%ebx), %esi
 1005      0000
GAS LISTING /tmp/ccVaQ2UV.s 			page 21


 1006              		.loc 1 877 18 view .LVU199
 1007 005c 83C414   		addl	$20, %esp
 1008              		.cfi_def_cfa_offset 60
 1009              		.loc 1 876 16 view .LVU200
 1010 005f 8906     		movl	%eax, (%esi)
 1011              		.loc 1 877 5 is_stmt 1 view .LVU201
 1012              		.loc 1 877 18 is_stmt 0 view .LVU202
 1013 0061 8D830000 		leal	.LC6@GOTOFF(%ebx), %eax
 1013      0000
 1014 0067 50       		pushl	%eax
 1015              		.cfi_def_cfa_offset 64
 1016 0068 55       		pushl	%ebp
 1017              		.cfi_def_cfa_offset 68
 1018 0069 8B4C241C 		movl	28(%esp), %ecx
 1019 006d 8D4102   		leal	2(%ecx), %eax
 1020 0070 50       		pushl	%eax
 1021              		.cfi_def_cfa_offset 72
 1022 0071 68404100 		pushl	$16704
 1022      00
 1023              		.cfi_def_cfa_offset 76
 1024 0076 FF7704   		pushl	4(%edi)
 1025              		.cfi_def_cfa_offset 80
 1026 0079 E8FCFFFF 		call	chThdCreateStatic@PLT
 1026      FF
 1027              	.LVL50:
 1028              		.loc 1 878 18 view .LVU203
 1029 007e 83C414   		addl	$20, %esp
 1030              		.cfi_def_cfa_offset 60
 1031              		.loc 1 877 16 view .LVU204
 1032 0081 894604   		movl	%eax, 4(%esi)
 1033              		.loc 1 878 5 is_stmt 1 view .LVU205
 1034              		.loc 1 878 18 is_stmt 0 view .LVU206
 1035 0084 8D830000 		leal	.LC1@GOTOFF(%ebx), %eax
 1035      0000
 1036 008a 50       		pushl	%eax
 1037              		.cfi_def_cfa_offset 64
 1038 008b 55       		pushl	%ebp
 1039              		.cfi_def_cfa_offset 68
 1040 008c 8B4C241C 		movl	28(%esp), %ecx
 1041 0090 8D4103   		leal	3(%ecx), %eax
 1042 0093 50       		pushl	%eax
 1043              		.cfi_def_cfa_offset 72
 1044 0094 68404100 		pushl	$16704
 1044      00
 1045              		.cfi_def_cfa_offset 76
 1046 0099 FF7708   		pushl	8(%edi)
 1047              		.cfi_def_cfa_offset 80
 1048 009c E8FCFFFF 		call	chThdCreateStatic@PLT
 1048      FF
 1049              	.LVL51:
 1050              		.loc 1 879 18 view .LVU207
 1051 00a1 83C414   		addl	$20, %esp
 1052              		.cfi_def_cfa_offset 60
 1053              		.loc 1 878 16 view .LVU208
 1054 00a4 894608   		movl	%eax, 8(%esi)
 1055              		.loc 1 879 5 is_stmt 1 view .LVU209
 1056              		.loc 1 879 18 is_stmt 0 view .LVU210
GAS LISTING /tmp/ccVaQ2UV.s 			page 22


 1057 00a7 8D830000 		leal	.LC2@GOTOFF(%ebx), %eax
 1057      0000
 1058 00ad 50       		pushl	%eax
 1059              		.cfi_def_cfa_offset 64
 1060 00ae 55       		pushl	%ebp
 1061              		.cfi_def_cfa_offset 68
 1062 00af 8B4C241C 		movl	28(%esp), %ecx
 1063 00b3 8D4104   		leal	4(%ecx), %eax
 1064 00b6 50       		pushl	%eax
 1065              		.cfi_def_cfa_offset 72
 1066 00b7 68404100 		pushl	$16704
 1066      00
 1067              		.cfi_def_cfa_offset 76
 1068 00bc FF770C   		pushl	12(%edi)
 1069              		.cfi_def_cfa_offset 80
 1070 00bf E8FCFFFF 		call	chThdCreateStatic@PLT
 1070      FF
 1071              	.LVL52:
 1072              		.loc 1 880 18 view .LVU211
 1073 00c4 83C414   		addl	$20, %esp
 1074              		.cfi_def_cfa_offset 60
 1075              		.loc 1 879 16 view .LVU212
 1076 00c7 89460C   		movl	%eax, 12(%esi)
 1077              		.loc 1 880 5 is_stmt 1 view .LVU213
 1078              		.loc 1 880 18 is_stmt 0 view .LVU214
 1079 00ca 8D830000 		leal	.LC0@GOTOFF(%ebx), %eax
 1079      0000
 1080 00d0 50       		pushl	%eax
 1081              		.cfi_def_cfa_offset 64
 1082 00d1 55       		pushl	%ebp
 1083              		.cfi_def_cfa_offset 68
 1084 00d2 8B4C241C 		movl	28(%esp), %ecx
 1085 00d6 8D4105   		leal	5(%ecx), %eax
 1086 00d9 50       		pushl	%eax
 1087              		.cfi_def_cfa_offset 72
 1088 00da 68404100 		pushl	$16704
 1088      00
 1089              		.cfi_def_cfa_offset 76
 1090 00df FF7710   		pushl	16(%edi)
 1091              		.cfi_def_cfa_offset 80
 1092 00e2 E8FCFFFF 		call	chThdCreateStatic@PLT
 1092      FF
 1093              	.LVL53:
 1094              	.LBE134:
 1095              		.loc 1 887 3 view .LVU215
 1096 00e7 8B54242C 		movl	44(%esp), %edx
 1097              	.LBB135:
 1098              	.LBB136:
 1099              	.LBB137:
 1100              		.file 3 "../../../os/common/ports/SIMIA32/chcore.h"
 1101              		.loc 3 363 16 view .LVU216
 1102 00eb 8BBB0000 		movl	port_irq_sts@GOT(%ebx), %edi
 1102      0000
 1103              	.LBE137:
 1104              	.LBE136:
 1105              	.LBE135:
 1106              		.loc 1 890 5 view .LVU217
GAS LISTING /tmp/ccVaQ2UV.s 			page 23


 1107 00f1 83C414   		addl	$20, %esp
 1108              		.cfi_def_cfa_offset 60
 1109              	.LBB140:
 1110              		.loc 1 880 16 view .LVU218
 1111 00f4 894610   		movl	%eax, 16(%esi)
 1112              	.LBE140:
 1113              		.loc 1 882 3 is_stmt 1 view .LVU219
 1114              		.loc 1 882 19 view .LVU220
 1115              		.loc 1 887 3 view .LVU221
 1116              		.loc 1 890 5 is_stmt 0 view .LVU222
 1117 00f7 8DB30000 		leal	c1@GOTOFF(%ebx), %esi
 1117      0000
 1118              		.loc 1 887 3 view .LVU223
 1119 00fd C7020200 		movl	$2, (%edx)
 1119      0000
 1120              		.loc 1 889 5 is_stmt 1 view .LVU224
 1121              	.LBB141:
 1122              	.LBI135:
 1123              		.file 4 "../../../os/rt/include/chsys.h"
 1124              		.loc 4 407 20 view .LVU225
 1125              		.loc 4 409 3 view .LVU226
 1126              	.LBB139:
 1127              	.LBI136:
 1128              		.loc 3 361 20 view .LVU227
 1129              	.LBB138:
 1130              		.loc 3 363 3 view .LVU228
 1131              		.loc 3 363 16 is_stmt 0 view .LVU229
 1132 0103 C7070100 		movl	$1, (%edi)
 1132      0000
 1133              	.LBE138:
 1134              	.LBE139:
 1135              		.loc 4 410 35 is_stmt 1 view .LVU230
 1136              		.loc 4 411 21 view .LVU231
 1137              	.LBE141:
 1138              		.loc 1 890 5 view .LVU232
 1139 0109 56       		pushl	%esi
 1140              		.cfi_def_cfa_offset 64
 1141 010a E8FCFFFF 		call	chCondSignalI@PLT
 1141      FF
 1142              	.LVL54:
 1143              		.loc 1 891 5 view .LVU233
 1144 010f 893424   		movl	%esi, (%esp)
 1145 0112 E8FCFFFF 		call	chCondSignalI@PLT
 1145      FF
 1146              	.LVL55:
 1147              		.loc 1 892 5 view .LVU234
 1148 0117 893424   		movl	%esi, (%esp)
 1149 011a E8FCFFFF 		call	chCondSignalI@PLT
 1149      FF
 1150              	.LVL56:
 1151              		.loc 1 893 5 view .LVU235
 1152 011f 893424   		movl	%esi, (%esp)
 1153 0122 E8FCFFFF 		call	chCondSignalI@PLT
 1153      FF
 1154              	.LVL57:
 1155              		.loc 1 894 5 view .LVU236
 1156 0127 893424   		movl	%esi, (%esp)
GAS LISTING /tmp/ccVaQ2UV.s 			page 24


 1157 012a E8FCFFFF 		call	chCondSignalI@PLT
 1157      FF
 1158              	.LVL58:
 1159              		.loc 1 895 5 view .LVU237
 1160 012f E8FCFFFF 		call	chSchRescheduleS@PLT
 1160      FF
 1161              	.LVL59:
 1162              		.loc 1 896 5 view .LVU238
 1163              	.LBB142:
 1164              	.LBI142:
 1165              		.loc 4 421 20 view .LVU239
 1166              	.LBB143:
 1167              		.loc 4 423 23 view .LVU240
 1168              		.loc 4 424 34 view .LVU241
 1169              		.loc 4 430 3 view .LVU242
 1170              		.loc 4 430 3 view .LVU243
 1171              		.loc 4 430 3 view .LVU244
 1172              		.loc 4 434 3 view .LVU245
 1173              	.LBB144:
 1174              	.LBI144:
 1175              		.loc 3 370 20 view .LVU246
 1176              	.LBB145:
 1177              		.loc 3 372 3 view .LVU247
 1178              		.loc 3 372 16 is_stmt 0 view .LVU248
 1179 0134 C7070000 		movl	$0, (%edi)
 1179      0000
 1180              	.LBE145:
 1181              	.LBE144:
 1182              	.LBE143:
 1183              	.LBE142:
 1184              		.loc 1 897 5 is_stmt 1 view .LVU249
 1185 013a E8FCFFFF 		call	test_wait_threads@PLT
 1185      FF
 1186              	.LVL60:
 1187              		.loc 1 898 5 view .LVU250
 1188 013f 58       		popl	%eax
 1189              		.cfi_def_cfa_offset 60
 1190 0140 8D830000 		leal	.LC3@GOTOFF(%ebx), %eax
 1190      0000
 1191 0146 5A       		popl	%edx
 1192              		.cfi_def_cfa_offset 56
 1193 0147 50       		pushl	%eax
 1194              		.cfi_def_cfa_offset 60
 1195 0148 8D830000 		leal	.LC7@GOTOFF(%ebx), %eax
 1195      0000
 1196 014e 50       		pushl	%eax
 1197              		.cfi_def_cfa_offset 64
 1198 014f E8FCFFFF 		call	__test_assert_sequence@PLT
 1198      FF
 1199              	.LVL61:
 1200              		.loc 1 898 54 view .LVU251
 1201              		.loc 1 900 3 view .LVU252
 1202              		.loc 1 900 19 view .LVU253
 1203              		.loc 1 901 1 is_stmt 0 view .LVU254
 1204 0154 83C42C   		addl	$44, %esp
 1205              		.cfi_def_cfa_offset 20
 1206 0157 5B       		popl	%ebx
GAS LISTING /tmp/ccVaQ2UV.s 			page 25


 1207              		.cfi_restore 3
 1208              		.cfi_def_cfa_offset 16
 1209 0158 5E       		popl	%esi
 1210              		.cfi_restore 6
 1211              		.cfi_def_cfa_offset 12
 1212 0159 5F       		popl	%edi
 1213              		.cfi_restore 7
 1214              		.cfi_def_cfa_offset 8
 1215 015a 5D       		popl	%ebp
 1216              		.cfi_restore 5
 1217              		.cfi_def_cfa_offset 4
 1218 015b C3       		ret
 1219              		.cfi_endproc
 1220              	.LFE317:
 1221              		.size	rt_test_008_007_execute, .-rt_test_008_007_execute
 1222              		.section	.rodata.rt_test_008_001_execute.str1.1,"aMS",@progbits,1
 1223              	.LC8:
 1224 0000 77726F6E 		.string	"wrong priority level"
 1224      67207072 
 1224      696F7269 
 1224      7479206C 
 1224      6576656C 
 1225              		.section	.text.rt_test_008_001_execute,"ax",@progbits
 1226              		.p2align 4
 1227              		.type	rt_test_008_001_execute, @function
 1228              	rt_test_008_001_execute:
 1229              	.LFB310:
 1230              		.loc 1 259 43 is_stmt 1 view -0
 1231              		.cfi_startproc
 1232              		.loc 1 260 3 view .LVU256
 1233              		.loc 1 263 3 view .LVU257
 1234              		.loc 1 265 5 view .LVU258
 1235              	.LBB146:
 1236              	.LBI146:
 1237              		.loc 2 540 23 view .LVU259
 1238              	.LBB147:
 1239              		.loc 2 542 3 view .LVU260
 1240              	.LBB148:
 1241              	.LBI148:
 1242              		.loc 2 527 25 view .LVU261
 1243              	.LBB149:
 1244              		.loc 2 529 3 view .LVU262
 1245              	.LBE149:
 1246              	.LBE148:
 1247              	.LBE147:
 1248              	.LBE146:
 1249              		.loc 1 259 43 is_stmt 0 view .LVU263
 1250 0000 55       		pushl	%ebp
 1251              		.cfi_def_cfa_offset 8
 1252              		.cfi_offset 5, -8
 1253 0001 57       		pushl	%edi
 1254              		.cfi_def_cfa_offset 12
 1255              		.cfi_offset 7, -12
 1256 0002 56       		pushl	%esi
 1257              		.cfi_def_cfa_offset 16
 1258              		.cfi_offset 6, -16
 1259 0003 53       		pushl	%ebx
GAS LISTING /tmp/ccVaQ2UV.s 			page 26


 1260              		.cfi_def_cfa_offset 20
 1261              		.cfi_offset 3, -20
 1262 0004 E8FCFFFF 		call	__x86.get_pc_thunk.bx
 1262      FF
 1263 0009 81C30200 		addl	$_GLOBAL_OFFSET_TABLE_, %ebx
 1263      0000
 1264 000f 83EC28   		subl	$40, %esp
 1265              		.cfi_def_cfa_offset 60
 1266              	.LBB155:
 1267              	.LBB152:
 1268              	.LBB151:
 1269              	.LBB150:
 1270              		.loc 2 529 10 view .LVU264
 1271 0012 8B8B0000 		movl	ch0@GOT(%ebx), %ecx
 1271      0000
 1272              	.LBE150:
 1273              	.LBE151:
 1274              	.LBE152:
 1275              	.LBE155:
 1276              		.loc 1 270 3 view .LVU265
 1277 0018 8BBB0000 		movl	chtest@GOT(%ebx), %edi
 1277      0000
 1278              		.loc 1 272 5 view .LVU266
 1279 001e 8D930000 		leal	m1@GOTOFF(%ebx), %edx
 1279      0000
 1280              		.loc 1 281 18 view .LVU267
 1281 0024 8DAB0000 		leal	thread1@GOTOFF(%ebx), %ebp
 1281      0000
 1282              	.LBB156:
 1283              	.LBB153:
 1284              		.loc 2 542 37 view .LVU268
 1285 002a 8B410C   		movl	12(%ecx), %eax
 1286 002d 894C2418 		movl	%ecx, 24(%esp)
 1287              	.LBE153:
 1288              	.LBE156:
 1289              		.loc 1 270 3 view .LVU269
 1290 0031 C7070200 		movl	$2, (%edi)
 1290      0000
 1291              	.LBB157:
 1292              	.LBB154:
 1293              		.loc 2 542 37 view .LVU270
 1294 0037 8B7008   		movl	8(%eax), %esi
 1295              	.LVL62:
 1296              		.loc 2 542 37 view .LVU271
 1297              	.LBE154:
 1298              	.LBE157:
 1299              		.loc 1 267 3 is_stmt 1 view .LVU272
 1300              		.loc 1 267 19 view .LVU273
 1301              		.loc 1 270 3 view .LVU274
 1302              		.loc 1 272 5 view .LVU275
 1303 003a 52       		pushl	%edx
 1304              		.cfi_def_cfa_offset 64
 1305 003b 89542418 		movl	%edx, 24(%esp)
 1306 003f E8FCFFFF 		call	chMtxLock@PLT
 1306      FF
 1307              	.LVL63:
 1308              		.loc 1 274 3 view .LVU276
GAS LISTING /tmp/ccVaQ2UV.s 			page 27


 1309              		.loc 1 274 19 view .LVU277
 1310              		.loc 1 279 3 view .LVU278
 1311              		.loc 1 281 18 is_stmt 0 view .LVU279
 1312 0044 8D830000 		leal	.LC5@GOTOFF(%ebx), %eax
 1312      0000
 1313              		.loc 1 279 3 view .LVU280
 1314 004a C7070300 		movl	$3, (%edi)
 1314      0000
 1315              		.loc 1 281 5 is_stmt 1 view .LVU281
 1316              		.loc 1 281 18 is_stmt 0 view .LVU282
 1317 0050 890424   		movl	%eax, (%esp)
 1318 0053 8D4601   		leal	1(%esi), %eax
 1319              		.loc 1 279 3 view .LVU283
 1320 0056 897C2414 		movl	%edi, 20(%esp)
 1321              		.loc 1 281 18 view .LVU284
 1322 005a 55       		pushl	%ebp
 1323              		.cfi_def_cfa_offset 68
 1324 005b 50       		pushl	%eax
 1325              		.cfi_def_cfa_offset 72
 1326              		.loc 1 281 38 view .LVU285
 1327 005c 8B830000 		movl	wa@GOT(%ebx), %eax
 1327      0000
 1328              		.loc 1 281 18 view .LVU286
 1329 0062 68404100 		pushl	$16704
 1329      00
 1330              		.cfi_def_cfa_offset 76
 1331 0067 8944241C 		movl	%eax, 28(%esp)
 1332 006b FF30     		pushl	(%eax)
 1333              		.cfi_def_cfa_offset 80
 1334 006d E8FCFFFF 		call	chThdCreateStatic@PLT
 1334      FF
 1335              	.LVL64:
 1336              		.loc 1 281 16 view .LVU287
 1337 0072 8BBB0000 		movl	threads@GOT(%ebx), %edi
 1337      0000
 1338              		.loc 1 282 18 view .LVU288
 1339 0078 83C414   		addl	$20, %esp
 1340              		.cfi_def_cfa_offset 60
 1341              		.loc 1 281 16 view .LVU289
 1342 007b 8907     		movl	%eax, (%edi)
 1343              		.loc 1 282 5 is_stmt 1 view .LVU290
 1344              		.loc 1 282 18 is_stmt 0 view .LVU291
 1345 007d 8D830000 		leal	.LC6@GOTOFF(%ebx), %eax
 1345      0000
 1346 0083 50       		pushl	%eax
 1347              		.cfi_def_cfa_offset 64
 1348 0084 8D4602   		leal	2(%esi), %eax
 1349 0087 55       		pushl	%ebp
 1350              		.cfi_def_cfa_offset 68
 1351 0088 50       		pushl	%eax
 1352              		.cfi_def_cfa_offset 72
 1353 0089 68404100 		pushl	$16704
 1353      00
 1354              		.cfi_def_cfa_offset 76
 1355 008e 8B44241C 		movl	28(%esp), %eax
 1356 0092 FF7004   		pushl	4(%eax)
 1357              		.cfi_def_cfa_offset 80
GAS LISTING /tmp/ccVaQ2UV.s 			page 28


 1358 0095 E8FCFFFF 		call	chThdCreateStatic@PLT
 1358      FF
 1359              	.LVL65:
 1360              		.loc 1 283 18 view .LVU292
 1361 009a 83C414   		addl	$20, %esp
 1362              		.cfi_def_cfa_offset 60
 1363              		.loc 1 282 16 view .LVU293
 1364 009d 894704   		movl	%eax, 4(%edi)
 1365              		.loc 1 283 5 is_stmt 1 view .LVU294
 1366              		.loc 1 283 18 is_stmt 0 view .LVU295
 1367 00a0 8D830000 		leal	.LC1@GOTOFF(%ebx), %eax
 1367      0000
 1368 00a6 50       		pushl	%eax
 1369              		.cfi_def_cfa_offset 64
 1370 00a7 8D4603   		leal	3(%esi), %eax
 1371 00aa 55       		pushl	%ebp
 1372              		.cfi_def_cfa_offset 68
 1373 00ab 50       		pushl	%eax
 1374              		.cfi_def_cfa_offset 72
 1375 00ac 68404100 		pushl	$16704
 1375      00
 1376              		.cfi_def_cfa_offset 76
 1377 00b1 8B44241C 		movl	28(%esp), %eax
 1378 00b5 FF7008   		pushl	8(%eax)
 1379              		.cfi_def_cfa_offset 80
 1380 00b8 E8FCFFFF 		call	chThdCreateStatic@PLT
 1380      FF
 1381              	.LVL66:
 1382              		.loc 1 284 18 view .LVU296
 1383 00bd 83C414   		addl	$20, %esp
 1384              		.cfi_def_cfa_offset 60
 1385              		.loc 1 283 16 view .LVU297
 1386 00c0 894708   		movl	%eax, 8(%edi)
 1387              		.loc 1 284 5 is_stmt 1 view .LVU298
 1388              		.loc 1 284 18 is_stmt 0 view .LVU299
 1389 00c3 8D830000 		leal	.LC2@GOTOFF(%ebx), %eax
 1389      0000
 1390 00c9 50       		pushl	%eax
 1391              		.cfi_def_cfa_offset 64
 1392 00ca 8D4604   		leal	4(%esi), %eax
 1393 00cd 55       		pushl	%ebp
 1394              		.cfi_def_cfa_offset 68
 1395 00ce 50       		pushl	%eax
 1396              		.cfi_def_cfa_offset 72
 1397 00cf 68404100 		pushl	$16704
 1397      00
 1398              		.cfi_def_cfa_offset 76
 1399 00d4 8B44241C 		movl	28(%esp), %eax
 1400 00d8 FF700C   		pushl	12(%eax)
 1401              		.cfi_def_cfa_offset 80
 1402 00db E8FCFFFF 		call	chThdCreateStatic@PLT
 1402      FF
 1403              	.LVL67:
 1404              		.loc 1 285 18 view .LVU300
 1405 00e0 83C414   		addl	$20, %esp
 1406              		.cfi_def_cfa_offset 60
 1407              		.loc 1 284 16 view .LVU301
GAS LISTING /tmp/ccVaQ2UV.s 			page 29


 1408 00e3 89470C   		movl	%eax, 12(%edi)
 1409              		.loc 1 285 5 is_stmt 1 view .LVU302
 1410              		.loc 1 285 18 is_stmt 0 view .LVU303
 1411 00e6 8D830000 		leal	.LC0@GOTOFF(%ebx), %eax
 1411      0000
 1412 00ec 50       		pushl	%eax
 1413              		.cfi_def_cfa_offset 64
 1414 00ed 8D4605   		leal	5(%esi), %eax
 1415 00f0 55       		pushl	%ebp
 1416              		.cfi_def_cfa_offset 68
 1417 00f1 50       		pushl	%eax
 1418              		.cfi_def_cfa_offset 72
 1419 00f2 68404100 		pushl	$16704
 1419      00
 1420              		.cfi_def_cfa_offset 76
 1421 00f7 8B44241C 		movl	28(%esp), %eax
 1422 00fb FF7010   		pushl	16(%eax)
 1423              		.cfi_def_cfa_offset 80
 1424 00fe E8FCFFFF 		call	chThdCreateStatic@PLT
 1424      FF
 1425              	.LVL68:
 1426              		.loc 1 285 16 view .LVU304
 1427 0103 894710   		movl	%eax, 16(%edi)
 1428              		.loc 1 287 3 is_stmt 1 view .LVU305
 1429              		.loc 1 287 19 view .LVU306
 1430              		.loc 1 291 3 view .LVU307
 1431 0106 8B7C2424 		movl	36(%esp), %edi
 1432              		.loc 1 293 5 is_stmt 0 view .LVU308
 1433 010a 83C414   		addl	$20, %esp
 1434              		.cfi_def_cfa_offset 60
 1435 010d 8B542414 		movl	20(%esp), %edx
 1436              		.loc 1 291 3 view .LVU309
 1437 0111 C7070400 		movl	$4, (%edi)
 1437      0000
 1438              		.loc 1 293 5 is_stmt 1 view .LVU310
 1439 0117 52       		pushl	%edx
 1440              		.cfi_def_cfa_offset 64
 1441 0118 E8FCFFFF 		call	chMtxUnlock@PLT
 1441      FF
 1442              	.LVL69:
 1443              		.loc 1 294 5 view .LVU311
 1444 011d E8FCFFFF 		call	test_wait_threads@PLT
 1444      FF
 1445              	.LVL70:
 1446              		.loc 1 295 5 view .LVU312
 1447              	.LBB158:
 1448              	.LBI158:
 1449              		.loc 2 540 23 view .LVU313
 1450              	.LBB159:
 1451              		.loc 2 542 3 view .LVU314
 1452              	.LBB160:
 1453              	.LBI160:
 1454              		.loc 2 527 25 view .LVU315
 1455              	.LBB161:
 1456              		.loc 2 529 3 view .LVU316
 1457              	.LBE161:
 1458              	.LBE160:
GAS LISTING /tmp/ccVaQ2UV.s 			page 30


 1459              	.LBE159:
 1460              	.LBE158:
 1461              		.loc 1 295 5 is_stmt 0 view .LVU317
 1462 0122 58       		popl	%eax
 1463              		.cfi_def_cfa_offset 60
 1464 0123 8D830000 		leal	.LC8@GOTOFF(%ebx), %eax
 1464      0000
 1465 0129 5A       		popl	%edx
 1466              		.cfi_def_cfa_offset 56
 1467 012a 50       		pushl	%eax
 1468              		.cfi_def_cfa_offset 60
 1469              	.LBB163:
 1470              	.LBB162:
 1471              		.loc 2 542 37 view .LVU318
 1472 012b 8B4C2418 		movl	24(%esp), %ecx
 1473 012f 8B410C   		movl	12(%ecx), %eax
 1474              	.LBE162:
 1475              	.LBE163:
 1476              		.loc 1 295 5 view .LVU319
 1477 0132 397008   		cmpl	%esi, 8(%eax)
 1478 0135 0F94C0   		sete	%al
 1479 0138 0FB6C0   		movzbl	%al, %eax
 1480 013b 50       		pushl	%eax
 1481              		.cfi_def_cfa_offset 64
 1482 013c E8FCFFFF 		call	__test_assert@PLT
 1482      FF
 1483              	.LVL71:
 1484 0141 83C410   		addl	$16, %esp
 1485              		.cfi_def_cfa_offset 48
 1486 0144 84C0     		testb	%al, %al
 1487 0146 7519     		jne	.L26
 1488              		.loc 1 295 69 is_stmt 1 discriminator 2 view .LVU320
 1489              		.loc 1 296 5 discriminator 2 view .LVU321
 1490 0148 83EC08   		subl	$8, %esp
 1491              		.cfi_def_cfa_offset 56
 1492 014b 8D830000 		leal	.LC3@GOTOFF(%ebx), %eax
 1492      0000
 1493 0151 50       		pushl	%eax
 1494              		.cfi_def_cfa_offset 60
 1495 0152 8D830000 		leal	.LC7@GOTOFF(%ebx), %eax
 1495      0000
 1496 0158 50       		pushl	%eax
 1497              		.cfi_def_cfa_offset 64
 1498 0159 E8FCFFFF 		call	__test_assert_sequence@PLT
 1498      FF
 1499              	.LVL72:
 1500 015e 83C410   		addl	$16, %esp
 1501              		.cfi_def_cfa_offset 48
 1502              		.loc 1 296 54 discriminator 2 view .LVU322
 1503              		.loc 1 298 3 discriminator 2 view .LVU323
 1504              		.loc 1 298 19 discriminator 2 view .LVU324
 1505              	.L26:
 1506              		.loc 1 299 1 is_stmt 0 view .LVU325
 1507 0161 83C41C   		addl	$28, %esp
 1508              		.cfi_def_cfa_offset 20
 1509 0164 5B       		popl	%ebx
 1510              		.cfi_restore 3
GAS LISTING /tmp/ccVaQ2UV.s 			page 31


 1511              		.cfi_def_cfa_offset 16
 1512 0165 5E       		popl	%esi
 1513              		.cfi_restore 6
 1514              		.cfi_def_cfa_offset 12
 1515              	.LVL73:
 1516              		.loc 1 299 1 view .LVU326
 1517 0166 5F       		popl	%edi
 1518              		.cfi_restore 7
 1519              		.cfi_def_cfa_offset 8
 1520 0167 5D       		popl	%ebp
 1521              		.cfi_restore 5
 1522              		.cfi_def_cfa_offset 4
 1523 0168 C3       		ret
 1524              		.cfi_endproc
 1525              	.LFE310:
 1526              		.size	rt_test_008_001_execute, .-rt_test_008_001_execute
 1527              		.section	.rodata.rt_test_008_005_execute.str1.1,"aMS",@progbits,1
 1528              	.LC9:
 1529 0000 616C7265 		.string	"already locked"
 1529      61647920 
 1529      6C6F636B 
 1529      656400
 1530              	.LC10:
 1531 000f 6E6F7420 		.string	"not locked"
 1531      6C6F636B 
 1531      656400
 1532              	.LC11:
 1533 001a 7374696C 		.string	"still owned"
 1533      6C206F77 
 1533      6E656400 
 1534              	.LC12:
 1535 0026 71756575 		.string	"queue not empty"
 1535      65206E6F 
 1535      7420656D 
 1535      70747900 
 1536              		.section	.text.rt_test_008_005_execute,"ax",@progbits
 1537              		.p2align 4
 1538              		.type	rt_test_008_005_execute, @function
 1539              	rt_test_008_005_execute:
 1540              	.LFB315:
 1541              		.loc 1 616 43 is_stmt 1 view -0
 1542              		.cfi_startproc
 1543              		.loc 1 617 3 view .LVU328
 1544              		.loc 1 618 3 view .LVU329
 1545              		.loc 1 621 3 view .LVU330
 1546              		.loc 1 623 5 view .LVU331
 1547              	.LBB164:
 1548              	.LBI164:
 1549              		.loc 2 540 23 view .LVU332
 1550              	.LBB165:
 1551              		.loc 2 542 3 view .LVU333
 1552              	.LBB166:
 1553              	.LBI166:
 1554              		.loc 2 527 25 view .LVU334
 1555              	.LBB167:
 1556              		.loc 2 529 3 view .LVU335
 1557              	.LBE167:
GAS LISTING /tmp/ccVaQ2UV.s 			page 32


 1558              	.LBE166:
 1559              	.LBE165:
 1560              	.LBE164:
 1561              		.loc 1 616 43 is_stmt 0 view .LVU336
 1562 0000 55       		pushl	%ebp
 1563              		.cfi_def_cfa_offset 8
 1564              		.cfi_offset 5, -8
 1565 0001 57       		pushl	%edi
 1566              		.cfi_def_cfa_offset 12
 1567              		.cfi_offset 7, -12
 1568 0002 56       		pushl	%esi
 1569              		.cfi_def_cfa_offset 16
 1570              		.cfi_offset 6, -16
 1571 0003 53       		pushl	%ebx
 1572              		.cfi_def_cfa_offset 20
 1573              		.cfi_offset 3, -20
 1574 0004 E8FCFFFF 		call	__x86.get_pc_thunk.bx
 1574      FF
 1575 0009 81C30200 		addl	$_GLOBAL_OFFSET_TABLE_, %ebx
 1575      0000
 1576 000f 83EC38   		subl	$56, %esp
 1577              		.cfi_def_cfa_offset 76
 1578              	.LVL74:
 1579              		.loc 1 625 3 is_stmt 1 view .LVU337
 1580              		.loc 1 625 19 view .LVU338
 1581              		.loc 1 629 3 view .LVU339
 1582              	.LBB173:
 1583              	.LBB170:
 1584              	.LBB169:
 1585              	.LBB168:
 1586              		.loc 2 529 10 is_stmt 0 view .LVU340
 1587 0012 8BBB0000 		movl	ch0@GOT(%ebx), %edi
 1587      0000
 1588              	.LBE168:
 1589              	.LBE169:
 1590              	.LBE170:
 1591              	.LBE173:
 1592              		.loc 1 631 9 view .LVU341
 1593 0018 8DB30000 		leal	m1@GOTOFF(%ebx), %esi
 1593      0000
 1594              		.loc 1 629 3 view .LVU342
 1595 001e 8BAB0000 		movl	chtest@GOT(%ebx), %ebp
 1595      0000
 1596              	.LBB174:
 1597              	.LBB171:
 1598              		.loc 2 542 37 view .LVU343
 1599 0024 8B470C   		movl	12(%edi), %eax
 1600              	.LBE171:
 1601              	.LBE174:
 1602              		.loc 1 629 3 view .LVU344
 1603 0027 C7450002 		movl	$2, 0(%ebp)
 1603      000000
 1604              		.loc 1 631 5 is_stmt 1 view .LVU345
 1605              	.LBB175:
 1606              	.LBB172:
 1607              		.loc 2 542 37 is_stmt 0 view .LVU346
 1608 002e 8B4008   		movl	8(%eax), %eax
GAS LISTING /tmp/ccVaQ2UV.s 			page 33


 1609 0031 89442418 		movl	%eax, 24(%esp)
 1610              	.LVL75:
 1611              		.loc 2 542 37 view .LVU347
 1612              	.LBE172:
 1613              	.LBE175:
 1614              		.loc 1 631 9 view .LVU348
 1615 0035 56       		pushl	%esi
 1616              		.cfi_def_cfa_offset 80
 1617 0036 E8FCFFFF 		call	chMtxTryLock@PLT
 1617      FF
 1618              	.LVL76:
 1619              		.loc 1 632 5 is_stmt 1 view .LVU349
 1620 003b 59       		popl	%ecx
 1621              		.cfi_def_cfa_offset 76
 1622 003c 5A       		popl	%edx
 1623              		.cfi_def_cfa_offset 72
 1624 003d 8D930000 		leal	.LC9@GOTOFF(%ebx), %edx
 1624      0000
 1625 0043 0FB6C0   		movzbl	%al, %eax
 1626              		.loc 1 632 5 is_stmt 0 view .LVU350
 1627 0046 89542410 		movl	%edx, 16(%esp)
 1628 004a 52       		pushl	%edx
 1629              		.cfi_def_cfa_offset 76
 1630 004b 50       		pushl	%eax
 1631              		.cfi_def_cfa_offset 80
 1632 004c E8FCFFFF 		call	__test_assert@PLT
 1632      FF
 1633              	.LVL77:
 1634              		.loc 1 632 5 view .LVU351
 1635 0051 83C410   		addl	$16, %esp
 1636              		.cfi_def_cfa_offset 64
 1637 0054 84C0     		testb	%al, %al
 1638 0056 7408     		je	.L34
 1639              	.L29:
 1640              		.loc 1 682 1 view .LVU352
 1641 0058 83C42C   		addl	$44, %esp
 1642              		.cfi_remember_state
 1643              		.cfi_def_cfa_offset 20
 1644 005b 5B       		popl	%ebx
 1645              		.cfi_restore 3
 1646              		.cfi_def_cfa_offset 16
 1647 005c 5E       		popl	%esi
 1648              		.cfi_restore 6
 1649              		.cfi_def_cfa_offset 12
 1650 005d 5F       		popl	%edi
 1651              		.cfi_restore 7
 1652              		.cfi_def_cfa_offset 8
 1653 005e 5D       		popl	%ebp
 1654              		.cfi_restore 5
 1655              		.cfi_def_cfa_offset 4
 1656 005f C3       		ret
 1657              		.p2align 4,,10
 1658              		.p2align 3
 1659              	.L34:
 1660              		.cfi_restore_state
 1661              		.loc 1 632 37 is_stmt 1 discriminator 2 view .LVU353
 1662              		.loc 1 634 3 discriminator 2 view .LVU354
GAS LISTING /tmp/ccVaQ2UV.s 			page 34


 1663              		.loc 1 634 19 discriminator 2 view .LVU355
 1664              		.loc 1 638 3 discriminator 2 view .LVU356
 1665              		.loc 1 640 9 is_stmt 0 discriminator 2 view .LVU357
 1666 0060 83EC0C   		subl	$12, %esp
 1667              		.cfi_def_cfa_offset 76
 1668              		.loc 1 638 3 discriminator 2 view .LVU358
 1669 0063 C7450003 		movl	$3, 0(%ebp)
 1669      000000
 1670              		.loc 1 640 5 is_stmt 1 discriminator 2 view .LVU359
 1671              		.loc 1 640 9 is_stmt 0 discriminator 2 view .LVU360
 1672 006a 56       		pushl	%esi
 1673              		.cfi_def_cfa_offset 80
 1674 006b E8FCFFFF 		call	chMtxTryLock@PLT
 1674      FF
 1675              	.LVL78:
 1676              		.loc 1 641 5 is_stmt 1 discriminator 2 view .LVU361
 1677 0070 59       		popl	%ecx
 1678              		.cfi_def_cfa_offset 76
 1679 0071 8D8B0000 		leal	.LC10@GOTOFF(%ebx), %ecx
 1679      0000
 1680 0077 5A       		popl	%edx
 1681              		.cfi_def_cfa_offset 72
 1682 0078 83F001   		xorl	$1, %eax
 1683              	.LVL79:
 1684              		.loc 1 641 5 is_stmt 0 discriminator 2 view .LVU362
 1685 007b 894C2418 		movl	%ecx, 24(%esp)
 1686 007f 0FB6C0   		movzbl	%al, %eax
 1687 0082 51       		pushl	%ecx
 1688              		.cfi_def_cfa_offset 76
 1689 0083 50       		pushl	%eax
 1690              		.cfi_def_cfa_offset 80
 1691 0084 E8FCFFFF 		call	__test_assert@PLT
 1691      FF
 1692              	.LVL80:
 1693 0089 83C410   		addl	$16, %esp
 1694              		.cfi_def_cfa_offset 64
 1695 008c 84C0     		testb	%al, %al
 1696 008e 75C8     		jne	.L29
 1697              		.loc 1 641 34 is_stmt 1 discriminator 2 view .LVU363
 1698              		.loc 1 643 3 discriminator 2 view .LVU364
 1699              		.loc 1 643 19 discriminator 2 view .LVU365
 1700              		.loc 1 647 3 discriminator 2 view .LVU366
 1701              		.loc 1 649 5 is_stmt 0 discriminator 2 view .LVU367
 1702 0090 83EC0C   		subl	$12, %esp
 1703              		.cfi_def_cfa_offset 76
 1704              		.loc 1 647 3 discriminator 2 view .LVU368
 1705 0093 C7450004 		movl	$4, 0(%ebp)
 1705      000000
 1706              		.loc 1 649 5 is_stmt 1 discriminator 2 view .LVU369
 1707 009a 56       		pushl	%esi
 1708              		.cfi_def_cfa_offset 80
 1709 009b E8FCFFFF 		call	chMtxUnlock@PLT
 1709      FF
 1710              	.LVL81:
 1711              		.loc 1 650 5 discriminator 2 view .LVU370
 1712 00a0 8B930800 		movl	8+m1@GOTOFF(%ebx), %edx
 1712      0000
GAS LISTING /tmp/ccVaQ2UV.s 			page 35


 1713 00a6 59       		popl	%ecx
 1714              		.cfi_def_cfa_offset 76
 1715 00a7 8D8B0000 		leal	.LC11@GOTOFF(%ebx), %ecx
 1715      0000
 1716 00ad 58       		popl	%eax
 1717              		.cfi_def_cfa_offset 72
 1718 00ae 31C0     		xorl	%eax, %eax
 1719 00b0 85D2     		testl	%edx, %edx
 1720 00b2 894C241C 		movl	%ecx, 28(%esp)
 1721 00b6 0F94C0   		sete	%al
 1722 00b9 51       		pushl	%ecx
 1723              		.cfi_def_cfa_offset 76
 1724 00ba 50       		pushl	%eax
 1725              		.cfi_def_cfa_offset 80
 1726 00bb E8FCFFFF 		call	__test_assert@PLT
 1726      FF
 1727              	.LVL82:
 1728 00c0 83C410   		addl	$16, %esp
 1729              		.cfi_def_cfa_offset 64
 1730 00c3 84C0     		testb	%al, %al
 1731 00c5 7591     		jne	.L29
 1732              		.loc 1 650 49 view .LVU371
 1733              		.loc 1 651 5 view .LVU372
 1734              	.LVL83:
 1735              	.LBB176:
 1736              	.LBI176:
 1737              		.file 5 "../../../os/rt/include/chlists.h"
 1738              		.loc 5 296 20 view .LVU373
 1739              	.LBB177:
 1740              		.loc 5 298 3 view .LVU374
 1741              		.loc 5 298 3 is_stmt 0 view .LVU375
 1742              	.LBE177:
 1743              	.LBE176:
 1744              		.loc 1 651 5 view .LVU376
 1745 00c7 83EC08   		subl	$8, %esp
 1746              		.cfi_def_cfa_offset 72
 1747 00ca 8D830000 		leal	.LC12@GOTOFF(%ebx), %eax
 1747      0000
 1748 00d0 89442420 		movl	%eax, 32(%esp)
 1749 00d4 50       		pushl	%eax
 1750              		.cfi_def_cfa_offset 76
 1751              	.LBB179:
 1752              	.LBB178:
 1753              		.loc 5 298 10 view .LVU377
 1754 00d5 31C0     		xorl	%eax, %eax
 1755 00d7 39B30000 		cmpl	%esi, m1@GOTOFF(%ebx)
 1755      0000
 1756 00dd 0F94C0   		sete	%al
 1757              	.LBE178:
 1758              	.LBE179:
 1759              		.loc 1 651 5 view .LVU378
 1760 00e0 50       		pushl	%eax
 1761              		.cfi_def_cfa_offset 80
 1762 00e1 E8FCFFFF 		call	__test_assert@PLT
 1762      FF
 1763              	.LVL84:
 1764 00e6 83C410   		addl	$16, %esp
GAS LISTING /tmp/ccVaQ2UV.s 			page 36


 1765              		.cfi_def_cfa_offset 64
 1766 00e9 84C0     		testb	%al, %al
 1767 00eb 0F8567FF 		jne	.L29
 1767      FFFF
 1768              		.loc 1 651 64 is_stmt 1 discriminator 2 view .LVU379
 1769              		.loc 1 653 3 discriminator 2 view .LVU380
 1770              		.loc 1 653 19 discriminator 2 view .LVU381
 1771              		.loc 1 656 3 discriminator 2 view .LVU382
 1772              	.LBB180:
 1773              	.LBB181:
 1774              		.loc 2 542 37 is_stmt 0 discriminator 2 view .LVU383
 1775 00f1 8B470C   		movl	12(%edi), %eax
 1776              	.LBE181:
 1777              	.LBE180:
 1778              		.loc 1 658 5 discriminator 2 view .LVU384
 1779 00f4 83EC08   		subl	$8, %esp
 1780              		.cfi_def_cfa_offset 72
 1781 00f7 8D8B0000 		leal	.LC8@GOTOFF(%ebx), %ecx
 1781      0000
 1782              		.loc 1 656 3 discriminator 2 view .LVU385
 1783 00fd C7450005 		movl	$5, 0(%ebp)
 1783      000000
 1784              		.loc 1 658 5 is_stmt 1 discriminator 2 view .LVU386
 1785              	.LBB185:
 1786              	.LBI180:
 1787              		.loc 2 540 23 discriminator 2 view .LVU387
 1788              	.LBB184:
 1789              		.loc 2 542 3 discriminator 2 view .LVU388
 1790              	.LBB182:
 1791              	.LBI182:
 1792              		.loc 2 527 25 discriminator 2 view .LVU389
 1793              	.LBB183:
 1794              		.loc 2 529 3 discriminator 2 view .LVU390
 1795              	.LBE183:
 1796              	.LBE182:
 1797              	.LBE184:
 1798              	.LBE185:
 1799              		.loc 1 658 5 is_stmt 0 discriminator 2 view .LVU391
 1800 0104 894C2424 		movl	%ecx, 36(%esp)
 1801 0108 51       		pushl	%ecx
 1802              		.cfi_def_cfa_offset 76
 1803 0109 8B4C2418 		movl	24(%esp), %ecx
 1804 010d 394808   		cmpl	%ecx, 8(%eax)
 1805 0110 0F94C0   		sete	%al
 1806 0113 0FB6C0   		movzbl	%al, %eax
 1807 0116 50       		pushl	%eax
 1808              		.cfi_def_cfa_offset 80
 1809 0117 E8FCFFFF 		call	__test_assert@PLT
 1809      FF
 1810              	.LVL85:
 1811 011c 83C410   		addl	$16, %esp
 1812              		.cfi_def_cfa_offset 64
 1813 011f 84C0     		testb	%al, %al
 1814 0121 0F8531FF 		jne	.L29
 1814      FFFF
 1815              		.loc 1 658 69 is_stmt 1 discriminator 2 view .LVU392
 1816              		.loc 1 660 3 discriminator 2 view .LVU393
GAS LISTING /tmp/ccVaQ2UV.s 			page 37


 1817              		.loc 1 660 19 discriminator 2 view .LVU394
 1818              		.loc 1 663 3 discriminator 2 view .LVU395
 1819              		.loc 1 665 9 is_stmt 0 discriminator 2 view .LVU396
 1820 0127 83EC0C   		subl	$12, %esp
 1821              		.cfi_def_cfa_offset 76
 1822              		.loc 1 663 3 discriminator 2 view .LVU397
 1823 012a C7450006 		movl	$6, 0(%ebp)
 1823      000000
 1824              		.loc 1 665 5 is_stmt 1 discriminator 2 view .LVU398
 1825              		.loc 1 665 9 is_stmt 0 discriminator 2 view .LVU399
 1826 0131 56       		pushl	%esi
 1827              		.cfi_def_cfa_offset 80
 1828 0132 E8FCFFFF 		call	chMtxTryLock@PLT
 1828      FF
 1829              	.LVL86:
 1830              		.loc 1 666 5 is_stmt 1 discriminator 2 view .LVU400
 1831 0137 59       		popl	%ecx
 1832              		.cfi_def_cfa_offset 76
 1833 0138 5A       		popl	%edx
 1834              		.cfi_def_cfa_offset 72
 1835 0139 FF742410 		pushl	16(%esp)
 1836              		.cfi_def_cfa_offset 76
 1837 013d 0FB6C0   		movzbl	%al, %eax
 1838              		.loc 1 666 5 is_stmt 0 discriminator 2 view .LVU401
 1839 0140 50       		pushl	%eax
 1840              		.cfi_def_cfa_offset 80
 1841 0141 E8FCFFFF 		call	__test_assert@PLT
 1841      FF
 1842              	.LVL87:
 1843              		.loc 1 666 5 discriminator 2 view .LVU402
 1844 0146 83C410   		addl	$16, %esp
 1845              		.cfi_def_cfa_offset 64
 1846 0149 84C0     		testb	%al, %al
 1847 014b 0F8507FF 		jne	.L29
 1847      FFFF
 1848              		.loc 1 666 37 is_stmt 1 discriminator 2 view .LVU403
 1849              		.loc 1 667 5 discriminator 2 view .LVU404
 1850              		.loc 1 667 9 is_stmt 0 discriminator 2 view .LVU405
 1851 0151 83EC0C   		subl	$12, %esp
 1852              		.cfi_def_cfa_offset 76
 1853 0154 56       		pushl	%esi
 1854              		.cfi_def_cfa_offset 80
 1855 0155 E8FCFFFF 		call	chMtxTryLock@PLT
 1855      FF
 1856              	.LVL88:
 1857              		.loc 1 668 5 is_stmt 1 discriminator 2 view .LVU406
 1858 015a 59       		popl	%ecx
 1859              		.cfi_def_cfa_offset 76
 1860 015b 5A       		popl	%edx
 1861              		.cfi_def_cfa_offset 72
 1862 015c FF742418 		pushl	24(%esp)
 1863              		.cfi_def_cfa_offset 76
 1864 0160 83F001   		xorl	$1, %eax
 1865              	.LVL89:
 1866              		.loc 1 668 5 is_stmt 0 discriminator 2 view .LVU407
 1867 0163 0FB6C0   		movzbl	%al, %eax
 1868 0166 50       		pushl	%eax
GAS LISTING /tmp/ccVaQ2UV.s 			page 38


 1869              		.cfi_def_cfa_offset 80
 1870 0167 E8FCFFFF 		call	__test_assert@PLT
 1870      FF
 1871              	.LVL90:
 1872 016c 83C410   		addl	$16, %esp
 1873              		.cfi_def_cfa_offset 64
 1874 016f 84C0     		testb	%al, %al
 1875 0171 0F85E1FE 		jne	.L29
 1875      FFFF
 1876              		.loc 1 668 34 is_stmt 1 discriminator 2 view .LVU408
 1877              		.loc 1 670 5 discriminator 2 view .LVU409
 1878 0177 E8FCFFFF 		call	chMtxUnlockAll@PLT
 1878      FF
 1879              	.LVL91:
 1880              		.loc 1 671 5 discriminator 2 view .LVU410
 1881 017c 8B930800 		movl	8+m1@GOTOFF(%ebx), %edx
 1881      0000
 1882 0182 83EC08   		subl	$8, %esp
 1883              		.cfi_def_cfa_offset 72
 1884 0185 31C0     		xorl	%eax, %eax
 1885 0187 FF74241C 		pushl	28(%esp)
 1886              		.cfi_def_cfa_offset 76
 1887 018b 85D2     		testl	%edx, %edx
 1888 018d 0F94C0   		sete	%al
 1889 0190 50       		pushl	%eax
 1890              		.cfi_def_cfa_offset 80
 1891 0191 E8FCFFFF 		call	__test_assert@PLT
 1891      FF
 1892              	.LVL92:
 1893 0196 83C410   		addl	$16, %esp
 1894              		.cfi_def_cfa_offset 64
 1895 0199 84C0     		testb	%al, %al
 1896 019b 0F85B7FE 		jne	.L29
 1896      FFFF
 1897              		.loc 1 671 49 view .LVU411
 1898              		.loc 1 672 5 view .LVU412
 1899              	.LVL93:
 1900              	.LBB186:
 1901              	.LBI186:
 1902              		.loc 5 296 20 view .LVU413
 1903              	.LBB187:
 1904              		.loc 5 298 3 view .LVU414
 1905              		.loc 5 298 3 is_stmt 0 view .LVU415
 1906              	.LBE187:
 1907              	.LBE186:
 1908              		.loc 1 672 5 view .LVU416
 1909 01a1 83EC08   		subl	$8, %esp
 1910              		.cfi_def_cfa_offset 72
 1911              	.LBB189:
 1912              	.LBB188:
 1913              		.loc 5 298 10 view .LVU417
 1914 01a4 31C0     		xorl	%eax, %eax
 1915 01a6 39B30000 		cmpl	%esi, m1@GOTOFF(%ebx)
 1915      0000
 1916 01ac 0F94C0   		sete	%al
 1917              	.LBE188:
 1918              	.LBE189:
GAS LISTING /tmp/ccVaQ2UV.s 			page 39


 1919              		.loc 1 672 5 view .LVU418
 1920 01af FF742420 		pushl	32(%esp)
 1921              		.cfi_def_cfa_offset 76
 1922 01b3 50       		pushl	%eax
 1923              		.cfi_def_cfa_offset 80
 1924 01b4 E8FCFFFF 		call	__test_assert@PLT
 1924      FF
 1925              	.LVL94:
 1926 01b9 83C410   		addl	$16, %esp
 1927              		.cfi_def_cfa_offset 64
 1928 01bc 84C0     		testb	%al, %al
 1929 01be 0F8594FE 		jne	.L29
 1929      FFFF
 1930              		.loc 1 672 64 is_stmt 1 discriminator 2 view .LVU419
 1931              		.loc 1 674 3 discriminator 2 view .LVU420
 1932              		.loc 1 674 19 discriminator 2 view .LVU421
 1933              		.loc 1 677 3 discriminator 2 view .LVU422
 1934              	.LBB190:
 1935              	.LBB191:
 1936              		.loc 2 542 37 is_stmt 0 discriminator 2 view .LVU423
 1937 01c4 8B470C   		movl	12(%edi), %eax
 1938              	.LBE191:
 1939              	.LBE190:
 1940              		.loc 1 679 5 discriminator 2 view .LVU424
 1941 01c7 83EC08   		subl	$8, %esp
 1942              		.cfi_def_cfa_offset 72
 1943              		.loc 1 677 3 discriminator 2 view .LVU425
 1944 01ca C7450007 		movl	$7, 0(%ebp)
 1944      000000
 1945              		.loc 1 679 5 is_stmt 1 discriminator 2 view .LVU426
 1946              	.LBB195:
 1947              	.LBI190:
 1948              		.loc 2 540 23 discriminator 2 view .LVU427
 1949              	.LBB194:
 1950              		.loc 2 542 3 discriminator 2 view .LVU428
 1951              	.LBB192:
 1952              	.LBI192:
 1953              		.loc 2 527 25 discriminator 2 view .LVU429
 1954              	.LBB193:
 1955              		.loc 2 529 3 discriminator 2 view .LVU430
 1956              	.LBE193:
 1957              	.LBE192:
 1958              	.LBE194:
 1959              	.LBE195:
 1960              		.loc 1 679 5 is_stmt 0 discriminator 2 view .LVU431
 1961 01d1 FF742424 		pushl	36(%esp)
 1962              		.cfi_def_cfa_offset 76
 1963 01d5 8B4C2418 		movl	24(%esp), %ecx
 1964 01d9 394808   		cmpl	%ecx, 8(%eax)
 1965 01dc 0F94C0   		sete	%al
 1966 01df 0FB6C0   		movzbl	%al, %eax
 1967 01e2 50       		pushl	%eax
 1968              		.cfi_def_cfa_offset 80
 1969 01e3 E8FCFFFF 		call	__test_assert@PLT
 1969      FF
 1970              	.LVL95:
 1971 01e8 83C410   		addl	$16, %esp
GAS LISTING /tmp/ccVaQ2UV.s 			page 40


 1972              		.cfi_def_cfa_offset 64
 1973              		.loc 1 679 69 is_stmt 1 discriminator 2 view .LVU432
 1974              		.loc 1 681 3 discriminator 2 view .LVU433
 1975              		.loc 1 681 19 discriminator 2 view .LVU434
 1976 01eb E968FEFF 		jmp	.L29
 1976      FF
 1977              		.cfi_endproc
 1978              	.LFE315:
 1979              		.size	rt_test_008_005_execute, .-rt_test_008_005_execute
 1980              		.section	.text.rt_test_008_004_execute,"ax",@progbits
 1981              		.p2align 4
 1982              		.type	rt_test_008_004_execute, @function
 1983              	rt_test_008_004_execute:
 1984              	.LFB313:
 1985              		.loc 1 499 43 view -0
 1986              		.cfi_startproc
 1987              		.loc 1 500 3 view .LVU436
 1988              		.loc 1 504 3 view .LVU437
 1989              		.loc 1 506 5 view .LVU438
 1990              	.LBB196:
 1991              	.LBI196:
 1992              		.loc 2 540 23 view .LVU439
 1993              	.LBB197:
 1994              		.loc 2 542 3 view .LVU440
 1995              	.LBB198:
 1996              	.LBI198:
 1997              		.loc 2 527 25 view .LVU441
 1998              	.LBB199:
 1999              		.loc 2 529 3 view .LVU442
 2000              	.LBE199:
 2001              	.LBE198:
 2002              	.LBE197:
 2003              	.LBE196:
 2004              		.loc 1 499 43 is_stmt 0 view .LVU443
 2005 0000 55       		pushl	%ebp
 2006              		.cfi_def_cfa_offset 8
 2007              		.cfi_offset 5, -8
 2008 0001 57       		pushl	%edi
 2009              		.cfi_def_cfa_offset 12
 2010              		.cfi_offset 7, -12
 2011 0002 56       		pushl	%esi
 2012              		.cfi_def_cfa_offset 16
 2013              		.cfi_offset 6, -16
 2014 0003 53       		pushl	%ebx
 2015              		.cfi_def_cfa_offset 20
 2016              		.cfi_offset 3, -20
 2017 0004 E8FCFFFF 		call	__x86.get_pc_thunk.bx
 2017      FF
 2018 0009 81C30200 		addl	$_GLOBAL_OFFSET_TABLE_, %ebx
 2018      0000
 2019 000f 83EC38   		subl	$56, %esp
 2020              		.cfi_def_cfa_offset 76
 2021              	.LBB205:
 2022              	.LBB202:
 2023              	.LBB201:
 2024              	.LBB200:
 2025              		.loc 2 529 10 view .LVU444
GAS LISTING /tmp/ccVaQ2UV.s 			page 41


 2026 0012 8BBB0000 		movl	ch0@GOT(%ebx), %edi
 2026      0000
 2027              	.LBE200:
 2028              	.LBE201:
 2029              	.LBE202:
 2030              	.LBE205:
 2031              		.loc 1 515 38 view .LVU445
 2032 0018 8B8B0000 		movl	wa@GOT(%ebx), %ecx
 2032      0000
 2033              		.loc 1 513 3 view .LVU446
 2034 001e 8BAB0000 		movl	chtest@GOT(%ebx), %ebp
 2034      0000
 2035              	.LBB206:
 2036              	.LBB203:
 2037              		.loc 2 542 37 view .LVU447
 2038 0024 8B470C   		movl	12(%edi), %eax
 2039              	.LBE203:
 2040              	.LBE206:
 2041              		.loc 1 513 3 view .LVU448
 2042 0027 C7450002 		movl	$2, 0(%ebp)
 2042      000000
 2043              	.LBB207:
 2044              	.LBB204:
 2045              		.loc 2 542 37 view .LVU449
 2046 002e 8B7008   		movl	8(%eax), %esi
 2047              	.LVL96:
 2048              		.loc 2 542 37 view .LVU450
 2049              	.LBE204:
 2050              	.LBE207:
 2051              		.loc 1 507 5 is_stmt 1 view .LVU451
 2052              		.loc 1 508 8 is_stmt 0 view .LVU452
 2053 0031 8D4602   		leal	2(%esi), %eax
 2054              		.loc 1 507 8 view .LVU453
 2055 0034 8D5601   		leal	1(%esi), %edx
 2056              	.LVL97:
 2057              		.loc 1 508 5 is_stmt 1 view .LVU454
 2058              		.loc 1 510 3 view .LVU455
 2059              		.loc 1 510 19 view .LVU456
 2060              		.loc 1 513 3 view .LVU457
 2061              		.loc 1 515 5 view .LVU458
 2062              		.loc 1 508 8 is_stmt 0 view .LVU459
 2063 0037 89442420 		movl	%eax, 32(%esp)
 2064              	.LVL98:
 2065              		.loc 1 515 18 view .LVU460
 2066 003b 8D830000 		leal	.LC0@GOTOFF(%ebx), %eax
 2066      0000
 2067 0041 50       		pushl	%eax
 2068              		.cfi_def_cfa_offset 80
 2069 0042 8D830000 		leal	thread4A@GOTOFF(%ebx), %eax
 2069      0000
 2070 0048 50       		pushl	%eax
 2071              		.cfi_def_cfa_offset 84
 2072 0049 89542424 		movl	%edx, 36(%esp)
 2073 004d 52       		pushl	%edx
 2074              		.cfi_def_cfa_offset 88
 2075 004e 68404100 		pushl	$16704
 2075      00
GAS LISTING /tmp/ccVaQ2UV.s 			page 42


 2076              		.cfi_def_cfa_offset 92
 2077 0053 FF31     		pushl	(%ecx)
 2078              		.cfi_def_cfa_offset 96
 2079 0055 894C2438 		movl	%ecx, 56(%esp)
 2080 0059 E8FCFFFF 		call	chThdCreateStatic@PLT
 2080      FF
 2081              	.LVL99:
 2082              		.loc 1 515 16 view .LVU461
 2083 005e 8B930000 		movl	threads@GOT(%ebx), %edx
 2083      0000
 2084 0064 8902     		movl	%eax, (%edx)
 2085              		.loc 1 516 18 view .LVU462
 2086 0066 8D830000 		leal	.LC2@GOTOFF(%ebx), %eax
 2086      0000
 2087              		.loc 1 515 16 view .LVU463
 2088 006c 8954242C 		movl	%edx, 44(%esp)
 2089              		.loc 1 516 5 is_stmt 1 view .LVU464
 2090              		.loc 1 516 18 is_stmt 0 view .LVU465
 2091 0070 83C414   		addl	$20, %esp
 2092              		.cfi_def_cfa_offset 76
 2093 0073 50       		pushl	%eax
 2094              		.cfi_def_cfa_offset 80
 2095 0074 8D830000 		leal	thread4B@GOTOFF(%ebx), %eax
 2095      0000
 2096 007a 50       		pushl	%eax
 2097              		.cfi_def_cfa_offset 84
 2098 007b FF742428 		pushl	40(%esp)
 2099              		.cfi_def_cfa_offset 88
 2100 007f 68404100 		pushl	$16704
 2100      00
 2101              		.cfi_def_cfa_offset 92
 2102 0084 8B4C2434 		movl	52(%esp), %ecx
 2103 0088 FF7104   		pushl	4(%ecx)
 2104              		.cfi_def_cfa_offset 96
 2105 008b E8FCFFFF 		call	chThdCreateStatic@PLT
 2105      FF
 2106              	.LVL100:
 2107              		.loc 1 516 16 view .LVU466
 2108 0090 8B54242C 		movl	44(%esp), %edx
 2109              		.loc 1 525 5 view .LVU467
 2110 0094 83C414   		addl	$20, %esp
 2111              		.cfi_def_cfa_offset 76
 2112 0097 8D8B0000 		leal	m1@GOTOFF(%ebx), %ecx
 2112      0000
 2113              		.loc 1 523 3 view .LVU468
 2114 009d C7450003 		movl	$3, 0(%ebp)
 2114      000000
 2115              		.loc 1 525 5 view .LVU469
 2116 00a4 894C2424 		movl	%ecx, 36(%esp)
 2117              		.loc 1 516 16 view .LVU470
 2118 00a8 894204   		movl	%eax, 4(%edx)
 2119              		.loc 1 518 3 is_stmt 1 view .LVU471
 2120              		.loc 1 518 19 view .LVU472
 2121              		.loc 1 523 3 view .LVU473
 2122              		.loc 1 525 5 view .LVU474
 2123 00ab 51       		pushl	%ecx
 2124              		.cfi_def_cfa_offset 80
GAS LISTING /tmp/ccVaQ2UV.s 			page 43


 2125 00ac E8FCFFFF 		call	chMtxLock@PLT
 2125      FF
 2126              	.LVL101:
 2127              		.loc 1 526 5 view .LVU475
 2128              	.LBB208:
 2129              	.LBI208:
 2130              		.loc 2 540 23 view .LVU476
 2131              	.LBB209:
 2132              		.loc 2 542 3 view .LVU477
 2133              	.LBB210:
 2134              	.LBI210:
 2135              		.loc 2 527 25 view .LVU478
 2136              	.LBB211:
 2137              		.loc 2 529 3 view .LVU479
 2138              	.LBE211:
 2139              	.LBE210:
 2140              	.LBE209:
 2141              	.LBE208:
 2142              		.loc 1 526 5 is_stmt 0 view .LVU480
 2143 00b1 59       		popl	%ecx
 2144              		.cfi_def_cfa_offset 76
 2145 00b2 58       		popl	%eax
 2146              		.cfi_def_cfa_offset 72
 2147 00b3 8D830000 		leal	.LC8@GOTOFF(%ebx), %eax
 2147      0000
 2148 00b9 89442414 		movl	%eax, 20(%esp)
 2149 00bd 50       		pushl	%eax
 2150              		.cfi_def_cfa_offset 76
 2151              	.LBB213:
 2152              	.LBB212:
 2153              		.loc 2 542 37 view .LVU481
 2154 00be 8B470C   		movl	12(%edi), %eax
 2155              	.LBE212:
 2156              	.LBE213:
 2157              		.loc 1 526 5 view .LVU482
 2158 00c1 397008   		cmpl	%esi, 8(%eax)
 2159 00c4 0F94C0   		sete	%al
 2160 00c7 0FB6C0   		movzbl	%al, %eax
 2161 00ca 50       		pushl	%eax
 2162              		.cfi_def_cfa_offset 80
 2163 00cb E8FCFFFF 		call	__test_assert@PLT
 2163      FF
 2164              	.LVL102:
 2165 00d0 83C410   		addl	$16, %esp
 2166              		.cfi_def_cfa_offset 64
 2167 00d3 84C0     		testb	%al, %al
 2168 00d5 7409     		je	.L40
 2169              	.L35:
 2170              		.loc 1 575 1 view .LVU483
 2171 00d7 83C42C   		addl	$44, %esp
 2172              		.cfi_remember_state
 2173              		.cfi_def_cfa_offset 20
 2174 00da 5B       		popl	%ebx
 2175              		.cfi_restore 3
 2176              		.cfi_def_cfa_offset 16
 2177 00db 5E       		popl	%esi
 2178              		.cfi_restore 6
GAS LISTING /tmp/ccVaQ2UV.s 			page 44


 2179              		.cfi_def_cfa_offset 12
 2180              	.LVL103:
 2181              		.loc 1 575 1 view .LVU484
 2182 00dc 5F       		popl	%edi
 2183              		.cfi_restore 7
 2184              		.cfi_def_cfa_offset 8
 2185 00dd 5D       		popl	%ebp
 2186              		.cfi_restore 5
 2187              		.cfi_def_cfa_offset 4
 2188 00de C3       		ret
 2189              	.LVL104:
 2190 00df 90       		.p2align 4,,10
 2191              		.p2align 3
 2192              	.L40:
 2193              		.cfi_restore_state
 2194              		.loc 1 526 66 is_stmt 1 discriminator 2 view .LVU485
 2195              		.loc 1 528 3 discriminator 2 view .LVU486
 2196              		.loc 1 528 19 discriminator 2 view .LVU487
 2197              		.loc 1 533 3 discriminator 2 view .LVU488
 2198              		.loc 1 535 5 is_stmt 0 discriminator 2 view .LVU489
 2199 00e0 83EC0C   		subl	$12, %esp
 2200              		.cfi_def_cfa_offset 76
 2201              		.loc 1 533 3 discriminator 2 view .LVU490
 2202 00e3 C7450004 		movl	$4, 0(%ebp)
 2202      000000
 2203              		.loc 1 535 5 is_stmt 1 discriminator 2 view .LVU491
 2204 00ea 6A64     		pushl	$100
 2205              		.cfi_def_cfa_offset 80
 2206 00ec E8FCFFFF 		call	chThdSleep@PLT
 2206      FF
 2207              	.LVL105:
 2208              		.loc 1 536 5 discriminator 2 view .LVU492
 2209              	.LBB214:
 2210              	.LBI214:
 2211              		.loc 2 540 23 discriminator 2 view .LVU493
 2212              	.LBB215:
 2213              		.loc 2 542 3 discriminator 2 view .LVU494
 2214              	.LBB216:
 2215              	.LBI216:
 2216              		.loc 2 527 25 discriminator 2 view .LVU495
 2217              	.LBB217:
 2218              		.loc 2 529 3 discriminator 2 view .LVU496
 2219              	.LBE217:
 2220              	.LBE216:
 2221              	.LBE215:
 2222              	.LBE214:
 2223              		.loc 1 536 5 is_stmt 0 discriminator 2 view .LVU497
 2224 00f1 58       		popl	%eax
 2225              		.cfi_def_cfa_offset 76
 2226              	.LBB219:
 2227              	.LBB218:
 2228              		.loc 2 542 37 discriminator 2 view .LVU498
 2229 00f2 8B470C   		movl	12(%edi), %eax
 2230              	.LBE218:
 2231              	.LBE219:
 2232              		.loc 1 536 5 discriminator 2 view .LVU499
 2233 00f5 5A       		popl	%edx
GAS LISTING /tmp/ccVaQ2UV.s 			page 45


 2234              		.cfi_def_cfa_offset 72
 2235 00f6 FF742414 		pushl	20(%esp)
 2236              		.cfi_def_cfa_offset 76
 2237 00fa 8B54241C 		movl	28(%esp), %edx
 2238 00fe 395008   		cmpl	%edx, 8(%eax)
 2239 0101 0F94C0   		sete	%al
 2240 0104 0FB6C0   		movzbl	%al, %eax
 2241 0107 50       		pushl	%eax
 2242              		.cfi_def_cfa_offset 80
 2243 0108 E8FCFFFF 		call	__test_assert@PLT
 2243      FF
 2244              	.LVL106:
 2245 010d 83C410   		addl	$16, %esp
 2246              		.cfi_def_cfa_offset 64
 2247 0110 84C0     		testb	%al, %al
 2248 0112 75C3     		jne	.L35
 2249              		.loc 1 536 67 is_stmt 1 discriminator 2 view .LVU500
 2250              		.loc 1 538 3 discriminator 2 view .LVU501
 2251              		.loc 1 538 19 discriminator 2 view .LVU502
 2252              		.loc 1 543 3 discriminator 2 view .LVU503
 2253              		.loc 1 545 5 is_stmt 0 discriminator 2 view .LVU504
 2254 0114 83EC0C   		subl	$12, %esp
 2255              		.cfi_def_cfa_offset 76
 2256 0117 8D830000 		leal	m2@GOTOFF(%ebx), %eax
 2256      0000
 2257              		.loc 1 543 3 discriminator 2 view .LVU505
 2258 011d C7450005 		movl	$5, 0(%ebp)
 2258      000000
 2259              		.loc 1 545 5 is_stmt 1 discriminator 2 view .LVU506
 2260 0124 89442428 		movl	%eax, 40(%esp)
 2261 0128 50       		pushl	%eax
 2262              		.cfi_def_cfa_offset 80
 2263 0129 E8FCFFFF 		call	chMtxLock@PLT
 2263      FF
 2264              	.LVL107:
 2265              		.loc 1 546 5 discriminator 2 view .LVU507
 2266              	.LBB220:
 2267              	.LBI220:
 2268              		.loc 2 540 23 discriminator 2 view .LVU508
 2269              	.LBB221:
 2270              		.loc 2 542 3 discriminator 2 view .LVU509
 2271              	.LBB222:
 2272              	.LBI222:
 2273              		.loc 2 527 25 discriminator 2 view .LVU510
 2274              	.LBB223:
 2275              		.loc 2 529 3 discriminator 2 view .LVU511
 2276              	.LBE223:
 2277              	.LBE222:
 2278              	.LBE221:
 2279              	.LBE220:
 2280              		.loc 1 546 5 is_stmt 0 discriminator 2 view .LVU512
 2281 012e 59       		popl	%ecx
 2282              		.cfi_def_cfa_offset 76
 2283 012f 58       		popl	%eax
 2284              		.cfi_def_cfa_offset 72
 2285 0130 FF742414 		pushl	20(%esp)
 2286              		.cfi_def_cfa_offset 76
GAS LISTING /tmp/ccVaQ2UV.s 			page 46


 2287              	.LBB225:
 2288              	.LBB224:
 2289              		.loc 2 542 37 discriminator 2 view .LVU513
 2290 0134 8B470C   		movl	12(%edi), %eax
 2291              	.LBE224:
 2292              	.LBE225:
 2293              		.loc 1 546 5 discriminator 2 view .LVU514
 2294 0137 8B54241C 		movl	28(%esp), %edx
 2295 013b 395008   		cmpl	%edx, 8(%eax)
 2296 013e 0F94C0   		sete	%al
 2297 0141 0FB6C0   		movzbl	%al, %eax
 2298 0144 50       		pushl	%eax
 2299              		.cfi_def_cfa_offset 80
 2300 0145 E8FCFFFF 		call	__test_assert@PLT
 2300      FF
 2301              	.LVL108:
 2302 014a 83C410   		addl	$16, %esp
 2303              		.cfi_def_cfa_offset 64
 2304 014d 84C0     		testb	%al, %al
 2305 014f 7586     		jne	.L35
 2306              		.loc 1 546 67 is_stmt 1 discriminator 2 view .LVU515
 2307              		.loc 1 548 3 discriminator 2 view .LVU516
 2308              		.loc 1 548 19 discriminator 2 view .LVU517
 2309              		.loc 1 553 3 discriminator 2 view .LVU518
 2310              		.loc 1 555 5 is_stmt 0 discriminator 2 view .LVU519
 2311 0151 83EC0C   		subl	$12, %esp
 2312              		.cfi_def_cfa_offset 76
 2313              		.loc 1 553 3 discriminator 2 view .LVU520
 2314 0154 C7450006 		movl	$6, 0(%ebp)
 2314      000000
 2315              		.loc 1 555 5 is_stmt 1 discriminator 2 view .LVU521
 2316 015b 6A64     		pushl	$100
 2317              		.cfi_def_cfa_offset 80
 2318 015d E8FCFFFF 		call	chThdSleep@PLT
 2318      FF
 2319              	.LVL109:
 2320              		.loc 1 556 5 discriminator 2 view .LVU522
 2321              	.LBB226:
 2322              	.LBI226:
 2323              		.loc 2 540 23 discriminator 2 view .LVU523
 2324              	.LBB227:
 2325              		.loc 2 542 3 discriminator 2 view .LVU524
 2326              	.LBB228:
 2327              	.LBI228:
 2328              		.loc 2 527 25 discriminator 2 view .LVU525
 2329              	.LBB229:
 2330              		.loc 2 529 3 discriminator 2 view .LVU526
 2331              	.LBE229:
 2332              	.LBE228:
 2333              	.LBE227:
 2334              	.LBE226:
 2335              		.loc 1 556 5 is_stmt 0 discriminator 2 view .LVU527
 2336 0162 58       		popl	%eax
 2337              		.cfi_def_cfa_offset 76
 2338              	.LBB231:
 2339              	.LBB230:
 2340              		.loc 2 542 37 discriminator 2 view .LVU528
GAS LISTING /tmp/ccVaQ2UV.s 			page 47


 2341 0163 8B470C   		movl	12(%edi), %eax
 2342              	.LBE230:
 2343              	.LBE231:
 2344              		.loc 1 556 5 discriminator 2 view .LVU529
 2345 0166 5A       		popl	%edx
 2346              		.cfi_def_cfa_offset 72
 2347 0167 FF742414 		pushl	20(%esp)
 2348              		.cfi_def_cfa_offset 76
 2349 016b 8B4C2420 		movl	32(%esp), %ecx
 2350 016f 394808   		cmpl	%ecx, 8(%eax)
 2351 0172 0F94C0   		sete	%al
 2352 0175 0FB6C0   		movzbl	%al, %eax
 2353 0178 50       		pushl	%eax
 2354              		.cfi_def_cfa_offset 80
 2355 0179 E8FCFFFF 		call	__test_assert@PLT
 2355      FF
 2356              	.LVL110:
 2357 017e 83C410   		addl	$16, %esp
 2358              		.cfi_def_cfa_offset 64
 2359 0181 84C0     		testb	%al, %al
 2360 0183 0F854EFF 		jne	.L35
 2360      FFFF
 2361              		.loc 1 556 67 is_stmt 1 discriminator 2 view .LVU530
 2362              		.loc 1 558 3 discriminator 2 view .LVU531
 2363              		.loc 1 558 19 discriminator 2 view .LVU532
 2364              		.loc 1 561 3 discriminator 2 view .LVU533
 2365              		.loc 1 563 5 is_stmt 0 discriminator 2 view .LVU534
 2366 0189 83EC0C   		subl	$12, %esp
 2367              		.cfi_def_cfa_offset 76
 2368              		.loc 1 561 3 discriminator 2 view .LVU535
 2369 018c C7450007 		movl	$7, 0(%ebp)
 2369      000000
 2370              		.loc 1 563 5 is_stmt 1 discriminator 2 view .LVU536
 2371 0193 FF742428 		pushl	40(%esp)
 2372              		.cfi_def_cfa_offset 80
 2373 0197 E8FCFFFF 		call	chMtxUnlock@PLT
 2373      FF
 2374              	.LVL111:
 2375              		.loc 1 564 5 discriminator 2 view .LVU537
 2376              	.LBB232:
 2377              	.LBI232:
 2378              		.loc 2 540 23 discriminator 2 view .LVU538
 2379              	.LBB233:
 2380              		.loc 2 542 3 discriminator 2 view .LVU539
 2381              	.LBB234:
 2382              	.LBI234:
 2383              		.loc 2 527 25 discriminator 2 view .LVU540
 2384              	.LBB235:
 2385              		.loc 2 529 3 discriminator 2 view .LVU541
 2386              	.LBE235:
 2387              	.LBE234:
 2388              	.LBE233:
 2389              	.LBE232:
 2390              		.loc 1 564 5 is_stmt 0 discriminator 2 view .LVU542
 2391 019c 59       		popl	%ecx
 2392              		.cfi_def_cfa_offset 76
 2393 019d 58       		popl	%eax
GAS LISTING /tmp/ccVaQ2UV.s 			page 48


 2394              		.cfi_def_cfa_offset 72
 2395 019e FF742414 		pushl	20(%esp)
 2396              		.cfi_def_cfa_offset 76
 2397              	.LBB237:
 2398              	.LBB236:
 2399              		.loc 2 542 37 discriminator 2 view .LVU543
 2400 01a2 8B470C   		movl	12(%edi), %eax
 2401              	.LBE236:
 2402              	.LBE237:
 2403              		.loc 1 564 5 discriminator 2 view .LVU544
 2404 01a5 8B54241C 		movl	28(%esp), %edx
 2405 01a9 395008   		cmpl	%edx, 8(%eax)
 2406 01ac 0F94C0   		sete	%al
 2407 01af 0FB6C0   		movzbl	%al, %eax
 2408 01b2 50       		pushl	%eax
 2409              		.cfi_def_cfa_offset 80
 2410 01b3 E8FCFFFF 		call	__test_assert@PLT
 2410      FF
 2411              	.LVL112:
 2412 01b8 83C410   		addl	$16, %esp
 2413              		.cfi_def_cfa_offset 64
 2414 01bb 84C0     		testb	%al, %al
 2415 01bd 0F8514FF 		jne	.L35
 2415      FFFF
 2416              		.loc 1 564 67 is_stmt 1 discriminator 2 view .LVU545
 2417              		.loc 1 566 3 discriminator 2 view .LVU546
 2418              		.loc 1 566 19 discriminator 2 view .LVU547
 2419              		.loc 1 569 3 discriminator 2 view .LVU548
 2420              		.loc 1 571 5 is_stmt 0 discriminator 2 view .LVU549
 2421 01c3 83EC0C   		subl	$12, %esp
 2422              		.cfi_def_cfa_offset 76
 2423              		.loc 1 569 3 discriminator 2 view .LVU550
 2424 01c6 C7450008 		movl	$8, 0(%ebp)
 2424      000000
 2425              		.loc 1 571 5 is_stmt 1 discriminator 2 view .LVU551
 2426 01cd FF742424 		pushl	36(%esp)
 2427              		.cfi_def_cfa_offset 80
 2428 01d1 E8FCFFFF 		call	chMtxUnlock@PLT
 2428      FF
 2429              	.LVL113:
 2430              		.loc 1 572 5 discriminator 2 view .LVU552
 2431              	.LBB238:
 2432              	.LBI238:
 2433              		.loc 2 540 23 discriminator 2 view .LVU553
 2434              	.LBB239:
 2435              		.loc 2 542 3 discriminator 2 view .LVU554
 2436              	.LBB240:
 2437              	.LBI240:
 2438              		.loc 2 527 25 discriminator 2 view .LVU555
 2439              	.LBB241:
 2440              		.loc 2 529 3 discriminator 2 view .LVU556
 2441              	.LBE241:
 2442              	.LBE240:
 2443              	.LBE239:
 2444              	.LBE238:
 2445              		.loc 1 572 5 is_stmt 0 discriminator 2 view .LVU557
 2446 01d6 58       		popl	%eax
GAS LISTING /tmp/ccVaQ2UV.s 			page 49


 2447              		.cfi_def_cfa_offset 76
 2448              	.LBB243:
 2449              	.LBB242:
 2450              		.loc 2 542 37 discriminator 2 view .LVU558
 2451 01d7 8B470C   		movl	12(%edi), %eax
 2452              	.LBE242:
 2453              	.LBE243:
 2454              		.loc 1 572 5 discriminator 2 view .LVU559
 2455 01da 5A       		popl	%edx
 2456              		.cfi_def_cfa_offset 72
 2457 01db FF742414 		pushl	20(%esp)
 2458              		.cfi_def_cfa_offset 76
 2459 01df 397008   		cmpl	%esi, 8(%eax)
 2460 01e2 0F94C0   		sete	%al
 2461 01e5 0FB6C0   		movzbl	%al, %eax
 2462 01e8 50       		pushl	%eax
 2463              		.cfi_def_cfa_offset 80
 2464 01e9 E8FCFFFF 		call	__test_assert@PLT
 2464      FF
 2465              	.LVL114:
 2466 01ee 83C410   		addl	$16, %esp
 2467              		.cfi_def_cfa_offset 64
 2468              		.loc 1 572 66 is_stmt 1 discriminator 2 view .LVU560
 2469              		.loc 1 574 3 discriminator 2 view .LVU561
 2470              		.loc 1 574 19 discriminator 2 view .LVU562
 2471 01f1 E9E1FEFF 		jmp	.L35
 2471      FF
 2472              		.cfi_endproc
 2473              	.LFE313:
 2474              		.size	rt_test_008_004_execute, .-rt_test_008_004_execute
 2475              		.section	.text.thread4A,"ax",@progbits
 2476              		.p2align 4
 2477              		.type	thread4A, @function
 2478              	thread4A:
 2479              	.LVL115:
 2480              	.LFB304:
 2481              		.loc 1 181 34 view -0
 2482              		.cfi_startproc
 2483              		.loc 1 183 3 view .LVU564
 2484              		.loc 1 184 3 view .LVU565
 2485              		.loc 1 181 34 is_stmt 0 view .LVU566
 2486 0000 56       		pushl	%esi
 2487              		.cfi_def_cfa_offset 8
 2488              		.cfi_offset 6, -8
 2489 0001 53       		pushl	%ebx
 2490              		.cfi_def_cfa_offset 12
 2491              		.cfi_offset 3, -12
 2492 0002 E8FCFFFF 		call	__x86.get_pc_thunk.bx
 2492      FF
 2493 0007 81C30200 		addl	$_GLOBAL_OFFSET_TABLE_, %ebx
 2493      0000
 2494 000d 83EC10   		subl	$16, %esp
 2495              		.cfi_def_cfa_offset 28
 2496              		.loc 1 184 3 view .LVU567
 2497 0010 6A32     		pushl	$50
 2498              		.cfi_def_cfa_offset 32
 2499 0012 E8FCFFFF 		call	chThdSleep@PLT
GAS LISTING /tmp/ccVaQ2UV.s 			page 50


 2499      FF
 2500              	.LVL116:
 2501              		.loc 1 185 3 is_stmt 1 view .LVU568
 2502 0017 8DB30000 		leal	m1@GOTOFF(%ebx), %esi
 2502      0000
 2503 001d 893424   		movl	%esi, (%esp)
 2504 0020 E8FCFFFF 		call	chMtxLock@PLT
 2504      FF
 2505              	.LVL117:
 2506              		.loc 1 186 3 view .LVU569
 2507 0025 893424   		movl	%esi, (%esp)
 2508 0028 E8FCFFFF 		call	chMtxUnlock@PLT
 2508      FF
 2509              	.LVL118:
 2510              		.loc 1 187 1 is_stmt 0 view .LVU570
 2511 002d 83C414   		addl	$20, %esp
 2512              		.cfi_def_cfa_offset 12
 2513 0030 5B       		popl	%ebx
 2514              		.cfi_restore 3
 2515              		.cfi_def_cfa_offset 8
 2516 0031 5E       		popl	%esi
 2517              		.cfi_restore 6
 2518              		.cfi_def_cfa_offset 4
 2519 0032 C3       		ret
 2520              		.cfi_endproc
 2521              	.LFE304:
 2522              		.size	thread4A, .-thread4A
 2523              		.section	.text.thread4B,"ax",@progbits
 2524              		.p2align 4
 2525              		.type	thread4B, @function
 2526              	thread4B:
 2527              	.LVL119:
 2528              	.LFB305:
 2529              		.loc 1 189 34 is_stmt 1 view -0
 2530              		.cfi_startproc
 2531              		.loc 1 191 3 view .LVU572
 2532              		.loc 1 192 3 view .LVU573
 2533              		.loc 1 189 34 is_stmt 0 view .LVU574
 2534 0000 57       		pushl	%edi
 2535              		.cfi_def_cfa_offset 8
 2536              		.cfi_offset 7, -8
 2537 0001 56       		pushl	%esi
 2538              		.cfi_def_cfa_offset 12
 2539              		.cfi_offset 6, -12
 2540 0002 53       		pushl	%ebx
 2541              		.cfi_def_cfa_offset 16
 2542              		.cfi_offset 3, -16
 2543 0003 E8FCFFFF 		call	__x86.get_pc_thunk.bx
 2543      FF
 2544 0008 81C30200 		addl	$_GLOBAL_OFFSET_TABLE_, %ebx
 2544      0000
 2545              		.loc 1 192 3 view .LVU575
 2546 000e 83EC0C   		subl	$12, %esp
 2547              		.cfi_def_cfa_offset 28
 2548 0011 68960000 		pushl	$150
 2548      00
 2549              		.cfi_def_cfa_offset 32
GAS LISTING /tmp/ccVaQ2UV.s 			page 51


 2550 0016 E8FCFFFF 		call	chThdSleep@PLT
 2550      FF
 2551              	.LVL120:
 2552              		.loc 1 193 3 is_stmt 1 view .LVU576
 2553              	.LBB244:
 2554              	.LBI244:
 2555              		.loc 4 407 20 view .LVU577
 2556              		.loc 4 409 3 view .LVU578
 2557              	.LBB245:
 2558              	.LBI245:
 2559              		.loc 3 361 20 view .LVU579
 2560              	.LBB246:
 2561              		.loc 3 363 3 view .LVU580
 2562              		.loc 3 363 16 is_stmt 0 view .LVU581
 2563 001b 8BB30000 		movl	port_irq_sts@GOT(%ebx), %esi
 2563      0000
 2564              	.LBE246:
 2565              	.LBE245:
 2566              	.LBE244:
 2567              		.loc 1 194 3 view .LVU582
 2568 0021 8DBB0000 		leal	m2@GOTOFF(%ebx), %edi
 2568      0000
 2569 0027 893C24   		movl	%edi, (%esp)
 2570              	.LBB249:
 2571              	.LBB248:
 2572              	.LBB247:
 2573              		.loc 3 363 16 view .LVU583
 2574 002a C7060100 		movl	$1, (%esi)
 2574      0000
 2575              	.LBE247:
 2576              	.LBE248:
 2577              		.loc 4 410 35 is_stmt 1 view .LVU584
 2578              		.loc 4 411 21 view .LVU585
 2579              	.LBE249:
 2580              		.loc 1 194 3 view .LVU586
 2581 0030 E8FCFFFF 		call	chMtxLockS@PLT
 2581      FF
 2582              	.LVL121:
 2583              		.loc 1 195 3 view .LVU587
 2584 0035 893C24   		movl	%edi, (%esp)
 2585 0038 E8FCFFFF 		call	chMtxUnlockS@PLT
 2585      FF
 2586              	.LVL122:
 2587              		.loc 1 196 3 view .LVU588
 2588 003d E8FCFFFF 		call	chSchRescheduleS@PLT
 2588      FF
 2589              	.LVL123:
 2590              		.loc 1 197 3 view .LVU589
 2591              	.LBB250:
 2592              	.LBI250:
 2593              		.loc 4 421 20 view .LVU590
 2594              	.LBB251:
 2595              		.loc 4 423 23 view .LVU591
 2596              		.loc 4 424 34 view .LVU592
 2597              		.loc 4 430 3 view .LVU593
 2598              		.loc 4 430 3 view .LVU594
 2599              		.loc 4 430 3 view .LVU595
GAS LISTING /tmp/ccVaQ2UV.s 			page 52


 2600              		.loc 4 434 3 view .LVU596
 2601              	.LBB252:
 2602              	.LBI252:
 2603              		.loc 3 370 20 view .LVU597
 2604              	.LBB253:
 2605              		.loc 3 372 3 view .LVU598
 2606              	.LBE253:
 2607              	.LBE252:
 2608              	.LBE251:
 2609              	.LBE250:
 2610              		.loc 1 198 1 is_stmt 0 view .LVU599
 2611 0042 83C410   		addl	$16, %esp
 2612              		.cfi_def_cfa_offset 16
 2613              	.LBB257:
 2614              	.LBB256:
 2615              	.LBB255:
 2616              	.LBB254:
 2617              		.loc 3 372 16 view .LVU600
 2618 0045 C7060000 		movl	$0, (%esi)
 2618      0000
 2619              	.LBE254:
 2620              	.LBE255:
 2621              	.LBE256:
 2622              	.LBE257:
 2623              		.loc 1 198 1 view .LVU601
 2624 004b 5B       		popl	%ebx
 2625              		.cfi_restore 3
 2626              		.cfi_def_cfa_offset 12
 2627 004c 5E       		popl	%esi
 2628              		.cfi_restore 6
 2629              		.cfi_def_cfa_offset 8
 2630 004d 5F       		popl	%edi
 2631              		.cfi_restore 7
 2632              		.cfi_def_cfa_offset 4
 2633 004e C3       		ret
 2634              		.cfi_endproc
 2635              	.LFE305:
 2636              		.size	thread4B, .-thread4B
 2637              		.section	.text.rt_test_008_005_setup,"ax",@progbits
 2638              		.p2align 4
 2639              		.type	rt_test_008_005_setup, @function
 2640              	rt_test_008_005_setup:
 2641              	.LFB323:
 2642              		.cfi_startproc
 2643 0000 53       		pushl	%ebx
 2644              		.cfi_def_cfa_offset 8
 2645              		.cfi_offset 3, -8
 2646 0001 E8FCFFFF 		call	__x86.get_pc_thunk.bx
 2646      FF
 2647 0006 81C30200 		addl	$_GLOBAL_OFFSET_TABLE_, %ebx
 2647      0000
 2648 000c 83EC14   		subl	$20, %esp
 2649              		.cfi_def_cfa_offset 28
 2650 000f 8D830000 		leal	m1@GOTOFF(%ebx), %eax
 2650      0000
 2651 0015 50       		pushl	%eax
 2652              		.cfi_def_cfa_offset 32
GAS LISTING /tmp/ccVaQ2UV.s 			page 53


 2653 0016 E8FCFFFF 		call	chMtxObjectInit@PLT
 2653      FF
 2654 001b 83C418   		addl	$24, %esp
 2655              		.cfi_def_cfa_offset 8
 2656 001e 5B       		popl	%ebx
 2657              		.cfi_restore 3
 2658              		.cfi_def_cfa_offset 4
 2659 001f C3       		ret
 2660              		.cfi_endproc
 2661              	.LFE323:
 2662              		.size	rt_test_008_005_setup, .-rt_test_008_005_setup
 2663              		.section	.text.rt_test_008_008_setup,"ax",@progbits
 2664              		.p2align 4
 2665              		.type	rt_test_008_008_setup, @function
 2666              	rt_test_008_008_setup:
 2667              	.LFB325:
 2668              		.cfi_startproc
 2669 0000 53       		pushl	%ebx
 2670              		.cfi_def_cfa_offset 8
 2671              		.cfi_offset 3, -8
 2672 0001 E8FCFFFF 		call	__x86.get_pc_thunk.bx
 2672      FF
 2673 0006 81C30200 		addl	$_GLOBAL_OFFSET_TABLE_, %ebx
 2673      0000
 2674 000c 83EC14   		subl	$20, %esp
 2675              		.cfi_def_cfa_offset 28
 2676 000f 8D830000 		leal	c1@GOTOFF(%ebx), %eax
 2676      0000
 2677 0015 50       		pushl	%eax
 2678              		.cfi_def_cfa_offset 32
 2679 0016 E8FCFFFF 		call	chCondObjectInit@PLT
 2679      FF
 2680 001b 8D830000 		leal	m1@GOTOFF(%ebx), %eax
 2680      0000
 2681 0021 890424   		movl	%eax, (%esp)
 2682 0024 E8FCFFFF 		call	chMtxObjectInit@PLT
 2682      FF
 2683 0029 83C418   		addl	$24, %esp
 2684              		.cfi_def_cfa_offset 8
 2685 002c 5B       		popl	%ebx
 2686              		.cfi_restore 3
 2687              		.cfi_def_cfa_offset 4
 2688 002d C3       		ret
 2689              		.cfi_endproc
 2690              	.LFE325:
 2691              		.size	rt_test_008_008_setup, .-rt_test_008_008_setup
 2692              		.globl	rt_test_sequence_008
 2693              		.section	.rodata.str1.4,"aMS",@progbits,1
 2694              		.align 4
 2695              	.LC13:
 2696 0000 4D757465 		.string	"Mutexes, Condition Variables and Priority Inheritance"
 2696      7865732C 
 2696      20436F6E 
 2696      64697469 
 2696      6F6E2056 
 2697              		.section	.data.rel.ro.local.rt_test_sequence_008,"aw"
 2698              		.align 4
GAS LISTING /tmp/ccVaQ2UV.s 			page 54


 2699              		.type	rt_test_sequence_008, @object
 2700              		.size	rt_test_sequence_008, 8
 2701              	rt_test_sequence_008:
 2702 0000 00000000 		.long	.LC13
 2703 0004 00000000 		.long	rt_test_sequence_008_array
 2704              		.globl	rt_test_sequence_008_array
 2705              		.section	.data.rel.ro.local.rt_test_sequence_008_array,"aw"
 2706              		.align 4
 2707              		.type	rt_test_sequence_008_array, @object
 2708              		.size	rt_test_sequence_008_array, 28
 2709              	rt_test_sequence_008_array:
 2710 0000 00000000 		.long	rt_test_008_001
 2711 0004 00000000 		.long	rt_test_008_004
 2712 0008 00000000 		.long	rt_test_008_005
 2713 000c 00000000 		.long	rt_test_008_007
 2714 0010 00000000 		.long	rt_test_008_008
 2715 0014 00000000 		.long	rt_test_008_009
 2716 0018 00000000 		.long	0
 2717              		.section	.rodata.str1.4
 2718 0036 0000     		.align 4
 2719              	.LC14:
 2720 0038 436F6E64 		.string	"Condition Variable priority boost test"
 2720      6974696F 
 2720      6E205661 
 2720      72696162 
 2720      6C652070 
 2721              		.section	.data.rel.ro.local.rt_test_008_009,"aw"
 2722              		.align 4
 2723              		.type	rt_test_008_009, @object
 2724              		.size	rt_test_008_009, 16
 2725              	rt_test_008_009:
 2726 0000 38000000 		.long	.LC14
 2727 0004 00000000 		.long	rt_test_008_009_setup
 2728 0008 00000000 		.long	0
 2729 000c 00000000 		.long	rt_test_008_009_execute
 2730              		.section	.rodata.str1.4
 2731 005f 00       		.align 4
 2732              	.LC15:
 2733 0060 436F6E64 		.string	"Condition Variable broadcast test"
 2733      6974696F 
 2733      6E205661 
 2733      72696162 
 2733      6C652062 
 2734              		.section	.data.rel.ro.local.rt_test_008_008,"aw"
 2735              		.align 4
 2736              		.type	rt_test_008_008, @object
 2737              		.size	rt_test_008_008, 16
 2738              	rt_test_008_008:
 2739 0000 60000000 		.long	.LC15
 2740 0004 00000000 		.long	rt_test_008_008_setup
 2741 0008 00000000 		.long	0
 2742 000c 00000000 		.long	rt_test_008_008_execute
 2743              		.section	.rodata.str1.4
 2744 0082 0000     		.align 4
 2745              	.LC16:
 2746 0084 436F6E64 		.string	"Condition Variable signal test"
 2746      6974696F 
GAS LISTING /tmp/ccVaQ2UV.s 			page 55


 2746      6E205661 
 2746      72696162 
 2746      6C652073 
 2747              		.section	.data.rel.ro.local.rt_test_008_007,"aw"
 2748              		.align 4
 2749              		.type	rt_test_008_007, @object
 2750              		.size	rt_test_008_007, 16
 2751              	rt_test_008_007:
 2752 0000 84000000 		.long	.LC16
 2753 0004 00000000 		.long	rt_test_008_007_setup
 2754 0008 00000000 		.long	0
 2755 000c 00000000 		.long	rt_test_008_007_execute
 2756              		.section	.rodata.str1.4
 2757 00a3 00       		.align 4
 2758              	.LC17:
 2759 00a4 52657065 		.string	"Repeated locks, non recursive scenario"
 2759      61746564 
 2759      206C6F63 
 2759      6B732C20 
 2759      6E6F6E20 
 2760              		.section	.data.rel.ro.local.rt_test_008_005,"aw"
 2761              		.align 4
 2762              		.type	rt_test_008_005, @object
 2763              		.size	rt_test_008_005, 16
 2764              	rt_test_008_005:
 2765 0000 A4000000 		.long	.LC17
 2766 0004 00000000 		.long	rt_test_008_005_setup
 2767 0008 00000000 		.long	0
 2768 000c 00000000 		.long	rt_test_008_005_execute
 2769              		.section	.rodata.str1.1,"aMS",@progbits,1
 2770              	.LC18:
 2771 0000 5072696F 		.string	"Priority return verification"
 2771      72697479 
 2771      20726574 
 2771      75726E20 
 2771      76657269 
 2772              		.section	.data.rel.ro.local.rt_test_008_004,"aw"
 2773              		.align 4
 2774              		.type	rt_test_008_004, @object
 2775              		.size	rt_test_008_004, 16
 2776              	rt_test_008_004:
 2777 0000 00000000 		.long	.LC18
 2778 0004 00000000 		.long	rt_test_008_004_setup
 2779 0008 00000000 		.long	rt_test_008_004_teardown
 2780 000c 00000000 		.long	rt_test_008_004_execute
 2781              		.section	.rodata.str1.1
 2782              	.LC19:
 2783 001d 5072696F 		.string	"Priority enqueuing test"
 2783      72697479 
 2783      20656E71 
 2783      75657569 
 2783      6E672074 
 2784              		.section	.data.rel.ro.local.rt_test_008_001,"aw"
 2785              		.align 4
 2786              		.type	rt_test_008_001, @object
 2787              		.size	rt_test_008_001, 16
 2788              	rt_test_008_001:
GAS LISTING /tmp/ccVaQ2UV.s 			page 56


 2789 0000 1D000000 		.long	.LC19
 2790 0004 00000000 		.long	rt_test_008_001_setup
 2791 0008 00000000 		.long	0
 2792 000c 00000000 		.long	rt_test_008_001_execute
 2793              		.section	.data.rel.local.c1,"aw"
 2794              		.align 4
 2795              		.type	c1, @object
 2796              		.size	c1, 8
 2797              	c1:
 2798 0000 00000000 		.long	c1
 2799 0004 00000000 		.long	c1
 2800              		.section	.data.rel.local.m2,"aw"
 2801              		.align 4
 2802              		.type	m2, @object
 2803              		.size	m2, 16
 2804              	m2:
 2805 0000 00000000 		.long	m2
 2806 0004 00000000 		.long	m2
 2807 0008 00000000 		.long	0
 2808 000c 00000000 		.long	0
 2809              		.section	.data.rel.local.m1,"aw"
 2810              		.align 4
 2811              		.type	m1, @object
 2812              		.size	m1, 16
 2813              	m1:
 2814 0000 00000000 		.long	m1
 2815 0004 00000000 		.long	m1
 2816 0008 00000000 		.long	0
 2817 000c 00000000 		.long	0
 2818              		.section	.text.__x86.get_pc_thunk.bx,"axG",@progbits,__x86.get_pc_thunk.bx,comdat
 2819              		.globl	__x86.get_pc_thunk.bx
 2820              		.hidden	__x86.get_pc_thunk.bx
 2821              		.type	__x86.get_pc_thunk.bx, @function
 2822              	__x86.get_pc_thunk.bx:
 2823              	.LFB328:
 2824              		.cfi_startproc
 2825 0000 8B1C24   		movl	(%esp), %ebx
 2826 0003 C3       		ret
 2827              		.cfi_endproc
 2828              	.LFE328:
 2829              		.text
 2830              	.Letext0:
 2831              		.file 6 "/usr/lib/gcc/x86_64-linux-gnu/11/include/stddef.h"
 2832              		.file 7 "/usr/include/bits/types.h"
 2833              		.file 8 "/usr/include/bits/stdint-intn.h"
 2834              		.file 9 "/usr/include/bits/stdint-uintn.h"
 2835              		.file 10 "../../../os/common/ports/SIMIA32/compilers/GCC/chtypes.h"
 2836              		.file 11 "../../../os/rt/include/chearly.h"
 2837              		.file 12 "../../../os/rt/include/chobjects.h"
 2838              		.file 13 "../../../os/rt/include/chrfcu.h"
 2839              		.file 14 "../../../os/rt/include/chdebug.h"
 2840              		.file 15 "../../../os/rt/include/chtime.h"
 2841              		.file 16 "../../../os/rt/include/chsem.h"
 2842              		.file 17 "../../../os/rt/include/chmtx.h"
 2843              		.file 18 "../../../os/rt/include/chcond.h"
 2844              		.file 19 "../../../os/hal/include/hal_streams.h"
 2845              		.file 20 "../../../os/test/include/ch_test.h"
GAS LISTING /tmp/ccVaQ2UV.s 			page 57


 2846              		.file 21 "../../../test/rt/source/test/rt_test_sequence_008.h"
 2847              		.file 22 "../../../test/rt/source/test/rt_test_root.h"
 2848              		.file 23 "../../../os/rt/include/chschd.h"
 7572 0063 2F686F6D 		.section	.note.GNU-stack,"",@progbits
 7572      652F616C 
 7572      65782F43 
 7572      68696269 
 7572      4F532F64 
GAS LISTING /tmp/ccVaQ2UV.s 			page 149

