GAS LISTING /tmp/ccVaQ2UV.s 			page 1


   1              		.file	"rt_test_sequence_008.c"
   2              		.text
   3              	.Ltext0:
   4              		.file 0 "/home/alex/ChibiOS/demos/various/LAB3_VARIANT2" "../../../test/rt/source/test/rt_test_seq
   5              		.section	.text.rt_test_008_004_teardown,"ax",@progbits
   6              		.p2align 4
   7              		.type	rt_test_008_004_teardown, @function
   8              	rt_test_008_004_teardown:
   9              	.LFB312:
  10              		.file 1 "../../../test/rt/source/test/rt_test_sequence_008.c"
  11              		.loc 1 495 44 view -0
  12              		.cfi_startproc
  13              		.loc 1 496 3 view .LVU1
  14              		.loc 1 495 44 is_stmt 0 view .LVU2
  15 0000 53       		pushl	%ebx
  16              		.cfi_def_cfa_offset 8
  17              		.cfi_offset 3, -8
  18 0001 E8FCFFFF 		call	__x86.get_pc_thunk.bx
  18      FF
  19 0006 81C30200 		addl	$_GLOBAL_OFFSET_TABLE_, %ebx
  19      0000
  20 000c 83EC08   		subl	$8, %esp
  21              		.cfi_def_cfa_offset 16
  22              		.loc 1 496 3 view .LVU3
  23 000f E8FCFFFF 		call	test_wait_threads@PLT
  23      FF
  24              	.LVL0:
  25              		.loc 1 497 1 view .LVU4
  26 0014 83C408   		addl	$8, %esp
  27              		.cfi_def_cfa_offset 8
  28 0017 5B       		popl	%ebx
  29              		.cfi_restore 3
  30              		.cfi_def_cfa_offset 4
  31 0018 C3       		ret
  32              		.cfi_endproc
  33              	.LFE312:
  34              		.size	rt_test_008_004_teardown, .-rt_test_008_004_teardown
  35              		.section	.rodata.rt_test_008_009_execute.str1.1,"aMS",@progbits,1
  36              	.LC0:
  37 0000 4100     		.string	"A"
  38              	.LC1:
  39 0002 4300     		.string	"C"
  40              	.LC2:
  41 0004 4200     		.string	"B"
  42              	.LC3:
  43 0006 696E7661 		.string	"invalid sequence"
  43      6C696420 
  43      73657175 
  43      656E6365 
  43      00
  44              	.LC4:
  45 0017 41424300 		.string	"ABC"
  46              		.section	.text.rt_test_008_009_execute,"ax",@progbits
  47              		.p2align 4
  48              		.type	rt_test_008_009_execute, @function
  49              	rt_test_008_009_execute:
  50              	.LFB321:
GAS LISTING /tmp/ccVaQ2UV.s 			page 2


  51              		.loc 1 1014 43 is_stmt 1 view -0
  52              		.cfi_startproc
  53              		.loc 1 1015 3 view .LVU6
  54              		.loc 1 1018 3 view .LVU7
  55              		.loc 1 1020 5 view .LVU8
  56              	.LBB90:
  57              	.LBI90:
  58              		.file 2 "../../../os/rt/include/chthreads.h"
  59              		.loc 2 540 23 view .LVU9
  60              	.LBB91:
  61              		.loc 2 542 3 view .LVU10
  62              	.LBB92:
  63              	.LBI92:
  64              		.loc 2 527 25 view .LVU11
  65              	.LBB93:
  66              		.loc 2 529 3 view .LVU12
  67              	.LBE93:
  68              	.LBE92:
  69              	.LBE91:
  70              	.LBE90:
  71              		.loc 1 1014 43 is_stmt 0 view .LVU13
  72 0000 55       		pushl	%ebp
  73              		.cfi_def_cfa_offset 8
  74              		.cfi_offset 5, -8
  75 0001 57       		pushl	%edi
  76              		.cfi_def_cfa_offset 12
  77              		.cfi_offset 7, -12
  78 0002 56       		pushl	%esi
  79              		.cfi_def_cfa_offset 16
  80              		.cfi_offset 6, -16
  81 0003 53       		pushl	%ebx
  82              		.cfi_def_cfa_offset 20
  83              		.cfi_offset 3, -20
  84 0004 E8FCFFFF 		call	__x86.get_pc_thunk.bx
  84      FF
  85 0009 81C30200 		addl	$_GLOBAL_OFFSET_TABLE_, %ebx
  85      0000
  86 000f 83EC28   		subl	$40, %esp
  87              		.cfi_def_cfa_offset 60
  88              	.LBB99:
  89              	.LBB96:
  90              	.LBB95:
  91              	.LBB94:
  92              		.loc 2 529 10 view .LVU14
  93 0012 8B830000 		movl	ch0@GOT(%ebx), %eax
  93      0000
  94              	.LBE94:
  95              	.LBE95:
  96              	.LBE96:
  97              	.LBE99:
  98              		.loc 1 1028 38 view .LVU15
  99 0018 8B930000 		movl	wa@GOT(%ebx), %edx
  99      0000
 100              		.loc 1 1026 3 view .LVU16
 101 001e 8BB30000 		movl	chtest@GOT(%ebx), %esi
 101      0000
 102              	.LBB100:
GAS LISTING /tmp/ccVaQ2UV.s 			page 3


 103              	.LBB97:
 104              		.loc 2 542 37 view .LVU17
 105 0024 8B400C   		movl	12(%eax), %eax
 106              	.LBE97:
 107              	.LBE100:
 108              		.loc 1 1026 3 view .LVU18
 109 0027 C7060200 		movl	$2, (%esi)
 109      0000
 110              	.LBB101:
 111              	.LBB98:
 112              		.loc 2 542 37 view .LVU19
 113 002d 8B7808   		movl	8(%eax), %edi
 114              	.LVL1:
 115              		.loc 2 542 37 view .LVU20
 116              	.LBE98:
 117              	.LBE101:
 118              		.loc 1 1022 3 is_stmt 1 view .LVU21
 119              		.loc 1 1022 19 view .LVU22
 120              		.loc 1 1026 3 view .LVU23
 121              		.loc 1 1028 5 view .LVU24
 122              		.loc 1 1028 18 is_stmt 0 view .LVU25
 123 0030 8D830000 		leal	.LC0@GOTOFF(%ebx), %eax
 123      0000
 124 0036 50       		pushl	%eax
 125              		.cfi_def_cfa_offset 64
 126 0037 8D830000 		leal	thread8@GOTOFF(%ebx), %eax
 126      0000
 127 003d 50       		pushl	%eax
 128              		.cfi_def_cfa_offset 68
 129 003e 8D4701   		leal	1(%edi), %eax
 130 0041 50       		pushl	%eax
 131              		.cfi_def_cfa_offset 72
 132 0042 68404100 		pushl	$16704
 132      00
 133              		.cfi_def_cfa_offset 76
 134 0047 FF32     		pushl	(%edx)
 135              		.cfi_def_cfa_offset 80
 136 0049 8954242C 		movl	%edx, 44(%esp)
 137 004d E8FCFFFF 		call	chThdCreateStatic@PLT
 137      FF
 138              	.LVL2:
 139              		.loc 1 1028 16 view .LVU26
 140 0052 8BAB0000 		movl	threads@GOT(%ebx), %ebp
 140      0000
 141              		.loc 1 1036 18 view .LVU27
 142 0058 83C414   		addl	$20, %esp
 143              		.cfi_def_cfa_offset 60
 144              		.loc 1 1034 3 view .LVU28
 145 005b C7060300 		movl	$3, (%esi)
 145      0000
 146              		.loc 1 1028 16 view .LVU29
 147 0061 894500   		movl	%eax, 0(%ebp)
 148              		.loc 1 1030 3 is_stmt 1 view .LVU30
 149              		.loc 1 1030 19 view .LVU31
 150              		.loc 1 1034 3 view .LVU32
 151              		.loc 1 1036 5 view .LVU33
 152              		.loc 1 1036 18 is_stmt 0 view .LVU34
GAS LISTING /tmp/ccVaQ2UV.s 			page 4


 153 0064 8D830000 		leal	.LC1@GOTOFF(%ebx), %eax
 153      0000
 154 006a 50       		pushl	%eax
 155              		.cfi_def_cfa_offset 64
 156 006b 8D830000 		leal	thread6@GOTOFF(%ebx), %eax
 156      0000
 157 0071 50       		pushl	%eax
 158              		.cfi_def_cfa_offset 68
 159 0072 8D4702   		leal	2(%edi), %eax
 160              		.loc 1 1044 18 view .LVU35
 161 0075 83C703   		addl	$3, %edi
 162              	.LVL3:
 163              		.loc 1 1036 18 view .LVU36
 164 0078 50       		pushl	%eax
 165              		.cfi_def_cfa_offset 72
 166 0079 68404100 		pushl	$16704
 166      00
 167              		.cfi_def_cfa_offset 76
 168 007e 8B542428 		movl	40(%esp), %edx
 169 0082 FF7204   		pushl	4(%edx)
 170              		.cfi_def_cfa_offset 80
 171 0085 8954242C 		movl	%edx, 44(%esp)
 172 0089 E8FCFFFF 		call	chThdCreateStatic@PLT
 172      FF
 173              	.LVL4:
 174              		.loc 1 1044 18 view .LVU37
 175 008e 83C414   		addl	$20, %esp
 176              		.cfi_def_cfa_offset 60
 177              		.loc 1 1042 3 view .LVU38
 178 0091 C7060400 		movl	$4, (%esi)
 178      0000
 179              		.loc 1 1036 16 view .LVU39
 180 0097 894504   		movl	%eax, 4(%ebp)
 181              		.loc 1 1038 3 is_stmt 1 view .LVU40
 182              		.loc 1 1038 19 view .LVU41
 183              		.loc 1 1042 3 view .LVU42
 184              		.loc 1 1044 5 view .LVU43
 185              		.loc 1 1044 18 is_stmt 0 view .LVU44
 186 009a 8D830000 		leal	.LC2@GOTOFF(%ebx), %eax
 186      0000
 187 00a0 50       		pushl	%eax
 188              		.cfi_def_cfa_offset 64
 189 00a1 8D830000 		leal	thread9@GOTOFF(%ebx), %eax
 189      0000
 190 00a7 50       		pushl	%eax
 191              		.cfi_def_cfa_offset 68
 192 00a8 57       		pushl	%edi
 193              		.cfi_def_cfa_offset 72
 194              		.loc 1 1053 5 view .LVU45
 195 00a9 8DBB0000 		leal	c1@GOTOFF(%ebx), %edi
 195      0000
 196              	.LVL5:
 197              		.loc 1 1044 18 view .LVU46
 198 00af 68404100 		pushl	$16704
 198      00
 199              		.cfi_def_cfa_offset 76
 200 00b4 8B542428 		movl	40(%esp), %edx
GAS LISTING /tmp/ccVaQ2UV.s 			page 5


 201 00b8 FF7208   		pushl	8(%edx)
 202              		.cfi_def_cfa_offset 80
 203 00bb E8FCFFFF 		call	chThdCreateStatic@PLT
 203      FF
 204              	.LVL6:
 205              		.loc 1 1053 5 view .LVU47
 206 00c0 83C414   		addl	$20, %esp
 207              		.cfi_def_cfa_offset 60
 208              		.loc 1 1051 3 view .LVU48
 209 00c3 C7060500 		movl	$5, (%esi)
 209      0000
 210              		.loc 1 1053 5 view .LVU49
 211 00c9 57       		pushl	%edi
 212              		.cfi_def_cfa_offset 64
 213              		.loc 1 1044 16 view .LVU50
 214 00ca 894508   		movl	%eax, 8(%ebp)
 215              		.loc 1 1046 3 is_stmt 1 view .LVU51
 216              		.loc 1 1046 19 view .LVU52
 217              		.loc 1 1051 3 view .LVU53
 218              		.loc 1 1053 5 view .LVU54
 219 00cd E8FCFFFF 		call	chCondSignal@PLT
 219      FF
 220              	.LVL7:
 221              		.loc 1 1055 3 view .LVU55
 222              		.loc 1 1055 19 view .LVU56
 223              		.loc 1 1058 3 view .LVU57
 224              		.loc 1 1060 5 is_stmt 0 view .LVU58
 225 00d2 893C24   		movl	%edi, (%esp)
 226              		.loc 1 1058 3 view .LVU59
 227 00d5 C7060600 		movl	$6, (%esi)
 227      0000
 228              		.loc 1 1060 5 is_stmt 1 view .LVU60
 229 00db E8FCFFFF 		call	chCondSignal@PLT
 229      FF
 230              	.LVL8:
 231              		.loc 1 1062 3 view .LVU61
 232              		.loc 1 1062 19 view .LVU62
 233              		.loc 1 1065 3 view .LVU63
 234 00e0 C7060700 		movl	$7, (%esi)
 234      0000
 235              		.loc 1 1067 5 view .LVU64
 236 00e6 E8FCFFFF 		call	test_wait_threads@PLT
 236      FF
 237              	.LVL9:
 238              		.loc 1 1068 5 view .LVU65
 239 00eb 58       		popl	%eax
 240              		.cfi_def_cfa_offset 60
 241 00ec 8D830000 		leal	.LC3@GOTOFF(%ebx), %eax
 241      0000
 242 00f2 5A       		popl	%edx
 243              		.cfi_def_cfa_offset 56
 244 00f3 50       		pushl	%eax
 245              		.cfi_def_cfa_offset 60
 246 00f4 8D830000 		leal	.LC4@GOTOFF(%ebx), %eax
 246      0000
 247 00fa 50       		pushl	%eax
 248              		.cfi_def_cfa_offset 64
GAS LISTING /tmp/ccVaQ2UV.s 			page 6


 249 00fb E8FCFFFF 		call	__test_assert_sequence@PLT
 249      FF
 250              	.LVL10:
 251              		.loc 1 1068 52 view .LVU66
 252              		.loc 1 1070 3 view .LVU67
 253              		.loc 1 1070 19 view .LVU68
 254              		.loc 1 1071 1 is_stmt 0 view .LVU69
 255 0100 83C42C   		addl	$44, %esp
 256              		.cfi_def_cfa_offset 20
 257 0103 5B       		popl	%ebx
 258              		.cfi_restore 3
 259              		.cfi_def_cfa_offset 16
 260 0104 5E       		popl	%esi
 261              		.cfi_restore 6
 262              		.cfi_def_cfa_offset 12
 263 0105 5F       		popl	%edi
 264              		.cfi_restore 7
 265              		.cfi_def_cfa_offset 8
 266 0106 5D       		popl	%ebp
 267              		.cfi_restore 5
 268              		.cfi_def_cfa_offset 4
 269 0107 C3       		ret
 270              		.cfi_endproc
 271              	.LFE321:
 272              		.size	rt_test_008_009_execute, .-rt_test_008_009_execute
 273              		.section	.text.thread9,"ax",@progbits
 274              		.p2align 4
 275              		.type	thread9, @function
 276              	thread9:
 277              	.LVL11:
 278              	.LFB308:
 279              		.loc 1 223 33 is_stmt 1 view -0
 280              		.cfi_startproc
 281              		.loc 1 225 3 view .LVU71
 282              		.loc 1 223 33 is_stmt 0 view .LVU72
 283 0000 56       		pushl	%esi
 284              		.cfi_def_cfa_offset 8
 285              		.cfi_offset 6, -8
 286 0001 53       		pushl	%ebx
 287              		.cfi_def_cfa_offset 12
 288              		.cfi_offset 3, -12
 289 0002 E8FCFFFF 		call	__x86.get_pc_thunk.bx
 289      FF
 290 0007 81C30200 		addl	$_GLOBAL_OFFSET_TABLE_, %ebx
 290      0000
 291 000d 83EC10   		subl	$16, %esp
 292              		.cfi_def_cfa_offset 28
 293              		.loc 1 225 3 view .LVU73
 294 0010 8DB30000 		leal	m2@GOTOFF(%ebx), %esi
 294      0000
 295 0016 56       		pushl	%esi
 296              		.cfi_def_cfa_offset 32
 297 0017 E8FCFFFF 		call	chMtxLock@PLT
 297      FF
 298              	.LVL12:
 299              		.loc 1 226 3 is_stmt 1 view .LVU74
 300 001c 8B442420 		movl	32(%esp), %eax
GAS LISTING /tmp/ccVaQ2UV.s 			page 7


 301 0020 0FBE00   		movsbl	(%eax), %eax
 302 0023 890424   		movl	%eax, (%esp)
 303 0026 E8FCFFFF 		call	test_emit_token@PLT
 303      FF
 304              	.LVL13:
 305              		.loc 1 227 3 view .LVU75
 306 002b 893424   		movl	%esi, (%esp)
 307 002e E8FCFFFF 		call	chMtxUnlock@PLT
 307      FF
 308              	.LVL14:
 309              		.loc 1 228 1 is_stmt 0 view .LVU76
 310 0033 83C414   		addl	$20, %esp
 311              		.cfi_def_cfa_offset 12
 312 0036 5B       		popl	%ebx
 313              		.cfi_restore 3
 314              		.cfi_def_cfa_offset 8
 315 0037 5E       		popl	%esi
 316              		.cfi_restore 6
 317              		.cfi_def_cfa_offset 4
 318 0038 C3       		ret
 319              		.cfi_endproc
 320              	.LFE308:
 321              		.size	thread9, .-thread9
 322              		.section	.text.thread1,"ax",@progbits
 323              		.p2align 4
 324              		.type	thread1, @function
 325              	thread1:
 326              	.LVL15:
 327              	.LFB303:
 328              		.loc 1 85 33 is_stmt 1 view -0
 329              		.cfi_startproc
 330              		.loc 1 87 3 view .LVU78
 331              		.loc 1 85 33 is_stmt 0 view .LVU79
 332 0000 56       		pushl	%esi
 333              		.cfi_def_cfa_offset 8
 334              		.cfi_offset 6, -8
 335 0001 53       		pushl	%ebx
 336              		.cfi_def_cfa_offset 12
 337              		.cfi_offset 3, -12
 338 0002 E8FCFFFF 		call	__x86.get_pc_thunk.bx
 338      FF
 339 0007 81C30200 		addl	$_GLOBAL_OFFSET_TABLE_, %ebx
 339      0000
 340 000d 83EC10   		subl	$16, %esp
 341              		.cfi_def_cfa_offset 28
 342              		.loc 1 87 3 view .LVU80
 343 0010 8DB30000 		leal	m1@GOTOFF(%ebx), %esi
 343      0000
 344 0016 56       		pushl	%esi
 345              		.cfi_def_cfa_offset 32
 346 0017 E8FCFFFF 		call	chMtxLock@PLT
 346      FF
 347              	.LVL16:
 348              		.loc 1 88 3 is_stmt 1 view .LVU81
 349 001c 8B442420 		movl	32(%esp), %eax
 350 0020 0FBE00   		movsbl	(%eax), %eax
 351 0023 890424   		movl	%eax, (%esp)
GAS LISTING /tmp/ccVaQ2UV.s 			page 8


 352 0026 E8FCFFFF 		call	test_emit_token@PLT
 352      FF
 353              	.LVL17:
 354              		.loc 1 89 3 view .LVU82
 355 002b 893424   		movl	%esi, (%esp)
 356 002e E8FCFFFF 		call	chMtxUnlock@PLT
 356      FF
 357              	.LVL18:
 358              		.loc 1 90 1 is_stmt 0 view .LVU83
 359 0033 83C414   		addl	$20, %esp
 360              		.cfi_def_cfa_offset 12
 361 0036 5B       		popl	%ebx
 362              		.cfi_restore 3
 363              		.cfi_def_cfa_offset 8
 364 0037 5E       		popl	%esi
 365              		.cfi_restore 6
 366              		.cfi_def_cfa_offset 4
 367 0038 C3       		ret
 368              		.cfi_endproc
 369              	.LFE303:
 370              		.size	thread1, .-thread1
 371              		.section	.text.thread6,"ax",@progbits
 372              		.p2align 4
 373              		.type	thread6, @function
 374              	thread6:
 375              	.LVL19:
 376              	.LFB306:
 377              		.loc 1 201 33 is_stmt 1 view -0
 378              		.cfi_startproc
 379              		.loc 1 203 3 view .LVU85
 380              		.loc 1 201 33 is_stmt 0 view .LVU86
 381 0000 56       		pushl	%esi
 382              		.cfi_def_cfa_offset 8
 383              		.cfi_offset 6, -8
 384 0001 53       		pushl	%ebx
 385              		.cfi_def_cfa_offset 12
 386              		.cfi_offset 3, -12
 387 0002 E8FCFFFF 		call	__x86.get_pc_thunk.bx
 387      FF
 388 0007 81C30200 		addl	$_GLOBAL_OFFSET_TABLE_, %ebx
 388      0000
 389 000d 83EC10   		subl	$16, %esp
 390              		.cfi_def_cfa_offset 28
 391              		.loc 1 203 3 view .LVU87
 392 0010 8DB30000 		leal	m1@GOTOFF(%ebx), %esi
 392      0000
 393 0016 56       		pushl	%esi
 394              		.cfi_def_cfa_offset 32
 395 0017 E8FCFFFF 		call	chMtxLock@PLT
 395      FF
 396              	.LVL20:
 397              		.loc 1 204 3 is_stmt 1 view .LVU88
 398 001c 8D830000 		leal	c1@GOTOFF(%ebx), %eax
 398      0000
 399 0022 890424   		movl	%eax, (%esp)
 400 0025 E8FCFFFF 		call	chCondWait@PLT
 400      FF
GAS LISTING /tmp/ccVaQ2UV.s 			page 9


 401              	.LVL21:
 402              		.loc 1 205 3 view .LVU89
 403 002a 8B442420 		movl	32(%esp), %eax
 404 002e 0FBE00   		movsbl	(%eax), %eax
 405 0031 890424   		movl	%eax, (%esp)
 406 0034 E8FCFFFF 		call	test_emit_token@PLT
 406      FF
 407              	.LVL22:
 408              		.loc 1 206 3 view .LVU90
 409 0039 893424   		movl	%esi, (%esp)
 410 003c E8FCFFFF 		call	chMtxUnlock@PLT
 410      FF
 411              	.LVL23:
 412              		.loc 1 207 1 is_stmt 0 view .LVU91
 413 0041 83C414   		addl	$20, %esp
 414              		.cfi_def_cfa_offset 12
 415 0044 5B       		popl	%ebx
 416              		.cfi_restore 3
 417              		.cfi_def_cfa_offset 8
 418 0045 5E       		popl	%esi
 419              		.cfi_restore 6
 420              		.cfi_def_cfa_offset 4
 421 0046 C3       		ret
 422              		.cfi_endproc
 423              	.LFE306:
 424              		.size	thread6, .-thread6
 425              		.section	.text.thread8,"ax",@progbits
 426              		.p2align 4
 427              		.type	thread8, @function
 428              	thread8:
 429              	.LVL24:
 430              	.LFB307:
 431              		.loc 1 209 33 is_stmt 1 view -0
 432              		.cfi_startproc
 433              		.loc 1 211 3 view .LVU93
 434              		.loc 1 209 33 is_stmt 0 view .LVU94
 435 0000 57       		pushl	%edi
 436              		.cfi_def_cfa_offset 8
 437              		.cfi_offset 7, -8
 438 0001 56       		pushl	%esi
 439              		.cfi_def_cfa_offset 12
 440              		.cfi_offset 6, -12
 441 0002 53       		pushl	%ebx
 442              		.cfi_def_cfa_offset 16
 443              		.cfi_offset 3, -16
 444 0003 E8FCFFFF 		call	__x86.get_pc_thunk.bx
 444      FF
 445 0008 81C30200 		addl	$_GLOBAL_OFFSET_TABLE_, %ebx
 445      0000
 446              		.loc 1 211 3 view .LVU95
 447 000e 83EC0C   		subl	$12, %esp
 448              		.cfi_def_cfa_offset 28
 449 0011 8DB30000 		leal	m2@GOTOFF(%ebx), %esi
 449      0000
 450              		.loc 1 212 3 view .LVU96
 451 0017 8DBB0000 		leal	m1@GOTOFF(%ebx), %edi
 451      0000
GAS LISTING /tmp/ccVaQ2UV.s 			page 10


 452              		.loc 1 211 3 view .LVU97
 453 001d 56       		pushl	%esi
 454              		.cfi_def_cfa_offset 32
 455 001e E8FCFFFF 		call	chMtxLock@PLT
 455      FF
 456              	.LVL25:
 457              		.loc 1 212 3 is_stmt 1 view .LVU98
 458 0023 893C24   		movl	%edi, (%esp)
 459 0026 E8FCFFFF 		call	chMtxLock@PLT
 459      FF
 460              	.LVL26:
 461              		.loc 1 214 3 view .LVU99
 462 002b 58       		popl	%eax
 463              		.cfi_def_cfa_offset 28
 464 002c 8D830000 		leal	c1@GOTOFF(%ebx), %eax
 464      0000
 465 0032 5A       		popl	%edx
 466              		.cfi_def_cfa_offset 24
 467 0033 6AFF     		pushl	$-1
 468              		.cfi_def_cfa_offset 28
 469 0035 50       		pushl	%eax
 470              		.cfi_def_cfa_offset 32
 471 0036 E8FCFFFF 		call	chCondWaitTimeout@PLT
 471      FF
 472              	.LVL27:
 473              		.loc 1 218 3 view .LVU100
 474 003b 8B442420 		movl	32(%esp), %eax
 475 003f 0FBE00   		movsbl	(%eax), %eax
 476 0042 890424   		movl	%eax, (%esp)
 477 0045 E8FCFFFF 		call	test_emit_token@PLT
 477      FF
 478              	.LVL28:
 479              		.loc 1 219 3 view .LVU101
 480 004a 893C24   		movl	%edi, (%esp)
 481 004d E8FCFFFF 		call	chMtxUnlock@PLT
 481      FF
 482              	.LVL29:
 483              		.loc 1 220 3 view .LVU102
 484 0052 893424   		movl	%esi, (%esp)
 485 0055 E8FCFFFF 		call	chMtxUnlock@PLT
 485      FF
 486              	.LVL30:
 487              		.loc 1 221 1 is_stmt 0 view .LVU103
 488 005a 83C410   		addl	$16, %esp
 489              		.cfi_def_cfa_offset 16
 490 005d 5B       		popl	%ebx
 491              		.cfi_restore 3
 492              		.cfi_def_cfa_offset 12
 493 005e 5E       		popl	%esi
 494              		.cfi_restore 6
 495              		.cfi_def_cfa_offset 8
 496 005f 5F       		popl	%edi
 497              		.cfi_restore 7
 498              		.cfi_def_cfa_offset 4
 499 0060 C3       		ret
 500              		.cfi_endproc
 501              	.LFE307:
GAS LISTING /tmp/ccVaQ2UV.s 			page 11


 502              		.size	thread8, .-thread8
 503              		.section	.text.rt_test_008_009_setup,"ax",@progbits
 504              		.p2align 4
 505              		.type	rt_test_008_009_setup, @function
 506              	rt_test_008_009_setup:
 507              	.LFB320:
 508              		.loc 1 1008 41 is_stmt 1 view -0
 509              		.cfi_startproc
 510              		.loc 1 1009 3 view .LVU105
 511              		.loc 1 1008 41 is_stmt 0 view .LVU106
 512 0000 53       		pushl	%ebx
 513              		.cfi_def_cfa_offset 8
 514              		.cfi_offset 3, -8
 515 0001 E8FCFFFF 		call	__x86.get_pc_thunk.bx
 515      FF
 516 0006 81C30200 		addl	$_GLOBAL_OFFSET_TABLE_, %ebx
 516      0000
 517 000c 83EC14   		subl	$20, %esp
 518              		.cfi_def_cfa_offset 28
 519              		.loc 1 1009 3 view .LVU107
 520 000f 8D830000 		leal	c1@GOTOFF(%ebx), %eax
 520      0000
 521 0015 50       		pushl	%eax
 522              		.cfi_def_cfa_offset 32
 523 0016 E8FCFFFF 		call	chCondObjectInit@PLT
 523      FF
 524              	.LVL31:
 525              		.loc 1 1010 3 is_stmt 1 view .LVU108
 526 001b 8D830000 		leal	m1@GOTOFF(%ebx), %eax
 526      0000
 527 0021 890424   		movl	%eax, (%esp)
 528 0024 E8FCFFFF 		call	chMtxObjectInit@PLT
 528      FF
 529              	.LVL32:
 530              		.loc 1 1011 3 view .LVU109
 531 0029 8D830000 		leal	m2@GOTOFF(%ebx), %eax
 531      0000
 532 002f 890424   		movl	%eax, (%esp)
 533 0032 E8FCFFFF 		call	chMtxObjectInit@PLT
 533      FF
 534              	.LVL33:
 535              		.loc 1 1012 1 is_stmt 0 view .LVU110
 536 0037 83C418   		addl	$24, %esp
 537              		.cfi_def_cfa_offset 8
 538 003a 5B       		popl	%ebx
 539              		.cfi_restore 3
 540              		.cfi_def_cfa_offset 4
 541 003b C3       		ret
 542              		.cfi_endproc
 543              	.LFE320:
 544              		.size	rt_test_008_009_setup, .-rt_test_008_009_setup
 545              		.section	.text.rt_test_008_007_setup,"ax",@progbits
 546              		.p2align 4
 547              		.type	rt_test_008_007_setup, @function
 548              	rt_test_008_007_setup:
 549              	.LFB316:
 550              		.loc 1 864 41 is_stmt 1 view -0
GAS LISTING /tmp/ccVaQ2UV.s 			page 12


 551              		.cfi_startproc
 552              		.loc 1 865 3 view .LVU112
 553              		.loc 1 864 41 is_stmt 0 view .LVU113
 554 0000 53       		pushl	%ebx
 555              		.cfi_def_cfa_offset 8
 556              		.cfi_offset 3, -8
 557 0001 E8FCFFFF 		call	__x86.get_pc_thunk.bx
 557      FF
 558 0006 81C30200 		addl	$_GLOBAL_OFFSET_TABLE_, %ebx
 558      0000
 559 000c 83EC14   		subl	$20, %esp
 560              		.cfi_def_cfa_offset 28
 561              		.loc 1 865 3 view .LVU114
 562 000f 8D830000 		leal	c1@GOTOFF(%ebx), %eax
 562      0000
 563 0015 50       		pushl	%eax
 564              		.cfi_def_cfa_offset 32
 565 0016 E8FCFFFF 		call	chCondObjectInit@PLT
 565      FF
 566              	.LVL34:
 567              		.loc 1 866 3 is_stmt 1 view .LVU115
 568 001b 8D830000 		leal	m1@GOTOFF(%ebx), %eax
 568      0000
 569 0021 890424   		movl	%eax, (%esp)
 570 0024 E8FCFFFF 		call	chMtxObjectInit@PLT
 570      FF
 571              	.LVL35:
 572              		.loc 1 867 1 is_stmt 0 view .LVU116
 573 0029 83C418   		addl	$24, %esp
 574              		.cfi_def_cfa_offset 8
 575 002c 5B       		popl	%ebx
 576              		.cfi_restore 3
 577              		.cfi_def_cfa_offset 4
 578 002d C3       		ret
 579              		.cfi_endproc
 580              	.LFE316:
 581              		.size	rt_test_008_007_setup, .-rt_test_008_007_setup
 582              		.section	.text.rt_test_008_004_setup,"ax",@progbits
 583              		.p2align 4
 584              		.type	rt_test_008_004_setup, @function
 585              	rt_test_008_004_setup:
 586              	.LFB311:
 587              		.loc 1 490 41 is_stmt 1 view -0
 588              		.cfi_startproc
 589              		.loc 1 491 3 view .LVU118
 590              		.loc 1 490 41 is_stmt 0 view .LVU119
 591 0000 53       		pushl	%ebx
 592              		.cfi_def_cfa_offset 8
 593              		.cfi_offset 3, -8
 594 0001 E8FCFFFF 		call	__x86.get_pc_thunk.bx
 594      FF
 595 0006 81C30200 		addl	$_GLOBAL_OFFSET_TABLE_, %ebx
 595      0000
 596 000c 83EC14   		subl	$20, %esp
 597              		.cfi_def_cfa_offset 28
 598              		.loc 1 491 3 view .LVU120
 599 000f 8D830000 		leal	m1@GOTOFF(%ebx), %eax
GAS LISTING /tmp/ccVaQ2UV.s 			page 13


 599      0000
 600 0015 50       		pushl	%eax
 601              		.cfi_def_cfa_offset 32
 602 0016 E8FCFFFF 		call	chMtxObjectInit@PLT
 602      FF
 603              	.LVL36:
 604              		.loc 1 492 3 is_stmt 1 view .LVU121
 605 001b 8D830000 		leal	m2@GOTOFF(%ebx), %eax
 605      0000
 606 0021 890424   		movl	%eax, (%esp)
 607 0024 E8FCFFFF 		call	chMtxObjectInit@PLT
 607      FF
 608              	.LVL37:
 609              		.loc 1 493 1 is_stmt 0 view .LVU122
 610 0029 83C418   		addl	$24, %esp
 611              		.cfi_def_cfa_offset 8
 612 002c 5B       		popl	%ebx
 613              		.cfi_restore 3
 614              		.cfi_def_cfa_offset 4
 615 002d C3       		ret
 616              		.cfi_endproc
 617              	.LFE311:
 618              		.size	rt_test_008_004_setup, .-rt_test_008_004_setup
 619              		.section	.text.rt_test_008_001_setup,"ax",@progbits
 620              		.p2align 4
 621              		.type	rt_test_008_001_setup, @function
 622              	rt_test_008_001_setup:
 623              	.LFB309:
 624              		.loc 1 255 41 is_stmt 1 view -0
 625              		.cfi_startproc
 626              		.loc 1 256 3 view .LVU124
 627              		.loc 1 255 41 is_stmt 0 view .LVU125
 628 0000 53       		pushl	%ebx
 629              		.cfi_def_cfa_offset 8
 630              		.cfi_offset 3, -8
 631 0001 E8FCFFFF 		call	__x86.get_pc_thunk.bx
 631      FF
 632 0006 81C30200 		addl	$_GLOBAL_OFFSET_TABLE_, %ebx
 632      0000
 633 000c 83EC14   		subl	$20, %esp
 634              		.cfi_def_cfa_offset 28
 635              		.loc 1 256 3 view .LVU126
 636 000f 8D830000 		leal	m1@GOTOFF(%ebx), %eax
 636      0000
 637 0015 50       		pushl	%eax
 638              		.cfi_def_cfa_offset 32
 639 0016 E8FCFFFF 		call	chMtxObjectInit@PLT
 639      FF
 640              	.LVL38:
 641              		.loc 1 257 1 view .LVU127
 642 001b 83C418   		addl	$24, %esp
 643              		.cfi_def_cfa_offset 8
 644 001e 5B       		popl	%ebx
 645              		.cfi_restore 3
 646              		.cfi_def_cfa_offset 4
 647 001f C3       		ret
 648              		.cfi_endproc
GAS LISTING /tmp/ccVaQ2UV.s 			page 14


 649              	.LFE309:
 650              		.size	rt_test_008_001_setup, .-rt_test_008_001_setup
 651              		.section	.rodata.rt_test_008_008_execute.str1.1,"aMS",@progbits,1
 652              	.LC5:
 653 0000 4500     		.string	"E"
 654              	.LC6:
 655 0002 4400     		.string	"D"
 656              	.LC7:
 657 0004 41424344 		.string	"ABCDE"
 657      4500
 658              		.section	.text.rt_test_008_008_execute,"ax",@progbits
 659              		.p2align 4
 660              		.type	rt_test_008_008_execute, @function
 661              	rt_test_008_008_execute:
 662              	.LFB319:
 663              		.loc 1 940 43 is_stmt 1 view -0
 664              		.cfi_startproc
 665              		.loc 1 944 3 view .LVU129
 666              		.loc 1 940 43 is_stmt 0 view .LVU130
 667 0000 55       		pushl	%ebp
 668              		.cfi_def_cfa_offset 8
 669              		.cfi_offset 5, -8
 670 0001 57       		pushl	%edi
 671              		.cfi_def_cfa_offset 12
 672              		.cfi_offset 7, -12
 673 0002 56       		pushl	%esi
 674              		.cfi_def_cfa_offset 16
 675              		.cfi_offset 6, -16
 676 0003 53       		pushl	%ebx
 677              		.cfi_def_cfa_offset 20
 678              		.cfi_offset 3, -20
 679 0004 E8FCFFFF 		call	__x86.get_pc_thunk.bx
 679      FF
 680 0009 81C30200 		addl	$_GLOBAL_OFFSET_TABLE_, %ebx
 680      0000
 681 000f 83EC28   		subl	$40, %esp
 682              		.cfi_def_cfa_offset 60
 683              	.LBB102:
 684              	.LBB103:
 685              	.LBB104:
 686              	.LBB105:
 687              	.LBB106:
 688              		.loc 2 529 10 view .LVU131
 689 0012 8B830000 		movl	ch0@GOT(%ebx), %eax
 689      0000
 690              	.LBE106:
 691              	.LBE105:
 692              	.LBE104:
 693              	.LBE103:
 694              	.LBE102:
 695              		.loc 1 944 3 view .LVU132
 696 0018 8B930000 		movl	chtest@GOT(%ebx), %edx
 696      0000
 697              	.LBB115:
 698              		.loc 1 947 18 view .LVU133
 699 001e 8DAB0000 		leal	thread6@GOTOFF(%ebx), %ebp
 699      0000
GAS LISTING /tmp/ccVaQ2UV.s 			page 15


 700              		.loc 1 947 38 view .LVU134
 701 0024 8BBB0000 		movl	wa@GOT(%ebx), %edi
 701      0000
 702              	.LBB112:
 703              	.LBB109:
 704              		.loc 2 542 37 view .LVU135
 705 002a 8B400C   		movl	12(%eax), %eax
 706              	.LBE109:
 707              	.LBE112:
 708              	.LBE115:
 709              		.loc 1 944 3 view .LVU136
 710 002d 89542418 		movl	%edx, 24(%esp)
 711              	.LBB116:
 712              		.loc 1 946 5 is_stmt 1 view .LVU137
 713              	.LBB113:
 714              	.LBI103:
 715              		.loc 2 540 23 view .LVU138
 716              	.LBB110:
 717              		.loc 2 542 3 view .LVU139
 718              	.LBB108:
 719              	.LBI105:
 720              		.loc 2 527 25 view .LVU140
 721              	.LBB107:
 722              		.loc 2 529 3 view .LVU141
 723              	.LBE107:
 724              	.LBE108:
 725              	.LBE110:
 726              	.LBE113:
 727              	.LBE116:
 728              		.loc 1 944 3 is_stmt 0 view .LVU142
 729 0031 C7020100 		movl	$1, (%edx)
 729      0000
 730              	.LBB117:
 731              	.LBB114:
 732              	.LBB111:
 733              		.loc 2 542 37 view .LVU143
 734 0037 8B4808   		movl	8(%eax), %ecx
 735              	.LVL39:
 736              		.loc 2 542 37 view .LVU144
 737              	.LBE111:
 738              	.LBE114:
 739              		.loc 1 947 5 is_stmt 1 view .LVU145
 740              		.loc 1 947 18 is_stmt 0 view .LVU146
 741 003a 8D830000 		leal	.LC5@GOTOFF(%ebx), %eax
 741      0000
 742 0040 50       		pushl	%eax
 743              		.cfi_def_cfa_offset 64
 744 0041 55       		pushl	%ebp
 745              		.cfi_def_cfa_offset 68
 746 0042 8D4101   		leal	1(%ecx), %eax
 747 0045 894C241C 		movl	%ecx, 28(%esp)
 748 0049 50       		pushl	%eax
 749              		.cfi_def_cfa_offset 72
 750 004a 68404100 		pushl	$16704
 750      00
 751              		.cfi_def_cfa_offset 76
 752 004f FF37     		pushl	(%edi)
GAS LISTING /tmp/ccVaQ2UV.s 			page 16


 753              		.cfi_def_cfa_offset 80
 754 0051 E8FCFFFF 		call	chThdCreateStatic@PLT
 754      FF
 755              	.LVL40:
 756              		.loc 1 947 16 view .LVU147
 757 0056 8BB30000 		movl	threads@GOT(%ebx), %esi
 757      0000
 758              		.loc 1 948 18 view .LVU148
 759 005c 83C414   		addl	$20, %esp
 760              		.cfi_def_cfa_offset 60
 761              		.loc 1 947 16 view .LVU149
 762 005f 8906     		movl	%eax, (%esi)
 763              		.loc 1 948 5 is_stmt 1 view .LVU150
 764              		.loc 1 948 18 is_stmt 0 view .LVU151
 765 0061 8D830000 		leal	.LC6@GOTOFF(%ebx), %eax
 765      0000
 766 0067 50       		pushl	%eax
 767              		.cfi_def_cfa_offset 64
 768 0068 55       		pushl	%ebp
 769              		.cfi_def_cfa_offset 68
 770 0069 8B4C241C 		movl	28(%esp), %ecx
 771 006d 8D4102   		leal	2(%ecx), %eax
 772 0070 50       		pushl	%eax
 773              		.cfi_def_cfa_offset 72
 774 0071 68404100 		pushl	$16704
 774      00
 775              		.cfi_def_cfa_offset 76
 776 0076 FF7704   		pushl	4(%edi)
 777              		.cfi_def_cfa_offset 80
 778 0079 E8FCFFFF 		call	chThdCreateStatic@PLT
 778      FF
 779              	.LVL41:
 780              		.loc 1 949 18 view .LVU152
 781 007e 83C414   		addl	$20, %esp
 782              		.cfi_def_cfa_offset 60
 783              		.loc 1 948 16 view .LVU153
 784 0081 894604   		movl	%eax, 4(%esi)
 785              		.loc 1 949 5 is_stmt 1 view .LVU154
 786              		.loc 1 949 18 is_stmt 0 view .LVU155
 787 0084 8D830000 		leal	.LC1@GOTOFF(%ebx), %eax
 787      0000
 788 008a 50       		pushl	%eax
 789              		.cfi_def_cfa_offset 64
 790 008b 55       		pushl	%ebp
 791              		.cfi_def_cfa_offset 68
 792 008c 8B4C241C 		movl	28(%esp), %ecx
 793 0090 8D4103   		leal	3(%ecx), %eax
 794 0093 50       		pushl	%eax
 795              		.cfi_def_cfa_offset 72
 796 0094 68404100 		pushl	$16704
 796      00
 797              		.cfi_def_cfa_offset 76
 798 0099 FF7708   		pushl	8(%edi)
 799              		.cfi_def_cfa_offset 80
 800 009c E8FCFFFF 		call	chThdCreateStatic@PLT
 800      FF
 801              	.LVL42:
GAS LISTING /tmp/ccVaQ2UV.s 			page 17


 802              		.loc 1 950 18 view .LVU156
 803 00a1 83C414   		addl	$20, %esp
 804              		.cfi_def_cfa_offset 60
 805              		.loc 1 949 16 view .LVU157
 806 00a4 894608   		movl	%eax, 8(%esi)
 807              		.loc 1 950 5 is_stmt 1 view .LVU158
 808              		.loc 1 950 18 is_stmt 0 view .LVU159
 809 00a7 8D830000 		leal	.LC2@GOTOFF(%ebx), %eax
 809      0000
 810 00ad 50       		pushl	%eax
 811              		.cfi_def_cfa_offset 64
 812 00ae 55       		pushl	%ebp
 813              		.cfi_def_cfa_offset 68
 814 00af 8B4C241C 		movl	28(%esp), %ecx
 815 00b3 8D4104   		leal	4(%ecx), %eax
 816 00b6 50       		pushl	%eax
 817              		.cfi_def_cfa_offset 72
 818 00b7 68404100 		pushl	$16704
 818      00
 819              		.cfi_def_cfa_offset 76
 820 00bc FF770C   		pushl	12(%edi)
 821              		.cfi_def_cfa_offset 80
 822 00bf E8FCFFFF 		call	chThdCreateStatic@PLT
 822      FF
 823              	.LVL43:
 824              		.loc 1 951 18 view .LVU160
 825 00c4 83C414   		addl	$20, %esp
 826              		.cfi_def_cfa_offset 60
 827              		.loc 1 950 16 view .LVU161
 828 00c7 89460C   		movl	%eax, 12(%esi)
 829              		.loc 1 951 5 is_stmt 1 view .LVU162
 830              		.loc 1 951 18 is_stmt 0 view .LVU163
 831 00ca 8D830000 		leal	.LC0@GOTOFF(%ebx), %eax
 831      0000
 832 00d0 50       		pushl	%eax
 833              		.cfi_def_cfa_offset 64
 834 00d1 55       		pushl	%ebp
 835              		.cfi_def_cfa_offset 68
 836 00d2 8B4C241C 		movl	28(%esp), %ecx
 837 00d6 8D4105   		leal	5(%ecx), %eax
 838 00d9 50       		pushl	%eax
 839              		.cfi_def_cfa_offset 72
 840 00da 68404100 		pushl	$16704
 840      00
 841              		.cfi_def_cfa_offset 76
 842 00df FF7710   		pushl	16(%edi)
 843              		.cfi_def_cfa_offset 80
 844 00e2 E8FCFFFF 		call	chThdCreateStatic@PLT
 844      FF
 845              	.LVL44:
 846              	.LBE117:
 847              		.loc 1 957 3 view .LVU164
 848 00e7 8B54242C 		movl	44(%esp), %edx
 849              		.loc 1 959 5 view .LVU165
 850 00eb 83C414   		addl	$20, %esp
 851              		.cfi_def_cfa_offset 60
 852              	.LBB118:
GAS LISTING /tmp/ccVaQ2UV.s 			page 18


 853              		.loc 1 951 16 view .LVU166
 854 00ee 894610   		movl	%eax, 16(%esi)
 855              	.LBE118:
 856              		.loc 1 953 3 is_stmt 1 view .LVU167
 857              		.loc 1 953 19 view .LVU168
 858              		.loc 1 957 3 view .LVU169
 859              		.loc 1 959 5 is_stmt 0 view .LVU170
 860 00f1 8D830000 		leal	c1@GOTOFF(%ebx), %eax
 860      0000
 861              		.loc 1 957 3 view .LVU171
 862 00f7 C7020200 		movl	$2, (%edx)
 862      0000
 863              		.loc 1 959 5 is_stmt 1 view .LVU172
 864 00fd 50       		pushl	%eax
 865              		.cfi_def_cfa_offset 64
 866 00fe E8FCFFFF 		call	chCondBroadcast@PLT
 866      FF
 867              	.LVL45:
 868              		.loc 1 960 5 view .LVU173
 869 0103 E8FCFFFF 		call	test_wait_threads@PLT
 869      FF
 870              	.LVL46:
 871              		.loc 1 961 5 view .LVU174
 872 0108 58       		popl	%eax
 873              		.cfi_def_cfa_offset 60
 874 0109 8D830000 		leal	.LC3@GOTOFF(%ebx), %eax
 874      0000
 875 010f 5A       		popl	%edx
 876              		.cfi_def_cfa_offset 56
 877 0110 50       		pushl	%eax
 878              		.cfi_def_cfa_offset 60
 879 0111 8D830000 		leal	.LC7@GOTOFF(%ebx), %eax
 879      0000
 880 0117 50       		pushl	%eax
 881              		.cfi_def_cfa_offset 64
 882 0118 E8FCFFFF 		call	__test_assert_sequence@PLT
 882      FF
 883              	.LVL47:
 884              		.loc 1 961 54 view .LVU175
 885              		.loc 1 963 3 view .LVU176
 886              		.loc 1 963 19 view .LVU177
 887              		.loc 1 964 1 is_stmt 0 view .LVU178
 888 011d 83C42C   		addl	$44, %esp
 889              		.cfi_def_cfa_offset 20
 890 0120 5B       		popl	%ebx
 891              		.cfi_restore 3
 892              		.cfi_def_cfa_offset 16
 893 0121 5E       		popl	%esi
 894              		.cfi_restore 6
 895              		.cfi_def_cfa_offset 12
 896 0122 5F       		popl	%edi
 897              		.cfi_restore 7
 898              		.cfi_def_cfa_offset 8
 899 0123 5D       		popl	%ebp
 900              		.cfi_restore 5
 901              		.cfi_def_cfa_offset 4
 902 0124 C3       		ret
GAS LISTING /tmp/ccVaQ2UV.s 			page 19


 903              		.cfi_endproc
 904              	.LFE319:
 905              		.size	rt_test_008_008_execute, .-rt_test_008_008_execute
 906              		.section	.text.rt_test_008_007_execute,"ax",@progbits
 907              		.p2align 4
 908              		.type	rt_test_008_007_execute, @function
 909              	rt_test_008_007_execute:
 910              	.LFB317:
 911              		.loc 1 869 43 is_stmt 1 view -0
 912              		.cfi_startproc
 913              		.loc 1 873 3 view .LVU180
 914              		.loc 1 869 43 is_stmt 0 view .LVU181
 915 0000 55       		pushl	%ebp
 916              		.cfi_def_cfa_offset 8
 917              		.cfi_offset 5, -8
 918 0001 57       		pushl	%edi
 919              		.cfi_def_cfa_offset 12
 920              		.cfi_offset 7, -12
 921 0002 56       		pushl	%esi
 922              		.cfi_def_cfa_offset 16
 923              		.cfi_offset 6, -16
 924 0003 53       		pushl	%ebx
 925              		.cfi_def_cfa_offset 20
 926              		.cfi_offset 3, -20
 927 0004 E8FCFFFF 		call	__x86.get_pc_thunk.bx
 927      FF
 928 0009 81C30200 		addl	$_GLOBAL_OFFSET_TABLE_, %ebx
 928      0000
 929 000f 83EC28   		subl	$40, %esp
 930              		.cfi_def_cfa_offset 60
 931              	.LBB119:
 932              	.LBB120:
 933              	.LBB121:
 934              	.LBB122:
 935              	.LBB123:
 936              		.loc 2 529 10 view .LVU182
 937 0012 8B830000 		movl	ch0@GOT(%ebx), %eax
 937      0000
 938              	.LBE123:
 939              	.LBE122:
 940              	.LBE121:
 941              	.LBE120:
 942              	.LBE119:
 943              		.loc 1 873 3 view .LVU183
 944 0018 8B930000 		movl	chtest@GOT(%ebx), %edx
 944      0000
 945              	.LBB132:
 946              		.loc 1 876 18 view .LVU184
 947 001e 8DAB0000 		leal	thread6@GOTOFF(%ebx), %ebp
 947      0000
 948              		.loc 1 876 38 view .LVU185
 949 0024 8BBB0000 		movl	wa@GOT(%ebx), %edi
 949      0000
 950              	.LBB129:
 951              	.LBB126:
 952              		.loc 2 542 37 view .LVU186
 953 002a 8B400C   		movl	12(%eax), %eax
GAS LISTING /tmp/ccVaQ2UV.s 			page 20


 954              	.LBE126:
 955              	.LBE129:
 956              	.LBE132:
 957              		.loc 1 873 3 view .LVU187
 958 002d 89542418 		movl	%edx, 24(%esp)
 959              	.LBB133:
 960              		.loc 1 875 5 is_stmt 1 view .LVU188
 961              	.LBB130:
 962              	.LBI120:
 963              		.loc 2 540 23 view .LVU189
 964              	.LBB127:
 965              		.loc 2 542 3 view .LVU190
 966              	.LBB125:
 967              	.LBI122:
 968              		.loc 2 527 25 view .LVU191
 969              	.LBB124:
 970              		.loc 2 529 3 view .LVU192
 971              	.LBE124:
 972              	.LBE125:
 973              	.LBE127:
 974              	.LBE130:
 975              	.LBE133:
 976              		.loc 1 873 3 is_stmt 0 view .LVU193
 977 0031 C7020100 		movl	$1, (%edx)
 977      0000
 978              	.LBB134:
 979              	.LBB131:
 980              	.LBB128:
 981              		.loc 2 542 37 view .LVU194
 982 0037 8B4808   		movl	8(%eax), %ecx
 983              	.LVL48:
 984              		.loc 2 542 37 view .LVU195
 985              	.LBE128:
 986              	.LBE131:
 987              		.loc 1 876 5 is_stmt 1 view .LVU196
 988              		.loc 1 876 18 is_stmt 0 view .LVU197
 989 003a 8D830000 		leal	.LC5@GOTOFF(%ebx), %eax
 989      0000
 990 0040 50       		pushl	%eax
 991              		.cfi_def_cfa_offset 64
 992 0041 55       		pushl	%ebp
 993              		.cfi_def_cfa_offset 68
 994 0042 8D4101   		leal	1(%ecx), %eax
 995 0045 894C241C 		movl	%ecx, 28(%esp)
 996 0049 50       		pushl	%eax
 997              		.cfi_def_cfa_offset 72
 998 004a 68404100 		pushl	$16704
 998      00
 999              		.cfi_def_cfa_offset 76
 1000 004f FF37     		pushl	(%edi)
 1001              		.cfi_def_cfa_offset 80
 1002 0051 E8FCFFFF 		call	chThdCreateStatic@PLT
 1002      FF
 1003              	.LVL49:
 1004              		.loc 1 876 16 view .LVU198
 1005 0056 8BB30000 		movl	threads@GOT(%ebx), %esi
 1005      0000
GAS LISTING /tmp/ccVaQ2UV.s 			page 21


 1006              		.loc 1 877 18 view .LVU199
 1007 005c 83C414   		addl	$20, %esp
 1008              		.cfi_def_cfa_offset 60
 1009              		.loc 1 876 16 view .LVU200
 1010 005f 8906     		movl	%eax, (%esi)
 1011              		.loc 1 877 5 is_stmt 1 view .LVU201
 1012              		.loc 1 877 18 is_stmt 0 view .LVU202
 1013 0061 8D830000 		leal	.LC6@GOTOFF(%ebx), %eax
 1013      0000
 1014 0067 50       		pushl	%eax
 1015              		.cfi_def_cfa_offset 64
 1016 0068 55       		pushl	%ebp
 1017              		.cfi_def_cfa_offset 68
 1018 0069 8B4C241C 		movl	28(%esp), %ecx
 1019 006d 8D4102   		leal	2(%ecx), %eax
 1020 0070 50       		pushl	%eax
 1021              		.cfi_def_cfa_offset 72
 1022 0071 68404100 		pushl	$16704
 1022      00
 1023              		.cfi_def_cfa_offset 76
 1024 0076 FF7704   		pushl	4(%edi)
 1025              		.cfi_def_cfa_offset 80
 1026 0079 E8FCFFFF 		call	chThdCreateStatic@PLT
 1026      FF
 1027              	.LVL50:
 1028              		.loc 1 878 18 view .LVU203
 1029 007e 83C414   		addl	$20, %esp
 1030              		.cfi_def_cfa_offset 60
 1031              		.loc 1 877 16 view .LVU204
 1032 0081 894604   		movl	%eax, 4(%esi)
 1033              		.loc 1 878 5 is_stmt 1 view .LVU205
 1034              		.loc 1 878 18 is_stmt 0 view .LVU206
 1035 0084 8D830000 		leal	.LC1@GOTOFF(%ebx), %eax
 1035      0000
 1036 008a 50       		pushl	%eax
 1037              		.cfi_def_cfa_offset 64
 1038 008b 55       		pushl	%ebp
 1039              		.cfi_def_cfa_offset 68
 1040 008c 8B4C241C 		movl	28(%esp), %ecx
 1041 0090 8D4103   		leal	3(%ecx), %eax
 1042 0093 50       		pushl	%eax
 1043              		.cfi_def_cfa_offset 72
 1044 0094 68404100 		pushl	$16704
 1044      00
 1045              		.cfi_def_cfa_offset 76
 1046 0099 FF7708   		pushl	8(%edi)
 1047              		.cfi_def_cfa_offset 80
 1048 009c E8FCFFFF 		call	chThdCreateStatic@PLT
 1048      FF
 1049              	.LVL51:
 1050              		.loc 1 879 18 view .LVU207
 1051 00a1 83C414   		addl	$20, %esp
 1052              		.cfi_def_cfa_offset 60
 1053              		.loc 1 878 16 view .LVU208
 1054 00a4 894608   		movl	%eax, 8(%esi)
 1055              		.loc 1 879 5 is_stmt 1 view .LVU209
 1056              		.loc 1 879 18 is_stmt 0 view .LVU210
GAS LISTING /tmp/ccVaQ2UV.s 			page 22


 1057 00a7 8D830000 		leal	.LC2@GOTOFF(%ebx), %eax
 1057      0000
 1058 00ad 50       		pushl	%eax
 1059              		.cfi_def_cfa_offset 64
 1060 00ae 55       		pushl	%ebp
 1061              		.cfi_def_cfa_offset 68
 1062 00af 8B4C241C 		movl	28(%esp), %ecx
 1063 00b3 8D4104   		leal	4(%ecx), %eax
 1064 00b6 50       		pushl	%eax
 1065              		.cfi_def_cfa_offset 72
 1066 00b7 68404100 		pushl	$16704
 1066      00
 1067              		.cfi_def_cfa_offset 76
 1068 00bc FF770C   		pushl	12(%edi)
 1069              		.cfi_def_cfa_offset 80
 1070 00bf E8FCFFFF 		call	chThdCreateStatic@PLT
 1070      FF
 1071              	.LVL52:
 1072              		.loc 1 880 18 view .LVU211
 1073 00c4 83C414   		addl	$20, %esp
 1074              		.cfi_def_cfa_offset 60
 1075              		.loc 1 879 16 view .LVU212
 1076 00c7 89460C   		movl	%eax, 12(%esi)
 1077              		.loc 1 880 5 is_stmt 1 view .LVU213
 1078              		.loc 1 880 18 is_stmt 0 view .LVU214
 1079 00ca 8D830000 		leal	.LC0@GOTOFF(%ebx), %eax
 1079      0000
 1080 00d0 50       		pushl	%eax
 1081              		.cfi_def_cfa_offset 64
 1082 00d1 55       		pushl	%ebp
 1083              		.cfi_def_cfa_offset 68
 1084 00d2 8B4C241C 		movl	28(%esp), %ecx
 1085 00d6 8D4105   		leal	5(%ecx), %eax
 1086 00d9 50       		pushl	%eax
 1087              		.cfi_def_cfa_offset 72
 1088 00da 68404100 		pushl	$16704
 1088      00
 1089              		.cfi_def_cfa_offset 76
 1090 00df FF7710   		pushl	16(%edi)
 1091              		.cfi_def_cfa_offset 80
 1092 00e2 E8FCFFFF 		call	chThdCreateStatic@PLT
 1092      FF
 1093              	.LVL53:
 1094              	.LBE134:
 1095              		.loc 1 887 3 view .LVU215
 1096 00e7 8B54242C 		movl	44(%esp), %edx
 1097              	.LBB135:
 1098              	.LBB136:
 1099              	.LBB137:
 1100              		.file 3 "../../../os/common/ports/SIMIA32/chcore.h"
 1101              		.loc 3 363 16 view .LVU216
 1102 00eb 8BBB0000 		movl	port_irq_sts@GOT(%ebx), %edi
 1102      0000
 1103              	.LBE137:
 1104              	.LBE136:
 1105              	.LBE135:
 1106              		.loc 1 890 5 view .LVU217
GAS LISTING /tmp/ccVaQ2UV.s 			page 23


 1107 00f1 83C414   		addl	$20, %esp
 1108              		.cfi_def_cfa_offset 60
 1109              	.LBB140:
 1110              		.loc 1 880 16 view .LVU218
 1111 00f4 894610   		movl	%eax, 16(%esi)
 1112              	.LBE140:
 1113              		.loc 1 882 3 is_stmt 1 view .LVU219
 1114              		.loc 1 882 19 view .LVU220
 1115              		.loc 1 887 3 view .LVU221
 1116              		.loc 1 890 5 is_stmt 0 view .LVU222
 1117 00f7 8DB30000 		leal	c1@GOTOFF(%ebx), %esi
 1117      0000
 1118              		.loc 1 887 3 view .LVU223
 1119 00fd C7020200 		movl	$2, (%edx)
 1119      0000
 1120              		.loc 1 889 5 is_stmt 1 view .LVU224
 1121              	.LBB141:
 1122              	.LBI135:
 1123              		.file 4 "../../../os/rt/include/chsys.h"
 1124              		.loc 4 407 20 view .LVU225
 1125              		.loc 4 409 3 view .LVU226
 1126              	.LBB139:
 1127              	.LBI136:
 1128              		.loc 3 361 20 view .LVU227
 1129              	.LBB138:
 1130              		.loc 3 363 3 view .LVU228
 1131              		.loc 3 363 16 is_stmt 0 view .LVU229
 1132 0103 C7070100 		movl	$1, (%edi)
 1132      0000
 1133              	.LBE138:
 1134              	.LBE139:
 1135              		.loc 4 410 35 is_stmt 1 view .LVU230
 1136              		.loc 4 411 21 view .LVU231
 1137              	.LBE141:
 1138              		.loc 1 890 5 view .LVU232
 1139 0109 56       		pushl	%esi
 1140              		.cfi_def_cfa_offset 64
 1141 010a E8FCFFFF 		call	chCondSignalI@PLT
 1141      FF
 1142              	.LVL54:
 1143              		.loc 1 891 5 view .LVU233
 1144 010f 893424   		movl	%esi, (%esp)
 1145 0112 E8FCFFFF 		call	chCondSignalI@PLT
 1145      FF
 1146              	.LVL55:
 1147              		.loc 1 892 5 view .LVU234
 1148 0117 893424   		movl	%esi, (%esp)
 1149 011a E8FCFFFF 		call	chCondSignalI@PLT
 1149      FF
 1150              	.LVL56:
 1151              		.loc 1 893 5 view .LVU235
 1152 011f 893424   		movl	%esi, (%esp)
 1153 0122 E8FCFFFF 		call	chCondSignalI@PLT
 1153      FF
 1154              	.LVL57:
 1155              		.loc 1 894 5 view .LVU236
 1156 0127 893424   		movl	%esi, (%esp)
GAS LISTING /tmp/ccVaQ2UV.s 			page 24


 1157 012a E8FCFFFF 		call	chCondSignalI@PLT
 1157      FF
 1158              	.LVL58:
 1159              		.loc 1 895 5 view .LVU237
 1160 012f E8FCFFFF 		call	chSchRescheduleS@PLT
 1160      FF
 1161              	.LVL59:
 1162              		.loc 1 896 5 view .LVU238
 1163              	.LBB142:
 1164              	.LBI142:
 1165              		.loc 4 421 20 view .LVU239
 1166              	.LBB143:
 1167              		.loc 4 423 23 view .LVU240
 1168              		.loc 4 424 34 view .LVU241
 1169              		.loc 4 430 3 view .LVU242
 1170              		.loc 4 430 3 view .LVU243
 1171              		.loc 4 430 3 view .LVU244
 1172              		.loc 4 434 3 view .LVU245
 1173              	.LBB144:
 1174              	.LBI144:
 1175              		.loc 3 370 20 view .LVU246
 1176              	.LBB145:
 1177              		.loc 3 372 3 view .LVU247
 1178              		.loc 3 372 16 is_stmt 0 view .LVU248
 1179 0134 C7070000 		movl	$0, (%edi)
 1179      0000
 1180              	.LBE145:
 1181              	.LBE144:
 1182              	.LBE143:
 1183              	.LBE142:
 1184              		.loc 1 897 5 is_stmt 1 view .LVU249
 1185 013a E8FCFFFF 		call	test_wait_threads@PLT
 1185      FF
 1186              	.LVL60:
 1187              		.loc 1 898 5 view .LVU250
 1188 013f 58       		popl	%eax
 1189              		.cfi_def_cfa_offset 60
 1190 0140 8D830000 		leal	.LC3@GOTOFF(%ebx), %eax
 1190      0000
 1191 0146 5A       		popl	%edx
 1192              		.cfi_def_cfa_offset 56
 1193 0147 50       		pushl	%eax
 1194              		.cfi_def_cfa_offset 60
 1195 0148 8D830000 		leal	.LC7@GOTOFF(%ebx), %eax
 1195      0000
 1196 014e 50       		pushl	%eax
 1197              		.cfi_def_cfa_offset 64
 1198 014f E8FCFFFF 		call	__test_assert_sequence@PLT
 1198      FF
 1199              	.LVL61:
 1200              		.loc 1 898 54 view .LVU251
 1201              		.loc 1 900 3 view .LVU252
 1202              		.loc 1 900 19 view .LVU253
 1203              		.loc 1 901 1 is_stmt 0 view .LVU254
 1204 0154 83C42C   		addl	$44, %esp
 1205              		.cfi_def_cfa_offset 20
 1206 0157 5B       		popl	%ebx
GAS LISTING /tmp/ccVaQ2UV.s 			page 25


 1207              		.cfi_restore 3
 1208              		.cfi_def_cfa_offset 16
 1209 0158 5E       		popl	%esi
 1210              		.cfi_restore 6
 1211              		.cfi_def_cfa_offset 12
 1212 0159 5F       		popl	%edi
 1213              		.cfi_restore 7
 1214              		.cfi_def_cfa_offset 8
 1215 015a 5D       		popl	%ebp
 1216              		.cfi_restore 5
 1217              		.cfi_def_cfa_offset 4
 1218 015b C3       		ret
 1219              		.cfi_endproc
 1220              	.LFE317:
 1221              		.size	rt_test_008_007_execute, .-rt_test_008_007_execute
 1222              		.section	.rodata.rt_test_008_001_execute.str1.1,"aMS",@progbits,1
 1223              	.LC8:
 1224 0000 77726F6E 		.string	"wrong priority level"
 1224      67207072 
 1224      696F7269 
 1224      7479206C 
 1224      6576656C 
 1225              		.section	.text.rt_test_008_001_execute,"ax",@progbits
 1226              		.p2align 4
 1227              		.type	rt_test_008_001_execute, @function
 1228              	rt_test_008_001_execute:
 1229              	.LFB310:
 1230              		.loc 1 259 43 is_stmt 1 view -0
 1231              		.cfi_startproc
 1232              		.loc 1 260 3 view .LVU256
 1233              		.loc 1 263 3 view .LVU257
 1234              		.loc 1 265 5 view .LVU258
 1235              	.LBB146:
 1236              	.LBI146:
 1237              		.loc 2 540 23 view .LVU259
 1238              	.LBB147:
 1239              		.loc 2 542 3 view .LVU260
 1240              	.LBB148:
 1241              	.LBI148:
 1242              		.loc 2 527 25 view .LVU261
 1243              	.LBB149:
 1244              		.loc 2 529 3 view .LVU262
 1245              	.LBE149:
 1246              	.LBE148:
 1247              	.LBE147:
 1248              	.LBE146:
 1249              		.loc 1 259 43 is_stmt 0 view .LVU263
 1250 0000 55       		pushl	%ebp
 1251              		.cfi_def_cfa_offset 8
 1252              		.cfi_offset 5, -8
 1253 0001 57       		pushl	%edi
 1254              		.cfi_def_cfa_offset 12
 1255              		.cfi_offset 7, -12
 1256 0002 56       		pushl	%esi
 1257              		.cfi_def_cfa_offset 16
 1258              		.cfi_offset 6, -16
 1259 0003 53       		pushl	%ebx
GAS LISTING /tmp/ccVaQ2UV.s 			page 26


 1260              		.cfi_def_cfa_offset 20
 1261              		.cfi_offset 3, -20
 1262 0004 E8FCFFFF 		call	__x86.get_pc_thunk.bx
 1262      FF
 1263 0009 81C30200 		addl	$_GLOBAL_OFFSET_TABLE_, %ebx
 1263      0000
 1264 000f 83EC28   		subl	$40, %esp
 1265              		.cfi_def_cfa_offset 60
 1266              	.LBB155:
 1267              	.LBB152:
 1268              	.LBB151:
 1269              	.LBB150:
 1270              		.loc 2 529 10 view .LVU264
 1271 0012 8B8B0000 		movl	ch0@GOT(%ebx), %ecx
 1271      0000
 1272              	.LBE150:
 1273              	.LBE151:
 1274              	.LBE152:
 1275              	.LBE155:
 1276              		.loc 1 270 3 view .LVU265
 1277 0018 8BBB0000 		movl	chtest@GOT(%ebx), %edi
 1277      0000
 1278              		.loc 1 272 5 view .LVU266
 1279 001e 8D930000 		leal	m1@GOTOFF(%ebx), %edx
 1279      0000
 1280              		.loc 1 281 18 view .LVU267
 1281 0024 8DAB0000 		leal	thread1@GOTOFF(%ebx), %ebp
 1281      0000
 1282              	.LBB156:
 1283              	.LBB153:
 1284              		.loc 2 542 37 view .LVU268
 1285 002a 8B410C   		movl	12(%ecx), %eax
 1286 002d 894C2418 		movl	%ecx, 24(%esp)
 1287              	.LBE153:
 1288              	.LBE156:
 1289              		.loc 1 270 3 view .LVU269
 1290 0031 C7070200 		movl	$2, (%edi)
 1290      0000
 1291              	.LBB157:
 1292              	.LBB154:
 1293              		.loc 2 542 37 view .LVU270
 1294 0037 8B7008   		movl	8(%eax), %esi
 1295              	.LVL62:
 1296              		.loc 2 542 37 view .LVU271
 1297              	.LBE154:
 1298              	.LBE157:
 1299              		.loc 1 267 3 is_stmt 1 view .LVU272
 1300              		.loc 1 267 19 view .LVU273
 1301              		.loc 1 270 3 view .LVU274
 1302              		.loc 1 272 5 view .LVU275
 1303 003a 52       		pushl	%edx
 1304              		.cfi_def_cfa_offset 64
 1305 003b 89542418 		movl	%edx, 24(%esp)
 1306 003f E8FCFFFF 		call	chMtxLock@PLT
 1306      FF
 1307              	.LVL63:
 1308              		.loc 1 274 3 view .LVU276
GAS LISTING /tmp/ccVaQ2UV.s 			page 27


 1309              		.loc 1 274 19 view .LVU277
 1310              		.loc 1 279 3 view .LVU278
 1311              		.loc 1 281 18 is_stmt 0 view .LVU279
 1312 0044 8D830000 		leal	.LC5@GOTOFF(%ebx), %eax
 1312      0000
 1313              		.loc 1 279 3 view .LVU280
 1314 004a C7070300 		movl	$3, (%edi)
 1314      0000
 1315              		.loc 1 281 5 is_stmt 1 view .LVU281
 1316              		.loc 1 281 18 is_stmt 0 view .LVU282
 1317 0050 890424   		movl	%eax, (%esp)
 1318 0053 8D4601   		leal	1(%esi), %eax
 1319              		.loc 1 279 3 view .LVU283
 1320 0056 897C2414 		movl	%edi, 20(%esp)
 1321              		.loc 1 281 18 view .LVU284
 1322 005a 55       		pushl	%ebp
 1323              		.cfi_def_cfa_offset 68
 1324 005b 50       		pushl	%eax
 1325              		.cfi_def_cfa_offset 72
 1326              		.loc 1 281 38 view .LVU285
 1327 005c 8B830000 		movl	wa@GOT(%ebx), %eax
 1327      0000
 1328              		.loc 1 281 18 view .LVU286
 1329 0062 68404100 		pushl	$16704
 1329      00
 1330              		.cfi_def_cfa_offset 76
 1331 0067 8944241C 		movl	%eax, 28(%esp)
 1332 006b FF30     		pushl	(%eax)
 1333              		.cfi_def_cfa_offset 80
 1334 006d E8FCFFFF 		call	chThdCreateStatic@PLT
 1334      FF
 1335              	.LVL64:
 1336              		.loc 1 281 16 view .LVU287
 1337 0072 8BBB0000 		movl	threads@GOT(%ebx), %edi
 1337      0000
 1338              		.loc 1 282 18 view .LVU288
 1339 0078 83C414   		addl	$20, %esp
 1340              		.cfi_def_cfa_offset 60
 1341              		.loc 1 281 16 view .LVU289
 1342 007b 8907     		movl	%eax, (%edi)
 1343              		.loc 1 282 5 is_stmt 1 view .LVU290
 1344              		.loc 1 282 18 is_stmt 0 view .LVU291
 1345 007d 8D830000 		leal	.LC6@GOTOFF(%ebx), %eax
 1345      0000
 1346 0083 50       		pushl	%eax
 1347              		.cfi_def_cfa_offset 64
 1348 0084 8D4602   		leal	2(%esi), %eax
 1349 0087 55       		pushl	%ebp
 1350              		.cfi_def_cfa_offset 68
 1351 0088 50       		pushl	%eax
 1352              		.cfi_def_cfa_offset 72
 1353 0089 68404100 		pushl	$16704
 1353      00
 1354              		.cfi_def_cfa_offset 76
 1355 008e 8B44241C 		movl	28(%esp), %eax
 1356 0092 FF7004   		pushl	4(%eax)
 1357              		.cfi_def_cfa_offset 80
GAS LISTING /tmp/ccVaQ2UV.s 			page 28


 1358 0095 E8FCFFFF 		call	chThdCreateStatic@PLT
 1358      FF
 1359              	.LVL65:
 1360              		.loc 1 283 18 view .LVU292
 1361 009a 83C414   		addl	$20, %esp
 1362              		.cfi_def_cfa_offset 60
 1363              		.loc 1 282 16 view .LVU293
 1364 009d 894704   		movl	%eax, 4(%edi)
 1365              		.loc 1 283 5 is_stmt 1 view .LVU294
 1366              		.loc 1 283 18 is_stmt 0 view .LVU295
 1367 00a0 8D830000 		leal	.LC1@GOTOFF(%ebx), %eax
 1367      0000
 1368 00a6 50       		pushl	%eax
 1369              		.cfi_def_cfa_offset 64
 1370 00a7 8D4603   		leal	3(%esi), %eax
 1371 00aa 55       		pushl	%ebp
 1372              		.cfi_def_cfa_offset 68
 1373 00ab 50       		pushl	%eax
 1374              		.cfi_def_cfa_offset 72
 1375 00ac 68404100 		pushl	$16704
 1375      00
 1376              		.cfi_def_cfa_offset 76
 1377 00b1 8B44241C 		movl	28(%esp), %eax
 1378 00b5 FF7008   		pushl	8(%eax)
 1379              		.cfi_def_cfa_offset 80
 1380 00b8 E8FCFFFF 		call	chThdCreateStatic@PLT
 1380      FF
 1381              	.LVL66:
 1382              		.loc 1 284 18 view .LVU296
 1383 00bd 83C414   		addl	$20, %esp
 1384              		.cfi_def_cfa_offset 60
 1385              		.loc 1 283 16 view .LVU297
 1386 00c0 894708   		movl	%eax, 8(%edi)
 1387              		.loc 1 284 5 is_stmt 1 view .LVU298
 1388              		.loc 1 284 18 is_stmt 0 view .LVU299
 1389 00c3 8D830000 		leal	.LC2@GOTOFF(%ebx), %eax
 1389      0000
 1390 00c9 50       		pushl	%eax
 1391              		.cfi_def_cfa_offset 64
 1392 00ca 8D4604   		leal	4(%esi), %eax
 1393 00cd 55       		pushl	%ebp
 1394              		.cfi_def_cfa_offset 68
 1395 00ce 50       		pushl	%eax
 1396              		.cfi_def_cfa_offset 72
 1397 00cf 68404100 		pushl	$16704
 1397      00
 1398              		.cfi_def_cfa_offset 76
 1399 00d4 8B44241C 		movl	28(%esp), %eax
 1400 00d8 FF700C   		pushl	12(%eax)
 1401              		.cfi_def_cfa_offset 80
 1402 00db E8FCFFFF 		call	chThdCreateStatic@PLT
 1402      FF
 1403              	.LVL67:
 1404              		.loc 1 285 18 view .LVU300
 1405 00e0 83C414   		addl	$20, %esp
 1406              		.cfi_def_cfa_offset 60
 1407              		.loc 1 284 16 view .LVU301
GAS LISTING /tmp/ccVaQ2UV.s 			page 29


 1408 00e3 89470C   		movl	%eax, 12(%edi)
 1409              		.loc 1 285 5 is_stmt 1 view .LVU302
 1410              		.loc 1 285 18 is_stmt 0 view .LVU303
 1411 00e6 8D830000 		leal	.LC0@GOTOFF(%ebx), %eax
 1411      0000
 1412 00ec 50       		pushl	%eax
 1413              		.cfi_def_cfa_offset 64
 1414 00ed 8D4605   		leal	5(%esi), %eax
 1415 00f0 55       		pushl	%ebp
 1416              		.cfi_def_cfa_offset 68
 1417 00f1 50       		pushl	%eax
 1418              		.cfi_def_cfa_offset 72
 1419 00f2 68404100 		pushl	$16704
 1419      00
 1420              		.cfi_def_cfa_offset 76
 1421 00f7 8B44241C 		movl	28(%esp), %eax
 1422 00fb FF7010   		pushl	16(%eax)
 1423              		.cfi_def_cfa_offset 80
 1424 00fe E8FCFFFF 		call	chThdCreateStatic@PLT
 1424      FF
 1425              	.LVL68:
 1426              		.loc 1 285 16 view .LVU304
 1427 0103 894710   		movl	%eax, 16(%edi)
 1428              		.loc 1 287 3 is_stmt 1 view .LVU305
 1429              		.loc 1 287 19 view .LVU306
 1430              		.loc 1 291 3 view .LVU307
 1431 0106 8B7C2424 		movl	36(%esp), %edi
 1432              		.loc 1 293 5 is_stmt 0 view .LVU308
 1433 010a 83C414   		addl	$20, %esp
 1434              		.cfi_def_cfa_offset 60
 1435 010d 8B542414 		movl	20(%esp), %edx
 1436              		.loc 1 291 3 view .LVU309
 1437 0111 C7070400 		movl	$4, (%edi)
 1437      0000
 1438              		.loc 1 293 5 is_stmt 1 view .LVU310
 1439 0117 52       		pushl	%edx
 1440              		.cfi_def_cfa_offset 64
 1441 0118 E8FCFFFF 		call	chMtxUnlock@PLT
 1441      FF
 1442              	.LVL69:
 1443              		.loc 1 294 5 view .LVU311
 1444 011d E8FCFFFF 		call	test_wait_threads@PLT
 1444      FF
 1445              	.LVL70:
 1446              		.loc 1 295 5 view .LVU312
 1447              	.LBB158:
 1448              	.LBI158:
 1449              		.loc 2 540 23 view .LVU313
 1450              	.LBB159:
 1451              		.loc 2 542 3 view .LVU314
 1452              	.LBB160:
 1453              	.LBI160:
 1454              		.loc 2 527 25 view .LVU315
 1455              	.LBB161:
 1456              		.loc 2 529 3 view .LVU316
 1457              	.LBE161:
 1458              	.LBE160:
GAS LISTING /tmp/ccVaQ2UV.s 			page 30


 1459              	.LBE159:
 1460              	.LBE158:
 1461              		.loc 1 295 5 is_stmt 0 view .LVU317
 1462 0122 58       		popl	%eax
 1463              		.cfi_def_cfa_offset 60
 1464 0123 8D830000 		leal	.LC8@GOTOFF(%ebx), %eax
 1464      0000
 1465 0129 5A       		popl	%edx
 1466              		.cfi_def_cfa_offset 56
 1467 012a 50       		pushl	%eax
 1468              		.cfi_def_cfa_offset 60
 1469              	.LBB163:
 1470              	.LBB162:
 1471              		.loc 2 542 37 view .LVU318
 1472 012b 8B4C2418 		movl	24(%esp), %ecx
 1473 012f 8B410C   		movl	12(%ecx), %eax
 1474              	.LBE162:
 1475              	.LBE163:
 1476              		.loc 1 295 5 view .LVU319
 1477 0132 397008   		cmpl	%esi, 8(%eax)
 1478 0135 0F94C0   		sete	%al
 1479 0138 0FB6C0   		movzbl	%al, %eax
 1480 013b 50       		pushl	%eax
 1481              		.cfi_def_cfa_offset 64
 1482 013c E8FCFFFF 		call	__test_assert@PLT
 1482      FF
 1483              	.LVL71:
 1484 0141 83C410   		addl	$16, %esp
 1485              		.cfi_def_cfa_offset 48
 1486 0144 84C0     		testb	%al, %al
 1487 0146 7519     		jne	.L26
 1488              		.loc 1 295 69 is_stmt 1 discriminator 2 view .LVU320
 1489              		.loc 1 296 5 discriminator 2 view .LVU321
 1490 0148 83EC08   		subl	$8, %esp
 1491              		.cfi_def_cfa_offset 56
 1492 014b 8D830000 		leal	.LC3@GOTOFF(%ebx), %eax
 1492      0000
 1493 0151 50       		pushl	%eax
 1494              		.cfi_def_cfa_offset 60
 1495 0152 8D830000 		leal	.LC7@GOTOFF(%ebx), %eax
 1495      0000
 1496 0158 50       		pushl	%eax
 1497              		.cfi_def_cfa_offset 64
 1498 0159 E8FCFFFF 		call	__test_assert_sequence@PLT
 1498      FF
 1499              	.LVL72:
 1500 015e 83C410   		addl	$16, %esp
 1501              		.cfi_def_cfa_offset 48
 1502              		.loc 1 296 54 discriminator 2 view .LVU322
 1503              		.loc 1 298 3 discriminator 2 view .LVU323
 1504              		.loc 1 298 19 discriminator 2 view .LVU324
 1505              	.L26:
 1506              		.loc 1 299 1 is_stmt 0 view .LVU325
 1507 0161 83C41C   		addl	$28, %esp
 1508              		.cfi_def_cfa_offset 20
 1509 0164 5B       		popl	%ebx
 1510              		.cfi_restore 3
GAS LISTING /tmp/ccVaQ2UV.s 			page 31


 1511              		.cfi_def_cfa_offset 16
 1512 0165 5E       		popl	%esi
 1513              		.cfi_restore 6
 1514              		.cfi_def_cfa_offset 12
 1515              	.LVL73:
 1516              		.loc 1 299 1 view .LVU326
 1517 0166 5F       		popl	%edi
 1518              		.cfi_restore 7
 1519              		.cfi_def_cfa_offset 8
 1520 0167 5D       		popl	%ebp
 1521              		.cfi_restore 5
 1522              		.cfi_def_cfa_offset 4
 1523 0168 C3       		ret
 1524              		.cfi_endproc
 1525              	.LFE310:
 1526              		.size	rt_test_008_001_execute, .-rt_test_008_001_execute
 1527              		.section	.rodata.rt_test_008_005_execute.str1.1,"aMS",@progbits,1
 1528              	.LC9:
 1529 0000 616C7265 		.string	"already locked"
 1529      61647920 
 1529      6C6F636B 
 1529      656400
 1530              	.LC10:
 1531 000f 6E6F7420 		.string	"not locked"
 1531      6C6F636B 
 1531      656400
 1532              	.LC11:
 1533 001a 7374696C 		.string	"still owned"
 1533      6C206F77 
 1533      6E656400 
 1534              	.LC12:
 1535 0026 71756575 		.string	"queue not empty"
 1535      65206E6F 
 1535      7420656D 
 1535      70747900 
 1536              		.section	.text.rt_test_008_005_execute,"ax",@progbits
 1537              		.p2align 4
 1538              		.type	rt_test_008_005_execute, @function
 1539              	rt_test_008_005_execute:
 1540              	.LFB315:
 1541              		.loc 1 616 43 is_stmt 1 view -0
 1542              		.cfi_startproc
 1543              		.loc 1 617 3 view .LVU328
 1544              		.loc 1 618 3 view .LVU329
 1545              		.loc 1 621 3 view .LVU330
 1546              		.loc 1 623 5 view .LVU331
 1547              	.LBB164:
 1548              	.LBI164:
 1549              		.loc 2 540 23 view .LVU332
 1550              	.LBB165:
 1551              		.loc 2 542 3 view .LVU333
 1552              	.LBB166:
 1553              	.LBI166:
 1554              		.loc 2 527 25 view .LVU334
 1555              	.LBB167:
 1556              		.loc 2 529 3 view .LVU335
 1557              	.LBE167:
GAS LISTING /tmp/ccVaQ2UV.s 			page 32


 1558              	.LBE166:
 1559              	.LBE165:
 1560              	.LBE164:
 1561              		.loc 1 616 43 is_stmt 0 view .LVU336
 1562 0000 55       		pushl	%ebp
 1563              		.cfi_def_cfa_offset 8
 1564              		.cfi_offset 5, -8
 1565 0001 57       		pushl	%edi
 1566              		.cfi_def_cfa_offset 12
 1567              		.cfi_offset 7, -12
 1568 0002 56       		pushl	%esi
 1569              		.cfi_def_cfa_offset 16
 1570              		.cfi_offset 6, -16
 1571 0003 53       		pushl	%ebx
 1572              		.cfi_def_cfa_offset 20
 1573              		.cfi_offset 3, -20
 1574 0004 E8FCFFFF 		call	__x86.get_pc_thunk.bx
 1574      FF
 1575 0009 81C30200 		addl	$_GLOBAL_OFFSET_TABLE_, %ebx
 1575      0000
 1576 000f 83EC38   		subl	$56, %esp
 1577              		.cfi_def_cfa_offset 76
 1578              	.LVL74:
 1579              		.loc 1 625 3 is_stmt 1 view .LVU337
 1580              		.loc 1 625 19 view .LVU338
 1581              		.loc 1 629 3 view .LVU339
 1582              	.LBB173:
 1583              	.LBB170:
 1584              	.LBB169:
 1585              	.LBB168:
 1586              		.loc 2 529 10 is_stmt 0 view .LVU340
 1587 0012 8BBB0000 		movl	ch0@GOT(%ebx), %edi
 1587      0000
 1588              	.LBE168:
 1589              	.LBE169:
 1590              	.LBE170:
 1591              	.LBE173:
 1592              		.loc 1 631 9 view .LVU341
 1593 0018 8DB30000 		leal	m1@GOTOFF(%ebx), %esi
 1593      0000
 1594              		.loc 1 629 3 view .LVU342
 1595 001e 8BAB0000 		movl	chtest@GOT(%ebx), %ebp
 1595      0000
 1596              	.LBB174:
 1597              	.LBB171:
 1598              		.loc 2 542 37 view .LVU343
 1599 0024 8B470C   		movl	12(%edi), %eax
 1600              	.LBE171:
 1601              	.LBE174:
 1602              		.loc 1 629 3 view .LVU344
 1603 0027 C7450002 		movl	$2, 0(%ebp)
 1603      000000
 1604              		.loc 1 631 5 is_stmt 1 view .LVU345
 1605              	.LBB175:
 1606              	.LBB172:
 1607              		.loc 2 542 37 is_stmt 0 view .LVU346
 1608 002e 8B4008   		movl	8(%eax), %eax
GAS LISTING /tmp/ccVaQ2UV.s 			page 33


 1609 0031 89442418 		movl	%eax, 24(%esp)
 1610              	.LVL75:
 1611              		.loc 2 542 37 view .LVU347
 1612              	.LBE172:
 1613              	.LBE175:
 1614              		.loc 1 631 9 view .LVU348
 1615 0035 56       		pushl	%esi
 1616              		.cfi_def_cfa_offset 80
 1617 0036 E8FCFFFF 		call	chMtxTryLock@PLT
 1617      FF
 1618              	.LVL76:
 1619              		.loc 1 632 5 is_stmt 1 view .LVU349
 1620 003b 59       		popl	%ecx
 1621              		.cfi_def_cfa_offset 76
 1622 003c 5A       		popl	%edx
 1623              		.cfi_def_cfa_offset 72
 1624 003d 8D930000 		leal	.LC9@GOTOFF(%ebx), %edx
 1624      0000
 1625 0043 0FB6C0   		movzbl	%al, %eax
 1626              		.loc 1 632 5 is_stmt 0 view .LVU350
 1627 0046 89542410 		movl	%edx, 16(%esp)
 1628 004a 52       		pushl	%edx
 1629              		.cfi_def_cfa_offset 76
 1630 004b 50       		pushl	%eax
 1631              		.cfi_def_cfa_offset 80
 1632 004c E8FCFFFF 		call	__test_assert@PLT
 1632      FF
 1633              	.LVL77:
 1634              		.loc 1 632 5 view .LVU351
 1635 0051 83C410   		addl	$16, %esp
 1636              		.cfi_def_cfa_offset 64
 1637 0054 84C0     		testb	%al, %al
 1638 0056 7408     		je	.L34
 1639              	.L29:
 1640              		.loc 1 682 1 view .LVU352
 1641 0058 83C42C   		addl	$44, %esp
 1642              		.cfi_remember_state
 1643              		.cfi_def_cfa_offset 20
 1644 005b 5B       		popl	%ebx
 1645              		.cfi_restore 3
 1646              		.cfi_def_cfa_offset 16
 1647 005c 5E       		popl	%esi
 1648              		.cfi_restore 6
 1649              		.cfi_def_cfa_offset 12
 1650 005d 5F       		popl	%edi
 1651              		.cfi_restore 7
 1652              		.cfi_def_cfa_offset 8
 1653 005e 5D       		popl	%ebp
 1654              		.cfi_restore 5
 1655              		.cfi_def_cfa_offset 4
 1656 005f C3       		ret
 1657              		.p2align 4,,10
 1658              		.p2align 3
 1659              	.L34:
 1660              		.cfi_restore_state
 1661              		.loc 1 632 37 is_stmt 1 discriminator 2 view .LVU353
 1662              		.loc 1 634 3 discriminator 2 view .LVU354
GAS LISTING /tmp/ccVaQ2UV.s 			page 34


 1663              		.loc 1 634 19 discriminator 2 view .LVU355
 1664              		.loc 1 638 3 discriminator 2 view .LVU356
 1665              		.loc 1 640 9 is_stmt 0 discriminator 2 view .LVU357
 1666 0060 83EC0C   		subl	$12, %esp
 1667              		.cfi_def_cfa_offset 76
 1668              		.loc 1 638 3 discriminator 2 view .LVU358
 1669 0063 C7450003 		movl	$3, 0(%ebp)
 1669      000000
 1670              		.loc 1 640 5 is_stmt 1 discriminator 2 view .LVU359
 1671              		.loc 1 640 9 is_stmt 0 discriminator 2 view .LVU360
 1672 006a 56       		pushl	%esi
 1673              		.cfi_def_cfa_offset 80
 1674 006b E8FCFFFF 		call	chMtxTryLock@PLT
 1674      FF
 1675              	.LVL78:
 1676              		.loc 1 641 5 is_stmt 1 discriminator 2 view .LVU361
 1677 0070 59       		popl	%ecx
 1678              		.cfi_def_cfa_offset 76
 1679 0071 8D8B0000 		leal	.LC10@GOTOFF(%ebx), %ecx
 1679      0000
 1680 0077 5A       		popl	%edx
 1681              		.cfi_def_cfa_offset 72
 1682 0078 83F001   		xorl	$1, %eax
 1683              	.LVL79:
 1684              		.loc 1 641 5 is_stmt 0 discriminator 2 view .LVU362
 1685 007b 894C2418 		movl	%ecx, 24(%esp)
 1686 007f 0FB6C0   		movzbl	%al, %eax
 1687 0082 51       		pushl	%ecx
 1688              		.cfi_def_cfa_offset 76
 1689 0083 50       		pushl	%eax
 1690              		.cfi_def_cfa_offset 80
 1691 0084 E8FCFFFF 		call	__test_assert@PLT
 1691      FF
 1692              	.LVL80:
 1693 0089 83C410   		addl	$16, %esp
 1694              		.cfi_def_cfa_offset 64
 1695 008c 84C0     		testb	%al, %al
 1696 008e 75C8     		jne	.L29
 1697              		.loc 1 641 34 is_stmt 1 discriminator 2 view .LVU363
 1698              		.loc 1 643 3 discriminator 2 view .LVU364
 1699              		.loc 1 643 19 discriminator 2 view .LVU365
 1700              		.loc 1 647 3 discriminator 2 view .LVU366
 1701              		.loc 1 649 5 is_stmt 0 discriminator 2 view .LVU367
 1702 0090 83EC0C   		subl	$12, %esp
 1703              		.cfi_def_cfa_offset 76
 1704              		.loc 1 647 3 discriminator 2 view .LVU368
 1705 0093 C7450004 		movl	$4, 0(%ebp)
 1705      000000
 1706              		.loc 1 649 5 is_stmt 1 discriminator 2 view .LVU369
 1707 009a 56       		pushl	%esi
 1708              		.cfi_def_cfa_offset 80
 1709 009b E8FCFFFF 		call	chMtxUnlock@PLT
 1709      FF
 1710              	.LVL81:
 1711              		.loc 1 650 5 discriminator 2 view .LVU370
 1712 00a0 8B930800 		movl	8+m1@GOTOFF(%ebx), %edx
 1712      0000
GAS LISTING /tmp/ccVaQ2UV.s 			page 35


 1713 00a6 59       		popl	%ecx
 1714              		.cfi_def_cfa_offset 76
 1715 00a7 8D8B0000 		leal	.LC11@GOTOFF(%ebx), %ecx
 1715      0000
 1716 00ad 58       		popl	%eax
 1717              		.cfi_def_cfa_offset 72
 1718 00ae 31C0     		xorl	%eax, %eax
 1719 00b0 85D2     		testl	%edx, %edx
 1720 00b2 894C241C 		movl	%ecx, 28(%esp)
 1721 00b6 0F94C0   		sete	%al
 1722 00b9 51       		pushl	%ecx
 1723              		.cfi_def_cfa_offset 76
 1724 00ba 50       		pushl	%eax
 1725              		.cfi_def_cfa_offset 80
 1726 00bb E8FCFFFF 		call	__test_assert@PLT
 1726      FF
 1727              	.LVL82:
 1728 00c0 83C410   		addl	$16, %esp
 1729              		.cfi_def_cfa_offset 64
 1730 00c3 84C0     		testb	%al, %al
 1731 00c5 7591     		jne	.L29
 1732              		.loc 1 650 49 view .LVU371
 1733              		.loc 1 651 5 view .LVU372
 1734              	.LVL83:
 1735              	.LBB176:
 1736              	.LBI176:
 1737              		.file 5 "../../../os/rt/include/chlists.h"
 1738              		.loc 5 296 20 view .LVU373
 1739              	.LBB177:
 1740              		.loc 5 298 3 view .LVU374
 1741              		.loc 5 298 3 is_stmt 0 view .LVU375
 1742              	.LBE177:
 1743              	.LBE176:
 1744              		.loc 1 651 5 view .LVU376
 1745 00c7 83EC08   		subl	$8, %esp
 1746              		.cfi_def_cfa_offset 72
 1747 00ca 8D830000 		leal	.LC12@GOTOFF(%ebx), %eax
 1747      0000
 1748 00d0 89442420 		movl	%eax, 32(%esp)
 1749 00d4 50       		pushl	%eax
 1750              		.cfi_def_cfa_offset 76
 1751              	.LBB179:
 1752              	.LBB178:
 1753              		.loc 5 298 10 view .LVU377
 1754 00d5 31C0     		xorl	%eax, %eax
 1755 00d7 39B30000 		cmpl	%esi, m1@GOTOFF(%ebx)
 1755      0000
 1756 00dd 0F94C0   		sete	%al
 1757              	.LBE178:
 1758              	.LBE179:
 1759              		.loc 1 651 5 view .LVU378
 1760 00e0 50       		pushl	%eax
 1761              		.cfi_def_cfa_offset 80
 1762 00e1 E8FCFFFF 		call	__test_assert@PLT
 1762      FF
 1763              	.LVL84:
 1764 00e6 83C410   		addl	$16, %esp
GAS LISTING /tmp/ccVaQ2UV.s 			page 36


 1765              		.cfi_def_cfa_offset 64
 1766 00e9 84C0     		testb	%al, %al
 1767 00eb 0F8567FF 		jne	.L29
 1767      FFFF
 1768              		.loc 1 651 64 is_stmt 1 discriminator 2 view .LVU379
 1769              		.loc 1 653 3 discriminator 2 view .LVU380
 1770              		.loc 1 653 19 discriminator 2 view .LVU381
 1771              		.loc 1 656 3 discriminator 2 view .LVU382
 1772              	.LBB180:
 1773              	.LBB181:
 1774              		.loc 2 542 37 is_stmt 0 discriminator 2 view .LVU383
 1775 00f1 8B470C   		movl	12(%edi), %eax
 1776              	.LBE181:
 1777              	.LBE180:
 1778              		.loc 1 658 5 discriminator 2 view .LVU384
 1779 00f4 83EC08   		subl	$8, %esp
 1780              		.cfi_def_cfa_offset 72
 1781 00f7 8D8B0000 		leal	.LC8@GOTOFF(%ebx), %ecx
 1781      0000
 1782              		.loc 1 656 3 discriminator 2 view .LVU385
 1783 00fd C7450005 		movl	$5, 0(%ebp)
 1783      000000
 1784              		.loc 1 658 5 is_stmt 1 discriminator 2 view .LVU386
 1785              	.LBB185:
 1786              	.LBI180:
 1787              		.loc 2 540 23 discriminator 2 view .LVU387
 1788              	.LBB184:
 1789              		.loc 2 542 3 discriminator 2 view .LVU388
 1790              	.LBB182:
 1791              	.LBI182:
 1792              		.loc 2 527 25 discriminator 2 view .LVU389
 1793              	.LBB183:
 1794              		.loc 2 529 3 discriminator 2 view .LVU390
 1795              	.LBE183:
 1796              	.LBE182:
 1797              	.LBE184:
 1798              	.LBE185:
 1799              		.loc 1 658 5 is_stmt 0 discriminator 2 view .LVU391
 1800 0104 894C2424 		movl	%ecx, 36(%esp)
 1801 0108 51       		pushl	%ecx
 1802              		.cfi_def_cfa_offset 76
 1803 0109 8B4C2418 		movl	24(%esp), %ecx
 1804 010d 394808   		cmpl	%ecx, 8(%eax)
 1805 0110 0F94C0   		sete	%al
 1806 0113 0FB6C0   		movzbl	%al, %eax
 1807 0116 50       		pushl	%eax
 1808              		.cfi_def_cfa_offset 80
 1809 0117 E8FCFFFF 		call	__test_assert@PLT
 1809      FF
 1810              	.LVL85:
 1811 011c 83C410   		addl	$16, %esp
 1812              		.cfi_def_cfa_offset 64
 1813 011f 84C0     		testb	%al, %al
 1814 0121 0F8531FF 		jne	.L29
 1814      FFFF
 1815              		.loc 1 658 69 is_stmt 1 discriminator 2 view .LVU392
 1816              		.loc 1 660 3 discriminator 2 view .LVU393
GAS LISTING /tmp/ccVaQ2UV.s 			page 37


 1817              		.loc 1 660 19 discriminator 2 view .LVU394
 1818              		.loc 1 663 3 discriminator 2 view .LVU395
 1819              		.loc 1 665 9 is_stmt 0 discriminator 2 view .LVU396
 1820 0127 83EC0C   		subl	$12, %esp
 1821              		.cfi_def_cfa_offset 76
 1822              		.loc 1 663 3 discriminator 2 view .LVU397
 1823 012a C7450006 		movl	$6, 0(%ebp)
 1823      000000
 1824              		.loc 1 665 5 is_stmt 1 discriminator 2 view .LVU398
 1825              		.loc 1 665 9 is_stmt 0 discriminator 2 view .LVU399
 1826 0131 56       		pushl	%esi
 1827              		.cfi_def_cfa_offset 80
 1828 0132 E8FCFFFF 		call	chMtxTryLock@PLT
 1828      FF
 1829              	.LVL86:
 1830              		.loc 1 666 5 is_stmt 1 discriminator 2 view .LVU400
 1831 0137 59       		popl	%ecx
 1832              		.cfi_def_cfa_offset 76
 1833 0138 5A       		popl	%edx
 1834              		.cfi_def_cfa_offset 72
 1835 0139 FF742410 		pushl	16(%esp)
 1836              		.cfi_def_cfa_offset 76
 1837 013d 0FB6C0   		movzbl	%al, %eax
 1838              		.loc 1 666 5 is_stmt 0 discriminator 2 view .LVU401
 1839 0140 50       		pushl	%eax
 1840              		.cfi_def_cfa_offset 80
 1841 0141 E8FCFFFF 		call	__test_assert@PLT
 1841      FF
 1842              	.LVL87:
 1843              		.loc 1 666 5 discriminator 2 view .LVU402
 1844 0146 83C410   		addl	$16, %esp
 1845              		.cfi_def_cfa_offset 64
 1846 0149 84C0     		testb	%al, %al
 1847 014b 0F8507FF 		jne	.L29
 1847      FFFF
 1848              		.loc 1 666 37 is_stmt 1 discriminator 2 view .LVU403
 1849              		.loc 1 667 5 discriminator 2 view .LVU404
 1850              		.loc 1 667 9 is_stmt 0 discriminator 2 view .LVU405
 1851 0151 83EC0C   		subl	$12, %esp
 1852              		.cfi_def_cfa_offset 76
 1853 0154 56       		pushl	%esi
 1854              		.cfi_def_cfa_offset 80
 1855 0155 E8FCFFFF 		call	chMtxTryLock@PLT
 1855      FF
 1856              	.LVL88:
 1857              		.loc 1 668 5 is_stmt 1 discriminator 2 view .LVU406
 1858 015a 59       		popl	%ecx
 1859              		.cfi_def_cfa_offset 76
 1860 015b 5A       		popl	%edx
 1861              		.cfi_def_cfa_offset 72
 1862 015c FF742418 		pushl	24(%esp)
 1863              		.cfi_def_cfa_offset 76
 1864 0160 83F001   		xorl	$1, %eax
 1865              	.LVL89:
 1866              		.loc 1 668 5 is_stmt 0 discriminator 2 view .LVU407
 1867 0163 0FB6C0   		movzbl	%al, %eax
 1868 0166 50       		pushl	%eax
GAS LISTING /tmp/ccVaQ2UV.s 			page 38


 1869              		.cfi_def_cfa_offset 80
 1870 0167 E8FCFFFF 		call	__test_assert@PLT
 1870      FF
 1871              	.LVL90:
 1872 016c 83C410   		addl	$16, %esp
 1873              		.cfi_def_cfa_offset 64
 1874 016f 84C0     		testb	%al, %al
 1875 0171 0F85E1FE 		jne	.L29
 1875      FFFF
 1876              		.loc 1 668 34 is_stmt 1 discriminator 2 view .LVU408
 1877              		.loc 1 670 5 discriminator 2 view .LVU409
 1878 0177 E8FCFFFF 		call	chMtxUnlockAll@PLT
 1878      FF
 1879              	.LVL91:
 1880              		.loc 1 671 5 discriminator 2 view .LVU410
 1881 017c 8B930800 		movl	8+m1@GOTOFF(%ebx), %edx
 1881      0000
 1882 0182 83EC08   		subl	$8, %esp
 1883              		.cfi_def_cfa_offset 72
 1884 0185 31C0     		xorl	%eax, %eax
 1885 0187 FF74241C 		pushl	28(%esp)
 1886              		.cfi_def_cfa_offset 76
 1887 018b 85D2     		testl	%edx, %edx
 1888 018d 0F94C0   		sete	%al
 1889 0190 50       		pushl	%eax
 1890              		.cfi_def_cfa_offset 80
 1891 0191 E8FCFFFF 		call	__test_assert@PLT
 1891      FF
 1892              	.LVL92:
 1893 0196 83C410   		addl	$16, %esp
 1894              		.cfi_def_cfa_offset 64
 1895 0199 84C0     		testb	%al, %al
 1896 019b 0F85B7FE 		jne	.L29
 1896      FFFF
 1897              		.loc 1 671 49 view .LVU411
 1898              		.loc 1 672 5 view .LVU412
 1899              	.LVL93:
 1900              	.LBB186:
 1901              	.LBI186:
 1902              		.loc 5 296 20 view .LVU413
 1903              	.LBB187:
 1904              		.loc 5 298 3 view .LVU414
 1905              		.loc 5 298 3 is_stmt 0 view .LVU415
 1906              	.LBE187:
 1907              	.LBE186:
 1908              		.loc 1 672 5 view .LVU416
 1909 01a1 83EC08   		subl	$8, %esp
 1910              		.cfi_def_cfa_offset 72
 1911              	.LBB189:
 1912              	.LBB188:
 1913              		.loc 5 298 10 view .LVU417
 1914 01a4 31C0     		xorl	%eax, %eax
 1915 01a6 39B30000 		cmpl	%esi, m1@GOTOFF(%ebx)
 1915      0000
 1916 01ac 0F94C0   		sete	%al
 1917              	.LBE188:
 1918              	.LBE189:
GAS LISTING /tmp/ccVaQ2UV.s 			page 39


 1919              		.loc 1 672 5 view .LVU418
 1920 01af FF742420 		pushl	32(%esp)
 1921              		.cfi_def_cfa_offset 76
 1922 01b3 50       		pushl	%eax
 1923              		.cfi_def_cfa_offset 80
 1924 01b4 E8FCFFFF 		call	__test_assert@PLT
 1924      FF
 1925              	.LVL94:
 1926 01b9 83C410   		addl	$16, %esp
 1927              		.cfi_def_cfa_offset 64
 1928 01bc 84C0     		testb	%al, %al
 1929 01be 0F8594FE 		jne	.L29
 1929      FFFF
 1930              		.loc 1 672 64 is_stmt 1 discriminator 2 view .LVU419
 1931              		.loc 1 674 3 discriminator 2 view .LVU420
 1932              		.loc 1 674 19 discriminator 2 view .LVU421
 1933              		.loc 1 677 3 discriminator 2 view .LVU422
 1934              	.LBB190:
 1935              	.LBB191:
 1936              		.loc 2 542 37 is_stmt 0 discriminator 2 view .LVU423
 1937 01c4 8B470C   		movl	12(%edi), %eax
 1938              	.LBE191:
 1939              	.LBE190:
 1940              		.loc 1 679 5 discriminator 2 view .LVU424
 1941 01c7 83EC08   		subl	$8, %esp
 1942              		.cfi_def_cfa_offset 72
 1943              		.loc 1 677 3 discriminator 2 view .LVU425
 1944 01ca C7450007 		movl	$7, 0(%ebp)
 1944      000000
 1945              		.loc 1 679 5 is_stmt 1 discriminator 2 view .LVU426
 1946              	.LBB195:
 1947              	.LBI190:
 1948              		.loc 2 540 23 discriminator 2 view .LVU427
 1949              	.LBB194:
 1950              		.loc 2 542 3 discriminator 2 view .LVU428
 1951              	.LBB192:
 1952              	.LBI192:
 1953              		.loc 2 527 25 discriminator 2 view .LVU429
 1954              	.LBB193:
 1955              		.loc 2 529 3 discriminator 2 view .LVU430
 1956              	.LBE193:
 1957              	.LBE192:
 1958              	.LBE194:
 1959              	.LBE195:
 1960              		.loc 1 679 5 is_stmt 0 discriminator 2 view .LVU431
 1961 01d1 FF742424 		pushl	36(%esp)
 1962              		.cfi_def_cfa_offset 76
 1963 01d5 8B4C2418 		movl	24(%esp), %ecx
 1964 01d9 394808   		cmpl	%ecx, 8(%eax)
 1965 01dc 0F94C0   		sete	%al
 1966 01df 0FB6C0   		movzbl	%al, %eax
 1967 01e2 50       		pushl	%eax
 1968              		.cfi_def_cfa_offset 80
 1969 01e3 E8FCFFFF 		call	__test_assert@PLT
 1969      FF
 1970              	.LVL95:
 1971 01e8 83C410   		addl	$16, %esp
GAS LISTING /tmp/ccVaQ2UV.s 			page 40


 1972              		.cfi_def_cfa_offset 64
 1973              		.loc 1 679 69 is_stmt 1 discriminator 2 view .LVU432
 1974              		.loc 1 681 3 discriminator 2 view .LVU433
 1975              		.loc 1 681 19 discriminator 2 view .LVU434
 1976 01eb E968FEFF 		jmp	.L29
 1976      FF
 1977              		.cfi_endproc
 1978              	.LFE315:
 1979              		.size	rt_test_008_005_execute, .-rt_test_008_005_execute
 1980              		.section	.text.rt_test_008_004_execute,"ax",@progbits
 1981              		.p2align 4
 1982              		.type	rt_test_008_004_execute, @function
 1983              	rt_test_008_004_execute:
 1984              	.LFB313:
 1985              		.loc 1 499 43 view -0
 1986              		.cfi_startproc
 1987              		.loc 1 500 3 view .LVU436
 1988              		.loc 1 504 3 view .LVU437
 1989              		.loc 1 506 5 view .LVU438
 1990              	.LBB196:
 1991              	.LBI196:
 1992              		.loc 2 540 23 view .LVU439
 1993              	.LBB197:
 1994              		.loc 2 542 3 view .LVU440
 1995              	.LBB198:
 1996              	.LBI198:
 1997              		.loc 2 527 25 view .LVU441
 1998              	.LBB199:
 1999              		.loc 2 529 3 view .LVU442
 2000              	.LBE199:
 2001              	.LBE198:
 2002              	.LBE197:
 2003              	.LBE196:
 2004              		.loc 1 499 43 is_stmt 0 view .LVU443
 2005 0000 55       		pushl	%ebp
 2006              		.cfi_def_cfa_offset 8
 2007              		.cfi_offset 5, -8
 2008 0001 57       		pushl	%edi
 2009              		.cfi_def_cfa_offset 12
 2010              		.cfi_offset 7, -12
 2011 0002 56       		pushl	%esi
 2012              		.cfi_def_cfa_offset 16
 2013              		.cfi_offset 6, -16
 2014 0003 53       		pushl	%ebx
 2015              		.cfi_def_cfa_offset 20
 2016              		.cfi_offset 3, -20
 2017 0004 E8FCFFFF 		call	__x86.get_pc_thunk.bx
 2017      FF
 2018 0009 81C30200 		addl	$_GLOBAL_OFFSET_TABLE_, %ebx
 2018      0000
 2019 000f 83EC38   		subl	$56, %esp
 2020              		.cfi_def_cfa_offset 76
 2021              	.LBB205:
 2022              	.LBB202:
 2023              	.LBB201:
 2024              	.LBB200:
 2025              		.loc 2 529 10 view .LVU444
GAS LISTING /tmp/ccVaQ2UV.s 			page 41


 2026 0012 8BBB0000 		movl	ch0@GOT(%ebx), %edi
 2026      0000
 2027              	.LBE200:
 2028              	.LBE201:
 2029              	.LBE202:
 2030              	.LBE205:
 2031              		.loc 1 515 38 view .LVU445
 2032 0018 8B8B0000 		movl	wa@GOT(%ebx), %ecx
 2032      0000
 2033              		.loc 1 513 3 view .LVU446
 2034 001e 8BAB0000 		movl	chtest@GOT(%ebx), %ebp
 2034      0000
 2035              	.LBB206:
 2036              	.LBB203:
 2037              		.loc 2 542 37 view .LVU447
 2038 0024 8B470C   		movl	12(%edi), %eax
 2039              	.LBE203:
 2040              	.LBE206:
 2041              		.loc 1 513 3 view .LVU448
 2042 0027 C7450002 		movl	$2, 0(%ebp)
 2042      000000
 2043              	.LBB207:
 2044              	.LBB204:
 2045              		.loc 2 542 37 view .LVU449
 2046 002e 8B7008   		movl	8(%eax), %esi
 2047              	.LVL96:
 2048              		.loc 2 542 37 view .LVU450
 2049              	.LBE204:
 2050              	.LBE207:
 2051              		.loc 1 507 5 is_stmt 1 view .LVU451
 2052              		.loc 1 508 8 is_stmt 0 view .LVU452
 2053 0031 8D4602   		leal	2(%esi), %eax
 2054              		.loc 1 507 8 view .LVU453
 2055 0034 8D5601   		leal	1(%esi), %edx
 2056              	.LVL97:
 2057              		.loc 1 508 5 is_stmt 1 view .LVU454
 2058              		.loc 1 510 3 view .LVU455
 2059              		.loc 1 510 19 view .LVU456
 2060              		.loc 1 513 3 view .LVU457
 2061              		.loc 1 515 5 view .LVU458
 2062              		.loc 1 508 8 is_stmt 0 view .LVU459
 2063 0037 89442420 		movl	%eax, 32(%esp)
 2064              	.LVL98:
 2065              		.loc 1 515 18 view .LVU460
 2066 003b 8D830000 		leal	.LC0@GOTOFF(%ebx), %eax
 2066      0000
 2067 0041 50       		pushl	%eax
 2068              		.cfi_def_cfa_offset 80
 2069 0042 8D830000 		leal	thread4A@GOTOFF(%ebx), %eax
 2069      0000
 2070 0048 50       		pushl	%eax
 2071              		.cfi_def_cfa_offset 84
 2072 0049 89542424 		movl	%edx, 36(%esp)
 2073 004d 52       		pushl	%edx
 2074              		.cfi_def_cfa_offset 88
 2075 004e 68404100 		pushl	$16704
 2075      00
GAS LISTING /tmp/ccVaQ2UV.s 			page 42


 2076              		.cfi_def_cfa_offset 92
 2077 0053 FF31     		pushl	(%ecx)
 2078              		.cfi_def_cfa_offset 96
 2079 0055 894C2438 		movl	%ecx, 56(%esp)
 2080 0059 E8FCFFFF 		call	chThdCreateStatic@PLT
 2080      FF
 2081              	.LVL99:
 2082              		.loc 1 515 16 view .LVU461
 2083 005e 8B930000 		movl	threads@GOT(%ebx), %edx
 2083      0000
 2084 0064 8902     		movl	%eax, (%edx)
 2085              		.loc 1 516 18 view .LVU462
 2086 0066 8D830000 		leal	.LC2@GOTOFF(%ebx), %eax
 2086      0000
 2087              		.loc 1 515 16 view .LVU463
 2088 006c 8954242C 		movl	%edx, 44(%esp)
 2089              		.loc 1 516 5 is_stmt 1 view .LVU464
 2090              		.loc 1 516 18 is_stmt 0 view .LVU465
 2091 0070 83C414   		addl	$20, %esp
 2092              		.cfi_def_cfa_offset 76
 2093 0073 50       		pushl	%eax
 2094              		.cfi_def_cfa_offset 80
 2095 0074 8D830000 		leal	thread4B@GOTOFF(%ebx), %eax
 2095      0000
 2096 007a 50       		pushl	%eax
 2097              		.cfi_def_cfa_offset 84
 2098 007b FF742428 		pushl	40(%esp)
 2099              		.cfi_def_cfa_offset 88
 2100 007f 68404100 		pushl	$16704
 2100      00
 2101              		.cfi_def_cfa_offset 92
 2102 0084 8B4C2434 		movl	52(%esp), %ecx
 2103 0088 FF7104   		pushl	4(%ecx)
 2104              		.cfi_def_cfa_offset 96
 2105 008b E8FCFFFF 		call	chThdCreateStatic@PLT
 2105      FF
 2106              	.LVL100:
 2107              		.loc 1 516 16 view .LVU466
 2108 0090 8B54242C 		movl	44(%esp), %edx
 2109              		.loc 1 525 5 view .LVU467
 2110 0094 83C414   		addl	$20, %esp
 2111              		.cfi_def_cfa_offset 76
 2112 0097 8D8B0000 		leal	m1@GOTOFF(%ebx), %ecx
 2112      0000
 2113              		.loc 1 523 3 view .LVU468
 2114 009d C7450003 		movl	$3, 0(%ebp)
 2114      000000
 2115              		.loc 1 525 5 view .LVU469
 2116 00a4 894C2424 		movl	%ecx, 36(%esp)
 2117              		.loc 1 516 16 view .LVU470
 2118 00a8 894204   		movl	%eax, 4(%edx)
 2119              		.loc 1 518 3 is_stmt 1 view .LVU471
 2120              		.loc 1 518 19 view .LVU472
 2121              		.loc 1 523 3 view .LVU473
 2122              		.loc 1 525 5 view .LVU474
 2123 00ab 51       		pushl	%ecx
 2124              		.cfi_def_cfa_offset 80
GAS LISTING /tmp/ccVaQ2UV.s 			page 43


 2125 00ac E8FCFFFF 		call	chMtxLock@PLT
 2125      FF
 2126              	.LVL101:
 2127              		.loc 1 526 5 view .LVU475
 2128              	.LBB208:
 2129              	.LBI208:
 2130              		.loc 2 540 23 view .LVU476
 2131              	.LBB209:
 2132              		.loc 2 542 3 view .LVU477
 2133              	.LBB210:
 2134              	.LBI210:
 2135              		.loc 2 527 25 view .LVU478
 2136              	.LBB211:
 2137              		.loc 2 529 3 view .LVU479
 2138              	.LBE211:
 2139              	.LBE210:
 2140              	.LBE209:
 2141              	.LBE208:
 2142              		.loc 1 526 5 is_stmt 0 view .LVU480
 2143 00b1 59       		popl	%ecx
 2144              		.cfi_def_cfa_offset 76
 2145 00b2 58       		popl	%eax
 2146              		.cfi_def_cfa_offset 72
 2147 00b3 8D830000 		leal	.LC8@GOTOFF(%ebx), %eax
 2147      0000
 2148 00b9 89442414 		movl	%eax, 20(%esp)
 2149 00bd 50       		pushl	%eax
 2150              		.cfi_def_cfa_offset 76
 2151              	.LBB213:
 2152              	.LBB212:
 2153              		.loc 2 542 37 view .LVU481
 2154 00be 8B470C   		movl	12(%edi), %eax
 2155              	.LBE212:
 2156              	.LBE213:
 2157              		.loc 1 526 5 view .LVU482
 2158 00c1 397008   		cmpl	%esi, 8(%eax)
 2159 00c4 0F94C0   		sete	%al
 2160 00c7 0FB6C0   		movzbl	%al, %eax
 2161 00ca 50       		pushl	%eax
 2162              		.cfi_def_cfa_offset 80
 2163 00cb E8FCFFFF 		call	__test_assert@PLT
 2163      FF
 2164              	.LVL102:
 2165 00d0 83C410   		addl	$16, %esp
 2166              		.cfi_def_cfa_offset 64
 2167 00d3 84C0     		testb	%al, %al
 2168 00d5 7409     		je	.L40
 2169              	.L35:
 2170              		.loc 1 575 1 view .LVU483
 2171 00d7 83C42C   		addl	$44, %esp
 2172              		.cfi_remember_state
 2173              		.cfi_def_cfa_offset 20
 2174 00da 5B       		popl	%ebx
 2175              		.cfi_restore 3
 2176              		.cfi_def_cfa_offset 16
 2177 00db 5E       		popl	%esi
 2178              		.cfi_restore 6
GAS LISTING /tmp/ccVaQ2UV.s 			page 44


 2179              		.cfi_def_cfa_offset 12
 2180              	.LVL103:
 2181              		.loc 1 575 1 view .LVU484
 2182 00dc 5F       		popl	%edi
 2183              		.cfi_restore 7
 2184              		.cfi_def_cfa_offset 8
 2185 00dd 5D       		popl	%ebp
 2186              		.cfi_restore 5
 2187              		.cfi_def_cfa_offset 4
 2188 00de C3       		ret
 2189              	.LVL104:
 2190 00df 90       		.p2align 4,,10
 2191              		.p2align 3
 2192              	.L40:
 2193              		.cfi_restore_state
 2194              		.loc 1 526 66 is_stmt 1 discriminator 2 view .LVU485
 2195              		.loc 1 528 3 discriminator 2 view .LVU486
 2196              		.loc 1 528 19 discriminator 2 view .LVU487
 2197              		.loc 1 533 3 discriminator 2 view .LVU488
 2198              		.loc 1 535 5 is_stmt 0 discriminator 2 view .LVU489
 2199 00e0 83EC0C   		subl	$12, %esp
 2200              		.cfi_def_cfa_offset 76
 2201              		.loc 1 533 3 discriminator 2 view .LVU490
 2202 00e3 C7450004 		movl	$4, 0(%ebp)
 2202      000000
 2203              		.loc 1 535 5 is_stmt 1 discriminator 2 view .LVU491
 2204 00ea 6A64     		pushl	$100
 2205              		.cfi_def_cfa_offset 80
 2206 00ec E8FCFFFF 		call	chThdSleep@PLT
 2206      FF
 2207              	.LVL105:
 2208              		.loc 1 536 5 discriminator 2 view .LVU492
 2209              	.LBB214:
 2210              	.LBI214:
 2211              		.loc 2 540 23 discriminator 2 view .LVU493
 2212              	.LBB215:
 2213              		.loc 2 542 3 discriminator 2 view .LVU494
 2214              	.LBB216:
 2215              	.LBI216:
 2216              		.loc 2 527 25 discriminator 2 view .LVU495
 2217              	.LBB217:
 2218              		.loc 2 529 3 discriminator 2 view .LVU496
 2219              	.LBE217:
 2220              	.LBE216:
 2221              	.LBE215:
 2222              	.LBE214:
 2223              		.loc 1 536 5 is_stmt 0 discriminator 2 view .LVU497
 2224 00f1 58       		popl	%eax
 2225              		.cfi_def_cfa_offset 76
 2226              	.LBB219:
 2227              	.LBB218:
 2228              		.loc 2 542 37 discriminator 2 view .LVU498
 2229 00f2 8B470C   		movl	12(%edi), %eax
 2230              	.LBE218:
 2231              	.LBE219:
 2232              		.loc 1 536 5 discriminator 2 view .LVU499
 2233 00f5 5A       		popl	%edx
GAS LISTING /tmp/ccVaQ2UV.s 			page 45


 2234              		.cfi_def_cfa_offset 72
 2235 00f6 FF742414 		pushl	20(%esp)
 2236              		.cfi_def_cfa_offset 76
 2237 00fa 8B54241C 		movl	28(%esp), %edx
 2238 00fe 395008   		cmpl	%edx, 8(%eax)
 2239 0101 0F94C0   		sete	%al
 2240 0104 0FB6C0   		movzbl	%al, %eax
 2241 0107 50       		pushl	%eax
 2242              		.cfi_def_cfa_offset 80
 2243 0108 E8FCFFFF 		call	__test_assert@PLT
 2243      FF
 2244              	.LVL106:
 2245 010d 83C410   		addl	$16, %esp
 2246              		.cfi_def_cfa_offset 64
 2247 0110 84C0     		testb	%al, %al
 2248 0112 75C3     		jne	.L35
 2249              		.loc 1 536 67 is_stmt 1 discriminator 2 view .LVU500
 2250              		.loc 1 538 3 discriminator 2 view .LVU501
 2251              		.loc 1 538 19 discriminator 2 view .LVU502
 2252              		.loc 1 543 3 discriminator 2 view .LVU503
 2253              		.loc 1 545 5 is_stmt 0 discriminator 2 view .LVU504
 2254 0114 83EC0C   		subl	$12, %esp
 2255              		.cfi_def_cfa_offset 76
 2256 0117 8D830000 		leal	m2@GOTOFF(%ebx), %eax
 2256      0000
 2257              		.loc 1 543 3 discriminator 2 view .LVU505
 2258 011d C7450005 		movl	$5, 0(%ebp)
 2258      000000
 2259              		.loc 1 545 5 is_stmt 1 discriminator 2 view .LVU506
 2260 0124 89442428 		movl	%eax, 40(%esp)
 2261 0128 50       		pushl	%eax
 2262              		.cfi_def_cfa_offset 80
 2263 0129 E8FCFFFF 		call	chMtxLock@PLT
 2263      FF
 2264              	.LVL107:
 2265              		.loc 1 546 5 discriminator 2 view .LVU507
 2266              	.LBB220:
 2267              	.LBI220:
 2268              		.loc 2 540 23 discriminator 2 view .LVU508
 2269              	.LBB221:
 2270              		.loc 2 542 3 discriminator 2 view .LVU509
 2271              	.LBB222:
 2272              	.LBI222:
 2273              		.loc 2 527 25 discriminator 2 view .LVU510
 2274              	.LBB223:
 2275              		.loc 2 529 3 discriminator 2 view .LVU511
 2276              	.LBE223:
 2277              	.LBE222:
 2278              	.LBE221:
 2279              	.LBE220:
 2280              		.loc 1 546 5 is_stmt 0 discriminator 2 view .LVU512
 2281 012e 59       		popl	%ecx
 2282              		.cfi_def_cfa_offset 76
 2283 012f 58       		popl	%eax
 2284              		.cfi_def_cfa_offset 72
 2285 0130 FF742414 		pushl	20(%esp)
 2286              		.cfi_def_cfa_offset 76
GAS LISTING /tmp/ccVaQ2UV.s 			page 46


 2287              	.LBB225:
 2288              	.LBB224:
 2289              		.loc 2 542 37 discriminator 2 view .LVU513
 2290 0134 8B470C   		movl	12(%edi), %eax
 2291              	.LBE224:
 2292              	.LBE225:
 2293              		.loc 1 546 5 discriminator 2 view .LVU514
 2294 0137 8B54241C 		movl	28(%esp), %edx
 2295 013b 395008   		cmpl	%edx, 8(%eax)
 2296 013e 0F94C0   		sete	%al
 2297 0141 0FB6C0   		movzbl	%al, %eax
 2298 0144 50       		pushl	%eax
 2299              		.cfi_def_cfa_offset 80
 2300 0145 E8FCFFFF 		call	__test_assert@PLT
 2300      FF
 2301              	.LVL108:
 2302 014a 83C410   		addl	$16, %esp
 2303              		.cfi_def_cfa_offset 64
 2304 014d 84C0     		testb	%al, %al
 2305 014f 7586     		jne	.L35
 2306              		.loc 1 546 67 is_stmt 1 discriminator 2 view .LVU515
 2307              		.loc 1 548 3 discriminator 2 view .LVU516
 2308              		.loc 1 548 19 discriminator 2 view .LVU517
 2309              		.loc 1 553 3 discriminator 2 view .LVU518
 2310              		.loc 1 555 5 is_stmt 0 discriminator 2 view .LVU519
 2311 0151 83EC0C   		subl	$12, %esp
 2312              		.cfi_def_cfa_offset 76
 2313              		.loc 1 553 3 discriminator 2 view .LVU520
 2314 0154 C7450006 		movl	$6, 0(%ebp)
 2314      000000
 2315              		.loc 1 555 5 is_stmt 1 discriminator 2 view .LVU521
 2316 015b 6A64     		pushl	$100
 2317              		.cfi_def_cfa_offset 80
 2318 015d E8FCFFFF 		call	chThdSleep@PLT
 2318      FF
 2319              	.LVL109:
 2320              		.loc 1 556 5 discriminator 2 view .LVU522
 2321              	.LBB226:
 2322              	.LBI226:
 2323              		.loc 2 540 23 discriminator 2 view .LVU523
 2324              	.LBB227:
 2325              		.loc 2 542 3 discriminator 2 view .LVU524
 2326              	.LBB228:
 2327              	.LBI228:
 2328              		.loc 2 527 25 discriminator 2 view .LVU525
 2329              	.LBB229:
 2330              		.loc 2 529 3 discriminator 2 view .LVU526
 2331              	.LBE229:
 2332              	.LBE228:
 2333              	.LBE227:
 2334              	.LBE226:
 2335              		.loc 1 556 5 is_stmt 0 discriminator 2 view .LVU527
 2336 0162 58       		popl	%eax
 2337              		.cfi_def_cfa_offset 76
 2338              	.LBB231:
 2339              	.LBB230:
 2340              		.loc 2 542 37 discriminator 2 view .LVU528
GAS LISTING /tmp/ccVaQ2UV.s 			page 47


 2341 0163 8B470C   		movl	12(%edi), %eax
 2342              	.LBE230:
 2343              	.LBE231:
 2344              		.loc 1 556 5 discriminator 2 view .LVU529
 2345 0166 5A       		popl	%edx
 2346              		.cfi_def_cfa_offset 72
 2347 0167 FF742414 		pushl	20(%esp)
 2348              		.cfi_def_cfa_offset 76
 2349 016b 8B4C2420 		movl	32(%esp), %ecx
 2350 016f 394808   		cmpl	%ecx, 8(%eax)
 2351 0172 0F94C0   		sete	%al
 2352 0175 0FB6C0   		movzbl	%al, %eax
 2353 0178 50       		pushl	%eax
 2354              		.cfi_def_cfa_offset 80
 2355 0179 E8FCFFFF 		call	__test_assert@PLT
 2355      FF
 2356              	.LVL110:
 2357 017e 83C410   		addl	$16, %esp
 2358              		.cfi_def_cfa_offset 64
 2359 0181 84C0     		testb	%al, %al
 2360 0183 0F854EFF 		jne	.L35
 2360      FFFF
 2361              		.loc 1 556 67 is_stmt 1 discriminator 2 view .LVU530
 2362              		.loc 1 558 3 discriminator 2 view .LVU531
 2363              		.loc 1 558 19 discriminator 2 view .LVU532
 2364              		.loc 1 561 3 discriminator 2 view .LVU533
 2365              		.loc 1 563 5 is_stmt 0 discriminator 2 view .LVU534
 2366 0189 83EC0C   		subl	$12, %esp
 2367              		.cfi_def_cfa_offset 76
 2368              		.loc 1 561 3 discriminator 2 view .LVU535
 2369 018c C7450007 		movl	$7, 0(%ebp)
 2369      000000
 2370              		.loc 1 563 5 is_stmt 1 discriminator 2 view .LVU536
 2371 0193 FF742428 		pushl	40(%esp)
 2372              		.cfi_def_cfa_offset 80
 2373 0197 E8FCFFFF 		call	chMtxUnlock@PLT
 2373      FF
 2374              	.LVL111:
 2375              		.loc 1 564 5 discriminator 2 view .LVU537
 2376              	.LBB232:
 2377              	.LBI232:
 2378              		.loc 2 540 23 discriminator 2 view .LVU538
 2379              	.LBB233:
 2380              		.loc 2 542 3 discriminator 2 view .LVU539
 2381              	.LBB234:
 2382              	.LBI234:
 2383              		.loc 2 527 25 discriminator 2 view .LVU540
 2384              	.LBB235:
 2385              		.loc 2 529 3 discriminator 2 view .LVU541
 2386              	.LBE235:
 2387              	.LBE234:
 2388              	.LBE233:
 2389              	.LBE232:
 2390              		.loc 1 564 5 is_stmt 0 discriminator 2 view .LVU542
 2391 019c 59       		popl	%ecx
 2392              		.cfi_def_cfa_offset 76
 2393 019d 58       		popl	%eax
GAS LISTING /tmp/ccVaQ2UV.s 			page 48


 2394              		.cfi_def_cfa_offset 72
 2395 019e FF742414 		pushl	20(%esp)
 2396              		.cfi_def_cfa_offset 76
 2397              	.LBB237:
 2398              	.LBB236:
 2399              		.loc 2 542 37 discriminator 2 view .LVU543
 2400 01a2 8B470C   		movl	12(%edi), %eax
 2401              	.LBE236:
 2402              	.LBE237:
 2403              		.loc 1 564 5 discriminator 2 view .LVU544
 2404 01a5 8B54241C 		movl	28(%esp), %edx
 2405 01a9 395008   		cmpl	%edx, 8(%eax)
 2406 01ac 0F94C0   		sete	%al
 2407 01af 0FB6C0   		movzbl	%al, %eax
 2408 01b2 50       		pushl	%eax
 2409              		.cfi_def_cfa_offset 80
 2410 01b3 E8FCFFFF 		call	__test_assert@PLT
 2410      FF
 2411              	.LVL112:
 2412 01b8 83C410   		addl	$16, %esp
 2413              		.cfi_def_cfa_offset 64
 2414 01bb 84C0     		testb	%al, %al
 2415 01bd 0F8514FF 		jne	.L35
 2415      FFFF
 2416              		.loc 1 564 67 is_stmt 1 discriminator 2 view .LVU545
 2417              		.loc 1 566 3 discriminator 2 view .LVU546
 2418              		.loc 1 566 19 discriminator 2 view .LVU547
 2419              		.loc 1 569 3 discriminator 2 view .LVU548
 2420              		.loc 1 571 5 is_stmt 0 discriminator 2 view .LVU549
 2421 01c3 83EC0C   		subl	$12, %esp
 2422              		.cfi_def_cfa_offset 76
 2423              		.loc 1 569 3 discriminator 2 view .LVU550
 2424 01c6 C7450008 		movl	$8, 0(%ebp)
 2424      000000
 2425              		.loc 1 571 5 is_stmt 1 discriminator 2 view .LVU551
 2426 01cd FF742424 		pushl	36(%esp)
 2427              		.cfi_def_cfa_offset 80
 2428 01d1 E8FCFFFF 		call	chMtxUnlock@PLT
 2428      FF
 2429              	.LVL113:
 2430              		.loc 1 572 5 discriminator 2 view .LVU552
 2431              	.LBB238:
 2432              	.LBI238:
 2433              		.loc 2 540 23 discriminator 2 view .LVU553
 2434              	.LBB239:
 2435              		.loc 2 542 3 discriminator 2 view .LVU554
 2436              	.LBB240:
 2437              	.LBI240:
 2438              		.loc 2 527 25 discriminator 2 view .LVU555
 2439              	.LBB241:
 2440              		.loc 2 529 3 discriminator 2 view .LVU556
 2441              	.LBE241:
 2442              	.LBE240:
 2443              	.LBE239:
 2444              	.LBE238:
 2445              		.loc 1 572 5 is_stmt 0 discriminator 2 view .LVU557
 2446 01d6 58       		popl	%eax
GAS LISTING /tmp/ccVaQ2UV.s 			page 49


 2447              		.cfi_def_cfa_offset 76
 2448              	.LBB243:
 2449              	.LBB242:
 2450              		.loc 2 542 37 discriminator 2 view .LVU558
 2451 01d7 8B470C   		movl	12(%edi), %eax
 2452              	.LBE242:
 2453              	.LBE243:
 2454              		.loc 1 572 5 discriminator 2 view .LVU559
 2455 01da 5A       		popl	%edx
 2456              		.cfi_def_cfa_offset 72
 2457 01db FF742414 		pushl	20(%esp)
 2458              		.cfi_def_cfa_offset 76
 2459 01df 397008   		cmpl	%esi, 8(%eax)
 2460 01e2 0F94C0   		sete	%al
 2461 01e5 0FB6C0   		movzbl	%al, %eax
 2462 01e8 50       		pushl	%eax
 2463              		.cfi_def_cfa_offset 80
 2464 01e9 E8FCFFFF 		call	__test_assert@PLT
 2464      FF
 2465              	.LVL114:
 2466 01ee 83C410   		addl	$16, %esp
 2467              		.cfi_def_cfa_offset 64
 2468              		.loc 1 572 66 is_stmt 1 discriminator 2 view .LVU560
 2469              		.loc 1 574 3 discriminator 2 view .LVU561
 2470              		.loc 1 574 19 discriminator 2 view .LVU562
 2471 01f1 E9E1FEFF 		jmp	.L35
 2471      FF
 2472              		.cfi_endproc
 2473              	.LFE313:
 2474              		.size	rt_test_008_004_execute, .-rt_test_008_004_execute
 2475              		.section	.text.thread4A,"ax",@progbits
 2476              		.p2align 4
 2477              		.type	thread4A, @function
 2478              	thread4A:
 2479              	.LVL115:
 2480              	.LFB304:
 2481              		.loc 1 181 34 view -0
 2482              		.cfi_startproc
 2483              		.loc 1 183 3 view .LVU564
 2484              		.loc 1 184 3 view .LVU565
 2485              		.loc 1 181 34 is_stmt 0 view .LVU566
 2486 0000 56       		pushl	%esi
 2487              		.cfi_def_cfa_offset 8
 2488              		.cfi_offset 6, -8
 2489 0001 53       		pushl	%ebx
 2490              		.cfi_def_cfa_offset 12
 2491              		.cfi_offset 3, -12
 2492 0002 E8FCFFFF 		call	__x86.get_pc_thunk.bx
 2492      FF
 2493 0007 81C30200 		addl	$_GLOBAL_OFFSET_TABLE_, %ebx
 2493      0000
 2494 000d 83EC10   		subl	$16, %esp
 2495              		.cfi_def_cfa_offset 28
 2496              		.loc 1 184 3 view .LVU567
 2497 0010 6A32     		pushl	$50
 2498              		.cfi_def_cfa_offset 32
 2499 0012 E8FCFFFF 		call	chThdSleep@PLT
GAS LISTING /tmp/ccVaQ2UV.s 			page 50


 2499      FF
 2500              	.LVL116:
 2501              		.loc 1 185 3 is_stmt 1 view .LVU568
 2502 0017 8DB30000 		leal	m1@GOTOFF(%ebx), %esi
 2502      0000
 2503 001d 893424   		movl	%esi, (%esp)
 2504 0020 E8FCFFFF 		call	chMtxLock@PLT
 2504      FF
 2505              	.LVL117:
 2506              		.loc 1 186 3 view .LVU569
 2507 0025 893424   		movl	%esi, (%esp)
 2508 0028 E8FCFFFF 		call	chMtxUnlock@PLT
 2508      FF
 2509              	.LVL118:
 2510              		.loc 1 187 1 is_stmt 0 view .LVU570
 2511 002d 83C414   		addl	$20, %esp
 2512              		.cfi_def_cfa_offset 12
 2513 0030 5B       		popl	%ebx
 2514              		.cfi_restore 3
 2515              		.cfi_def_cfa_offset 8
 2516 0031 5E       		popl	%esi
 2517              		.cfi_restore 6
 2518              		.cfi_def_cfa_offset 4
 2519 0032 C3       		ret
 2520              		.cfi_endproc
 2521              	.LFE304:
 2522              		.size	thread4A, .-thread4A
 2523              		.section	.text.thread4B,"ax",@progbits
 2524              		.p2align 4
 2525              		.type	thread4B, @function
 2526              	thread4B:
 2527              	.LVL119:
 2528              	.LFB305:
 2529              		.loc 1 189 34 is_stmt 1 view -0
 2530              		.cfi_startproc
 2531              		.loc 1 191 3 view .LVU572
 2532              		.loc 1 192 3 view .LVU573
 2533              		.loc 1 189 34 is_stmt 0 view .LVU574
 2534 0000 57       		pushl	%edi
 2535              		.cfi_def_cfa_offset 8
 2536              		.cfi_offset 7, -8
 2537 0001 56       		pushl	%esi
 2538              		.cfi_def_cfa_offset 12
 2539              		.cfi_offset 6, -12
 2540 0002 53       		pushl	%ebx
 2541              		.cfi_def_cfa_offset 16
 2542              		.cfi_offset 3, -16
 2543 0003 E8FCFFFF 		call	__x86.get_pc_thunk.bx
 2543      FF
 2544 0008 81C30200 		addl	$_GLOBAL_OFFSET_TABLE_, %ebx
 2544      0000
 2545              		.loc 1 192 3 view .LVU575
 2546 000e 83EC0C   		subl	$12, %esp
 2547              		.cfi_def_cfa_offset 28
 2548 0011 68960000 		pushl	$150
 2548      00
 2549              		.cfi_def_cfa_offset 32
GAS LISTING /tmp/ccVaQ2UV.s 			page 51


 2550 0016 E8FCFFFF 		call	chThdSleep@PLT
 2550      FF
 2551              	.LVL120:
 2552              		.loc 1 193 3 is_stmt 1 view .LVU576
 2553              	.LBB244:
 2554              	.LBI244:
 2555              		.loc 4 407 20 view .LVU577
 2556              		.loc 4 409 3 view .LVU578
 2557              	.LBB245:
 2558              	.LBI245:
 2559              		.loc 3 361 20 view .LVU579
 2560              	.LBB246:
 2561              		.loc 3 363 3 view .LVU580
 2562              		.loc 3 363 16 is_stmt 0 view .LVU581
 2563 001b 8BB30000 		movl	port_irq_sts@GOT(%ebx), %esi
 2563      0000
 2564              	.LBE246:
 2565              	.LBE245:
 2566              	.LBE244:
 2567              		.loc 1 194 3 view .LVU582
 2568 0021 8DBB0000 		leal	m2@GOTOFF(%ebx), %edi
 2568      0000
 2569 0027 893C24   		movl	%edi, (%esp)
 2570              	.LBB249:
 2571              	.LBB248:
 2572              	.LBB247:
 2573              		.loc 3 363 16 view .LVU583
 2574 002a C7060100 		movl	$1, (%esi)
 2574      0000
 2575              	.LBE247:
 2576              	.LBE248:
 2577              		.loc 4 410 35 is_stmt 1 view .LVU584
 2578              		.loc 4 411 21 view .LVU585
 2579              	.LBE249:
 2580              		.loc 1 194 3 view .LVU586
 2581 0030 E8FCFFFF 		call	chMtxLockS@PLT
 2581      FF
 2582              	.LVL121:
 2583              		.loc 1 195 3 view .LVU587
 2584 0035 893C24   		movl	%edi, (%esp)
 2585 0038 E8FCFFFF 		call	chMtxUnlockS@PLT
 2585      FF
 2586              	.LVL122:
 2587              		.loc 1 196 3 view .LVU588
 2588 003d E8FCFFFF 		call	chSchRescheduleS@PLT
 2588      FF
 2589              	.LVL123:
 2590              		.loc 1 197 3 view .LVU589
 2591              	.LBB250:
 2592              	.LBI250:
 2593              		.loc 4 421 20 view .LVU590
 2594              	.LBB251:
 2595              		.loc 4 423 23 view .LVU591
 2596              		.loc 4 424 34 view .LVU592
 2597              		.loc 4 430 3 view .LVU593
 2598              		.loc 4 430 3 view .LVU594
 2599              		.loc 4 430 3 view .LVU595
GAS LISTING /tmp/ccVaQ2UV.s 			page 52


 2600              		.loc 4 434 3 view .LVU596
 2601              	.LBB252:
 2602              	.LBI252:
 2603              		.loc 3 370 20 view .LVU597
 2604              	.LBB253:
 2605              		.loc 3 372 3 view .LVU598
 2606              	.LBE253:
 2607              	.LBE252:
 2608              	.LBE251:
 2609              	.LBE250:
 2610              		.loc 1 198 1 is_stmt 0 view .LVU599
 2611 0042 83C410   		addl	$16, %esp
 2612              		.cfi_def_cfa_offset 16
 2613              	.LBB257:
 2614              	.LBB256:
 2615              	.LBB255:
 2616              	.LBB254:
 2617              		.loc 3 372 16 view .LVU600
 2618 0045 C7060000 		movl	$0, (%esi)
 2618      0000
 2619              	.LBE254:
 2620              	.LBE255:
 2621              	.LBE256:
 2622              	.LBE257:
 2623              		.loc 1 198 1 view .LVU601
 2624 004b 5B       		popl	%ebx
 2625              		.cfi_restore 3
 2626              		.cfi_def_cfa_offset 12
 2627 004c 5E       		popl	%esi
 2628              		.cfi_restore 6
 2629              		.cfi_def_cfa_offset 8
 2630 004d 5F       		popl	%edi
 2631              		.cfi_restore 7
 2632              		.cfi_def_cfa_offset 4
 2633 004e C3       		ret
 2634              		.cfi_endproc
 2635              	.LFE305:
 2636              		.size	thread4B, .-thread4B
 2637              		.section	.text.rt_test_008_005_setup,"ax",@progbits
 2638              		.p2align 4
 2639              		.type	rt_test_008_005_setup, @function
 2640              	rt_test_008_005_setup:
 2641              	.LFB323:
 2642              		.cfi_startproc
 2643 0000 53       		pushl	%ebx
 2644              		.cfi_def_cfa_offset 8
 2645              		.cfi_offset 3, -8
 2646 0001 E8FCFFFF 		call	__x86.get_pc_thunk.bx
 2646      FF
 2647 0006 81C30200 		addl	$_GLOBAL_OFFSET_TABLE_, %ebx
 2647      0000
 2648 000c 83EC14   		subl	$20, %esp
 2649              		.cfi_def_cfa_offset 28
 2650 000f 8D830000 		leal	m1@GOTOFF(%ebx), %eax
 2650      0000
 2651 0015 50       		pushl	%eax
 2652              		.cfi_def_cfa_offset 32
GAS LISTING /tmp/ccVaQ2UV.s 			page 53


 2653 0016 E8FCFFFF 		call	chMtxObjectInit@PLT
 2653      FF
 2654 001b 83C418   		addl	$24, %esp
 2655              		.cfi_def_cfa_offset 8
 2656 001e 5B       		popl	%ebx
 2657              		.cfi_restore 3
 2658              		.cfi_def_cfa_offset 4
 2659 001f C3       		ret
 2660              		.cfi_endproc
 2661              	.LFE323:
 2662              		.size	rt_test_008_005_setup, .-rt_test_008_005_setup
 2663              		.section	.text.rt_test_008_008_setup,"ax",@progbits
 2664              		.p2align 4
 2665              		.type	rt_test_008_008_setup, @function
 2666              	rt_test_008_008_setup:
 2667              	.LFB325:
 2668              		.cfi_startproc
 2669 0000 53       		pushl	%ebx
 2670              		.cfi_def_cfa_offset 8
 2671              		.cfi_offset 3, -8
 2672 0001 E8FCFFFF 		call	__x86.get_pc_thunk.bx
 2672      FF
 2673 0006 81C30200 		addl	$_GLOBAL_OFFSET_TABLE_, %ebx
 2673      0000
 2674 000c 83EC14   		subl	$20, %esp
 2675              		.cfi_def_cfa_offset 28
 2676 000f 8D830000 		leal	c1@GOTOFF(%ebx), %eax
 2676      0000
 2677 0015 50       		pushl	%eax
 2678              		.cfi_def_cfa_offset 32
 2679 0016 E8FCFFFF 		call	chCondObjectInit@PLT
 2679      FF
 2680 001b 8D830000 		leal	m1@GOTOFF(%ebx), %eax
 2680      0000
 2681 0021 890424   		movl	%eax, (%esp)
 2682 0024 E8FCFFFF 		call	chMtxObjectInit@PLT
 2682      FF
 2683 0029 83C418   		addl	$24, %esp
 2684              		.cfi_def_cfa_offset 8
 2685 002c 5B       		popl	%ebx
 2686              		.cfi_restore 3
 2687              		.cfi_def_cfa_offset 4
 2688 002d C3       		ret
 2689              		.cfi_endproc
 2690              	.LFE325:
 2691              		.size	rt_test_008_008_setup, .-rt_test_008_008_setup
 2692              		.globl	rt_test_sequence_008
 2693              		.section	.rodata.str1.4,"aMS",@progbits,1
 2694              		.align 4
 2695              	.LC13:
 2696 0000 4D757465 		.string	"Mutexes, Condition Variables and Priority Inheritance"
 2696      7865732C 
 2696      20436F6E 
 2696      64697469 
 2696      6F6E2056 
 2697              		.section	.data.rel.ro.local.rt_test_sequence_008,"aw"
 2698              		.align 4
GAS LISTING /tmp/ccVaQ2UV.s 			page 54


 2699              		.type	rt_test_sequence_008, @object
 2700              		.size	rt_test_sequence_008, 8
 2701              	rt_test_sequence_008:
 2702 0000 00000000 		.long	.LC13
 2703 0004 00000000 		.long	rt_test_sequence_008_array
 2704              		.globl	rt_test_sequence_008_array
 2705              		.section	.data.rel.ro.local.rt_test_sequence_008_array,"aw"
 2706              		.align 4
 2707              		.type	rt_test_sequence_008_array, @object
 2708              		.size	rt_test_sequence_008_array, 28
 2709              	rt_test_sequence_008_array:
 2710 0000 00000000 		.long	rt_test_008_001
 2711 0004 00000000 		.long	rt_test_008_004
 2712 0008 00000000 		.long	rt_test_008_005
 2713 000c 00000000 		.long	rt_test_008_007
 2714 0010 00000000 		.long	rt_test_008_008
 2715 0014 00000000 		.long	rt_test_008_009
 2716 0018 00000000 		.long	0
 2717              		.section	.rodata.str1.4
 2718 0036 0000     		.align 4
 2719              	.LC14:
 2720 0038 436F6E64 		.string	"Condition Variable priority boost test"
 2720      6974696F 
 2720      6E205661 
 2720      72696162 
 2720      6C652070 
 2721              		.section	.data.rel.ro.local.rt_test_008_009,"aw"
 2722              		.align 4
 2723              		.type	rt_test_008_009, @object
 2724              		.size	rt_test_008_009, 16
 2725              	rt_test_008_009:
 2726 0000 38000000 		.long	.LC14
 2727 0004 00000000 		.long	rt_test_008_009_setup
 2728 0008 00000000 		.long	0
 2729 000c 00000000 		.long	rt_test_008_009_execute
 2730              		.section	.rodata.str1.4
 2731 005f 00       		.align 4
 2732              	.LC15:
 2733 0060 436F6E64 		.string	"Condition Variable broadcast test"
 2733      6974696F 
 2733      6E205661 
 2733      72696162 
 2733      6C652062 
 2734              		.section	.data.rel.ro.local.rt_test_008_008,"aw"
 2735              		.align 4
 2736              		.type	rt_test_008_008, @object
 2737              		.size	rt_test_008_008, 16
 2738              	rt_test_008_008:
 2739 0000 60000000 		.long	.LC15
 2740 0004 00000000 		.long	rt_test_008_008_setup
 2741 0008 00000000 		.long	0
 2742 000c 00000000 		.long	rt_test_008_008_execute
 2743              		.section	.rodata.str1.4
 2744 0082 0000     		.align 4
 2745              	.LC16:
 2746 0084 436F6E64 		.string	"Condition Variable signal test"
 2746      6974696F 
GAS LISTING /tmp/ccVaQ2UV.s 			page 55


 2746      6E205661 
 2746      72696162 
 2746      6C652073 
 2747              		.section	.data.rel.ro.local.rt_test_008_007,"aw"
 2748              		.align 4
 2749              		.type	rt_test_008_007, @object
 2750              		.size	rt_test_008_007, 16
 2751              	rt_test_008_007:
 2752 0000 84000000 		.long	.LC16
 2753 0004 00000000 		.long	rt_test_008_007_setup
 2754 0008 00000000 		.long	0
 2755 000c 00000000 		.long	rt_test_008_007_execute
 2756              		.section	.rodata.str1.4
 2757 00a3 00       		.align 4
 2758              	.LC17:
 2759 00a4 52657065 		.string	"Repeated locks, non recursive scenario"
 2759      61746564 
 2759      206C6F63 
 2759      6B732C20 
 2759      6E6F6E20 
 2760              		.section	.data.rel.ro.local.rt_test_008_005,"aw"
 2761              		.align 4
 2762              		.type	rt_test_008_005, @object
 2763              		.size	rt_test_008_005, 16
 2764              	rt_test_008_005:
 2765 0000 A4000000 		.long	.LC17
 2766 0004 00000000 		.long	rt_test_008_005_setup
 2767 0008 00000000 		.long	0
 2768 000c 00000000 		.long	rt_test_008_005_execute
 2769              		.section	.rodata.str1.1,"aMS",@progbits,1
 2770              	.LC18:
 2771 0000 5072696F 		.string	"Priority return verification"
 2771      72697479 
 2771      20726574 
 2771      75726E20 
 2771      76657269 
 2772              		.section	.data.rel.ro.local.rt_test_008_004,"aw"
 2773              		.align 4
 2774              		.type	rt_test_008_004, @object
 2775              		.size	rt_test_008_004, 16
 2776              	rt_test_008_004:
 2777 0000 00000000 		.long	.LC18
 2778 0004 00000000 		.long	rt_test_008_004_setup
 2779 0008 00000000 		.long	rt_test_008_004_teardown
 2780 000c 00000000 		.long	rt_test_008_004_execute
 2781              		.section	.rodata.str1.1
 2782              	.LC19:
 2783 001d 5072696F 		.string	"Priority enqueuing test"
 2783      72697479 
 2783      20656E71 
 2783      75657569 
 2783      6E672074 
 2784              		.section	.data.rel.ro.local.rt_test_008_001,"aw"
 2785              		.align 4
 2786              		.type	rt_test_008_001, @object
 2787              		.size	rt_test_008_001, 16
 2788              	rt_test_008_001:
GAS LISTING /tmp/ccVaQ2UV.s 			page 56


 2789 0000 1D000000 		.long	.LC19
 2790 0004 00000000 		.long	rt_test_008_001_setup
 2791 0008 00000000 		.long	0
 2792 000c 00000000 		.long	rt_test_008_001_execute
 2793              		.section	.data.rel.local.c1,"aw"
 2794              		.align 4
 2795              		.type	c1, @object
 2796              		.size	c1, 8
 2797              	c1:
 2798 0000 00000000 		.long	c1
 2799 0004 00000000 		.long	c1
 2800              		.section	.data.rel.local.m2,"aw"
 2801              		.align 4
 2802              		.type	m2, @object
 2803              		.size	m2, 16
 2804              	m2:
 2805 0000 00000000 		.long	m2
 2806 0004 00000000 		.long	m2
 2807 0008 00000000 		.long	0
 2808 000c 00000000 		.long	0
 2809              		.section	.data.rel.local.m1,"aw"
 2810              		.align 4
 2811              		.type	m1, @object
 2812              		.size	m1, 16
 2813              	m1:
 2814 0000 00000000 		.long	m1
 2815 0004 00000000 		.long	m1
 2816 0008 00000000 		.long	0
 2817 000c 00000000 		.long	0
 2818              		.section	.text.__x86.get_pc_thunk.bx,"axG",@progbits,__x86.get_pc_thunk.bx,comdat
 2819              		.globl	__x86.get_pc_thunk.bx
 2820              		.hidden	__x86.get_pc_thunk.bx
 2821              		.type	__x86.get_pc_thunk.bx, @function
 2822              	__x86.get_pc_thunk.bx:
 2823              	.LFB328:
 2824              		.cfi_startproc
 2825 0000 8B1C24   		movl	(%esp), %ebx
 2826 0003 C3       		ret
 2827              		.cfi_endproc
 2828              	.LFE328:
 2829              		.text
 2830              	.Letext0:
 2831              		.file 6 "/usr/lib/gcc/x86_64-linux-gnu/11/include/stddef.h"
 2832              		.file 7 "/usr/include/bits/types.h"
 2833              		.file 8 "/usr/include/bits/stdint-intn.h"
 2834              		.file 9 "/usr/include/bits/stdint-uintn.h"
 2835              		.file 10 "../../../os/common/ports/SIMIA32/compilers/GCC/chtypes.h"
 2836              		.file 11 "../../../os/rt/include/chearly.h"
 2837              		.file 12 "../../../os/rt/include/chobjects.h"
 2838              		.file 13 "../../../os/rt/include/chrfcu.h"
 2839              		.file 14 "../../../os/rt/include/chdebug.h"
 2840              		.file 15 "../../../os/rt/include/chtime.h"
 2841              		.file 16 "../../../os/rt/include/chsem.h"
 2842              		.file 17 "../../../os/rt/include/chmtx.h"
 2843              		.file 18 "../../../os/rt/include/chcond.h"
 2844              		.file 19 "../../../os/hal/include/hal_streams.h"
 2845              		.file 20 "../../../os/test/include/ch_test.h"
GAS LISTING /tmp/ccVaQ2UV.s 			page 57


 2846              		.file 21 "../../../test/rt/source/test/rt_test_sequence_008.h"
 2847              		.file 22 "../../../test/rt/source/test/rt_test_root.h"
 2848              		.file 23 "../../../os/rt/include/chschd.h"
 2849              		.section	.debug_info,"",@progbits
 2850              	.Ldebug_info0:
 2851 0000 B7160000 		.long	0x16b7
 2852 0004 0500     		.value	0x5
 2853 0006 01       		.byte	0x1
 2854 0007 04       		.byte	0x4
 2855 0008 00000000 		.long	.Ldebug_abbrev0
 2856 000c 2D       		.uleb128 0x2d
 2857 000d C1040000 		.long	.LASF196
 2858 0011 1D       		.byte	0x1d
 2859 0012 00000000 		.long	.LASF0
 2860 0016 34000000 		.long	.LASF1
 2861 001a 98010000 		.long	.LLRL39
 2862 001e 00000000 		.long	0
 2863 0022 00000000 		.long	.Ldebug_line0
 2864 0026 2E       		.uleb128 0x2e
 2865 0027 04       		.byte	0x4
 2866 0028 05       		.byte	0x5
 2867 0029 696E7400 		.string	"int"
 2868 002d 03       		.uleb128 0x3
 2869 002e 25000000 		.long	.LASF11
 2870 0032 06       		.byte	0x6
 2871 0033 D1       		.byte	0xd1
 2872 0034 17       		.byte	0x17
 2873 0035 39000000 		.long	0x39
 2874 0039 09       		.uleb128 0x9
 2875 003a 04       		.byte	0x4
 2876 003b 07       		.byte	0x7
 2877 003c 34030000 		.long	.LASF2
 2878 0040 09       		.uleb128 0x9
 2879 0041 04       		.byte	0x4
 2880 0042 05       		.byte	0x5
 2881 0043 74000000 		.long	.LASF3
 2882 0047 09       		.uleb128 0x9
 2883 0048 08       		.byte	0x8
 2884 0049 05       		.byte	0x5
 2885 004a 2A020000 		.long	.LASF4
 2886 004e 09       		.uleb128 0x9
 2887 004f 0C       		.byte	0xc
 2888 0050 04       		.byte	0x4
 2889 0051 0D080000 		.long	.LASF5
 2890 0055 09       		.uleb128 0x9
 2891 0056 10       		.byte	0x10
 2892 0057 04       		.byte	0x4
 2893 0058 C4000000 		.long	.LASF6
 2894 005c 09       		.uleb128 0x9
 2895 005d 01       		.byte	0x1
 2896 005e 08       		.byte	0x8
 2897 005f 2E070000 		.long	.LASF7
 2898 0063 09       		.uleb128 0x9
 2899 0064 02       		.byte	0x2
 2900 0065 07       		.byte	0x7
 2901 0066 C6030000 		.long	.LASF8
 2902 006a 09       		.uleb128 0x9
GAS LISTING /tmp/ccVaQ2UV.s 			page 58


 2903 006b 04       		.byte	0x4
 2904 006c 07       		.byte	0x7
 2905 006d C6070000 		.long	.LASF9
 2906 0071 09       		.uleb128 0x9
 2907 0072 01       		.byte	0x1
 2908 0073 06       		.byte	0x6
 2909 0074 50010000 		.long	.LASF10
 2910 0078 03       		.uleb128 0x3
 2911 0079 42000000 		.long	.LASF12
 2912 007d 07       		.byte	0x7
 2913 007e 26       		.byte	0x26
 2914 007f 17       		.byte	0x17
 2915 0080 5C000000 		.long	0x5c
 2916 0084 09       		.uleb128 0x9
 2917 0085 02       		.byte	0x2
 2918 0086 05       		.byte	0x5
 2919 0087 5E040000 		.long	.LASF13
 2920 008b 03       		.uleb128 0x3
 2921 008c 30080000 		.long	.LASF14
 2922 0090 07       		.byte	0x7
 2923 0091 29       		.byte	0x29
 2924 0092 14       		.byte	0x14
 2925 0093 26000000 		.long	0x26
 2926 0097 03       		.uleb128 0x3
 2927 0098 9F020000 		.long	.LASF15
 2928 009c 07       		.byte	0x7
 2929 009d 2A       		.byte	0x2a
 2930 009e 16       		.byte	0x16
 2931 009f 39000000 		.long	0x39
 2932 00a3 03       		.uleb128 0x3
 2933 00a4 CB060000 		.long	.LASF16
 2934 00a8 07       		.byte	0x7
 2935 00a9 30       		.byte	0x30
 2936 00aa 2E       		.byte	0x2e
 2937 00ab AF000000 		.long	0xaf
 2938 00af 09       		.uleb128 0x9
 2939 00b0 08       		.byte	0x8
 2940 00b1 07       		.byte	0x7
 2941 00b2 CE000000 		.long	.LASF17
 2942 00b6 2F       		.uleb128 0x2f
 2943 00b7 04       		.byte	0x4
 2944 00b8 0B       		.uleb128 0xb
 2945 00b9 B6000000 		.long	0xb6
 2946 00bd 05       		.uleb128 0x5
 2947 00be C2000000 		.long	0xc2
 2948 00c2 09       		.uleb128 0x9
 2949 00c3 01       		.byte	0x1
 2950 00c4 06       		.byte	0x6
 2951 00c5 DF070000 		.long	.LASF18
 2952 00c9 0B       		.uleb128 0xb
 2953 00ca C2000000 		.long	0xc2
 2954 00ce 03       		.uleb128 0x3
 2955 00cf 26070000 		.long	.LASF19
 2956 00d3 08       		.byte	0x8
 2957 00d4 1A       		.byte	0x1a
 2958 00d5 13       		.byte	0x13
 2959 00d6 8B000000 		.long	0x8b
GAS LISTING /tmp/ccVaQ2UV.s 			page 59


 2960 00da 03       		.uleb128 0x3
 2961 00db 68090000 		.long	.LASF20
 2962 00df 09       		.byte	0x9
 2963 00e0 18       		.byte	0x18
 2964 00e1 13       		.byte	0x13
 2965 00e2 78000000 		.long	0x78
 2966 00e6 0B       		.uleb128 0xb
 2967 00e7 DA000000 		.long	0xda
 2968 00eb 03       		.uleb128 0x3
 2969 00ec A3070000 		.long	.LASF21
 2970 00f0 09       		.byte	0x9
 2971 00f1 1A       		.byte	0x1a
 2972 00f2 14       		.byte	0x14
 2973 00f3 97000000 		.long	0x97
 2974 00f7 03       		.uleb128 0x3
 2975 00f8 39000000 		.long	.LASF22
 2976 00fc 09       		.byte	0x9
 2977 00fd 1B       		.byte	0x1b
 2978 00fe 14       		.byte	0x14
 2979 00ff A3000000 		.long	0xa3
 2980 0103 1B       		.uleb128 0x1b
 2981 0104 F7000000 		.long	0xf7
 2982 0108 03       		.uleb128 0x3
 2983 0109 23040000 		.long	.LASF23
 2984 010d 0A       		.byte	0xa
 2985 010e 37       		.byte	0x37
 2986 010f 1D       		.byte	0x1d
 2987 0110 EB000000 		.long	0xeb
 2988 0114 03       		.uleb128 0x3
 2989 0115 2C040000 		.long	.LASF24
 2990 0119 0A       		.byte	0xa
 2991 011a 38       		.byte	0x38
 2992 011b 1D       		.byte	0x1d
 2993 011c DA000000 		.long	0xda
 2994 0120 03       		.uleb128 0x3
 2995 0121 F8010000 		.long	.LASF25
 2996 0125 0A       		.byte	0xa
 2997 0126 39       		.byte	0x39
 2998 0127 1D       		.byte	0x1d
 2999 0128 DA000000 		.long	0xda
 3000 012c 03       		.uleb128 0x3
 3001 012d EB060000 		.long	.LASF26
 3002 0131 0A       		.byte	0xa
 3003 0132 3A       		.byte	0x3a
 3004 0133 1D       		.byte	0x1d
 3005 0134 DA000000 		.long	0xda
 3006 0138 03       		.uleb128 0x3
 3007 0139 03070000 		.long	.LASF27
 3008 013d 0A       		.byte	0xa
 3009 013e 3C       		.byte	0x3c
 3010 013f 1D       		.byte	0x1d
 3011 0140 EB000000 		.long	0xeb
 3012 0144 03       		.uleb128 0x3
 3013 0145 ED030000 		.long	.LASF28
 3014 0149 0A       		.byte	0xa
 3015 014a 3D       		.byte	0x3d
 3016 014b 1D       		.byte	0x1d
GAS LISTING /tmp/ccVaQ2UV.s 			page 60


 3017 014c CE000000 		.long	0xce
 3018 0150 03       		.uleb128 0x3
 3019 0151 52040000 		.long	.LASF29
 3020 0155 0A       		.byte	0xa
 3021 0156 3F       		.byte	0x3f
 3022 0157 1D       		.byte	0x1d
 3023 0158 EB000000 		.long	0xeb
 3024 015c 03       		.uleb128 0x3
 3025 015d 21030000 		.long	.LASF30
 3026 0161 0A       		.byte	0xa
 3027 0162 41       		.byte	0x41
 3028 0163 1D       		.byte	0x1d
 3029 0164 CE000000 		.long	0xce
 3030 0168 03       		.uleb128 0x3
 3031 0169 E1060000 		.long	.LASF31
 3032 016d 0B       		.byte	0xb
 3033 016e 80       		.byte	0x80
 3034 016f 12       		.byte	0x12
 3035 0170 39000000 		.long	0x39
 3036 0174 03       		.uleb128 0x3
 3037 0175 36090000 		.long	.LASF32
 3038 0179 0B       		.byte	0xb
 3039 017a 85       		.byte	0x85
 3040 017b 1A       		.byte	0x1a
 3041 017c 80010000 		.long	0x180
 3042 0180 08       		.uleb128 0x8
 3043 0181 E3030000 		.long	.LASF49
 3044 0185 50       		.byte	0x50
 3045 0186 0C       		.byte	0xc
 3046 0187 A9       		.byte	0xa9
 3047 0188 08       		.byte	0x8
 3048 0189 75020000 		.long	0x275
 3049 018d 0A       		.uleb128 0xa
 3050 018e 68647200 		.string	"hdr"
 3051 0192 0C       		.byte	0xc
 3052 0193 BA       		.byte	0xba
 3053 0194 05       		.byte	0x5
 3054 0195 DF050000 		.long	0x5df
 3055 0199 00       		.byte	0
 3056 019a 0A       		.uleb128 0xa
 3057 019b 63747800 		.string	"ctx"
 3058 019f 0C       		.byte	0xc
 3059 01a0 BE       		.byte	0xbe
 3060 01a1 21       		.byte	0x21
 3061 01a2 17050000 		.long	0x517
 3062 01a6 0C       		.byte	0xc
 3063 01a7 02       		.uleb128 0x2
 3064 01a8 B3070000 		.long	.LASF33
 3065 01ac 0C       		.byte	0xc
 3066 01ad C2       		.byte	0xc2
 3067 01ae 22       		.byte	0x22
 3068 01af DE060000 		.long	0x6de
 3069 01b3 10       		.byte	0x10
 3070 01b4 02       		.uleb128 0x2
 3071 01b5 D8070000 		.long	.LASF34
 3072 01b9 0C       		.byte	0xc
 3073 01ba C8       		.byte	0xc8
GAS LISTING /tmp/ccVaQ2UV.s 			page 61


 3074 01bb 22       		.byte	0x22
 3075 01bc E3060000 		.long	0x6e3
 3076 01c0 14       		.byte	0x14
 3077 01c1 02       		.uleb128 0x2
 3078 01c2 AA020000 		.long	.LASF35
 3079 01c6 0C       		.byte	0xc
 3080 01c7 CD       		.byte	0xcd
 3081 01c8 21       		.byte	0x21
 3082 01c9 E3060000 		.long	0x6e3
 3083 01cd 18       		.byte	0x18
 3084 01ce 02       		.uleb128 0x2
 3085 01cf D0010000 		.long	.LASF36
 3086 01d3 0C       		.byte	0xc
 3087 01d4 D1       		.byte	0xd1
 3088 01d5 21       		.byte	0x21
 3089 01d6 20010000 		.long	0x120
 3090 01da 1C       		.byte	0x1c
 3091 01db 02       		.uleb128 0x2
 3092 01dc 86090000 		.long	.LASF37
 3093 01e0 0C       		.byte	0xc
 3094 01e1 D5       		.byte	0xd5
 3095 01e2 21       		.byte	0x21
 3096 01e3 14010000 		.long	0x114
 3097 01e7 1D       		.byte	0x1d
 3098 01e8 02       		.uleb128 0x2
 3099 01e9 34010000 		.long	.LASF38
 3100 01ed 0C       		.byte	0xc
 3101 01ee DA       		.byte	0xda
 3102 01ef 21       		.byte	0x21
 3103 01f0 2C010000 		.long	0x12c
 3104 01f4 1E       		.byte	0x1e
 3105 01f5 02       		.uleb128 0x2
 3106 01f6 82030000 		.long	.LASF39
 3107 01fa 0C       		.byte	0xc
 3108 01fb DE       		.byte	0xde
 3109 01fc 22       		.byte	0x22
 3110 01fd 51030000 		.long	0x351
 3111 0201 20       		.byte	0x20
 3112 0202 02       		.uleb128 0x2
 3113 0203 64030000 		.long	.LASF40
 3114 0207 0C       		.byte	0xc
 3115 0208 E2       		.byte	0xe2
 3116 0209 21       		.byte	0x21
 3117 020a BC030000 		.long	0x3bc
 3118 020e 24       		.byte	0x24
 3119 020f 02       		.uleb128 0x2
 3120 0210 E5000000 		.long	.LASF41
 3121 0214 0C       		.byte	0xc
 3122 0215 E8       		.byte	0xe8
 3123 0216 21       		.byte	0x21
 3124 0217 C3050000 		.long	0x5c3
 3125 021b 2C       		.byte	0x2c
 3126 021c 02       		.uleb128 0x2
 3127 021d 24010000 		.long	.LASF42
 3128 0221 0C       		.byte	0xc
 3129 0222 EE       		.byte	0xee
 3130 0223 22       		.byte	0x22
GAS LISTING /tmp/ccVaQ2UV.s 			page 62


 3131 0224 B6000000 		.long	0xb6
 3132 0228 30       		.byte	0x30
 3133 0229 22       		.uleb128 0x22
 3134 022a 7500     		.string	"u"
 3135 022c 3F01     		.value	0x13f
 3136 022e 07060000 		.long	0x607
 3137 0232 34       		.byte	0x34
 3138 0233 06       		.uleb128 0x6
 3139 0234 D2020000 		.long	.LASF43
 3140 0238 4401     		.value	0x144
 3141 023a 21       		.byte	0x21
 3142 023b 90030000 		.long	0x390
 3143 023f 38       		.byte	0x38
 3144 0240 06       		.uleb128 0x6
 3145 0241 BF010000 		.long	.LASF44
 3146 0245 4A01     		.value	0x14a
 3147 0247 21       		.byte	0x21
 3148 0248 BC030000 		.long	0x3bc
 3149 024c 3C       		.byte	0x3c
 3150 024d 06       		.uleb128 0x6
 3151 024e F3030000 		.long	.LASF45
 3152 0252 5001     		.value	0x150
 3153 0254 21       		.byte	0x21
 3154 0255 50010000 		.long	0x150
 3155 0259 44       		.byte	0x44
 3156 025a 06       		.uleb128 0x6
 3157 025b FB060000 		.long	.LASF46
 3158 025f 5701     		.value	0x157
 3159 0261 22       		.byte	0x22
 3160 0262 D9060000 		.long	0x6d9
 3161 0266 48       		.byte	0x48
 3162 0267 06       		.uleb128 0x6
 3163 0268 B8040000 		.long	.LASF47
 3164 026c 5B01     		.value	0x15b
 3165 026e 21       		.byte	0x21
 3166 026f 38010000 		.long	0x138
 3167 0273 4C       		.byte	0x4c
 3168 0274 00       		.byte	0
 3169 0275 03       		.uleb128 0x3
 3170 0276 61080000 		.long	.LASF48
 3171 027a 0B       		.byte	0xb
 3172 027b 8A       		.byte	0x8a
 3173 027c 1F       		.byte	0x1f
 3174 027d 81020000 		.long	0x281
 3175 0281 1C       		.uleb128 0x1c
 3176 0282 52080000 		.long	.LASF50
 3177 0286 E0       		.byte	0xe0
 3178 0287 9701     		.value	0x197
 3179 0289 08       		.byte	0x8
 3180 028a 03030000 		.long	0x303
 3181 028e 06       		.uleb128 0x6
 3182 028f 54090000 		.long	.LASF51
 3183 0293 9B01     		.value	0x19b
 3184 0295 21       		.byte	0x21
 3185 0296 10070000 		.long	0x710
 3186 029a 00       		.byte	0
 3187 029b 06       		.uleb128 0x6
GAS LISTING /tmp/ccVaQ2UV.s 			page 63


 3188 029c 95010000 		.long	.LASF52
 3189 02a0 9F01     		.value	0x19f
 3190 02a2 21       		.byte	0x21
 3191 02a3 7F050000 		.long	0x57f
 3192 02a7 10       		.byte	0x10
 3193 02a8 06       		.uleb128 0x6
 3194 02a9 93090000 		.long	.LASF53
 3195 02ad A601     		.value	0x1a6
 3196 02af 21       		.byte	0x21
 3197 02b0 A6050000 		.long	0x5a6
 3198 02b4 28       		.byte	0x28
 3199 02b5 06       		.uleb128 0x6
 3200 02b6 6C000000 		.long	.LASF54
 3201 02ba AB01     		.value	0x1ab
 3202 02bc 21       		.byte	0x21
 3203 02bd 68010000 		.long	0x168
 3204 02c1 30       		.byte	0x30
 3205 02c2 06       		.uleb128 0x6
 3206 02c3 B9090000 		.long	.LASF55
 3207 02c7 B101     		.value	0x1b1
 3208 02c9 21       		.byte	0x21
 3209 02ca 2A030000 		.long	0x32a
 3210 02ce 34       		.byte	0x34
 3211 02cf 06       		.uleb128 0x6
 3212 02d0 ED070000 		.long	.LASF56
 3213 02d4 B601     		.value	0x1b6
 3214 02d6 22       		.byte	0x22
 3215 02d7 7A070000 		.long	0x77a
 3216 02db 38       		.byte	0x38
 3217 02dc 06       		.uleb128 0x6
 3218 02dd 0B0A0000 		.long	.LASF57
 3219 02e1 BA01     		.value	0x1ba
 3220 02e3 21       		.byte	0x21
 3221 02e4 74010000 		.long	0x174
 3222 02e8 3C       		.byte	0x3c
 3223 02e9 06       		.uleb128 0x6
 3224 02ea F6000000 		.long	.LASF58
 3225 02ee BF01     		.value	0x1bf
 3226 02f0 21       		.byte	0x21
 3227 02f1 74010000 		.long	0x174
 3228 02f5 8C       		.byte	0x8c
 3229 02f6 22       		.uleb128 0x22
 3230 02f7 64626700 		.string	"dbg"
 3231 02fb C401     		.value	0x1c4
 3232 02fd 5B030000 		.long	0x35b
 3233 0301 DC       		.byte	0xdc
 3234 0302 00       		.byte	0
 3235 0303 03       		.uleb128 0x3
 3236 0304 79050000 		.long	.LASF59
 3237 0308 0D       		.byte	0xd
 3238 0309 3F       		.byte	0x3f
 3239 030a 12       		.byte	0x12
 3240 030b EB000000 		.long	0xeb
 3241 030f 08       		.uleb128 0x8
 3242 0310 01020000 		.long	.LASF60
 3243 0314 04       		.byte	0x4
 3244 0315 0D       		.byte	0xd
GAS LISTING /tmp/ccVaQ2UV.s 			page 64


 3245 0316 44       		.byte	0x44
 3246 0317 10       		.byte	0x10
 3247 0318 2A030000 		.long	0x32a
 3248 031c 02       		.uleb128 0x2
 3249 031d 1C090000 		.long	.LASF61
 3250 0321 0D       		.byte	0xd
 3251 0322 48       		.byte	0x48
 3252 0323 21       		.byte	0x21
 3253 0324 03030000 		.long	0x303
 3254 0328 00       		.byte	0
 3255 0329 00       		.byte	0
 3256 032a 03       		.uleb128 0x3
 3257 032b 3C070000 		.long	.LASF62
 3258 032f 0D       		.byte	0xd
 3259 0330 49       		.byte	0x49
 3260 0331 03       		.byte	0x3
 3261 0332 0F030000 		.long	0x30f
 3262 0336 08       		.uleb128 0x8
 3263 0337 C2020000 		.long	.LASF63
 3264 033b 04       		.byte	0x4
 3265 033c 0E       		.byte	0xe
 3266 033d 3E       		.byte	0x3e
 3267 033e 10       		.byte	0x10
 3268 033f 51030000 		.long	0x351
 3269 0343 02       		.uleb128 0x2
 3270 0344 41080000 		.long	.LASF64
 3271 0348 0E       		.byte	0xe
 3272 0349 46       		.byte	0x46
 3273 034a 24       		.byte	0x24
 3274 034b 56030000 		.long	0x356
 3275 034f 00       		.byte	0
 3276 0350 00       		.byte	0
 3277 0351 05       		.uleb128 0x5
 3278 0352 C9000000 		.long	0xc9
 3279 0356 1B       		.uleb128 0x1b
 3280 0357 51030000 		.long	0x351
 3281 035b 03       		.uleb128 0x3
 3282 035c 5D000000 		.long	.LASF65
 3283 0360 0E       		.byte	0xe
 3284 0361 51       		.byte	0x51
 3285 0362 03       		.byte	0x3
 3286 0363 36030000 		.long	0x336
 3287 0367 03       		.uleb128 0x3
 3288 0368 1F080000 		.long	.LASF66
 3289 036c 0F       		.byte	0xf
 3290 036d 6D       		.byte	0x6d
 3291 036e 12       		.byte	0x12
 3292 036f EB000000 		.long	0xeb
 3293 0373 1B       		.uleb128 0x1b
 3294 0374 67030000 		.long	0x367
 3295 0378 03       		.uleb128 0x3
 3296 0379 13030000 		.long	.LASF67
 3297 037d 0F       		.byte	0xf
 3298 037e 79       		.byte	0x79
 3299 037f 12       		.byte	0x12
 3300 0380 EB000000 		.long	0xeb
 3301 0384 03       		.uleb128 0x3
GAS LISTING /tmp/ccVaQ2UV.s 			page 65


 3302 0385 76030000 		.long	.LASF68
 3303 0389 0F       		.byte	0xf
 3304 038a 9B       		.byte	0x9b
 3305 038b 12       		.byte	0x12
 3306 038c F7000000 		.long	0xf7
 3307 0390 03       		.uleb128 0x3
 3308 0391 D9030000 		.long	.LASF69
 3309 0395 05       		.byte	0x5
 3310 0396 32       		.byte	0x32
 3311 0397 18       		.byte	0x18
 3312 0398 9C030000 		.long	0x39c
 3313 039c 08       		.uleb128 0x8
 3314 039d 3C040000 		.long	.LASF70
 3315 03a1 04       		.byte	0x4
 3316 03a2 05       		.byte	0x5
 3317 03a3 38       		.byte	0x38
 3318 03a4 08       		.byte	0x8
 3319 03a5 B7030000 		.long	0x3b7
 3320 03a9 02       		.uleb128 0x2
 3321 03aa 1F010000 		.long	.LASF71
 3322 03ae 05       		.byte	0x5
 3323 03af 39       		.byte	0x39
 3324 03b0 1A       		.byte	0x1a
 3325 03b1 B7030000 		.long	0x3b7
 3326 03b5 00       		.byte	0
 3327 03b6 00       		.byte	0
 3328 03b7 05       		.uleb128 0x5
 3329 03b8 90030000 		.long	0x390
 3330 03bc 03       		.uleb128 0x3
 3331 03bd 6B030000 		.long	.LASF72
 3332 03c1 05       		.byte	0x5
 3333 03c2 3F       		.byte	0x3f
 3334 03c3 19       		.byte	0x19
 3335 03c4 CD030000 		.long	0x3cd
 3336 03c8 0B       		.uleb128 0xb
 3337 03c9 BC030000 		.long	0x3bc
 3338 03cd 08       		.uleb128 0x8
 3339 03ce 19020000 		.long	.LASF73
 3340 03d2 08       		.byte	0x8
 3341 03d3 05       		.byte	0x5
 3342 03d4 45       		.byte	0x45
 3343 03d5 08       		.byte	0x8
 3344 03d6 F5030000 		.long	0x3f5
 3345 03da 02       		.uleb128 0x2
 3346 03db 1F010000 		.long	.LASF71
 3347 03df 05       		.byte	0x5
 3348 03e0 46       		.byte	0x46
 3349 03e1 1A       		.byte	0x1a
 3350 03e2 F5030000 		.long	0x3f5
 3351 03e6 00       		.byte	0
 3352 03e7 02       		.uleb128 0x2
 3353 03e8 4C000000 		.long	.LASF74
 3354 03ec 05       		.byte	0x5
 3355 03ed 47       		.byte	0x47
 3356 03ee 1A       		.byte	0x1a
 3357 03ef F5030000 		.long	0x3f5
 3358 03f3 04       		.byte	0x4
GAS LISTING /tmp/ccVaQ2UV.s 			page 66


 3359 03f4 00       		.byte	0
 3360 03f5 05       		.uleb128 0x5
 3361 03f6 BC030000 		.long	0x3bc
 3362 03fa 03       		.uleb128 0x3
 3363 03fb 7D000000 		.long	.LASF75
 3364 03ff 05       		.byte	0x5
 3365 0400 4E       		.byte	0x4e
 3366 0401 22       		.byte	0x22
 3367 0402 06040000 		.long	0x406
 3368 0406 08       		.uleb128 0x8
 3369 0407 98080000 		.long	.LASF76
 3370 040b 0C       		.byte	0xc
 3371 040c 05       		.byte	0x5
 3372 040d 55       		.byte	0x55
 3373 040e 08       		.byte	0x8
 3374 040f 3B040000 		.long	0x43b
 3375 0413 02       		.uleb128 0x2
 3376 0414 1F010000 		.long	.LASF71
 3377 0418 05       		.byte	0x5
 3378 0419 56       		.byte	0x56
 3379 041a 1A       		.byte	0x1a
 3380 041b 3B040000 		.long	0x43b
 3381 041f 00       		.byte	0
 3382 0420 02       		.uleb128 0x2
 3383 0421 4C000000 		.long	.LASF74
 3384 0425 05       		.byte	0x5
 3385 0426 57       		.byte	0x57
 3386 0427 1A       		.byte	0x1a
 3387 0428 3B040000 		.long	0x43b
 3388 042c 04       		.byte	0x4
 3389 042d 02       		.uleb128 0x2
 3390 042e A5060000 		.long	.LASF77
 3391 0432 05       		.byte	0x5
 3392 0433 58       		.byte	0x58
 3393 0434 19       		.byte	0x19
 3394 0435 38010000 		.long	0x138
 3395 0439 08       		.byte	0x8
 3396 043a 00       		.byte	0
 3397 043b 05       		.uleb128 0x5
 3398 043c FA030000 		.long	0x3fa
 3399 0440 03       		.uleb128 0x3
 3400 0441 49020000 		.long	.LASF78
 3401 0445 05       		.byte	0x5
 3402 0446 5F       		.byte	0x5f
 3403 0447 1E       		.byte	0x1e
 3404 0448 4C040000 		.long	0x44c
 3405 044c 08       		.uleb128 0x8
 3406 044d 77010000 		.long	.LASF79
 3407 0451 0C       		.byte	0xc
 3408 0452 05       		.byte	0x5
 3409 0453 64       		.byte	0x64
 3410 0454 08       		.byte	0x8
 3411 0455 81040000 		.long	0x481
 3412 0459 02       		.uleb128 0x2
 3413 045a 1F010000 		.long	.LASF71
 3414 045e 05       		.byte	0x5
 3415 045f 65       		.byte	0x65
GAS LISTING /tmp/ccVaQ2UV.s 			page 67


 3416 0460 1A       		.byte	0x1a
 3417 0461 81040000 		.long	0x481
 3418 0465 00       		.byte	0
 3419 0466 02       		.uleb128 0x2
 3420 0467 4C000000 		.long	.LASF74
 3421 046b 05       		.byte	0x5
 3422 046c 66       		.byte	0x66
 3423 046d 1A       		.byte	0x1a
 3424 046e 81040000 		.long	0x481
 3425 0472 04       		.byte	0x4
 3426 0473 02       		.uleb128 0x2
 3427 0474 2C000000 		.long	.LASF80
 3428 0478 05       		.byte	0x5
 3429 0479 67       		.byte	0x67
 3430 047a 19       		.byte	0x19
 3431 047b 78030000 		.long	0x378
 3432 047f 08       		.byte	0x8
 3433 0480 00       		.byte	0
 3434 0481 05       		.uleb128 0x5
 3435 0482 40040000 		.long	0x440
 3436 0486 05       		.uleb128 0x5
 3437 0487 DA000000 		.long	0xda
 3438 048b 16       		.uleb128 0x16
 3439 048c 10       		.byte	0x10
 3440 048d 03       		.byte	0x3
 3441 048e 87       		.byte	0x87
 3442 048f 9F040000 		.long	0x49f
 3443 0493 0A       		.uleb128 0xa
 3444 0494 6100     		.string	"a"
 3445 0496 03       		.byte	0x3
 3446 0497 88       		.byte	0x88
 3447 0498 0B       		.byte	0xb
 3448 0499 9F040000 		.long	0x49f
 3449 049d 00       		.byte	0
 3450 049e 00       		.byte	0
 3451 049f 11       		.uleb128 0x11
 3452 04a0 DA000000 		.long	0xda
 3453 04a4 AF040000 		.long	0x4af
 3454 04a8 12       		.uleb128 0x12
 3455 04a9 39000000 		.long	0x39
 3456 04ad 0F       		.byte	0xf
 3457 04ae 00       		.byte	0
 3458 04af 30       		.uleb128 0x30
 3459 04b0 DE010000 		.long	.LASF197
 3460 04b4 03       		.byte	0x3
 3461 04b5 89       		.byte	0x89
 3462 04b6 03       		.byte	0x3
 3463 04b7 8B040000 		.long	0x48b
 3464 04bb 10       		.byte	0x10
 3465 04bc 03       		.uleb128 0x3
 3466 04bd 29080000 		.long	.LASF81
 3467 04c1 03       		.byte	0x3
 3468 04c2 8E       		.byte	0x8e
 3469 04c3 0F       		.byte	0xf
 3470 04c4 B6000000 		.long	0xb6
 3471 04c8 08       		.uleb128 0x8
 3472 04c9 51000000 		.long	.LASF82
GAS LISTING /tmp/ccVaQ2UV.s 			page 68


 3473 04cd 14       		.byte	0x14
 3474 04ce 03       		.byte	0x3
 3475 04cf 9D       		.byte	0x9d
 3476 04d0 08       		.byte	0x8
 3477 04d1 17050000 		.long	0x517
 3478 04d5 0A       		.uleb128 0xa
 3479 04d6 65627800 		.string	"ebx"
 3480 04da 03       		.byte	0x3
 3481 04db 9E       		.byte	0x9e
 3482 04dc 0B       		.byte	0xb
 3483 04dd BC040000 		.long	0x4bc
 3484 04e1 00       		.byte	0
 3485 04e2 0A       		.uleb128 0xa
 3486 04e3 65646900 		.string	"edi"
 3487 04e7 03       		.byte	0x3
 3488 04e8 9F       		.byte	0x9f
 3489 04e9 0B       		.byte	0xb
 3490 04ea BC040000 		.long	0x4bc
 3491 04ee 04       		.byte	0x4
 3492 04ef 0A       		.uleb128 0xa
 3493 04f0 65736900 		.string	"esi"
 3494 04f4 03       		.byte	0x3
 3495 04f5 A0       		.byte	0xa0
 3496 04f6 0B       		.byte	0xb
 3497 04f7 BC040000 		.long	0x4bc
 3498 04fb 08       		.byte	0x8
 3499 04fc 0A       		.uleb128 0xa
 3500 04fd 65627000 		.string	"ebp"
 3501 0501 03       		.byte	0x3
 3502 0502 A1       		.byte	0xa1
 3503 0503 0B       		.byte	0xb
 3504 0504 BC040000 		.long	0x4bc
 3505 0508 0C       		.byte	0xc
 3506 0509 0A       		.uleb128 0xa
 3507 050a 65697000 		.string	"eip"
 3508 050e 03       		.byte	0x3
 3509 050f A2       		.byte	0xa2
 3510 0510 0B       		.byte	0xb
 3511 0511 BC040000 		.long	0x4bc
 3512 0515 10       		.byte	0x10
 3513 0516 00       		.byte	0
 3514 0517 08       		.uleb128 0x8
 3515 0518 91000000 		.long	.LASF83
 3516 051c 04       		.byte	0x4
 3517 051d 03       		.byte	0x3
 3518 051e AA       		.byte	0xaa
 3519 051f 08       		.byte	0x8
 3520 0520 31050000 		.long	0x531
 3521 0524 0A       		.uleb128 0xa
 3522 0525 737000   		.string	"sp"
 3523 0528 03       		.byte	0x3
 3524 0529 AB       		.byte	0xab
 3525 052a 17       		.byte	0x17
 3526 052b 31050000 		.long	0x531
 3527 052f 00       		.byte	0
 3528 0530 00       		.byte	0
 3529 0531 05       		.uleb128 0x5
GAS LISTING /tmp/ccVaQ2UV.s 			page 69


 3530 0532 C8040000 		.long	0x4c8
 3531 0536 09       		.uleb128 0x9
 3532 0537 01       		.byte	0x1
 3533 0538 02       		.byte	0x2
 3534 0539 20070000 		.long	.LASF84
 3535 053d 23       		.uleb128 0x23
 3536 053e B9070000 		.long	.LASF116
 3537 0542 03       		.byte	0x3
 3538 0543 1C01     		.value	0x11c
 3539 0545 11       		.byte	0x11
 3540 0546 08010000 		.long	0x108
 3541 054a 08       		.uleb128 0x8
 3542 054b A7050000 		.long	.LASF85
 3543 054f 18       		.byte	0x18
 3544 0550 0C       		.byte	0xc
 3545 0551 64       		.byte	0x64
 3546 0552 10       		.byte	0x10
 3547 0553 7F050000 		.long	0x57f
 3548 0557 02       		.uleb128 0x2
 3549 0558 19080000 		.long	.LASF86
 3550 055c 0C       		.byte	0xc
 3551 055d 68       		.byte	0x68
 3552 055e 21       		.byte	0x21
 3553 055f 40040000 		.long	0x440
 3554 0563 00       		.byte	0
 3555 0564 02       		.uleb128 0x2
 3556 0565 34040000 		.long	.LASF87
 3557 0569 0C       		.byte	0xc
 3558 056a 6D       		.byte	0x6d
 3559 056b 21       		.byte	0x21
 3560 056c 73030000 		.long	0x373
 3561 0570 0C       		.byte	0xc
 3562 0571 02       		.uleb128 0x2
 3563 0572 92040000 		.long	.LASF88
 3564 0576 0C       		.byte	0xc
 3565 0577 81       		.byte	0x81
 3566 0578 21       		.byte	0x21
 3567 0579 03010000 		.long	0x103
 3568 057d 10       		.byte	0x10
 3569 057e 00       		.byte	0
 3570 057f 03       		.uleb128 0x3
 3571 0580 09010000 		.long	.LASF89
 3572 0584 0C       		.byte	0xc
 3573 0585 83       		.byte	0x83
 3574 0586 03       		.byte	0x3
 3575 0587 4A050000 		.long	0x54a
 3576 058b 08       		.uleb128 0x8
 3577 058c 5E020000 		.long	.LASF90
 3578 0590 08       		.byte	0x8
 3579 0591 0C       		.byte	0xc
 3580 0592 88       		.byte	0x88
 3581 0593 10       		.byte	0x10
 3582 0594 A6050000 		.long	0x5a6
 3583 0598 02       		.uleb128 0x2
 3584 0599 43020000 		.long	.LASF91
 3585 059d 0C       		.byte	0xc
 3586 059e 8C       		.byte	0x8c
GAS LISTING /tmp/ccVaQ2UV.s 			page 70


 3587 059f 21       		.byte	0x21
 3588 05a0 BC030000 		.long	0x3bc
 3589 05a4 00       		.byte	0
 3590 05a5 00       		.byte	0
 3591 05a6 03       		.uleb128 0x3
 3592 05a7 98070000 		.long	.LASF92
 3593 05ab 0C       		.byte	0xc
 3594 05ac 8D       		.byte	0x8d
 3595 05ad 03       		.byte	0x3
 3596 05ae 8B050000 		.long	0x58b
 3597 05b2 03       		.uleb128 0x3
 3598 05b3 94050000 		.long	.LASF93
 3599 05b7 0C       		.byte	0xc
 3600 05b8 92       		.byte	0x92
 3601 05b9 14       		.byte	0x14
 3602 05ba BE050000 		.long	0x5be
 3603 05be 05       		.uleb128 0x5
 3604 05bf 74010000 		.long	0x174
 3605 05c3 03       		.uleb128 0x3
 3606 05c4 87030000 		.long	.LASF94
 3607 05c8 0C       		.byte	0xc
 3608 05c9 A1       		.byte	0xa1
 3609 05ca 10       		.byte	0x10
 3610 05cb CF050000 		.long	0x5cf
 3611 05cf 05       		.uleb128 0x5
 3612 05d0 D4050000 		.long	0x5d4
 3613 05d4 24       		.uleb128 0x24
 3614 05d5 DF050000 		.long	0x5df
 3615 05d9 04       		.uleb128 0x4
 3616 05da BE050000 		.long	0x5be
 3617 05de 00       		.byte	0
 3618 05df 31       		.uleb128 0x31
 3619 05e0 0C       		.byte	0xc
 3620 05e1 0C       		.byte	0xc
 3621 05e2 AD       		.byte	0xad
 3622 05e3 03       		.byte	0x3
 3623 05e4 07060000 		.long	0x607
 3624 05e8 1D       		.uleb128 0x1d
 3625 05e9 CE090000 		.long	.LASF95
 3626 05ed B1       		.byte	0xb1
 3627 05ee 90030000 		.long	0x390
 3628 05f2 1D       		.uleb128 0x1d
 3629 05f3 43020000 		.long	.LASF91
 3630 05f7 B5       		.byte	0xb5
 3631 05f8 BC030000 		.long	0x3bc
 3632 05fc 1D       		.uleb128 0x1d
 3633 05fd 4B080000 		.long	.LASF96
 3634 0601 B9       		.byte	0xb9
 3635 0602 FA030000 		.long	0x3fa
 3636 0606 00       		.byte	0
 3637 0607 32       		.uleb128 0x32
 3638 0608 04       		.byte	0x4
 3639 0609 0C       		.byte	0xc
 3640 060a 0201     		.value	0x102
 3641 060c 03       		.byte	0x3
 3642 060d 72060000 		.long	0x672
 3643 0611 10       		.uleb128 0x10
GAS LISTING /tmp/ccVaQ2UV.s 			page 71


 3644 0612 32000000 		.long	.LASF97
 3645 0616 0901     		.value	0x109
 3646 0618 21       		.byte	0x21
 3647 0619 44010000 		.long	0x144
 3648 061d 10       		.uleb128 0x10
 3649 061e ED000000 		.long	.LASF98
 3650 0622 1001     		.value	0x110
 3651 0624 21       		.byte	0x21
 3652 0625 44010000 		.long	0x144
 3653 0629 10       		.uleb128 0x10
 3654 062a 8C090000 		.long	.LASF99
 3655 062e 1701     		.value	0x117
 3656 0630 22       		.byte	0x22
 3657 0631 B6000000 		.long	0xb6
 3658 0635 10       		.uleb128 0x10
 3659 0636 5E030000 		.long	.LASF100
 3660 063a 1E01     		.value	0x11e
 3661 063c 22       		.byte	0x22
 3662 063d 72060000 		.long	0x672
 3663 0641 10       		.uleb128 0x10
 3664 0642 01010000 		.long	.LASF101
 3665 0646 2301     		.value	0x123
 3666 0648 21       		.byte	0x21
 3667 0649 44010000 		.long	0x144
 3668 064d 10       		.uleb128 0x10
 3669 064e 57030000 		.long	.LASF102
 3670 0652 2C01     		.value	0x12c
 3671 0654 22       		.byte	0x22
 3672 0655 9F060000 		.long	0x69f
 3673 0659 10       		.uleb128 0x10
 3674 065a AC070000 		.long	.LASF103
 3675 065e 3501     		.value	0x135
 3676 0660 22       		.byte	0x22
 3677 0661 D9060000 		.long	0x6d9
 3678 0665 10       		.uleb128 0x10
 3679 0666 59070000 		.long	.LASF104
 3680 066a 3D01     		.value	0x13d
 3681 066c 21       		.byte	0x21
 3682 066d 50010000 		.long	0x150
 3683 0671 00       		.byte	0
 3684 0672 05       		.uleb128 0x5
 3685 0673 B2050000 		.long	0x5b2
 3686 0677 08       		.uleb128 0x8
 3687 0678 8B070000 		.long	.LASF105
 3688 067c 0C       		.byte	0xc
 3689 067d 10       		.byte	0x10
 3690 067e 34       		.byte	0x34
 3691 067f 10       		.byte	0x10
 3692 0680 9F060000 		.long	0x69f
 3693 0684 02       		.uleb128 0x2
 3694 0685 43020000 		.long	.LASF91
 3695 0689 10       		.byte	0x10
 3696 068a 35       		.byte	0x35
 3697 068b 19       		.byte	0x19
 3698 068c BC030000 		.long	0x3bc
 3699 0690 00       		.byte	0
 3700 0691 0A       		.uleb128 0xa
GAS LISTING /tmp/ccVaQ2UV.s 			page 72


 3701 0692 636E7400 		.string	"cnt"
 3702 0696 10       		.byte	0x10
 3703 0697 37       		.byte	0x37
 3704 0698 19       		.byte	0x19
 3705 0699 5C010000 		.long	0x15c
 3706 069d 08       		.byte	0x8
 3707 069e 00       		.byte	0
 3708 069f 05       		.uleb128 0x5
 3709 06a0 77060000 		.long	0x677
 3710 06a4 08       		.uleb128 0x8
 3711 06a5 E4070000 		.long	.LASF106
 3712 06a9 10       		.byte	0x10
 3713 06aa 11       		.byte	0x11
 3714 06ab 39       		.byte	0x39
 3715 06ac 08       		.byte	0x8
 3716 06ad D9060000 		.long	0x6d9
 3717 06b1 02       		.uleb128 0x2
 3718 06b2 43020000 		.long	.LASF91
 3719 06b6 11       		.byte	0x11
 3720 06b7 3A       		.byte	0x3a
 3721 06b8 19       		.byte	0x19
 3722 06b9 BC030000 		.long	0x3bc
 3723 06bd 00       		.byte	0
 3724 06be 02       		.uleb128 0x2
 3725 06bf B3070000 		.long	.LASF33
 3726 06c3 11       		.byte	0x11
 3727 06c4 3C       		.byte	0x3c
 3728 06c5 1A       		.byte	0x1a
 3729 06c6 BE050000 		.long	0x5be
 3730 06ca 08       		.byte	0x8
 3731 06cb 02       		.uleb128 0x2
 3732 06cc 1F010000 		.long	.LASF71
 3733 06d0 11       		.byte	0x11
 3734 06d1 3E       		.byte	0x3e
 3735 06d2 1A       		.byte	0x1a
 3736 06d3 B4070000 		.long	0x7b4
 3737 06d7 0C       		.byte	0xc
 3738 06d8 00       		.byte	0
 3739 06d9 05       		.uleb128 0x5
 3740 06da A4060000 		.long	0x6a4
 3741 06de 05       		.uleb128 0x5
 3742 06df 75020000 		.long	0x275
 3743 06e3 05       		.uleb128 0x5
 3744 06e4 AF040000 		.long	0x4af
 3745 06e8 1C       		.uleb128 0x1c
 3746 06e9 44040000 		.long	.LASF107
 3747 06ed 10       		.byte	0x10
 3748 06ee 6C01     		.value	0x16c
 3749 06f0 10       		.byte	0x10
 3750 06f1 10070000 		.long	0x710
 3751 06f5 06       		.uleb128 0x6
 3752 06f6 4B080000 		.long	.LASF96
 3753 06fa 7101     		.value	0x171
 3754 06fc 21       		.byte	0x21
 3755 06fd FA030000 		.long	0x3fa
 3756 0701 00       		.byte	0
 3757 0702 06       		.uleb128 0x6
GAS LISTING /tmp/ccVaQ2UV.s 			page 73


 3758 0703 B8060000 		.long	.LASF108
 3759 0707 7501     		.value	0x175
 3760 0709 22       		.byte	0x22
 3761 070a BE050000 		.long	0x5be
 3762 070e 0C       		.byte	0xc
 3763 070f 00       		.byte	0
 3764 0710 25       		.uleb128 0x25
 3765 0711 E4080000 		.long	.LASF109
 3766 0715 7601     		.value	0x176
 3767 0717 E8060000 		.long	0x6e8
 3768 071b 1C       		.uleb128 0x1c
 3769 071c AE000000 		.long	.LASF110
 3770 0720 14       		.byte	0x14
 3771 0721 7B01     		.value	0x17b
 3772 0723 10       		.byte	0x10
 3773 0724 6A070000 		.long	0x76a
 3774 0728 06       		.uleb128 0x6
 3775 0729 82030000 		.long	.LASF39
 3776 072d 7F01     		.value	0x17f
 3777 072f 22       		.byte	0x22
 3778 0730 51030000 		.long	0x351
 3779 0734 00       		.byte	0
 3780 0735 06       		.uleb128 0x6
 3781 0736 6A020000 		.long	.LASF111
 3782 073a 8301     		.value	0x183
 3783 073c 22       		.byte	0x22
 3784 073d E3060000 		.long	0x6e3
 3785 0741 04       		.byte	0x4
 3786 0742 06       		.uleb128 0x6
 3787 0743 39010000 		.long	.LASF112
 3788 0747 8701     		.value	0x187
 3789 0749 22       		.byte	0x22
 3790 074a E3060000 		.long	0x6e3
 3791 074e 08       		.byte	0x8
 3792 074f 06       		.uleb128 0x6
 3793 0750 DA020000 		.long	.LASF113
 3794 0754 8C01     		.value	0x18c
 3795 0756 22       		.byte	0x22
 3796 0757 E3060000 		.long	0x6e3
 3797 075b 0C       		.byte	0xc
 3798 075c 06       		.uleb128 0x6
 3799 075d AA060000 		.long	.LASF114
 3800 0761 9001     		.value	0x190
 3801 0763 22       		.byte	0x22
 3802 0764 E3060000 		.long	0x6e3
 3803 0768 10       		.byte	0x10
 3804 0769 00       		.byte	0
 3805 076a 25       		.uleb128 0x25
 3806 076b F1080000 		.long	.LASF115
 3807 076f 9201     		.value	0x192
 3808 0771 1B070000 		.long	0x71b
 3809 0775 0B       		.uleb128 0xb
 3810 0776 6A070000 		.long	0x76a
 3811 077a 05       		.uleb128 0x5
 3812 077b 75070000 		.long	0x775
 3813 077f 33       		.uleb128 0x33
 3814 0780 63683000 		.string	"ch0"
GAS LISTING /tmp/ccVaQ2UV.s 			page 74


 3815 0784 04       		.byte	0x4
 3816 0785 4101     		.value	0x141
 3817 0787 16       		.byte	0x16
 3818 0788 75020000 		.long	0x275
 3819 078c 03       		.uleb128 0x3
 3820 078d 00000000 		.long	.LASF117
 3821 0791 02       		.byte	0x2
 3822 0792 34       		.byte	0x34
 3823 0793 10       		.byte	0x10
 3824 0794 98070000 		.long	0x798
 3825 0798 05       		.uleb128 0x5
 3826 0799 9D070000 		.long	0x79d
 3827 079d 24       		.uleb128 0x24
 3828 079e A8070000 		.long	0x7a8
 3829 07a2 04       		.uleb128 0x4
 3830 07a3 B6000000 		.long	0xb6
 3831 07a7 00       		.byte	0
 3832 07a8 03       		.uleb128 0x3
 3833 07a9 E9020000 		.long	.LASF118
 3834 07ad 11       		.byte	0x11
 3835 07ae 34       		.byte	0x34
 3836 07af 19       		.byte	0x19
 3837 07b0 A4060000 		.long	0x6a4
 3838 07b4 05       		.uleb128 0x5
 3839 07b5 A8070000 		.long	0x7a8
 3840 07b9 08       		.uleb128 0x8
 3841 07ba BE050000 		.long	.LASF119
 3842 07be 08       		.byte	0x8
 3843 07bf 12       		.byte	0x12
 3844 07c0 3B       		.byte	0x3b
 3845 07c1 10       		.byte	0x10
 3846 07c2 D4070000 		.long	0x7d4
 3847 07c6 02       		.uleb128 0x2
 3848 07c7 43020000 		.long	.LASF91
 3849 07cb 12       		.byte	0x12
 3850 07cc 3C       		.byte	0x3c
 3851 07cd 19       		.byte	0x19
 3852 07ce BC030000 		.long	0x3bc
 3853 07d2 00       		.byte	0
 3854 07d3 00       		.byte	0
 3855 07d4 03       		.uleb128 0x3
 3856 07d5 3F090000 		.long	.LASF120
 3857 07d9 12       		.byte	0x12
 3858 07da 3E       		.byte	0x3e
 3859 07db 03       		.byte	0x3
 3860 07dc B9070000 		.long	0x7b9
 3861 07e0 08       		.uleb128 0x8
 3862 07e1 60070000 		.long	.LASF121
 3863 07e5 14       		.byte	0x14
 3864 07e6 13       		.byte	0x13
 3865 07e7 4F       		.byte	0x4f
 3866 07e8 08       		.byte	0x8
 3867 07e9 2F080000 		.long	0x82f
 3868 07ed 02       		.uleb128 0x2
 3869 07ee BE090000 		.long	.LASF122
 3870 07f2 13       		.byte	0x13
 3871 07f3 50       		.byte	0x50
GAS LISTING /tmp/ccVaQ2UV.s 			page 75


 3872 07f4 03       		.byte	0x3
 3873 07f5 2D000000 		.long	0x2d
 3874 07f9 00       		.byte	0
 3875 07fa 02       		.uleb128 0x2
 3876 07fb 9C040000 		.long	.LASF123
 3877 07ff 13       		.byte	0x13
 3878 0800 50       		.byte	0x50
 3879 0801 03       		.byte	0x3
 3880 0802 52080000 		.long	0x852
 3881 0806 04       		.byte	0x4
 3882 0807 02       		.uleb128 0x2
 3883 0808 D6060000 		.long	.LASF124
 3884 080c 13       		.byte	0x13
 3885 080d 50       		.byte	0x50
 3886 080e 03       		.byte	0x3
 3887 080f 70080000 		.long	0x870
 3888 0813 08       		.byte	0x8
 3889 0814 0A       		.uleb128 0xa
 3890 0815 70757400 		.string	"put"
 3891 0819 13       		.byte	0x13
 3892 081a 50       		.byte	0x50
 3893 081b 03       		.byte	0x3
 3894 081c 89080000 		.long	0x889
 3895 0820 0C       		.byte	0xc
 3896 0821 0A       		.uleb128 0xa
 3897 0822 67657400 		.string	"get"
 3898 0826 13       		.byte	0x13
 3899 0827 50       		.byte	0x50
 3900 0828 03       		.byte	0x3
 3901 0829 9D080000 		.long	0x89d
 3902 082d 10       		.byte	0x10
 3903 082e 00       		.byte	0
 3904 082f 0B       		.uleb128 0xb
 3905 0830 E0070000 		.long	0x7e0
 3906 0834 17       		.uleb128 0x17
 3907 0835 2D000000 		.long	0x2d
 3908 0839 4D080000 		.long	0x84d
 3909 083d 04       		.uleb128 0x4
 3910 083e B6000000 		.long	0xb6
 3911 0842 04       		.uleb128 0x4
 3912 0843 4D080000 		.long	0x84d
 3913 0847 04       		.uleb128 0x4
 3914 0848 2D000000 		.long	0x2d
 3915 084c 00       		.byte	0
 3916 084d 05       		.uleb128 0x5
 3917 084e E6000000 		.long	0xe6
 3918 0852 05       		.uleb128 0x5
 3919 0853 34080000 		.long	0x834
 3920 0857 17       		.uleb128 0x17
 3921 0858 2D000000 		.long	0x2d
 3922 085c 70080000 		.long	0x870
 3923 0860 04       		.uleb128 0x4
 3924 0861 B6000000 		.long	0xb6
 3925 0865 04       		.uleb128 0x4
 3926 0866 86040000 		.long	0x486
 3927 086a 04       		.uleb128 0x4
 3928 086b 2D000000 		.long	0x2d
GAS LISTING /tmp/ccVaQ2UV.s 			page 76


 3929 086f 00       		.byte	0
 3930 0870 05       		.uleb128 0x5
 3931 0871 57080000 		.long	0x857
 3932 0875 17       		.uleb128 0x17
 3933 0876 44010000 		.long	0x144
 3934 087a 89080000 		.long	0x889
 3935 087e 04       		.uleb128 0x4
 3936 087f B6000000 		.long	0xb6
 3937 0883 04       		.uleb128 0x4
 3938 0884 DA000000 		.long	0xda
 3939 0888 00       		.byte	0
 3940 0889 05       		.uleb128 0x5
 3941 088a 75080000 		.long	0x875
 3942 088e 17       		.uleb128 0x17
 3943 088f 44010000 		.long	0x144
 3944 0893 9D080000 		.long	0x89d
 3945 0897 04       		.uleb128 0x4
 3946 0898 B6000000 		.long	0xb6
 3947 089c 00       		.byte	0
 3948 089d 05       		.uleb128 0x5
 3949 089e 8E080000 		.long	0x88e
 3950 08a2 16       		.uleb128 0x16
 3951 08a3 04       		.byte	0x4
 3952 08a4 13       		.byte	0x13
 3953 08a5 5A       		.byte	0x5a
 3954 08a6 B8080000 		.long	0x8b8
 3955 08aa 0A       		.uleb128 0xa
 3956 08ab 766D7400 		.string	"vmt"
 3957 08af 13       		.byte	0x13
 3958 08b0 5C       		.byte	0x5c
 3959 08b1 29       		.byte	0x29
 3960 08b2 B8080000 		.long	0x8b8
 3961 08b6 00       		.byte	0
 3962 08b7 00       		.byte	0
 3963 08b8 05       		.uleb128 0x5
 3964 08b9 2F080000 		.long	0x82f
 3965 08bd 03       		.uleb128 0x3
 3966 08be F1020000 		.long	.LASF125
 3967 08c2 13       		.byte	0x13
 3968 08c3 5E       		.byte	0x5e
 3969 08c4 03       		.byte	0x3
 3970 08c5 A2080000 		.long	0x8a2
 3971 08c9 03       		.uleb128 0x3
 3972 08ca 85050000 		.long	.LASF126
 3973 08ce 14       		.byte	0x14
 3974 08cf 7D       		.byte	0x7d
 3975 08d0 0F       		.byte	0xf
 3976 08d1 D5080000 		.long	0x8d5
 3977 08d5 05       		.uleb128 0x5
 3978 08d6 DA080000 		.long	0x8da
 3979 08da 17       		.uleb128 0x17
 3980 08db 26000000 		.long	0x26
 3981 08df E9080000 		.long	0x8e9
 3982 08e3 04       		.uleb128 0x4
 3983 08e4 26000000 		.long	0x26
 3984 08e8 00       		.byte	0
 3985 08e9 16       		.uleb128 0x16
GAS LISTING /tmp/ccVaQ2UV.s 			page 77


 3986 08ea 28       		.byte	0x28
 3987 08eb 14       		.byte	0x14
 3988 08ec 82       		.byte	0x82
 3989 08ed 5A090000 		.long	0x95a
 3990 08f1 02       		.uleb128 0x2
 3991 08f2 26060000 		.long	.LASF127
 3992 08f6 14       		.byte	0x14
 3993 08f7 86       		.byte	0x86
 3994 08f8 15       		.byte	0x15
 3995 08f9 39000000 		.long	0x39
 3996 08fd 00       		.byte	0
 3997 08fe 02       		.uleb128 0x2
 3998 08ff 5C010000 		.long	.LASF128
 3999 0903 14       		.byte	0x14
 4000 0904 8A       		.byte	0x8a
 4001 0905 15       		.byte	0x15
 4002 0906 36050000 		.long	0x536
 4003 090a 04       		.byte	0x4
 4004 090b 02       		.uleb128 0x2
 4005 090c C0060000 		.long	.LASF129
 4006 0910 14       		.byte	0x14
 4007 0911 8E       		.byte	0x8e
 4008 0912 15       		.byte	0x15
 4009 0913 36050000 		.long	0x536
 4010 0917 05       		.byte	0x5
 4011 0918 02       		.uleb128 0x2
 4012 0919 F5090000 		.long	.LASF130
 4013 091d 14       		.byte	0x14
 4014 091e 92       		.byte	0x92
 4015 091f 16       		.byte	0x16
 4016 0920 51030000 		.long	0x351
 4017 0924 08       		.byte	0x8
 4018 0925 02       		.uleb128 0x2
 4019 0926 59020000 		.long	.LASF131
 4020 092a 14       		.byte	0x14
 4021 092b 96       		.byte	0x96
 4022 092c 16       		.byte	0x16
 4023 092d BD000000 		.long	0xbd
 4024 0931 0C       		.byte	0xc
 4025 0932 02       		.uleb128 0x2
 4026 0933 EC050000 		.long	.LASF132
 4027 0937 14       		.byte	0x14
 4028 0938 9A       		.byte	0x9a
 4029 0939 15       		.byte	0x15
 4030 093a 5A090000 		.long	0x95a
 4031 093e 10       		.byte	0x10
 4032 093f 02       		.uleb128 0x2
 4033 0940 22020000 		.long	.LASF133
 4034 0944 14       		.byte	0x14
 4035 0945 9E       		.byte	0x9e
 4036 0946 15       		.byte	0x15
 4037 0947 C9080000 		.long	0x8c9
 4038 094b 20       		.byte	0x20
 4039 094c 02       		.uleb128 0x2
 4040 094d 0B070000 		.long	.LASF134
 4041 0951 14       		.byte	0x14
 4042 0952 A3       		.byte	0xa3
GAS LISTING /tmp/ccVaQ2UV.s 			page 78


 4043 0953 19       		.byte	0x19
 4044 0954 6A090000 		.long	0x96a
 4045 0958 24       		.byte	0x24
 4046 0959 00       		.byte	0
 4047 095a 11       		.uleb128 0x11
 4048 095b C2000000 		.long	0xc2
 4049 095f 6A090000 		.long	0x96a
 4050 0963 12       		.uleb128 0x12
 4051 0964 39000000 		.long	0x39
 4052 0968 0F       		.byte	0xf
 4053 0969 00       		.byte	0
 4054 096a 05       		.uleb128 0x5
 4055 096b BD080000 		.long	0x8bd
 4056 096f 03       		.uleb128 0x3
 4057 0970 B0020000 		.long	.LASF135
 4058 0974 14       		.byte	0x14
 4059 0975 A5       		.byte	0xa5
 4060 0976 03       		.byte	0x3
 4061 0977 E9080000 		.long	0x8e9
 4062 097b 16       		.uleb128 0x16
 4063 097c 10       		.byte	0x10
 4064 097d 14       		.byte	0x14
 4065 097e AA       		.byte	0xaa
 4066 097f B8090000 		.long	0x9b8
 4067 0983 02       		.uleb128 0x2
 4068 0984 82030000 		.long	.LASF39
 4069 0988 14       		.byte	0x14
 4070 0989 AB       		.byte	0xab
 4071 098a 0F       		.byte	0xf
 4072 098b 51030000 		.long	0x351
 4073 098f 00       		.byte	0
 4074 0990 02       		.uleb128 0x2
 4075 0991 DB060000 		.long	.LASF136
 4076 0995 14       		.byte	0x14
 4077 0996 AC       		.byte	0xac
 4078 0997 0A       		.byte	0xa
 4079 0998 B9090000 		.long	0x9b9
 4080 099c 04       		.byte	0x4
 4081 099d 02       		.uleb128 0x2
 4082 099e 2B010000 		.long	.LASF137
 4083 09a2 14       		.byte	0x14
 4084 09a3 AD       		.byte	0xad
 4085 09a4 0A       		.byte	0xa
 4086 09a5 B9090000 		.long	0x9b9
 4087 09a9 08       		.byte	0x8
 4088 09aa 02       		.uleb128 0x2
 4089 09ab F3060000 		.long	.LASF138
 4090 09af 14       		.byte	0x14
 4091 09b0 AE       		.byte	0xae
 4092 09b1 0A       		.byte	0xa
 4093 09b2 B9090000 		.long	0x9b9
 4094 09b6 0C       		.byte	0xc
 4095 09b7 00       		.byte	0
 4096 09b8 34       		.uleb128 0x34
 4097 09b9 05       		.uleb128 0x5
 4098 09ba B8090000 		.long	0x9b8
 4099 09be 03       		.uleb128 0x3
GAS LISTING /tmp/ccVaQ2UV.s 			page 79


 4100 09bf 75040000 		.long	.LASF139
 4101 09c3 14       		.byte	0x14
 4102 09c4 AF       		.byte	0xaf
 4103 09c5 03       		.byte	0x3
 4104 09c6 7B090000 		.long	0x97b
 4105 09ca 0B       		.uleb128 0xb
 4106 09cb BE090000 		.long	0x9be
 4107 09cf 16       		.uleb128 0x16
 4108 09d0 08       		.byte	0x8
 4109 09d1 14       		.byte	0x14
 4110 09d2 B4       		.byte	0xb4
 4111 09d3 F2090000 		.long	0x9f2
 4112 09d7 02       		.uleb128 0x2
 4113 09d8 82030000 		.long	.LASF39
 4114 09dc 14       		.byte	0x14
 4115 09dd B5       		.byte	0xb5
 4116 09de 16       		.byte	0x16
 4117 09df 51030000 		.long	0x351
 4118 09e3 00       		.byte	0
 4119 09e4 02       		.uleb128 0x2
 4120 09e5 050A0000 		.long	.LASF140
 4121 09e9 14       		.byte	0x14
 4122 09ea B6       		.byte	0xb6
 4123 09eb 1E       		.byte	0x1e
 4124 09ec F2090000 		.long	0x9f2
 4125 09f0 04       		.byte	0x4
 4126 09f1 00       		.byte	0
 4127 09f2 05       		.uleb128 0x5
 4128 09f3 FC090000 		.long	0x9fc
 4129 09f7 05       		.uleb128 0x5
 4130 09f8 CA090000 		.long	0x9ca
 4131 09fc 0B       		.uleb128 0xb
 4132 09fd F7090000 		.long	0x9f7
 4133 0a01 03       		.uleb128 0x3
 4134 0a02 68010000 		.long	.LASF141
 4135 0a06 14       		.byte	0x14
 4136 0a07 B7       		.byte	0xb7
 4137 0a08 03       		.byte	0x3
 4138 0a09 CF090000 		.long	0x9cf
 4139 0a0d 0B       		.uleb128 0xb
 4140 0a0e 010A0000 		.long	0xa01
 4141 0a12 23       		.uleb128 0x23
 4142 0a13 3A080000 		.long	.LASF142
 4143 0a17 14       		.byte	0x14
 4144 0a18 2901     		.value	0x129
 4145 0a1a 1A       		.byte	0x1a
 4146 0a1b 6F090000 		.long	0x96f
 4147 0a1f 26       		.uleb128 0x26
 4148 0a20 21090000 		.long	.LASF143
 4149 0a24 15       		.byte	0x15
 4150 0a25 19       		.byte	0x19
 4151 0a26 1D       		.byte	0x1d
 4152 0a27 0D0A0000 		.long	0xa0d
 4153 0a2b 11       		.uleb128 0x11
 4154 0a2c BE050000 		.long	0x5be
 4155 0a30 3B0A0000 		.long	0xa3b
 4156 0a34 12       		.uleb128 0x12
GAS LISTING /tmp/ccVaQ2UV.s 			page 80


 4157 0a35 39000000 		.long	0x39
 4158 0a39 04       		.byte	0x4
 4159 0a3a 00       		.byte	0
 4160 0a3b 26       		.uleb128 0x26
 4161 0a3c 51070000 		.long	.LASF144
 4162 0a40 16       		.byte	0x16
 4163 0a41 5F       		.byte	0x5f
 4164 0a42 12       		.byte	0x12
 4165 0a43 2B0A0000 		.long	0xa2b
 4166 0a47 11       		.uleb128 0x11
 4167 0a48 B8000000 		.long	0xb8
 4168 0a4c 570A0000 		.long	0xa57
 4169 0a50 12       		.uleb128 0x12
 4170 0a51 39000000 		.long	0x39
 4171 0a55 04       		.byte	0x4
 4172 0a56 00       		.byte	0
 4173 0a57 0B       		.uleb128 0xb
 4174 0a58 470A0000 		.long	0xa47
 4175 0a5c 35       		.uleb128 0x35
 4176 0a5d 776100   		.string	"wa"
 4177 0a60 16       		.byte	0x16
 4178 0a61 60       		.byte	0x60
 4179 0a62 18       		.byte	0x18
 4180 0a63 570A0000 		.long	0xa57
 4181 0a67 1E       		.uleb128 0x1e
 4182 0a68 6D3100   		.string	"m1"
 4183 0a6b 39       		.byte	0x39
 4184 0a6c A8070000 		.long	0x7a8
 4185 0a70 05       		.uleb128 0x5
 4186 0a71 03       		.byte	0x3
 4187 0a72 00000000 		.long	m1
 4188 0a76 1E       		.uleb128 0x1e
 4189 0a77 6D3200   		.string	"m2"
 4190 0a7a 3A       		.byte	0x3a
 4191 0a7b A8070000 		.long	0x7a8
 4192 0a7f 05       		.uleb128 0x5
 4193 0a80 03       		.byte	0x3
 4194 0a81 00000000 		.long	m2
 4195 0a85 1E       		.uleb128 0x1e
 4196 0a86 633100   		.string	"c1"
 4197 0a89 3C       		.byte	0x3c
 4198 0a8a D4070000 		.long	0x7d4
 4199 0a8e 05       		.uleb128 0x5
 4200 0a8f 03       		.byte	0x3
 4201 0a90 00000000 		.long	c1
 4202 0a94 13       		.uleb128 0x13
 4203 0a95 16060000 		.long	.LASF145
 4204 0a99 2D01     		.value	0x12d
 4205 0a9b CA090000 		.long	0x9ca
 4206 0a9f 05       		.uleb128 0x5
 4207 0aa0 03       		.byte	0x3
 4208 0aa1 00000000 		.long	rt_test_008_001
 4209 0aa5 13       		.uleb128 0x13
 4210 0aa6 33060000 		.long	.LASF146
 4211 0aaa 4102     		.value	0x241
 4212 0aac CA090000 		.long	0x9ca
 4213 0ab0 05       		.uleb128 0x5
GAS LISTING /tmp/ccVaQ2UV.s 			page 81


 4214 0ab1 03       		.byte	0x3
 4215 0ab2 00000000 		.long	rt_test_008_004
 4216 0ab6 13       		.uleb128 0x13
 4217 0ab7 43060000 		.long	.LASF147
 4218 0abb AC02     		.value	0x2ac
 4219 0abd CA090000 		.long	0x9ca
 4220 0ac1 05       		.uleb128 0x5
 4221 0ac2 03       		.byte	0x3
 4222 0ac3 00000000 		.long	rt_test_008_005
 4223 0ac7 13       		.uleb128 0x13
 4224 0ac8 5B060000 		.long	.LASF148
 4225 0acc 8703     		.value	0x387
 4226 0ace CA090000 		.long	0x9ca
 4227 0ad2 05       		.uleb128 0x5
 4228 0ad3 03       		.byte	0x3
 4229 0ad4 00000000 		.long	rt_test_008_007
 4230 0ad8 13       		.uleb128 0x13
 4231 0ad9 E8010000 		.long	.LASF149
 4232 0add C603     		.value	0x3c6
 4233 0adf CA090000 		.long	0x9ca
 4234 0ae3 05       		.uleb128 0x5
 4235 0ae4 03       		.byte	0x3
 4236 0ae5 00000000 		.long	rt_test_008_008
 4237 0ae9 13       		.uleb128 0x13
 4238 0aea 7D060000 		.long	.LASF150
 4239 0aee 3104     		.value	0x431
 4240 0af0 CA090000 		.long	0x9ca
 4241 0af4 05       		.uleb128 0x5
 4242 0af5 03       		.byte	0x3
 4243 0af6 00000000 		.long	rt_test_008_009
 4244 0afa 11       		.uleb128 0x11
 4245 0afb FC090000 		.long	0x9fc
 4246 0aff 0A0B0000 		.long	0xb0a
 4247 0b03 12       		.uleb128 0x12
 4248 0b04 39000000 		.long	0x39
 4249 0b08 06       		.byte	0x6
 4250 0b09 00       		.byte	0
 4251 0b0a 0B       		.uleb128 0xb
 4252 0b0b FA0A0000 		.long	0xafa
 4253 0b0f 36       		.uleb128 0x36
 4254 0b10 D1050000 		.long	.LASF151
 4255 0b14 01       		.byte	0x1
 4256 0b15 4004     		.value	0x440
 4257 0b17 1A       		.byte	0x1a
 4258 0b18 0A0B0000 		.long	0xb0a
 4259 0b1c 05       		.uleb128 0x5
 4260 0b1d 03       		.byte	0x3
 4261 0b1e 00000000 		.long	rt_test_sequence_008_array
 4262 0b22 37       		.uleb128 0x37
 4263 0b23 1F0A0000 		.long	0xa1f
 4264 0b27 01       		.byte	0x1
 4265 0b28 5E04     		.value	0x45e
 4266 0b2a 16       		.byte	0x16
 4267 0b2b 05       		.uleb128 0x5
 4268 0b2c 03       		.byte	0x3
 4269 0b2d 00000000 		.long	rt_test_sequence_008
 4270 0b31 0D       		.uleb128 0xd
GAS LISTING /tmp/ccVaQ2UV.s 			page 82


 4271 0b32 27030000 		.long	.LASF152
 4272 0b36 11       		.byte	0x11
 4273 0b37 6D       		.byte	0x6d
 4274 0b38 420B0000 		.long	0xb42
 4275 0b3c 04       		.uleb128 0x4
 4276 0b3d B4070000 		.long	0x7b4
 4277 0b41 00       		.byte	0
 4278 0b42 0D       		.uleb128 0xd
 4279 0b43 38020000 		.long	.LASF153
 4280 0b47 11       		.byte	0x11
 4281 0b48 69       		.byte	0x69
 4282 0b49 530B0000 		.long	0xb53
 4283 0b4d 04       		.uleb128 0x4
 4284 0b4e B4070000 		.long	0x7b4
 4285 0b52 00       		.byte	0
 4286 0b53 27       		.uleb128 0x27
 4287 0b54 08000000 		.long	.LASF154
 4288 0b58 02       		.byte	0x2
 4289 0b59 DC01     		.value	0x1dc
 4290 0b5b 650B0000 		.long	0xb65
 4291 0b5f 04       		.uleb128 0x4
 4292 0b60 78030000 		.long	0x378
 4293 0b64 00       		.byte	0
 4294 0b65 1F       		.uleb128 0x1f
 4295 0b66 14040000 		.long	.LASF157
 4296 0b6a 11       		.byte	0x11
 4297 0b6b 6E       		.byte	0x6e
 4298 0b6c 08       		.byte	0x8
 4299 0b6d 20       		.uleb128 0x20
 4300 0b6e 43070000 		.long	.LASF155
 4301 0b72 14       		.byte	0x14
 4302 0b73 3001     		.value	0x130
 4303 0b75 08       		.byte	0x8
 4304 0b76 36050000 		.long	0x536
 4305 0b7a 890B0000 		.long	0xb89
 4306 0b7e 04       		.uleb128 0x4
 4307 0b7f 36050000 		.long	0x536
 4308 0b83 04       		.uleb128 0x4
 4309 0b84 51030000 		.long	0x351
 4310 0b88 00       		.byte	0
 4311 0b89 21       		.uleb128 0x21
 4312 0b8a 68040000 		.long	.LASF156
 4313 0b8e 11       		.byte	0x11
 4314 0b8f 6A       		.byte	0x6a
 4315 0b90 08       		.byte	0x8
 4316 0b91 36050000 		.long	0x536
 4317 0b95 9F0B0000 		.long	0xb9f
 4318 0b99 04       		.uleb128 0x4
 4319 0b9a B4070000 		.long	0x7b4
 4320 0b9e 00       		.byte	0
 4321 0b9f 1F       		.uleb128 0x1f
 4322 0ba0 8E020000 		.long	.LASF158
 4323 0ba4 17       		.byte	0x17
 4324 0ba5 94       		.byte	0x94
 4325 0ba6 08       		.byte	0x8
 4326 0ba7 0D       		.uleb128 0xd
 4327 0ba8 12070000 		.long	.LASF159
GAS LISTING /tmp/ccVaQ2UV.s 			page 83


 4328 0bac 12       		.byte	0x12
 4329 0bad 60       		.byte	0x60
 4330 0bae B80B0000 		.long	0xbb8
 4331 0bb2 04       		.uleb128 0x4
 4332 0bb3 B80B0000 		.long	0xbb8
 4333 0bb7 00       		.byte	0
 4334 0bb8 05       		.uleb128 0x5
 4335 0bb9 D4070000 		.long	0x7d4
 4336 0bbd 0D       		.uleb128 0xd
 4337 0bbe 9E000000 		.long	.LASF160
 4338 0bc2 12       		.byte	0x12
 4339 0bc3 61       		.byte	0x61
 4340 0bc4 CE0B0000 		.long	0xbce
 4341 0bc8 04       		.uleb128 0x4
 4342 0bc9 B80B0000 		.long	0xbb8
 4343 0bcd 00       		.byte	0
 4344 0bce 0D       		.uleb128 0xd
 4345 0bcf 09020000 		.long	.LASF161
 4346 0bd3 11       		.byte	0x11
 4347 0bd4 66       		.byte	0x66
 4348 0bd5 DF0B0000 		.long	0xbdf
 4349 0bd9 04       		.uleb128 0x4
 4350 0bda B4070000 		.long	0x7b4
 4351 0bde 00       		.byte	0
 4352 0bdf 0D       		.uleb128 0xd
 4353 0be0 FC070000 		.long	.LASF162
 4354 0be4 12       		.byte	0x12
 4355 0be5 5D       		.byte	0x5d
 4356 0be6 F00B0000 		.long	0xbf0
 4357 0bea 04       		.uleb128 0x4
 4358 0beb B80B0000 		.long	0xbb8
 4359 0bef 00       		.byte	0
 4360 0bf0 21       		.uleb128 0x21
 4361 0bf1 9B090000 		.long	.LASF163
 4362 0bf5 12       		.byte	0x12
 4363 0bf6 66       		.byte	0x66
 4364 0bf7 09       		.byte	0x9
 4365 0bf8 44010000 		.long	0x144
 4366 0bfc 0B0C0000 		.long	0xc0b
 4367 0c00 04       		.uleb128 0x4
 4368 0c01 B80B0000 		.long	0xbb8
 4369 0c05 04       		.uleb128 0x4
 4370 0c06 78030000 		.long	0x378
 4371 0c0a 00       		.byte	0
 4372 0c0b 21       		.uleb128 0x21
 4373 0c0c C3080000 		.long	.LASF164
 4374 0c10 12       		.byte	0x12
 4375 0c11 63       		.byte	0x63
 4376 0c12 09       		.byte	0x9
 4377 0c13 44010000 		.long	0x144
 4378 0c17 210C0000 		.long	0xc21
 4379 0c1b 04       		.uleb128 0x4
 4380 0c1c B80B0000 		.long	0xbb8
 4381 0c20 00       		.byte	0
 4382 0c21 0D       		.uleb128 0xd
 4383 0c22 44010000 		.long	.LASF165
 4384 0c26 11       		.byte	0x11
GAS LISTING /tmp/ccVaQ2UV.s 			page 84


 4385 0c27 6C       		.byte	0x6c
 4386 0c28 320C0000 		.long	0xc32
 4387 0c2c 04       		.uleb128 0x4
 4388 0c2d B4070000 		.long	0x7b4
 4389 0c31 00       		.byte	0
 4390 0c32 27       		.uleb128 0x27
 4391 0c33 85010000 		.long	.LASF166
 4392 0c37 14       		.byte	0x14
 4393 0c38 3A01     		.value	0x13a
 4394 0c3a 440C0000 		.long	0xc44
 4395 0c3e 04       		.uleb128 0x4
 4396 0c3f C2000000 		.long	0xc2
 4397 0c43 00       		.byte	0
 4398 0c44 0D       		.uleb128 0xd
 4399 0c45 FA050000 		.long	.LASF167
 4400 0c49 11       		.byte	0x11
 4401 0c4a 68       		.byte	0x68
 4402 0c4b 550C0000 		.long	0xc55
 4403 0c4f 04       		.uleb128 0x4
 4404 0c50 B4070000 		.long	0x7b4
 4405 0c54 00       		.byte	0
 4406 0c55 20       		.uleb128 0x20
 4407 0c56 A8010000 		.long	.LASF168
 4408 0c5a 14       		.byte	0x14
 4409 0c5b 3101     		.value	0x131
 4410 0c5d 08       		.byte	0x8
 4411 0c5e 36050000 		.long	0x536
 4412 0c62 710C0000 		.long	0xc71
 4413 0c66 04       		.uleb128 0x4
 4414 0c67 BD000000 		.long	0xbd
 4415 0c6b 04       		.uleb128 0x4
 4416 0c6c 51030000 		.long	0x351
 4417 0c70 00       		.byte	0
 4418 0c71 1F       		.uleb128 0x1f
 4419 0c72 04060000 		.long	.LASF169
 4420 0c76 16       		.byte	0x16
 4421 0c77 64       		.byte	0x64
 4422 0c78 06       		.byte	0x6
 4423 0c79 0D       		.uleb128 0xd
 4424 0c7a 06030000 		.long	.LASF170
 4425 0c7e 12       		.byte	0x12
 4426 0c7f 5F       		.byte	0x5f
 4427 0c80 8A0C0000 		.long	0xc8a
 4428 0c84 04       		.uleb128 0x4
 4429 0c85 B80B0000 		.long	0xbb8
 4430 0c89 00       		.byte	0
 4431 0c8a 20       		.uleb128 0x20
 4432 0c8b 80040000 		.long	.LASF171
 4433 0c8f 02       		.byte	0x2
 4434 0c90 C401     		.value	0x1c4
 4435 0c92 0D       		.byte	0xd
 4436 0c93 BE050000 		.long	0x5be
 4437 0c97 B50C0000 		.long	0xcb5
 4438 0c9b 04       		.uleb128 0x4
 4439 0c9c E3060000 		.long	0x6e3
 4440 0ca0 04       		.uleb128 0x4
 4441 0ca1 2D000000 		.long	0x2d
GAS LISTING /tmp/ccVaQ2UV.s 			page 85


 4442 0ca5 04       		.uleb128 0x4
 4443 0ca6 38010000 		.long	0x138
 4444 0caa 04       		.uleb128 0x4
 4445 0cab 8C070000 		.long	0x78c
 4446 0caf 04       		.uleb128 0x4
 4447 0cb0 B6000000 		.long	0xb6
 4448 0cb4 00       		.byte	0
 4449 0cb5 0E       		.uleb128 0xe
 4450 0cb6 8D060000 		.long	.LASF172
 4451 0cba F603     		.value	0x3f6
 4452 0cbc 00000000 		.long	.LFB321
 4453 0cc0 08010000 		.long	.LFE321-.LFB321
 4454 0cc4 01       		.uleb128 0x1
 4455 0cc5 9C       		.byte	0x9c
 4456 0cc6 460D0000 		.long	0xd46
 4457 0cca 18       		.uleb128 0x18
 4458 0ccb A5060000 		.long	.LASF77
 4459 0ccf F703     		.value	0x3f7
 4460 0cd1 0B       		.byte	0xb
 4461 0cd2 38010000 		.long	0x138
 4462 0cd6 12000000 		.long	.LLST0
 4463 0cda 0C000000 		.long	.LVUS0
 4464 0cde 07       		.uleb128 0x7
 4465 0cdf F4150000 		.long	0x15f4
 4466 0ce3 00000000 		.long	.LBI90
 4467 0ce7 04       		.byte	.LVU9
 4468 0ce8 0C000000 		.long	.LLRL1
 4469 0cec FC03     		.value	0x3fc
 4470 0cee 0C       		.byte	0xc
 4471 0cef 060D0000 		.long	0xd06
 4472 0cf3 0F       		.uleb128 0xf
 4473 0cf4 00160000 		.long	0x1600
 4474 0cf8 00000000 		.long	.LBI92
 4475 0cfc 06       		.byte	.LVU11
 4476 0cfd 1E000000 		.long	.LLRL2
 4477 0d01 02       		.byte	0x2
 4478 0d02 1E02     		.value	0x21e
 4479 0d04 0A       		.byte	0xa
 4480 0d05 00       		.byte	0
 4481 0d06 01       		.uleb128 0x1
 4482 0d07 52000000 		.long	.LVL2
 4483 0d0b 8A0C0000 		.long	0xc8a
 4484 0d0f 01       		.uleb128 0x1
 4485 0d10 8E000000 		.long	.LVL4
 4486 0d14 8A0C0000 		.long	0xc8a
 4487 0d18 01       		.uleb128 0x1
 4488 0d19 C0000000 		.long	.LVL6
 4489 0d1d 8A0C0000 		.long	0xc8a
 4490 0d21 01       		.uleb128 0x1
 4491 0d22 D2000000 		.long	.LVL7
 4492 0d26 790C0000 		.long	0xc79
 4493 0d2a 01       		.uleb128 0x1
 4494 0d2b E0000000 		.long	.LVL8
 4495 0d2f 790C0000 		.long	0xc79
 4496 0d33 01       		.uleb128 0x1
 4497 0d34 EB000000 		.long	.LVL9
 4498 0d38 710C0000 		.long	0xc71
GAS LISTING /tmp/ccVaQ2UV.s 			page 86


 4499 0d3c 01       		.uleb128 0x1
 4500 0d3d 00010000 		.long	.LVL10
 4501 0d41 550C0000 		.long	0xc55
 4502 0d45 00       		.byte	0
 4503 0d46 0E       		.uleb128 0xe
 4504 0d47 70090000 		.long	.LASF173
 4505 0d4b F003     		.value	0x3f0
 4506 0d4d 00000000 		.long	.LFB320
 4507 0d51 3C000000 		.long	.LFE320-.LFB320
 4508 0d55 01       		.uleb128 0x1
 4509 0d56 9C       		.byte	0x9c
 4510 0d57 770D0000 		.long	0xd77
 4511 0d5b 01       		.uleb128 0x1
 4512 0d5c 1B000000 		.long	.LVL31
 4513 0d60 DF0B0000 		.long	0xbdf
 4514 0d64 01       		.uleb128 0x1
 4515 0d65 29000000 		.long	.LVL32
 4516 0d69 CE0B0000 		.long	0xbce
 4517 0d6d 01       		.uleb128 0x1
 4518 0d6e 37000000 		.long	.LVL33
 4519 0d72 CE0B0000 		.long	0xbce
 4520 0d76 00       		.byte	0
 4521 0d77 0E       		.uleb128 0xe
 4522 0d78 FC030000 		.long	.LASF174
 4523 0d7c AC03     		.value	0x3ac
 4524 0d7e 00000000 		.long	.LFB319
 4525 0d82 25010000 		.long	.LFE319-.LFB319
 4526 0d86 01       		.uleb128 0x1
 4527 0d87 9C       		.byte	0x9c
 4528 0d88 1B0E0000 		.long	0xe1b
 4529 0d8c 28       		.uleb128 0x28
 4530 0d8d 2A000000 		.long	.LLRL3
 4531 0d91 FF0D0000 		.long	0xdff
 4532 0d95 18       		.uleb128 0x18
 4533 0d96 A5060000 		.long	.LASF77
 4534 0d9a B203     		.value	0x3b2
 4535 0d9c 0D       		.byte	0xd
 4536 0d9d 38010000 		.long	0x138
 4537 0da1 34000000 		.long	.LLST4
 4538 0da5 30000000 		.long	.LVUS4
 4539 0da9 07       		.uleb128 0x7
 4540 0daa F4150000 		.long	0x15f4
 4541 0dae 31000000 		.long	.LBI103
 4542 0db2 01       		.byte	.LVU138
 4543 0db3 42000000 		.long	.LLRL5
 4544 0db7 B203     		.value	0x3b2
 4545 0db9 14       		.byte	0x14
 4546 0dba D10D0000 		.long	0xdd1
 4547 0dbe 0F       		.uleb128 0xf
 4548 0dbf 00160000 		.long	0x1600
 4549 0dc3 31000000 		.long	.LBI105
 4550 0dc7 03       		.byte	.LVU140
 4551 0dc8 54000000 		.long	.LLRL6
 4552 0dcc 02       		.byte	0x2
 4553 0dcd 1E02     		.value	0x21e
 4554 0dcf 0A       		.byte	0xa
 4555 0dd0 00       		.byte	0
GAS LISTING /tmp/ccVaQ2UV.s 			page 87


 4556 0dd1 01       		.uleb128 0x1
 4557 0dd2 56000000 		.long	.LVL40
 4558 0dd6 8A0C0000 		.long	0xc8a
 4559 0dda 01       		.uleb128 0x1
 4560 0ddb 7E000000 		.long	.LVL41
 4561 0ddf 8A0C0000 		.long	0xc8a
 4562 0de3 01       		.uleb128 0x1
 4563 0de4 A1000000 		.long	.LVL42
 4564 0de8 8A0C0000 		.long	0xc8a
 4565 0dec 01       		.uleb128 0x1
 4566 0ded C4000000 		.long	.LVL43
 4567 0df1 8A0C0000 		.long	0xc8a
 4568 0df5 01       		.uleb128 0x1
 4569 0df6 E7000000 		.long	.LVL44
 4570 0dfa 8A0C0000 		.long	0xc8a
 4571 0dfe 00       		.byte	0
 4572 0dff 01       		.uleb128 0x1
 4573 0e00 03010000 		.long	.LVL45
 4574 0e04 BD0B0000 		.long	0xbbd
 4575 0e08 01       		.uleb128 0x1
 4576 0e09 08010000 		.long	.LVL46
 4577 0e0d 710C0000 		.long	0xc71
 4578 0e11 01       		.uleb128 0x1
 4579 0e12 1D010000 		.long	.LVL47
 4580 0e16 550C0000 		.long	0xc55
 4581 0e1a 00       		.byte	0
 4582 0e1b 29       		.uleb128 0x29
 4583 0e1c B0030000 		.long	.LASF177
 4584 0e20 A703     		.value	0x3a7
 4585 0e22 0E       		.uleb128 0xe
 4586 0e23 76020000 		.long	.LASF175
 4587 0e27 6503     		.value	0x365
 4588 0e29 00000000 		.long	.LFB317
 4589 0e2d 5C010000 		.long	.LFE317-.LFB317
 4590 0e31 01       		.uleb128 0x1
 4591 0e32 9C       		.byte	0x9c
 4592 0e33 4C0F0000 		.long	0xf4c
 4593 0e37 28       		.uleb128 0x28
 4594 0e38 60000000 		.long	.LLRL7
 4595 0e3c AA0E0000 		.long	0xeaa
 4596 0e40 18       		.uleb128 0x18
 4597 0e41 A5060000 		.long	.LASF77
 4598 0e45 6B03     		.value	0x36b
 4599 0e47 0D       		.byte	0xd
 4600 0e48 38010000 		.long	0x138
 4601 0e4c 4A000000 		.long	.LLST8
 4602 0e50 46000000 		.long	.LVUS8
 4603 0e54 07       		.uleb128 0x7
 4604 0e55 F4150000 		.long	0x15f4
 4605 0e59 31000000 		.long	.LBI120
 4606 0e5d 01       		.byte	.LVU189
 4607 0e5e 78000000 		.long	.LLRL9
 4608 0e62 6B03     		.value	0x36b
 4609 0e64 14       		.byte	0x14
 4610 0e65 7C0E0000 		.long	0xe7c
 4611 0e69 0F       		.uleb128 0xf
 4612 0e6a 00160000 		.long	0x1600
GAS LISTING /tmp/ccVaQ2UV.s 			page 88


 4613 0e6e 31000000 		.long	.LBI122
 4614 0e72 03       		.byte	.LVU191
 4615 0e73 8A000000 		.long	.LLRL10
 4616 0e77 02       		.byte	0x2
 4617 0e78 1E02     		.value	0x21e
 4618 0e7a 0A       		.byte	0xa
 4619 0e7b 00       		.byte	0
 4620 0e7c 01       		.uleb128 0x1
 4621 0e7d 56000000 		.long	.LVL49
 4622 0e81 8A0C0000 		.long	0xc8a
 4623 0e85 01       		.uleb128 0x1
 4624 0e86 7E000000 		.long	.LVL50
 4625 0e8a 8A0C0000 		.long	0xc8a
 4626 0e8e 01       		.uleb128 0x1
 4627 0e8f A1000000 		.long	.LVL51
 4628 0e93 8A0C0000 		.long	0xc8a
 4629 0e97 01       		.uleb128 0x1
 4630 0e98 C4000000 		.long	.LVL52
 4631 0e9c 8A0C0000 		.long	0xc8a
 4632 0ea0 01       		.uleb128 0x1
 4633 0ea1 E7000000 		.long	.LVL53
 4634 0ea5 8A0C0000 		.long	0xc8a
 4635 0ea9 00       		.byte	0
 4636 0eaa 07       		.uleb128 0x7
 4637 0eab 39160000 		.long	0x1639
 4638 0eaf 03010000 		.long	.LBI135
 4639 0eb3 01       		.byte	.LVU225
 4640 0eb4 96000000 		.long	.LLRL11
 4641 0eb8 7903     		.value	0x379
 4642 0eba 05       		.byte	0x5
 4643 0ebb D20E0000 		.long	0xed2
 4644 0ebf 0F       		.uleb128 0xf
 4645 0ec0 4D160000 		.long	0x164d
 4646 0ec4 03010000 		.long	.LBI136
 4647 0ec8 03       		.byte	.LVU227
 4648 0ec9 96000000 		.long	.LLRL11
 4649 0ecd 04       		.byte	0x4
 4650 0ece 9901     		.value	0x199
 4651 0ed0 03       		.byte	0x3
 4652 0ed1 00       		.byte	0
 4653 0ed2 38       		.uleb128 0x38
 4654 0ed3 0C160000 		.long	0x160c
 4655 0ed7 34010000 		.long	.LBI142
 4656 0edb 01       		.byte	.LVU239
 4657 0edc 34010000 		.long	.LBB142
 4658 0ee0 06000000 		.long	.LBE142-.LBB142
 4659 0ee4 01       		.byte	0x1
 4660 0ee5 8003     		.value	0x380
 4661 0ee7 05       		.byte	0x5
 4662 0ee8 030F0000 		.long	0xf03
 4663 0eec 0C       		.uleb128 0xc
 4664 0eed 43160000 		.long	0x1643
 4665 0ef1 34010000 		.long	.LBI144
 4666 0ef5 08       		.byte	.LVU246
 4667 0ef6 34010000 		.long	.LBB144
 4668 0efa 06000000 		.long	.LBE144-.LBB144
 4669 0efe 04       		.byte	0x4
GAS LISTING /tmp/ccVaQ2UV.s 			page 89


 4670 0eff B201     		.value	0x1b2
 4671 0f01 03       		.byte	0x3
 4672 0f02 00       		.byte	0
 4673 0f03 01       		.uleb128 0x1
 4674 0f04 0F010000 		.long	.LVL54
 4675 0f08 A70B0000 		.long	0xba7
 4676 0f0c 01       		.uleb128 0x1
 4677 0f0d 17010000 		.long	.LVL55
 4678 0f11 A70B0000 		.long	0xba7
 4679 0f15 01       		.uleb128 0x1
 4680 0f16 1F010000 		.long	.LVL56
 4681 0f1a A70B0000 		.long	0xba7
 4682 0f1e 01       		.uleb128 0x1
 4683 0f1f 27010000 		.long	.LVL57
 4684 0f23 A70B0000 		.long	0xba7
 4685 0f27 01       		.uleb128 0x1
 4686 0f28 2F010000 		.long	.LVL58
 4687 0f2c A70B0000 		.long	0xba7
 4688 0f30 01       		.uleb128 0x1
 4689 0f31 34010000 		.long	.LVL59
 4690 0f35 9F0B0000 		.long	0xb9f
 4691 0f39 01       		.uleb128 0x1
 4692 0f3a 3F010000 		.long	.LVL60
 4693 0f3e 710C0000 		.long	0xc71
 4694 0f42 01       		.uleb128 0x1
 4695 0f43 54010000 		.long	.LVL61
 4696 0f47 550C0000 		.long	0xc55
 4697 0f4b 00       		.byte	0
 4698 0f4c 19       		.uleb128 0x19
 4699 0f4d 06090000 		.long	.LASF183
 4700 0f51 01       		.byte	0x1
 4701 0f52 6003     		.value	0x360
 4702 0f54 0D       		.byte	0xd
 4703 0f55 01       		.byte	0x1
 4704 0f56 0E       		.uleb128 0xe
 4705 0f57 DD090000 		.long	.LASF176
 4706 0f5b 6802     		.value	0x268
 4707 0f5d 00000000 		.long	.LFB315
 4708 0f61 F0010000 		.long	.LFE315-.LFB315
 4709 0f65 01       		.uleb128 0x1
 4710 0f66 9C       		.byte	0x9c
 4711 0f67 E8100000 		.long	0x10e8
 4712 0f6b 1A       		.uleb128 0x1a
 4713 0f6c 6200     		.string	"b"
 4714 0f6e 6902     		.value	0x269
 4715 0f70 08       		.byte	0x8
 4716 0f71 36050000 		.long	0x536
 4717 0f75 64000000 		.long	.LLST16
 4718 0f79 5C000000 		.long	.LVUS16
 4719 0f7d 18       		.uleb128 0x18
 4720 0f7e A5060000 		.long	.LASF77
 4721 0f82 6A02     		.value	0x26a
 4722 0f84 0B       		.byte	0xb
 4723 0f85 38010000 		.long	0x138
 4724 0f89 84000000 		.long	.LLST17
 4725 0f8d 82000000 		.long	.LVUS17
 4726 0f91 07       		.uleb128 0x7
GAS LISTING /tmp/ccVaQ2UV.s 			page 90


 4727 0f92 F4150000 		.long	0x15f4
 4728 0f96 00000000 		.long	.LBI164
 4729 0f9a 05       		.byte	.LVU332
 4730 0f9b CC000000 		.long	.LLRL18
 4731 0f9f 6F02     		.value	0x26f
 4732 0fa1 0C       		.byte	0xc
 4733 0fa2 B90F0000 		.long	0xfb9
 4734 0fa6 0F       		.uleb128 0xf
 4735 0fa7 00160000 		.long	0x1600
 4736 0fab 00000000 		.long	.LBI166
 4737 0faf 07       		.byte	.LVU334
 4738 0fb0 DE000000 		.long	.LLRL19
 4739 0fb4 02       		.byte	0x2
 4740 0fb5 1E02     		.value	0x21e
 4741 0fb7 0A       		.byte	0xa
 4742 0fb8 00       		.byte	0
 4743 0fb9 07       		.uleb128 0x7
 4744 0fba 57160000 		.long	0x1657
 4745 0fbe C7000000 		.long	.LBI176
 4746 0fc2 02       		.byte	.LVU373
 4747 0fc3 EA000000 		.long	.LLRL20
 4748 0fc7 8B02     		.value	0x28b
 4749 0fc9 05       		.byte	0x5
 4750 0fca DC0F0000 		.long	0xfdc
 4751 0fce 2A       		.uleb128 0x2a
 4752 0fcf 69160000 		.long	0x1669
 4753 0fd3 90000000 		.long	.LLST21
 4754 0fd7 8E000000 		.long	.LVUS21
 4755 0fdb 00       		.byte	0
 4756 0fdc 07       		.uleb128 0x7
 4757 0fdd F4150000 		.long	0x15f4
 4758 0fe1 04010000 		.long	.LBI180
 4759 0fe5 01       		.byte	.LVU387
 4760 0fe6 F6000000 		.long	.LLRL22
 4761 0fea 9202     		.value	0x292
 4762 0fec 05       		.byte	0x5
 4763 0fed 08100000 		.long	0x1008
 4764 0ff1 0C       		.uleb128 0xc
 4765 0ff2 00160000 		.long	0x1600
 4766 0ff6 04010000 		.long	.LBI182
 4767 0ffa 03       		.byte	.LVU389
 4768 0ffb 04010000 		.long	.LBB182
 4769 0fff 00000000 		.long	.LBE182-.LBB182
 4770 1003 02       		.byte	0x2
 4771 1004 1E02     		.value	0x21e
 4772 1006 0A       		.byte	0xa
 4773 1007 00       		.byte	0
 4774 1008 07       		.uleb128 0x7
 4775 1009 57160000 		.long	0x1657
 4776 100d A1010000 		.long	.LBI186
 4777 1011 02       		.byte	.LVU413
 4778 1012 02010000 		.long	.LLRL23
 4779 1016 A002     		.value	0x2a0
 4780 1018 05       		.byte	0x5
 4781 1019 2B100000 		.long	0x102b
 4782 101d 2A       		.uleb128 0x2a
 4783 101e 69160000 		.long	0x1669
GAS LISTING /tmp/ccVaQ2UV.s 			page 91


 4784 1022 A0000000 		.long	.LLST24
 4785 1026 9E000000 		.long	.LVUS24
 4786 102a 00       		.byte	0
 4787 102b 07       		.uleb128 0x7
 4788 102c F4150000 		.long	0x15f4
 4789 1030 D1010000 		.long	.LBI190
 4790 1034 01       		.byte	.LVU427
 4791 1035 0E010000 		.long	.LLRL25
 4792 1039 A702     		.value	0x2a7
 4793 103b 05       		.byte	0x5
 4794 103c 57100000 		.long	0x1057
 4795 1040 0C       		.uleb128 0xc
 4796 1041 00160000 		.long	0x1600
 4797 1045 D1010000 		.long	.LBI192
 4798 1049 03       		.byte	.LVU429
 4799 104a D1010000 		.long	.LBB192
 4800 104e 00000000 		.long	.LBE192-.LBB192
 4801 1052 02       		.byte	0x2
 4802 1053 1E02     		.value	0x21e
 4803 1055 0A       		.byte	0xa
 4804 1056 00       		.byte	0
 4805 1057 01       		.uleb128 0x1
 4806 1058 3B000000 		.long	.LVL76
 4807 105c 890B0000 		.long	0xb89
 4808 1060 01       		.uleb128 0x1
 4809 1061 51000000 		.long	.LVL77
 4810 1065 6D0B0000 		.long	0xb6d
 4811 1069 01       		.uleb128 0x1
 4812 106a 70000000 		.long	.LVL78
 4813 106e 890B0000 		.long	0xb89
 4814 1072 01       		.uleb128 0x1
 4815 1073 89000000 		.long	.LVL80
 4816 1077 6D0B0000 		.long	0xb6d
 4817 107b 01       		.uleb128 0x1
 4818 107c A0000000 		.long	.LVL81
 4819 1080 210C0000 		.long	0xc21
 4820 1084 01       		.uleb128 0x1
 4821 1085 C0000000 		.long	.LVL82
 4822 1089 6D0B0000 		.long	0xb6d
 4823 108d 01       		.uleb128 0x1
 4824 108e E6000000 		.long	.LVL84
 4825 1092 6D0B0000 		.long	0xb6d
 4826 1096 01       		.uleb128 0x1
 4827 1097 1C010000 		.long	.LVL85
 4828 109b 6D0B0000 		.long	0xb6d
 4829 109f 01       		.uleb128 0x1
 4830 10a0 37010000 		.long	.LVL86
 4831 10a4 890B0000 		.long	0xb89
 4832 10a8 01       		.uleb128 0x1
 4833 10a9 46010000 		.long	.LVL87
 4834 10ad 6D0B0000 		.long	0xb6d
 4835 10b1 01       		.uleb128 0x1
 4836 10b2 5A010000 		.long	.LVL88
 4837 10b6 890B0000 		.long	0xb89
 4838 10ba 01       		.uleb128 0x1
 4839 10bb 6C010000 		.long	.LVL90
 4840 10bf 6D0B0000 		.long	0xb6d
GAS LISTING /tmp/ccVaQ2UV.s 			page 92


 4841 10c3 01       		.uleb128 0x1
 4842 10c4 7C010000 		.long	.LVL91
 4843 10c8 650B0000 		.long	0xb65
 4844 10cc 01       		.uleb128 0x1
 4845 10cd 96010000 		.long	.LVL92
 4846 10d1 6D0B0000 		.long	0xb6d
 4847 10d5 01       		.uleb128 0x1
 4848 10d6 B9010000 		.long	.LVL94
 4849 10da 6D0B0000 		.long	0xb6d
 4850 10de 01       		.uleb128 0x1
 4851 10df E8010000 		.long	.LVL95
 4852 10e3 6D0B0000 		.long	0xb6d
 4853 10e7 00       		.byte	0
 4854 10e8 29       		.uleb128 0x29
 4855 10e9 CE080000 		.long	.LASF178
 4856 10ed 6402     		.value	0x264
 4857 10ef 0E       		.uleb128 0xe
 4858 10f0 80080000 		.long	.LASF179
 4859 10f4 F301     		.value	0x1f3
 4860 10f6 00000000 		.long	.LFB313
 4861 10fa F6010000 		.long	.LFE313-.LFB313
 4862 10fe 01       		.uleb128 0x1
 4863 10ff 9C       		.byte	0x9c
 4864 1100 EB120000 		.long	0x12eb
 4865 1104 1A       		.uleb128 0x1a
 4866 1105 7000     		.string	"p"
 4867 1107 F401     		.value	0x1f4
 4868 1109 0B       		.byte	0xb
 4869 110a 38010000 		.long	0x138
 4870 110e B4000000 		.long	.LLST26
 4871 1112 AE000000 		.long	.LVUS26
 4872 1116 1A       		.uleb128 0x1a
 4873 1117 706100   		.string	"pa"
 4874 111a F401     		.value	0x1f4
 4875 111c 0E       		.byte	0xe
 4876 111d 38010000 		.long	0x138
 4877 1121 D7000000 		.long	.LLST27
 4878 1125 D3000000 		.long	.LVUS27
 4879 1129 1A       		.uleb128 0x1a
 4880 112a 706200   		.string	"pb"
 4881 112d F401     		.value	0x1f4
 4882 112f 12       		.byte	0x12
 4883 1130 38010000 		.long	0x138
 4884 1134 EB000000 		.long	.LLST28
 4885 1138 E9000000 		.long	.LVUS28
 4886 113c 07       		.uleb128 0x7
 4887 113d F4150000 		.long	0x15f4
 4888 1141 00000000 		.long	.LBI196
 4889 1145 04       		.byte	.LVU439
 4890 1146 1A010000 		.long	.LLRL29
 4891 114a FA01     		.value	0x1fa
 4892 114c 09       		.byte	0x9
 4893 114d 64110000 		.long	0x1164
 4894 1151 0F       		.uleb128 0xf
 4895 1152 00160000 		.long	0x1600
 4896 1156 00000000 		.long	.LBI198
 4897 115a 06       		.byte	.LVU441
GAS LISTING /tmp/ccVaQ2UV.s 			page 93


 4898 115b 2C010000 		.long	.LLRL30
 4899 115f 02       		.byte	0x2
 4900 1160 1E02     		.value	0x21e
 4901 1162 0A       		.byte	0xa
 4902 1163 00       		.byte	0
 4903 1164 07       		.uleb128 0x7
 4904 1165 F4150000 		.long	0x15f4
 4905 1169 B1000000 		.long	.LBI208
 4906 116d 01       		.byte	.LVU476
 4907 116e 38010000 		.long	.LLRL31
 4908 1172 0E02     		.value	0x20e
 4909 1174 05       		.byte	0x5
 4910 1175 90110000 		.long	0x1190
 4911 1179 0C       		.uleb128 0xc
 4912 117a 00160000 		.long	0x1600
 4913 117e B1000000 		.long	.LBI210
 4914 1182 03       		.byte	.LVU478
 4915 1183 B1000000 		.long	.LBB210
 4916 1187 00000000 		.long	.LBE210-.LBB210
 4917 118b 02       		.byte	0x2
 4918 118c 1E02     		.value	0x21e
 4919 118e 0A       		.byte	0xa
 4920 118f 00       		.byte	0
 4921 1190 07       		.uleb128 0x7
 4922 1191 F4150000 		.long	0x15f4
 4923 1195 F1000000 		.long	.LBI214
 4924 1199 01       		.byte	.LVU493
 4925 119a 44010000 		.long	.LLRL32
 4926 119e 1802     		.value	0x218
 4927 11a0 05       		.byte	0x5
 4928 11a1 BC110000 		.long	0x11bc
 4929 11a5 0C       		.uleb128 0xc
 4930 11a6 00160000 		.long	0x1600
 4931 11aa F1000000 		.long	.LBI216
 4932 11ae 03       		.byte	.LVU495
 4933 11af F1000000 		.long	.LBB216
 4934 11b3 00000000 		.long	.LBE216-.LBB216
 4935 11b7 02       		.byte	0x2
 4936 11b8 1E02     		.value	0x21e
 4937 11ba 0A       		.byte	0xa
 4938 11bb 00       		.byte	0
 4939 11bc 07       		.uleb128 0x7
 4940 11bd F4150000 		.long	0x15f4
 4941 11c1 2E010000 		.long	.LBI220
 4942 11c5 01       		.byte	.LVU508
 4943 11c6 50010000 		.long	.LLRL33
 4944 11ca 2202     		.value	0x222
 4945 11cc 05       		.byte	0x5
 4946 11cd E8110000 		.long	0x11e8
 4947 11d1 0C       		.uleb128 0xc
 4948 11d2 00160000 		.long	0x1600
 4949 11d6 2E010000 		.long	.LBI222
 4950 11da 03       		.byte	.LVU510
 4951 11db 2E010000 		.long	.LBB222
 4952 11df 00000000 		.long	.LBE222-.LBB222
 4953 11e3 02       		.byte	0x2
 4954 11e4 1E02     		.value	0x21e
GAS LISTING /tmp/ccVaQ2UV.s 			page 94


 4955 11e6 0A       		.byte	0xa
 4956 11e7 00       		.byte	0
 4957 11e8 07       		.uleb128 0x7
 4958 11e9 F4150000 		.long	0x15f4
 4959 11ed 62010000 		.long	.LBI226
 4960 11f1 01       		.byte	.LVU523
 4961 11f2 5C010000 		.long	.LLRL34
 4962 11f6 2C02     		.value	0x22c
 4963 11f8 05       		.byte	0x5
 4964 11f9 14120000 		.long	0x1214
 4965 11fd 0C       		.uleb128 0xc
 4966 11fe 00160000 		.long	0x1600
 4967 1202 62010000 		.long	.LBI228
 4968 1206 03       		.byte	.LVU525
 4969 1207 62010000 		.long	.LBB228
 4970 120b 00000000 		.long	.LBE228-.LBB228
 4971 120f 02       		.byte	0x2
 4972 1210 1E02     		.value	0x21e
 4973 1212 0A       		.byte	0xa
 4974 1213 00       		.byte	0
 4975 1214 07       		.uleb128 0x7
 4976 1215 F4150000 		.long	0x15f4
 4977 1219 9C010000 		.long	.LBI232
 4978 121d 01       		.byte	.LVU538
 4979 121e 68010000 		.long	.LLRL35
 4980 1222 3402     		.value	0x234
 4981 1224 05       		.byte	0x5
 4982 1225 40120000 		.long	0x1240
 4983 1229 0C       		.uleb128 0xc
 4984 122a 00160000 		.long	0x1600
 4985 122e 9C010000 		.long	.LBI234
 4986 1232 03       		.byte	.LVU540
 4987 1233 9C010000 		.long	.LBB234
 4988 1237 00000000 		.long	.LBE234-.LBB234
 4989 123b 02       		.byte	0x2
 4990 123c 1E02     		.value	0x21e
 4991 123e 0A       		.byte	0xa
 4992 123f 00       		.byte	0
 4993 1240 07       		.uleb128 0x7
 4994 1241 F4150000 		.long	0x15f4
 4995 1245 D6010000 		.long	.LBI238
 4996 1249 01       		.byte	.LVU553
 4997 124a 74010000 		.long	.LLRL36
 4998 124e 3C02     		.value	0x23c
 4999 1250 05       		.byte	0x5
 5000 1251 6C120000 		.long	0x126c
 5001 1255 0C       		.uleb128 0xc
 5002 1256 00160000 		.long	0x1600
 5003 125a D6010000 		.long	.LBI240
 5004 125e 03       		.byte	.LVU555
 5005 125f D6010000 		.long	.LBB240
 5006 1263 00000000 		.long	.LBE240-.LBB240
 5007 1267 02       		.byte	0x2
 5008 1268 1E02     		.value	0x21e
 5009 126a 0A       		.byte	0xa
 5010 126b 00       		.byte	0
 5011 126c 01       		.uleb128 0x1
GAS LISTING /tmp/ccVaQ2UV.s 			page 95


 5012 126d 5E000000 		.long	.LVL99
 5013 1271 8A0C0000 		.long	0xc8a
 5014 1275 01       		.uleb128 0x1
 5015 1276 90000000 		.long	.LVL100
 5016 127a 8A0C0000 		.long	0xc8a
 5017 127e 01       		.uleb128 0x1
 5018 127f B1000000 		.long	.LVL101
 5019 1283 440C0000 		.long	0xc44
 5020 1287 01       		.uleb128 0x1
 5021 1288 D0000000 		.long	.LVL102
 5022 128c 6D0B0000 		.long	0xb6d
 5023 1290 01       		.uleb128 0x1
 5024 1291 F1000000 		.long	.LVL105
 5025 1295 530B0000 		.long	0xb53
 5026 1299 01       		.uleb128 0x1
 5027 129a 0D010000 		.long	.LVL106
 5028 129e 6D0B0000 		.long	0xb6d
 5029 12a2 01       		.uleb128 0x1
 5030 12a3 2E010000 		.long	.LVL107
 5031 12a7 440C0000 		.long	0xc44
 5032 12ab 01       		.uleb128 0x1
 5033 12ac 4A010000 		.long	.LVL108
 5034 12b0 6D0B0000 		.long	0xb6d
 5035 12b4 01       		.uleb128 0x1
 5036 12b5 62010000 		.long	.LVL109
 5037 12b9 530B0000 		.long	0xb53
 5038 12bd 01       		.uleb128 0x1
 5039 12be 7E010000 		.long	.LVL110
 5040 12c2 6D0B0000 		.long	0xb6d
 5041 12c6 01       		.uleb128 0x1
 5042 12c7 9C010000 		.long	.LVL111
 5043 12cb 210C0000 		.long	0xc21
 5044 12cf 01       		.uleb128 0x1
 5045 12d0 B8010000 		.long	.LVL112
 5046 12d4 6D0B0000 		.long	0xb6d
 5047 12d8 01       		.uleb128 0x1
 5048 12d9 D6010000 		.long	.LVL113
 5049 12dd 210C0000 		.long	0xc21
 5050 12e1 01       		.uleb128 0x1
 5051 12e2 EE010000 		.long	.LVL114
 5052 12e6 6D0B0000 		.long	0xb6d
 5053 12ea 00       		.byte	0
 5054 12eb 0E       		.uleb128 0xe
 5055 12ec AA080000 		.long	.LASF180
 5056 12f0 EF01     		.value	0x1ef
 5057 12f2 00000000 		.long	.LFB312
 5058 12f6 19000000 		.long	.LFE312-.LFB312
 5059 12fa 01       		.uleb128 0x1
 5060 12fb 9C       		.byte	0x9c
 5061 12fc 0A130000 		.long	0x130a
 5062 1300 01       		.uleb128 0x1
 5063 1301 14000000 		.long	.LVL0
 5064 1305 710C0000 		.long	0xc71
 5065 1309 00       		.byte	0
 5066 130a 0E       		.uleb128 0xe
 5067 130b 41030000 		.long	.LASF181
 5068 130f EA01     		.value	0x1ea
GAS LISTING /tmp/ccVaQ2UV.s 			page 96


 5069 1311 00000000 		.long	.LFB311
 5070 1315 2E000000 		.long	.LFE311-.LFB311
 5071 1319 01       		.uleb128 0x1
 5072 131a 9C       		.byte	0x9c
 5073 131b 32130000 		.long	0x1332
 5074 131f 01       		.uleb128 0x1
 5075 1320 1B000000 		.long	.LVL36
 5076 1324 CE0B0000 		.long	0xbce
 5077 1328 01       		.uleb128 0x1
 5078 1329 29000000 		.long	.LVL37
 5079 132d CE0B0000 		.long	0xbce
 5080 1331 00       		.byte	0
 5081 1332 0E       		.uleb128 0xe
 5082 1333 98030000 		.long	.LASF182
 5083 1337 0301     		.value	0x103
 5084 1339 00000000 		.long	.LFB310
 5085 133d 69010000 		.long	.LFE310-.LFB310
 5086 1341 01       		.uleb128 0x1
 5087 1342 9C       		.byte	0x9c
 5088 1343 0A140000 		.long	0x140a
 5089 1347 18       		.uleb128 0x18
 5090 1348 A5060000 		.long	.LASF77
 5091 134c 0401     		.value	0x104
 5092 134e 0B       		.byte	0xb
 5093 134f 38010000 		.long	0x138
 5094 1353 F7000000 		.long	.LLST12
 5095 1357 F5000000 		.long	.LVUS12
 5096 135b 07       		.uleb128 0x7
 5097 135c F4150000 		.long	0x15f4
 5098 1360 00000000 		.long	.LBI146
 5099 1364 04       		.byte	.LVU259
 5100 1365 A2000000 		.long	.LLRL13
 5101 1369 0901     		.value	0x109
 5102 136b 0C       		.byte	0xc
 5103 136c 83130000 		.long	0x1383
 5104 1370 0F       		.uleb128 0xf
 5105 1371 00160000 		.long	0x1600
 5106 1375 00000000 		.long	.LBI148
 5107 1379 06       		.byte	.LVU261
 5108 137a B4000000 		.long	.LLRL14
 5109 137e 02       		.byte	0x2
 5110 137f 1E02     		.value	0x21e
 5111 1381 0A       		.byte	0xa
 5112 1382 00       		.byte	0
 5113 1383 07       		.uleb128 0x7
 5114 1384 F4150000 		.long	0x15f4
 5115 1388 22010000 		.long	.LBI158
 5116 138c 01       		.byte	.LVU313
 5117 138d C0000000 		.long	.LLRL15
 5118 1391 2701     		.value	0x127
 5119 1393 05       		.byte	0x5
 5120 1394 AF130000 		.long	0x13af
 5121 1398 0C       		.uleb128 0xc
 5122 1399 00160000 		.long	0x1600
 5123 139d 22010000 		.long	.LBI160
 5124 13a1 03       		.byte	.LVU315
 5125 13a2 22010000 		.long	.LBB160
GAS LISTING /tmp/ccVaQ2UV.s 			page 97


 5126 13a6 00000000 		.long	.LBE160-.LBB160
 5127 13aa 02       		.byte	0x2
 5128 13ab 1E02     		.value	0x21e
 5129 13ad 0A       		.byte	0xa
 5130 13ae 00       		.byte	0
 5131 13af 01       		.uleb128 0x1
 5132 13b0 44000000 		.long	.LVL63
 5133 13b4 440C0000 		.long	0xc44
 5134 13b8 01       		.uleb128 0x1
 5135 13b9 72000000 		.long	.LVL64
 5136 13bd 8A0C0000 		.long	0xc8a
 5137 13c1 01       		.uleb128 0x1
 5138 13c2 9A000000 		.long	.LVL65
 5139 13c6 8A0C0000 		.long	0xc8a
 5140 13ca 01       		.uleb128 0x1
 5141 13cb BD000000 		.long	.LVL66
 5142 13cf 8A0C0000 		.long	0xc8a
 5143 13d3 01       		.uleb128 0x1
 5144 13d4 E0000000 		.long	.LVL67
 5145 13d8 8A0C0000 		.long	0xc8a
 5146 13dc 01       		.uleb128 0x1
 5147 13dd 03010000 		.long	.LVL68
 5148 13e1 8A0C0000 		.long	0xc8a
 5149 13e5 01       		.uleb128 0x1
 5150 13e6 1D010000 		.long	.LVL69
 5151 13ea 210C0000 		.long	0xc21
 5152 13ee 01       		.uleb128 0x1
 5153 13ef 22010000 		.long	.LVL70
 5154 13f3 710C0000 		.long	0xc71
 5155 13f7 01       		.uleb128 0x1
 5156 13f8 41010000 		.long	.LVL71
 5157 13fc 6D0B0000 		.long	0xb6d
 5158 1400 01       		.uleb128 0x1
 5159 1401 5E010000 		.long	.LVL72
 5160 1405 550C0000 		.long	0xc55
 5161 1409 00       		.byte	0
 5162 140a 39       		.uleb128 0x39
 5163 140b A2040000 		.long	.LASF184
 5164 140f 01       		.byte	0x1
 5165 1410 FF       		.byte	0xff
 5166 1411 0D       		.byte	0xd
 5167 1412 01       		.byte	0x1
 5168 1413 14       		.uleb128 0x14
 5169 1414 D6010000 		.long	.LASF185
 5170 1418 DF       		.byte	0xdf
 5171 1419 00000000 		.long	.LFB308
 5172 141d 39000000 		.long	.LFE308-.LFB308
 5173 1421 01       		.uleb128 0x1
 5174 1422 9C       		.byte	0x9c
 5175 1423 4E140000 		.long	0x144e
 5176 1427 15       		.uleb128 0x15
 5177 1428 7000     		.string	"p"
 5178 142a DF       		.byte	0xdf
 5179 142b B6000000 		.long	0xb6
 5180 142f 02       		.uleb128 0x2
 5181 1430 91       		.byte	0x91
 5182 1431 00       		.sleb128 0
GAS LISTING /tmp/ccVaQ2UV.s 			page 98


 5183 1432 01       		.uleb128 0x1
 5184 1433 1C000000 		.long	.LVL12
 5185 1437 440C0000 		.long	0xc44
 5186 143b 01       		.uleb128 0x1
 5187 143c 2B000000 		.long	.LVL13
 5188 1440 320C0000 		.long	0xc32
 5189 1444 01       		.uleb128 0x1
 5190 1445 33000000 		.long	.LVL14
 5191 1449 210C0000 		.long	0xc21
 5192 144d 00       		.byte	0
 5193 144e 14       		.uleb128 0x14
 5194 144f C8010000 		.long	.LASF186
 5195 1453 D1       		.byte	0xd1
 5196 1454 00000000 		.long	.LFB307
 5197 1458 61000000 		.long	.LFE307-.LFB307
 5198 145c 01       		.uleb128 0x1
 5199 145d 9C       		.byte	0x9c
 5200 145e A4140000 		.long	0x14a4
 5201 1462 15       		.uleb128 0x15
 5202 1463 7000     		.string	"p"
 5203 1465 D1       		.byte	0xd1
 5204 1466 B6000000 		.long	0xb6
 5205 146a 02       		.uleb128 0x2
 5206 146b 91       		.byte	0x91
 5207 146c 00       		.sleb128 0
 5208 146d 01       		.uleb128 0x1
 5209 146e 23000000 		.long	.LVL25
 5210 1472 440C0000 		.long	0xc44
 5211 1476 01       		.uleb128 0x1
 5212 1477 2B000000 		.long	.LVL26
 5213 147b 440C0000 		.long	0xc44
 5214 147f 01       		.uleb128 0x1
 5215 1480 3B000000 		.long	.LVL27
 5216 1484 F00B0000 		.long	0xbf0
 5217 1488 01       		.uleb128 0x1
 5218 1489 4A000000 		.long	.LVL28
 5219 148d 320C0000 		.long	0xc32
 5220 1491 01       		.uleb128 0x1
 5221 1492 52000000 		.long	.LVL29
 5222 1496 210C0000 		.long	0xc21
 5223 149a 01       		.uleb128 0x1
 5224 149b 5A000000 		.long	.LVL30
 5225 149f 210C0000 		.long	0xc21
 5226 14a3 00       		.byte	0
 5227 14a4 14       		.uleb128 0x14
 5228 14a5 53060000 		.long	.LASF187
 5229 14a9 C9       		.byte	0xc9
 5230 14aa 00000000 		.long	.LFB306
 5231 14ae 47000000 		.long	.LFE306-.LFB306
 5232 14b2 01       		.uleb128 0x1
 5233 14b3 9C       		.byte	0x9c
 5234 14b4 E8140000 		.long	0x14e8
 5235 14b8 15       		.uleb128 0x15
 5236 14b9 7000     		.string	"p"
 5237 14bb C9       		.byte	0xc9
 5238 14bc B6000000 		.long	0xb6
 5239 14c0 02       		.uleb128 0x2
GAS LISTING /tmp/ccVaQ2UV.s 			page 99


 5240 14c1 91       		.byte	0x91
 5241 14c2 00       		.sleb128 0
 5242 14c3 01       		.uleb128 0x1
 5243 14c4 1C000000 		.long	.LVL20
 5244 14c8 440C0000 		.long	0xc44
 5245 14cc 01       		.uleb128 0x1
 5246 14cd 2A000000 		.long	.LVL21
 5247 14d1 0B0C0000 		.long	0xc0b
 5248 14d5 01       		.uleb128 0x1
 5249 14d6 39000000 		.long	.LVL22
 5250 14da 320C0000 		.long	0xc32
 5251 14de 01       		.uleb128 0x1
 5252 14df 41000000 		.long	.LVL23
 5253 14e3 210C0000 		.long	0xc21
 5254 14e7 00       		.byte	0
 5255 14e8 14       		.uleb128 0x14
 5256 14e9 1C000000 		.long	.LASF188
 5257 14ed BD       		.byte	0xbd
 5258 14ee 00000000 		.long	.LFB305
 5259 14f2 4F000000 		.long	.LFE305-.LFB305
 5260 14f6 01       		.uleb128 0x1
 5261 14f7 9C       		.byte	0x9c
 5262 14f8 7E150000 		.long	0x157e
 5263 14fc 15       		.uleb128 0x15
 5264 14fd 7000     		.string	"p"
 5265 14ff BD       		.byte	0xbd
 5266 1500 B6000000 		.long	0xb6
 5267 1504 02       		.uleb128 0x2
 5268 1505 91       		.byte	0x91
 5269 1506 00       		.sleb128 0
 5270 1507 2B       		.uleb128 0x2b
 5271 1508 39160000 		.long	0x1639
 5272 150c 1B000000 		.long	.LBI244
 5273 1510 01       		.byte	.LVU577
 5274 1511 80010000 		.long	.LLRL37
 5275 1515 C1       		.byte	0xc1
 5276 1516 2D150000 		.long	0x152d
 5277 151a 0F       		.uleb128 0xf
 5278 151b 4D160000 		.long	0x164d
 5279 151f 1B000000 		.long	.LBI245
 5280 1523 03       		.byte	.LVU579
 5281 1524 80010000 		.long	.LLRL37
 5282 1528 04       		.byte	0x4
 5283 1529 9901     		.value	0x199
 5284 152b 03       		.byte	0x3
 5285 152c 00       		.byte	0
 5286 152d 2B       		.uleb128 0x2b
 5287 152e 0C160000 		.long	0x160c
 5288 1532 42000000 		.long	.LBI250
 5289 1536 01       		.byte	.LVU590
 5290 1537 8C010000 		.long	.LLRL38
 5291 153b C5       		.byte	0xc5
 5292 153c 59150000 		.long	0x1559
 5293 1540 3A       		.uleb128 0x3a
 5294 1541 8C010000 		.long	.LLRL38
 5295 1545 0F       		.uleb128 0xf
 5296 1546 43160000 		.long	0x1643
GAS LISTING /tmp/ccVaQ2UV.s 			page 100


 5297 154a 42000000 		.long	.LBI252
 5298 154e 08       		.byte	.LVU597
 5299 154f 8C010000 		.long	.LLRL38
 5300 1553 04       		.byte	0x4
 5301 1554 B201     		.value	0x1b2
 5302 1556 03       		.byte	0x3
 5303 1557 00       		.byte	0
 5304 1558 00       		.byte	0
 5305 1559 01       		.uleb128 0x1
 5306 155a 1B000000 		.long	.LVL120
 5307 155e 530B0000 		.long	0xb53
 5308 1562 01       		.uleb128 0x1
 5309 1563 35000000 		.long	.LVL121
 5310 1567 420B0000 		.long	0xb42
 5311 156b 01       		.uleb128 0x1
 5312 156c 3D000000 		.long	.LVL122
 5313 1570 310B0000 		.long	0xb31
 5314 1574 01       		.uleb128 0x1
 5315 1575 42000000 		.long	.LVL123
 5316 1579 9F0B0000 		.long	0xb9f
 5317 157d 00       		.byte	0
 5318 157e 14       		.uleb128 0x14
 5319 157f 13000000 		.long	.LASF189
 5320 1583 B5       		.byte	0xb5
 5321 1584 00000000 		.long	.LFB304
 5322 1588 33000000 		.long	.LFE304-.LFB304
 5323 158c 01       		.uleb128 0x1
 5324 158d 9C       		.byte	0x9c
 5325 158e B9150000 		.long	0x15b9
 5326 1592 15       		.uleb128 0x15
 5327 1593 7000     		.string	"p"
 5328 1595 B5       		.byte	0xb5
 5329 1596 B6000000 		.long	0xb6
 5330 159a 02       		.uleb128 0x2
 5331 159b 91       		.byte	0x91
 5332 159c 00       		.sleb128 0
 5333 159d 01       		.uleb128 0x1
 5334 159e 17000000 		.long	.LVL116
 5335 15a2 530B0000 		.long	0xb53
 5336 15a6 01       		.uleb128 0x1
 5337 15a7 25000000 		.long	.LVL117
 5338 15ab 440C0000 		.long	0xc44
 5339 15af 01       		.uleb128 0x1
 5340 15b0 2D000000 		.long	.LVL118
 5341 15b4 210C0000 		.long	0xc21
 5342 15b8 00       		.byte	0
 5343 15b9 14       		.uleb128 0x14
 5344 15ba F4070000 		.long	.LASF190
 5345 15be 55       		.byte	0x55
 5346 15bf 00000000 		.long	.LFB303
 5347 15c3 39000000 		.long	.LFE303-.LFB303
 5348 15c7 01       		.uleb128 0x1
 5349 15c8 9C       		.byte	0x9c
 5350 15c9 F4150000 		.long	0x15f4
 5351 15cd 15       		.uleb128 0x15
 5352 15ce 7000     		.string	"p"
 5353 15d0 55       		.byte	0x55
GAS LISTING /tmp/ccVaQ2UV.s 			page 101


 5354 15d1 B6000000 		.long	0xb6
 5355 15d5 02       		.uleb128 0x2
 5356 15d6 91       		.byte	0x91
 5357 15d7 00       		.sleb128 0
 5358 15d8 01       		.uleb128 0x1
 5359 15d9 1C000000 		.long	.LVL16
 5360 15dd 440C0000 		.long	0xc44
 5361 15e1 01       		.uleb128 0x1
 5362 15e2 2B000000 		.long	.LVL17
 5363 15e6 320C0000 		.long	0xc32
 5364 15ea 01       		.uleb128 0x1
 5365 15eb 33000000 		.long	.LVL18
 5366 15ef 210C0000 		.long	0xc21
 5367 15f3 00       		.byte	0
 5368 15f4 2C       		.uleb128 0x2c
 5369 15f5 6B060000 		.long	.LASF191
 5370 15f9 1C02     		.value	0x21c
 5371 15fb 17       		.byte	0x17
 5372 15fc 38010000 		.long	0x138
 5373 1600 2C       		.uleb128 0x2c
 5374 1601 5A090000 		.long	.LASF192
 5375 1605 0F02     		.value	0x20f
 5376 1607 19       		.byte	0x19
 5377 1608 BE050000 		.long	0x5be
 5378 160c 3B       		.uleb128 0x3b
 5379 160d AD090000 		.long	.LASF198
 5380 1611 04       		.byte	0x4
 5381 1612 A501     		.value	0x1a5
 5382 1614 14       		.byte	0x14
 5383 1615 03       		.byte	0x3
 5384 1616 24160000 		.long	0x1624
 5385 161a 3C       		.uleb128 0x3c
 5386 161b 78070000 		.long	.LASF199
 5387 161f 34160000 		.long	0x1634
 5388 1623 00       		.byte	0
 5389 1624 11       		.uleb128 0x11
 5390 1625 C9000000 		.long	0xc9
 5391 1629 34160000 		.long	0x1634
 5392 162d 12       		.uleb128 0x12
 5393 162e 39000000 		.long	0x39
 5394 1632 0B       		.byte	0xb
 5395 1633 00       		.byte	0
 5396 1634 0B       		.uleb128 0xb
 5397 1635 24160000 		.long	0x1624
 5398 1639 19       		.uleb128 0x19
 5399 163a 81070000 		.long	.LASF193
 5400 163e 04       		.byte	0x4
 5401 163f 9701     		.value	0x197
 5402 1641 14       		.byte	0x14
 5403 1642 03       		.byte	0x3
 5404 1643 19       		.uleb128 0x19
 5405 1644 9C010000 		.long	.LASF194
 5406 1648 03       		.byte	0x3
 5407 1649 7201     		.value	0x172
 5408 164b 14       		.byte	0x14
 5409 164c 03       		.byte	0x3
 5410 164d 19       		.uleb128 0x19
GAS LISTING /tmp/ccVaQ2UV.s 			page 102


 5411 164e D3090000 		.long	.LASF195
 5412 1652 03       		.byte	0x3
 5413 1653 6901     		.value	0x169
 5414 1655 14       		.byte	0x14
 5415 1656 03       		.byte	0x3
 5416 1657 3D       		.uleb128 0x3d
 5417 1658 6F080000 		.long	.LASF200
 5418 165c 05       		.byte	0x5
 5419 165d 2801     		.value	0x128
 5420 165f 14       		.byte	0x14
 5421 1660 36050000 		.long	0x536
 5422 1664 03       		.byte	0x3
 5423 1665 76160000 		.long	0x1676
 5424 1669 3E       		.uleb128 0x3e
 5425 166a 717000   		.string	"qp"
 5426 166d 05       		.byte	0x5
 5427 166e 2801     		.value	0x128
 5428 1670 37       		.byte	0x37
 5429 1671 76160000 		.long	0x1676
 5430 1675 00       		.byte	0
 5431 1676 05       		.uleb128 0x5
 5432 1677 C8030000 		.long	0x3c8
 5433 167b 3F       		.uleb128 0x3f
 5434 167c 4C0F0000 		.long	0xf4c
 5435 1680 00000000 		.long	.LFB316
 5436 1684 2E000000 		.long	.LFE316-.LFB316
 5437 1688 01       		.uleb128 0x1
 5438 1689 9C       		.byte	0x9c
 5439 168a A1160000 		.long	0x16a1
 5440 168e 01       		.uleb128 0x1
 5441 168f 1B000000 		.long	.LVL34
 5442 1693 DF0B0000 		.long	0xbdf
 5443 1697 01       		.uleb128 0x1
 5444 1698 29000000 		.long	.LVL35
 5445 169c CE0B0000 		.long	0xbce
 5446 16a0 00       		.byte	0
 5447 16a1 40       		.uleb128 0x40
 5448 16a2 0A140000 		.long	0x140a
 5449 16a6 00000000 		.long	.LFB309
 5450 16aa 20000000 		.long	.LFE309-.LFB309
 5451 16ae 01       		.uleb128 0x1
 5452 16af 9C       		.byte	0x9c
 5453 16b0 01       		.uleb128 0x1
 5454 16b1 1B000000 		.long	.LVL38
 5455 16b5 CE0B0000 		.long	0xbce
 5456 16b9 00       		.byte	0
 5457 16ba 00       		.byte	0
 5458              		.section	.debug_abbrev,"",@progbits
 5459              	.Ldebug_abbrev0:
 5460 0000 01       		.uleb128 0x1
 5461 0001 48       		.uleb128 0x48
 5462 0002 00       		.byte	0
 5463 0003 7D       		.uleb128 0x7d
 5464 0004 01       		.uleb128 0x1
 5465 0005 7F       		.uleb128 0x7f
 5466 0006 13       		.uleb128 0x13
 5467 0007 00       		.byte	0
GAS LISTING /tmp/ccVaQ2UV.s 			page 103


 5468 0008 00       		.byte	0
 5469 0009 02       		.uleb128 0x2
 5470 000a 0D       		.uleb128 0xd
 5471 000b 00       		.byte	0
 5472 000c 03       		.uleb128 0x3
 5473 000d 0E       		.uleb128 0xe
 5474 000e 3A       		.uleb128 0x3a
 5475 000f 0B       		.uleb128 0xb
 5476 0010 3B       		.uleb128 0x3b
 5477 0011 0B       		.uleb128 0xb
 5478 0012 39       		.uleb128 0x39
 5479 0013 0B       		.uleb128 0xb
 5480 0014 49       		.uleb128 0x49
 5481 0015 13       		.uleb128 0x13
 5482 0016 38       		.uleb128 0x38
 5483 0017 0B       		.uleb128 0xb
 5484 0018 00       		.byte	0
 5485 0019 00       		.byte	0
 5486 001a 03       		.uleb128 0x3
 5487 001b 16       		.uleb128 0x16
 5488 001c 00       		.byte	0
 5489 001d 03       		.uleb128 0x3
 5490 001e 0E       		.uleb128 0xe
 5491 001f 3A       		.uleb128 0x3a
 5492 0020 0B       		.uleb128 0xb
 5493 0021 3B       		.uleb128 0x3b
 5494 0022 0B       		.uleb128 0xb
 5495 0023 39       		.uleb128 0x39
 5496 0024 0B       		.uleb128 0xb
 5497 0025 49       		.uleb128 0x49
 5498 0026 13       		.uleb128 0x13
 5499 0027 00       		.byte	0
 5500 0028 00       		.byte	0
 5501 0029 04       		.uleb128 0x4
 5502 002a 05       		.uleb128 0x5
 5503 002b 00       		.byte	0
 5504 002c 49       		.uleb128 0x49
 5505 002d 13       		.uleb128 0x13
 5506 002e 00       		.byte	0
 5507 002f 00       		.byte	0
 5508 0030 05       		.uleb128 0x5
 5509 0031 0F       		.uleb128 0xf
 5510 0032 00       		.byte	0
 5511 0033 0B       		.uleb128 0xb
 5512 0034 21       		.uleb128 0x21
 5513 0035 04       		.sleb128 4
 5514 0036 49       		.uleb128 0x49
 5515 0037 13       		.uleb128 0x13
 5516 0038 00       		.byte	0
 5517 0039 00       		.byte	0
 5518 003a 06       		.uleb128 0x6
 5519 003b 0D       		.uleb128 0xd
 5520 003c 00       		.byte	0
 5521 003d 03       		.uleb128 0x3
 5522 003e 0E       		.uleb128 0xe
 5523 003f 3A       		.uleb128 0x3a
 5524 0040 21       		.uleb128 0x21
GAS LISTING /tmp/ccVaQ2UV.s 			page 104


 5525 0041 0C       		.sleb128 12
 5526 0042 3B       		.uleb128 0x3b
 5527 0043 05       		.uleb128 0x5
 5528 0044 39       		.uleb128 0x39
 5529 0045 0B       		.uleb128 0xb
 5530 0046 49       		.uleb128 0x49
 5531 0047 13       		.uleb128 0x13
 5532 0048 38       		.uleb128 0x38
 5533 0049 0B       		.uleb128 0xb
 5534 004a 00       		.byte	0
 5535 004b 00       		.byte	0
 5536 004c 07       		.uleb128 0x7
 5537 004d 1D       		.uleb128 0x1d
 5538 004e 01       		.byte	0x1
 5539 004f 31       		.uleb128 0x31
 5540 0050 13       		.uleb128 0x13
 5541 0051 52       		.uleb128 0x52
 5542 0052 01       		.uleb128 0x1
 5543 0053 B842     		.uleb128 0x2138
 5544 0055 0B       		.uleb128 0xb
 5545 0056 55       		.uleb128 0x55
 5546 0057 17       		.uleb128 0x17
 5547 0058 58       		.uleb128 0x58
 5548 0059 21       		.uleb128 0x21
 5549 005a 01       		.sleb128 1
 5550 005b 59       		.uleb128 0x59
 5551 005c 05       		.uleb128 0x5
 5552 005d 57       		.uleb128 0x57
 5553 005e 0B       		.uleb128 0xb
 5554 005f 01       		.uleb128 0x1
 5555 0060 13       		.uleb128 0x13
 5556 0061 00       		.byte	0
 5557 0062 00       		.byte	0
 5558 0063 08       		.uleb128 0x8
 5559 0064 13       		.uleb128 0x13
 5560 0065 01       		.byte	0x1
 5561 0066 03       		.uleb128 0x3
 5562 0067 0E       		.uleb128 0xe
 5563 0068 0B       		.uleb128 0xb
 5564 0069 0B       		.uleb128 0xb
 5565 006a 3A       		.uleb128 0x3a
 5566 006b 0B       		.uleb128 0xb
 5567 006c 3B       		.uleb128 0x3b
 5568 006d 0B       		.uleb128 0xb
 5569 006e 39       		.uleb128 0x39
 5570 006f 0B       		.uleb128 0xb
 5571 0070 01       		.uleb128 0x1
 5572 0071 13       		.uleb128 0x13
 5573 0072 00       		.byte	0
 5574 0073 00       		.byte	0
 5575 0074 09       		.uleb128 0x9
 5576 0075 24       		.uleb128 0x24
 5577 0076 00       		.byte	0
 5578 0077 0B       		.uleb128 0xb
 5579 0078 0B       		.uleb128 0xb
 5580 0079 3E       		.uleb128 0x3e
 5581 007a 0B       		.uleb128 0xb
GAS LISTING /tmp/ccVaQ2UV.s 			page 105


 5582 007b 03       		.uleb128 0x3
 5583 007c 0E       		.uleb128 0xe
 5584 007d 00       		.byte	0
 5585 007e 00       		.byte	0
 5586 007f 0A       		.uleb128 0xa
 5587 0080 0D       		.uleb128 0xd
 5588 0081 00       		.byte	0
 5589 0082 03       		.uleb128 0x3
 5590 0083 08       		.uleb128 0x8
 5591 0084 3A       		.uleb128 0x3a
 5592 0085 0B       		.uleb128 0xb
 5593 0086 3B       		.uleb128 0x3b
 5594 0087 0B       		.uleb128 0xb
 5595 0088 39       		.uleb128 0x39
 5596 0089 0B       		.uleb128 0xb
 5597 008a 49       		.uleb128 0x49
 5598 008b 13       		.uleb128 0x13
 5599 008c 38       		.uleb128 0x38
 5600 008d 0B       		.uleb128 0xb
 5601 008e 00       		.byte	0
 5602 008f 00       		.byte	0
 5603 0090 0B       		.uleb128 0xb
 5604 0091 26       		.uleb128 0x26
 5605 0092 00       		.byte	0
 5606 0093 49       		.uleb128 0x49
 5607 0094 13       		.uleb128 0x13
 5608 0095 00       		.byte	0
 5609 0096 00       		.byte	0
 5610 0097 0C       		.uleb128 0xc
 5611 0098 1D       		.uleb128 0x1d
 5612 0099 00       		.byte	0
 5613 009a 31       		.uleb128 0x31
 5614 009b 13       		.uleb128 0x13
 5615 009c 52       		.uleb128 0x52
 5616 009d 01       		.uleb128 0x1
 5617 009e B842     		.uleb128 0x2138
 5618 00a0 0B       		.uleb128 0xb
 5619 00a1 11       		.uleb128 0x11
 5620 00a2 01       		.uleb128 0x1
 5621 00a3 12       		.uleb128 0x12
 5622 00a4 06       		.uleb128 0x6
 5623 00a5 58       		.uleb128 0x58
 5624 00a6 0B       		.uleb128 0xb
 5625 00a7 59       		.uleb128 0x59
 5626 00a8 05       		.uleb128 0x5
 5627 00a9 57       		.uleb128 0x57
 5628 00aa 0B       		.uleb128 0xb
 5629 00ab 00       		.byte	0
 5630 00ac 00       		.byte	0
 5631 00ad 0D       		.uleb128 0xd
 5632 00ae 2E       		.uleb128 0x2e
 5633 00af 01       		.byte	0x1
 5634 00b0 3F       		.uleb128 0x3f
 5635 00b1 19       		.uleb128 0x19
 5636 00b2 03       		.uleb128 0x3
 5637 00b3 0E       		.uleb128 0xe
 5638 00b4 3A       		.uleb128 0x3a
GAS LISTING /tmp/ccVaQ2UV.s 			page 106


 5639 00b5 0B       		.uleb128 0xb
 5640 00b6 3B       		.uleb128 0x3b
 5641 00b7 0B       		.uleb128 0xb
 5642 00b8 39       		.uleb128 0x39
 5643 00b9 21       		.uleb128 0x21
 5644 00ba 08       		.sleb128 8
 5645 00bb 27       		.uleb128 0x27
 5646 00bc 19       		.uleb128 0x19
 5647 00bd 3C       		.uleb128 0x3c
 5648 00be 19       		.uleb128 0x19
 5649 00bf 01       		.uleb128 0x1
 5650 00c0 13       		.uleb128 0x13
 5651 00c1 00       		.byte	0
 5652 00c2 00       		.byte	0
 5653 00c3 0E       		.uleb128 0xe
 5654 00c4 2E       		.uleb128 0x2e
 5655 00c5 01       		.byte	0x1
 5656 00c6 03       		.uleb128 0x3
 5657 00c7 0E       		.uleb128 0xe
 5658 00c8 3A       		.uleb128 0x3a
 5659 00c9 21       		.uleb128 0x21
 5660 00ca 01       		.sleb128 1
 5661 00cb 3B       		.uleb128 0x3b
 5662 00cc 05       		.uleb128 0x5
 5663 00cd 39       		.uleb128 0x39
 5664 00ce 21       		.uleb128 0x21
 5665 00cf 0D       		.sleb128 13
 5666 00d0 27       		.uleb128 0x27
 5667 00d1 19       		.uleb128 0x19
 5668 00d2 11       		.uleb128 0x11
 5669 00d3 01       		.uleb128 0x1
 5670 00d4 12       		.uleb128 0x12
 5671 00d5 06       		.uleb128 0x6
 5672 00d6 40       		.uleb128 0x40
 5673 00d7 18       		.uleb128 0x18
 5674 00d8 7A       		.uleb128 0x7a
 5675 00d9 19       		.uleb128 0x19
 5676 00da 01       		.uleb128 0x1
 5677 00db 13       		.uleb128 0x13
 5678 00dc 00       		.byte	0
 5679 00dd 00       		.byte	0
 5680 00de 0F       		.uleb128 0xf
 5681 00df 1D       		.uleb128 0x1d
 5682 00e0 00       		.byte	0
 5683 00e1 31       		.uleb128 0x31
 5684 00e2 13       		.uleb128 0x13
 5685 00e3 52       		.uleb128 0x52
 5686 00e4 01       		.uleb128 0x1
 5687 00e5 B842     		.uleb128 0x2138
 5688 00e7 0B       		.uleb128 0xb
 5689 00e8 55       		.uleb128 0x55
 5690 00e9 17       		.uleb128 0x17
 5691 00ea 58       		.uleb128 0x58
 5692 00eb 0B       		.uleb128 0xb
 5693 00ec 59       		.uleb128 0x59
 5694 00ed 05       		.uleb128 0x5
 5695 00ee 57       		.uleb128 0x57
GAS LISTING /tmp/ccVaQ2UV.s 			page 107


 5696 00ef 0B       		.uleb128 0xb
 5697 00f0 00       		.byte	0
 5698 00f1 00       		.byte	0
 5699 00f2 10       		.uleb128 0x10
 5700 00f3 0D       		.uleb128 0xd
 5701 00f4 00       		.byte	0
 5702 00f5 03       		.uleb128 0x3
 5703 00f6 0E       		.uleb128 0xe
 5704 00f7 3A       		.uleb128 0x3a
 5705 00f8 21       		.uleb128 0x21
 5706 00f9 0C       		.sleb128 12
 5707 00fa 3B       		.uleb128 0x3b
 5708 00fb 05       		.uleb128 0x5
 5709 00fc 39       		.uleb128 0x39
 5710 00fd 0B       		.uleb128 0xb
 5711 00fe 49       		.uleb128 0x49
 5712 00ff 13       		.uleb128 0x13
 5713 0100 00       		.byte	0
 5714 0101 00       		.byte	0
 5715 0102 11       		.uleb128 0x11
 5716 0103 01       		.uleb128 0x1
 5717 0104 01       		.byte	0x1
 5718 0105 49       		.uleb128 0x49
 5719 0106 13       		.uleb128 0x13
 5720 0107 01       		.uleb128 0x1
 5721 0108 13       		.uleb128 0x13
 5722 0109 00       		.byte	0
 5723 010a 00       		.byte	0
 5724 010b 12       		.uleb128 0x12
 5725 010c 21       		.uleb128 0x21
 5726 010d 00       		.byte	0
 5727 010e 49       		.uleb128 0x49
 5728 010f 13       		.uleb128 0x13
 5729 0110 2F       		.uleb128 0x2f
 5730 0111 0B       		.uleb128 0xb
 5731 0112 00       		.byte	0
 5732 0113 00       		.byte	0
 5733 0114 13       		.uleb128 0x13
 5734 0115 34       		.uleb128 0x34
 5735 0116 00       		.byte	0
 5736 0117 03       		.uleb128 0x3
 5737 0118 0E       		.uleb128 0xe
 5738 0119 3A       		.uleb128 0x3a
 5739 011a 21       		.uleb128 0x21
 5740 011b 01       		.sleb128 1
 5741 011c 3B       		.uleb128 0x3b
 5742 011d 05       		.uleb128 0x5
 5743 011e 39       		.uleb128 0x39
 5744 011f 21       		.uleb128 0x21
 5745 0120 19       		.sleb128 25
 5746 0121 49       		.uleb128 0x49
 5747 0122 13       		.uleb128 0x13
 5748 0123 02       		.uleb128 0x2
 5749 0124 18       		.uleb128 0x18
 5750 0125 00       		.byte	0
 5751 0126 00       		.byte	0
 5752 0127 14       		.uleb128 0x14
GAS LISTING /tmp/ccVaQ2UV.s 			page 108


 5753 0128 2E       		.uleb128 0x2e
 5754 0129 01       		.byte	0x1
 5755 012a 03       		.uleb128 0x3
 5756 012b 0E       		.uleb128 0xe
 5757 012c 3A       		.uleb128 0x3a
 5758 012d 21       		.uleb128 0x21
 5759 012e 01       		.sleb128 1
 5760 012f 3B       		.uleb128 0x3b
 5761 0130 0B       		.uleb128 0xb
 5762 0131 39       		.uleb128 0x39
 5763 0132 21       		.uleb128 0x21
 5764 0133 08       		.sleb128 8
 5765 0134 27       		.uleb128 0x27
 5766 0135 19       		.uleb128 0x19
 5767 0136 11       		.uleb128 0x11
 5768 0137 01       		.uleb128 0x1
 5769 0138 12       		.uleb128 0x12
 5770 0139 06       		.uleb128 0x6
 5771 013a 40       		.uleb128 0x40
 5772 013b 18       		.uleb128 0x18
 5773 013c 7A       		.uleb128 0x7a
 5774 013d 19       		.uleb128 0x19
 5775 013e 01       		.uleb128 0x1
 5776 013f 13       		.uleb128 0x13
 5777 0140 00       		.byte	0
 5778 0141 00       		.byte	0
 5779 0142 15       		.uleb128 0x15
 5780 0143 05       		.uleb128 0x5
 5781 0144 00       		.byte	0
 5782 0145 03       		.uleb128 0x3
 5783 0146 08       		.uleb128 0x8
 5784 0147 3A       		.uleb128 0x3a
 5785 0148 21       		.uleb128 0x21
 5786 0149 01       		.sleb128 1
 5787 014a 3B       		.uleb128 0x3b
 5788 014b 0B       		.uleb128 0xb
 5789 014c 39       		.uleb128 0x39
 5790 014d 21       		.uleb128 0x21
 5791 014e 08       		.sleb128 8
 5792 014f 49       		.uleb128 0x49
 5793 0150 13       		.uleb128 0x13
 5794 0151 02       		.uleb128 0x2
 5795 0152 18       		.uleb128 0x18
 5796 0153 00       		.byte	0
 5797 0154 00       		.byte	0
 5798 0155 16       		.uleb128 0x16
 5799 0156 13       		.uleb128 0x13
 5800 0157 01       		.byte	0x1
 5801 0158 0B       		.uleb128 0xb
 5802 0159 0B       		.uleb128 0xb
 5803 015a 3A       		.uleb128 0x3a
 5804 015b 0B       		.uleb128 0xb
 5805 015c 3B       		.uleb128 0x3b
 5806 015d 0B       		.uleb128 0xb
 5807 015e 39       		.uleb128 0x39
 5808 015f 21       		.uleb128 0x21
 5809 0160 09       		.sleb128 9
GAS LISTING /tmp/ccVaQ2UV.s 			page 109


 5810 0161 01       		.uleb128 0x1
 5811 0162 13       		.uleb128 0x13
 5812 0163 00       		.byte	0
 5813 0164 00       		.byte	0
 5814 0165 17       		.uleb128 0x17
 5815 0166 15       		.uleb128 0x15
 5816 0167 01       		.byte	0x1
 5817 0168 27       		.uleb128 0x27
 5818 0169 19       		.uleb128 0x19
 5819 016a 49       		.uleb128 0x49
 5820 016b 13       		.uleb128 0x13
 5821 016c 01       		.uleb128 0x1
 5822 016d 13       		.uleb128 0x13
 5823 016e 00       		.byte	0
 5824 016f 00       		.byte	0
 5825 0170 18       		.uleb128 0x18
 5826 0171 34       		.uleb128 0x34
 5827 0172 00       		.byte	0
 5828 0173 03       		.uleb128 0x3
 5829 0174 0E       		.uleb128 0xe
 5830 0175 3A       		.uleb128 0x3a
 5831 0176 21       		.uleb128 0x21
 5832 0177 01       		.sleb128 1
 5833 0178 3B       		.uleb128 0x3b
 5834 0179 05       		.uleb128 0x5
 5835 017a 39       		.uleb128 0x39
 5836 017b 0B       		.uleb128 0xb
 5837 017c 49       		.uleb128 0x49
 5838 017d 13       		.uleb128 0x13
 5839 017e 02       		.uleb128 0x2
 5840 017f 17       		.uleb128 0x17
 5841 0180 B742     		.uleb128 0x2137
 5842 0182 17       		.uleb128 0x17
 5843 0183 00       		.byte	0
 5844 0184 00       		.byte	0
 5845 0185 19       		.uleb128 0x19
 5846 0186 2E       		.uleb128 0x2e
 5847 0187 00       		.byte	0
 5848 0188 03       		.uleb128 0x3
 5849 0189 0E       		.uleb128 0xe
 5850 018a 3A       		.uleb128 0x3a
 5851 018b 0B       		.uleb128 0xb
 5852 018c 3B       		.uleb128 0x3b
 5853 018d 05       		.uleb128 0x5
 5854 018e 39       		.uleb128 0x39
 5855 018f 0B       		.uleb128 0xb
 5856 0190 27       		.uleb128 0x27
 5857 0191 19       		.uleb128 0x19
 5858 0192 20       		.uleb128 0x20
 5859 0193 0B       		.uleb128 0xb
 5860 0194 00       		.byte	0
 5861 0195 00       		.byte	0
 5862 0196 1A       		.uleb128 0x1a
 5863 0197 34       		.uleb128 0x34
 5864 0198 00       		.byte	0
 5865 0199 03       		.uleb128 0x3
 5866 019a 08       		.uleb128 0x8
GAS LISTING /tmp/ccVaQ2UV.s 			page 110


 5867 019b 3A       		.uleb128 0x3a
 5868 019c 21       		.uleb128 0x21
 5869 019d 01       		.sleb128 1
 5870 019e 3B       		.uleb128 0x3b
 5871 019f 05       		.uleb128 0x5
 5872 01a0 39       		.uleb128 0x39
 5873 01a1 0B       		.uleb128 0xb
 5874 01a2 49       		.uleb128 0x49
 5875 01a3 13       		.uleb128 0x13
 5876 01a4 02       		.uleb128 0x2
 5877 01a5 17       		.uleb128 0x17
 5878 01a6 B742     		.uleb128 0x2137
 5879 01a8 17       		.uleb128 0x17
 5880 01a9 00       		.byte	0
 5881 01aa 00       		.byte	0
 5882 01ab 1B       		.uleb128 0x1b
 5883 01ac 35       		.uleb128 0x35
 5884 01ad 00       		.byte	0
 5885 01ae 49       		.uleb128 0x49
 5886 01af 13       		.uleb128 0x13
 5887 01b0 00       		.byte	0
 5888 01b1 00       		.byte	0
 5889 01b2 1C       		.uleb128 0x1c
 5890 01b3 13       		.uleb128 0x13
 5891 01b4 01       		.byte	0x1
 5892 01b5 03       		.uleb128 0x3
 5893 01b6 0E       		.uleb128 0xe
 5894 01b7 0B       		.uleb128 0xb
 5895 01b8 0B       		.uleb128 0xb
 5896 01b9 3A       		.uleb128 0x3a
 5897 01ba 21       		.uleb128 0x21
 5898 01bb 0C       		.sleb128 12
 5899 01bc 3B       		.uleb128 0x3b
 5900 01bd 05       		.uleb128 0x5
 5901 01be 39       		.uleb128 0x39
 5902 01bf 0B       		.uleb128 0xb
 5903 01c0 01       		.uleb128 0x1
 5904 01c1 13       		.uleb128 0x13
 5905 01c2 00       		.byte	0
 5906 01c3 00       		.byte	0
 5907 01c4 1D       		.uleb128 0x1d
 5908 01c5 0D       		.uleb128 0xd
 5909 01c6 00       		.byte	0
 5910 01c7 03       		.uleb128 0x3
 5911 01c8 0E       		.uleb128 0xe
 5912 01c9 3A       		.uleb128 0x3a
 5913 01ca 21       		.uleb128 0x21
 5914 01cb 0C       		.sleb128 12
 5915 01cc 3B       		.uleb128 0x3b
 5916 01cd 0B       		.uleb128 0xb
 5917 01ce 39       		.uleb128 0x39
 5918 01cf 21       		.uleb128 0x21
 5919 01d0 21       		.sleb128 33
 5920 01d1 49       		.uleb128 0x49
 5921 01d2 13       		.uleb128 0x13
 5922 01d3 00       		.byte	0
 5923 01d4 00       		.byte	0
GAS LISTING /tmp/ccVaQ2UV.s 			page 111


 5924 01d5 1E       		.uleb128 0x1e
 5925 01d6 34       		.uleb128 0x34
 5926 01d7 00       		.byte	0
 5927 01d8 03       		.uleb128 0x3
 5928 01d9 08       		.uleb128 0x8
 5929 01da 3A       		.uleb128 0x3a
 5930 01db 21       		.uleb128 0x21
 5931 01dc 01       		.sleb128 1
 5932 01dd 3B       		.uleb128 0x3b
 5933 01de 0B       		.uleb128 0xb
 5934 01df 39       		.uleb128 0x39
 5935 01e0 21       		.uleb128 0x21
 5936 01e1 08       		.sleb128 8
 5937 01e2 49       		.uleb128 0x49
 5938 01e3 13       		.uleb128 0x13
 5939 01e4 02       		.uleb128 0x2
 5940 01e5 18       		.uleb128 0x18
 5941 01e6 00       		.byte	0
 5942 01e7 00       		.byte	0
 5943 01e8 1F       		.uleb128 0x1f
 5944 01e9 2E       		.uleb128 0x2e
 5945 01ea 00       		.byte	0
 5946 01eb 3F       		.uleb128 0x3f
 5947 01ec 19       		.uleb128 0x19
 5948 01ed 03       		.uleb128 0x3
 5949 01ee 0E       		.uleb128 0xe
 5950 01ef 3A       		.uleb128 0x3a
 5951 01f0 0B       		.uleb128 0xb
 5952 01f1 3B       		.uleb128 0x3b
 5953 01f2 0B       		.uleb128 0xb
 5954 01f3 39       		.uleb128 0x39
 5955 01f4 0B       		.uleb128 0xb
 5956 01f5 27       		.uleb128 0x27
 5957 01f6 19       		.uleb128 0x19
 5958 01f7 3C       		.uleb128 0x3c
 5959 01f8 19       		.uleb128 0x19
 5960 01f9 00       		.byte	0
 5961 01fa 00       		.byte	0
 5962 01fb 20       		.uleb128 0x20
 5963 01fc 2E       		.uleb128 0x2e
 5964 01fd 01       		.byte	0x1
 5965 01fe 3F       		.uleb128 0x3f
 5966 01ff 19       		.uleb128 0x19
 5967 0200 03       		.uleb128 0x3
 5968 0201 0E       		.uleb128 0xe
 5969 0202 3A       		.uleb128 0x3a
 5970 0203 0B       		.uleb128 0xb
 5971 0204 3B       		.uleb128 0x3b
 5972 0205 05       		.uleb128 0x5
 5973 0206 39       		.uleb128 0x39
 5974 0207 0B       		.uleb128 0xb
 5975 0208 27       		.uleb128 0x27
 5976 0209 19       		.uleb128 0x19
 5977 020a 49       		.uleb128 0x49
 5978 020b 13       		.uleb128 0x13
 5979 020c 3C       		.uleb128 0x3c
 5980 020d 19       		.uleb128 0x19
GAS LISTING /tmp/ccVaQ2UV.s 			page 112


 5981 020e 01       		.uleb128 0x1
 5982 020f 13       		.uleb128 0x13
 5983 0210 00       		.byte	0
 5984 0211 00       		.byte	0
 5985 0212 21       		.uleb128 0x21
 5986 0213 2E       		.uleb128 0x2e
 5987 0214 01       		.byte	0x1
 5988 0215 3F       		.uleb128 0x3f
 5989 0216 19       		.uleb128 0x19
 5990 0217 03       		.uleb128 0x3
 5991 0218 0E       		.uleb128 0xe
 5992 0219 3A       		.uleb128 0x3a
 5993 021a 0B       		.uleb128 0xb
 5994 021b 3B       		.uleb128 0x3b
 5995 021c 0B       		.uleb128 0xb
 5996 021d 39       		.uleb128 0x39
 5997 021e 0B       		.uleb128 0xb
 5998 021f 27       		.uleb128 0x27
 5999 0220 19       		.uleb128 0x19
 6000 0221 49       		.uleb128 0x49
 6001 0222 13       		.uleb128 0x13
 6002 0223 3C       		.uleb128 0x3c
 6003 0224 19       		.uleb128 0x19
 6004 0225 01       		.uleb128 0x1
 6005 0226 13       		.uleb128 0x13
 6006 0227 00       		.byte	0
 6007 0228 00       		.byte	0
 6008 0229 22       		.uleb128 0x22
 6009 022a 0D       		.uleb128 0xd
 6010 022b 00       		.byte	0
 6011 022c 03       		.uleb128 0x3
 6012 022d 08       		.uleb128 0x8
 6013 022e 3A       		.uleb128 0x3a
 6014 022f 21       		.uleb128 0x21
 6015 0230 0C       		.sleb128 12
 6016 0231 3B       		.uleb128 0x3b
 6017 0232 05       		.uleb128 0x5
 6018 0233 39       		.uleb128 0x39
 6019 0234 21       		.uleb128 0x21
 6020 0235 21       		.sleb128 33
 6021 0236 49       		.uleb128 0x49
 6022 0237 13       		.uleb128 0x13
 6023 0238 38       		.uleb128 0x38
 6024 0239 0B       		.uleb128 0xb
 6025 023a 00       		.byte	0
 6026 023b 00       		.byte	0
 6027 023c 23       		.uleb128 0x23
 6028 023d 34       		.uleb128 0x34
 6029 023e 00       		.byte	0
 6030 023f 03       		.uleb128 0x3
 6031 0240 0E       		.uleb128 0xe
 6032 0241 3A       		.uleb128 0x3a
 6033 0242 0B       		.uleb128 0xb
 6034 0243 3B       		.uleb128 0x3b
 6035 0244 05       		.uleb128 0x5
 6036 0245 39       		.uleb128 0x39
 6037 0246 0B       		.uleb128 0xb
GAS LISTING /tmp/ccVaQ2UV.s 			page 113


 6038 0247 49       		.uleb128 0x49
 6039 0248 13       		.uleb128 0x13
 6040 0249 3F       		.uleb128 0x3f
 6041 024a 19       		.uleb128 0x19
 6042 024b 3C       		.uleb128 0x3c
 6043 024c 19       		.uleb128 0x19
 6044 024d 00       		.byte	0
 6045 024e 00       		.byte	0
 6046 024f 24       		.uleb128 0x24
 6047 0250 15       		.uleb128 0x15
 6048 0251 01       		.byte	0x1
 6049 0252 27       		.uleb128 0x27
 6050 0253 19       		.uleb128 0x19
 6051 0254 01       		.uleb128 0x1
 6052 0255 13       		.uleb128 0x13
 6053 0256 00       		.byte	0
 6054 0257 00       		.byte	0
 6055 0258 25       		.uleb128 0x25
 6056 0259 16       		.uleb128 0x16
 6057 025a 00       		.byte	0
 6058 025b 03       		.uleb128 0x3
 6059 025c 0E       		.uleb128 0xe
 6060 025d 3A       		.uleb128 0x3a
 6061 025e 21       		.uleb128 0x21
 6062 025f 0C       		.sleb128 12
 6063 0260 3B       		.uleb128 0x3b
 6064 0261 05       		.uleb128 0x5
 6065 0262 39       		.uleb128 0x39
 6066 0263 21       		.uleb128 0x21
 6067 0264 03       		.sleb128 3
 6068 0265 49       		.uleb128 0x49
 6069 0266 13       		.uleb128 0x13
 6070 0267 00       		.byte	0
 6071 0268 00       		.byte	0
 6072 0269 26       		.uleb128 0x26
 6073 026a 34       		.uleb128 0x34
 6074 026b 00       		.byte	0
 6075 026c 03       		.uleb128 0x3
 6076 026d 0E       		.uleb128 0xe
 6077 026e 3A       		.uleb128 0x3a
 6078 026f 0B       		.uleb128 0xb
 6079 0270 3B       		.uleb128 0x3b
 6080 0271 0B       		.uleb128 0xb
 6081 0272 39       		.uleb128 0x39
 6082 0273 0B       		.uleb128 0xb
 6083 0274 49       		.uleb128 0x49
 6084 0275 13       		.uleb128 0x13
 6085 0276 3F       		.uleb128 0x3f
 6086 0277 19       		.uleb128 0x19
 6087 0278 3C       		.uleb128 0x3c
 6088 0279 19       		.uleb128 0x19
 6089 027a 00       		.byte	0
 6090 027b 00       		.byte	0
 6091 027c 27       		.uleb128 0x27
 6092 027d 2E       		.uleb128 0x2e
 6093 027e 01       		.byte	0x1
 6094 027f 3F       		.uleb128 0x3f
GAS LISTING /tmp/ccVaQ2UV.s 			page 114


 6095 0280 19       		.uleb128 0x19
 6096 0281 03       		.uleb128 0x3
 6097 0282 0E       		.uleb128 0xe
 6098 0283 3A       		.uleb128 0x3a
 6099 0284 0B       		.uleb128 0xb
 6100 0285 3B       		.uleb128 0x3b
 6101 0286 05       		.uleb128 0x5
 6102 0287 39       		.uleb128 0x39
 6103 0288 21       		.uleb128 0x21
 6104 0289 08       		.sleb128 8
 6105 028a 27       		.uleb128 0x27
 6106 028b 19       		.uleb128 0x19
 6107 028c 3C       		.uleb128 0x3c
 6108 028d 19       		.uleb128 0x19
 6109 028e 01       		.uleb128 0x1
 6110 028f 13       		.uleb128 0x13
 6111 0290 00       		.byte	0
 6112 0291 00       		.byte	0
 6113 0292 28       		.uleb128 0x28
 6114 0293 0B       		.uleb128 0xb
 6115 0294 01       		.byte	0x1
 6116 0295 55       		.uleb128 0x55
 6117 0296 17       		.uleb128 0x17
 6118 0297 01       		.uleb128 0x1
 6119 0298 13       		.uleb128 0x13
 6120 0299 00       		.byte	0
 6121 029a 00       		.byte	0
 6122 029b 29       		.uleb128 0x29
 6123 029c 2E       		.uleb128 0x2e
 6124 029d 00       		.byte	0
 6125 029e 03       		.uleb128 0x3
 6126 029f 0E       		.uleb128 0xe
 6127 02a0 3A       		.uleb128 0x3a
 6128 02a1 21       		.uleb128 0x21
 6129 02a2 01       		.sleb128 1
 6130 02a3 3B       		.uleb128 0x3b
 6131 02a4 05       		.uleb128 0x5
 6132 02a5 39       		.uleb128 0x39
 6133 02a6 21       		.uleb128 0x21
 6134 02a7 0D       		.sleb128 13
 6135 02a8 27       		.uleb128 0x27
 6136 02a9 19       		.uleb128 0x19
 6137 02aa 00       		.byte	0
 6138 02ab 00       		.byte	0
 6139 02ac 2A       		.uleb128 0x2a
 6140 02ad 05       		.uleb128 0x5
 6141 02ae 00       		.byte	0
 6142 02af 31       		.uleb128 0x31
 6143 02b0 13       		.uleb128 0x13
 6144 02b1 02       		.uleb128 0x2
 6145 02b2 17       		.uleb128 0x17
 6146 02b3 B742     		.uleb128 0x2137
 6147 02b5 17       		.uleb128 0x17
 6148 02b6 00       		.byte	0
 6149 02b7 00       		.byte	0
 6150 02b8 2B       		.uleb128 0x2b
 6151 02b9 1D       		.uleb128 0x1d
GAS LISTING /tmp/ccVaQ2UV.s 			page 115


 6152 02ba 01       		.byte	0x1
 6153 02bb 31       		.uleb128 0x31
 6154 02bc 13       		.uleb128 0x13
 6155 02bd 52       		.uleb128 0x52
 6156 02be 01       		.uleb128 0x1
 6157 02bf B842     		.uleb128 0x2138
 6158 02c1 0B       		.uleb128 0xb
 6159 02c2 55       		.uleb128 0x55
 6160 02c3 17       		.uleb128 0x17
 6161 02c4 58       		.uleb128 0x58
 6162 02c5 21       		.uleb128 0x21
 6163 02c6 01       		.sleb128 1
 6164 02c7 59       		.uleb128 0x59
 6165 02c8 0B       		.uleb128 0xb
 6166 02c9 57       		.uleb128 0x57
 6167 02ca 21       		.uleb128 0x21
 6168 02cb 03       		.sleb128 3
 6169 02cc 01       		.uleb128 0x1
 6170 02cd 13       		.uleb128 0x13
 6171 02ce 00       		.byte	0
 6172 02cf 00       		.byte	0
 6173 02d0 2C       		.uleb128 0x2c
 6174 02d1 2E       		.uleb128 0x2e
 6175 02d2 00       		.byte	0
 6176 02d3 03       		.uleb128 0x3
 6177 02d4 0E       		.uleb128 0xe
 6178 02d5 3A       		.uleb128 0x3a
 6179 02d6 21       		.uleb128 0x21
 6180 02d7 02       		.sleb128 2
 6181 02d8 3B       		.uleb128 0x3b
 6182 02d9 05       		.uleb128 0x5
 6183 02da 39       		.uleb128 0x39
 6184 02db 0B       		.uleb128 0xb
 6185 02dc 27       		.uleb128 0x27
 6186 02dd 19       		.uleb128 0x19
 6187 02de 49       		.uleb128 0x49
 6188 02df 13       		.uleb128 0x13
 6189 02e0 20       		.uleb128 0x20
 6190 02e1 21       		.uleb128 0x21
 6191 02e2 03       		.sleb128 3
 6192 02e3 00       		.byte	0
 6193 02e4 00       		.byte	0
 6194 02e5 2D       		.uleb128 0x2d
 6195 02e6 11       		.uleb128 0x11
 6196 02e7 01       		.byte	0x1
 6197 02e8 25       		.uleb128 0x25
 6198 02e9 0E       		.uleb128 0xe
 6199 02ea 13       		.uleb128 0x13
 6200 02eb 0B       		.uleb128 0xb
 6201 02ec 03       		.uleb128 0x3
 6202 02ed 1F       		.uleb128 0x1f
 6203 02ee 1B       		.uleb128 0x1b
 6204 02ef 1F       		.uleb128 0x1f
 6205 02f0 55       		.uleb128 0x55
 6206 02f1 17       		.uleb128 0x17
 6207 02f2 11       		.uleb128 0x11
 6208 02f3 01       		.uleb128 0x1
GAS LISTING /tmp/ccVaQ2UV.s 			page 116


 6209 02f4 10       		.uleb128 0x10
 6210 02f5 17       		.uleb128 0x17
 6211 02f6 00       		.byte	0
 6212 02f7 00       		.byte	0
 6213 02f8 2E       		.uleb128 0x2e
 6214 02f9 24       		.uleb128 0x24
 6215 02fa 00       		.byte	0
 6216 02fb 0B       		.uleb128 0xb
 6217 02fc 0B       		.uleb128 0xb
 6218 02fd 3E       		.uleb128 0x3e
 6219 02fe 0B       		.uleb128 0xb
 6220 02ff 03       		.uleb128 0x3
 6221 0300 08       		.uleb128 0x8
 6222 0301 00       		.byte	0
 6223 0302 00       		.byte	0
 6224 0303 2F       		.uleb128 0x2f
 6225 0304 0F       		.uleb128 0xf
 6226 0305 00       		.byte	0
 6227 0306 0B       		.uleb128 0xb
 6228 0307 0B       		.uleb128 0xb
 6229 0308 00       		.byte	0
 6230 0309 00       		.byte	0
 6231 030a 30       		.uleb128 0x30
 6232 030b 16       		.uleb128 0x16
 6233 030c 00       		.byte	0
 6234 030d 03       		.uleb128 0x3
 6235 030e 0E       		.uleb128 0xe
 6236 030f 3A       		.uleb128 0x3a
 6237 0310 0B       		.uleb128 0xb
 6238 0311 3B       		.uleb128 0x3b
 6239 0312 0B       		.uleb128 0xb
 6240 0313 39       		.uleb128 0x39
 6241 0314 0B       		.uleb128 0xb
 6242 0315 49       		.uleb128 0x49
 6243 0316 13       		.uleb128 0x13
 6244 0317 8801     		.uleb128 0x88
 6245 0319 0B       		.uleb128 0xb
 6246 031a 00       		.byte	0
 6247 031b 00       		.byte	0
 6248 031c 31       		.uleb128 0x31
 6249 031d 17       		.uleb128 0x17
 6250 031e 01       		.byte	0x1
 6251 031f 0B       		.uleb128 0xb
 6252 0320 0B       		.uleb128 0xb
 6253 0321 3A       		.uleb128 0x3a
 6254 0322 0B       		.uleb128 0xb
 6255 0323 3B       		.uleb128 0x3b
 6256 0324 0B       		.uleb128 0xb
 6257 0325 39       		.uleb128 0x39
 6258 0326 0B       		.uleb128 0xb
 6259 0327 01       		.uleb128 0x1
 6260 0328 13       		.uleb128 0x13
 6261 0329 00       		.byte	0
 6262 032a 00       		.byte	0
 6263 032b 32       		.uleb128 0x32
 6264 032c 17       		.uleb128 0x17
 6265 032d 01       		.byte	0x1
GAS LISTING /tmp/ccVaQ2UV.s 			page 117


 6266 032e 0B       		.uleb128 0xb
 6267 032f 0B       		.uleb128 0xb
 6268 0330 3A       		.uleb128 0x3a
 6269 0331 0B       		.uleb128 0xb
 6270 0332 3B       		.uleb128 0x3b
 6271 0333 05       		.uleb128 0x5
 6272 0334 39       		.uleb128 0x39
 6273 0335 0B       		.uleb128 0xb
 6274 0336 01       		.uleb128 0x1
 6275 0337 13       		.uleb128 0x13
 6276 0338 00       		.byte	0
 6277 0339 00       		.byte	0
 6278 033a 33       		.uleb128 0x33
 6279 033b 34       		.uleb128 0x34
 6280 033c 00       		.byte	0
 6281 033d 03       		.uleb128 0x3
 6282 033e 08       		.uleb128 0x8
 6283 033f 3A       		.uleb128 0x3a
 6284 0340 0B       		.uleb128 0xb
 6285 0341 3B       		.uleb128 0x3b
 6286 0342 05       		.uleb128 0x5
 6287 0343 39       		.uleb128 0x39
 6288 0344 0B       		.uleb128 0xb
 6289 0345 49       		.uleb128 0x49
 6290 0346 13       		.uleb128 0x13
 6291 0347 3F       		.uleb128 0x3f
 6292 0348 19       		.uleb128 0x19
 6293 0349 3C       		.uleb128 0x3c
 6294 034a 19       		.uleb128 0x19
 6295 034b 00       		.byte	0
 6296 034c 00       		.byte	0
 6297 034d 34       		.uleb128 0x34
 6298 034e 15       		.uleb128 0x15
 6299 034f 00       		.byte	0
 6300 0350 27       		.uleb128 0x27
 6301 0351 19       		.uleb128 0x19
 6302 0352 00       		.byte	0
 6303 0353 00       		.byte	0
 6304 0354 35       		.uleb128 0x35
 6305 0355 34       		.uleb128 0x34
 6306 0356 00       		.byte	0
 6307 0357 03       		.uleb128 0x3
 6308 0358 08       		.uleb128 0x8
 6309 0359 3A       		.uleb128 0x3a
 6310 035a 0B       		.uleb128 0xb
 6311 035b 3B       		.uleb128 0x3b
 6312 035c 0B       		.uleb128 0xb
 6313 035d 39       		.uleb128 0x39
 6314 035e 0B       		.uleb128 0xb
 6315 035f 49       		.uleb128 0x49
 6316 0360 13       		.uleb128 0x13
 6317 0361 3F       		.uleb128 0x3f
 6318 0362 19       		.uleb128 0x19
 6319 0363 3C       		.uleb128 0x3c
 6320 0364 19       		.uleb128 0x19
 6321 0365 00       		.byte	0
 6322 0366 00       		.byte	0
GAS LISTING /tmp/ccVaQ2UV.s 			page 118


 6323 0367 36       		.uleb128 0x36
 6324 0368 34       		.uleb128 0x34
 6325 0369 00       		.byte	0
 6326 036a 03       		.uleb128 0x3
 6327 036b 0E       		.uleb128 0xe
 6328 036c 3A       		.uleb128 0x3a
 6329 036d 0B       		.uleb128 0xb
 6330 036e 3B       		.uleb128 0x3b
 6331 036f 05       		.uleb128 0x5
 6332 0370 39       		.uleb128 0x39
 6333 0371 0B       		.uleb128 0xb
 6334 0372 49       		.uleb128 0x49
 6335 0373 13       		.uleb128 0x13
 6336 0374 3F       		.uleb128 0x3f
 6337 0375 19       		.uleb128 0x19
 6338 0376 02       		.uleb128 0x2
 6339 0377 18       		.uleb128 0x18
 6340 0378 00       		.byte	0
 6341 0379 00       		.byte	0
 6342 037a 37       		.uleb128 0x37
 6343 037b 34       		.uleb128 0x34
 6344 037c 00       		.byte	0
 6345 037d 47       		.uleb128 0x47
 6346 037e 13       		.uleb128 0x13
 6347 037f 3A       		.uleb128 0x3a
 6348 0380 0B       		.uleb128 0xb
 6349 0381 3B       		.uleb128 0x3b
 6350 0382 05       		.uleb128 0x5
 6351 0383 39       		.uleb128 0x39
 6352 0384 0B       		.uleb128 0xb
 6353 0385 02       		.uleb128 0x2
 6354 0386 18       		.uleb128 0x18
 6355 0387 00       		.byte	0
 6356 0388 00       		.byte	0
 6357 0389 38       		.uleb128 0x38
 6358 038a 1D       		.uleb128 0x1d
 6359 038b 01       		.byte	0x1
 6360 038c 31       		.uleb128 0x31
 6361 038d 13       		.uleb128 0x13
 6362 038e 52       		.uleb128 0x52
 6363 038f 01       		.uleb128 0x1
 6364 0390 B842     		.uleb128 0x2138
 6365 0392 0B       		.uleb128 0xb
 6366 0393 11       		.uleb128 0x11
 6367 0394 01       		.uleb128 0x1
 6368 0395 12       		.uleb128 0x12
 6369 0396 06       		.uleb128 0x6
 6370 0397 58       		.uleb128 0x58
 6371 0398 0B       		.uleb128 0xb
 6372 0399 59       		.uleb128 0x59
 6373 039a 05       		.uleb128 0x5
 6374 039b 57       		.uleb128 0x57
 6375 039c 0B       		.uleb128 0xb
 6376 039d 01       		.uleb128 0x1
 6377 039e 13       		.uleb128 0x13
 6378 039f 00       		.byte	0
 6379 03a0 00       		.byte	0
GAS LISTING /tmp/ccVaQ2UV.s 			page 119


 6380 03a1 39       		.uleb128 0x39
 6381 03a2 2E       		.uleb128 0x2e
 6382 03a3 00       		.byte	0
 6383 03a4 03       		.uleb128 0x3
 6384 03a5 0E       		.uleb128 0xe
 6385 03a6 3A       		.uleb128 0x3a
 6386 03a7 0B       		.uleb128 0xb
 6387 03a8 3B       		.uleb128 0x3b
 6388 03a9 0B       		.uleb128 0xb
 6389 03aa 39       		.uleb128 0x39
 6390 03ab 0B       		.uleb128 0xb
 6391 03ac 27       		.uleb128 0x27
 6392 03ad 19       		.uleb128 0x19
 6393 03ae 20       		.uleb128 0x20
 6394 03af 0B       		.uleb128 0xb
 6395 03b0 00       		.byte	0
 6396 03b1 00       		.byte	0
 6397 03b2 3A       		.uleb128 0x3a
 6398 03b3 0B       		.uleb128 0xb
 6399 03b4 01       		.byte	0x1
 6400 03b5 55       		.uleb128 0x55
 6401 03b6 17       		.uleb128 0x17
 6402 03b7 00       		.byte	0
 6403 03b8 00       		.byte	0
 6404 03b9 3B       		.uleb128 0x3b
 6405 03ba 2E       		.uleb128 0x2e
 6406 03bb 01       		.byte	0x1
 6407 03bc 03       		.uleb128 0x3
 6408 03bd 0E       		.uleb128 0xe
 6409 03be 3A       		.uleb128 0x3a
 6410 03bf 0B       		.uleb128 0xb
 6411 03c0 3B       		.uleb128 0x3b
 6412 03c1 05       		.uleb128 0x5
 6413 03c2 39       		.uleb128 0x39
 6414 03c3 0B       		.uleb128 0xb
 6415 03c4 27       		.uleb128 0x27
 6416 03c5 19       		.uleb128 0x19
 6417 03c6 20       		.uleb128 0x20
 6418 03c7 0B       		.uleb128 0xb
 6419 03c8 01       		.uleb128 0x1
 6420 03c9 13       		.uleb128 0x13
 6421 03ca 00       		.byte	0
 6422 03cb 00       		.byte	0
 6423 03cc 3C       		.uleb128 0x3c
 6424 03cd 34       		.uleb128 0x34
 6425 03ce 00       		.byte	0
 6426 03cf 03       		.uleb128 0x3
 6427 03d0 0E       		.uleb128 0xe
 6428 03d1 49       		.uleb128 0x49
 6429 03d2 13       		.uleb128 0x13
 6430 03d3 34       		.uleb128 0x34
 6431 03d4 19       		.uleb128 0x19
 6432 03d5 00       		.byte	0
 6433 03d6 00       		.byte	0
 6434 03d7 3D       		.uleb128 0x3d
 6435 03d8 2E       		.uleb128 0x2e
 6436 03d9 01       		.byte	0x1
GAS LISTING /tmp/ccVaQ2UV.s 			page 120


 6437 03da 03       		.uleb128 0x3
 6438 03db 0E       		.uleb128 0xe
 6439 03dc 3A       		.uleb128 0x3a
 6440 03dd 0B       		.uleb128 0xb
 6441 03de 3B       		.uleb128 0x3b
 6442 03df 05       		.uleb128 0x5
 6443 03e0 39       		.uleb128 0x39
 6444 03e1 0B       		.uleb128 0xb
 6445 03e2 27       		.uleb128 0x27
 6446 03e3 19       		.uleb128 0x19
 6447 03e4 49       		.uleb128 0x49
 6448 03e5 13       		.uleb128 0x13
 6449 03e6 20       		.uleb128 0x20
 6450 03e7 0B       		.uleb128 0xb
 6451 03e8 01       		.uleb128 0x1
 6452 03e9 13       		.uleb128 0x13
 6453 03ea 00       		.byte	0
 6454 03eb 00       		.byte	0
 6455 03ec 3E       		.uleb128 0x3e
 6456 03ed 05       		.uleb128 0x5
 6457 03ee 00       		.byte	0
 6458 03ef 03       		.uleb128 0x3
 6459 03f0 08       		.uleb128 0x8
 6460 03f1 3A       		.uleb128 0x3a
 6461 03f2 0B       		.uleb128 0xb
 6462 03f3 3B       		.uleb128 0x3b
 6463 03f4 05       		.uleb128 0x5
 6464 03f5 39       		.uleb128 0x39
 6465 03f6 0B       		.uleb128 0xb
 6466 03f7 49       		.uleb128 0x49
 6467 03f8 13       		.uleb128 0x13
 6468 03f9 00       		.byte	0
 6469 03fa 00       		.byte	0
 6470 03fb 3F       		.uleb128 0x3f
 6471 03fc 2E       		.uleb128 0x2e
 6472 03fd 01       		.byte	0x1
 6473 03fe 31       		.uleb128 0x31
 6474 03ff 13       		.uleb128 0x13
 6475 0400 11       		.uleb128 0x11
 6476 0401 01       		.uleb128 0x1
 6477 0402 12       		.uleb128 0x12
 6478 0403 06       		.uleb128 0x6
 6479 0404 40       		.uleb128 0x40
 6480 0405 18       		.uleb128 0x18
 6481 0406 7A       		.uleb128 0x7a
 6482 0407 19       		.uleb128 0x19
 6483 0408 01       		.uleb128 0x1
 6484 0409 13       		.uleb128 0x13
 6485 040a 00       		.byte	0
 6486 040b 00       		.byte	0
 6487 040c 40       		.uleb128 0x40
 6488 040d 2E       		.uleb128 0x2e
 6489 040e 01       		.byte	0x1
 6490 040f 31       		.uleb128 0x31
 6491 0410 13       		.uleb128 0x13
 6492 0411 11       		.uleb128 0x11
 6493 0412 01       		.uleb128 0x1
GAS LISTING /tmp/ccVaQ2UV.s 			page 121


 6494 0413 12       		.uleb128 0x12
 6495 0414 06       		.uleb128 0x6
 6496 0415 40       		.uleb128 0x40
 6497 0416 18       		.uleb128 0x18
 6498 0417 7A       		.uleb128 0x7a
 6499 0418 19       		.uleb128 0x19
 6500 0419 00       		.byte	0
 6501 041a 00       		.byte	0
 6502 041b 00       		.byte	0
 6503              		.section	.debug_loclists,"",@progbits
 6504 0000 FD000000 		.long	.Ldebug_loc3-.Ldebug_loc2
 6505              	.Ldebug_loc2:
 6506 0004 0500     		.value	0x5
 6507 0006 04       		.byte	0x4
 6508 0007 00       		.byte	0
 6509 0008 00000000 		.long	0
 6510              	.Ldebug_loc0:
 6511              	.LVUS0:
 6512 000c 00       		.uleb128 .LVU20
 6513 000d 00       		.uleb128 .LVU36
 6514 000e 00       		.uleb128 .LVU36
 6515 000f 00       		.uleb128 .LVU46
 6516 0010 00       		.uleb128 .LVU46
 6517 0011 00       		.uleb128 .LVU47
 6518              	.LLST0:
 6519 0012 06       		.byte	0x6
 6520 0013 30000000 		.long	.LVL1
 6521 0017 04       		.byte	0x4
 6522 0018 00       		.uleb128 .LVL1-.LVL1
 6523 0019 48       		.uleb128 .LVL3-.LVL1
 6524 001a 01       		.uleb128 0x1
 6525 001b 57       		.byte	0x57
 6526 001c 04       		.byte	0x4
 6527 001d 48       		.uleb128 .LVL3-.LVL1
 6528 001e 7F       		.uleb128 .LVL5-.LVL1
 6529 001f 03       		.uleb128 0x3
 6530 0020 77       		.byte	0x77
 6531 0021 7D       		.sleb128 -3
 6532 0022 9F       		.byte	0x9f
 6533 0023 04       		.byte	0x4
 6534 0024 7F       		.uleb128 .LVL5-.LVL1
 6535 0025 8F01     		.uleb128 .LVL6-1-.LVL1
 6536 0027 07       		.uleb128 0x7
 6537 0028 91       		.byte	0x91
 6538 0029 B87F     		.sleb128 -72
 6539 002b 06       		.byte	0x6
 6540 002c 33       		.byte	0x33
 6541 002d 1C       		.byte	0x1c
 6542 002e 9F       		.byte	0x9f
 6543 002f 00       		.byte	0
 6544              	.LVUS4:
 6545 0030 00       		.uleb128 .LVU144
 6546 0031 00       		.uleb128 .LVU147
 6547 0032 00       		.uleb128 .LVU147
 6548 0033 00       		.uleb128 0
 6549              	.LLST4:
 6550 0034 06       		.byte	0x6
GAS LISTING /tmp/ccVaQ2UV.s 			page 122


 6551 0035 3A000000 		.long	.LVL39
 6552 0039 04       		.byte	0x4
 6553 003a 00       		.uleb128 .LVL39-.LVL39
 6554 003b 1B       		.uleb128 .LVL40-1-.LVL39
 6555 003c 01       		.uleb128 0x1
 6556 003d 51       		.byte	0x51
 6557 003e 04       		.byte	0x4
 6558 003f 1B       		.uleb128 .LVL40-1-.LVL39
 6559 0040 EB01     		.uleb128 .LFE319-.LVL39
 6560 0042 02       		.uleb128 0x2
 6561 0043 91       		.byte	0x91
 6562 0044 58       		.sleb128 -40
 6563 0045 00       		.byte	0
 6564              	.LVUS8:
 6565 0046 00       		.uleb128 .LVU195
 6566 0047 00       		.uleb128 .LVU198
 6567 0048 00       		.uleb128 .LVU198
 6568 0049 00       		.uleb128 0
 6569              	.LLST8:
 6570 004a 06       		.byte	0x6
 6571 004b 3A000000 		.long	.LVL48
 6572 004f 04       		.byte	0x4
 6573 0050 00       		.uleb128 .LVL48-.LVL48
 6574 0051 1B       		.uleb128 .LVL49-1-.LVL48
 6575 0052 01       		.uleb128 0x1
 6576 0053 51       		.byte	0x51
 6577 0054 04       		.byte	0x4
 6578 0055 1B       		.uleb128 .LVL49-1-.LVL48
 6579 0056 A202     		.uleb128 .LFE317-.LVL48
 6580 0058 02       		.uleb128 0x2
 6581 0059 91       		.byte	0x91
 6582 005a 58       		.sleb128 -40
 6583 005b 00       		.byte	0
 6584              	.LVUS16:
 6585 005c 00       		.uleb128 .LVU349
 6586 005d 00       		.uleb128 .LVU351
 6587 005e 00       		.uleb128 .LVU361
 6588 005f 00       		.uleb128 .LVU362
 6589 0060 00       		.uleb128 .LVU400
 6590 0061 00       		.uleb128 .LVU402
 6591 0062 00       		.uleb128 .LVU406
 6592 0063 00       		.uleb128 .LVU407
 6593              	.LLST16:
 6594 0064 06       		.byte	0x6
 6595 0065 3B000000 		.long	.LVL76
 6596 0069 04       		.byte	0x4
 6597 006a 00       		.uleb128 .LVL76-.LVL76
 6598 006b 15       		.uleb128 .LVL77-1-.LVL76
 6599 006c 01       		.uleb128 0x1
 6600 006d 50       		.byte	0x50
 6601 006e 04       		.byte	0x4
 6602 006f 35       		.uleb128 .LVL78-.LVL76
 6603 0070 40       		.uleb128 .LVL79-.LVL76
 6604 0071 01       		.uleb128 0x1
 6605 0072 50       		.byte	0x50
 6606 0073 04       		.byte	0x4
 6607 0074 FC01     		.uleb128 .LVL86-.LVL76
GAS LISTING /tmp/ccVaQ2UV.s 			page 123


 6608 0076 8A02     		.uleb128 .LVL87-1-.LVL76
 6609 0078 01       		.uleb128 0x1
 6610 0079 50       		.byte	0x50
 6611 007a 04       		.byte	0x4
 6612 007b 9F02     		.uleb128 .LVL88-.LVL76
 6613 007d A802     		.uleb128 .LVL89-.LVL76
 6614 007f 01       		.uleb128 0x1
 6615 0080 50       		.byte	0x50
 6616 0081 00       		.byte	0
 6617              	.LVUS17:
 6618 0082 00       		.uleb128 .LVU337
 6619 0083 00       		.uleb128 .LVU347
 6620              	.LLST17:
 6621 0084 08       		.byte	0x8
 6622 0085 12000000 		.long	.LVL74
 6623 0089 23       		.uleb128 .LVL75-.LVL74
 6624 008a 02       		.uleb128 0x2
 6625 008b 91       		.byte	0x91
 6626 008c 4C       		.sleb128 -52
 6627 008d 00       		.byte	0
 6628              	.LVUS21:
 6629 008e 02       		.uleb128 .LVU373
 6630 008f 04       		.uleb128 .LVU375
 6631              	.LLST21:
 6632 0090 08       		.byte	0x8
 6633 0091 C7000000 		.long	.LVL83
 6634 0095 00       		.uleb128 .LVL83-.LVL83
 6635 0096 06       		.uleb128 0x6
 6636 0097 03       		.byte	0x3
 6637 0098 00000000 		.long	m1
 6638 009c 9F       		.byte	0x9f
 6639 009d 00       		.byte	0
 6640              	.LVUS24:
 6641 009e 02       		.uleb128 .LVU413
 6642 009f 04       		.uleb128 .LVU415
 6643              	.LLST24:
 6644 00a0 08       		.byte	0x8
 6645 00a1 A1010000 		.long	.LVL93
 6646 00a5 00       		.uleb128 .LVL93-.LVL93
 6647 00a6 06       		.uleb128 0x6
 6648 00a7 03       		.byte	0x3
 6649 00a8 00000000 		.long	m1
 6650 00ac 9F       		.byte	0x9f
 6651 00ad 00       		.byte	0
 6652              	.LVUS26:
 6653 00ae 00       		.uleb128 .LVU450
 6654 00af 00       		.uleb128 .LVU484
 6655 00b0 00       		.uleb128 .LVU484
 6656 00b1 00       		.uleb128 .LVU485
 6657 00b2 00       		.uleb128 .LVU485
 6658 00b3 00       		.uleb128 0
 6659              	.LLST26:
 6660 00b4 06       		.byte	0x6
 6661 00b5 31000000 		.long	.LVL96
 6662 00b9 04       		.byte	0x4
 6663 00ba 00       		.uleb128 .LVL96-.LVL96
 6664 00bb AB01     		.uleb128 .LVL103-.LVL96
GAS LISTING /tmp/ccVaQ2UV.s 			page 124


 6665 00bd 01       		.uleb128 0x1
 6666 00be 56       		.byte	0x56
 6667 00bf 04       		.byte	0x4
 6668 00c0 AB01     		.uleb128 .LVL103-.LVL96
 6669 00c2 AE01     		.uleb128 .LVL104-.LVL96
 6670 00c4 06       		.uleb128 0x6
 6671 00c5 91       		.byte	0x91
 6672 00c6 50       		.sleb128 -48
 6673 00c7 06       		.byte	0x6
 6674 00c8 31       		.byte	0x31
 6675 00c9 1C       		.byte	0x1c
 6676 00ca 9F       		.byte	0x9f
 6677 00cb 04       		.byte	0x4
 6678 00cc AE01     		.uleb128 .LVL104-.LVL96
 6679 00ce C503     		.uleb128 .LFE313-.LVL96
 6680 00d0 01       		.uleb128 0x1
 6681 00d1 56       		.byte	0x56
 6682 00d2 00       		.byte	0
 6683              	.LVUS27:
 6684 00d3 00       		.uleb128 .LVU454
 6685 00d4 00       		.uleb128 .LVU461
 6686 00d5 00       		.uleb128 .LVU461
 6687 00d6 00       		.uleb128 0
 6688              	.LLST27:
 6689 00d7 06       		.byte	0x6
 6690 00d8 37000000 		.long	.LVL97
 6691 00dc 04       		.byte	0x4
 6692 00dd 00       		.uleb128 .LVL97-.LVL97
 6693 00de 26       		.uleb128 .LVL99-1-.LVL97
 6694 00df 01       		.uleb128 0x1
 6695 00e0 52       		.byte	0x52
 6696 00e1 04       		.byte	0x4
 6697 00e2 26       		.uleb128 .LVL99-1-.LVL97
 6698 00e3 BF03     		.uleb128 .LFE313-.LVL97
 6699 00e5 02       		.uleb128 0x2
 6700 00e6 91       		.byte	0x91
 6701 00e7 50       		.sleb128 -48
 6702 00e8 00       		.byte	0
 6703              	.LVUS28:
 6704 00e9 01       		.uleb128 .LVU455
 6705 00ea 00       		.uleb128 .LVU460
 6706              	.LLST28:
 6707 00eb 08       		.byte	0x8
 6708 00ec 37000000 		.long	.LVL97
 6709 00f0 04       		.uleb128 .LVL98-.LVL97
 6710 00f1 02       		.uleb128 0x2
 6711 00f2 91       		.byte	0x91
 6712 00f3 54       		.sleb128 -44
 6713 00f4 00       		.byte	0
 6714              	.LVUS12:
 6715 00f5 00       		.uleb128 .LVU271
 6716 00f6 00       		.uleb128 .LVU326
 6717              	.LLST12:
 6718 00f7 08       		.byte	0x8
 6719 00f8 3A000000 		.long	.LVL62
 6720 00fc AC02     		.uleb128 .LVL73-.LVL62
 6721 00fe 01       		.uleb128 0x1
GAS LISTING /tmp/ccVaQ2UV.s 			page 125


 6722 00ff 56       		.byte	0x56
 6723 0100 00       		.byte	0
 6724              	.Ldebug_loc3:
 6725              		.section	.debug_aranges,"",@progbits
 6726 0000 9C000000 		.long	0x9c
 6727 0004 0200     		.value	0x2
 6728 0006 00000000 		.long	.Ldebug_info0
 6729 000a 04       		.byte	0x4
 6730 000b 00       		.byte	0
 6731 000c 0000     		.value	0
 6732 000e 0000     		.value	0
 6733 0010 00000000 		.long	.LFB312
 6734 0014 19000000 		.long	.LFE312-.LFB312
 6735 0018 00000000 		.long	.LFB321
 6736 001c 08010000 		.long	.LFE321-.LFB321
 6737 0020 00000000 		.long	.LFB308
 6738 0024 39000000 		.long	.LFE308-.LFB308
 6739 0028 00000000 		.long	.LFB303
 6740 002c 39000000 		.long	.LFE303-.LFB303
 6741 0030 00000000 		.long	.LFB306
 6742 0034 47000000 		.long	.LFE306-.LFB306
 6743 0038 00000000 		.long	.LFB307
 6744 003c 61000000 		.long	.LFE307-.LFB307
 6745 0040 00000000 		.long	.LFB320
 6746 0044 3C000000 		.long	.LFE320-.LFB320
 6747 0048 00000000 		.long	.LFB316
 6748 004c 2E000000 		.long	.LFE316-.LFB316
 6749 0050 00000000 		.long	.LFB311
 6750 0054 2E000000 		.long	.LFE311-.LFB311
 6751 0058 00000000 		.long	.LFB309
 6752 005c 20000000 		.long	.LFE309-.LFB309
 6753 0060 00000000 		.long	.LFB319
 6754 0064 25010000 		.long	.LFE319-.LFB319
 6755 0068 00000000 		.long	.LFB317
 6756 006c 5C010000 		.long	.LFE317-.LFB317
 6757 0070 00000000 		.long	.LFB310
 6758 0074 69010000 		.long	.LFE310-.LFB310
 6759 0078 00000000 		.long	.LFB315
 6760 007c F0010000 		.long	.LFE315-.LFB315
 6761 0080 00000000 		.long	.LFB313
 6762 0084 F6010000 		.long	.LFE313-.LFB313
 6763 0088 00000000 		.long	.LFB304
 6764 008c 33000000 		.long	.LFE304-.LFB304
 6765 0090 00000000 		.long	.LFB305
 6766 0094 4F000000 		.long	.LFE305-.LFB305
 6767 0098 00000000 		.long	0
 6768 009c 00000000 		.long	0
 6769              		.section	.debug_rnglists,"",@progbits
 6770              	.Ldebug_ranges0:
 6771 0000 01020000 		.long	.Ldebug_ranges3-.Ldebug_ranges2
 6772              	.Ldebug_ranges2:
 6773 0004 0500     		.value	0x5
 6774 0006 04       		.byte	0x4
 6775 0007 00       		.byte	0
 6776 0008 00000000 		.long	0
 6777              	.LLRL1:
 6778 000c 05       		.byte	0x5
GAS LISTING /tmp/ccVaQ2UV.s 			page 126


 6779 000d 00000000 		.long	.LBB90
 6780 0011 04       		.byte	0x4
 6781 0012 00       		.uleb128 .LBB90-.LBB90
 6782 0013 00       		.uleb128 .LBE90-.LBB90
 6783 0014 04       		.byte	0x4
 6784 0015 12       		.uleb128 .LBB99-.LBB90
 6785 0016 18       		.uleb128 .LBE99-.LBB90
 6786 0017 04       		.byte	0x4
 6787 0018 24       		.uleb128 .LBB100-.LBB90
 6788 0019 27       		.uleb128 .LBE100-.LBB90
 6789 001a 04       		.byte	0x4
 6790 001b 2D       		.uleb128 .LBB101-.LBB90
 6791 001c 30       		.uleb128 .LBE101-.LBB90
 6792 001d 00       		.byte	0
 6793              	.LLRL2:
 6794 001e 05       		.byte	0x5
 6795 001f 00000000 		.long	.LBB92
 6796 0023 04       		.byte	0x4
 6797 0024 00       		.uleb128 .LBB92-.LBB92
 6798 0025 00       		.uleb128 .LBE92-.LBB92
 6799 0026 04       		.byte	0x4
 6800 0027 12       		.uleb128 .LBB95-.LBB92
 6801 0028 18       		.uleb128 .LBE95-.LBB92
 6802 0029 00       		.byte	0
 6803              	.LLRL3:
 6804 002a 05       		.byte	0x5
 6805 002b 12000000 		.long	.LBB102
 6806 002f 04       		.byte	0x4
 6807 0030 00       		.uleb128 .LBB102-.LBB102
 6808 0031 06       		.uleb128 .LBE102-.LBB102
 6809 0032 04       		.byte	0x4
 6810 0033 0C       		.uleb128 .LBB115-.LBB102
 6811 0034 1B       		.uleb128 .LBE115-.LBB102
 6812 0035 04       		.byte	0x4
 6813 0036 1F       		.uleb128 .LBB116-.LBB102
 6814 0037 1F       		.uleb128 .LBE116-.LBB102
 6815 0038 04       		.byte	0x4
 6816 0039 25       		.uleb128 .LBB117-.LBB102
 6817 003a D501     		.uleb128 .LBE117-.LBB102
 6818 003c 04       		.byte	0x4
 6819 003d DC01     		.uleb128 .LBB118-.LBB102
 6820 003f DF01     		.uleb128 .LBE118-.LBB102
 6821 0041 00       		.byte	0
 6822              	.LLRL5:
 6823 0042 05       		.byte	0x5
 6824 0043 12000000 		.long	.LBB103
 6825 0047 04       		.byte	0x4
 6826 0048 00       		.uleb128 .LBB103-.LBB103
 6827 0049 06       		.uleb128 .LBE103-.LBB103
 6828 004a 04       		.byte	0x4
 6829 004b 18       		.uleb128 .LBB112-.LBB103
 6830 004c 1B       		.uleb128 .LBE112-.LBB103
 6831 004d 04       		.byte	0x4
 6832 004e 1F       		.uleb128 .LBB113-.LBB103
 6833 004f 1F       		.uleb128 .LBE113-.LBB103
 6834 0050 04       		.byte	0x4
 6835 0051 25       		.uleb128 .LBB114-.LBB103
GAS LISTING /tmp/ccVaQ2UV.s 			page 127


 6836 0052 28       		.uleb128 .LBE114-.LBB103
 6837 0053 00       		.byte	0
 6838              	.LLRL6:
 6839 0054 05       		.byte	0x5
 6840 0055 12000000 		.long	.LBB105
 6841 0059 04       		.byte	0x4
 6842 005a 00       		.uleb128 .LBB105-.LBB105
 6843 005b 06       		.uleb128 .LBE105-.LBB105
 6844 005c 04       		.byte	0x4
 6845 005d 1F       		.uleb128 .LBB108-.LBB105
 6846 005e 1F       		.uleb128 .LBE108-.LBB105
 6847 005f 00       		.byte	0
 6848              	.LLRL7:
 6849 0060 05       		.byte	0x5
 6850 0061 12000000 		.long	.LBB119
 6851 0065 04       		.byte	0x4
 6852 0066 00       		.uleb128 .LBB119-.LBB119
 6853 0067 06       		.uleb128 .LBE119-.LBB119
 6854 0068 04       		.byte	0x4
 6855 0069 0C       		.uleb128 .LBB132-.LBB119
 6856 006a 1B       		.uleb128 .LBE132-.LBB119
 6857 006b 04       		.byte	0x4
 6858 006c 1F       		.uleb128 .LBB133-.LBB119
 6859 006d 1F       		.uleb128 .LBE133-.LBB119
 6860 006e 04       		.byte	0x4
 6861 006f 25       		.uleb128 .LBB134-.LBB119
 6862 0070 D501     		.uleb128 .LBE134-.LBB119
 6863 0072 04       		.byte	0x4
 6864 0073 E201     		.uleb128 .LBB140-.LBB119
 6865 0075 E501     		.uleb128 .LBE140-.LBB119
 6866 0077 00       		.byte	0
 6867              	.LLRL9:
 6868 0078 05       		.byte	0x5
 6869 0079 12000000 		.long	.LBB120
 6870 007d 04       		.byte	0x4
 6871 007e 00       		.uleb128 .LBB120-.LBB120
 6872 007f 06       		.uleb128 .LBE120-.LBB120
 6873 0080 04       		.byte	0x4
 6874 0081 18       		.uleb128 .LBB129-.LBB120
 6875 0082 1B       		.uleb128 .LBE129-.LBB120
 6876 0083 04       		.byte	0x4
 6877 0084 1F       		.uleb128 .LBB130-.LBB120
 6878 0085 1F       		.uleb128 .LBE130-.LBB120
 6879 0086 04       		.byte	0x4
 6880 0087 25       		.uleb128 .LBB131-.LBB120
 6881 0088 28       		.uleb128 .LBE131-.LBB120
 6882 0089 00       		.byte	0
 6883              	.LLRL10:
 6884 008a 05       		.byte	0x5
 6885 008b 12000000 		.long	.LBB122
 6886 008f 04       		.byte	0x4
 6887 0090 00       		.uleb128 .LBB122-.LBB122
 6888 0091 06       		.uleb128 .LBE122-.LBB122
 6889 0092 04       		.byte	0x4
 6890 0093 1F       		.uleb128 .LBB125-.LBB122
 6891 0094 1F       		.uleb128 .LBE125-.LBB122
 6892 0095 00       		.byte	0
GAS LISTING /tmp/ccVaQ2UV.s 			page 128


 6893              	.LLRL11:
 6894 0096 05       		.byte	0x5
 6895 0097 EB000000 		.long	.LBB135
 6896 009b 04       		.byte	0x4
 6897 009c 00       		.uleb128 .LBB135-.LBB135
 6898 009d 06       		.uleb128 .LBE135-.LBB135
 6899 009e 04       		.byte	0x4
 6900 009f 18       		.uleb128 .LBB141-.LBB135
 6901 00a0 1E       		.uleb128 .LBE141-.LBB135
 6902 00a1 00       		.byte	0
 6903              	.LLRL13:
 6904 00a2 05       		.byte	0x5
 6905 00a3 00000000 		.long	.LBB146
 6906 00a7 04       		.byte	0x4
 6907 00a8 00       		.uleb128 .LBB146-.LBB146
 6908 00a9 00       		.uleb128 .LBE146-.LBB146
 6909 00aa 04       		.byte	0x4
 6910 00ab 12       		.uleb128 .LBB155-.LBB146
 6911 00ac 18       		.uleb128 .LBE155-.LBB146
 6912 00ad 04       		.byte	0x4
 6913 00ae 2A       		.uleb128 .LBB156-.LBB146
 6914 00af 31       		.uleb128 .LBE156-.LBB146
 6915 00b0 04       		.byte	0x4
 6916 00b1 37       		.uleb128 .LBB157-.LBB146
 6917 00b2 3A       		.uleb128 .LBE157-.LBB146
 6918 00b3 00       		.byte	0
 6919              	.LLRL14:
 6920 00b4 05       		.byte	0x5
 6921 00b5 00000000 		.long	.LBB148
 6922 00b9 04       		.byte	0x4
 6923 00ba 00       		.uleb128 .LBB148-.LBB148
 6924 00bb 00       		.uleb128 .LBE148-.LBB148
 6925 00bc 04       		.byte	0x4
 6926 00bd 12       		.uleb128 .LBB151-.LBB148
 6927 00be 18       		.uleb128 .LBE151-.LBB148
 6928 00bf 00       		.byte	0
 6929              	.LLRL15:
 6930 00c0 05       		.byte	0x5
 6931 00c1 22010000 		.long	.LBB158
 6932 00c5 04       		.byte	0x4
 6933 00c6 00       		.uleb128 .LBB158-.LBB158
 6934 00c7 00       		.uleb128 .LBE158-.LBB158
 6935 00c8 04       		.byte	0x4
 6936 00c9 09       		.uleb128 .LBB163-.LBB158
 6937 00ca 10       		.uleb128 .LBE163-.LBB158
 6938 00cb 00       		.byte	0
 6939              	.LLRL18:
 6940 00cc 05       		.byte	0x5
 6941 00cd 00000000 		.long	.LBB164
 6942 00d1 04       		.byte	0x4
 6943 00d2 00       		.uleb128 .LBB164-.LBB164
 6944 00d3 00       		.uleb128 .LBE164-.LBB164
 6945 00d4 04       		.byte	0x4
 6946 00d5 12       		.uleb128 .LBB173-.LBB164
 6947 00d6 18       		.uleb128 .LBE173-.LBB164
 6948 00d7 04       		.byte	0x4
 6949 00d8 24       		.uleb128 .LBB174-.LBB164
GAS LISTING /tmp/ccVaQ2UV.s 			page 129


 6950 00d9 27       		.uleb128 .LBE174-.LBB164
 6951 00da 04       		.byte	0x4
 6952 00db 2E       		.uleb128 .LBB175-.LBB164
 6953 00dc 35       		.uleb128 .LBE175-.LBB164
 6954 00dd 00       		.byte	0
 6955              	.LLRL19:
 6956 00de 05       		.byte	0x5
 6957 00df 00000000 		.long	.LBB166
 6958 00e3 04       		.byte	0x4
 6959 00e4 00       		.uleb128 .LBB166-.LBB166
 6960 00e5 00       		.uleb128 .LBE166-.LBB166
 6961 00e6 04       		.byte	0x4
 6962 00e7 12       		.uleb128 .LBB169-.LBB166
 6963 00e8 18       		.uleb128 .LBE169-.LBB166
 6964 00e9 00       		.byte	0
 6965              	.LLRL20:
 6966 00ea 05       		.byte	0x5
 6967 00eb C7000000 		.long	.LBB176
 6968 00ef 04       		.byte	0x4
 6969 00f0 00       		.uleb128 .LBB176-.LBB176
 6970 00f1 00       		.uleb128 .LBE176-.LBB176
 6971 00f2 04       		.byte	0x4
 6972 00f3 0E       		.uleb128 .LBB179-.LBB176
 6973 00f4 19       		.uleb128 .LBE179-.LBB176
 6974 00f5 00       		.byte	0
 6975              	.LLRL22:
 6976 00f6 05       		.byte	0x5
 6977 00f7 F1000000 		.long	.LBB180
 6978 00fb 04       		.byte	0x4
 6979 00fc 00       		.uleb128 .LBB180-.LBB180
 6980 00fd 03       		.uleb128 .LBE180-.LBB180
 6981 00fe 04       		.byte	0x4
 6982 00ff 13       		.uleb128 .LBB185-.LBB180
 6983 0100 13       		.uleb128 .LBE185-.LBB180
 6984 0101 00       		.byte	0
 6985              	.LLRL23:
 6986 0102 05       		.byte	0x5
 6987 0103 A1010000 		.long	.LBB186
 6988 0107 04       		.byte	0x4
 6989 0108 00       		.uleb128 .LBB186-.LBB186
 6990 0109 00       		.uleb128 .LBE186-.LBB186
 6991 010a 04       		.byte	0x4
 6992 010b 03       		.uleb128 .LBB189-.LBB186
 6993 010c 0E       		.uleb128 .LBE189-.LBB186
 6994 010d 00       		.byte	0
 6995              	.LLRL25:
 6996 010e 05       		.byte	0x5
 6997 010f C4010000 		.long	.LBB190
 6998 0113 04       		.byte	0x4
 6999 0114 00       		.uleb128 .LBB190-.LBB190
 7000 0115 03       		.uleb128 .LBE190-.LBB190
 7001 0116 04       		.byte	0x4
 7002 0117 0D       		.uleb128 .LBB195-.LBB190
 7003 0118 0D       		.uleb128 .LBE195-.LBB190
 7004 0119 00       		.byte	0
 7005              	.LLRL29:
 7006 011a 05       		.byte	0x5
GAS LISTING /tmp/ccVaQ2UV.s 			page 130


 7007 011b 00000000 		.long	.LBB196
 7008 011f 04       		.byte	0x4
 7009 0120 00       		.uleb128 .LBB196-.LBB196
 7010 0121 00       		.uleb128 .LBE196-.LBB196
 7011 0122 04       		.byte	0x4
 7012 0123 12       		.uleb128 .LBB205-.LBB196
 7013 0124 18       		.uleb128 .LBE205-.LBB196
 7014 0125 04       		.byte	0x4
 7015 0126 24       		.uleb128 .LBB206-.LBB196
 7016 0127 27       		.uleb128 .LBE206-.LBB196
 7017 0128 04       		.byte	0x4
 7018 0129 2E       		.uleb128 .LBB207-.LBB196
 7019 012a 31       		.uleb128 .LBE207-.LBB196
 7020 012b 00       		.byte	0
 7021              	.LLRL30:
 7022 012c 05       		.byte	0x5
 7023 012d 00000000 		.long	.LBB198
 7024 0131 04       		.byte	0x4
 7025 0132 00       		.uleb128 .LBB198-.LBB198
 7026 0133 00       		.uleb128 .LBE198-.LBB198
 7027 0134 04       		.byte	0x4
 7028 0135 12       		.uleb128 .LBB201-.LBB198
 7029 0136 18       		.uleb128 .LBE201-.LBB198
 7030 0137 00       		.byte	0
 7031              	.LLRL31:
 7032 0138 05       		.byte	0x5
 7033 0139 B1000000 		.long	.LBB208
 7034 013d 04       		.byte	0x4
 7035 013e 00       		.uleb128 .LBB208-.LBB208
 7036 013f 00       		.uleb128 .LBE208-.LBB208
 7037 0140 04       		.byte	0x4
 7038 0141 0D       		.uleb128 .LBB213-.LBB208
 7039 0142 10       		.uleb128 .LBE213-.LBB208
 7040 0143 00       		.byte	0
 7041              	.LLRL32:
 7042 0144 05       		.byte	0x5
 7043 0145 F1000000 		.long	.LBB214
 7044 0149 04       		.byte	0x4
 7045 014a 00       		.uleb128 .LBB214-.LBB214
 7046 014b 00       		.uleb128 .LBE214-.LBB214
 7047 014c 04       		.byte	0x4
 7048 014d 01       		.uleb128 .LBB219-.LBB214
 7049 014e 04       		.uleb128 .LBE219-.LBB214
 7050 014f 00       		.byte	0
 7051              	.LLRL33:
 7052 0150 05       		.byte	0x5
 7053 0151 2E010000 		.long	.LBB220
 7054 0155 04       		.byte	0x4
 7055 0156 00       		.uleb128 .LBB220-.LBB220
 7056 0157 00       		.uleb128 .LBE220-.LBB220
 7057 0158 04       		.byte	0x4
 7058 0159 06       		.uleb128 .LBB225-.LBB220
 7059 015a 09       		.uleb128 .LBE225-.LBB220
 7060 015b 00       		.byte	0
 7061              	.LLRL34:
 7062 015c 05       		.byte	0x5
 7063 015d 62010000 		.long	.LBB226
GAS LISTING /tmp/ccVaQ2UV.s 			page 131


 7064 0161 04       		.byte	0x4
 7065 0162 00       		.uleb128 .LBB226-.LBB226
 7066 0163 00       		.uleb128 .LBE226-.LBB226
 7067 0164 04       		.byte	0x4
 7068 0165 01       		.uleb128 .LBB231-.LBB226
 7069 0166 04       		.uleb128 .LBE231-.LBB226
 7070 0167 00       		.byte	0
 7071              	.LLRL35:
 7072 0168 05       		.byte	0x5
 7073 0169 9C010000 		.long	.LBB232
 7074 016d 04       		.byte	0x4
 7075 016e 00       		.uleb128 .LBB232-.LBB232
 7076 016f 00       		.uleb128 .LBE232-.LBB232
 7077 0170 04       		.byte	0x4
 7078 0171 06       		.uleb128 .LBB237-.LBB232
 7079 0172 09       		.uleb128 .LBE237-.LBB232
 7080 0173 00       		.byte	0
 7081              	.LLRL36:
 7082 0174 05       		.byte	0x5
 7083 0175 D6010000 		.long	.LBB238
 7084 0179 04       		.byte	0x4
 7085 017a 00       		.uleb128 .LBB238-.LBB238
 7086 017b 00       		.uleb128 .LBE238-.LBB238
 7087 017c 04       		.byte	0x4
 7088 017d 01       		.uleb128 .LBB243-.LBB238
 7089 017e 04       		.uleb128 .LBE243-.LBB238
 7090 017f 00       		.byte	0
 7091              	.LLRL37:
 7092 0180 05       		.byte	0x5
 7093 0181 1B000000 		.long	.LBB244
 7094 0185 04       		.byte	0x4
 7095 0186 00       		.uleb128 .LBB244-.LBB244
 7096 0187 06       		.uleb128 .LBE244-.LBB244
 7097 0188 04       		.byte	0x4
 7098 0189 0F       		.uleb128 .LBB249-.LBB244
 7099 018a 15       		.uleb128 .LBE249-.LBB244
 7100 018b 00       		.byte	0
 7101              	.LLRL38:
 7102 018c 05       		.byte	0x5
 7103 018d 42000000 		.long	.LBB250
 7104 0191 04       		.byte	0x4
 7105 0192 00       		.uleb128 .LBB250-.LBB250
 7106 0193 00       		.uleb128 .LBE250-.LBB250
 7107 0194 04       		.byte	0x4
 7108 0195 03       		.uleb128 .LBB257-.LBB250
 7109 0196 09       		.uleb128 .LBE257-.LBB250
 7110 0197 00       		.byte	0
 7111              	.LLRL39:
 7112 0198 07       		.byte	0x7
 7113 0199 00000000 		.long	.LFB312
 7114 019d 19       		.uleb128 .LFE312-.LFB312
 7115 019e 07       		.byte	0x7
 7116 019f 00000000 		.long	.LFB321
 7117 01a3 8802     		.uleb128 .LFE321-.LFB321
 7118 01a5 07       		.byte	0x7
 7119 01a6 00000000 		.long	.LFB308
 7120 01aa 39       		.uleb128 .LFE308-.LFB308
GAS LISTING /tmp/ccVaQ2UV.s 			page 132


 7121 01ab 07       		.byte	0x7
 7122 01ac 00000000 		.long	.LFB303
 7123 01b0 39       		.uleb128 .LFE303-.LFB303
 7124 01b1 07       		.byte	0x7
 7125 01b2 00000000 		.long	.LFB306
 7126 01b6 47       		.uleb128 .LFE306-.LFB306
 7127 01b7 07       		.byte	0x7
 7128 01b8 00000000 		.long	.LFB307
 7129 01bc 61       		.uleb128 .LFE307-.LFB307
 7130 01bd 07       		.byte	0x7
 7131 01be 00000000 		.long	.LFB320
 7132 01c2 3C       		.uleb128 .LFE320-.LFB320
 7133 01c3 07       		.byte	0x7
 7134 01c4 00000000 		.long	.LFB316
 7135 01c8 2E       		.uleb128 .LFE316-.LFB316
 7136 01c9 07       		.byte	0x7
 7137 01ca 00000000 		.long	.LFB311
 7138 01ce 2E       		.uleb128 .LFE311-.LFB311
 7139 01cf 07       		.byte	0x7
 7140 01d0 00000000 		.long	.LFB309
 7141 01d4 20       		.uleb128 .LFE309-.LFB309
 7142 01d5 07       		.byte	0x7
 7143 01d6 00000000 		.long	.LFB319
 7144 01da A502     		.uleb128 .LFE319-.LFB319
 7145 01dc 07       		.byte	0x7
 7146 01dd 00000000 		.long	.LFB317
 7147 01e1 DC02     		.uleb128 .LFE317-.LFB317
 7148 01e3 07       		.byte	0x7
 7149 01e4 00000000 		.long	.LFB310
 7150 01e8 E902     		.uleb128 .LFE310-.LFB310
 7151 01ea 07       		.byte	0x7
 7152 01eb 00000000 		.long	.LFB315
 7153 01ef F003     		.uleb128 .LFE315-.LFB315
 7154 01f1 07       		.byte	0x7
 7155 01f2 00000000 		.long	.LFB313
 7156 01f6 F603     		.uleb128 .LFE313-.LFB313
 7157 01f8 07       		.byte	0x7
 7158 01f9 00000000 		.long	.LFB304
 7159 01fd 33       		.uleb128 .LFE304-.LFB304
 7160 01fe 07       		.byte	0x7
 7161 01ff 00000000 		.long	.LFB305
 7162 0203 4F       		.uleb128 .LFE305-.LFB305
 7163 0204 00       		.byte	0
 7164              	.Ldebug_ranges3:
 7165              		.section	.debug_line,"",@progbits
 7166              	.Ldebug_line0:
 7167 0000 8B0D0000 		.section	.debug_str,"MS",@progbits,1
 7167      05000400 
 7167      B8000000 
 7167      010101FB 
 7167      0E0D0001 
 7168              	.LASF117:
 7169 0000 7466756E 		.string	"tfunc_t"
 7169      635F7400 
 7170              	.LASF154:
 7171 0008 63685468 		.string	"chThdSleep"
 7171      64536C65 
GAS LISTING /tmp/ccVaQ2UV.s 			page 133


 7171      657000
 7172              	.LASF189:
 7173 0013 74687265 		.string	"thread4A"
 7173      61643441 
 7173      00
 7174              	.LASF188:
 7175 001c 74687265 		.string	"thread4B"
 7175      61643442 
 7175      00
 7176              	.LASF11:
 7177 0025 73697A65 		.string	"size_t"
 7177      5F7400
 7178              	.LASF80:
 7179 002c 64656C74 		.string	"delta"
 7179      6100
 7180              	.LASF97:
 7181 0032 7264796D 		.string	"rdymsg"
 7181      736700
 7182              	.LASF22:
 7183 0039 75696E74 		.string	"uint64_t"
 7183      36345F74 
 7183      00
 7184              	.LASF12:
 7185 0042 5F5F7569 		.string	"__uint8_t"
 7185      6E74385F 
 7185      7400
 7186              	.LASF74:
 7187 004c 70726576 		.string	"prev"
 7187      00
 7188              	.LASF82:
 7189 0051 706F7274 		.string	"port_intctx"
 7189      5F696E74 
 7189      63747800 
 7190              	.LASF65:
 7191 005d 73797374 		.string	"system_debug_t"
 7191      656D5F64 
 7191      65627567 
 7191      5F7400
 7192              	.LASF54:
 7193 006c 636F7265 		.string	"core_id"
 7193      5F696400 
 7194              	.LASF3:
 7195 0074 6C6F6E67 		.string	"long int"
 7195      20696E74 
 7195      00
 7196              	.LASF75:
 7197 007d 63685F70 		.string	"ch_priority_queue_t"
 7197      72696F72 
 7197      6974795F 
 7197      71756575 
 7197      655F7400 
 7198              	.LASF83:
 7199 0091 706F7274 		.string	"port_context"
 7199      5F636F6E 
 7199      74657874 
 7199      00
 7200              	.LASF160:
GAS LISTING /tmp/ccVaQ2UV.s 			page 134


 7201 009e 6368436F 		.string	"chCondBroadcast"
 7201      6E644272 
 7201      6F616463 
 7201      61737400 
 7202              	.LASF110:
 7203 00ae 63685F6F 		.string	"ch_os_instance_config"
 7203      735F696E 
 7203      7374616E 
 7203      63655F63 
 7203      6F6E6669 
 7204              	.LASF6:
 7205 00c4 5F466C6F 		.string	"_Float128"
 7205      61743132 
 7205      3800
 7206              	.LASF17:
 7207 00ce 6C6F6E67 		.string	"long long unsigned int"
 7207      206C6F6E 
 7207      6720756E 
 7207      7369676E 
 7207      65642069 
 7208              	.LASF41:
 7209 00e5 64697370 		.string	"dispose"
 7209      6F736500 
 7210              	.LASF98:
 7211 00ed 65786974 		.string	"exitcode"
 7211      636F6465 
 7211      00
 7212              	.LASF58:
 7213 00f6 6D61696E 		.string	"mainthread"
 7213      74687265 
 7213      616400
 7214              	.LASF101:
 7215 0101 73656E74 		.string	"sentmsg"
 7215      6D736700 
 7216              	.LASF89:
 7217 0109 76697274 		.string	"virtual_timers_list_t"
 7217      75616C5F 
 7217      74696D65 
 7217      72735F6C 
 7217      6973745F 
 7218              	.LASF71:
 7219 011f 6E657874 		.string	"next"
 7219      00
 7220              	.LASF42:
 7221 0124 6F626A65 		.string	"object"
 7221      637400
 7222              	.LASF137:
 7223 012b 74656172 		.string	"teardown"
 7223      646F776E 
 7223      00
 7224              	.LASF38:
 7225 0134 72656673 		.string	"refs"
 7225      00
 7226              	.LASF112:
 7227 0139 63737461 		.string	"cstack_end"
 7227      636B5F65 
 7227      6E6400
GAS LISTING /tmp/ccVaQ2UV.s 			page 135


 7228              	.LASF165:
 7229 0144 63684D74 		.string	"chMtxUnlock"
 7229      78556E6C 
 7229      6F636B00 
 7230              	.LASF10:
 7231 0150 7369676E 		.string	"signed char"
 7231      65642063 
 7231      68617200 
 7232              	.LASF128:
 7233 015c 676C6F62 		.string	"global_fail"
 7233      616C5F66 
 7233      61696C00 
 7234              	.LASF141:
 7235 0168 74657374 		.string	"testsequence_t"
 7235      73657175 
 7235      656E6365 
 7235      5F7400
 7236              	.LASF79:
 7237 0177 63685F64 		.string	"ch_delta_list"
 7237      656C7461 
 7237      5F6C6973 
 7237      7400
 7238              	.LASF166:
 7239 0185 74657374 		.string	"test_emit_token"
 7239      5F656D69 
 7239      745F746F 
 7239      6B656E00 
 7240              	.LASF52:
 7241 0195 76746C69 		.string	"vtlist"
 7241      737400
 7242              	.LASF194:
 7243 019c 706F7274 		.string	"port_unlock"
 7243      5F756E6C 
 7243      6F636B00 
 7244              	.LASF168:
 7245 01a8 5F5F7465 		.string	"__test_assert_sequence"
 7245      73745F61 
 7245      73736572 
 7245      745F7365 
 7245      7175656E 
 7246              	.LASF44:
 7247 01bf 6D736771 		.string	"msgqueue"
 7247      75657565 
 7247      00
 7248              	.LASF186:
 7249 01c8 74687265 		.string	"thread8"
 7249      61643800 
 7250              	.LASF36:
 7251 01d0 73746174 		.string	"state"
 7251      6500
 7252              	.LASF185:
 7253 01d6 74687265 		.string	"thread9"
 7253      61643900 
 7254              	.LASF197:
 7255 01de 73746B6C 		.string	"stkline_t"
 7255      696E655F 
 7255      7400
GAS LISTING /tmp/ccVaQ2UV.s 			page 136


 7256              	.LASF149:
 7257 01e8 72745F74 		.string	"rt_test_008_008"
 7257      6573745F 
 7257      3030385F 
 7257      30303800 
 7258              	.LASF25:
 7259 01f8 74737461 		.string	"tstate_t"
 7259      74655F74 
 7259      00
 7260              	.LASF60:
 7261 0201 63685F72 		.string	"ch_rfcu"
 7261      66637500 
 7262              	.LASF161:
 7263 0209 63684D74 		.string	"chMtxObjectInit"
 7263      784F626A 
 7263      65637449 
 7263      6E697400 
 7264              	.LASF73:
 7265 0219 63685F71 		.string	"ch_queue"
 7265      75657565 
 7265      00
 7266              	.LASF133:
 7267 0222 70757463 		.string	"putchar"
 7267      68617200 
 7268              	.LASF4:
 7269 022a 6C6F6E67 		.string	"long long int"
 7269      206C6F6E 
 7269      6720696E 
 7269      7400
 7270              	.LASF153:
 7271 0238 63684D74 		.string	"chMtxLockS"
 7271      784C6F63 
 7271      6B5300
 7272              	.LASF91:
 7273 0243 71756575 		.string	"queue"
 7273      6500
 7274              	.LASF78:
 7275 0249 63685F64 		.string	"ch_delta_list_t"
 7275      656C7461 
 7275      5F6C6973 
 7275      745F7400 
 7276              	.LASF131:
 7277 0259 746F6B70 		.string	"tokp"
 7277      00
 7278              	.LASF90:
 7279 025e 63685F72 		.string	"ch_registry"
 7279      65676973 
 7279      74727900 
 7280              	.LASF111:
 7281 026a 63737461 		.string	"cstack_base"
 7281      636B5F62 
 7281      61736500 
 7282              	.LASF175:
 7283 0276 72745F74 		.string	"rt_test_008_007_execute"
 7283      6573745F 
 7283      3030385F 
 7283      3030375F 
GAS LISTING /tmp/ccVaQ2UV.s 			page 137


 7283      65786563 
 7284              	.LASF158:
 7285 028e 63685363 		.string	"chSchRescheduleS"
 7285      68526573 
 7285      63686564 
 7285      756C6553 
 7285      00
 7286              	.LASF15:
 7287 029f 5F5F7569 		.string	"__uint32_t"
 7287      6E743332 
 7287      5F7400
 7288              	.LASF35:
 7289 02aa 7761656E 		.string	"waend"
 7289      6400
 7290              	.LASF135:
 7291 02b0 63685F74 		.string	"ch_test_context_t"
 7291      6573745F 
 7291      636F6E74 
 7291      6578745F 
 7291      7400
 7292              	.LASF63:
 7293 02c2 63685F73 		.string	"ch_system_debug"
 7293      79737465 
 7293      6D5F6465 
 7293      62756700 
 7294              	.LASF43:
 7295 02d2 77616974 		.string	"waiting"
 7295      696E6700 
 7296              	.LASF113:
 7297 02da 69646C65 		.string	"idlestack_base"
 7297      73746163 
 7297      6B5F6261 
 7297      736500
 7298              	.LASF118:
 7299 02e9 6D757465 		.string	"mutex_t"
 7299      785F7400 
 7300              	.LASF125:
 7301 02f1 42617365 		.string	"BaseSequentialStream"
 7301      53657175 
 7301      656E7469 
 7301      616C5374 
 7301      7265616D 
 7302              	.LASF170:
 7303 0306 6368436F 		.string	"chCondSignal"
 7303      6E645369 
 7303      676E616C 
 7303      00
 7304              	.LASF67:
 7305 0313 73797369 		.string	"sysinterval_t"
 7305      6E746572 
 7305      76616C5F 
 7305      7400
 7306              	.LASF30:
 7307 0321 636E745F 		.string	"cnt_t"
 7307      7400
 7308              	.LASF152:
 7309 0327 63684D74 		.string	"chMtxUnlockS"
GAS LISTING /tmp/ccVaQ2UV.s 			page 138


 7309      78556E6C 
 7309      6F636B53 
 7309      00
 7310              	.LASF2:
 7311 0334 756E7369 		.string	"unsigned int"
 7311      676E6564 
 7311      20696E74 
 7311      00
 7312              	.LASF181:
 7313 0341 72745F74 		.string	"rt_test_008_004_setup"
 7313      6573745F 
 7313      3030385F 
 7313      3030345F 
 7313      73657475 
 7314              	.LASF102:
 7315 0357 77747365 		.string	"wtsemp"
 7315      6D7000
 7316              	.LASF100:
 7317 035e 77747472 		.string	"wttrp"
 7317      7000
 7318              	.LASF40:
 7319 0364 72717565 		.string	"rqueue"
 7319      756500
 7320              	.LASF72:
 7321 036b 63685F71 		.string	"ch_queue_t"
 7321      75657565 
 7321      5F7400
 7322              	.LASF68:
 7323 0376 74696D65 		.string	"time_conv_t"
 7323      5F636F6E 
 7323      765F7400 
 7324              	.LASF39:
 7325 0382 6E616D65 		.string	"name"
 7325      00
 7326              	.LASF94:
 7327 0387 74687265 		.string	"thread_dispose_t"
 7327      61645F64 
 7327      6973706F 
 7327      73655F74 
 7327      00
 7328              	.LASF182:
 7329 0398 72745F74 		.string	"rt_test_008_001_execute"
 7329      6573745F 
 7329      3030385F 
 7329      3030315F 
 7329      65786563 
 7330              	.LASF177:
 7331 03b0 72745F74 		.string	"rt_test_008_008_setup"
 7331      6573745F 
 7331      3030385F 
 7331      3030385F 
 7331      73657475 
 7332              	.LASF8:
 7333 03c6 73686F72 		.string	"short unsigned int"
 7333      7420756E 
 7333      7369676E 
 7333      65642069 
GAS LISTING /tmp/ccVaQ2UV.s 			page 139


 7333      6E7400
 7334              	.LASF69:
 7335 03d9 63685F6C 		.string	"ch_list_t"
 7335      6973745F 
 7335      7400
 7336              	.LASF49:
 7337 03e3 63685F74 		.string	"ch_thread"
 7337      68726561 
 7337      6400
 7338              	.LASF28:
 7339 03ed 6D73675F 		.string	"msg_t"
 7339      7400
 7340              	.LASF45:
 7341 03f3 6570656E 		.string	"epending"
 7341      64696E67 
 7341      00
 7342              	.LASF174:
 7343 03fc 72745F74 		.string	"rt_test_008_008_execute"
 7343      6573745F 
 7343      3030385F 
 7343      3030385F 
 7343      65786563 
 7344              	.LASF157:
 7345 0414 63684D74 		.string	"chMtxUnlockAll"
 7345      78556E6C 
 7345      6F636B41 
 7345      6C6C00
 7346              	.LASF23:
 7347 0423 73797373 		.string	"syssts_t"
 7347      74735F74 
 7347      00
 7348              	.LASF24:
 7349 042c 746D6F64 		.string	"tmode_t"
 7349      655F7400 
 7350              	.LASF87:
 7351 0434 73797374 		.string	"systime"
 7351      696D6500 
 7352              	.LASF70:
 7353 043c 63685F6C 		.string	"ch_list"
 7353      69737400 
 7354              	.LASF107:
 7355 0444 63685F72 		.string	"ch_ready_list"
 7355      65616479 
 7355      5F6C6973 
 7355      7400
 7356              	.LASF29:
 7357 0452 6576656E 		.string	"eventmask_t"
 7357      746D6173 
 7357      6B5F7400 
 7358              	.LASF13:
 7359 045e 73686F72 		.string	"short int"
 7359      7420696E 
 7359      7400
 7360              	.LASF156:
 7361 0468 63684D74 		.string	"chMtxTryLock"
 7361      78547279 
 7361      4C6F636B 
GAS LISTING /tmp/ccVaQ2UV.s 			page 140


 7361      00
 7362              	.LASF139:
 7363 0475 74657374 		.string	"testcase_t"
 7363      63617365 
 7363      5F7400
 7364              	.LASF171:
 7365 0480 63685468 		.string	"chThdCreateStatic"
 7365      64437265 
 7365      61746553 
 7365      74617469 
 7365      6300
 7366              	.LASF88:
 7367 0492 6C617374 		.string	"laststamp"
 7367      7374616D 
 7367      7000
 7368              	.LASF123:
 7369 049c 77726974 		.string	"write"
 7369      6500
 7370              	.LASF184:
 7371 04a2 72745F74 		.string	"rt_test_008_001_setup"
 7371      6573745F 
 7371      3030385F 
 7371      3030315F 
 7371      73657475 
 7372              	.LASF47:
 7373 04b8 7265616C 		.string	"realprio"
 7373      7072696F 
 7373      00
 7374              	.LASF196:
 7375 04c1 474E5520 		.string	"GNU C17 11.4.0 -m32 -mtune=generic -march=i686 -ggdb -O2 -ffunction-sections -fdata-secti
 7375      43313720 
 7375      31312E34 
 7375      2E30202D 
 7375      6D333220 
 7376              	.LASF59:
 7377 0579 72666375 		.string	"rfcu_mask_t"
 7377      5F6D6173 
 7377      6B5F7400 
 7378              	.LASF126:
 7379 0585 74657374 		.string	"test_putchar_t"
 7379      5F707574 
 7379      63686172 
 7379      5F7400
 7380              	.LASF93:
 7381 0594 74687265 		.string	"thread_reference_t"
 7381      61645F72 
 7381      65666572 
 7381      656E6365 
 7381      5F7400
 7382              	.LASF85:
 7383 05a7 63685F76 		.string	"ch_virtual_timers_list"
 7383      69727475 
 7383      616C5F74 
 7383      696D6572 
 7383      735F6C69 
 7384              	.LASF119:
 7385 05be 636F6E64 		.string	"condition_variable"
GAS LISTING /tmp/ccVaQ2UV.s 			page 141


 7385      6974696F 
 7385      6E5F7661 
 7385      72696162 
 7385      6C6500
 7386              	.LASF151:
 7387 05d1 72745F74 		.string	"rt_test_sequence_008_array"
 7387      6573745F 
 7387      73657175 
 7387      656E6365 
 7387      5F303038 
 7388              	.LASF132:
 7389 05ec 746F6B65 		.string	"tokens_buffer"
 7389      6E735F62 
 7389      75666665 
 7389      7200
 7390              	.LASF167:
 7391 05fa 63684D74 		.string	"chMtxLock"
 7391      784C6F63 
 7391      6B00
 7392              	.LASF169:
 7393 0604 74657374 		.string	"test_wait_threads"
 7393      5F776169 
 7393      745F7468 
 7393      72656164 
 7393      7300
 7394              	.LASF145:
 7395 0616 72745F74 		.string	"rt_test_008_001"
 7395      6573745F 
 7395      3030385F 
 7395      30303100 
 7396              	.LASF127:
 7397 0626 63757272 		.string	"current_step"
 7397      656E745F 
 7397      73746570 
 7397      00
 7398              	.LASF146:
 7399 0633 72745F74 		.string	"rt_test_008_004"
 7399      6573745F 
 7399      3030385F 
 7399      30303400 
 7400              	.LASF147:
 7401 0643 72745F74 		.string	"rt_test_008_005"
 7401      6573745F 
 7401      3030385F 
 7401      30303500 
 7402              	.LASF187:
 7403 0653 74687265 		.string	"thread6"
 7403      61643600 
 7404              	.LASF148:
 7405 065b 72745F74 		.string	"rt_test_008_007"
 7405      6573745F 
 7405      3030385F 
 7405      30303700 
 7406              	.LASF191:
 7407 066b 63685468 		.string	"chThdGetPriorityX"
 7407      64476574 
 7407      5072696F 
GAS LISTING /tmp/ccVaQ2UV.s 			page 142


 7407      72697479 
 7407      5800
 7408              	.LASF150:
 7409 067d 72745F74 		.string	"rt_test_008_009"
 7409      6573745F 
 7409      3030385F 
 7409      30303900 
 7410              	.LASF172:
 7411 068d 72745F74 		.string	"rt_test_008_009_execute"
 7411      6573745F 
 7411      3030385F 
 7411      3030395F 
 7411      65786563 
 7412              	.LASF77:
 7413 06a5 7072696F 		.string	"prio"
 7413      00
 7414              	.LASF114:
 7415 06aa 69646C65 		.string	"idlestack_end"
 7415      73746163 
 7415      6B5F656E 
 7415      6400
 7416              	.LASF108:
 7417 06b8 63757272 		.string	"current"
 7417      656E7400 
 7418              	.LASF129:
 7419 06c0 6C6F6361 		.string	"local_fail"
 7419      6C5F6661 
 7419      696C00
 7420              	.LASF16:
 7421 06cb 5F5F7569 		.string	"__uint64_t"
 7421      6E743634 
 7421      5F7400
 7422              	.LASF124:
 7423 06d6 72656164 		.string	"read"
 7423      00
 7424              	.LASF136:
 7425 06db 73657475 		.string	"setup"
 7425      7000
 7426              	.LASF31:
 7427 06e1 636F7265 		.string	"core_id_t"
 7427      5F69645F 
 7427      7400
 7428              	.LASF26:
 7429 06eb 74726566 		.string	"trefs_t"
 7429      735F7400 
 7430              	.LASF138:
 7431 06f3 65786563 		.string	"execute"
 7431      75746500 
 7432              	.LASF46:
 7433 06fb 6D74786C 		.string	"mtxlist"
 7433      69737400 
 7434              	.LASF27:
 7435 0703 74707269 		.string	"tprio_t"
 7435      6F5F7400 
 7436              	.LASF134:
 7437 070b 73747265 		.string	"stream"
 7437      616D00
GAS LISTING /tmp/ccVaQ2UV.s 			page 143


 7438              	.LASF159:
 7439 0712 6368436F 		.string	"chCondSignalI"
 7439      6E645369 
 7439      676E616C 
 7439      4900
 7440              	.LASF84:
 7441 0720 5F426F6F 		.string	"_Bool"
 7441      6C00
 7442              	.LASF19:
 7443 0726 696E7433 		.string	"int32_t"
 7443      325F7400 
 7444              	.LASF7:
 7445 072e 756E7369 		.string	"unsigned char"
 7445      676E6564 
 7445      20636861 
 7445      7200
 7446              	.LASF62:
 7447 073c 72666375 		.string	"rfcu_t"
 7447      5F7400
 7448              	.LASF155:
 7449 0743 5F5F7465 		.string	"__test_assert"
 7449      73745F61 
 7449      73736572 
 7449      7400
 7450              	.LASF144:
 7451 0751 74687265 		.string	"threads"
 7451      61647300 
 7452              	.LASF104:
 7453 0759 65776D61 		.string	"ewmask"
 7453      736B00
 7454              	.LASF121:
 7455 0760 42617365 		.string	"BaseSequentialStreamVMT"
 7455      53657175 
 7455      656E7469 
 7455      616C5374 
 7455      7265616D 
 7456              	.LASF199:
 7457 0778 5F5F6675 		.string	"__func__"
 7457      6E635F5F 
 7457      00
 7458              	.LASF193:
 7459 0781 63685379 		.string	"chSysLock"
 7459      734C6F63 
 7459      6B00
 7460              	.LASF105:
 7461 078b 63685F73 		.string	"ch_semaphore"
 7461      656D6170 
 7461      686F7265 
 7461      00
 7462              	.LASF92:
 7463 0798 72656769 		.string	"registry_t"
 7463      73747279 
 7463      5F7400
 7464              	.LASF21:
 7465 07a3 75696E74 		.string	"uint32_t"
 7465      33325F74 
 7465      00
GAS LISTING /tmp/ccVaQ2UV.s 			page 144


 7466              	.LASF103:
 7467 07ac 77746D74 		.string	"wtmtxp"
 7467      787000
 7468              	.LASF33:
 7469 07b3 6F776E65 		.string	"owner"
 7469      7200
 7470              	.LASF116:
 7471 07b9 706F7274 		.string	"port_irq_sts"
 7471      5F697271 
 7471      5F737473 
 7471      00
 7472              	.LASF9:
 7473 07c6 6C6F6E67 		.string	"long unsigned int"
 7473      20756E73 
 7473      69676E65 
 7473      6420696E 
 7473      7400
 7474              	.LASF34:
 7475 07d8 77616261 		.string	"wabase"
 7475      736500
 7476              	.LASF18:
 7477 07df 63686172 		.string	"char"
 7477      00
 7478              	.LASF106:
 7479 07e4 63685F6D 		.string	"ch_mutex"
 7479      75746578 
 7479      00
 7480              	.LASF56:
 7481 07ed 636F6E66 		.string	"config"
 7481      696700
 7482              	.LASF190:
 7483 07f4 74687265 		.string	"thread1"
 7483      61643100 
 7484              	.LASF162:
 7485 07fc 6368436F 		.string	"chCondObjectInit"
 7485      6E644F62 
 7485      6A656374 
 7485      496E6974 
 7485      00
 7486              	.LASF5:
 7487 080d 6C6F6E67 		.string	"long double"
 7487      20646F75 
 7487      626C6500 
 7488              	.LASF86:
 7489 0819 646C6973 		.string	"dlist"
 7489      7400
 7490              	.LASF66:
 7491 081f 73797374 		.string	"systime_t"
 7491      696D655F 
 7491      7400
 7492              	.LASF81:
 7493 0829 72656778 		.string	"regx86"
 7493      383600
 7494              	.LASF14:
 7495 0830 5F5F696E 		.string	"__int32_t"
 7495      7433325F 
 7495      7400
GAS LISTING /tmp/ccVaQ2UV.s 			page 145


 7496              	.LASF142:
 7497 083a 63687465 		.string	"chtest"
 7497      737400
 7498              	.LASF64:
 7499 0841 70616E69 		.string	"panic_msg"
 7499      635F6D73 
 7499      6700
 7500              	.LASF96:
 7501 084b 70717565 		.string	"pqueue"
 7501      756500
 7502              	.LASF50:
 7503 0852 63685F6F 		.string	"ch_os_instance"
 7503      735F696E 
 7503      7374616E 
 7503      636500
 7504              	.LASF48:
 7505 0861 6F735F69 		.string	"os_instance_t"
 7505      6E737461 
 7505      6E63655F 
 7505      7400
 7506              	.LASF200:
 7507 086f 63685F71 		.string	"ch_queue_isempty"
 7507      75657565 
 7507      5F697365 
 7507      6D707479 
 7507      00
 7508              	.LASF179:
 7509 0880 72745F74 		.string	"rt_test_008_004_execute"
 7509      6573745F 
 7509      3030385F 
 7509      3030345F 
 7509      65786563 
 7510              	.LASF76:
 7511 0898 63685F70 		.string	"ch_priority_queue"
 7511      72696F72 
 7511      6974795F 
 7511      71756575 
 7511      6500
 7512              	.LASF180:
 7513 08aa 72745F74 		.string	"rt_test_008_004_teardown"
 7513      6573745F 
 7513      3030385F 
 7513      3030345F 
 7513      74656172 
 7514              	.LASF164:
 7515 08c3 6368436F 		.string	"chCondWait"
 7515      6E645761 
 7515      697400
 7516              	.LASF178:
 7517 08ce 72745F74 		.string	"rt_test_008_005_setup"
 7517      6573745F 
 7517      3030385F 
 7517      3030355F 
 7517      73657475 
 7518              	.LASF109:
 7519 08e4 72656164 		.string	"ready_list_t"
 7519      795F6C69 
GAS LISTING /tmp/ccVaQ2UV.s 			page 146


 7519      73745F74 
 7519      00
 7520              	.LASF115:
 7521 08f1 6F735F69 		.string	"os_instance_config_t"
 7521      6E737461 
 7521      6E63655F 
 7521      636F6E66 
 7521      69675F74 
 7522              	.LASF183:
 7523 0906 72745F74 		.string	"rt_test_008_007_setup"
 7523      6573745F 
 7523      3030385F 
 7523      3030375F 
 7523      73657475 
 7524              	.LASF61:
 7525 091c 6D61736B 		.string	"mask"
 7525      00
 7526              	.LASF143:
 7527 0921 72745F74 		.string	"rt_test_sequence_008"
 7527      6573745F 
 7527      73657175 
 7527      656E6365 
 7527      5F303038 
 7528              	.LASF32:
 7529 0936 74687265 		.string	"thread_t"
 7529      61645F74 
 7529      00
 7530              	.LASF120:
 7531 093f 636F6E64 		.string	"condition_variable_t"
 7531      6974696F 
 7531      6E5F7661 
 7531      72696162 
 7531      6C655F74 
 7532              	.LASF51:
 7533 0954 726C6973 		.string	"rlist"
 7533      7400
 7534              	.LASF192:
 7535 095a 63685468 		.string	"chThdGetSelfX"
 7535      64476574 
 7535      53656C66 
 7535      5800
 7536              	.LASF20:
 7537 0968 75696E74 		.string	"uint8_t"
 7537      385F7400 
 7538              	.LASF173:
 7539 0970 72745F74 		.string	"rt_test_008_009_setup"
 7539      6573745F 
 7539      3030385F 
 7539      3030395F 
 7539      73657475 
 7540              	.LASF37:
 7541 0986 666C6167 		.string	"flags"
 7541      7300
 7542              	.LASF99:
 7543 098c 77746F62 		.string	"wtobjp"
 7543      6A7000
 7544              	.LASF53:
GAS LISTING /tmp/ccVaQ2UV.s 			page 147


 7545 0993 7265676C 		.string	"reglist"
 7545      69737400 
 7546              	.LASF163:
 7547 099b 6368436F 		.string	"chCondWaitTimeout"
 7547      6E645761 
 7547      69745469 
 7547      6D656F75 
 7547      7400
 7548              	.LASF198:
 7549 09ad 63685379 		.string	"chSysUnlock"
 7549      73556E6C 
 7549      6F636B00 
 7550              	.LASF55:
 7551 09b9 72666375 		.string	"rfcu"
 7551      00
 7552              	.LASF122:
 7553 09be 696E7374 		.string	"instance_offset"
 7553      616E6365 
 7553      5F6F6666 
 7553      73657400 
 7554              	.LASF95:
 7555 09ce 6C697374 		.string	"list"
 7555      00
 7556              	.LASF195:
 7557 09d3 706F7274 		.string	"port_lock"
 7557      5F6C6F63 
 7557      6B00
 7558              	.LASF176:
 7559 09dd 72745F74 		.string	"rt_test_008_005_execute"
 7559      6573745F 
 7559      3030385F 
 7559      3030355F 
 7559      65786563 
 7560              	.LASF130:
 7561 09f5 6661696C 		.string	"failure_message"
 7561      7572655F 
 7561      6D657373 
 7561      61676500 
 7562              	.LASF140:
 7563 0a05 63617365 		.string	"cases"
 7563      7300
 7564              	.LASF57:
 7565 0a0b 69646C65 		.string	"idlethread"
 7565      74687265 
 7565      616400
 7566              		.section	.debug_line_str,"MS",@progbits,1
 7567              	.LASF0:
 7568 0000 2E2E2F2E 		.string	"../../../test/rt/source/test/rt_test_sequence_008.c"
 7568      2E2F2E2E 
 7568      2F746573 
 7568      742F7274 
 7568      2F736F75 
 7569              	.LASF1:
 7570 0034 2F686F6D 		.string	"/home/alex/ChibiOS/demos/various/LAB3_VARIANT2"
 7570      652F616C 
 7570      65782F43 
 7570      68696269 
GAS LISTING /tmp/ccVaQ2UV.s 			page 148


 7570      4F532F64 
 7571              		.ident	"GCC: (Ubuntu 11.4.0-1ubuntu1~22.04) 11.4.0"
 7572 0063 2F686F6D 		.section	.note.GNU-stack,"",@progbits
 7572      652F616C 
 7572      65782F43 
 7572      68696269 
 7572      4F532F64 
GAS LISTING /tmp/ccVaQ2UV.s 			page 149


DEFINED SYMBOLS
                            *ABS*:0000000000000000 rt_test_sequence_008.c
     /tmp/ccVaQ2UV.s:8      .text.rt_test_008_004_teardown:0000000000000000 rt_test_008_004_teardown
     /tmp/ccVaQ2UV.s:2822   .text.__x86.get_pc_thunk.bx:0000000000000000 __x86.get_pc_thunk.bx
     /tmp/ccVaQ2UV.s:49     .text.rt_test_008_009_execute:0000000000000000 rt_test_008_009_execute
     /tmp/ccVaQ2UV.s:428    .text.thread8:0000000000000000 thread8
     /tmp/ccVaQ2UV.s:374    .text.thread6:0000000000000000 thread6
     /tmp/ccVaQ2UV.s:276    .text.thread9:0000000000000000 thread9
     /tmp/ccVaQ2UV.s:2797   .data.rel.local.c1:0000000000000000 c1
     /tmp/ccVaQ2UV.s:2804   .data.rel.local.m2:0000000000000000 m2
     /tmp/ccVaQ2UV.s:325    .text.thread1:0000000000000000 thread1
     /tmp/ccVaQ2UV.s:2813   .data.rel.local.m1:0000000000000000 m1
     /tmp/ccVaQ2UV.s:506    .text.rt_test_008_009_setup:0000000000000000 rt_test_008_009_setup
     /tmp/ccVaQ2UV.s:548    .text.rt_test_008_007_setup:0000000000000000 rt_test_008_007_setup
     /tmp/ccVaQ2UV.s:585    .text.rt_test_008_004_setup:0000000000000000 rt_test_008_004_setup
     /tmp/ccVaQ2UV.s:622    .text.rt_test_008_001_setup:0000000000000000 rt_test_008_001_setup
     /tmp/ccVaQ2UV.s:661    .text.rt_test_008_008_execute:0000000000000000 rt_test_008_008_execute
     /tmp/ccVaQ2UV.s:909    .text.rt_test_008_007_execute:0000000000000000 rt_test_008_007_execute
     /tmp/ccVaQ2UV.s:1228   .text.rt_test_008_001_execute:0000000000000000 rt_test_008_001_execute
     /tmp/ccVaQ2UV.s:1539   .text.rt_test_008_005_execute:0000000000000000 rt_test_008_005_execute
     /tmp/ccVaQ2UV.s:1983   .text.rt_test_008_004_execute:0000000000000000 rt_test_008_004_execute
     /tmp/ccVaQ2UV.s:2478   .text.thread4A:0000000000000000 thread4A
     /tmp/ccVaQ2UV.s:2526   .text.thread4B:0000000000000000 thread4B
     /tmp/ccVaQ2UV.s:2640   .text.rt_test_008_005_setup:0000000000000000 rt_test_008_005_setup
     /tmp/ccVaQ2UV.s:2666   .text.rt_test_008_008_setup:0000000000000000 rt_test_008_008_setup
     /tmp/ccVaQ2UV.s:2701   .data.rel.ro.local.rt_test_sequence_008:0000000000000000 rt_test_sequence_008
     /tmp/ccVaQ2UV.s:2709   .data.rel.ro.local.rt_test_sequence_008_array:0000000000000000 rt_test_sequence_008_array
     /tmp/ccVaQ2UV.s:2788   .data.rel.ro.local.rt_test_008_001:0000000000000000 rt_test_008_001
     /tmp/ccVaQ2UV.s:2776   .data.rel.ro.local.rt_test_008_004:0000000000000000 rt_test_008_004
     /tmp/ccVaQ2UV.s:2764   .data.rel.ro.local.rt_test_008_005:0000000000000000 rt_test_008_005
     /tmp/ccVaQ2UV.s:2751   .data.rel.ro.local.rt_test_008_007:0000000000000000 rt_test_008_007
     /tmp/ccVaQ2UV.s:2738   .data.rel.ro.local.rt_test_008_008:0000000000000000 rt_test_008_008
     /tmp/ccVaQ2UV.s:2725   .data.rel.ro.local.rt_test_008_009:0000000000000000 rt_test_008_009
     /tmp/ccVaQ2UV.s:36     .rodata.rt_test_008_009_execute.str1.1:0000000000000000 .LC0
     /tmp/ccVaQ2UV.s:38     .rodata.rt_test_008_009_execute.str1.1:0000000000000002 .LC1
     /tmp/ccVaQ2UV.s:40     .rodata.rt_test_008_009_execute.str1.1:0000000000000004 .LC2
     /tmp/ccVaQ2UV.s:42     .rodata.rt_test_008_009_execute.str1.1:0000000000000006 .LC3
     /tmp/ccVaQ2UV.s:44     .rodata.rt_test_008_009_execute.str1.1:0000000000000017 .LC4
     /tmp/ccVaQ2UV.s:652    .rodata.rt_test_008_008_execute.str1.1:0000000000000000 .LC5
     /tmp/ccVaQ2UV.s:654    .rodata.rt_test_008_008_execute.str1.1:0000000000000002 .LC6
     /tmp/ccVaQ2UV.s:656    .rodata.rt_test_008_008_execute.str1.1:0000000000000004 .LC7
     /tmp/ccVaQ2UV.s:1223   .rodata.rt_test_008_001_execute.str1.1:0000000000000000 .LC8
     /tmp/ccVaQ2UV.s:1528   .rodata.rt_test_008_005_execute.str1.1:0000000000000000 .LC9
     /tmp/ccVaQ2UV.s:1530   .rodata.rt_test_008_005_execute.str1.1:000000000000000f .LC10
     /tmp/ccVaQ2UV.s:1532   .rodata.rt_test_008_005_execute.str1.1:000000000000001a .LC11
     /tmp/ccVaQ2UV.s:1534   .rodata.rt_test_008_005_execute.str1.1:0000000000000026 .LC12

UNDEFINED SYMBOLS
_GLOBAL_OFFSET_TABLE_
test_wait_threads
ch0
wa
chtest
chThdCreateStatic
threads
chCondSignal
__test_assert_sequence
GAS LISTING /tmp/ccVaQ2UV.s 			page 150


chMtxLock
test_emit_token
chMtxUnlock
chCondWait
chCondWaitTimeout
chCondObjectInit
chMtxObjectInit
chCondBroadcast
port_irq_sts
chCondSignalI
chSchRescheduleS
__test_assert
chMtxTryLock
chMtxUnlockAll
chThdSleep
chMtxLockS
chMtxUnlockS
