GAS LISTING /tmp/ccgfxTiB.s 			page 1


   1              		.file	"rt_test_sequence_002.c"
   2              		.text
   3              	.Ltext0:
   4              		.file 0 "/home/alex/ChibiOS/demos/various/LAB3_VARIANT2" "../../../test/rt/source/test/rt_test_seq
   5              		.section	.text.rt_test_002_003_execute,"ax",@progbits
   6              		.p2align 4
   7              		.type	rt_test_002_003_execute, @function
   8              	rt_test_002_003_execute:
   9              	.LFB304:
  10              		.file 1 "../../../test/rt/source/test/rt_test_sequence_002.c"
  11              		.loc 1 233 43 view -0
  12              		.cfi_startproc
  13              		.loc 1 237 3 view .LVU1
  14 0000 E8FCFFFF 		call	__x86.get_pc_thunk.ax
  14      FF
  15 0005 05010000 		addl	$_GLOBAL_OFFSET_TABLE_, %eax
  15      00
  16 000a 8B900000 		movl	chtest@GOT(%eax), %edx
  16      0000
  17              	.LBB88:
  18              	.LBB89:
  19              	.LBB90:
  20              		.file 2 "../../../os/common/ports/SIMIA32/chcore.h"
  21              		.loc 2 416 16 is_stmt 0 view .LVU2
  22 0010 8B800000 		movl	port_irq_sts@GOT(%eax), %eax
  22      0000
  23              	.LBE90:
  24              	.LBE89:
  25              	.LBE88:
  26              		.loc 1 237 3 view .LVU3
  27 0016 C7020100 		movl	$1, (%edx)
  27      0000
  28              		.loc 1 239 5 is_stmt 1 view .LVU4
  29              		.loc 1 240 5 view .LVU5
  30              		.loc 1 241 5 view .LVU6
  31              		.loc 1 242 5 view .LVU7
  32              	.LBB93:
  33              	.LBI88:
  34              		.file 3 "../../../os/rt/include/chsys.h"
  35              		.loc 3 394 20 view .LVU8
  36              		.loc 3 396 23 view .LVU9
  37              		.loc 3 397 3 view .LVU10
  38              	.LBB92:
  39              	.LBI89:
  40              		.loc 2 414 20 view .LVU11
  41              	.LBB91:
  42              		.loc 2 416 3 view .LVU12
  43              		.loc 2 416 16 is_stmt 0 view .LVU13
  44 001c C7000000 		movl	$0, (%eax)
  44      0000
  45              	.LBE91:
  46              	.LBE92:
  47              	.LBE93:
  48              		.loc 1 244 3 is_stmt 1 view .LVU14
  49              		.loc 1 244 19 view .LVU15
  50              		.loc 1 245 1 is_stmt 0 view .LVU16
  51 0022 C3       		ret
GAS LISTING /tmp/ccgfxTiB.s 			page 2


  52              		.cfi_endproc
  53              	.LFE304:
  54              		.size	rt_test_002_003_execute, .-rt_test_002_003_execute
  55              		.section	.rodata.rt_test_002_001_execute.str1.1,"aMS",@progbits,1
  56              	.LC0:
  57 0000 72656164 		.string	"ready list check failed"
  57      79206C69 
  57      73742063 
  57      6865636B 
  57      20666169 
  58              		.section	.rodata.rt_test_002_001_execute.str1.4,"aMS",@progbits,1
  59              		.align 4
  60              	.LC1:
  61 0000 76697274 		.string	"virtual timers list check failed"
  61      75616C20 
  61      74696D65 
  61      7273206C 
  61      69737420 
  62              		.section	.rodata.rt_test_002_001_execute.str1.1
  63              	.LC2:
  64 0018 72656769 		.string	"registry list check failed"
  64      73747279 
  64      206C6973 
  64      74206368 
  64      65636B20 
  65              	.LC3:
  66 0033 706F7274 		.string	"port layer check failed"
  66      206C6179 
  66      65722063 
  66      6865636B 
  66      20666169 
  67              		.section	.text.rt_test_002_001_execute,"ax",@progbits
  68              		.p2align 4
  69              		.type	rt_test_002_001_execute, @function
  70              	rt_test_002_001_execute:
  71              	.LFB303:
  72              		.loc 1 85 43 is_stmt 1 view -0
  73              		.cfi_startproc
  74              		.loc 1 86 3 view .LVU18
  75              		.loc 1 89 3 view .LVU19
  76              		.loc 1 85 43 is_stmt 0 view .LVU20
  77 0000 57       		pushl	%edi
  78              		.cfi_def_cfa_offset 8
  79              		.cfi_offset 7, -8
  80 0001 56       		pushl	%esi
  81              		.cfi_def_cfa_offset 12
  82              		.cfi_offset 6, -12
  83 0002 53       		pushl	%ebx
  84              		.cfi_def_cfa_offset 16
  85              		.cfi_offset 3, -16
  86 0003 E8FCFFFF 		call	__x86.get_pc_thunk.bx
  86      FF
  87 0008 81C30200 		addl	$_GLOBAL_OFFSET_TABLE_, %ebx
  87      0000
  88              		.loc 1 92 14 view .LVU21
  89 000e 83EC0C   		subl	$12, %esp
  90              		.cfi_def_cfa_offset 28
GAS LISTING /tmp/ccgfxTiB.s 			page 3


  91 0011 6A01     		pushl	$1
  92              		.cfi_def_cfa_offset 32
  93              	.LBB131:
  94              	.LBB132:
  95              	.LBB133:
  96              		.loc 2 363 16 view .LVU22
  97 0013 8BB30000 		movl	port_irq_sts@GOT(%ebx), %esi
  97      0000
  98              	.LBE133:
  99              	.LBE132:
 100              	.LBE131:
 101              		.loc 1 89 3 view .LVU23
 102 0019 8BBB0000 		movl	chtest@GOT(%ebx), %edi
 102      0000
 103              	.LBB138:
 104              	.LBB136:
 105              	.LBB134:
 106              		.loc 2 363 16 view .LVU24
 107 001f C7060100 		movl	$1, (%esi)
 107      0000
 108              	.LBE134:
 109              	.LBE136:
 110              	.LBE138:
 111              		.loc 1 89 3 view .LVU25
 112 0025 C7070100 		movl	$1, (%edi)
 112      0000
 113              		.loc 1 91 5 is_stmt 1 view .LVU26
 114              	.LBB139:
 115              	.LBI131:
 116              		.loc 3 407 20 view .LVU27
 117              		.loc 3 409 3 view .LVU28
 118              	.LBB137:
 119              	.LBI132:
 120              		.loc 2 361 20 view .LVU29
 121              	.LBB135:
 122              		.loc 2 363 3 view .LVU30
 123              	.LBE135:
 124              	.LBE137:
 125              		.loc 3 410 35 view .LVU31
 126              		.loc 3 411 21 view .LVU32
 127              	.LBE139:
 128              		.loc 1 92 5 view .LVU33
 129              		.loc 1 92 14 is_stmt 0 view .LVU34
 130 002b E8FCFFFF 		call	chSysIntegrityCheckI@PLT
 130      FF
 131              	.LVL0:
 132              		.loc 1 93 5 is_stmt 1 view .LVU35
 133              	.LBB140:
 134              	.LBI140:
 135              		.loc 3 421 20 view .LVU36
 136              	.LBB141:
 137              		.loc 3 423 23 view .LVU37
 138              		.loc 3 424 34 view .LVU38
 139              		.loc 3 430 3 view .LVU39
 140              		.loc 3 430 3 view .LVU40
 141              		.loc 3 430 3 view .LVU41
 142              		.loc 3 434 3 view .LVU42
GAS LISTING /tmp/ccgfxTiB.s 			page 4


 143              	.LBB142:
 144              	.LBI142:
 145              		.loc 2 370 20 view .LVU43
 146              	.LBB143:
 147              		.loc 2 372 3 view .LVU44
 148              	.LBE143:
 149              	.LBE142:
 150              	.LBE141:
 151              	.LBE140:
 152              		.loc 1 94 5 is_stmt 0 view .LVU45
 153 0030 5A       		popl	%edx
 154              		.cfi_def_cfa_offset 28
 155 0031 8D930000 		leal	.LC0@GOTOFF(%ebx), %edx
 155      0000
 156 0037 59       		popl	%ecx
 157              		.cfi_def_cfa_offset 24
 158 0038 83F001   		xorl	$1, %eax
 159              	.LVL1:
 160              		.loc 1 94 5 view .LVU46
 161 003b 52       		pushl	%edx
 162              		.cfi_def_cfa_offset 28
 163 003c 0FB6C0   		movzbl	%al, %eax
 164              	.LBB147:
 165              	.LBB146:
 166              	.LBB145:
 167              	.LBB144:
 168              		.loc 2 372 16 view .LVU47
 169 003f C7060000 		movl	$0, (%esi)
 169      0000
 170              	.LBE144:
 171              	.LBE145:
 172              	.LBE146:
 173              	.LBE147:
 174              		.loc 1 94 5 is_stmt 1 view .LVU48
 175 0045 50       		pushl	%eax
 176              		.cfi_def_cfa_offset 32
 177 0046 E8FCFFFF 		call	__test_assert@PLT
 177      FF
 178              	.LVL2:
 179 004b 83C410   		addl	$16, %esp
 180              		.cfi_def_cfa_offset 16
 181 004e 84C0     		testb	%al, %al
 182 0050 740E     		je	.L8
 183              	.L3:
 184              		.loc 1 127 1 is_stmt 0 view .LVU49
 185 0052 5B       		popl	%ebx
 186              		.cfi_remember_state
 187              		.cfi_restore 3
 188              		.cfi_def_cfa_offset 12
 189 0053 5E       		popl	%esi
 190              		.cfi_restore 6
 191              		.cfi_def_cfa_offset 8
 192 0054 5F       		popl	%edi
 193              		.cfi_restore 7
 194              		.cfi_def_cfa_offset 4
 195 0055 C3       		ret
 196 0056 8DB42600 		.p2align 4,,10
GAS LISTING /tmp/ccgfxTiB.s 			page 5


 196      0000008D 
 196      7600
 197              		.p2align 3
 198              	.L8:
 199              		.cfi_restore_state
 200              	.LBB148:
 201              	.LBI148:
 202              		.loc 1 85 13 is_stmt 1 view .LVU50
 203              	.LBB149:
 204              		.loc 1 94 60 view .LVU51
 205              		.loc 1 96 3 view .LVU52
 206              		.loc 1 96 19 view .LVU53
 207              		.loc 1 99 3 view .LVU54
 208              		.loc 1 102 14 is_stmt 0 view .LVU55
 209 0060 83EC0C   		subl	$12, %esp
 210              		.cfi_def_cfa_offset 28
 211              		.loc 1 99 3 view .LVU56
 212 0063 C7070200 		movl	$2, (%edi)
 212      0000
 213              		.loc 1 101 5 is_stmt 1 view .LVU57
 214              	.LBB150:
 215              	.LBI150:
 216              		.loc 3 407 20 view .LVU58
 217              		.loc 3 409 3 view .LVU59
 218              	.LBB151:
 219              	.LBI151:
 220              		.loc 2 361 20 view .LVU60
 221              	.LBB152:
 222              		.loc 2 363 3 view .LVU61
 223              	.LBE152:
 224              	.LBE151:
 225              	.LBE150:
 226              		.loc 1 102 14 is_stmt 0 view .LVU62
 227 0069 6A02     		pushl	$2
 228              		.cfi_def_cfa_offset 32
 229              	.LBB155:
 230              	.LBB154:
 231              	.LBB153:
 232              		.loc 2 363 16 view .LVU63
 233 006b C7060100 		movl	$1, (%esi)
 233      0000
 234              	.LBE153:
 235              	.LBE154:
 236              		.loc 3 410 35 is_stmt 1 view .LVU64
 237              		.loc 3 411 21 view .LVU65
 238              	.LBE155:
 239              		.loc 1 102 5 view .LVU66
 240              		.loc 1 102 14 is_stmt 0 view .LVU67
 241 0071 E8FCFFFF 		call	chSysIntegrityCheckI@PLT
 241      FF
 242              	.LVL3:
 243              		.loc 1 103 5 is_stmt 1 view .LVU68
 244              	.LBB156:
 245              	.LBI156:
 246              		.loc 3 421 20 view .LVU69
 247              	.LBB157:
 248              		.loc 3 423 23 view .LVU70
GAS LISTING /tmp/ccgfxTiB.s 			page 6


 249              		.loc 3 424 34 view .LVU71
 250              		.loc 3 430 3 view .LVU72
 251              		.loc 3 430 3 view .LVU73
 252              		.loc 3 430 3 view .LVU74
 253              		.loc 3 434 3 view .LVU75
 254              	.LBB158:
 255              	.LBI158:
 256              		.loc 2 370 20 view .LVU76
 257              	.LBB159:
 258              		.loc 2 372 3 view .LVU77
 259              	.LBE159:
 260              	.LBE158:
 261              	.LBE157:
 262              	.LBE156:
 263              		.loc 1 104 5 is_stmt 0 view .LVU78
 264 0076 5A       		popl	%edx
 265              		.cfi_def_cfa_offset 28
 266 0077 8D930000 		leal	.LC1@GOTOFF(%ebx), %edx
 266      0000
 267 007d 59       		popl	%ecx
 268              		.cfi_def_cfa_offset 24
 269 007e 83F001   		xorl	$1, %eax
 270              	.LVL4:
 271              		.loc 1 104 5 view .LVU79
 272 0081 52       		pushl	%edx
 273              		.cfi_def_cfa_offset 28
 274 0082 0FB6C0   		movzbl	%al, %eax
 275              	.LBB163:
 276              	.LBB162:
 277              	.LBB161:
 278              	.LBB160:
 279              		.loc 2 372 16 view .LVU80
 280 0085 C7060000 		movl	$0, (%esi)
 280      0000
 281              	.LBE160:
 282              	.LBE161:
 283              	.LBE162:
 284              	.LBE163:
 285              		.loc 1 104 5 is_stmt 1 view .LVU81
 286 008b 50       		pushl	%eax
 287              		.cfi_def_cfa_offset 32
 288 008c E8FCFFFF 		call	__test_assert@PLT
 288      FF
 289              	.LVL5:
 290 0091 83C410   		addl	$16, %esp
 291              		.cfi_def_cfa_offset 16
 292 0094 84C0     		testb	%al, %al
 293 0096 75BA     		jne	.L3
 294              		.loc 1 104 69 view .LVU82
 295              		.loc 1 106 3 view .LVU83
 296              		.loc 1 106 19 view .LVU84
 297              		.loc 1 109 3 view .LVU85
 298              		.loc 1 112 14 is_stmt 0 view .LVU86
 299 0098 83EC0C   		subl	$12, %esp
 300              		.cfi_def_cfa_offset 28
 301              		.loc 1 109 3 view .LVU87
 302 009b C7070300 		movl	$3, (%edi)
GAS LISTING /tmp/ccgfxTiB.s 			page 7


 302      0000
 303              		.loc 1 111 5 is_stmt 1 view .LVU88
 304              	.LBB164:
 305              	.LBI164:
 306              		.loc 3 407 20 view .LVU89
 307              		.loc 3 409 3 view .LVU90
 308              	.LBB165:
 309              	.LBI165:
 310              		.loc 2 361 20 view .LVU91
 311              	.LBB166:
 312              		.loc 2 363 3 view .LVU92
 313              	.LBE166:
 314              	.LBE165:
 315              	.LBE164:
 316              		.loc 1 112 14 is_stmt 0 view .LVU93
 317 00a1 6A04     		pushl	$4
 318              		.cfi_def_cfa_offset 32
 319              	.LBB169:
 320              	.LBB168:
 321              	.LBB167:
 322              		.loc 2 363 16 view .LVU94
 323 00a3 C7060100 		movl	$1, (%esi)
 323      0000
 324              	.LBE167:
 325              	.LBE168:
 326              		.loc 3 410 35 is_stmt 1 view .LVU95
 327              		.loc 3 411 21 view .LVU96
 328              	.LBE169:
 329              		.loc 1 112 5 view .LVU97
 330              		.loc 1 112 14 is_stmt 0 view .LVU98
 331 00a9 E8FCFFFF 		call	chSysIntegrityCheckI@PLT
 331      FF
 332              	.LVL6:
 333              		.loc 1 113 5 is_stmt 1 view .LVU99
 334              	.LBB170:
 335              	.LBI170:
 336              		.loc 3 421 20 view .LVU100
 337              	.LBB171:
 338              		.loc 3 423 23 view .LVU101
 339              		.loc 3 424 34 view .LVU102
 340              		.loc 3 430 3 view .LVU103
 341              		.loc 3 430 3 view .LVU104
 342              		.loc 3 430 3 view .LVU105
 343              		.loc 3 434 3 view .LVU106
 344              	.LBB172:
 345              	.LBI172:
 346              		.loc 2 370 20 view .LVU107
 347              	.LBB173:
 348              		.loc 2 372 3 view .LVU108
 349              	.LBE173:
 350              	.LBE172:
 351              	.LBE171:
 352              	.LBE170:
 353              		.loc 1 114 5 is_stmt 0 view .LVU109
 354 00ae 5A       		popl	%edx
 355              		.cfi_def_cfa_offset 28
 356 00af 8D930000 		leal	.LC2@GOTOFF(%ebx), %edx
GAS LISTING /tmp/ccgfxTiB.s 			page 8


 356      0000
 357 00b5 59       		popl	%ecx
 358              		.cfi_def_cfa_offset 24
 359 00b6 83F001   		xorl	$1, %eax
 360              	.LVL7:
 361              		.loc 1 114 5 view .LVU110
 362 00b9 52       		pushl	%edx
 363              		.cfi_def_cfa_offset 28
 364 00ba 0FB6C0   		movzbl	%al, %eax
 365              	.LBB177:
 366              	.LBB176:
 367              	.LBB175:
 368              	.LBB174:
 369              		.loc 2 372 16 view .LVU111
 370 00bd C7060000 		movl	$0, (%esi)
 370      0000
 371              	.LBE174:
 372              	.LBE175:
 373              	.LBE176:
 374              	.LBE177:
 375              		.loc 1 114 5 is_stmt 1 view .LVU112
 376 00c3 50       		pushl	%eax
 377              		.cfi_def_cfa_offset 32
 378 00c4 E8FCFFFF 		call	__test_assert@PLT
 378      FF
 379              	.LVL8:
 380 00c9 83C410   		addl	$16, %esp
 381              		.cfi_def_cfa_offset 16
 382 00cc 84C0     		testb	%al, %al
 383 00ce 7582     		jne	.L3
 384              		.loc 1 114 63 view .LVU113
 385              		.loc 1 116 3 view .LVU114
 386              		.loc 1 116 19 view .LVU115
 387              		.loc 1 119 3 view .LVU116
 388              		.loc 1 122 14 is_stmt 0 view .LVU117
 389 00d0 83EC0C   		subl	$12, %esp
 390              		.cfi_def_cfa_offset 28
 391              		.loc 1 119 3 view .LVU118
 392 00d3 C7070400 		movl	$4, (%edi)
 392      0000
 393              		.loc 1 121 5 is_stmt 1 view .LVU119
 394              	.LBB178:
 395              	.LBI178:
 396              		.loc 3 407 20 view .LVU120
 397              		.loc 3 409 3 view .LVU121
 398              	.LBB179:
 399              	.LBI179:
 400              		.loc 2 361 20 view .LVU122
 401              	.LBB180:
 402              		.loc 2 363 3 view .LVU123
 403              	.LBE180:
 404              	.LBE179:
 405              	.LBE178:
 406              		.loc 1 122 14 is_stmt 0 view .LVU124
 407 00d9 6A08     		pushl	$8
 408              		.cfi_def_cfa_offset 32
 409              	.LBB183:
GAS LISTING /tmp/ccgfxTiB.s 			page 9


 410              	.LBB182:
 411              	.LBB181:
 412              		.loc 2 363 16 view .LVU125
 413 00db C7060100 		movl	$1, (%esi)
 413      0000
 414              	.LBE181:
 415              	.LBE182:
 416              		.loc 3 410 35 is_stmt 1 view .LVU126
 417              		.loc 3 411 21 view .LVU127
 418              	.LBE183:
 419              		.loc 1 122 5 view .LVU128
 420              		.loc 1 122 14 is_stmt 0 view .LVU129
 421 00e1 E8FCFFFF 		call	chSysIntegrityCheckI@PLT
 421      FF
 422              	.LVL9:
 423              		.loc 1 123 5 is_stmt 1 view .LVU130
 424              	.LBB184:
 425              	.LBI184:
 426              		.loc 3 421 20 view .LVU131
 427              	.LBB185:
 428              		.loc 3 423 23 view .LVU132
 429              		.loc 3 424 34 view .LVU133
 430              		.loc 3 430 3 view .LVU134
 431              		.loc 3 430 3 view .LVU135
 432              		.loc 3 430 3 view .LVU136
 433              		.loc 3 434 3 view .LVU137
 434              	.LBB186:
 435              	.LBI186:
 436              		.loc 2 370 20 view .LVU138
 437              	.LBB187:
 438              		.loc 2 372 3 view .LVU139
 439              	.LBE187:
 440              	.LBE186:
 441              	.LBE185:
 442              	.LBE184:
 443              		.loc 1 124 5 is_stmt 0 view .LVU140
 444 00e6 5A       		popl	%edx
 445              		.cfi_def_cfa_offset 28
 446 00e7 8D930000 		leal	.LC3@GOTOFF(%ebx), %edx
 446      0000
 447 00ed 59       		popl	%ecx
 448              		.cfi_def_cfa_offset 24
 449 00ee 83F001   		xorl	$1, %eax
 450              	.LVL10:
 451              		.loc 1 124 5 view .LVU141
 452 00f1 52       		pushl	%edx
 453              		.cfi_def_cfa_offset 28
 454 00f2 0FB6C0   		movzbl	%al, %eax
 455              	.LBB191:
 456              	.LBB190:
 457              	.LBB189:
 458              	.LBB188:
 459              		.loc 2 372 16 view .LVU142
 460 00f5 C7060000 		movl	$0, (%esi)
 460      0000
 461              	.LBE188:
 462              	.LBE189:
GAS LISTING /tmp/ccgfxTiB.s 			page 10


 463              	.LBE190:
 464              	.LBE191:
 465              		.loc 1 124 5 is_stmt 1 view .LVU143
 466 00fb 50       		pushl	%eax
 467              		.cfi_def_cfa_offset 32
 468 00fc E8FCFFFF 		call	__test_assert@PLT
 468      FF
 469              	.LVL11:
 470 0101 83C410   		addl	$16, %esp
 471              		.cfi_def_cfa_offset 16
 472              		.loc 1 124 5 is_stmt 0 view .LVU144
 473              	.LBE149:
 474              	.LBE148:
 475              		.loc 1 124 60 is_stmt 1 view .LVU145
 476              		.loc 1 126 3 view .LVU146
 477              		.loc 1 126 19 view .LVU147
 478              		.loc 1 127 1 is_stmt 0 view .LVU148
 479 0104 5B       		popl	%ebx
 480              		.cfi_restore 3
 481              		.cfi_def_cfa_offset 12
 482 0105 5E       		popl	%esi
 483              		.cfi_restore 6
 484              		.cfi_def_cfa_offset 8
 485 0106 5F       		popl	%edi
 486              		.cfi_restore 7
 487              		.cfi_def_cfa_offset 4
 488 0107 C3       		ret
 489              		.cfi_endproc
 490              	.LFE303:
 491              		.size	rt_test_002_001_execute, .-rt_test_002_001_execute
 492              		.globl	rt_test_sequence_002
 493              		.section	.rodata.str1.4,"aMS",@progbits,1
 494              		.align 4
 495              	.LC4:
 496 0000 53797374 		.string	"System layer and port interface"
 496      656D206C 
 496      61796572 
 496      20616E64 
 496      20706F72 
 497              		.section	.data.rel.ro.local.rt_test_sequence_002,"aw"
 498              		.align 4
 499              		.type	rt_test_sequence_002, @object
 500              		.size	rt_test_sequence_002, 8
 501              	rt_test_sequence_002:
 502 0000 00000000 		.long	.LC4
 503 0004 00000000 		.long	rt_test_sequence_002_array
 504              		.globl	rt_test_sequence_002_array
 505              		.section	.data.rel.ro.local.rt_test_sequence_002_array,"aw"
 506              		.align 4
 507              		.type	rt_test_sequence_002_array, @object
 508              		.size	rt_test_sequence_002_array, 12
 509              	rt_test_sequence_002_array:
 510 0000 00000000 		.long	rt_test_002_001
 511 0004 00000000 		.long	rt_test_002_003
 512 0008 00000000 		.long	0
 513              		.section	.rodata.str1.4
 514              		.align 4
GAS LISTING /tmp/ccgfxTiB.s 			page 11


 515              	.LC5:
 516 0020 496E7465 		.string	"Interrupts handling functionality"
 516      72727570 
 516      74732068 
 516      616E646C 
 516      696E6720 
 517              		.section	.data.rel.ro.local.rt_test_002_003,"aw"
 518              		.align 4
 519              		.type	rt_test_002_003, @object
 520              		.size	rt_test_002_003, 16
 521              	rt_test_002_003:
 522 0000 20000000 		.long	.LC5
 523 0004 00000000 		.long	0
 524 0008 00000000 		.long	0
 525 000c 00000000 		.long	rt_test_002_003_execute
 526              		.section	.rodata.str1.4
 527 0042 0000     		.align 4
 528              	.LC6:
 529 0044 53797374 		.string	"System integrity functionality"
 529      656D2069 
 529      6E746567 
 529      72697479 
 529      2066756E 
 530              		.section	.data.rel.ro.local.rt_test_002_001,"aw"
 531              		.align 4
 532              		.type	rt_test_002_001, @object
 533              		.size	rt_test_002_001, 16
 534              	rt_test_002_001:
 535 0000 44000000 		.long	.LC6
 536 0004 00000000 		.long	0
 537 0008 00000000 		.long	0
 538 000c 00000000 		.long	rt_test_002_001_execute
 539              		.section	.text.__x86.get_pc_thunk.ax,"axG",@progbits,__x86.get_pc_thunk.ax,comdat
 540              		.globl	__x86.get_pc_thunk.ax
 541              		.hidden	__x86.get_pc_thunk.ax
 542              		.type	__x86.get_pc_thunk.ax, @function
 543              	__x86.get_pc_thunk.ax:
 544              	.LFB306:
 545              		.cfi_startproc
 546 0000 8B0424   		movl	(%esp), %eax
 547 0003 C3       		ret
 548              		.cfi_endproc
 549              	.LFE306:
 550              		.section	.text.__x86.get_pc_thunk.bx,"axG",@progbits,__x86.get_pc_thunk.bx,comdat
 551              		.globl	__x86.get_pc_thunk.bx
 552              		.hidden	__x86.get_pc_thunk.bx
 553              		.type	__x86.get_pc_thunk.bx, @function
 554              	__x86.get_pc_thunk.bx:
 555              	.LFB307:
 556              		.cfi_startproc
 557 0000 8B1C24   		movl	(%esp), %ebx
 558 0003 C3       		ret
 559              		.cfi_endproc
 560              	.LFE307:
 561              		.text
 562              	.Letext0:
 563              		.file 4 "/usr/lib/gcc/x86_64-linux-gnu/11/include/stddef.h"
GAS LISTING /tmp/ccgfxTiB.s 			page 12


 564              		.file 5 "/usr/include/bits/types.h"
 565              		.file 6 "/usr/include/bits/stdint-intn.h"
 566              		.file 7 "/usr/include/bits/stdint-uintn.h"
 567              		.file 8 "../../../os/common/ports/SIMIA32/compilers/GCC/chtypes.h"
 568              		.file 9 "../../../os/hal/include/hal_streams.h"
 569              		.file 10 "../../../os/test/include/ch_test.h"
 570              		.file 11 "../../../test/rt/source/test/rt_test_sequence_002.h"
 2191 0063 2F686F6D 		.section	.note.GNU-stack,"",@progbits
 2191      652F616C 
 2191      65782F43 
 2191      68696269 
 2191      4F532F64 
GAS LISTING /tmp/ccgfxTiB.s 			page 44

