GAS LISTING /tmp/ccfxSUQM.s 			page 1


   1              		.file	"rt_test_sequence_003.c"
   2              		.text
   3              	.Ltext0:
   4              		.file 0 "/home/alex/ChibiOS/demos/various/LAB3_VARIANT2" "../../../test/rt/source/test/rt_test_seq
   5              		.section	.text.rt_test_003_001_execute,"ax",@progbits
   6              		.p2align 4
   7              		.type	rt_test_003_001_execute, @function
   8              	rt_test_003_001_execute:
   9              	.LFB303:
  10              		.file 1 "../../../test/rt/source/test/rt_test_sequence_003.c"
  11              		.loc 1 60 43 view -0
  12              		.cfi_startproc
  13              		.loc 1 64 3 view .LVU1
  14              		.loc 1 60 43 is_stmt 0 view .LVU2
  15 0000 57       		pushl	%edi
  16              		.cfi_def_cfa_offset 8
  17              		.cfi_offset 7, -8
  18 0001 56       		pushl	%esi
  19              		.cfi_def_cfa_offset 12
  20              		.cfi_offset 6, -12
  21 0002 53       		pushl	%ebx
  22              		.cfi_def_cfa_offset 16
  23              		.cfi_offset 3, -16
  24 0003 E8FCFFFF 		call	__x86.get_pc_thunk.bx
  24      FF
  25 0008 81C30200 		addl	$_GLOBAL_OFFSET_TABLE_, %ebx
  25      0000
  26              		.loc 1 64 3 view .LVU3
  27 000e 8B830000 		movl	chtest@GOT(%ebx), %eax
  27      0000
  28              	.LBB61:
  29              	.LBB62:
  30              	.LBB63:
  31              		.file 2 "../../../os/rt/include/chvt.h"
  32              		.loc 2 138 26 view .LVU4
  33 0014 8BB30000 		movl	ch0@GOT(%ebx), %esi
  33      0000
  34              	.LBE63:
  35              	.LBE62:
  36              	.LBE61:
  37              		.loc 1 64 3 view .LVU5
  38 001a C7000100 		movl	$1, (%eax)
  38      0000
  39              	.LBB70:
  40              		.loc 1 66 5 is_stmt 1 view .LVU6
  41              	.LBB65:
  42              	.LBI62:
  43              		.loc 2 135 25 view .LVU7
  44              	.LBB64:
  45              		.loc 2 138 3 view .LVU8
  46              		.loc 2 138 26 is_stmt 0 view .LVU9
  47 0020 8B7E1C   		movl	28(%esi), %edi
  48              	.LVL0:
  49              		.loc 2 138 26 view .LVU10
  50              	.LBE64:
  51              	.LBE65:
  52              		.loc 1 67 5 is_stmt 1 view .LVU11
GAS LISTING /tmp/ccfxSUQM.s 			page 2


  53              		.loc 1 67 17 view .LVU12
  54              	.LBB66:
  55              	.LBI66:
  56              		.loc 2 135 25 view .LVU13
  57              	.LBB67:
  58              		.loc 2 138 3 view .LVU14
  59              		.loc 2 138 26 is_stmt 0 view .LVU15
  60 0023 8B461C   		movl	28(%esi), %eax
  61              	.LBE67:
  62              	.LBE66:
  63              		.loc 1 67 17 view .LVU16
  64 0026 39C7     		cmpl	%eax, %edi
  65 0028 7512     		jne	.L1
  66 002a 8DB60000 		.p2align 4,,10
  66      0000
  67              		.p2align 3
  68              	.L3:
  69              		.loc 1 69 9 is_stmt 1 view .LVU17
  70 0030 E8FCFFFF 		call	_sim_check_for_interrupts@PLT
  70      FF
  71              	.LVL1:
  72              		.loc 1 67 17 view .LVU18
  73              	.LBB69:
  74              		.loc 2 135 25 view .LVU19
  75              	.LBB68:
  76              		.loc 2 138 3 view .LVU20
  77              		.loc 2 138 26 is_stmt 0 view .LVU21
  78 0035 8B461C   		movl	28(%esi), %eax
  79              	.LBE68:
  80              	.LBE69:
  81              		.loc 1 67 17 view .LVU22
  82 0038 39C7     		cmpl	%eax, %edi
  83 003a 74F4     		je	.L3
  84              	.L1:
  85              		.loc 1 67 17 view .LVU23
  86              	.LBE70:
  87              		.loc 1 74 1 view .LVU24
  88 003c 5B       		popl	%ebx
  89              		.cfi_restore 3
  90              		.cfi_def_cfa_offset 12
  91 003d 5E       		popl	%esi
  92              		.cfi_restore 6
  93              		.cfi_def_cfa_offset 8
  94 003e 5F       		popl	%edi
  95              		.cfi_restore 7
  96              		.cfi_def_cfa_offset 4
  97              	.LVL2:
  98              		.loc 1 74 1 view .LVU25
  99 003f C3       		ret
 100              		.cfi_endproc
 101              	.LFE303:
 102              		.size	rt_test_003_001_execute, .-rt_test_003_001_execute
 103              		.section	.rodata.rt_test_003_002_execute.str1.1,"aMS",@progbits,1
 104              	.LC0:
 105 0000 696E2072 		.string	"in range"
 105      616E6765 
 105      00
GAS LISTING /tmp/ccfxSUQM.s 			page 3


 106              	.LC1:
 107 0009 6E6F7420 		.string	"not in range"
 107      696E2072 
 107      616E6765 
 107      00
 108              		.section	.text.rt_test_003_002_execute,"ax",@progbits
 109              		.p2align 4
 110              		.type	rt_test_003_002_execute, @function
 111              	rt_test_003_002_execute:
 112              	.LFB304:
 113              		.loc 1 97 43 is_stmt 1 view -0
 114              		.cfi_startproc
 115              		.loc 1 101 3 view .LVU27
 116              		.loc 1 97 43 is_stmt 0 view .LVU28
 117 0000 55       		pushl	%ebp
 118              		.cfi_def_cfa_offset 8
 119              		.cfi_offset 5, -8
 120 0001 57       		pushl	%edi
 121              		.cfi_def_cfa_offset 12
 122              		.cfi_offset 7, -12
 123 0002 56       		pushl	%esi
 124              		.cfi_def_cfa_offset 16
 125              		.cfi_offset 6, -16
 126 0003 53       		pushl	%ebx
 127              		.cfi_def_cfa_offset 20
 128              		.cfi_offset 3, -20
 129 0004 E8FCFFFF 		call	__x86.get_pc_thunk.bx
 129      FF
 130 0009 81C30200 		addl	$_GLOBAL_OFFSET_TABLE_, %ebx
 130      0000
 131 000f 83EC14   		subl	$20, %esp
 132              		.cfi_def_cfa_offset 40
 133              	.LBB101:
 134              		.loc 1 106 5 view .LVU29
 135 0012 8DB30000 		leal	.LC0@GOTOFF(%ebx), %esi
 135      0000
 136              	.LBE101:
 137              		.loc 1 101 3 view .LVU30
 138 0018 8BBB0000 		movl	chtest@GOT(%ebx), %edi
 138      0000
 139              	.LBB102:
 140              		.loc 1 106 5 view .LVU31
 141 001e 56       		pushl	%esi
 142              		.cfi_def_cfa_offset 44
 143 001f 6A01     		pushl	$1
 144              		.cfi_def_cfa_offset 48
 145              	.LBE102:
 146              		.loc 1 101 3 view .LVU32
 147 0021 C7070100 		movl	$1, (%edi)
 147      0000
 148              	.LBB103:
 149              		.loc 1 103 5 is_stmt 1 view .LVU33
 150              		.loc 1 105 5 view .LVU34
 151              	.LVL3:
 152              		.loc 1 106 5 view .LVU35
 153 0027 E8FCFFFF 		call	__test_assert@PLT
 153      FF
GAS LISTING /tmp/ccfxSUQM.s 			page 4


 154              	.LVL4:
 155 002c 83C410   		addl	$16, %esp
 156              		.cfi_def_cfa_offset 32
 157 002f 84C0     		testb	%al, %al
 158 0031 740D     		je	.L12
 159              	.L7:
 160              	.LBE103:
 161              		.loc 1 147 1 is_stmt 0 view .LVU36
 162 0033 83C40C   		addl	$12, %esp
 163              		.cfi_remember_state
 164              		.cfi_def_cfa_offset 20
 165 0036 5B       		popl	%ebx
 166              		.cfi_restore 3
 167              		.cfi_def_cfa_offset 16
 168 0037 5E       		popl	%esi
 169              		.cfi_restore 6
 170              		.cfi_def_cfa_offset 12
 171 0038 5F       		popl	%edi
 172              		.cfi_restore 7
 173              		.cfi_def_cfa_offset 8
 174 0039 5D       		popl	%ebp
 175              		.cfi_restore 5
 176              		.cfi_def_cfa_offset 4
 177 003a C3       		ret
 178 003b 8D742600 		.p2align 4,,10
 178      90
 179              		.p2align 3
 180              	.L12:
 181              		.cfi_restore_state
 182              	.LBB104:
 183              		.loc 1 106 40 is_stmt 1 view .LVU37
 184              		.loc 1 107 5 view .LVU38
 185              		.loc 1 108 5 view .LVU39
 186 0040 83EC08   		subl	$8, %esp
 187              		.cfi_def_cfa_offset 40
 188 0043 56       		pushl	%esi
 189              		.cfi_def_cfa_offset 44
 190 0044 6A01     		pushl	$1
 191              		.cfi_def_cfa_offset 48
 192 0046 E8FCFFFF 		call	__test_assert@PLT
 192      FF
 193              	.LVL5:
 194 004b 83C410   		addl	$16, %esp
 195              		.cfi_def_cfa_offset 32
 196 004e 84C0     		testb	%al, %al
 197 0050 75E1     		jne	.L7
 198              		.loc 1 108 40 view .LVU40
 199              		.loc 1 109 5 view .LVU41
 200              		.loc 1 110 5 view .LVU42
 201 0052 83EC08   		subl	$8, %esp
 202              		.cfi_def_cfa_offset 40
 203 0055 56       		pushl	%esi
 204              		.cfi_def_cfa_offset 44
 205 0056 6A01     		pushl	$1
 206              		.cfi_def_cfa_offset 48
 207 0058 E8FCFFFF 		call	__test_assert@PLT
 207      FF
GAS LISTING /tmp/ccfxSUQM.s 			page 5


 208              	.LVL6:
 209 005d 83C410   		addl	$16, %esp
 210              		.cfi_def_cfa_offset 32
 211 0060 84C0     		testb	%al, %al
 212 0062 75CF     		jne	.L7
 213              	.LBE104:
 214              	.LBB105:
 215              	.LBI105:
 216              		.loc 1 97 13 view .LVU43
 217              	.LBB106:
 218              	.LBB107:
 219              		.loc 1 110 40 view .LVU44
 220              		.loc 1 111 5 view .LVU45
 221              	.LVL7:
 222              		.loc 1 112 5 view .LVU46
 223 0064 83EC08   		subl	$8, %esp
 224              		.cfi_def_cfa_offset 40
 225 0067 56       		pushl	%esi
 226              		.cfi_def_cfa_offset 44
 227 0068 6A01     		pushl	$1
 228              		.cfi_def_cfa_offset 48
 229 006a E8FCFFFF 		call	__test_assert@PLT
 229      FF
 230              	.LVL8:
 231 006f 83C410   		addl	$16, %esp
 232              		.cfi_def_cfa_offset 32
 233 0072 84C0     		testb	%al, %al
 234 0074 75BD     		jne	.L7
 235              		.loc 1 112 40 view .LVU47
 236              	.LBE107:
 237              		.loc 1 114 3 view .LVU48
 238              		.loc 1 114 19 view .LVU49
 239              		.loc 1 117 3 view .LVU50
 240              	.LBB108:
 241              		.loc 1 122 5 is_stmt 0 view .LVU51
 242 0076 83EC08   		subl	$8, %esp
 243              		.cfi_def_cfa_offset 40
 244 0079 8DAB0000 		leal	.LC1@GOTOFF(%ebx), %ebp
 244      0000
 245              	.LBE108:
 246              		.loc 1 117 3 view .LVU52
 247 007f C7070200 		movl	$2, (%edi)
 247      0000
 248              	.LBB109:
 249              		.loc 1 119 5 is_stmt 1 view .LVU53
 250              		.loc 1 121 5 view .LVU54
 251              	.LVL9:
 252              		.loc 1 122 5 view .LVU55
 253 0085 55       		pushl	%ebp
 254              		.cfi_def_cfa_offset 44
 255 0086 6A01     		pushl	$1
 256              		.cfi_def_cfa_offset 48
 257 0088 E8FCFFFF 		call	__test_assert@PLT
 257      FF
 258              	.LVL10:
 259 008d 83C410   		addl	$16, %esp
 260              		.cfi_def_cfa_offset 32
GAS LISTING /tmp/ccfxSUQM.s 			page 6


 261 0090 84C0     		testb	%al, %al
 262 0092 759F     		jne	.L7
 263              		.loc 1 122 43 view .LVU56
 264              		.loc 1 123 5 view .LVU57
 265              	.LVL11:
 266              		.loc 1 124 5 view .LVU58
 267 0094 83EC08   		subl	$8, %esp
 268              		.cfi_def_cfa_offset 40
 269 0097 56       		pushl	%esi
 270              		.cfi_def_cfa_offset 44
 271 0098 6A01     		pushl	$1
 272              		.cfi_def_cfa_offset 48
 273 009a E8FCFFFF 		call	__test_assert@PLT
 273      FF
 274              	.LVL12:
 275 009f 83C410   		addl	$16, %esp
 276              		.cfi_def_cfa_offset 32
 277 00a2 84C0     		testb	%al, %al
 278 00a4 758D     		jne	.L7
 279              		.loc 1 124 40 view .LVU59
 280              		.loc 1 125 5 view .LVU60
 281              	.LVL13:
 282              		.loc 1 126 5 view .LVU61
 283 00a6 83EC08   		subl	$8, %esp
 284              		.cfi_def_cfa_offset 40
 285 00a9 55       		pushl	%ebp
 286              		.cfi_def_cfa_offset 44
 287 00aa 6A01     		pushl	$1
 288              		.cfi_def_cfa_offset 48
 289 00ac E8FCFFFF 		call	__test_assert@PLT
 289      FF
 290              	.LVL14:
 291 00b1 83C410   		addl	$16, %esp
 292              		.cfi_def_cfa_offset 32
 293 00b4 84C0     		testb	%al, %al
 294 00b6 0F8577FF 		jne	.L7
 294      FFFF
 295              		.loc 1 126 43 view .LVU62
 296              		.loc 1 127 5 view .LVU63
 297              	.LVL15:
 298              		.loc 1 128 5 view .LVU64
 299 00bc 83EC08   		subl	$8, %esp
 300              		.cfi_def_cfa_offset 40
 301 00bf 56       		pushl	%esi
 302              		.cfi_def_cfa_offset 44
 303 00c0 6A01     		pushl	$1
 304              		.cfi_def_cfa_offset 48
 305 00c2 E8FCFFFF 		call	__test_assert@PLT
 305      FF
 306              	.LVL16:
 307 00c7 83C410   		addl	$16, %esp
 308              		.cfi_def_cfa_offset 32
 309 00ca 84C0     		testb	%al, %al
 310 00cc 0F8561FF 		jne	.L7
 310      FFFF
 311              		.loc 1 128 40 view .LVU65
 312              	.LBE109:
GAS LISTING /tmp/ccfxSUQM.s 			page 7


 313              		.loc 1 130 3 view .LVU66
 314              		.loc 1 130 19 view .LVU67
 315              		.loc 1 133 3 view .LVU68
 316              	.LBB110:
 317              		.loc 1 138 5 is_stmt 0 view .LVU69
 318 00d2 83EC08   		subl	$8, %esp
 319              		.cfi_def_cfa_offset 40
 320              	.LBE110:
 321              		.loc 1 133 3 view .LVU70
 322 00d5 C7070300 		movl	$3, (%edi)
 322      0000
 323              	.LBB111:
 324              		.loc 1 135 5 is_stmt 1 view .LVU71
 325              		.loc 1 137 5 view .LVU72
 326              	.LVL17:
 327              		.loc 1 138 5 view .LVU73
 328 00db 55       		pushl	%ebp
 329              		.cfi_def_cfa_offset 44
 330 00dc 6A01     		pushl	$1
 331              		.cfi_def_cfa_offset 48
 332 00de E8FCFFFF 		call	__test_assert@PLT
 332      FF
 333              	.LVL18:
 334 00e3 83C410   		addl	$16, %esp
 335              		.cfi_def_cfa_offset 32
 336 00e6 84C0     		testb	%al, %al
 337 00e8 0F8545FF 		jne	.L7
 337      FFFF
 338              		.loc 1 138 43 view .LVU74
 339              		.loc 1 139 5 view .LVU75
 340              	.LVL19:
 341              		.loc 1 140 5 view .LVU76
 342 00ee 83EC08   		subl	$8, %esp
 343              		.cfi_def_cfa_offset 40
 344 00f1 56       		pushl	%esi
 345              		.cfi_def_cfa_offset 44
 346 00f2 6A01     		pushl	$1
 347              		.cfi_def_cfa_offset 48
 348 00f4 E8FCFFFF 		call	__test_assert@PLT
 348      FF
 349              	.LVL20:
 350 00f9 83C410   		addl	$16, %esp
 351              		.cfi_def_cfa_offset 32
 352 00fc 84C0     		testb	%al, %al
 353 00fe 0F852FFF 		jne	.L7
 353      FFFF
 354              		.loc 1 140 40 view .LVU77
 355              		.loc 1 141 5 view .LVU78
 356              	.LVL21:
 357              		.loc 1 142 5 view .LVU79
 358 0104 52       		pushl	%edx
 359              		.cfi_def_cfa_offset 36
 360 0105 52       		pushl	%edx
 361              		.cfi_def_cfa_offset 40
 362 0106 55       		pushl	%ebp
 363              		.cfi_def_cfa_offset 44
 364 0107 6A01     		pushl	$1
GAS LISTING /tmp/ccfxSUQM.s 			page 8


 365              		.cfi_def_cfa_offset 48
 366 0109 E8FCFFFF 		call	__test_assert@PLT
 366      FF
 367              	.LVL22:
 368 010e 83C410   		addl	$16, %esp
 369              		.cfi_def_cfa_offset 32
 370 0111 84C0     		testb	%al, %al
 371 0113 0F851AFF 		jne	.L7
 371      FFFF
 372              		.loc 1 142 43 view .LVU80
 373              		.loc 1 143 5 view .LVU81
 374              	.LVL23:
 375              		.loc 1 144 5 view .LVU82
 376 0119 50       		pushl	%eax
 377              		.cfi_def_cfa_offset 36
 378 011a 50       		pushl	%eax
 379              		.cfi_def_cfa_offset 40
 380 011b 56       		pushl	%esi
 381              		.cfi_def_cfa_offset 44
 382 011c 6A01     		pushl	$1
 383              		.cfi_def_cfa_offset 48
 384 011e E8FCFFFF 		call	__test_assert@PLT
 384      FF
 385              	.LVL24:
 386 0123 83C410   		addl	$16, %esp
 387              		.cfi_def_cfa_offset 32
 388              	.LVL25:
 389              		.loc 1 144 5 is_stmt 0 view .LVU83
 390              	.LBE111:
 391              	.LBE106:
 392              	.LBE105:
 393              		.loc 1 144 40 is_stmt 1 view .LVU84
 394              		.loc 1 146 3 view .LVU85
 395              		.loc 1 146 19 view .LVU86
 396              	.LBB114:
 397              	.LBB113:
 398              	.LBB112:
 399 0126 E908FFFF 		jmp	.L7
 399      FF
 400              	.LBE112:
 401              	.LBE113:
 402              	.LBE114:
 403              		.cfi_endproc
 404              	.LFE304:
 405              		.size	rt_test_003_002_execute, .-rt_test_003_002_execute
 406              		.globl	rt_test_sequence_003
 407              		.section	.rodata.str1.4,"aMS",@progbits,1
 408              		.align 4
 409              	.LC2:
 410 0000 54696D65 		.string	"Time and Intervals Functionality"
 410      20616E64 
 410      20496E74 
 410      65727661 
 410      6C732046 
 411              		.section	.data.rel.ro.local.rt_test_sequence_003,"aw"
 412              		.align 4
 413              		.type	rt_test_sequence_003, @object
GAS LISTING /tmp/ccfxSUQM.s 			page 9


 414              		.size	rt_test_sequence_003, 8
 415              	rt_test_sequence_003:
 416 0000 00000000 		.long	.LC2
 417 0004 00000000 		.long	rt_test_sequence_003_array
 418              		.globl	rt_test_sequence_003_array
 419              		.section	.data.rel.ro.local.rt_test_sequence_003_array,"aw"
 420              		.align 4
 421              		.type	rt_test_sequence_003_array, @object
 422              		.size	rt_test_sequence_003_array, 12
 423              	rt_test_sequence_003_array:
 424 0000 00000000 		.long	rt_test_003_001
 425 0004 00000000 		.long	rt_test_003_002
 426 0008 00000000 		.long	0
 427              		.section	.rodata.str1.1,"aMS",@progbits,1
 428              	.LC3:
 429 0000 54696D65 		.string	"Time ranges functionality"
 429      2072616E 
 429      67657320 
 429      66756E63 
 429      74696F6E 
 430              		.section	.data.rel.ro.local.rt_test_003_002,"aw"
 431              		.align 4
 432              		.type	rt_test_003_002, @object
 433              		.size	rt_test_003_002, 16
 434              	rt_test_003_002:
 435 0000 00000000 		.long	.LC3
 436 0004 00000000 		.long	0
 437 0008 00000000 		.long	0
 438 000c 00000000 		.long	rt_test_003_002_execute
 439              		.section	.rodata.str1.4
 440 0021 000000   		.align 4
 441              	.LC4:
 442 0024 53797374 		.string	"System Tick Counter functionality"
 442      656D2054 
 442      69636B20 
 442      436F756E 
 442      74657220 
 443              		.section	.data.rel.ro.local.rt_test_003_001,"aw"
 444              		.align 4
 445              		.type	rt_test_003_001, @object
 446              		.size	rt_test_003_001, 16
 447              	rt_test_003_001:
 448 0000 24000000 		.long	.LC4
 449 0004 00000000 		.long	0
 450 0008 00000000 		.long	0
 451 000c 00000000 		.long	rt_test_003_001_execute
 452              		.section	.text.__x86.get_pc_thunk.bx,"axG",@progbits,__x86.get_pc_thunk.bx,comdat
 453              		.globl	__x86.get_pc_thunk.bx
 454              		.hidden	__x86.get_pc_thunk.bx
 455              		.type	__x86.get_pc_thunk.bx, @function
 456              	__x86.get_pc_thunk.bx:
 457              	.LFB306:
 458              		.cfi_startproc
 459 0000 8B1C24   		movl	(%esp), %ebx
 460 0003 C3       		ret
 461              		.cfi_endproc
 462              	.LFE306:
GAS LISTING /tmp/ccfxSUQM.s 			page 10


 463              		.text
 464              	.Letext0:
 465              		.file 3 "/usr/lib/gcc/x86_64-linux-gnu/11/include/stddef.h"
 466              		.file 4 "/usr/include/bits/types.h"
 467              		.file 5 "/usr/include/bits/stdint-intn.h"
 468              		.file 6 "/usr/include/bits/stdint-uintn.h"
 469              		.file 7 "../../../os/common/ports/SIMIA32/compilers/GCC/chtypes.h"
 470              		.file 8 "../../../os/rt/include/chearly.h"
 471              		.file 9 "../../../os/rt/include/chobjects.h"
 472              		.file 10 "../../../os/rt/include/chrfcu.h"
 473              		.file 11 "../../../os/rt/include/chdebug.h"
 474              		.file 12 "../../../os/rt/include/chtime.h"
 475              		.file 13 "../../../os/rt/include/chlists.h"
 476              		.file 14 "../../../os/common/ports/SIMIA32/chcore.h"
 477              		.file 15 "../../../os/rt/include/chsem.h"
 478              		.file 16 "../../../os/rt/include/chmtx.h"
 479              		.file 17 "../../../os/hal/include/hal_streams.h"
 480              		.file 18 "../../../os/test/include/ch_test.h"
 481              		.file 19 "../../../test/rt/source/test/rt_test_sequence_003.h"
 482              		.file 20 "../../../os/rt/include/chsys.h"
 483              		.file 21 "../../../os/hal/ports/simulator/posix/hal_lld.h"
 484              		.section	.debug_info,"",@progbits
 485              	.Ldebug_info0:
 486 0000 F30B0000 		.long	0xbf3
 487 0004 0500     		.value	0x5
 488 0006 01       		.byte	0x1
 489 0007 04       		.byte	0x4
 490 0008 00000000 		.long	.Ldebug_abbrev0
 491 000c 1C       		.uleb128 0x1c
 492 000d 44030000 		.long	.LASF143
 493 0011 1D       		.byte	0x1d
 494 0012 00000000 		.long	.LASF0
 495 0016 34000000 		.long	.LASF1
 496 001a 6C000000 		.long	.LLRL11
 497 001e 00000000 		.long	0
 498 0022 00000000 		.long	.Ldebug_line0
 499 0026 1D       		.uleb128 0x1d
 500 0027 04       		.byte	0x4
 501 0028 05       		.byte	0x5
 502 0029 696E7400 		.string	"int"
 503 002d 02       		.uleb128 0x2
 504 002e 19000000 		.long	.LASF11
 505 0032 03       		.byte	0x3
 506 0033 D1       		.byte	0xd1
 507 0034 17       		.byte	0x17
 508 0035 39000000 		.long	0x39
 509 0039 06       		.uleb128 0x6
 510 003a 04       		.byte	0x4
 511 003b 07       		.byte	0x7
 512 003c 56020000 		.long	.LASF2
 513 0040 06       		.uleb128 0x6
 514 0041 04       		.byte	0x4
 515 0042 05       		.byte	0x5
 516 0043 68000000 		.long	.LASF3
 517 0047 06       		.uleb128 0x6
 518 0048 08       		.byte	0x8
 519 0049 05       		.byte	0x5
GAS LISTING /tmp/ccfxSUQM.s 			page 11


 520 004a 05010000 		.long	.LASF4
 521 004e 06       		.uleb128 0x6
 522 004f 0C       		.byte	0xc
 523 0050 04       		.byte	0x4
 524 0051 41040000 		.long	.LASF5
 525 0055 06       		.uleb128 0x6
 526 0056 10       		.byte	0x10
 527 0057 04       		.byte	0x4
 528 0058 85000000 		.long	.LASF6
 529 005c 06       		.uleb128 0x6
 530 005d 01       		.byte	0x1
 531 005e 08       		.byte	0x8
 532 005f 2E050000 		.long	.LASF7
 533 0063 06       		.uleb128 0x6
 534 0064 02       		.byte	0x2
 535 0065 07       		.byte	0x7
 536 0066 98020000 		.long	.LASF8
 537 006a 06       		.uleb128 0x6
 538 006b 04       		.byte	0x4
 539 006c 07       		.byte	0x7
 540 006d C7050000 		.long	.LASF9
 541 0071 06       		.uleb128 0x6
 542 0072 01       		.byte	0x1
 543 0073 06       		.byte	0x6
 544 0074 13010000 		.long	.LASF10
 545 0078 02       		.uleb128 0x2
 546 0079 36000000 		.long	.LASF12
 547 007d 04       		.byte	0x4
 548 007e 26       		.byte	0x26
 549 007f 17       		.byte	0x17
 550 0080 5C000000 		.long	0x5c
 551 0084 06       		.uleb128 0x6
 552 0085 02       		.byte	0x2
 553 0086 05       		.byte	0x5
 554 0087 9C010000 		.long	.LASF13
 555 008b 02       		.uleb128 0x2
 556 008c 11060000 		.long	.LASF14
 557 0090 04       		.byte	0x4
 558 0091 29       		.byte	0x29
 559 0092 14       		.byte	0x14
 560 0093 26000000 		.long	0x26
 561 0097 02       		.uleb128 0x2
 562 0098 EA010000 		.long	.LASF15
 563 009c 04       		.byte	0x4
 564 009d 2A       		.byte	0x2a
 565 009e 16       		.byte	0x16
 566 009f 39000000 		.long	0x39
 567 00a3 02       		.uleb128 0x2
 568 00a4 D4040000 		.long	.LASF16
 569 00a8 04       		.byte	0x4
 570 00a9 30       		.byte	0x30
 571 00aa 2E       		.byte	0x2e
 572 00ab AF000000 		.long	0xaf
 573 00af 06       		.uleb128 0x6
 574 00b0 08       		.byte	0x8
 575 00b1 07       		.byte	0x7
 576 00b2 8F000000 		.long	.LASF17
GAS LISTING /tmp/ccfxSUQM.s 			page 12


 577 00b6 1E       		.uleb128 0x1e
 578 00b7 04       		.byte	0x4
 579 00b8 03       		.uleb128 0x3
 580 00b9 BD000000 		.long	0xbd
 581 00bd 06       		.uleb128 0x6
 582 00be 01       		.byte	0x1
 583 00bf 06       		.byte	0x6
 584 00c0 E5050000 		.long	.LASF18
 585 00c4 0A       		.uleb128 0xa
 586 00c5 BD000000 		.long	0xbd
 587 00c9 02       		.uleb128 0x2
 588 00ca 26050000 		.long	.LASF19
 589 00ce 05       		.byte	0x5
 590 00cf 1A       		.byte	0x1a
 591 00d0 13       		.byte	0x13
 592 00d1 8B000000 		.long	0x8b
 593 00d5 02       		.uleb128 0x2
 594 00d6 AA060000 		.long	.LASF20
 595 00da 06       		.byte	0x6
 596 00db 18       		.byte	0x18
 597 00dc 13       		.byte	0x13
 598 00dd 78000000 		.long	0x78
 599 00e1 0A       		.uleb128 0xa
 600 00e2 D5000000 		.long	0xd5
 601 00e6 02       		.uleb128 0x2
 602 00e7 63060000 		.long	.LASF21
 603 00eb 06       		.byte	0x6
 604 00ec 1A       		.byte	0x1a
 605 00ed 14       		.byte	0x14
 606 00ee 97000000 		.long	0x97
 607 00f2 02       		.uleb128 0x2
 608 00f3 2D000000 		.long	.LASF22
 609 00f7 06       		.byte	0x6
 610 00f8 1B       		.byte	0x1b
 611 00f9 14       		.byte	0x14
 612 00fa A3000000 		.long	0xa3
 613 00fe 0E       		.uleb128 0xe
 614 00ff F2000000 		.long	0xf2
 615 0103 02       		.uleb128 0x2
 616 0104 EE020000 		.long	.LASF23
 617 0108 07       		.byte	0x7
 618 0109 38       		.byte	0x38
 619 010a 1D       		.byte	0x1d
 620 010b D5000000 		.long	0xd5
 621 010f 02       		.uleb128 0x2
 622 0110 7A010000 		.long	.LASF24
 623 0114 07       		.byte	0x7
 624 0115 39       		.byte	0x39
 625 0116 1D       		.byte	0x1d
 626 0117 D5000000 		.long	0xd5
 627 011b 02       		.uleb128 0x2
 628 011c E9040000 		.long	.LASF25
 629 0120 07       		.byte	0x7
 630 0121 3A       		.byte	0x3a
 631 0122 1D       		.byte	0x1d
 632 0123 D5000000 		.long	0xd5
 633 0127 02       		.uleb128 0x2
GAS LISTING /tmp/ccfxSUQM.s 			page 13


 634 0128 01050000 		.long	.LASF26
 635 012c 07       		.byte	0x7
 636 012d 3C       		.byte	0x3c
 637 012e 1D       		.byte	0x1d
 638 012f E6000000 		.long	0xe6
 639 0133 02       		.uleb128 0x2
 640 0134 DF020000 		.long	.LASF27
 641 0138 07       		.byte	0x7
 642 0139 3D       		.byte	0x3d
 643 013a 1D       		.byte	0x1d
 644 013b C9000000 		.long	0xc9
 645 013f 02       		.uleb128 0x2
 646 0140 14030000 		.long	.LASF28
 647 0144 07       		.byte	0x7
 648 0145 3F       		.byte	0x3f
 649 0146 1D       		.byte	0x1d
 650 0147 E6000000 		.long	0xe6
 651 014b 02       		.uleb128 0x2
 652 014c 3D020000 		.long	.LASF29
 653 0150 07       		.byte	0x7
 654 0151 41       		.byte	0x41
 655 0152 1D       		.byte	0x1d
 656 0153 C9000000 		.long	0xc9
 657 0157 02       		.uleb128 0x2
 658 0158 DF040000 		.long	.LASF30
 659 015c 08       		.byte	0x8
 660 015d 80       		.byte	0x80
 661 015e 12       		.byte	0x12
 662 015f 39000000 		.long	0x39
 663 0163 02       		.uleb128 0x2
 664 0164 F1050000 		.long	.LASF31
 665 0168 08       		.byte	0x8
 666 0169 85       		.byte	0x85
 667 016a 1A       		.byte	0x1a
 668 016b 6F010000 		.long	0x16f
 669 016f 05       		.uleb128 0x5
 670 0170 B5020000 		.long	.LASF48
 671 0174 50       		.byte	0x50
 672 0175 09       		.byte	0x9
 673 0176 A9       		.byte	0xa9
 674 0177 08       		.byte	0x8
 675 0178 64020000 		.long	0x264
 676 017c 07       		.uleb128 0x7
 677 017d 68647200 		.string	"hdr"
 678 0181 09       		.byte	0x9
 679 0182 BA       		.byte	0xba
 680 0183 05       		.byte	0x5
 681 0184 B0050000 		.long	0x5b0
 682 0188 00       		.byte	0
 683 0189 07       		.uleb128 0x7
 684 018a 63747800 		.string	"ctx"
 685 018e 09       		.byte	0x9
 686 018f BE       		.byte	0xbe
 687 0190 21       		.byte	0x21
 688 0191 F5040000 		.long	0x4f5
 689 0195 0C       		.byte	0xc
 690 0196 01       		.uleb128 0x1
GAS LISTING /tmp/ccfxSUQM.s 			page 14


 691 0197 C1050000 		.long	.LASF32
 692 019b 09       		.byte	0x9
 693 019c C2       		.byte	0xc2
 694 019d 22       		.byte	0x22
 695 019e AF060000 		.long	0x6af
 696 01a2 10       		.byte	0x10
 697 01a3 01       		.uleb128 0x1
 698 01a4 D9050000 		.long	.LASF33
 699 01a8 09       		.byte	0x9
 700 01a9 C8       		.byte	0xc8
 701 01aa 22       		.byte	0x22
 702 01ab B4060000 		.long	0x6b4
 703 01af 14       		.byte	0x14
 704 01b0 01       		.uleb128 0x1
 705 01b1 F5010000 		.long	.LASF34
 706 01b5 09       		.byte	0x9
 707 01b6 CD       		.byte	0xcd
 708 01b7 21       		.byte	0x21
 709 01b8 B4060000 		.long	0x6b4
 710 01bc 18       		.byte	0x18
 711 01bd 01       		.uleb128 0x1
 712 01be 5E010000 		.long	.LASF35
 713 01c2 09       		.byte	0x9
 714 01c3 D1       		.byte	0xd1
 715 01c4 21       		.byte	0x21
 716 01c5 0F010000 		.long	0x10f
 717 01c9 1C       		.byte	0x1c
 718 01ca 01       		.uleb128 0x1
 719 01cb B2060000 		.long	.LASF36
 720 01cf 09       		.byte	0x9
 721 01d0 D5       		.byte	0xd5
 722 01d1 21       		.byte	0x21
 723 01d2 03010000 		.long	0x103
 724 01d6 1D       		.byte	0x1d
 725 01d7 01       		.uleb128 0x1
 726 01d8 F5000000 		.long	.LASF37
 727 01dc 09       		.byte	0x9
 728 01dd DA       		.byte	0xda
 729 01de 21       		.byte	0x21
 730 01df 1B010000 		.long	0x11b
 731 01e3 1E       		.byte	0x1e
 732 01e4 01       		.uleb128 0x1
 733 01e5 82020000 		.long	.LASF38
 734 01e9 09       		.byte	0x9
 735 01ea DE       		.byte	0xde
 736 01eb 22       		.byte	0x22
 737 01ec 40030000 		.long	0x340
 738 01f0 20       		.byte	0x20
 739 01f1 01       		.uleb128 0x1
 740 01f2 70020000 		.long	.LASF39
 741 01f6 09       		.byte	0x9
 742 01f7 E2       		.byte	0xe2
 743 01f8 21       		.byte	0x21
 744 01f9 9F030000 		.long	0x39f
 745 01fd 24       		.byte	0x24
 746 01fe 01       		.uleb128 0x1
 747 01ff A6000000 		.long	.LASF40
GAS LISTING /tmp/ccfxSUQM.s 			page 15


 748 0203 09       		.byte	0x9
 749 0204 E8       		.byte	0xe8
 750 0205 21       		.byte	0x21
 751 0206 94050000 		.long	0x594
 752 020a 2C       		.byte	0x2c
 753 020b 01       		.uleb128 0x1
 754 020c E5000000 		.long	.LASF41
 755 0210 09       		.byte	0x9
 756 0211 EE       		.byte	0xee
 757 0212 22       		.byte	0x22
 758 0213 B6000000 		.long	0xb6
 759 0217 30       		.byte	0x30
 760 0218 15       		.uleb128 0x15
 761 0219 7500     		.string	"u"
 762 021b 3F01     		.value	0x13f
 763 021d D8050000 		.long	0x5d8
 764 0221 34       		.byte	0x34
 765 0222 04       		.uleb128 0x4
 766 0223 FB010000 		.long	.LASF42
 767 0227 4401     		.value	0x144
 768 0229 21       		.byte	0x21
 769 022a 73030000 		.long	0x373
 770 022e 38       		.byte	0x38
 771 022f 04       		.uleb128 0x4
 772 0230 43010000 		.long	.LASF43
 773 0234 4A01     		.value	0x14a
 774 0236 21       		.byte	0x21
 775 0237 9F030000 		.long	0x39f
 776 023b 3C       		.byte	0x3c
 777 023c 04       		.uleb128 0x4
 778 023d E5020000 		.long	.LASF44
 779 0241 5001     		.value	0x150
 780 0243 21       		.byte	0x21
 781 0244 3F010000 		.long	0x13f
 782 0248 44       		.byte	0x44
 783 0249 04       		.uleb128 0x4
 784 024a F9040000 		.long	.LASF45
 785 024e 5701     		.value	0x157
 786 0250 22       		.byte	0x22
 787 0251 AA060000 		.long	0x6aa
 788 0255 48       		.byte	0x48
 789 0256 04       		.uleb128 0x4
 790 0257 3B030000 		.long	.LASF46
 791 025b 5B01     		.value	0x15b
 792 025d 21       		.byte	0x21
 793 025e 27010000 		.long	0x127
 794 0262 4C       		.byte	0x4c
 795 0263 00       		.byte	0
 796 0264 02       		.uleb128 0x2
 797 0265 3B060000 		.long	.LASF47
 798 0269 08       		.byte	0x8
 799 026a 8A       		.byte	0x8a
 800 026b 1F       		.byte	0x1f
 801 026c 70020000 		.long	0x270
 802 0270 0F       		.uleb128 0xf
 803 0271 2C060000 		.long	.LASF49
 804 0275 E0       		.byte	0xe0
GAS LISTING /tmp/ccfxSUQM.s 			page 16


 805 0276 9701     		.value	0x197
 806 0278 08       		.byte	0x8
 807 0279 F2020000 		.long	0x2f2
 808 027d 04       		.uleb128 0x4
 809 027e A4060000 		.long	.LASF50
 810 0282 9B01     		.value	0x19b
 811 0284 21       		.byte	0x21
 812 0285 E1060000 		.long	0x6e1
 813 0289 00       		.byte	0
 814 028a 04       		.uleb128 0x4
 815 028b 3C010000 		.long	.LASF51
 816 028f 9F01     		.value	0x19f
 817 0291 21       		.byte	0x21
 818 0292 50050000 		.long	0x550
 819 0296 10       		.byte	0x10
 820 0297 04       		.uleb128 0x4
 821 0298 49060000 		.long	.LASF52
 822 029c A601     		.value	0x1a6
 823 029e 21       		.byte	0x21
 824 029f 77050000 		.long	0x577
 825 02a3 28       		.byte	0x28
 826 02a4 04       		.uleb128 0x4
 827 02a5 60000000 		.long	.LASF53
 828 02a9 AB01     		.value	0x1ab
 829 02ab 21       		.byte	0x21
 830 02ac 57010000 		.long	0x157
 831 02b0 30       		.byte	0x30
 832 02b1 04       		.uleb128 0x4
 833 02b2 14000000 		.long	.LASF54
 834 02b6 B101     		.value	0x1b1
 835 02b8 21       		.byte	0x21
 836 02b9 19030000 		.long	0x319
 837 02bd 34       		.byte	0x34
 838 02be 04       		.uleb128 0x4
 839 02bf EA050000 		.long	.LASF55
 840 02c3 B601     		.value	0x1b6
 841 02c5 22       		.byte	0x22
 842 02c6 4B070000 		.long	0x74b
 843 02ca 38       		.byte	0x38
 844 02cb 04       		.uleb128 0x4
 845 02cc 0B070000 		.long	.LASF56
 846 02d0 BA01     		.value	0x1ba
 847 02d2 21       		.byte	0x21
 848 02d3 63010000 		.long	0x163
 849 02d7 3C       		.byte	0x3c
 850 02d8 04       		.uleb128 0x4
 851 02d9 B7000000 		.long	.LASF57
 852 02dd BF01     		.value	0x1bf
 853 02df 21       		.byte	0x21
 854 02e0 63010000 		.long	0x163
 855 02e4 8C       		.byte	0x8c
 856 02e5 15       		.uleb128 0x15
 857 02e6 64626700 		.string	"dbg"
 858 02ea C401     		.value	0x1c4
 859 02ec 4A030000 		.long	0x34a
 860 02f0 DC       		.byte	0xdc
 861 02f1 00       		.byte	0
GAS LISTING /tmp/ccfxSUQM.s 			page 17


 862 02f2 02       		.uleb128 0x2
 863 02f3 FC030000 		.long	.LASF58
 864 02f7 0A       		.byte	0xa
 865 02f8 3F       		.byte	0x3f
 866 02f9 12       		.byte	0x12
 867 02fa E6000000 		.long	0xe6
 868 02fe 05       		.uleb128 0x5
 869 02ff 83010000 		.long	.LASF59
 870 0303 04       		.byte	0x4
 871 0304 0A       		.byte	0xa
 872 0305 44       		.byte	0x44
 873 0306 10       		.byte	0x10
 874 0307 19030000 		.long	0x319
 875 030b 01       		.uleb128 0x1
 876 030c 9F060000 		.long	.LASF60
 877 0310 0A       		.byte	0xa
 878 0311 48       		.byte	0x48
 879 0312 21       		.byte	0x21
 880 0313 F2020000 		.long	0x2f2
 881 0317 00       		.byte	0
 882 0318 00       		.byte	0
 883 0319 02       		.uleb128 0x2
 884 031a 3C050000 		.long	.LASF61
 885 031e 0A       		.byte	0xa
 886 031f 49       		.byte	0x49
 887 0320 03       		.byte	0x3
 888 0321 FE020000 		.long	0x2fe
 889 0325 05       		.uleb128 0x5
 890 0326 10050000 		.long	.LASF62
 891 032a 04       		.byte	0x4
 892 032b 0B       		.byte	0xb
 893 032c 3E       		.byte	0x3e
 894 032d 10       		.byte	0x10
 895 032e 40030000 		.long	0x340
 896 0332 01       		.uleb128 0x1
 897 0333 1B060000 		.long	.LASF63
 898 0337 0B       		.byte	0xb
 899 0338 46       		.byte	0x46
 900 0339 24       		.byte	0x24
 901 033a 45030000 		.long	0x345
 902 033e 00       		.byte	0
 903 033f 00       		.byte	0
 904 0340 03       		.uleb128 0x3
 905 0341 C4000000 		.long	0xc4
 906 0345 0E       		.uleb128 0xe
 907 0346 40030000 		.long	0x340
 908 034a 02       		.uleb128 0x2
 909 034b 51000000 		.long	.LASF64
 910 034f 0B       		.byte	0xb
 911 0350 51       		.byte	0x51
 912 0351 03       		.byte	0x3
 913 0352 25030000 		.long	0x325
 914 0356 02       		.uleb128 0x2
 915 0357 00060000 		.long	.LASF65
 916 035b 0C       		.byte	0xc
 917 035c 6D       		.byte	0x6d
 918 035d 12       		.byte	0x12
GAS LISTING /tmp/ccfxSUQM.s 			page 18


 919 035e E6000000 		.long	0xe6
 920 0362 0E       		.uleb128 0xe
 921 0363 56030000 		.long	0x356
 922 0367 02       		.uleb128 0x2
 923 0368 2F020000 		.long	.LASF66
 924 036c 0C       		.byte	0xc
 925 036d 79       		.byte	0x79
 926 036e 12       		.byte	0x12
 927 036f E6000000 		.long	0xe6
 928 0373 02       		.uleb128 0x2
 929 0374 AB020000 		.long	.LASF67
 930 0378 0D       		.byte	0xd
 931 0379 32       		.byte	0x32
 932 037a 18       		.byte	0x18
 933 037b 7F030000 		.long	0x37f
 934 037f 05       		.uleb128 0x5
 935 0380 FE020000 		.long	.LASF68
 936 0384 04       		.byte	0x4
 937 0385 0D       		.byte	0xd
 938 0386 38       		.byte	0x38
 939 0387 08       		.byte	0x8
 940 0388 9A030000 		.long	0x39a
 941 038c 01       		.uleb128 0x1
 942 038d E0000000 		.long	.LASF69
 943 0391 0D       		.byte	0xd
 944 0392 39       		.byte	0x39
 945 0393 1A       		.byte	0x1a
 946 0394 9A030000 		.long	0x39a
 947 0398 00       		.byte	0
 948 0399 00       		.byte	0
 949 039a 03       		.uleb128 0x3
 950 039b 73030000 		.long	0x373
 951 039f 02       		.uleb128 0x2
 952 03a0 77020000 		.long	.LASF70
 953 03a4 0D       		.byte	0xd
 954 03a5 3F       		.byte	0x3f
 955 03a6 19       		.byte	0x19
 956 03a7 AB030000 		.long	0x3ab
 957 03ab 05       		.uleb128 0x5
 958 03ac 8B010000 		.long	.LASF71
 959 03b0 08       		.byte	0x8
 960 03b1 0D       		.byte	0xd
 961 03b2 45       		.byte	0x45
 962 03b3 08       		.byte	0x8
 963 03b4 D3030000 		.long	0x3d3
 964 03b8 01       		.uleb128 0x1
 965 03b9 E0000000 		.long	.LASF69
 966 03bd 0D       		.byte	0xd
 967 03be 46       		.byte	0x46
 968 03bf 1A       		.byte	0x1a
 969 03c0 D3030000 		.long	0x3d3
 970 03c4 00       		.byte	0
 971 03c5 01       		.uleb128 0x1
 972 03c6 40000000 		.long	.LASF72
 973 03ca 0D       		.byte	0xd
 974 03cb 47       		.byte	0x47
 975 03cc 1A       		.byte	0x1a
GAS LISTING /tmp/ccfxSUQM.s 			page 19


 976 03cd D3030000 		.long	0x3d3
 977 03d1 04       		.byte	0x4
 978 03d2 00       		.byte	0
 979 03d3 03       		.uleb128 0x3
 980 03d4 9F030000 		.long	0x39f
 981 03d8 02       		.uleb128 0x2
 982 03d9 71000000 		.long	.LASF73
 983 03dd 0D       		.byte	0xd
 984 03de 4E       		.byte	0x4e
 985 03df 22       		.byte	0x22
 986 03e0 E4030000 		.long	0x3e4
 987 03e4 05       		.uleb128 0x5
 988 03e5 51060000 		.long	.LASF74
 989 03e9 0C       		.byte	0xc
 990 03ea 0D       		.byte	0xd
 991 03eb 55       		.byte	0x55
 992 03ec 08       		.byte	0x8
 993 03ed 19040000 		.long	0x419
 994 03f1 01       		.uleb128 0x1
 995 03f2 E0000000 		.long	.LASF69
 996 03f6 0D       		.byte	0xd
 997 03f7 56       		.byte	0x56
 998 03f8 1A       		.byte	0x1a
 999 03f9 19040000 		.long	0x419
 1000 03fd 00       		.byte	0
 1001 03fe 01       		.uleb128 0x1
 1002 03ff 40000000 		.long	.LASF72
 1003 0403 0D       		.byte	0xd
 1004 0404 57       		.byte	0x57
 1005 0405 1A       		.byte	0x1a
 1006 0406 19040000 		.long	0x419
 1007 040a 04       		.byte	0x4
 1008 040b 01       		.uleb128 0x1
 1009 040c AE040000 		.long	.LASF75
 1010 0410 0D       		.byte	0xd
 1011 0411 58       		.byte	0x58
 1012 0412 19       		.byte	0x19
 1013 0413 27010000 		.long	0x127
 1014 0417 08       		.byte	0x8
 1015 0418 00       		.byte	0
 1016 0419 03       		.uleb128 0x3
 1017 041a D8030000 		.long	0x3d8
 1018 041e 02       		.uleb128 0x2
 1019 041f AC010000 		.long	.LASF76
 1020 0423 0D       		.byte	0xd
 1021 0424 5F       		.byte	0x5f
 1022 0425 1E       		.byte	0x1e
 1023 0426 2A040000 		.long	0x42a
 1024 042a 05       		.uleb128 0x5
 1025 042b 2E010000 		.long	.LASF77
 1026 042f 0C       		.byte	0xc
 1027 0430 0D       		.byte	0xd
 1028 0431 64       		.byte	0x64
 1029 0432 08       		.byte	0x8
 1030 0433 5F040000 		.long	0x45f
 1031 0437 01       		.uleb128 0x1
 1032 0438 E0000000 		.long	.LASF69
GAS LISTING /tmp/ccfxSUQM.s 			page 20


 1033 043c 0D       		.byte	0xd
 1034 043d 65       		.byte	0x65
 1035 043e 1A       		.byte	0x1a
 1036 043f 5F040000 		.long	0x45f
 1037 0443 00       		.byte	0
 1038 0444 01       		.uleb128 0x1
 1039 0445 40000000 		.long	.LASF72
 1040 0449 0D       		.byte	0xd
 1041 044a 66       		.byte	0x66
 1042 044b 1A       		.byte	0x1a
 1043 044c 5F040000 		.long	0x45f
 1044 0450 04       		.byte	0x4
 1045 0451 01       		.uleb128 0x1
 1046 0452 20000000 		.long	.LASF78
 1047 0456 0D       		.byte	0xd
 1048 0457 67       		.byte	0x67
 1049 0458 19       		.byte	0x19
 1050 0459 67030000 		.long	0x367
 1051 045d 08       		.byte	0x8
 1052 045e 00       		.byte	0
 1053 045f 03       		.uleb128 0x3
 1054 0460 1E040000 		.long	0x41e
 1055 0464 03       		.uleb128 0x3
 1056 0465 D5000000 		.long	0xd5
 1057 0469 0C       		.uleb128 0xc
 1058 046a 10       		.byte	0x10
 1059 046b 0E       		.byte	0xe
 1060 046c 87       		.byte	0x87
 1061 046d 7D040000 		.long	0x47d
 1062 0471 07       		.uleb128 0x7
 1063 0472 6100     		.string	"a"
 1064 0474 0E       		.byte	0xe
 1065 0475 88       		.byte	0x88
 1066 0476 0B       		.byte	0xb
 1067 0477 7D040000 		.long	0x47d
 1068 047b 00       		.byte	0
 1069 047c 00       		.byte	0
 1070 047d 10       		.uleb128 0x10
 1071 047e D5000000 		.long	0xd5
 1072 0482 8D040000 		.long	0x48d
 1073 0486 11       		.uleb128 0x11
 1074 0487 39000000 		.long	0x39
 1075 048b 0F       		.byte	0xf
 1076 048c 00       		.byte	0
 1077 048d 1F       		.uleb128 0x1f
 1078 048e 64010000 		.long	.LASF144
 1079 0492 0E       		.byte	0xe
 1080 0493 89       		.byte	0x89
 1081 0494 03       		.byte	0x3
 1082 0495 69040000 		.long	0x469
 1083 0499 10       		.byte	0x10
 1084 049a 02       		.uleb128 0x2
 1085 049b 0A060000 		.long	.LASF79
 1086 049f 0E       		.byte	0xe
 1087 04a0 8E       		.byte	0x8e
 1088 04a1 0F       		.byte	0xf
 1089 04a2 B6000000 		.long	0xb6
GAS LISTING /tmp/ccfxSUQM.s 			page 21


 1090 04a6 05       		.uleb128 0x5
 1091 04a7 45000000 		.long	.LASF80
 1092 04ab 14       		.byte	0x14
 1093 04ac 0E       		.byte	0xe
 1094 04ad 9D       		.byte	0x9d
 1095 04ae 08       		.byte	0x8
 1096 04af F5040000 		.long	0x4f5
 1097 04b3 07       		.uleb128 0x7
 1098 04b4 65627800 		.string	"ebx"
 1099 04b8 0E       		.byte	0xe
 1100 04b9 9E       		.byte	0x9e
 1101 04ba 0B       		.byte	0xb
 1102 04bb 9A040000 		.long	0x49a
 1103 04bf 00       		.byte	0
 1104 04c0 07       		.uleb128 0x7
 1105 04c1 65646900 		.string	"edi"
 1106 04c5 0E       		.byte	0xe
 1107 04c6 9F       		.byte	0x9f
 1108 04c7 0B       		.byte	0xb
 1109 04c8 9A040000 		.long	0x49a
 1110 04cc 04       		.byte	0x4
 1111 04cd 07       		.uleb128 0x7
 1112 04ce 65736900 		.string	"esi"
 1113 04d2 0E       		.byte	0xe
 1114 04d3 A0       		.byte	0xa0
 1115 04d4 0B       		.byte	0xb
 1116 04d5 9A040000 		.long	0x49a
 1117 04d9 08       		.byte	0x8
 1118 04da 07       		.uleb128 0x7
 1119 04db 65627000 		.string	"ebp"
 1120 04df 0E       		.byte	0xe
 1121 04e0 A1       		.byte	0xa1
 1122 04e1 0B       		.byte	0xb
 1123 04e2 9A040000 		.long	0x49a
 1124 04e6 0C       		.byte	0xc
 1125 04e7 07       		.uleb128 0x7
 1126 04e8 65697000 		.string	"eip"
 1127 04ec 0E       		.byte	0xe
 1128 04ed A2       		.byte	0xa2
 1129 04ee 0B       		.byte	0xb
 1130 04ef 9A040000 		.long	0x49a
 1131 04f3 10       		.byte	0x10
 1132 04f4 00       		.byte	0
 1133 04f5 05       		.uleb128 0x5
 1134 04f6 96040000 		.long	.LASF81
 1135 04fa 04       		.byte	0x4
 1136 04fb 0E       		.byte	0xe
 1137 04fc AA       		.byte	0xaa
 1138 04fd 08       		.byte	0x8
 1139 04fe 0F050000 		.long	0x50f
 1140 0502 07       		.uleb128 0x7
 1141 0503 737000   		.string	"sp"
 1142 0506 0E       		.byte	0xe
 1143 0507 AB       		.byte	0xab
 1144 0508 17       		.byte	0x17
 1145 0509 0F050000 		.long	0x50f
 1146 050d 00       		.byte	0
GAS LISTING /tmp/ccfxSUQM.s 			page 22


 1147 050e 00       		.byte	0
 1148 050f 03       		.uleb128 0x3
 1149 0510 A6040000 		.long	0x4a6
 1150 0514 06       		.uleb128 0x6
 1151 0515 01       		.byte	0x1
 1152 0516 02       		.byte	0x2
 1153 0517 20050000 		.long	.LASF82
 1154 051b 05       		.uleb128 0x5
 1155 051c 2A040000 		.long	.LASF83
 1156 0520 18       		.byte	0x18
 1157 0521 09       		.byte	0x9
 1158 0522 64       		.byte	0x64
 1159 0523 10       		.byte	0x10
 1160 0524 50050000 		.long	0x550
 1161 0528 01       		.uleb128 0x1
 1162 0529 FA050000 		.long	.LASF84
 1163 052d 09       		.byte	0x9
 1164 052e 68       		.byte	0x68
 1165 052f 21       		.byte	0x21
 1166 0530 1E040000 		.long	0x41e
 1167 0534 00       		.byte	0
 1168 0535 01       		.uleb128 0x1
 1169 0536 F6020000 		.long	.LASF85
 1170 053a 09       		.byte	0x9
 1171 053b 6D       		.byte	0x6d
 1172 053c 21       		.byte	0x21
 1173 053d 62030000 		.long	0x362
 1174 0541 0C       		.byte	0xc
 1175 0542 01       		.uleb128 0x1
 1176 0543 2B030000 		.long	.LASF86
 1177 0547 09       		.byte	0x9
 1178 0548 81       		.byte	0x81
 1179 0549 21       		.byte	0x21
 1180 054a FE000000 		.long	0xfe
 1181 054e 10       		.byte	0x10
 1182 054f 00       		.byte	0
 1183 0550 02       		.uleb128 0x2
 1184 0551 CA000000 		.long	.LASF87
 1185 0555 09       		.byte	0x9
 1186 0556 83       		.byte	0x83
 1187 0557 03       		.byte	0x3
 1188 0558 1B050000 		.long	0x51b
 1189 055c 05       		.uleb128 0x5
 1190 055d C1010000 		.long	.LASF88
 1191 0561 08       		.byte	0x8
 1192 0562 09       		.byte	0x9
 1193 0563 88       		.byte	0x88
 1194 0564 10       		.byte	0x10
 1195 0565 77050000 		.long	0x577
 1196 0569 01       		.uleb128 0x1
 1197 056a A6010000 		.long	.LASF89
 1198 056e 09       		.byte	0x9
 1199 056f 8C       		.byte	0x8c
 1200 0570 21       		.byte	0x21
 1201 0571 9F030000 		.long	0x39f
 1202 0575 00       		.byte	0
 1203 0576 00       		.byte	0
GAS LISTING /tmp/ccfxSUQM.s 			page 23


 1204 0577 02       		.uleb128 0x2
 1205 0578 95050000 		.long	.LASF90
 1206 057c 09       		.byte	0x9
 1207 057d 8D       		.byte	0x8d
 1208 057e 03       		.byte	0x3
 1209 057f 5C050000 		.long	0x55c
 1210 0583 02       		.uleb128 0x2
 1211 0584 17040000 		.long	.LASF91
 1212 0588 09       		.byte	0x9
 1213 0589 92       		.byte	0x92
 1214 058a 14       		.byte	0x14
 1215 058b 8F050000 		.long	0x58f
 1216 058f 03       		.uleb128 0x3
 1217 0590 63010000 		.long	0x163
 1218 0594 02       		.uleb128 0x2
 1219 0595 87020000 		.long	.LASF92
 1220 0599 09       		.byte	0x9
 1221 059a A1       		.byte	0xa1
 1222 059b 10       		.byte	0x10
 1223 059c A0050000 		.long	0x5a0
 1224 05a0 03       		.uleb128 0x3
 1225 05a1 A5050000 		.long	0x5a5
 1226 05a5 20       		.uleb128 0x20
 1227 05a6 B0050000 		.long	0x5b0
 1228 05aa 08       		.uleb128 0x8
 1229 05ab 8F050000 		.long	0x58f
 1230 05af 00       		.byte	0
 1231 05b0 21       		.uleb128 0x21
 1232 05b1 0C       		.byte	0xc
 1233 05b2 09       		.byte	0x9
 1234 05b3 AD       		.byte	0xad
 1235 05b4 03       		.byte	0x3
 1236 05b5 D8050000 		.long	0x5d8
 1237 05b9 12       		.uleb128 0x12
 1238 05ba F0060000 		.long	.LASF93
 1239 05be B1       		.byte	0xb1
 1240 05bf 73030000 		.long	0x373
 1241 05c3 12       		.uleb128 0x12
 1242 05c4 A6010000 		.long	.LASF89
 1243 05c8 B5       		.byte	0xb5
 1244 05c9 9F030000 		.long	0x39f
 1245 05cd 12       		.uleb128 0x12
 1246 05ce 25060000 		.long	.LASF94
 1247 05d2 B9       		.byte	0xb9
 1248 05d3 D8030000 		.long	0x3d8
 1249 05d7 00       		.byte	0
 1250 05d8 22       		.uleb128 0x22
 1251 05d9 04       		.byte	0x4
 1252 05da 09       		.byte	0x9
 1253 05db 0201     		.value	0x102
 1254 05dd 03       		.byte	0x3
 1255 05de 43060000 		.long	0x643
 1256 05e2 0B       		.uleb128 0xb
 1257 05e3 26000000 		.long	.LASF95
 1258 05e7 0901     		.value	0x109
 1259 05e9 21       		.byte	0x21
 1260 05ea 33010000 		.long	0x133
GAS LISTING /tmp/ccfxSUQM.s 			page 24


 1261 05ee 0B       		.uleb128 0xb
 1262 05ef AE000000 		.long	.LASF96
 1263 05f3 1001     		.value	0x110
 1264 05f5 21       		.byte	0x21
 1265 05f6 33010000 		.long	0x133
 1266 05fa 0B       		.uleb128 0xb
 1267 05fb B8060000 		.long	.LASF97
 1268 05ff 1701     		.value	0x117
 1269 0601 22       		.byte	0x22
 1270 0602 B6000000 		.long	0xb6
 1271 0606 0B       		.uleb128 0xb
 1272 0607 6A020000 		.long	.LASF98
 1273 060b 1E01     		.value	0x11e
 1274 060d 22       		.byte	0x22
 1275 060e 43060000 		.long	0x643
 1276 0612 0B       		.uleb128 0xb
 1277 0613 C2000000 		.long	.LASF99
 1278 0617 2301     		.value	0x123
 1279 0619 21       		.byte	0x21
 1280 061a 33010000 		.long	0x133
 1281 061e 0B       		.uleb128 0xb
 1282 061f 63020000 		.long	.LASF100
 1283 0623 2C01     		.value	0x12c
 1284 0625 22       		.byte	0x22
 1285 0626 70060000 		.long	0x670
 1286 062a 0B       		.uleb128 0xb
 1287 062b BA050000 		.long	.LASF101
 1288 062f 3501     		.value	0x135
 1289 0631 22       		.byte	0x22
 1290 0632 AA060000 		.long	0x6aa
 1291 0636 0B       		.uleb128 0xb
 1292 0637 69050000 		.long	.LASF102
 1293 063b 3D01     		.value	0x13d
 1294 063d 21       		.byte	0x21
 1295 063e 3F010000 		.long	0x13f
 1296 0642 00       		.byte	0
 1297 0643 03       		.uleb128 0x3
 1298 0644 83050000 		.long	0x583
 1299 0648 05       		.uleb128 0x5
 1300 0649 88050000 		.long	.LASF103
 1301 064d 0C       		.byte	0xc
 1302 064e 0F       		.byte	0xf
 1303 064f 34       		.byte	0x34
 1304 0650 10       		.byte	0x10
 1305 0651 70060000 		.long	0x670
 1306 0655 01       		.uleb128 0x1
 1307 0656 A6010000 		.long	.LASF89
 1308 065a 0F       		.byte	0xf
 1309 065b 35       		.byte	0x35
 1310 065c 19       		.byte	0x19
 1311 065d 9F030000 		.long	0x39f
 1312 0661 00       		.byte	0
 1313 0662 07       		.uleb128 0x7
 1314 0663 636E7400 		.string	"cnt"
 1315 0667 0F       		.byte	0xf
 1316 0668 37       		.byte	0x37
 1317 0669 19       		.byte	0x19
GAS LISTING /tmp/ccfxSUQM.s 			page 25


 1318 066a 4B010000 		.long	0x14b
 1319 066e 08       		.byte	0x8
 1320 066f 00       		.byte	0
 1321 0670 03       		.uleb128 0x3
 1322 0671 48060000 		.long	0x648
 1323 0675 05       		.uleb128 0x5
 1324 0676 96060000 		.long	.LASF104
 1325 067a 10       		.byte	0x10
 1326 067b 10       		.byte	0x10
 1327 067c 39       		.byte	0x39
 1328 067d 08       		.byte	0x8
 1329 067e AA060000 		.long	0x6aa
 1330 0682 01       		.uleb128 0x1
 1331 0683 A6010000 		.long	.LASF89
 1332 0687 10       		.byte	0x10
 1333 0688 3A       		.byte	0x3a
 1334 0689 19       		.byte	0x19
 1335 068a 9F030000 		.long	0x39f
 1336 068e 00       		.byte	0
 1337 068f 01       		.uleb128 0x1
 1338 0690 C1050000 		.long	.LASF32
 1339 0694 10       		.byte	0x10
 1340 0695 3C       		.byte	0x3c
 1341 0696 1A       		.byte	0x1a
 1342 0697 8F050000 		.long	0x58f
 1343 069b 08       		.byte	0x8
 1344 069c 01       		.uleb128 0x1
 1345 069d E0000000 		.long	.LASF69
 1346 06a1 10       		.byte	0x10
 1347 06a2 3E       		.byte	0x3e
 1348 06a3 1A       		.byte	0x1a
 1349 06a4 69070000 		.long	0x769
 1350 06a8 0C       		.byte	0xc
 1351 06a9 00       		.byte	0
 1352 06aa 03       		.uleb128 0x3
 1353 06ab 75060000 		.long	0x675
 1354 06af 03       		.uleb128 0x3
 1355 06b0 64020000 		.long	0x264
 1356 06b4 03       		.uleb128 0x3
 1357 06b5 8D040000 		.long	0x48d
 1358 06b9 0F       		.uleb128 0xf
 1359 06ba 06030000 		.long	.LASF105
 1360 06be 10       		.byte	0x10
 1361 06bf 6C01     		.value	0x16c
 1362 06c1 10       		.byte	0x10
 1363 06c2 E1060000 		.long	0x6e1
 1364 06c6 04       		.uleb128 0x4
 1365 06c7 25060000 		.long	.LASF94
 1366 06cb 7101     		.value	0x171
 1367 06cd 21       		.byte	0x21
 1368 06ce D8030000 		.long	0x3d8
 1369 06d2 00       		.byte	0
 1370 06d3 04       		.uleb128 0x4
 1371 06d4 C1040000 		.long	.LASF106
 1372 06d8 7501     		.value	0x175
 1373 06da 22       		.byte	0x22
 1374 06db 8F050000 		.long	0x58f
GAS LISTING /tmp/ccfxSUQM.s 			page 26


 1375 06df 0C       		.byte	0xc
 1376 06e0 00       		.byte	0
 1377 06e1 16       		.uleb128 0x16
 1378 06e2 07000000 		.long	.LASF107
 1379 06e6 7601     		.value	0x176
 1380 06e8 B9060000 		.long	0x6b9
 1381 06ec 0F       		.uleb128 0xf
 1382 06ed 80040000 		.long	.LASF108
 1383 06f1 14       		.byte	0x14
 1384 06f2 7B01     		.value	0x17b
 1385 06f4 10       		.byte	0x10
 1386 06f5 3B070000 		.long	0x73b
 1387 06f9 04       		.uleb128 0x4
 1388 06fa 82020000 		.long	.LASF38
 1389 06fe 7F01     		.value	0x17f
 1390 0700 22       		.byte	0x22
 1391 0701 40030000 		.long	0x340
 1392 0705 00       		.byte	0
 1393 0706 04       		.uleb128 0x4
 1394 0707 CD010000 		.long	.LASF109
 1395 070b 8301     		.value	0x183
 1396 070d 22       		.byte	0x22
 1397 070e B4060000 		.long	0x6b4
 1398 0712 04       		.byte	0x4
 1399 0713 04       		.uleb128 0x4
 1400 0714 FA000000 		.long	.LASF110
 1401 0718 8701     		.value	0x187
 1402 071a 22       		.byte	0x22
 1403 071b B4060000 		.long	0x6b4
 1404 071f 08       		.byte	0x8
 1405 0720 04       		.uleb128 0x4
 1406 0721 03020000 		.long	.LASF111
 1407 0725 8C01     		.value	0x18c
 1408 0727 22       		.byte	0x22
 1409 0728 B4060000 		.long	0x6b4
 1410 072c 0C       		.byte	0xc
 1411 072d 04       		.uleb128 0x4
 1412 072e B3040000 		.long	.LASF112
 1413 0732 9001     		.value	0x190
 1414 0734 22       		.byte	0x22
 1415 0735 B4060000 		.long	0x6b4
 1416 0739 10       		.byte	0x10
 1417 073a 00       		.byte	0
 1418 073b 16       		.uleb128 0x16
 1419 073c 81060000 		.long	.LASF113
 1420 0740 9201     		.value	0x192
 1421 0742 EC060000 		.long	0x6ec
 1422 0746 0A       		.uleb128 0xa
 1423 0747 3B070000 		.long	0x73b
 1424 074b 03       		.uleb128 0x3
 1425 074c 46070000 		.long	0x746
 1426 0750 23       		.uleb128 0x23
 1427 0751 63683000 		.string	"ch0"
 1428 0755 14       		.byte	0x14
 1429 0756 4101     		.value	0x141
 1430 0758 16       		.byte	0x16
 1431 0759 64020000 		.long	0x264
GAS LISTING /tmp/ccfxSUQM.s 			page 27


 1432 075d 02       		.uleb128 0x2
 1433 075e 12020000 		.long	.LASF114
 1434 0762 10       		.byte	0x10
 1435 0763 34       		.byte	0x34
 1436 0764 19       		.byte	0x19
 1437 0765 75060000 		.long	0x675
 1438 0769 03       		.uleb128 0x3
 1439 076a 5D070000 		.long	0x75d
 1440 076e 05       		.uleb128 0x5
 1441 076f 70050000 		.long	.LASF115
 1442 0773 14       		.byte	0x14
 1443 0774 11       		.byte	0x11
 1444 0775 4F       		.byte	0x4f
 1445 0776 08       		.byte	0x8
 1446 0777 BD070000 		.long	0x7bd
 1447 077b 01       		.uleb128 0x1
 1448 077c E0060000 		.long	.LASF116
 1449 0780 11       		.byte	0x11
 1450 0781 50       		.byte	0x50
 1451 0782 03       		.byte	0x3
 1452 0783 2D000000 		.long	0x2d
 1453 0787 00       		.byte	0
 1454 0788 01       		.uleb128 0x1
 1455 0789 35030000 		.long	.LASF117
 1456 078d 11       		.byte	0x11
 1457 078e 50       		.byte	0x50
 1458 078f 03       		.byte	0x3
 1459 0790 E0070000 		.long	0x7e0
 1460 0794 04       		.byte	0x4
 1461 0795 01       		.uleb128 0x1
 1462 0796 E0050000 		.long	.LASF118
 1463 079a 11       		.byte	0x11
 1464 079b 50       		.byte	0x50
 1465 079c 03       		.byte	0x3
 1466 079d FE070000 		.long	0x7fe
 1467 07a1 08       		.byte	0x8
 1468 07a2 07       		.uleb128 0x7
 1469 07a3 70757400 		.string	"put"
 1470 07a7 11       		.byte	0x11
 1471 07a8 50       		.byte	0x50
 1472 07a9 03       		.byte	0x3
 1473 07aa 17080000 		.long	0x817
 1474 07ae 0C       		.byte	0xc
 1475 07af 07       		.uleb128 0x7
 1476 07b0 67657400 		.string	"get"
 1477 07b4 11       		.byte	0x11
 1478 07b5 50       		.byte	0x50
 1479 07b6 03       		.byte	0x3
 1480 07b7 2B080000 		.long	0x82b
 1481 07bb 10       		.byte	0x10
 1482 07bc 00       		.byte	0
 1483 07bd 0A       		.uleb128 0xa
 1484 07be 6E070000 		.long	0x76e
 1485 07c2 0D       		.uleb128 0xd
 1486 07c3 2D000000 		.long	0x2d
 1487 07c7 DB070000 		.long	0x7db
 1488 07cb 08       		.uleb128 0x8
GAS LISTING /tmp/ccfxSUQM.s 			page 28


 1489 07cc B6000000 		.long	0xb6
 1490 07d0 08       		.uleb128 0x8
 1491 07d1 DB070000 		.long	0x7db
 1492 07d5 08       		.uleb128 0x8
 1493 07d6 2D000000 		.long	0x2d
 1494 07da 00       		.byte	0
 1495 07db 03       		.uleb128 0x3
 1496 07dc E1000000 		.long	0xe1
 1497 07e0 03       		.uleb128 0x3
 1498 07e1 C2070000 		.long	0x7c2
 1499 07e5 0D       		.uleb128 0xd
 1500 07e6 2D000000 		.long	0x2d
 1501 07ea FE070000 		.long	0x7fe
 1502 07ee 08       		.uleb128 0x8
 1503 07ef B6000000 		.long	0xb6
 1504 07f3 08       		.uleb128 0x8
 1505 07f4 64040000 		.long	0x464
 1506 07f8 08       		.uleb128 0x8
 1507 07f9 2D000000 		.long	0x2d
 1508 07fd 00       		.byte	0
 1509 07fe 03       		.uleb128 0x3
 1510 07ff E5070000 		.long	0x7e5
 1511 0803 0D       		.uleb128 0xd
 1512 0804 33010000 		.long	0x133
 1513 0808 17080000 		.long	0x817
 1514 080c 08       		.uleb128 0x8
 1515 080d B6000000 		.long	0xb6
 1516 0811 08       		.uleb128 0x8
 1517 0812 D5000000 		.long	0xd5
 1518 0816 00       		.byte	0
 1519 0817 03       		.uleb128 0x3
 1520 0818 03080000 		.long	0x803
 1521 081c 0D       		.uleb128 0xd
 1522 081d 33010000 		.long	0x133
 1523 0821 2B080000 		.long	0x82b
 1524 0825 08       		.uleb128 0x8
 1525 0826 B6000000 		.long	0xb6
 1526 082a 00       		.byte	0
 1527 082b 03       		.uleb128 0x3
 1528 082c 1C080000 		.long	0x81c
 1529 0830 0C       		.uleb128 0xc
 1530 0831 04       		.byte	0x4
 1531 0832 11       		.byte	0x11
 1532 0833 5A       		.byte	0x5a
 1533 0834 46080000 		.long	0x846
 1534 0838 07       		.uleb128 0x7
 1535 0839 766D7400 		.string	"vmt"
 1536 083d 11       		.byte	0x11
 1537 083e 5C       		.byte	0x5c
 1538 083f 29       		.byte	0x29
 1539 0840 46080000 		.long	0x846
 1540 0844 00       		.byte	0
 1541 0845 00       		.byte	0
 1542 0846 03       		.uleb128 0x3
 1543 0847 BD070000 		.long	0x7bd
 1544 084b 02       		.uleb128 0x2
 1545 084c 1A020000 		.long	.LASF119
GAS LISTING /tmp/ccfxSUQM.s 			page 29


 1546 0850 11       		.byte	0x11
 1547 0851 5E       		.byte	0x5e
 1548 0852 03       		.byte	0x3
 1549 0853 30080000 		.long	0x830
 1550 0857 02       		.uleb128 0x2
 1551 0858 08040000 		.long	.LASF120
 1552 085c 12       		.byte	0x12
 1553 085d 7D       		.byte	0x7d
 1554 085e 0F       		.byte	0xf
 1555 085f 63080000 		.long	0x863
 1556 0863 03       		.uleb128 0x3
 1557 0864 68080000 		.long	0x868
 1558 0868 0D       		.uleb128 0xd
 1559 0869 26000000 		.long	0x26
 1560 086d 77080000 		.long	0x877
 1561 0871 08       		.uleb128 0x8
 1562 0872 26000000 		.long	0x26
 1563 0876 00       		.byte	0
 1564 0877 0C       		.uleb128 0xc
 1565 0878 28       		.byte	0x28
 1566 0879 12       		.byte	0x12
 1567 087a 82       		.byte	0x82
 1568 087b E8080000 		.long	0x8e8
 1569 087f 01       		.uleb128 0x1
 1570 0880 73040000 		.long	.LASF121
 1571 0884 12       		.byte	0x12
 1572 0885 86       		.byte	0x86
 1573 0886 15       		.byte	0x15
 1574 0887 39000000 		.long	0x39
 1575 088b 00       		.byte	0
 1576 088c 01       		.uleb128 0x1
 1577 088d 6E010000 		.long	.LASF122
 1578 0891 12       		.byte	0x12
 1579 0892 8A       		.byte	0x8a
 1580 0893 15       		.byte	0x15
 1581 0894 14050000 		.long	0x514
 1582 0898 04       		.byte	0x4
 1583 0899 01       		.uleb128 0x1
 1584 089a C9040000 		.long	.LASF123
 1585 089e 12       		.byte	0x12
 1586 089f 8E       		.byte	0x8e
 1587 08a0 15       		.byte	0x15
 1588 08a1 14050000 		.long	0x514
 1589 08a5 05       		.byte	0x5
 1590 08a6 01       		.uleb128 0x1
 1591 08a7 F5060000 		.long	.LASF124
 1592 08ab 12       		.byte	0x12
 1593 08ac 92       		.byte	0x92
 1594 08ad 16       		.byte	0x16
 1595 08ae 40030000 		.long	0x340
 1596 08b2 08       		.byte	0x8
 1597 08b3 01       		.uleb128 0x1
 1598 08b4 BC010000 		.long	.LASF125
 1599 08b8 12       		.byte	0x12
 1600 08b9 96       		.byte	0x96
 1601 08ba 16       		.byte	0x16
 1602 08bb B8000000 		.long	0xb8
GAS LISTING /tmp/ccfxSUQM.s 			page 30


 1603 08bf 0C       		.byte	0xc
 1604 08c0 01       		.uleb128 0x1
 1605 08c1 4D040000 		.long	.LASF126
 1606 08c5 12       		.byte	0x12
 1607 08c6 9A       		.byte	0x9a
 1608 08c7 15       		.byte	0x15
 1609 08c8 E8080000 		.long	0x8e8
 1610 08cc 10       		.byte	0x10
 1611 08cd 01       		.uleb128 0x1
 1612 08ce 94010000 		.long	.LASF127
 1613 08d2 12       		.byte	0x12
 1614 08d3 9E       		.byte	0x9e
 1615 08d4 15       		.byte	0x15
 1616 08d5 57080000 		.long	0x857
 1617 08d9 20       		.byte	0x20
 1618 08da 01       		.uleb128 0x1
 1619 08db 09050000 		.long	.LASF128
 1620 08df 12       		.byte	0x12
 1621 08e0 A3       		.byte	0xa3
 1622 08e1 19       		.byte	0x19
 1623 08e2 F8080000 		.long	0x8f8
 1624 08e6 24       		.byte	0x24
 1625 08e7 00       		.byte	0
 1626 08e8 10       		.uleb128 0x10
 1627 08e9 BD000000 		.long	0xbd
 1628 08ed F8080000 		.long	0x8f8
 1629 08f1 11       		.uleb128 0x11
 1630 08f2 39000000 		.long	0x39
 1631 08f6 0F       		.byte	0xf
 1632 08f7 00       		.byte	0
 1633 08f8 03       		.uleb128 0x3
 1634 08f9 4B080000 		.long	0x84b
 1635 08fd 02       		.uleb128 0x2
 1636 08fe 4C010000 		.long	.LASF129
 1637 0902 12       		.byte	0x12
 1638 0903 A5       		.byte	0xa5
 1639 0904 03       		.byte	0x3
 1640 0905 77080000 		.long	0x877
 1641 0909 0C       		.uleb128 0xc
 1642 090a 10       		.byte	0x10
 1643 090b 12       		.byte	0x12
 1644 090c AA       		.byte	0xaa
 1645 090d 46090000 		.long	0x946
 1646 0911 01       		.uleb128 0x1
 1647 0912 82020000 		.long	.LASF38
 1648 0916 12       		.byte	0x12
 1649 0917 AB       		.byte	0xab
 1650 0918 0F       		.byte	0xf
 1651 0919 40030000 		.long	0x340
 1652 091d 00       		.byte	0
 1653 091e 01       		.uleb128 0x1
 1654 091f A3040000 		.long	.LASF130
 1655 0923 12       		.byte	0x12
 1656 0924 AC       		.byte	0xac
 1657 0925 0A       		.byte	0xa
 1658 0926 47090000 		.long	0x947
 1659 092a 04       		.byte	0x4
GAS LISTING /tmp/ccfxSUQM.s 			page 31


 1660 092b 01       		.uleb128 0x1
 1661 092c EC000000 		.long	.LASF131
 1662 0930 12       		.byte	0x12
 1663 0931 AD       		.byte	0xad
 1664 0932 0A       		.byte	0xa
 1665 0933 47090000 		.long	0x947
 1666 0937 08       		.byte	0x8
 1667 0938 01       		.uleb128 0x1
 1668 0939 F1040000 		.long	.LASF132
 1669 093d 12       		.byte	0x12
 1670 093e AE       		.byte	0xae
 1671 093f 0A       		.byte	0xa
 1672 0940 47090000 		.long	0x947
 1673 0944 0C       		.byte	0xc
 1674 0945 00       		.byte	0
 1675 0946 24       		.uleb128 0x24
 1676 0947 03       		.uleb128 0x3
 1677 0948 46090000 		.long	0x946
 1678 094c 02       		.uleb128 0x2
 1679 094d 20030000 		.long	.LASF133
 1680 0951 12       		.byte	0x12
 1681 0952 AF       		.byte	0xaf
 1682 0953 03       		.byte	0x3
 1683 0954 09090000 		.long	0x909
 1684 0958 0A       		.uleb128 0xa
 1685 0959 4C090000 		.long	0x94c
 1686 095d 0C       		.uleb128 0xc
 1687 095e 08       		.byte	0x8
 1688 095f 12       		.byte	0x12
 1689 0960 B4       		.byte	0xb4
 1690 0961 80090000 		.long	0x980
 1691 0965 01       		.uleb128 0x1
 1692 0966 82020000 		.long	.LASF38
 1693 096a 12       		.byte	0x12
 1694 096b B5       		.byte	0xb5
 1695 096c 16       		.byte	0x16
 1696 096d 40030000 		.long	0x340
 1697 0971 00       		.byte	0
 1698 0972 01       		.uleb128 0x1
 1699 0973 05070000 		.long	.LASF134
 1700 0977 12       		.byte	0x12
 1701 0978 B6       		.byte	0xb6
 1702 0979 1E       		.byte	0x1e
 1703 097a 80090000 		.long	0x980
 1704 097e 04       		.byte	0x4
 1705 097f 00       		.byte	0
 1706 0980 03       		.uleb128 0x3
 1707 0981 8A090000 		.long	0x98a
 1708 0985 03       		.uleb128 0x3
 1709 0986 58090000 		.long	0x958
 1710 098a 0A       		.uleb128 0xa
 1711 098b 85090000 		.long	0x985
 1712 098f 02       		.uleb128 0x2
 1713 0990 1F010000 		.long	.LASF135
 1714 0994 12       		.byte	0x12
 1715 0995 B7       		.byte	0xb7
 1716 0996 03       		.byte	0x3
GAS LISTING /tmp/ccfxSUQM.s 			page 32


 1717 0997 5D090000 		.long	0x95d
 1718 099b 0A       		.uleb128 0xa
 1719 099c 8F090000 		.long	0x98f
 1720 09a0 25       		.uleb128 0x25
 1721 09a1 00000000 		.long	.LASF136
 1722 09a5 12       		.byte	0x12
 1723 09a6 2901     		.value	0x129
 1724 09a8 1A       		.byte	0x1a
 1725 09a9 FD080000 		.long	0x8fd
 1726 09ad 26       		.uleb128 0x26
 1727 09ae 6C060000 		.long	.LASF137
 1728 09b2 13       		.byte	0x13
 1729 09b3 19       		.byte	0x19
 1730 09b4 1D       		.byte	0x1d
 1731 09b5 9B090000 		.long	0x99b
 1732 09b9 17       		.uleb128 0x17
 1733 09ba BF020000 		.long	.LASF138
 1734 09be 4C       		.byte	0x4c
 1735 09bf 58090000 		.long	0x958
 1736 09c3 05       		.uleb128 0x5
 1737 09c4 03       		.byte	0x3
 1738 09c5 00000000 		.long	rt_test_003_001
 1739 09c9 17       		.uleb128 0x17
 1740 09ca CF020000 		.long	.LASF139
 1741 09ce 95       		.byte	0x95
 1742 09cf 58090000 		.long	0x958
 1743 09d3 05       		.uleb128 0x5
 1744 09d4 03       		.byte	0x3
 1745 09d5 00000000 		.long	rt_test_003_002
 1746 09d9 10       		.uleb128 0x10
 1747 09da 8A090000 		.long	0x98a
 1748 09de E9090000 		.long	0x9e9
 1749 09e2 11       		.uleb128 0x11
 1750 09e3 39000000 		.long	0x39
 1751 09e7 02       		.byte	0x2
 1752 09e8 00       		.byte	0
 1753 09e9 0A       		.uleb128 0xa
 1754 09ea D9090000 		.long	0x9d9
 1755 09ee 27       		.uleb128 0x27
 1756 09ef BF060000 		.long	.LASF140
 1757 09f3 01       		.byte	0x1
 1758 09f4 A3       		.byte	0xa3
 1759 09f5 1A       		.byte	0x1a
 1760 09f6 E9090000 		.long	0x9e9
 1761 09fa 05       		.uleb128 0x5
 1762 09fb 03       		.byte	0x3
 1763 09fc 00000000 		.long	rt_test_sequence_003_array
 1764 0a00 28       		.uleb128 0x28
 1765 0a01 AD090000 		.long	0x9ad
 1766 0a05 01       		.byte	0x1
 1767 0a06 AC       		.byte	0xac
 1768 0a07 16       		.byte	0x16
 1769 0a08 05       		.uleb128 0x5
 1770 0a09 03       		.byte	0x3
 1771 0a0a 00000000 		.long	rt_test_sequence_003
 1772 0a0e 29       		.uleb128 0x29
 1773 0a0f A0050000 		.long	.LASF145
GAS LISTING /tmp/ccfxSUQM.s 			page 33


 1774 0a13 15       		.byte	0x15
 1775 0a14 58       		.byte	0x58
 1776 0a15 08       		.byte	0x8
 1777 0a16 2A       		.uleb128 0x2a
 1778 0a17 43050000 		.long	.LASF146
 1779 0a1b 12       		.byte	0x12
 1780 0a1c 3001     		.value	0x130
 1781 0a1e 08       		.byte	0x8
 1782 0a1f 14050000 		.long	0x514
 1783 0a23 320A0000 		.long	0xa32
 1784 0a27 08       		.uleb128 0x8
 1785 0a28 14050000 		.long	0x514
 1786 0a2c 08       		.uleb128 0x8
 1787 0a2d 40030000 		.long	0x340
 1788 0a31 00       		.byte	0
 1789 0a32 2B       		.uleb128 0x2b
 1790 0a33 51050000 		.long	.LASF147
 1791 0a37 01       		.byte	0x1
 1792 0a38 61       		.byte	0x61
 1793 0a39 0D       		.byte	0xd
 1794 0a3a 01       		.byte	0x1
 1795 0a3b 810A0000 		.long	0xa81
 1796 0a3f 18       		.uleb128 0x18
 1797 0a40 680A0000 		.long	0xa68
 1798 0a44 13       		.uleb128 0x13
 1799 0a45 6200     		.string	"b"
 1800 0a47 67       		.byte	0x67
 1801 0a48 14050000 		.long	0x514
 1802 0a4c 09       		.uleb128 0x9
 1803 0a4d 2C000000 		.long	.LVL4
 1804 0a51 160A0000 		.long	0xa16
 1805 0a55 09       		.uleb128 0x9
 1806 0a56 4B000000 		.long	.LVL5
 1807 0a5a 160A0000 		.long	0xa16
 1808 0a5e 09       		.uleb128 0x9
 1809 0a5f 5D000000 		.long	.LVL6
 1810 0a63 160A0000 		.long	0xa16
 1811 0a67 00       		.byte	0
 1812 0a68 18       		.uleb128 0x18
 1813 0a69 760A0000 		.long	0xa76
 1814 0a6d 13       		.uleb128 0x13
 1815 0a6e 6200     		.string	"b"
 1816 0a70 77       		.byte	0x77
 1817 0a71 14050000 		.long	0x514
 1818 0a75 00       		.byte	0
 1819 0a76 2C       		.uleb128 0x2c
 1820 0a77 13       		.uleb128 0x13
 1821 0a78 6200     		.string	"b"
 1822 0a7a 87       		.byte	0x87
 1823 0a7b 14050000 		.long	0x514
 1824 0a7f 00       		.byte	0
 1825 0a80 00       		.byte	0
 1826 0a81 2D       		.uleb128 0x2d
 1827 0a82 5B040000 		.long	.LASF148
 1828 0a86 01       		.byte	0x1
 1829 0a87 3C       		.byte	0x3c
 1830 0a88 0D       		.byte	0xd
GAS LISTING /tmp/ccfxSUQM.s 			page 34


 1831 0a89 00000000 		.long	.LFB303
 1832 0a8d 40000000 		.long	.LFE303-.LFB303
 1833 0a91 01       		.uleb128 0x1
 1834 0a92 9C       		.byte	0x9c
 1835 0a93 DB0A0000 		.long	0xadb
 1836 0a97 2E       		.uleb128 0x2e
 1837 0a98 0C000000 		.long	.LLRL0
 1838 0a9c 2F       		.uleb128 0x2f
 1839 0a9d A9040000 		.long	.LASF141
 1840 0aa1 01       		.byte	0x1
 1841 0aa2 42       		.byte	0x42
 1842 0aa3 0F       		.byte	0xf
 1843 0aa4 56030000 		.long	0x356
 1844 0aa8 0E000000 		.long	.LLST1
 1845 0aac 0C000000 		.long	.LVUS1
 1846 0ab0 19       		.uleb128 0x19
 1847 0ab1 DB0A0000 		.long	0xadb
 1848 0ab5 20000000 		.long	.LBI62
 1849 0ab9 01       		.byte	.LVU7
 1850 0aba 18000000 		.long	.LLRL2
 1851 0abe 42       		.byte	0x42
 1852 0abf 16       		.byte	0x16
 1853 0ac0 19       		.uleb128 0x19
 1854 0ac1 DB0A0000 		.long	0xadb
 1855 0ac5 23000000 		.long	.LBI66
 1856 0ac9 03       		.byte	.LVU13
 1857 0aca 24000000 		.long	.LLRL3
 1858 0ace 43       		.byte	0x43
 1859 0acf 14       		.byte	0x14
 1860 0ad0 09       		.uleb128 0x9
 1861 0ad1 35000000 		.long	.LVL1
 1862 0ad5 0E0A0000 		.long	0xa0e
 1863 0ad9 00       		.byte	0
 1864 0ada 00       		.byte	0
 1865 0adb 30       		.uleb128 0x30
 1866 0adc 43020000 		.long	.LASF149
 1867 0ae0 02       		.byte	0x2
 1868 0ae1 87       		.byte	0x87
 1869 0ae2 19       		.byte	0x19
 1870 0ae3 56030000 		.long	0x356
 1871 0ae7 03       		.byte	0x3
 1872 0ae8 31       		.uleb128 0x31
 1873 0ae9 D9010000 		.long	.LASF150
 1874 0aed 0C       		.byte	0xc
 1875 0aee E401     		.value	0x1e4
 1876 0af0 14       		.byte	0x14
 1877 0af1 14050000 		.long	0x514
 1878 0af5 03       		.byte	0x3
 1879 0af6 1E0B0000 		.long	0xb1e
 1880 0afa 1A       		.uleb128 0x1a
 1881 0afb A9040000 		.long	.LASF141
 1882 0aff E401     		.value	0x1e4
 1883 0b01 56030000 		.long	0x356
 1884 0b05 1A       		.uleb128 0x1a
 1885 0b06 DA060000 		.long	.LASF142
 1886 0b0a E501     		.value	0x1e5
 1887 0b0c 56030000 		.long	0x356
GAS LISTING /tmp/ccfxSUQM.s 			page 35


 1888 0b10 32       		.uleb128 0x32
 1889 0b11 656E6400 		.string	"end"
 1890 0b15 0C       		.byte	0xc
 1891 0b16 E601     		.value	0x1e6
 1892 0b18 2F       		.byte	0x2f
 1893 0b19 56030000 		.long	0x356
 1894 0b1d 00       		.byte	0
 1895 0b1e 33       		.uleb128 0x33
 1896 0b1f 320A0000 		.long	0xa32
 1897 0b23 00000000 		.long	.LFB304
 1898 0b27 2B010000 		.long	.LFE304-.LFB304
 1899 0b2b 01       		.uleb128 0x1
 1900 0b2c 9C       		.byte	0x9c
 1901 0b2d 1B       		.uleb128 0x1b
 1902 0b2e 3F0A0000 		.long	0xa3f
 1903 0b32 30000000 		.long	.LLRL4
 1904 0b36 410B0000 		.long	0xb41
 1905 0b3a 34       		.uleb128 0x34
 1906 0b3b 440A0000 		.long	0xa44
 1907 0b3f 00       		.byte	0
 1908 0b40 00       		.byte	0
 1909 0b41 35       		.uleb128 0x35
 1910 0b42 320A0000 		.long	0xa32
 1911 0b46 64000000 		.long	.LBI105
 1912 0b4a 00       		.byte	.LVU43
 1913 0b4b 42000000 		.long	.LLRL5
 1914 0b4f 01       		.byte	0x1
 1915 0b50 61       		.byte	0x61
 1916 0b51 0D       		.byte	0xd
 1917 0b52 36       		.uleb128 0x36
 1918 0b53 3F0A0000 		.long	0xa3f
 1919 0b57 64000000 		.long	.LBB107
 1920 0b5b 12000000 		.long	.LBE107-.LBB107
 1921 0b5f 7A0B0000 		.long	0xb7a
 1922 0b63 14       		.uleb128 0x14
 1923 0b64 440A0000 		.long	0xa44
 1924 0b68 19000000 		.long	.LLST6
 1925 0b6c 17000000 		.long	.LVUS6
 1926 0b70 09       		.uleb128 0x9
 1927 0b71 6F000000 		.long	.LVL8
 1928 0b75 160A0000 		.long	0xa16
 1929 0b79 00       		.byte	0
 1930 0b7a 1B       		.uleb128 0x1b
 1931 0b7b 680A0000 		.long	0xa68
 1932 0b7f 51000000 		.long	.LLRL7
 1933 0b83 B90B0000 		.long	0xbb9
 1934 0b87 14       		.uleb128 0x14
 1935 0b88 6D0A0000 		.long	0xa6d
 1936 0b8c 2C000000 		.long	.LLST8
 1937 0b90 24000000 		.long	.LVUS8
 1938 0b94 09       		.uleb128 0x9
 1939 0b95 8D000000 		.long	.LVL10
 1940 0b99 160A0000 		.long	0xa16
 1941 0b9d 09       		.uleb128 0x9
 1942 0b9e 9F000000 		.long	.LVL12
 1943 0ba2 160A0000 		.long	0xa16
 1944 0ba6 09       		.uleb128 0x9
GAS LISTING /tmp/ccfxSUQM.s 			page 36


 1945 0ba7 B1000000 		.long	.LVL14
 1946 0bab 160A0000 		.long	0xa16
 1947 0baf 09       		.uleb128 0x9
 1948 0bb0 C7000000 		.long	.LVL16
 1949 0bb4 160A0000 		.long	0xa16
 1950 0bb8 00       		.byte	0
 1951 0bb9 37       		.uleb128 0x37
 1952 0bba 760A0000 		.long	0xa76
 1953 0bbe 5D000000 		.long	.LLRL9
 1954 0bc2 14       		.uleb128 0x14
 1955 0bc3 770A0000 		.long	0xa77
 1956 0bc7 53000000 		.long	.LLST10
 1957 0bcb 4B000000 		.long	.LVUS10
 1958 0bcf 09       		.uleb128 0x9
 1959 0bd0 E3000000 		.long	.LVL18
 1960 0bd4 160A0000 		.long	0xa16
 1961 0bd8 09       		.uleb128 0x9
 1962 0bd9 F9000000 		.long	.LVL20
 1963 0bdd 160A0000 		.long	0xa16
 1964 0be1 09       		.uleb128 0x9
 1965 0be2 0E010000 		.long	.LVL22
 1966 0be6 160A0000 		.long	0xa16
 1967 0bea 09       		.uleb128 0x9
 1968 0beb 23010000 		.long	.LVL24
 1969 0bef 160A0000 		.long	0xa16
 1970 0bf3 00       		.byte	0
 1971 0bf4 00       		.byte	0
 1972 0bf5 00       		.byte	0
 1973 0bf6 00       		.byte	0
 1974              		.section	.debug_abbrev,"",@progbits
 1975              	.Ldebug_abbrev0:
 1976 0000 01       		.uleb128 0x1
 1977 0001 0D       		.uleb128 0xd
 1978 0002 00       		.byte	0
 1979 0003 03       		.uleb128 0x3
 1980 0004 0E       		.uleb128 0xe
 1981 0005 3A       		.uleb128 0x3a
 1982 0006 0B       		.uleb128 0xb
 1983 0007 3B       		.uleb128 0x3b
 1984 0008 0B       		.uleb128 0xb
 1985 0009 39       		.uleb128 0x39
 1986 000a 0B       		.uleb128 0xb
 1987 000b 49       		.uleb128 0x49
 1988 000c 13       		.uleb128 0x13
 1989 000d 38       		.uleb128 0x38
 1990 000e 0B       		.uleb128 0xb
 1991 000f 00       		.byte	0
 1992 0010 00       		.byte	0
 1993 0011 02       		.uleb128 0x2
 1994 0012 16       		.uleb128 0x16
 1995 0013 00       		.byte	0
 1996 0014 03       		.uleb128 0x3
 1997 0015 0E       		.uleb128 0xe
 1998 0016 3A       		.uleb128 0x3a
 1999 0017 0B       		.uleb128 0xb
 2000 0018 3B       		.uleb128 0x3b
 2001 0019 0B       		.uleb128 0xb
GAS LISTING /tmp/ccfxSUQM.s 			page 37


 2002 001a 39       		.uleb128 0x39
 2003 001b 0B       		.uleb128 0xb
 2004 001c 49       		.uleb128 0x49
 2005 001d 13       		.uleb128 0x13
 2006 001e 00       		.byte	0
 2007 001f 00       		.byte	0
 2008 0020 03       		.uleb128 0x3
 2009 0021 0F       		.uleb128 0xf
 2010 0022 00       		.byte	0
 2011 0023 0B       		.uleb128 0xb
 2012 0024 21       		.uleb128 0x21
 2013 0025 04       		.sleb128 4
 2014 0026 49       		.uleb128 0x49
 2015 0027 13       		.uleb128 0x13
 2016 0028 00       		.byte	0
 2017 0029 00       		.byte	0
 2018 002a 04       		.uleb128 0x4
 2019 002b 0D       		.uleb128 0xd
 2020 002c 00       		.byte	0
 2021 002d 03       		.uleb128 0x3
 2022 002e 0E       		.uleb128 0xe
 2023 002f 3A       		.uleb128 0x3a
 2024 0030 21       		.uleb128 0x21
 2025 0031 09       		.sleb128 9
 2026 0032 3B       		.uleb128 0x3b
 2027 0033 05       		.uleb128 0x5
 2028 0034 39       		.uleb128 0x39
 2029 0035 0B       		.uleb128 0xb
 2030 0036 49       		.uleb128 0x49
 2031 0037 13       		.uleb128 0x13
 2032 0038 38       		.uleb128 0x38
 2033 0039 0B       		.uleb128 0xb
 2034 003a 00       		.byte	0
 2035 003b 00       		.byte	0
 2036 003c 05       		.uleb128 0x5
 2037 003d 13       		.uleb128 0x13
 2038 003e 01       		.byte	0x1
 2039 003f 03       		.uleb128 0x3
 2040 0040 0E       		.uleb128 0xe
 2041 0041 0B       		.uleb128 0xb
 2042 0042 0B       		.uleb128 0xb
 2043 0043 3A       		.uleb128 0x3a
 2044 0044 0B       		.uleb128 0xb
 2045 0045 3B       		.uleb128 0x3b
 2046 0046 0B       		.uleb128 0xb
 2047 0047 39       		.uleb128 0x39
 2048 0048 0B       		.uleb128 0xb
 2049 0049 01       		.uleb128 0x1
 2050 004a 13       		.uleb128 0x13
 2051 004b 00       		.byte	0
 2052 004c 00       		.byte	0
 2053 004d 06       		.uleb128 0x6
 2054 004e 24       		.uleb128 0x24
 2055 004f 00       		.byte	0
 2056 0050 0B       		.uleb128 0xb
 2057 0051 0B       		.uleb128 0xb
 2058 0052 3E       		.uleb128 0x3e
GAS LISTING /tmp/ccfxSUQM.s 			page 38


 2059 0053 0B       		.uleb128 0xb
 2060 0054 03       		.uleb128 0x3
 2061 0055 0E       		.uleb128 0xe
 2062 0056 00       		.byte	0
 2063 0057 00       		.byte	0
 2064 0058 07       		.uleb128 0x7
 2065 0059 0D       		.uleb128 0xd
 2066 005a 00       		.byte	0
 2067 005b 03       		.uleb128 0x3
 2068 005c 08       		.uleb128 0x8
 2069 005d 3A       		.uleb128 0x3a
 2070 005e 0B       		.uleb128 0xb
 2071 005f 3B       		.uleb128 0x3b
 2072 0060 0B       		.uleb128 0xb
 2073 0061 39       		.uleb128 0x39
 2074 0062 0B       		.uleb128 0xb
 2075 0063 49       		.uleb128 0x49
 2076 0064 13       		.uleb128 0x13
 2077 0065 38       		.uleb128 0x38
 2078 0066 0B       		.uleb128 0xb
 2079 0067 00       		.byte	0
 2080 0068 00       		.byte	0
 2081 0069 08       		.uleb128 0x8
 2082 006a 05       		.uleb128 0x5
 2083 006b 00       		.byte	0
 2084 006c 49       		.uleb128 0x49
 2085 006d 13       		.uleb128 0x13
 2086 006e 00       		.byte	0
 2087 006f 00       		.byte	0
 2088 0070 09       		.uleb128 0x9
 2089 0071 48       		.uleb128 0x48
 2090 0072 00       		.byte	0
 2091 0073 7D       		.uleb128 0x7d
 2092 0074 01       		.uleb128 0x1
 2093 0075 7F       		.uleb128 0x7f
 2094 0076 13       		.uleb128 0x13
 2095 0077 00       		.byte	0
 2096 0078 00       		.byte	0
 2097 0079 0A       		.uleb128 0xa
 2098 007a 26       		.uleb128 0x26
 2099 007b 00       		.byte	0
 2100 007c 49       		.uleb128 0x49
 2101 007d 13       		.uleb128 0x13
 2102 007e 00       		.byte	0
 2103 007f 00       		.byte	0
 2104 0080 0B       		.uleb128 0xb
 2105 0081 0D       		.uleb128 0xd
 2106 0082 00       		.byte	0
 2107 0083 03       		.uleb128 0x3
 2108 0084 0E       		.uleb128 0xe
 2109 0085 3A       		.uleb128 0x3a
 2110 0086 21       		.uleb128 0x21
 2111 0087 09       		.sleb128 9
 2112 0088 3B       		.uleb128 0x3b
 2113 0089 05       		.uleb128 0x5
 2114 008a 39       		.uleb128 0x39
 2115 008b 0B       		.uleb128 0xb
GAS LISTING /tmp/ccfxSUQM.s 			page 39


 2116 008c 49       		.uleb128 0x49
 2117 008d 13       		.uleb128 0x13
 2118 008e 00       		.byte	0
 2119 008f 00       		.byte	0
 2120 0090 0C       		.uleb128 0xc
 2121 0091 13       		.uleb128 0x13
 2122 0092 01       		.byte	0x1
 2123 0093 0B       		.uleb128 0xb
 2124 0094 0B       		.uleb128 0xb
 2125 0095 3A       		.uleb128 0x3a
 2126 0096 0B       		.uleb128 0xb
 2127 0097 3B       		.uleb128 0x3b
 2128 0098 0B       		.uleb128 0xb
 2129 0099 39       		.uleb128 0x39
 2130 009a 21       		.uleb128 0x21
 2131 009b 09       		.sleb128 9
 2132 009c 01       		.uleb128 0x1
 2133 009d 13       		.uleb128 0x13
 2134 009e 00       		.byte	0
 2135 009f 00       		.byte	0
 2136 00a0 0D       		.uleb128 0xd
 2137 00a1 15       		.uleb128 0x15
 2138 00a2 01       		.byte	0x1
 2139 00a3 27       		.uleb128 0x27
 2140 00a4 19       		.uleb128 0x19
 2141 00a5 49       		.uleb128 0x49
 2142 00a6 13       		.uleb128 0x13
 2143 00a7 01       		.uleb128 0x1
 2144 00a8 13       		.uleb128 0x13
 2145 00a9 00       		.byte	0
 2146 00aa 00       		.byte	0
 2147 00ab 0E       		.uleb128 0xe
 2148 00ac 35       		.uleb128 0x35
 2149 00ad 00       		.byte	0
 2150 00ae 49       		.uleb128 0x49
 2151 00af 13       		.uleb128 0x13
 2152 00b0 00       		.byte	0
 2153 00b1 00       		.byte	0
 2154 00b2 0F       		.uleb128 0xf
 2155 00b3 13       		.uleb128 0x13
 2156 00b4 01       		.byte	0x1
 2157 00b5 03       		.uleb128 0x3
 2158 00b6 0E       		.uleb128 0xe
 2159 00b7 0B       		.uleb128 0xb
 2160 00b8 0B       		.uleb128 0xb
 2161 00b9 3A       		.uleb128 0x3a
 2162 00ba 21       		.uleb128 0x21
 2163 00bb 09       		.sleb128 9
 2164 00bc 3B       		.uleb128 0x3b
 2165 00bd 05       		.uleb128 0x5
 2166 00be 39       		.uleb128 0x39
 2167 00bf 0B       		.uleb128 0xb
 2168 00c0 01       		.uleb128 0x1
 2169 00c1 13       		.uleb128 0x13
 2170 00c2 00       		.byte	0
 2171 00c3 00       		.byte	0
 2172 00c4 10       		.uleb128 0x10
GAS LISTING /tmp/ccfxSUQM.s 			page 40


 2173 00c5 01       		.uleb128 0x1
 2174 00c6 01       		.byte	0x1
 2175 00c7 49       		.uleb128 0x49
 2176 00c8 13       		.uleb128 0x13
 2177 00c9 01       		.uleb128 0x1
 2178 00ca 13       		.uleb128 0x13
 2179 00cb 00       		.byte	0
 2180 00cc 00       		.byte	0
 2181 00cd 11       		.uleb128 0x11
 2182 00ce 21       		.uleb128 0x21
 2183 00cf 00       		.byte	0
 2184 00d0 49       		.uleb128 0x49
 2185 00d1 13       		.uleb128 0x13
 2186 00d2 2F       		.uleb128 0x2f
 2187 00d3 0B       		.uleb128 0xb
 2188 00d4 00       		.byte	0
 2189 00d5 00       		.byte	0
 2190 00d6 12       		.uleb128 0x12
 2191 00d7 0D       		.uleb128 0xd
 2192 00d8 00       		.byte	0
 2193 00d9 03       		.uleb128 0x3
 2194 00da 0E       		.uleb128 0xe
 2195 00db 3A       		.uleb128 0x3a
 2196 00dc 21       		.uleb128 0x21
 2197 00dd 09       		.sleb128 9
 2198 00de 3B       		.uleb128 0x3b
 2199 00df 0B       		.uleb128 0xb
 2200 00e0 39       		.uleb128 0x39
 2201 00e1 21       		.uleb128 0x21
 2202 00e2 21       		.sleb128 33
 2203 00e3 49       		.uleb128 0x49
 2204 00e4 13       		.uleb128 0x13
 2205 00e5 00       		.byte	0
 2206 00e6 00       		.byte	0
 2207 00e7 13       		.uleb128 0x13
 2208 00e8 34       		.uleb128 0x34
 2209 00e9 00       		.byte	0
 2210 00ea 03       		.uleb128 0x3
 2211 00eb 08       		.uleb128 0x8
 2212 00ec 3A       		.uleb128 0x3a
 2213 00ed 21       		.uleb128 0x21
 2214 00ee 01       		.sleb128 1
 2215 00ef 3B       		.uleb128 0x3b
 2216 00f0 0B       		.uleb128 0xb
 2217 00f1 39       		.uleb128 0x39
 2218 00f2 21       		.uleb128 0x21
 2219 00f3 0A       		.sleb128 10
 2220 00f4 49       		.uleb128 0x49
 2221 00f5 13       		.uleb128 0x13
 2222 00f6 00       		.byte	0
 2223 00f7 00       		.byte	0
 2224 00f8 14       		.uleb128 0x14
 2225 00f9 34       		.uleb128 0x34
 2226 00fa 00       		.byte	0
 2227 00fb 31       		.uleb128 0x31
 2228 00fc 13       		.uleb128 0x13
 2229 00fd 02       		.uleb128 0x2
GAS LISTING /tmp/ccfxSUQM.s 			page 41


 2230 00fe 17       		.uleb128 0x17
 2231 00ff B742     		.uleb128 0x2137
 2232 0101 17       		.uleb128 0x17
 2233 0102 00       		.byte	0
 2234 0103 00       		.byte	0
 2235 0104 15       		.uleb128 0x15
 2236 0105 0D       		.uleb128 0xd
 2237 0106 00       		.byte	0
 2238 0107 03       		.uleb128 0x3
 2239 0108 08       		.uleb128 0x8
 2240 0109 3A       		.uleb128 0x3a
 2241 010a 21       		.uleb128 0x21
 2242 010b 09       		.sleb128 9
 2243 010c 3B       		.uleb128 0x3b
 2244 010d 05       		.uleb128 0x5
 2245 010e 39       		.uleb128 0x39
 2246 010f 21       		.uleb128 0x21
 2247 0110 21       		.sleb128 33
 2248 0111 49       		.uleb128 0x49
 2249 0112 13       		.uleb128 0x13
 2250 0113 38       		.uleb128 0x38
 2251 0114 0B       		.uleb128 0xb
 2252 0115 00       		.byte	0
 2253 0116 00       		.byte	0
 2254 0117 16       		.uleb128 0x16
 2255 0118 16       		.uleb128 0x16
 2256 0119 00       		.byte	0
 2257 011a 03       		.uleb128 0x3
 2258 011b 0E       		.uleb128 0xe
 2259 011c 3A       		.uleb128 0x3a
 2260 011d 21       		.uleb128 0x21
 2261 011e 09       		.sleb128 9
 2262 011f 3B       		.uleb128 0x3b
 2263 0120 05       		.uleb128 0x5
 2264 0121 39       		.uleb128 0x39
 2265 0122 21       		.uleb128 0x21
 2266 0123 03       		.sleb128 3
 2267 0124 49       		.uleb128 0x49
 2268 0125 13       		.uleb128 0x13
 2269 0126 00       		.byte	0
 2270 0127 00       		.byte	0
 2271 0128 17       		.uleb128 0x17
 2272 0129 34       		.uleb128 0x34
 2273 012a 00       		.byte	0
 2274 012b 03       		.uleb128 0x3
 2275 012c 0E       		.uleb128 0xe
 2276 012d 3A       		.uleb128 0x3a
 2277 012e 21       		.uleb128 0x21
 2278 012f 01       		.sleb128 1
 2279 0130 3B       		.uleb128 0x3b
 2280 0131 0B       		.uleb128 0xb
 2281 0132 39       		.uleb128 0x39
 2282 0133 21       		.uleb128 0x21
 2283 0134 19       		.sleb128 25
 2284 0135 49       		.uleb128 0x49
 2285 0136 13       		.uleb128 0x13
 2286 0137 02       		.uleb128 0x2
GAS LISTING /tmp/ccfxSUQM.s 			page 42


 2287 0138 18       		.uleb128 0x18
 2288 0139 00       		.byte	0
 2289 013a 00       		.byte	0
 2290 013b 18       		.uleb128 0x18
 2291 013c 0B       		.uleb128 0xb
 2292 013d 01       		.byte	0x1
 2293 013e 01       		.uleb128 0x1
 2294 013f 13       		.uleb128 0x13
 2295 0140 00       		.byte	0
 2296 0141 00       		.byte	0
 2297 0142 19       		.uleb128 0x19
 2298 0143 1D       		.uleb128 0x1d
 2299 0144 00       		.byte	0
 2300 0145 31       		.uleb128 0x31
 2301 0146 13       		.uleb128 0x13
 2302 0147 52       		.uleb128 0x52
 2303 0148 01       		.uleb128 0x1
 2304 0149 B842     		.uleb128 0x2138
 2305 014b 0B       		.uleb128 0xb
 2306 014c 55       		.uleb128 0x55
 2307 014d 17       		.uleb128 0x17
 2308 014e 58       		.uleb128 0x58
 2309 014f 21       		.uleb128 0x21
 2310 0150 01       		.sleb128 1
 2311 0151 59       		.uleb128 0x59
 2312 0152 0B       		.uleb128 0xb
 2313 0153 57       		.uleb128 0x57
 2314 0154 0B       		.uleb128 0xb
 2315 0155 00       		.byte	0
 2316 0156 00       		.byte	0
 2317 0157 1A       		.uleb128 0x1a
 2318 0158 05       		.uleb128 0x5
 2319 0159 00       		.byte	0
 2320 015a 03       		.uleb128 0x3
 2321 015b 0E       		.uleb128 0xe
 2322 015c 3A       		.uleb128 0x3a
 2323 015d 21       		.uleb128 0x21
 2324 015e 0C       		.sleb128 12
 2325 015f 3B       		.uleb128 0x3b
 2326 0160 05       		.uleb128 0x5
 2327 0161 39       		.uleb128 0x39
 2328 0162 21       		.uleb128 0x21
 2329 0163 2F       		.sleb128 47
 2330 0164 49       		.uleb128 0x49
 2331 0165 13       		.uleb128 0x13
 2332 0166 00       		.byte	0
 2333 0167 00       		.byte	0
 2334 0168 1B       		.uleb128 0x1b
 2335 0169 0B       		.uleb128 0xb
 2336 016a 01       		.byte	0x1
 2337 016b 31       		.uleb128 0x31
 2338 016c 13       		.uleb128 0x13
 2339 016d 55       		.uleb128 0x55
 2340 016e 17       		.uleb128 0x17
 2341 016f 01       		.uleb128 0x1
 2342 0170 13       		.uleb128 0x13
 2343 0171 00       		.byte	0
GAS LISTING /tmp/ccfxSUQM.s 			page 43


 2344 0172 00       		.byte	0
 2345 0173 1C       		.uleb128 0x1c
 2346 0174 11       		.uleb128 0x11
 2347 0175 01       		.byte	0x1
 2348 0176 25       		.uleb128 0x25
 2349 0177 0E       		.uleb128 0xe
 2350 0178 13       		.uleb128 0x13
 2351 0179 0B       		.uleb128 0xb
 2352 017a 03       		.uleb128 0x3
 2353 017b 1F       		.uleb128 0x1f
 2354 017c 1B       		.uleb128 0x1b
 2355 017d 1F       		.uleb128 0x1f
 2356 017e 55       		.uleb128 0x55
 2357 017f 17       		.uleb128 0x17
 2358 0180 11       		.uleb128 0x11
 2359 0181 01       		.uleb128 0x1
 2360 0182 10       		.uleb128 0x10
 2361 0183 17       		.uleb128 0x17
 2362 0184 00       		.byte	0
 2363 0185 00       		.byte	0
 2364 0186 1D       		.uleb128 0x1d
 2365 0187 24       		.uleb128 0x24
 2366 0188 00       		.byte	0
 2367 0189 0B       		.uleb128 0xb
 2368 018a 0B       		.uleb128 0xb
 2369 018b 3E       		.uleb128 0x3e
 2370 018c 0B       		.uleb128 0xb
 2371 018d 03       		.uleb128 0x3
 2372 018e 08       		.uleb128 0x8
 2373 018f 00       		.byte	0
 2374 0190 00       		.byte	0
 2375 0191 1E       		.uleb128 0x1e
 2376 0192 0F       		.uleb128 0xf
 2377 0193 00       		.byte	0
 2378 0194 0B       		.uleb128 0xb
 2379 0195 0B       		.uleb128 0xb
 2380 0196 00       		.byte	0
 2381 0197 00       		.byte	0
 2382 0198 1F       		.uleb128 0x1f
 2383 0199 16       		.uleb128 0x16
 2384 019a 00       		.byte	0
 2385 019b 03       		.uleb128 0x3
 2386 019c 0E       		.uleb128 0xe
 2387 019d 3A       		.uleb128 0x3a
 2388 019e 0B       		.uleb128 0xb
 2389 019f 3B       		.uleb128 0x3b
 2390 01a0 0B       		.uleb128 0xb
 2391 01a1 39       		.uleb128 0x39
 2392 01a2 0B       		.uleb128 0xb
 2393 01a3 49       		.uleb128 0x49
 2394 01a4 13       		.uleb128 0x13
 2395 01a5 8801     		.uleb128 0x88
 2396 01a7 0B       		.uleb128 0xb
 2397 01a8 00       		.byte	0
 2398 01a9 00       		.byte	0
 2399 01aa 20       		.uleb128 0x20
 2400 01ab 15       		.uleb128 0x15
GAS LISTING /tmp/ccfxSUQM.s 			page 44


 2401 01ac 01       		.byte	0x1
 2402 01ad 27       		.uleb128 0x27
 2403 01ae 19       		.uleb128 0x19
 2404 01af 01       		.uleb128 0x1
 2405 01b0 13       		.uleb128 0x13
 2406 01b1 00       		.byte	0
 2407 01b2 00       		.byte	0
 2408 01b3 21       		.uleb128 0x21
 2409 01b4 17       		.uleb128 0x17
 2410 01b5 01       		.byte	0x1
 2411 01b6 0B       		.uleb128 0xb
 2412 01b7 0B       		.uleb128 0xb
 2413 01b8 3A       		.uleb128 0x3a
 2414 01b9 0B       		.uleb128 0xb
 2415 01ba 3B       		.uleb128 0x3b
 2416 01bb 0B       		.uleb128 0xb
 2417 01bc 39       		.uleb128 0x39
 2418 01bd 0B       		.uleb128 0xb
 2419 01be 01       		.uleb128 0x1
 2420 01bf 13       		.uleb128 0x13
 2421 01c0 00       		.byte	0
 2422 01c1 00       		.byte	0
 2423 01c2 22       		.uleb128 0x22
 2424 01c3 17       		.uleb128 0x17
 2425 01c4 01       		.byte	0x1
 2426 01c5 0B       		.uleb128 0xb
 2427 01c6 0B       		.uleb128 0xb
 2428 01c7 3A       		.uleb128 0x3a
 2429 01c8 0B       		.uleb128 0xb
 2430 01c9 3B       		.uleb128 0x3b
 2431 01ca 05       		.uleb128 0x5
 2432 01cb 39       		.uleb128 0x39
 2433 01cc 0B       		.uleb128 0xb
 2434 01cd 01       		.uleb128 0x1
 2435 01ce 13       		.uleb128 0x13
 2436 01cf 00       		.byte	0
 2437 01d0 00       		.byte	0
 2438 01d1 23       		.uleb128 0x23
 2439 01d2 34       		.uleb128 0x34
 2440 01d3 00       		.byte	0
 2441 01d4 03       		.uleb128 0x3
 2442 01d5 08       		.uleb128 0x8
 2443 01d6 3A       		.uleb128 0x3a
 2444 01d7 0B       		.uleb128 0xb
 2445 01d8 3B       		.uleb128 0x3b
 2446 01d9 05       		.uleb128 0x5
 2447 01da 39       		.uleb128 0x39
 2448 01db 0B       		.uleb128 0xb
 2449 01dc 49       		.uleb128 0x49
 2450 01dd 13       		.uleb128 0x13
 2451 01de 3F       		.uleb128 0x3f
 2452 01df 19       		.uleb128 0x19
 2453 01e0 3C       		.uleb128 0x3c
 2454 01e1 19       		.uleb128 0x19
 2455 01e2 00       		.byte	0
 2456 01e3 00       		.byte	0
 2457 01e4 24       		.uleb128 0x24
GAS LISTING /tmp/ccfxSUQM.s 			page 45


 2458 01e5 15       		.uleb128 0x15
 2459 01e6 00       		.byte	0
 2460 01e7 27       		.uleb128 0x27
 2461 01e8 19       		.uleb128 0x19
 2462 01e9 00       		.byte	0
 2463 01ea 00       		.byte	0
 2464 01eb 25       		.uleb128 0x25
 2465 01ec 34       		.uleb128 0x34
 2466 01ed 00       		.byte	0
 2467 01ee 03       		.uleb128 0x3
 2468 01ef 0E       		.uleb128 0xe
 2469 01f0 3A       		.uleb128 0x3a
 2470 01f1 0B       		.uleb128 0xb
 2471 01f2 3B       		.uleb128 0x3b
 2472 01f3 05       		.uleb128 0x5
 2473 01f4 39       		.uleb128 0x39
 2474 01f5 0B       		.uleb128 0xb
 2475 01f6 49       		.uleb128 0x49
 2476 01f7 13       		.uleb128 0x13
 2477 01f8 3F       		.uleb128 0x3f
 2478 01f9 19       		.uleb128 0x19
 2479 01fa 3C       		.uleb128 0x3c
 2480 01fb 19       		.uleb128 0x19
 2481 01fc 00       		.byte	0
 2482 01fd 00       		.byte	0
 2483 01fe 26       		.uleb128 0x26
 2484 01ff 34       		.uleb128 0x34
 2485 0200 00       		.byte	0
 2486 0201 03       		.uleb128 0x3
 2487 0202 0E       		.uleb128 0xe
 2488 0203 3A       		.uleb128 0x3a
 2489 0204 0B       		.uleb128 0xb
 2490 0205 3B       		.uleb128 0x3b
 2491 0206 0B       		.uleb128 0xb
 2492 0207 39       		.uleb128 0x39
 2493 0208 0B       		.uleb128 0xb
 2494 0209 49       		.uleb128 0x49
 2495 020a 13       		.uleb128 0x13
 2496 020b 3F       		.uleb128 0x3f
 2497 020c 19       		.uleb128 0x19
 2498 020d 3C       		.uleb128 0x3c
 2499 020e 19       		.uleb128 0x19
 2500 020f 00       		.byte	0
 2501 0210 00       		.byte	0
 2502 0211 27       		.uleb128 0x27
 2503 0212 34       		.uleb128 0x34
 2504 0213 00       		.byte	0
 2505 0214 03       		.uleb128 0x3
 2506 0215 0E       		.uleb128 0xe
 2507 0216 3A       		.uleb128 0x3a
 2508 0217 0B       		.uleb128 0xb
 2509 0218 3B       		.uleb128 0x3b
 2510 0219 0B       		.uleb128 0xb
 2511 021a 39       		.uleb128 0x39
 2512 021b 0B       		.uleb128 0xb
 2513 021c 49       		.uleb128 0x49
 2514 021d 13       		.uleb128 0x13
GAS LISTING /tmp/ccfxSUQM.s 			page 46


 2515 021e 3F       		.uleb128 0x3f
 2516 021f 19       		.uleb128 0x19
 2517 0220 02       		.uleb128 0x2
 2518 0221 18       		.uleb128 0x18
 2519 0222 00       		.byte	0
 2520 0223 00       		.byte	0
 2521 0224 28       		.uleb128 0x28
 2522 0225 34       		.uleb128 0x34
 2523 0226 00       		.byte	0
 2524 0227 47       		.uleb128 0x47
 2525 0228 13       		.uleb128 0x13
 2526 0229 3A       		.uleb128 0x3a
 2527 022a 0B       		.uleb128 0xb
 2528 022b 3B       		.uleb128 0x3b
 2529 022c 0B       		.uleb128 0xb
 2530 022d 39       		.uleb128 0x39
 2531 022e 0B       		.uleb128 0xb
 2532 022f 02       		.uleb128 0x2
 2533 0230 18       		.uleb128 0x18
 2534 0231 00       		.byte	0
 2535 0232 00       		.byte	0
 2536 0233 29       		.uleb128 0x29
 2537 0234 2E       		.uleb128 0x2e
 2538 0235 00       		.byte	0
 2539 0236 3F       		.uleb128 0x3f
 2540 0237 19       		.uleb128 0x19
 2541 0238 03       		.uleb128 0x3
 2542 0239 0E       		.uleb128 0xe
 2543 023a 3A       		.uleb128 0x3a
 2544 023b 0B       		.uleb128 0xb
 2545 023c 3B       		.uleb128 0x3b
 2546 023d 0B       		.uleb128 0xb
 2547 023e 39       		.uleb128 0x39
 2548 023f 0B       		.uleb128 0xb
 2549 0240 27       		.uleb128 0x27
 2550 0241 19       		.uleb128 0x19
 2551 0242 3C       		.uleb128 0x3c
 2552 0243 19       		.uleb128 0x19
 2553 0244 00       		.byte	0
 2554 0245 00       		.byte	0
 2555 0246 2A       		.uleb128 0x2a
 2556 0247 2E       		.uleb128 0x2e
 2557 0248 01       		.byte	0x1
 2558 0249 3F       		.uleb128 0x3f
 2559 024a 19       		.uleb128 0x19
 2560 024b 03       		.uleb128 0x3
 2561 024c 0E       		.uleb128 0xe
 2562 024d 3A       		.uleb128 0x3a
 2563 024e 0B       		.uleb128 0xb
 2564 024f 3B       		.uleb128 0x3b
 2565 0250 05       		.uleb128 0x5
 2566 0251 39       		.uleb128 0x39
 2567 0252 0B       		.uleb128 0xb
 2568 0253 27       		.uleb128 0x27
 2569 0254 19       		.uleb128 0x19
 2570 0255 49       		.uleb128 0x49
 2571 0256 13       		.uleb128 0x13
GAS LISTING /tmp/ccfxSUQM.s 			page 47


 2572 0257 3C       		.uleb128 0x3c
 2573 0258 19       		.uleb128 0x19
 2574 0259 01       		.uleb128 0x1
 2575 025a 13       		.uleb128 0x13
 2576 025b 00       		.byte	0
 2577 025c 00       		.byte	0
 2578 025d 2B       		.uleb128 0x2b
 2579 025e 2E       		.uleb128 0x2e
 2580 025f 01       		.byte	0x1
 2581 0260 03       		.uleb128 0x3
 2582 0261 0E       		.uleb128 0xe
 2583 0262 3A       		.uleb128 0x3a
 2584 0263 0B       		.uleb128 0xb
 2585 0264 3B       		.uleb128 0x3b
 2586 0265 0B       		.uleb128 0xb
 2587 0266 39       		.uleb128 0x39
 2588 0267 0B       		.uleb128 0xb
 2589 0268 27       		.uleb128 0x27
 2590 0269 19       		.uleb128 0x19
 2591 026a 20       		.uleb128 0x20
 2592 026b 0B       		.uleb128 0xb
 2593 026c 01       		.uleb128 0x1
 2594 026d 13       		.uleb128 0x13
 2595 026e 00       		.byte	0
 2596 026f 00       		.byte	0
 2597 0270 2C       		.uleb128 0x2c
 2598 0271 0B       		.uleb128 0xb
 2599 0272 01       		.byte	0x1
 2600 0273 00       		.byte	0
 2601 0274 00       		.byte	0
 2602 0275 2D       		.uleb128 0x2d
 2603 0276 2E       		.uleb128 0x2e
 2604 0277 01       		.byte	0x1
 2605 0278 03       		.uleb128 0x3
 2606 0279 0E       		.uleb128 0xe
 2607 027a 3A       		.uleb128 0x3a
 2608 027b 0B       		.uleb128 0xb
 2609 027c 3B       		.uleb128 0x3b
 2610 027d 0B       		.uleb128 0xb
 2611 027e 39       		.uleb128 0x39
 2612 027f 0B       		.uleb128 0xb
 2613 0280 27       		.uleb128 0x27
 2614 0281 19       		.uleb128 0x19
 2615 0282 11       		.uleb128 0x11
 2616 0283 01       		.uleb128 0x1
 2617 0284 12       		.uleb128 0x12
 2618 0285 06       		.uleb128 0x6
 2619 0286 40       		.uleb128 0x40
 2620 0287 18       		.uleb128 0x18
 2621 0288 7A       		.uleb128 0x7a
 2622 0289 19       		.uleb128 0x19
 2623 028a 01       		.uleb128 0x1
 2624 028b 13       		.uleb128 0x13
 2625 028c 00       		.byte	0
 2626 028d 00       		.byte	0
 2627 028e 2E       		.uleb128 0x2e
 2628 028f 0B       		.uleb128 0xb
GAS LISTING /tmp/ccfxSUQM.s 			page 48


 2629 0290 01       		.byte	0x1
 2630 0291 55       		.uleb128 0x55
 2631 0292 17       		.uleb128 0x17
 2632 0293 00       		.byte	0
 2633 0294 00       		.byte	0
 2634 0295 2F       		.uleb128 0x2f
 2635 0296 34       		.uleb128 0x34
 2636 0297 00       		.byte	0
 2637 0298 03       		.uleb128 0x3
 2638 0299 0E       		.uleb128 0xe
 2639 029a 3A       		.uleb128 0x3a
 2640 029b 0B       		.uleb128 0xb
 2641 029c 3B       		.uleb128 0x3b
 2642 029d 0B       		.uleb128 0xb
 2643 029e 39       		.uleb128 0x39
 2644 029f 0B       		.uleb128 0xb
 2645 02a0 49       		.uleb128 0x49
 2646 02a1 13       		.uleb128 0x13
 2647 02a2 02       		.uleb128 0x2
 2648 02a3 17       		.uleb128 0x17
 2649 02a4 B742     		.uleb128 0x2137
 2650 02a6 17       		.uleb128 0x17
 2651 02a7 00       		.byte	0
 2652 02a8 00       		.byte	0
 2653 02a9 30       		.uleb128 0x30
 2654 02aa 2E       		.uleb128 0x2e
 2655 02ab 00       		.byte	0
 2656 02ac 03       		.uleb128 0x3
 2657 02ad 0E       		.uleb128 0xe
 2658 02ae 3A       		.uleb128 0x3a
 2659 02af 0B       		.uleb128 0xb
 2660 02b0 3B       		.uleb128 0x3b
 2661 02b1 0B       		.uleb128 0xb
 2662 02b2 39       		.uleb128 0x39
 2663 02b3 0B       		.uleb128 0xb
 2664 02b4 27       		.uleb128 0x27
 2665 02b5 19       		.uleb128 0x19
 2666 02b6 49       		.uleb128 0x49
 2667 02b7 13       		.uleb128 0x13
 2668 02b8 20       		.uleb128 0x20
 2669 02b9 0B       		.uleb128 0xb
 2670 02ba 00       		.byte	0
 2671 02bb 00       		.byte	0
 2672 02bc 31       		.uleb128 0x31
 2673 02bd 2E       		.uleb128 0x2e
 2674 02be 01       		.byte	0x1
 2675 02bf 03       		.uleb128 0x3
 2676 02c0 0E       		.uleb128 0xe
 2677 02c1 3A       		.uleb128 0x3a
 2678 02c2 0B       		.uleb128 0xb
 2679 02c3 3B       		.uleb128 0x3b
 2680 02c4 05       		.uleb128 0x5
 2681 02c5 39       		.uleb128 0x39
 2682 02c6 0B       		.uleb128 0xb
 2683 02c7 27       		.uleb128 0x27
 2684 02c8 19       		.uleb128 0x19
 2685 02c9 49       		.uleb128 0x49
GAS LISTING /tmp/ccfxSUQM.s 			page 49


 2686 02ca 13       		.uleb128 0x13
 2687 02cb 20       		.uleb128 0x20
 2688 02cc 0B       		.uleb128 0xb
 2689 02cd 01       		.uleb128 0x1
 2690 02ce 13       		.uleb128 0x13
 2691 02cf 00       		.byte	0
 2692 02d0 00       		.byte	0
 2693 02d1 32       		.uleb128 0x32
 2694 02d2 05       		.uleb128 0x5
 2695 02d3 00       		.byte	0
 2696 02d4 03       		.uleb128 0x3
 2697 02d5 08       		.uleb128 0x8
 2698 02d6 3A       		.uleb128 0x3a
 2699 02d7 0B       		.uleb128 0xb
 2700 02d8 3B       		.uleb128 0x3b
 2701 02d9 05       		.uleb128 0x5
 2702 02da 39       		.uleb128 0x39
 2703 02db 0B       		.uleb128 0xb
 2704 02dc 49       		.uleb128 0x49
 2705 02dd 13       		.uleb128 0x13
 2706 02de 00       		.byte	0
 2707 02df 00       		.byte	0
 2708 02e0 33       		.uleb128 0x33
 2709 02e1 2E       		.uleb128 0x2e
 2710 02e2 01       		.byte	0x1
 2711 02e3 31       		.uleb128 0x31
 2712 02e4 13       		.uleb128 0x13
 2713 02e5 11       		.uleb128 0x11
 2714 02e6 01       		.uleb128 0x1
 2715 02e7 12       		.uleb128 0x12
 2716 02e8 06       		.uleb128 0x6
 2717 02e9 40       		.uleb128 0x40
 2718 02ea 18       		.uleb128 0x18
 2719 02eb 7A       		.uleb128 0x7a
 2720 02ec 19       		.uleb128 0x19
 2721 02ed 00       		.byte	0
 2722 02ee 00       		.byte	0
 2723 02ef 34       		.uleb128 0x34
 2724 02f0 34       		.uleb128 0x34
 2725 02f1 00       		.byte	0
 2726 02f2 31       		.uleb128 0x31
 2727 02f3 13       		.uleb128 0x13
 2728 02f4 1C       		.uleb128 0x1c
 2729 02f5 0B       		.uleb128 0xb
 2730 02f6 00       		.byte	0
 2731 02f7 00       		.byte	0
 2732 02f8 35       		.uleb128 0x35
 2733 02f9 1D       		.uleb128 0x1d
 2734 02fa 01       		.byte	0x1
 2735 02fb 31       		.uleb128 0x31
 2736 02fc 13       		.uleb128 0x13
 2737 02fd 52       		.uleb128 0x52
 2738 02fe 01       		.uleb128 0x1
 2739 02ff B842     		.uleb128 0x2138
 2740 0301 0B       		.uleb128 0xb
 2741 0302 55       		.uleb128 0x55
 2742 0303 17       		.uleb128 0x17
GAS LISTING /tmp/ccfxSUQM.s 			page 50


 2743 0304 58       		.uleb128 0x58
 2744 0305 0B       		.uleb128 0xb
 2745 0306 59       		.uleb128 0x59
 2746 0307 0B       		.uleb128 0xb
 2747 0308 57       		.uleb128 0x57
 2748 0309 0B       		.uleb128 0xb
 2749 030a 00       		.byte	0
 2750 030b 00       		.byte	0
 2751 030c 36       		.uleb128 0x36
 2752 030d 0B       		.uleb128 0xb
 2753 030e 01       		.byte	0x1
 2754 030f 31       		.uleb128 0x31
 2755 0310 13       		.uleb128 0x13
 2756 0311 11       		.uleb128 0x11
 2757 0312 01       		.uleb128 0x1
 2758 0313 12       		.uleb128 0x12
 2759 0314 06       		.uleb128 0x6
 2760 0315 01       		.uleb128 0x1
 2761 0316 13       		.uleb128 0x13
 2762 0317 00       		.byte	0
 2763 0318 00       		.byte	0
 2764 0319 37       		.uleb128 0x37
 2765 031a 0B       		.uleb128 0xb
 2766 031b 01       		.byte	0x1
 2767 031c 31       		.uleb128 0x31
 2768 031d 13       		.uleb128 0x13
 2769 031e 55       		.uleb128 0x55
 2770 031f 17       		.uleb128 0x17
 2771 0320 00       		.byte	0
 2772 0321 00       		.byte	0
 2773 0322 00       		.byte	0
 2774              		.section	.debug_loclists,"",@progbits
 2775 0000 6D000000 		.long	.Ldebug_loc3-.Ldebug_loc2
 2776              	.Ldebug_loc2:
 2777 0004 0500     		.value	0x5
 2778 0006 04       		.byte	0x4
 2779 0007 00       		.byte	0
 2780 0008 00000000 		.long	0
 2781              	.Ldebug_loc0:
 2782              	.LVUS1:
 2783 000c 00       		.uleb128 .LVU10
 2784 000d 00       		.uleb128 .LVU25
 2785              	.LLST1:
 2786 000e 08       		.byte	0x8
 2787 000f 23000000 		.long	.LVL0
 2788 0013 1C       		.uleb128 .LVL2-.LVL0
 2789 0014 01       		.uleb128 0x1
 2790 0015 57       		.byte	0x57
 2791 0016 00       		.byte	0
 2792              	.LVUS6:
 2793 0017 03       		.uleb128 .LVU46
 2794 0018 00       		.uleb128 .LVU83
 2795              	.LLST6:
 2796 0019 08       		.byte	0x8
 2797 001a 64000000 		.long	.LVL7
 2798 001e C201     		.uleb128 .LVL25-.LVL7
 2799 0020 02       		.uleb128 0x2
GAS LISTING /tmp/ccfxSUQM.s 			page 51


 2800 0021 30       		.byte	0x30
 2801 0022 9F       		.byte	0x9f
 2802 0023 00       		.byte	0
 2803              	.LVUS8:
 2804 0024 02       		.uleb128 .LVU55
 2805 0025 02       		.uleb128 .LVU58
 2806 0026 02       		.uleb128 .LVU58
 2807 0027 02       		.uleb128 .LVU61
 2808 0028 02       		.uleb128 .LVU61
 2809 0029 02       		.uleb128 .LVU64
 2810 002a 02       		.uleb128 .LVU64
 2811 002b 00       		.uleb128 .LVU83
 2812              	.LLST8:
 2813 002c 06       		.byte	0x6
 2814 002d 85000000 		.long	.LVL9
 2815 0031 04       		.byte	0x4
 2816 0032 00       		.uleb128 .LVL9-.LVL9
 2817 0033 0F       		.uleb128 .LVL11-.LVL9
 2818 0034 02       		.uleb128 0x2
 2819 0035 31       		.byte	0x31
 2820 0036 9F       		.byte	0x9f
 2821 0037 04       		.byte	0x4
 2822 0038 0F       		.uleb128 .LVL11-.LVL9
 2823 0039 21       		.uleb128 .LVL13-.LVL9
 2824 003a 02       		.uleb128 0x2
 2825 003b 30       		.byte	0x30
 2826 003c 9F       		.byte	0x9f
 2827 003d 04       		.byte	0x4
 2828 003e 21       		.uleb128 .LVL13-.LVL9
 2829 003f 37       		.uleb128 .LVL15-.LVL9
 2830 0040 02       		.uleb128 0x2
 2831 0041 31       		.byte	0x31
 2832 0042 9F       		.byte	0x9f
 2833 0043 04       		.byte	0x4
 2834 0044 37       		.uleb128 .LVL15-.LVL9
 2835 0045 A101     		.uleb128 .LVL25-.LVL9
 2836 0047 02       		.uleb128 0x2
 2837 0048 30       		.byte	0x30
 2838 0049 9F       		.byte	0x9f
 2839 004a 00       		.byte	0
 2840              	.LVUS10:
 2841 004b 02       		.uleb128 .LVU73
 2842 004c 02       		.uleb128 .LVU76
 2843 004d 02       		.uleb128 .LVU76
 2844 004e 02       		.uleb128 .LVU79
 2845 004f 02       		.uleb128 .LVU79
 2846 0050 02       		.uleb128 .LVU82
 2847 0051 02       		.uleb128 .LVU82
 2848 0052 00       		.uleb128 .LVU83
 2849              	.LLST10:
 2850 0053 06       		.byte	0x6
 2851 0054 DB000000 		.long	.LVL17
 2852 0058 04       		.byte	0x4
 2853 0059 00       		.uleb128 .LVL17-.LVL17
 2854 005a 13       		.uleb128 .LVL19-.LVL17
 2855 005b 02       		.uleb128 0x2
 2856 005c 31       		.byte	0x31
GAS LISTING /tmp/ccfxSUQM.s 			page 52


 2857 005d 9F       		.byte	0x9f
 2858 005e 04       		.byte	0x4
 2859 005f 13       		.uleb128 .LVL19-.LVL17
 2860 0060 29       		.uleb128 .LVL21-.LVL17
 2861 0061 02       		.uleb128 0x2
 2862 0062 30       		.byte	0x30
 2863 0063 9F       		.byte	0x9f
 2864 0064 04       		.byte	0x4
 2865 0065 29       		.uleb128 .LVL21-.LVL17
 2866 0066 3E       		.uleb128 .LVL23-.LVL17
 2867 0067 02       		.uleb128 0x2
 2868 0068 31       		.byte	0x31
 2869 0069 9F       		.byte	0x9f
 2870 006a 04       		.byte	0x4
 2871 006b 3E       		.uleb128 .LVL23-.LVL17
 2872 006c 4B       		.uleb128 .LVL25-.LVL17
 2873 006d 02       		.uleb128 0x2
 2874 006e 30       		.byte	0x30
 2875 006f 9F       		.byte	0x9f
 2876 0070 00       		.byte	0
 2877              	.Ldebug_loc3:
 2878              		.section	.debug_aranges,"",@progbits
 2879 0000 24000000 		.long	0x24
 2880 0004 0200     		.value	0x2
 2881 0006 00000000 		.long	.Ldebug_info0
 2882 000a 04       		.byte	0x4
 2883 000b 00       		.byte	0
 2884 000c 0000     		.value	0
 2885 000e 0000     		.value	0
 2886 0010 00000000 		.long	.LFB303
 2887 0014 40000000 		.long	.LFE303-.LFB303
 2888 0018 00000000 		.long	.LFB304
 2889 001c 2B010000 		.long	.LFE304-.LFB304
 2890 0020 00000000 		.long	0
 2891 0024 00000000 		.long	0
 2892              		.section	.debug_rnglists,"",@progbits
 2893              	.Ldebug_ranges0:
 2894 0000 76000000 		.long	.Ldebug_ranges3-.Ldebug_ranges2
 2895              	.Ldebug_ranges2:
 2896 0004 0500     		.value	0x5
 2897 0006 04       		.byte	0x4
 2898 0007 00       		.byte	0
 2899 0008 00000000 		.long	0
 2900              	.LLRL0:
 2901 000c 05       		.byte	0x5
 2902 000d 14000000 		.long	.LBB61
 2903 0011 04       		.byte	0x4
 2904 0012 00       		.uleb128 .LBB61-.LBB61
 2905 0013 06       		.uleb128 .LBE61-.LBB61
 2906 0014 04       		.byte	0x4
 2907 0015 0C       		.uleb128 .LBB70-.LBB61
 2908 0016 28       		.uleb128 .LBE70-.LBB61
 2909 0017 00       		.byte	0
 2910              	.LLRL2:
 2911 0018 05       		.byte	0x5
 2912 0019 14000000 		.long	.LBB62
 2913 001d 04       		.byte	0x4
GAS LISTING /tmp/ccfxSUQM.s 			page 53


 2914 001e 00       		.uleb128 .LBB62-.LBB62
 2915 001f 06       		.uleb128 .LBE62-.LBB62
 2916 0020 04       		.byte	0x4
 2917 0021 0C       		.uleb128 .LBB65-.LBB62
 2918 0022 0F       		.uleb128 .LBE65-.LBB62
 2919 0023 00       		.byte	0
 2920              	.LLRL3:
 2921 0024 05       		.byte	0x5
 2922 0025 23000000 		.long	.LBB66
 2923 0029 04       		.byte	0x4
 2924 002a 00       		.uleb128 .LBB66-.LBB66
 2925 002b 03       		.uleb128 .LBE66-.LBB66
 2926 002c 04       		.byte	0x4
 2927 002d 12       		.uleb128 .LBB69-.LBB66
 2928 002e 15       		.uleb128 .LBE69-.LBB66
 2929 002f 00       		.byte	0
 2930              	.LLRL4:
 2931 0030 05       		.byte	0x5
 2932 0031 12000000 		.long	.LBB101
 2933 0035 04       		.byte	0x4
 2934 0036 00       		.uleb128 .LBB101-.LBB101
 2935 0037 06       		.uleb128 .LBE101-.LBB101
 2936 0038 04       		.byte	0x4
 2937 0039 0C       		.uleb128 .LBB102-.LBB101
 2938 003a 0F       		.uleb128 .LBE102-.LBB101
 2939 003b 04       		.byte	0x4
 2940 003c 15       		.uleb128 .LBB103-.LBB101
 2941 003d 21       		.uleb128 .LBE103-.LBB101
 2942 003e 04       		.byte	0x4
 2943 003f 2E       		.uleb128 .LBB104-.LBB101
 2944 0040 52       		.uleb128 .LBE104-.LBB101
 2945 0041 00       		.byte	0
 2946              	.LLRL5:
 2947 0042 05       		.byte	0x5
 2948 0043 64000000 		.long	.LBB105
 2949 0047 04       		.byte	0x4
 2950 0048 00       		.uleb128 .LBB105-.LBB105
 2951 0049 C201     		.uleb128 .LBE105-.LBB105
 2952 004b 04       		.byte	0x4
 2953 004c C201     		.uleb128 .LBB114-.LBB105
 2954 004e C701     		.uleb128 .LBE114-.LBB105
 2955 0050 00       		.byte	0
 2956              	.LLRL7:
 2957 0051 05       		.byte	0x5
 2958 0052 76000000 		.long	.LBB108
 2959 0056 04       		.byte	0x4
 2960 0057 00       		.uleb128 .LBB108-.LBB108
 2961 0058 09       		.uleb128 .LBE108-.LBB108
 2962 0059 04       		.byte	0x4
 2963 005a 0F       		.uleb128 .LBB109-.LBB108
 2964 005b 5C       		.uleb128 .LBE109-.LBB108
 2965 005c 00       		.byte	0
 2966              	.LLRL9:
 2967 005d 05       		.byte	0x5
 2968 005e D2000000 		.long	.LBB110
 2969 0062 04       		.byte	0x4
 2970 0063 00       		.uleb128 .LBB110-.LBB110
GAS LISTING /tmp/ccfxSUQM.s 			page 54


 2971 0064 03       		.uleb128 .LBE110-.LBB110
 2972 0065 04       		.byte	0x4
 2973 0066 09       		.uleb128 .LBB111-.LBB110
 2974 0067 54       		.uleb128 .LBE111-.LBB110
 2975 0068 04       		.byte	0x4
 2976 0069 54       		.uleb128 .LBB112-.LBB110
 2977 006a 59       		.uleb128 .LBE112-.LBB110
 2978 006b 00       		.byte	0
 2979              	.LLRL11:
 2980 006c 07       		.byte	0x7
 2981 006d 00000000 		.long	.LFB303
 2982 0071 40       		.uleb128 .LFE303-.LFB303
 2983 0072 07       		.byte	0x7
 2984 0073 00000000 		.long	.LFB304
 2985 0077 AB02     		.uleb128 .LFE304-.LFB304
 2986 0079 00       		.byte	0
 2987              	.Ldebug_ranges3:
 2988              		.section	.debug_line,"",@progbits
 2989              	.Ldebug_line0:
 2990 0000 03020000 		.section	.debug_str,"MS",@progbits,1
 2990      05000400 
 2990      B2000000 
 2990      010101FB 
 2990      0E0D0001 
 2991              	.LASF136:
 2992 0000 63687465 		.string	"chtest"
 2992      737400
 2993              	.LASF107:
 2994 0007 72656164 		.string	"ready_list_t"
 2994      795F6C69 
 2994      73745F74 
 2994      00
 2995              	.LASF54:
 2996 0014 72666375 		.string	"rfcu"
 2996      00
 2997              	.LASF11:
 2998 0019 73697A65 		.string	"size_t"
 2998      5F7400
 2999              	.LASF78:
 3000 0020 64656C74 		.string	"delta"
 3000      6100
 3001              	.LASF95:
 3002 0026 7264796D 		.string	"rdymsg"
 3002      736700
 3003              	.LASF22:
 3004 002d 75696E74 		.string	"uint64_t"
 3004      36345F74 
 3004      00
 3005              	.LASF12:
 3006 0036 5F5F7569 		.string	"__uint8_t"
 3006      6E74385F 
 3006      7400
 3007              	.LASF72:
 3008 0040 70726576 		.string	"prev"
 3008      00
 3009              	.LASF80:
 3010 0045 706F7274 		.string	"port_intctx"
GAS LISTING /tmp/ccfxSUQM.s 			page 55


 3010      5F696E74 
 3010      63747800 
 3011              	.LASF64:
 3012 0051 73797374 		.string	"system_debug_t"
 3012      656D5F64 
 3012      65627567 
 3012      5F7400
 3013              	.LASF53:
 3014 0060 636F7265 		.string	"core_id"
 3014      5F696400 
 3015              	.LASF3:
 3016 0068 6C6F6E67 		.string	"long int"
 3016      20696E74 
 3016      00
 3017              	.LASF73:
 3018 0071 63685F70 		.string	"ch_priority_queue_t"
 3018      72696F72 
 3018      6974795F 
 3018      71756575 
 3018      655F7400 
 3019              	.LASF6:
 3020 0085 5F466C6F 		.string	"_Float128"
 3020      61743132 
 3020      3800
 3021              	.LASF17:
 3022 008f 6C6F6E67 		.string	"long long unsigned int"
 3022      206C6F6E 
 3022      6720756E 
 3022      7369676E 
 3022      65642069 
 3023              	.LASF40:
 3024 00a6 64697370 		.string	"dispose"
 3024      6F736500 
 3025              	.LASF96:
 3026 00ae 65786974 		.string	"exitcode"
 3026      636F6465 
 3026      00
 3027              	.LASF57:
 3028 00b7 6D61696E 		.string	"mainthread"
 3028      74687265 
 3028      616400
 3029              	.LASF99:
 3030 00c2 73656E74 		.string	"sentmsg"
 3030      6D736700 
 3031              	.LASF87:
 3032 00ca 76697274 		.string	"virtual_timers_list_t"
 3032      75616C5F 
 3032      74696D65 
 3032      72735F6C 
 3032      6973745F 
 3033              	.LASF69:
 3034 00e0 6E657874 		.string	"next"
 3034      00
 3035              	.LASF41:
 3036 00e5 6F626A65 		.string	"object"
 3036      637400
 3037              	.LASF131:
GAS LISTING /tmp/ccfxSUQM.s 			page 56


 3038 00ec 74656172 		.string	"teardown"
 3038      646F776E 
 3038      00
 3039              	.LASF37:
 3040 00f5 72656673 		.string	"refs"
 3040      00
 3041              	.LASF110:
 3042 00fa 63737461 		.string	"cstack_end"
 3042      636B5F65 
 3042      6E6400
 3043              	.LASF4:
 3044 0105 6C6F6E67 		.string	"long long int"
 3044      206C6F6E 
 3044      6720696E 
 3044      7400
 3045              	.LASF10:
 3046 0113 7369676E 		.string	"signed char"
 3046      65642063 
 3046      68617200 
 3047              	.LASF135:
 3048 011f 74657374 		.string	"testsequence_t"
 3048      73657175 
 3048      656E6365 
 3048      5F7400
 3049              	.LASF77:
 3050 012e 63685F64 		.string	"ch_delta_list"
 3050      656C7461 
 3050      5F6C6973 
 3050      7400
 3051              	.LASF51:
 3052 013c 76746C69 		.string	"vtlist"
 3052      737400
 3053              	.LASF43:
 3054 0143 6D736771 		.string	"msgqueue"
 3054      75657565 
 3054      00
 3055              	.LASF129:
 3056 014c 63685F74 		.string	"ch_test_context_t"
 3056      6573745F 
 3056      636F6E74 
 3056      6578745F 
 3056      7400
 3057              	.LASF35:
 3058 015e 73746174 		.string	"state"
 3058      6500
 3059              	.LASF144:
 3060 0164 73746B6C 		.string	"stkline_t"
 3060      696E655F 
 3060      7400
 3061              	.LASF122:
 3062 016e 676C6F62 		.string	"global_fail"
 3062      616C5F66 
 3062      61696C00 
 3063              	.LASF24:
 3064 017a 74737461 		.string	"tstate_t"
 3064      74655F74 
 3064      00
GAS LISTING /tmp/ccfxSUQM.s 			page 57


 3065              	.LASF59:
 3066 0183 63685F72 		.string	"ch_rfcu"
 3066      66637500 
 3067              	.LASF71:
 3068 018b 63685F71 		.string	"ch_queue"
 3068      75657565 
 3068      00
 3069              	.LASF127:
 3070 0194 70757463 		.string	"putchar"
 3070      68617200 
 3071              	.LASF13:
 3072 019c 73686F72 		.string	"short int"
 3072      7420696E 
 3072      7400
 3073              	.LASF89:
 3074 01a6 71756575 		.string	"queue"
 3074      6500
 3075              	.LASF76:
 3076 01ac 63685F64 		.string	"ch_delta_list_t"
 3076      656C7461 
 3076      5F6C6973 
 3076      745F7400 
 3077              	.LASF125:
 3078 01bc 746F6B70 		.string	"tokp"
 3078      00
 3079              	.LASF88:
 3080 01c1 63685F72 		.string	"ch_registry"
 3080      65676973 
 3080      74727900 
 3081              	.LASF109:
 3082 01cd 63737461 		.string	"cstack_base"
 3082      636B5F62 
 3082      61736500 
 3083              	.LASF150:
 3084 01d9 63685469 		.string	"chTimeIsInRangeX"
 3084      6D654973 
 3084      496E5261 
 3084      6E676558 
 3084      00
 3085              	.LASF15:
 3086 01ea 5F5F7569 		.string	"__uint32_t"
 3086      6E743332 
 3086      5F7400
 3087              	.LASF34:
 3088 01f5 7761656E 		.string	"waend"
 3088      6400
 3089              	.LASF42:
 3090 01fb 77616974 		.string	"waiting"
 3090      696E6700 
 3091              	.LASF111:
 3092 0203 69646C65 		.string	"idlestack_base"
 3092      73746163 
 3092      6B5F6261 
 3092      736500
 3093              	.LASF114:
 3094 0212 6D757465 		.string	"mutex_t"
 3094      785F7400 
GAS LISTING /tmp/ccfxSUQM.s 			page 58


 3095              	.LASF119:
 3096 021a 42617365 		.string	"BaseSequentialStream"
 3096      53657175 
 3096      656E7469 
 3096      616C5374 
 3096      7265616D 
 3097              	.LASF66:
 3098 022f 73797369 		.string	"sysinterval_t"
 3098      6E746572 
 3098      76616C5F 
 3098      7400
 3099              	.LASF29:
 3100 023d 636E745F 		.string	"cnt_t"
 3100      7400
 3101              	.LASF149:
 3102 0243 63685654 		.string	"chVTGetSystemTimeX"
 3102      47657453 
 3102      79737465 
 3102      6D54696D 
 3102      655800
 3103              	.LASF2:
 3104 0256 756E7369 		.string	"unsigned int"
 3104      676E6564 
 3104      20696E74 
 3104      00
 3105              	.LASF100:
 3106 0263 77747365 		.string	"wtsemp"
 3106      6D7000
 3107              	.LASF98:
 3108 026a 77747472 		.string	"wttrp"
 3108      7000
 3109              	.LASF39:
 3110 0270 72717565 		.string	"rqueue"
 3110      756500
 3111              	.LASF70:
 3112 0277 63685F71 		.string	"ch_queue_t"
 3112      75657565 
 3112      5F7400
 3113              	.LASF38:
 3114 0282 6E616D65 		.string	"name"
 3114      00
 3115              	.LASF92:
 3116 0287 74687265 		.string	"thread_dispose_t"
 3116      61645F64 
 3116      6973706F 
 3116      73655F74 
 3116      00
 3117              	.LASF8:
 3118 0298 73686F72 		.string	"short unsigned int"
 3118      7420756E 
 3118      7369676E 
 3118      65642069 
 3118      6E7400
 3119              	.LASF67:
 3120 02ab 63685F6C 		.string	"ch_list_t"
 3120      6973745F 
 3120      7400
GAS LISTING /tmp/ccfxSUQM.s 			page 59


 3121              	.LASF48:
 3122 02b5 63685F74 		.string	"ch_thread"
 3122      68726561 
 3122      6400
 3123              	.LASF138:
 3124 02bf 72745F74 		.string	"rt_test_003_001"
 3124      6573745F 
 3124      3030335F 
 3124      30303100 
 3125              	.LASF139:
 3126 02cf 72745F74 		.string	"rt_test_003_002"
 3126      6573745F 
 3126      3030335F 
 3126      30303200 
 3127              	.LASF27:
 3128 02df 6D73675F 		.string	"msg_t"
 3128      7400
 3129              	.LASF44:
 3130 02e5 6570656E 		.string	"epending"
 3130      64696E67 
 3130      00
 3131              	.LASF23:
 3132 02ee 746D6F64 		.string	"tmode_t"
 3132      655F7400 
 3133              	.LASF85:
 3134 02f6 73797374 		.string	"systime"
 3134      696D6500 
 3135              	.LASF68:
 3136 02fe 63685F6C 		.string	"ch_list"
 3136      69737400 
 3137              	.LASF105:
 3138 0306 63685F72 		.string	"ch_ready_list"
 3138      65616479 
 3138      5F6C6973 
 3138      7400
 3139              	.LASF28:
 3140 0314 6576656E 		.string	"eventmask_t"
 3140      746D6173 
 3140      6B5F7400 
 3141              	.LASF133:
 3142 0320 74657374 		.string	"testcase_t"
 3142      63617365 
 3142      5F7400
 3143              	.LASF86:
 3144 032b 6C617374 		.string	"laststamp"
 3144      7374616D 
 3144      7000
 3145              	.LASF117:
 3146 0335 77726974 		.string	"write"
 3146      6500
 3147              	.LASF46:
 3148 033b 7265616C 		.string	"realprio"
 3148      7072696F 
 3148      00
 3149              	.LASF143:
 3150 0344 474E5520 		.string	"GNU C17 11.4.0 -m32 -mtune=generic -march=i686 -ggdb -O2 -ffunction-sections -fdata-secti
 3150      43313720 
GAS LISTING /tmp/ccfxSUQM.s 			page 60


 3150      31312E34 
 3150      2E30202D 
 3150      6D333220 
 3151              	.LASF58:
 3152 03fc 72666375 		.string	"rfcu_mask_t"
 3152      5F6D6173 
 3152      6B5F7400 
 3153              	.LASF120:
 3154 0408 74657374 		.string	"test_putchar_t"
 3154      5F707574 
 3154      63686172 
 3154      5F7400
 3155              	.LASF91:
 3156 0417 74687265 		.string	"thread_reference_t"
 3156      61645F72 
 3156      65666572 
 3156      656E6365 
 3156      5F7400
 3157              	.LASF83:
 3158 042a 63685F76 		.string	"ch_virtual_timers_list"
 3158      69727475 
 3158      616C5F74 
 3158      696D6572 
 3158      735F6C69 
 3159              	.LASF5:
 3160 0441 6C6F6E67 		.string	"long double"
 3160      20646F75 
 3160      626C6500 
 3161              	.LASF126:
 3162 044d 746F6B65 		.string	"tokens_buffer"
 3162      6E735F62 
 3162      75666665 
 3162      7200
 3163              	.LASF148:
 3164 045b 72745F74 		.string	"rt_test_003_001_execute"
 3164      6573745F 
 3164      3030335F 
 3164      3030315F 
 3164      65786563 
 3165              	.LASF121:
 3166 0473 63757272 		.string	"current_step"
 3166      656E745F 
 3166      73746570 
 3166      00
 3167              	.LASF108:
 3168 0480 63685F6F 		.string	"ch_os_instance_config"
 3168      735F696E 
 3168      7374616E 
 3168      63655F63 
 3168      6F6E6669 
 3169              	.LASF81:
 3170 0496 706F7274 		.string	"port_context"
 3170      5F636F6E 
 3170      74657874 
 3170      00
 3171              	.LASF130:
 3172 04a3 73657475 		.string	"setup"
GAS LISTING /tmp/ccfxSUQM.s 			page 61


 3172      7000
 3173              	.LASF141:
 3174 04a9 74696D65 		.string	"time"
 3174      00
 3175              	.LASF75:
 3176 04ae 7072696F 		.string	"prio"
 3176      00
 3177              	.LASF112:
 3178 04b3 69646C65 		.string	"idlestack_end"
 3178      73746163 
 3178      6B5F656E 
 3178      6400
 3179              	.LASF106:
 3180 04c1 63757272 		.string	"current"
 3180      656E7400 
 3181              	.LASF123:
 3182 04c9 6C6F6361 		.string	"local_fail"
 3182      6C5F6661 
 3182      696C00
 3183              	.LASF16:
 3184 04d4 5F5F7569 		.string	"__uint64_t"
 3184      6E743634 
 3184      5F7400
 3185              	.LASF30:
 3186 04df 636F7265 		.string	"core_id_t"
 3186      5F69645F 
 3186      7400
 3187              	.LASF25:
 3188 04e9 74726566 		.string	"trefs_t"
 3188      735F7400 
 3189              	.LASF132:
 3190 04f1 65786563 		.string	"execute"
 3190      75746500 
 3191              	.LASF45:
 3192 04f9 6D74786C 		.string	"mtxlist"
 3192      69737400 
 3193              	.LASF26:
 3194 0501 74707269 		.string	"tprio_t"
 3194      6F5F7400 
 3195              	.LASF128:
 3196 0509 73747265 		.string	"stream"
 3196      616D00
 3197              	.LASF62:
 3198 0510 63685F73 		.string	"ch_system_debug"
 3198      79737465 
 3198      6D5F6465 
 3198      62756700 
 3199              	.LASF82:
 3200 0520 5F426F6F 		.string	"_Bool"
 3200      6C00
 3201              	.LASF19:
 3202 0526 696E7433 		.string	"int32_t"
 3202      325F7400 
 3203              	.LASF7:
 3204 052e 756E7369 		.string	"unsigned char"
 3204      676E6564 
 3204      20636861 
GAS LISTING /tmp/ccfxSUQM.s 			page 62


 3204      7200
 3205              	.LASF61:
 3206 053c 72666375 		.string	"rfcu_t"
 3206      5F7400
 3207              	.LASF146:
 3208 0543 5F5F7465 		.string	"__test_assert"
 3208      73745F61 
 3208      73736572 
 3208      7400
 3209              	.LASF147:
 3210 0551 72745F74 		.string	"rt_test_003_002_execute"
 3210      6573745F 
 3210      3030335F 
 3210      3030325F 
 3210      65786563 
 3211              	.LASF102:
 3212 0569 65776D61 		.string	"ewmask"
 3212      736B00
 3213              	.LASF115:
 3214 0570 42617365 		.string	"BaseSequentialStreamVMT"
 3214      53657175 
 3214      656E7469 
 3214      616C5374 
 3214      7265616D 
 3215              	.LASF103:
 3216 0588 63685F73 		.string	"ch_semaphore"
 3216      656D6170 
 3216      686F7265 
 3216      00
 3217              	.LASF90:
 3218 0595 72656769 		.string	"registry_t"
 3218      73747279 
 3218      5F7400
 3219              	.LASF145:
 3220 05a0 5F73696D 		.string	"_sim_check_for_interrupts"
 3220      5F636865 
 3220      636B5F66 
 3220      6F725F69 
 3220      6E746572 
 3221              	.LASF101:
 3222 05ba 77746D74 		.string	"wtmtxp"
 3222      787000
 3223              	.LASF32:
 3224 05c1 6F776E65 		.string	"owner"
 3224      7200
 3225              	.LASF9:
 3226 05c7 6C6F6E67 		.string	"long unsigned int"
 3226      20756E73 
 3226      69676E65 
 3226      6420696E 
 3226      7400
 3227              	.LASF33:
 3228 05d9 77616261 		.string	"wabase"
 3228      736500
 3229              	.LASF118:
 3230 05e0 72656164 		.string	"read"
 3230      00
GAS LISTING /tmp/ccfxSUQM.s 			page 63


 3231              	.LASF18:
 3232 05e5 63686172 		.string	"char"
 3232      00
 3233              	.LASF55:
 3234 05ea 636F6E66 		.string	"config"
 3234      696700
 3235              	.LASF31:
 3236 05f1 74687265 		.string	"thread_t"
 3236      61645F74 
 3236      00
 3237              	.LASF84:
 3238 05fa 646C6973 		.string	"dlist"
 3238      7400
 3239              	.LASF65:
 3240 0600 73797374 		.string	"systime_t"
 3240      696D655F 
 3240      7400
 3241              	.LASF79:
 3242 060a 72656778 		.string	"regx86"
 3242      383600
 3243              	.LASF14:
 3244 0611 5F5F696E 		.string	"__int32_t"
 3244      7433325F 
 3244      7400
 3245              	.LASF63:
 3246 061b 70616E69 		.string	"panic_msg"
 3246      635F6D73 
 3246      6700
 3247              	.LASF94:
 3248 0625 70717565 		.string	"pqueue"
 3248      756500
 3249              	.LASF49:
 3250 062c 63685F6F 		.string	"ch_os_instance"
 3250      735F696E 
 3250      7374616E 
 3250      636500
 3251              	.LASF47:
 3252 063b 6F735F69 		.string	"os_instance_t"
 3252      6E737461 
 3252      6E63655F 
 3252      7400
 3253              	.LASF52:
 3254 0649 7265676C 		.string	"reglist"
 3254      69737400 
 3255              	.LASF74:
 3256 0651 63685F70 		.string	"ch_priority_queue"
 3256      72696F72 
 3256      6974795F 
 3256      71756575 
 3256      6500
 3257              	.LASF21:
 3258 0663 75696E74 		.string	"uint32_t"
 3258      33325F74 
 3258      00
 3259              	.LASF137:
 3260 066c 72745F74 		.string	"rt_test_sequence_003"
 3260      6573745F 
GAS LISTING /tmp/ccfxSUQM.s 			page 64


 3260      73657175 
 3260      656E6365 
 3260      5F303033 
 3261              	.LASF113:
 3262 0681 6F735F69 		.string	"os_instance_config_t"
 3262      6E737461 
 3262      6E63655F 
 3262      636F6E66 
 3262      69675F74 
 3263              	.LASF104:
 3264 0696 63685F6D 		.string	"ch_mutex"
 3264      75746578 
 3264      00
 3265              	.LASF60:
 3266 069f 6D61736B 		.string	"mask"
 3266      00
 3267              	.LASF50:
 3268 06a4 726C6973 		.string	"rlist"
 3268      7400
 3269              	.LASF20:
 3270 06aa 75696E74 		.string	"uint8_t"
 3270      385F7400 
 3271              	.LASF36:
 3272 06b2 666C6167 		.string	"flags"
 3272      7300
 3273              	.LASF97:
 3274 06b8 77746F62 		.string	"wtobjp"
 3274      6A7000
 3275              	.LASF140:
 3276 06bf 72745F74 		.string	"rt_test_sequence_003_array"
 3276      6573745F 
 3276      73657175 
 3276      656E6365 
 3276      5F303033 
 3277              	.LASF142:
 3278 06da 73746172 		.string	"start"
 3278      7400
 3279              	.LASF116:
 3280 06e0 696E7374 		.string	"instance_offset"
 3280      616E6365 
 3280      5F6F6666 
 3280      73657400 
 3281              	.LASF93:
 3282 06f0 6C697374 		.string	"list"
 3282      00
 3283              	.LASF124:
 3284 06f5 6661696C 		.string	"failure_message"
 3284      7572655F 
 3284      6D657373 
 3284      61676500 
 3285              	.LASF134:
 3286 0705 63617365 		.string	"cases"
 3286      7300
 3287              	.LASF56:
 3288 070b 69646C65 		.string	"idlethread"
 3288      74687265 
 3288      616400
GAS LISTING /tmp/ccfxSUQM.s 			page 65


 3289              		.section	.debug_line_str,"MS",@progbits,1
 3290              	.LASF0:
 3291 0000 2E2E2F2E 		.string	"../../../test/rt/source/test/rt_test_sequence_003.c"
 3291      2E2F2E2E 
 3291      2F746573 
 3291      742F7274 
 3291      2F736F75 
 3292              	.LASF1:
 3293 0034 2F686F6D 		.string	"/home/alex/ChibiOS/demos/various/LAB3_VARIANT2"
 3293      652F616C 
 3293      65782F43 
 3293      68696269 
 3293      4F532F64 
 3294              		.ident	"GCC: (Ubuntu 11.4.0-1ubuntu1~22.04) 11.4.0"
 3295 0063 2F686F6D 		.section	.note.GNU-stack,"",@progbits
 3295      652F616C 
 3295      65782F43 
 3295      68696269 
 3295      4F532F64 
GAS LISTING /tmp/ccfxSUQM.s 			page 66


DEFINED SYMBOLS
                            *ABS*:0000000000000000 rt_test_sequence_003.c
     /tmp/ccfxSUQM.s:8      .text.rt_test_003_001_execute:0000000000000000 rt_test_003_001_execute
     /tmp/ccfxSUQM.s:456    .text.__x86.get_pc_thunk.bx:0000000000000000 __x86.get_pc_thunk.bx
     /tmp/ccfxSUQM.s:111    .text.rt_test_003_002_execute:0000000000000000 rt_test_003_002_execute
     /tmp/ccfxSUQM.s:415    .data.rel.ro.local.rt_test_sequence_003:0000000000000000 rt_test_sequence_003
     /tmp/ccfxSUQM.s:423    .data.rel.ro.local.rt_test_sequence_003_array:0000000000000000 rt_test_sequence_003_array
     /tmp/ccfxSUQM.s:447    .data.rel.ro.local.rt_test_003_001:0000000000000000 rt_test_003_001
     /tmp/ccfxSUQM.s:434    .data.rel.ro.local.rt_test_003_002:0000000000000000 rt_test_003_002
     /tmp/ccfxSUQM.s:104    .rodata.rt_test_003_002_execute.str1.1:0000000000000000 .LC0
     /tmp/ccfxSUQM.s:106    .rodata.rt_test_003_002_execute.str1.1:0000000000000009 .LC1

UNDEFINED SYMBOLS
_GLOBAL_OFFSET_TABLE_
chtest
ch0
_sim_check_for_interrupts
__test_assert
