GAS LISTING /tmp/ccOavTgz.s 			page 1


   1              		.file	"shell.c"
   2              		.text
   3              	.Ltext0:
   4              		.file 0 "/home/alex/ChibiOS/demos/various/LAB3_VARIANT2" "../../../os/various/shell/shell.c"
   5              		.section	.rodata.parse_arguments.str1.1,"aMS",@progbits,1
   6              	.LC0:
   7 0000 200900   		.string	" \t"
   8              		.section	.text.parse_arguments,"ax",@progbits
   9              		.p2align 4
  10              		.type	parse_arguments, @function
  11              	parse_arguments:
  12              	.LVL0:
  13              	.LFB311:
  14              		.file 1 "../../../os/various/shell/shell.c"
  15              		.loc 1 60 57 view -0
  16              		.cfi_startproc
  17              		.loc 1 61 3 view .LVU1
  18              		.loc 1 63 3 view .LVU2
  19              		.loc 1 60 57 is_stmt 0 view .LVU3
  20 0000 55       		pushl	%ebp
  21              		.cfi_def_cfa_offset 8
  22              		.cfi_offset 5, -8
  23 0001 57       		pushl	%edi
  24              		.cfi_def_cfa_offset 12
  25              		.cfi_offset 7, -12
  26 0002 89D7     		movl	%edx, %edi
  27 0004 56       		pushl	%esi
  28              		.cfi_def_cfa_offset 16
  29              		.cfi_offset 6, -16
  30 0005 53       		pushl	%ebx
  31              		.cfi_def_cfa_offset 20
  32              		.cfi_offset 3, -20
  33 0006 E8FCFFFF 		call	__x86.get_pc_thunk.bx
  33      FF
  34 000b 81C30200 		addl	$_GLOBAL_OFFSET_TABLE_, %ebx
  34      0000
  35 0011 83EC0C   		subl	$12, %esp
  36              		.cfi_def_cfa_offset 32
  37              		.loc 1 63 6 view .LVU4
  38 0014 85C0     		testl	%eax, %eax
  39 0016 7448     		je	.L2
  40              		.loc 1 64 14 view .LVU5
  41 0018 8907     		movl	%eax, (%edi)
  42 001a 89C6     		movl	%eax, %esi
  43              		.loc 1 64 5 is_stmt 1 view .LVU6
  44              		.loc 1 66 3 view .LVU7
  45              	.LVL1:
  46              		.loc 1 67 3 view .LVU8
  47              	.L3:
  48              		.loc 1 72 3 view .LVU9
  49              		.loc 1 72 8 is_stmt 0 view .LVU10
  50 001c 83EC08   		subl	$8, %esp
  51              		.cfi_def_cfa_offset 40
  52 001f 8DAB0000 		leal	.LC0@GOTOFF(%ebx), %ebp
  52      0000
  53 0025 55       		pushl	%ebp
  54              		.cfi_def_cfa_offset 44
GAS LISTING /tmp/ccOavTgz.s 			page 2


  55 0026 56       		pushl	%esi
  56              		.cfi_def_cfa_offset 48
  57 0027 E8FCFFFF 		call	strspn@PLT
  57      FF
  58              	.LVL2:
  59              		.loc 1 72 8 view .LVU11
  60 002c 83C410   		addl	$16, %esp
  61              		.cfi_def_cfa_offset 32
  62              		.loc 1 72 5 view .LVU12
  63 002f 01C6     		addl	%eax, %esi
  64              	.LVL3:
  65              		.loc 1 74 3 is_stmt 1 view .LVU13
  66              		.loc 1 74 6 is_stmt 0 view .LVU14
  67 0031 803E22   		cmpb	$34, (%esi)
  68 0034 7442     		je	.L12
  69              		.loc 1 82 5 is_stmt 1 view .LVU15
  70              		.loc 1 82 16 is_stmt 0 view .LVU16
  71 0036 83EC08   		subl	$8, %esp
  72              		.cfi_def_cfa_offset 40
  73 0039 55       		pushl	%ebp
  74              		.cfi_def_cfa_offset 44
  75 003a 56       		pushl	%esi
  76              		.cfi_def_cfa_offset 48
  77 003b E8FCFFFF 		call	strpbrk@PLT
  77      FF
  78              	.LVL4:
  79 0040 83C410   		addl	$16, %esp
  80              		.cfi_def_cfa_offset 32
  81              		.loc 1 86 3 is_stmt 1 view .LVU17
  82              		.loc 1 86 6 is_stmt 0 view .LVU18
  83 0043 85C0     		testl	%eax, %eax
  84 0045 7446     		je	.L13
  85              	.L7:
  86              		.loc 1 87 5 is_stmt 1 view .LVU19
  87              		.loc 1 87 16 is_stmt 0 view .LVU20
  88 0047 8D5001   		leal	1(%eax), %edx
  89 004a 8917     		movl	%edx, (%edi)
  90              		.loc 1 87 19 view .LVU21
  91 004c C60000   		movb	$0, (%eax)
  92              	.L8:
  93              		.loc 1 90 3 is_stmt 1 view .LVU22
  94              		.loc 1 90 25 is_stmt 0 view .LVU23
  95 004f 803E00   		cmpb	$0, (%esi)
  96 0052 7412     		je	.L9
  97              		.loc 1 91 1 view .LVU24
  98 0054 83C40C   		addl	$12, %esp
  99              		.cfi_remember_state
 100              		.cfi_def_cfa_offset 20
 101 0057 89F0     		movl	%esi, %eax
 102 0059 5B       		popl	%ebx
 103              		.cfi_restore 3
 104              		.cfi_def_cfa_offset 16
 105 005a 5E       		popl	%esi
 106              		.cfi_restore 6
 107              		.cfi_def_cfa_offset 12
 108              	.LVL5:
 109              		.loc 1 91 1 view .LVU25
GAS LISTING /tmp/ccOavTgz.s 			page 3


 110 005b 5F       		popl	%edi
 111              		.cfi_restore 7
 112              		.cfi_def_cfa_offset 8
 113              	.LVL6:
 114              		.loc 1 91 1 view .LVU26
 115 005c 5D       		popl	%ebp
 116              		.cfi_restore 5
 117              		.cfi_def_cfa_offset 4
 118 005d C3       		ret
 119              	.LVL7:
 120 005e 6690     		.p2align 4,,10
 121              		.p2align 3
 122              	.L2:
 123              		.cfi_restore_state
 124              		.loc 1 66 3 is_stmt 1 view .LVU27
 125              		.loc 1 66 5 is_stmt 0 view .LVU28
 126 0060 8B32     		movl	(%edx), %esi
 127              	.LVL8:
 128              		.loc 1 67 3 is_stmt 1 view .LVU29
 129              		.loc 1 67 6 is_stmt 0 view .LVU30
 130 0062 85F6     		testl	%esi, %esi
 131 0064 75B6     		jne	.L3
 132              	.LVL9:
 133              	.L9:
 134              		.loc 1 91 1 view .LVU31
 135 0066 83C40C   		addl	$12, %esp
 136              		.cfi_remember_state
 137              		.cfi_def_cfa_offset 20
 138              		.loc 1 68 12 view .LVU32
 139 0069 31F6     		xorl	%esi, %esi
 140              	.LVL10:
 141              		.loc 1 91 1 view .LVU33
 142 006b 5B       		popl	%ebx
 143              		.cfi_restore 3
 144              		.cfi_def_cfa_offset 16
 145 006c 89F0     		movl	%esi, %eax
 146 006e 5E       		popl	%esi
 147              		.cfi_restore 6
 148              		.cfi_def_cfa_offset 12
 149 006f 5F       		popl	%edi
 150              		.cfi_restore 7
 151              		.cfi_def_cfa_offset 8
 152              	.LVL11:
 153              		.loc 1 91 1 view .LVU34
 154 0070 5D       		popl	%ebp
 155              		.cfi_restore 5
 156              		.cfi_def_cfa_offset 4
 157 0071 C3       		ret
 158              	.LVL12:
 159              		.p2align 4,,10
 160 0072 8DB60000 		.p2align 3
 160      0000
 161              	.L12:
 162              		.cfi_restore_state
 163              		.loc 1 77 5 is_stmt 1 view .LVU35
 164              		.loc 1 78 16 is_stmt 0 view .LVU36
 165 0078 83EC08   		subl	$8, %esp
GAS LISTING /tmp/ccOavTgz.s 			page 4


 166              		.cfi_def_cfa_offset 40
 167              		.loc 1 77 6 view .LVU37
 168 007b 83C601   		addl	$1, %esi
 169              	.LVL13:
 170              		.loc 1 78 5 is_stmt 1 view .LVU38
 171              		.loc 1 78 16 is_stmt 0 view .LVU39
 172 007e 6A22     		pushl	$34
 173              		.cfi_def_cfa_offset 44
 174 0080 56       		pushl	%esi
 175              		.cfi_def_cfa_offset 48
 176 0081 E8FCFFFF 		call	strchr@PLT
 176      FF
 177              	.LVL14:
 178 0086 83C410   		addl	$16, %esp
 179              		.cfi_def_cfa_offset 32
 180              		.loc 1 86 3 is_stmt 1 view .LVU40
 181              		.loc 1 86 6 is_stmt 0 view .LVU41
 182 0089 85C0     		testl	%eax, %eax
 183 008b 75BA     		jne	.L7
 184              	.L13:
 185              		.loc 1 86 6 view .LVU42
 186 008d C7070000 		movl	$0, (%edi)
 186      0000
 187 0093 EBBA     		jmp	.L8
 188              		.cfi_endproc
 189              	.LFE311:
 190              		.size	parse_arguments, .-parse_arguments
 191              		.section	.text.shellInit,"ax",@progbits
 192              		.p2align 4
 193              		.globl	shellInit
 194              		.type	shellInit, @function
 195              	shellInit:
 196              	.LFB315:
 197              		.loc 1 422 22 is_stmt 1 view -0
 198              		.cfi_startproc
 199              		.loc 1 425 3 view .LVU44
 200              		.loc 1 422 22 is_stmt 0 view .LVU45
 201 0000 53       		pushl	%ebx
 202              		.cfi_def_cfa_offset 8
 203              		.cfi_offset 3, -8
 204 0001 E8FCFFFF 		call	__x86.get_pc_thunk.bx
 204      FF
 205 0006 81C30200 		addl	$_GLOBAL_OFFSET_TABLE_, %ebx
 205      0000
 206 000c 83EC14   		subl	$20, %esp
 207              		.cfi_def_cfa_offset 28
 208              		.loc 1 425 3 view .LVU46
 209 000f 8D830000 		leal	shell_terminated@GOTOFF(%ebx), %eax
 209      0000
 210 0015 50       		pushl	%eax
 211              		.cfi_def_cfa_offset 32
 212 0016 E8FCFFFF 		call	chEvtObjectInit@PLT
 212      FF
 213              	.LVL15:
 214              		.loc 1 427 1 view .LVU47
 215 001b 83C418   		addl	$24, %esp
 216              		.cfi_def_cfa_offset 8
GAS LISTING /tmp/ccOavTgz.s 			page 5


 217 001e 5B       		popl	%ebx
 218              		.cfi_restore 3
 219              		.cfi_def_cfa_offset 4
 220 001f C3       		ret
 221              		.cfi_endproc
 222              	.LFE315:
 223              		.size	shellInit, .-shellInit
 224              		.section	.text.shellExit,"ax",@progbits
 225              		.p2align 4
 226              		.globl	shellExit
 227              		.type	shellExit, @function
 228              	shellExit:
 229              	.LVL16:
 230              	.LFB316:
 231              		.loc 1 439 27 is_stmt 1 view -0
 232              		.cfi_startproc
 233              		.loc 1 443 3 view .LVU49
 234              	.LBB23:
 235              	.LBI23:
 236              		.file 2 "../../../os/rt/include/chsys.h"
 237              		.loc 2 407 20 view .LVU50
 238              		.loc 2 409 3 view .LVU51
 239              	.LBB24:
 240              	.LBI24:
 241              		.file 3 "../../../os/common/ports/SIMIA32/chcore.h"
 242              		.loc 3 361 20 view .LVU52
 243              	.LBB25:
 244              		.loc 3 363 3 view .LVU53
 245              	.LBE25:
 246              	.LBE24:
 247              	.LBE23:
 248              		.loc 1 439 27 is_stmt 0 view .LVU54
 249 0000 53       		pushl	%ebx
 250              		.cfi_def_cfa_offset 8
 251              		.cfi_offset 3, -8
 252 0001 E8FCFFFF 		call	__x86.get_pc_thunk.bx
 252      FF
 253 0006 81C30200 		addl	$_GLOBAL_OFFSET_TABLE_, %ebx
 253      0000
 254 000c 83EC10   		subl	$16, %esp
 255              		.cfi_def_cfa_offset 24
 256              	.LBB28:
 257              	.LBB27:
 258              	.LBB26:
 259              		.loc 3 363 16 view .LVU55
 260 000f 8B830000 		movl	port_irq_sts@GOT(%ebx), %eax
 260      0000
 261 0015 C7000100 		movl	$1, (%eax)
 261      0000
 262              	.LBE26:
 263              	.LBE27:
 264              		.loc 2 410 35 is_stmt 1 view .LVU56
 265              		.loc 2 411 21 view .LVU57
 266              	.LBE28:
 267              		.loc 1 444 3 view .LVU58
 268              	.LVL17:
 269              	.LBB29:
GAS LISTING /tmp/ccOavTgz.s 			page 6


 270              	.LBI29:
 271              		.file 4 "../../../os/rt/include/chevents.h"
 272              		.loc 4 250 20 view .LVU59
 273              	.LBB30:
 274              		.loc 4 252 3 view .LVU60
 275 001b 8D830000 		leal	shell_terminated@GOTOFF(%ebx), %eax
 275      0000
 276 0021 6A00     		pushl	$0
 277              		.cfi_def_cfa_offset 28
 278 0023 50       		pushl	%eax
 279              		.cfi_def_cfa_offset 32
 280 0024 E8FCFFFF 		call	chEvtBroadcastFlagsI@PLT
 280      FF
 281              	.LVL18:
 282              		.loc 4 252 3 is_stmt 0 view .LVU61
 283              	.LBE30:
 284              	.LBE29:
 285              		.loc 1 445 3 is_stmt 1 view .LVU62
 286 0029 58       		popl	%eax
 287              		.cfi_def_cfa_offset 28
 288 002a FF74241C 		pushl	28(%esp)
 289              		.cfi_def_cfa_offset 32
 290 002e E8FCFFFF 		call	chThdExitS@PLT
 290      FF
 291              	.LVL19:
 292              		.loc 1 446 1 is_stmt 0 view .LVU63
 293 0033 83C418   		addl	$24, %esp
 294              		.cfi_def_cfa_offset 8
 295 0036 5B       		popl	%ebx
 296              		.cfi_restore 3
 297              		.cfi_def_cfa_offset 4
 298 0037 C3       		ret
 299              		.cfi_endproc
 300              	.LFE316:
 301              		.size	shellExit, .-shellExit
 302              		.section	.rodata.shellGetLine.str1.1,"aMS",@progbits,1
 303              	.LC1:
 304 0000 5E4400   		.string	"^D"
 305              	.LC2:
 306 0003 0D0A00   		.string	"\r\n"
 307              		.section	.text.shellGetLine,"ax",@progbits
 308              		.p2align 4
 309              		.globl	shellGetLine
 310              		.type	shellGetLine, @function
 311              	shellGetLine:
 312              	.LVL20:
 313              	.LFB317:
 314              		.loc 1 469 84 is_stmt 1 view -0
 315              		.cfi_startproc
 316              		.loc 1 469 84 is_stmt 0 view .LVU65
 317 0000 E8FCFFFF 		call	__x86.get_pc_thunk.ax
 317      FF
 318 0005 05010000 		addl	$_GLOBAL_OFFSET_TABLE_, %eax
 318      00
 319 000a 55       		pushl	%ebp
 320              		.cfi_def_cfa_offset 8
 321              		.cfi_offset 5, -8
GAS LISTING /tmp/ccOavTgz.s 			page 7


 322 000b 57       		pushl	%edi
 323              		.cfi_def_cfa_offset 12
 324              		.cfi_offset 7, -12
 325 000c 56       		pushl	%esi
 326              		.cfi_def_cfa_offset 16
 327              		.cfi_offset 6, -16
 328 000d 53       		pushl	%ebx
 329              		.cfi_def_cfa_offset 20
 330              		.cfi_offset 3, -20
 331 000e 83EC2C   		subl	$44, %esp
 332              		.cfi_def_cfa_offset 64
 333 0011 8944240C 		movl	%eax, 12(%esp)
 334              		.loc 1 469 84 view .LVU66
 335 0015 8B7C2444 		movl	68(%esp), %edi
 336 0019 8D5C241B 		leal	27(%esp), %ebx
 337              		.loc 1 471 25 view .LVU67
 338 001d 89FE     		movl	%edi, %esi
 339 001f 65A11400 		movl	%gs:20, %eax
 339      0000
 340 0025 8944241C 		movl	%eax, 28(%esp)
 341 0029 8B442440 		movl	64(%esp), %eax
 342 002d 8B28     		movl	(%eax), %ebp
 343              	.LVL21:
 344              	.LBB31:
 345              		.loc 1 598 25 view .LVU68
 346 002f 8B442448 		movl	72(%esp), %eax
 347 0033 8D4407FF 		leal	-1(%edi,%eax), %eax
 348 0037 89442408 		movl	%eax, 8(%esp)
 349 003b 8D742600 		.p2align 4,,10
 349      90
 350              		.p2align 3
 351              	.L19:
 352              	.LVL22:
 353              		.loc 1 598 25 view .LVU69
 354              	.LBE31:
 355              		.loc 1 478 3 is_stmt 1 view .LVU70
 356              		.loc 1 481 3 view .LVU71
 357              	.LBB32:
 358              		.loc 1 482 5 view .LVU72
 359              		.loc 1 484 5 view .LVU73
 360              		.loc 1 484 9 is_stmt 0 view .LVU74
 361 0040 83EC04   		subl	$4, %esp
 362              		.cfi_def_cfa_offset 68
 363 0043 8B4500   		movl	0(%ebp), %eax
 364 0046 6A01     		pushl	$1
 365              		.cfi_def_cfa_offset 72
 366 0048 53       		pushl	%ebx
 367              		.cfi_def_cfa_offset 76
 368 0049 55       		pushl	%ebp
 369              		.cfi_def_cfa_offset 80
 370 004a FF5008   		call	*8(%eax)
 371              	.LVL23:
 372              		.loc 1 484 8 view .LVU75
 373 004d 83C410   		addl	$16, %esp
 374              		.cfi_def_cfa_offset 64
 375 0050 85C0     		testl	%eax, %eax
 376 0052 0F848000 		je	.L28
GAS LISTING /tmp/ccOavTgz.s 			page 8


 376      0000
 377              		.loc 1 532 5 is_stmt 1 view .LVU76
 378              		.loc 1 532 11 is_stmt 0 view .LVU77
 379 0058 0FBE4424 		movsbl	27(%esp), %eax
 379      1B
 380              		.loc 1 532 8 view .LVU78
 381 005d 3C04     		cmpb	$4, %al
 382 005f 0F849300 		je	.L31
 382      0000
 383              		.loc 1 537 5 is_stmt 1 view .LVU79
 384              		.loc 1 537 18 is_stmt 0 view .LVU80
 385 0065 3C08     		cmpb	$8, %al
 386 0067 0F94C2   		sete	%dl
 387 006a 3C7F     		cmpb	$127, %al
 388 006c 0F94C1   		sete	%cl
 389              		.loc 1 537 8 view .LVU81
 390 006f 08CA     		orb	%cl, %dl
 391 0071 752D     		jne	.L32
 392              		.loc 1 546 5 is_stmt 1 view .LVU82
 393              		.loc 1 546 8 is_stmt 0 view .LVU83
 394 0073 3C0D     		cmpb	$13, %al
 395 0075 0F84A500 		je	.L33
 395      0000
 396              		.loc 1 596 5 is_stmt 1 view .LVU84
 397              		.loc 1 596 8 is_stmt 0 view .LVU85
 398 007b 3C1F     		cmpb	$31, %al
 399 007d 7EC1     		jle	.L19
 400              		.loc 1 598 5 is_stmt 1 view .LVU86
 401              		.loc 1 598 8 is_stmt 0 view .LVU87
 402 007f 3B742408 		cmpl	8(%esp), %esi
 403 0083 73BB     		jnb	.L19
 404              		.loc 1 599 7 is_stmt 1 view .LVU88
 405 0085 83EC08   		subl	$8, %esp
 406              		.cfi_def_cfa_offset 72
 407 0088 8B5500   		movl	0(%ebp), %edx
 408              		.loc 1 600 9 is_stmt 0 view .LVU89
 409 008b 83C601   		addl	$1, %esi
 410              	.LVL24:
 411              		.loc 1 599 7 view .LVU90
 412 008e 50       		pushl	%eax
 413              		.cfi_def_cfa_offset 76
 414 008f 55       		pushl	%ebp
 415              		.cfi_def_cfa_offset 80
 416 0090 FF520C   		call	*12(%edx)
 417              	.LVL25:
 418              		.loc 1 600 7 is_stmt 1 view .LVU91
 419              		.loc 1 600 12 is_stmt 0 view .LVU92
 420 0093 0FB64424 		movzbl	43(%esp), %eax
 420      2B
 421 0098 83C410   		addl	$16, %esp
 422              		.cfi_def_cfa_offset 64
 423 009b 8846FF   		movb	%al, -1(%esi)
 424              		.loc 1 600 12 view .LVU93
 425 009e EBA0     		jmp	.L19
 426              	.LVL26:
 427              		.p2align 4,,10
 428              		.p2align 3
GAS LISTING /tmp/ccOavTgz.s 			page 9


 429              	.L32:
 430              		.loc 1 538 7 is_stmt 1 view .LVU94
 431              		.loc 1 538 10 is_stmt 0 view .LVU95
 432 00a0 39FE     		cmpl	%edi, %esi
 433 00a2 749C     		je	.L19
 434              		.loc 1 539 9 is_stmt 1 view .LVU96
 435 00a4 8B4500   		movl	0(%ebp), %eax
 436 00a7 83EC08   		subl	$8, %esp
 437              		.cfi_def_cfa_offset 72
 438              		.loc 1 542 10 is_stmt 0 view .LVU97
 439 00aa 83EE01   		subl	$1, %esi
 440              	.LVL27:
 441              		.loc 1 539 9 view .LVU98
 442 00ad 6A08     		pushl	$8
 443              		.cfi_def_cfa_offset 76
 444 00af 55       		pushl	%ebp
 445              		.cfi_def_cfa_offset 80
 446 00b0 FF500C   		call	*12(%eax)
 447              	.LVL28:
 448              		.loc 1 540 9 is_stmt 1 view .LVU99
 449 00b3 58       		popl	%eax
 450              		.cfi_def_cfa_offset 76
 451 00b4 8B4500   		movl	0(%ebp), %eax
 452 00b7 5A       		popl	%edx
 453              		.cfi_def_cfa_offset 72
 454 00b8 6A20     		pushl	$32
 455              		.cfi_def_cfa_offset 76
 456 00ba 55       		pushl	%ebp
 457              		.cfi_def_cfa_offset 80
 458 00bb FF500C   		call	*12(%eax)
 459              	.LVL29:
 460              		.loc 1 541 9 view .LVU100
 461 00be 59       		popl	%ecx
 462              		.cfi_def_cfa_offset 76
 463 00bf 58       		popl	%eax
 464              		.cfi_def_cfa_offset 72
 465 00c0 8B4500   		movl	0(%ebp), %eax
 466 00c3 6A08     		pushl	$8
 467              		.cfi_def_cfa_offset 76
 468 00c5 55       		pushl	%ebp
 469              		.cfi_def_cfa_offset 80
 470 00c6 FF500C   		call	*12(%eax)
 471              	.LVL30:
 472              		.loc 1 542 9 view .LVU101
 473              		.loc 1 542 10 is_stmt 0 view .LVU102
 474 00c9 83C410   		addl	$16, %esp
 475              		.cfi_def_cfa_offset 64
 476 00cc E96FFFFF 		jmp	.L19
 476      FF
 477              		.p2align 4,,10
 478 00d1 8DB42600 		.p2align 3
 478      000000
 479              	.L28:
 480              		.loc 1 485 14 view .LVU103
 481 00d8 BA010000 		movl	$1, %edx
 481      00
 482              	.L18:
GAS LISTING /tmp/ccOavTgz.s 			page 10


 483              	.LBE32:
 484              		.loc 1 603 1 view .LVU104
 485 00dd 8B44241C 		movl	28(%esp), %eax
 486 00e1 652B0514 		subl	%gs:20, %eax
 486      000000
 487 00e8 755B     		jne	.L34
 488 00ea 83C42C   		addl	$44, %esp
 489              		.cfi_remember_state
 490              		.cfi_def_cfa_offset 20
 491 00ed 89D0     		movl	%edx, %eax
 492 00ef 5B       		popl	%ebx
 493              		.cfi_restore 3
 494              		.cfi_def_cfa_offset 16
 495 00f0 5E       		popl	%esi
 496              		.cfi_restore 6
 497              		.cfi_def_cfa_offset 12
 498              	.LVL31:
 499              		.loc 1 603 1 view .LVU105
 500 00f1 5F       		popl	%edi
 501              		.cfi_restore 7
 502              		.cfi_def_cfa_offset 8
 503 00f2 5D       		popl	%ebp
 504              		.cfi_restore 5
 505              		.cfi_def_cfa_offset 4
 506              	.LVL32:
 507              		.loc 1 603 1 view .LVU106
 508 00f3 C3       		ret
 509              	.LVL33:
 510              		.p2align 4,,10
 511 00f4 8D742600 		.p2align 3
 512              	.L31:
 513              		.cfi_restore_state
 514              	.LBB33:
 515              		.loc 1 533 7 is_stmt 1 view .LVU107
 516 00f8 83EC08   		subl	$8, %esp
 517              		.cfi_def_cfa_offset 72
 518 00fb 8B5C2414 		movl	20(%esp), %ebx
 519 00ff 8D830000 		leal	.LC1@GOTOFF(%ebx), %eax
 519      0000
 520 0105 50       		pushl	%eax
 521              		.cfi_def_cfa_offset 76
 522 0106 55       		pushl	%ebp
 523              		.cfi_def_cfa_offset 80
 524 0107 E8FCFFFF 		call	chprintf@PLT
 524      FF
 525              	.LVL34:
 526              		.loc 1 534 7 view .LVU108
 527              		.loc 1 534 14 is_stmt 0 view .LVU109
 528 010c 83C410   		addl	$16, %esp
 529              		.cfi_def_cfa_offset 64
 530 010f BA010000 		movl	$1, %edx
 530      00
 531 0114 EBC7     		jmp	.L18
 532 0116 8DB42600 		.p2align 4,,10
 532      0000008D 
 532      7600
 533              		.p2align 3
GAS LISTING /tmp/ccOavTgz.s 			page 11


 534              	.L33:
 535              		.loc 1 547 7 view .LVU110
 536 0120 88542408 		movb	%dl, 8(%esp)
 537              		.loc 1 547 7 is_stmt 1 view .LVU111
 538 0124 83EC08   		subl	$8, %esp
 539              		.cfi_def_cfa_offset 72
 540 0127 8B5C2414 		movl	20(%esp), %ebx
 541 012b 8D830000 		leal	.LC2@GOTOFF(%ebx), %eax
 541      0000
 542 0131 50       		pushl	%eax
 543              		.cfi_def_cfa_offset 76
 544 0132 55       		pushl	%ebp
 545              		.cfi_def_cfa_offset 80
 546 0133 E8FCFFFF 		call	chprintf@PLT
 546      FF
 547              	.LVL35:
 548              		.loc 1 551 7 view .LVU112
 549              		.loc 1 552 14 is_stmt 0 view .LVU113
 550 0138 83C410   		addl	$16, %esp
 551              		.cfi_def_cfa_offset 64
 552              		.loc 1 551 10 view .LVU114
 553 013b C60600   		movb	$0, (%esi)
 554              		.loc 1 552 7 is_stmt 1 view .LVU115
 555              		.loc 1 552 14 is_stmt 0 view .LVU116
 556 013e 0FB65424 		movzbl	8(%esp), %edx
 556      08
 557 0143 EB98     		jmp	.L18
 558              	.L34:
 559              		.loc 1 552 14 view .LVU117
 560              	.LBE33:
 561              		.loc 1 603 1 view .LVU118
 562 0145 E8FCFFFF 		call	__stack_chk_fail_local
 562      FF
 563              	.LVL36:
 564              		.cfi_endproc
 565              	.LFE317:
 566              		.size	shellGetLine, .-shellGetLine
 567              		.section	.rodata.shellThread.str1.1,"aMS",@progbits,1
 568              	.LC3:
 569 0000 7368656C 		.string	"shell"
 569      6C00
 570              	.LC4:
 571 0006 43686962 		.string	"ChibiOS/RT Shell\r\n"
 571      694F532F 
 571      52542053 
 571      68656C6C 
 571      0D0A00
 572              	.LC5:
 573 0019 63683E20 		.string	"ch> "
 573      00
 574              	.LC6:
 575 001e 6C6F676F 		.string	"logout"
 575      757400
 576              	.LC7:
 577 0025 746F6F20 		.string	"too many arguments\r\n"
 577      6D616E79 
 577      20617267 
GAS LISTING /tmp/ccOavTgz.s 			page 12


 577      756D656E 
 577      74730D0A 
 578              	.LC8:
 579 003a 68656C70 		.string	"help"
 579      00
 580              	.LC9:
 581 003f 55736167 		.string	"Usage: %s\r\n"
 581      653A2025 
 581      730D0A00 
 582              	.LC10:
 583 004b 436F6D6D 		.string	"Commands: help "
 583      616E6473 
 583      3A206865 
 583      6C702000 
 584              	.LC11:
 585 005b 25732000 		.string	"%s "
 586              	.LC12:
 587 005f 257300   		.string	"%s"
 588              	.LC13:
 589 0062 203F0D0A 		.string	" ?\r\n"
 589      00
 590              		.section	.text.shellThread,"ax",@progbits
 591              		.p2align 4
 592              		.globl	shellThread
 593              		.type	shellThread, @function
 594              	shellThread:
 595              	.LVL37:
 596              	.LFB314:
 597              		.loc 1 335 30 is_stmt 1 view -0
 598              		.cfi_startproc
 599              		.loc 1 335 30 is_stmt 0 view .LVU120
 600 0000 55       		pushl	%ebp
 601              		.cfi_def_cfa_offset 8
 602              		.cfi_offset 5, -8
 603 0001 57       		pushl	%edi
 604              		.cfi_def_cfa_offset 12
 605              		.cfi_offset 7, -12
 606 0002 56       		pushl	%esi
 607              		.cfi_def_cfa_offset 16
 608              		.cfi_offset 6, -16
 609 0003 53       		pushl	%ebx
 610              		.cfi_def_cfa_offset 20
 611              		.cfi_offset 3, -20
 612 0004 E8FCFFFF 		call	__x86.get_pc_thunk.bx
 612      FF
 613 0009 81C30200 		addl	$_GLOBAL_OFFSET_TABLE_, %ebx
 613      0000
 614 000f 81ECA400 		subl	$164, %esp
 614      0000
 615              		.cfi_def_cfa_offset 184
 616              		.loc 1 335 30 view .LVU121
 617 0015 8B8424B8 		movl	184(%esp), %eax
 617      000000
 618 001c 8944241C 		movl	%eax, 28(%esp)
 619 0020 89C1     		movl	%eax, %ecx
 620              	.LBB55:
 621              	.LBB56:
GAS LISTING /tmp/ccOavTgz.s 			page 13


 622              		.file 5 "../../../os/rt/include/chregistry.h"
 623              		.loc 5 169 3 view .LVU122
 624 0022 8BB30000 		movl	ch0@GOT(%ebx), %esi
 624      0000
 625              	.LBE56:
 626              	.LBE55:
 627              		.loc 1 338 25 view .LVU123
 628 0028 8B39     		movl	(%ecx), %edi
 629              	.LBB60:
 630              	.LBB57:
 631              		.loc 5 169 32 view .LVU124
 632 002a 8D930000 		leal	.LC3@GOTOFF(%ebx), %edx
 632      0000
 633              	.LBE57:
 634              	.LBE60:
 635              		.loc 1 335 30 view .LVU125
 636 0030 65A11400 		movl	%gs:20, %eax
 636      0000
 637 0036 89842494 		movl	%eax, 148(%esp)
 637      000000
 638 003d 31C0     		xorl	%eax, %eax
 639              		.loc 1 336 3 is_stmt 1 view .LVU126
 640              		.loc 1 337 3 view .LVU127
 641              	.LVL38:
 642              		.loc 1 338 3 view .LVU128
 643              		.loc 1 339 3 view .LVU129
 644              		.loc 1 339 23 is_stmt 0 view .LVU130
 645 003f 8B4104   		movl	4(%ecx), %eax
 646              	.LBB61:
 647              	.LBB58:
 648              		.loc 5 169 3 view .LVU131
 649 0042 89742424 		movl	%esi, 36(%esp)
 650              	.LBE58:
 651              	.LBE61:
 652              		.loc 1 339 23 view .LVU132
 653 0046 89442430 		movl	%eax, 48(%esp)
 654              	.LVL39:
 655              		.loc 1 340 3 is_stmt 1 view .LVU133
 656              		.loc 1 341 3 view .LVU134
 657              		.loc 1 344 3 view .LVU135
 658              	.LBB62:
 659              	.LBI55:
 660              		.loc 5 166 20 view .LVU136
 661              	.LBB59:
 662              		.loc 5 169 3 view .LVU137
 663              		.loc 5 169 32 is_stmt 0 view .LVU138
 664 004a 8B460C   		movl	12(%esi), %eax
 665              	.LVL40:
 666              		.loc 5 169 32 view .LVU139
 667 004d 895020   		movl	%edx, 32(%eax)
 668              	.LVL41:
 669              		.loc 5 169 32 view .LVU140
 670              	.LBE59:
 671              	.LBE62:
 672              		.loc 1 358 3 is_stmt 1 view .LVU141
 673              		.loc 1 361 3 view .LVU142
 674 0050 8D830000 		leal	.LC2@GOTOFF(%ebx), %eax
GAS LISTING /tmp/ccOavTgz.s 			page 14


 674      0000
 675 0056 89442428 		movl	%eax, 40(%esp)
 676 005a 50       		pushl	%eax
 677              		.cfi_def_cfa_offset 188
 678 005b 57       		pushl	%edi
 679              		.cfi_def_cfa_offset 192
 680 005c E8FCFFFF 		call	chprintf@PLT
 680      FF
 681              	.LVL42:
 682              		.loc 1 362 3 view .LVU143
 683 0061 5D       		popl	%ebp
 684              		.cfi_def_cfa_offset 188
 685 0062 58       		popl	%eax
 686              		.cfi_def_cfa_offset 184
 687 0063 8D830000 		leal	.LC4@GOTOFF(%ebx), %eax
 687      0000
 688 0069 50       		pushl	%eax
 689              		.cfi_def_cfa_offset 188
 690 006a 57       		pushl	%edi
 691              		.cfi_def_cfa_offset 192
 692 006b E8FCFFFF 		call	chprintf@PLT
 692      FF
 693              	.LVL43:
 694              		.loc 1 364 3 view .LVU144
 695              		.loc 1 364 10 view .LVU145
 696              	.LBB63:
 697              	.LBI63:
 698              		.file 6 "../../../os/rt/include/chthreads.h"
 699              		.loc 6 597 20 view .LVU146
 700              	.LBB64:
 701              		.loc 6 599 3 view .LVU147
 702              	.LBB65:
 703              	.LBI65:
 704              		.loc 6 527 25 view .LVU148
 705              	.LBB66:
 706              		.loc 6 529 3 view .LVU149
 707              	.LBE66:
 708              	.LBE65:
 709              		.loc 6 599 33 is_stmt 0 view .LVU150
 710 0070 8B460C   		movl	12(%esi), %eax
 711              	.LBE64:
 712              	.LBE63:
 713              		.loc 1 364 10 view .LVU151
 714 0073 83C410   		addl	$16, %esp
 715              		.cfi_def_cfa_offset 176
 716 0076 80781D00 		cmpb	$0, 29(%eax)
 717 007a 0F885101 		js	.L38
 717      0000
 718 0080 8D830000 		leal	.LC5@GOTOFF(%ebx), %eax
 718      0000
 719 0086 89442418 		movl	%eax, 24(%esp)
 720 008a 8D44244C 		leal	76(%esp), %eax
 721 008e 8944240C 		movl	%eax, 12(%esp)
 722              	.LBB70:
 723              	.LBB71:
 724              		.loc 1 95 13 view .LVU152
 725 0092 8B830000 		movl	shell_local_commands@GOT(%ebx), %eax
GAS LISTING /tmp/ccOavTgz.s 			page 15


 725      0000
 726 0098 89442424 		movl	%eax, 36(%esp)
 727              	.LVL44:
 728 009c 8D742600 		.p2align 4,,10
 729              		.p2align 3
 730              	.L55:
 731              		.loc 1 95 13 view .LVU153
 732              	.LBE71:
 733              	.LBE70:
 734              		.loc 1 368 5 is_stmt 1 view .LVU154
 735 00a0 83EC08   		subl	$8, %esp
 736              		.cfi_def_cfa_offset 184
 737 00a3 FF742420 		pushl	32(%esp)
 738              		.cfi_def_cfa_offset 188
 739 00a7 57       		pushl	%edi
 740              		.cfi_def_cfa_offset 192
 741 00a8 E8FCFFFF 		call	chprintf@PLT
 741      FF
 742              	.LVL45:
 743              		.loc 1 369 5 view .LVU155
 744              		.loc 1 369 9 is_stmt 0 view .LVU156
 745 00ad 6A00     		pushl	$0
 746              		.cfi_def_cfa_offset 196
 747 00af 6A40     		pushl	$64
 748              		.cfi_def_cfa_offset 200
 749 00b1 FF742424 		pushl	36(%esp)
 750              		.cfi_def_cfa_offset 204
 751 00b5 FF742430 		pushl	48(%esp)
 752              		.cfi_def_cfa_offset 208
 753 00b9 E8FCFFFF 		call	shellGetLine
 753      FF
 754              	.LVL46:
 755              		.loc 1 369 8 view .LVU157
 756 00be 83C420   		addl	$32, %esp
 757              		.cfi_def_cfa_offset 176
 758 00c1 84C0     		testb	%al, %al
 759 00c3 0F857701 		jne	.L85
 759      0000
 760              		.loc 1 381 5 is_stmt 1 view .LVU158
 761              		.loc 1 381 10 is_stmt 0 view .LVU159
 762 00c9 8D742434 		leal	52(%esp), %esi
 763 00cd 8B44240C 		movl	12(%esp), %eax
 764              		.loc 1 383 7 view .LVU160
 765 00d1 31ED     		xorl	%ebp, %ebp
 766              		.loc 1 381 10 view .LVU161
 767 00d3 89F2     		movl	%esi, %edx
 768 00d5 E8FCFFFF 		call	parse_arguments
 768      FF
 769              	.LVL47:
 770              		.loc 1 384 18 view .LVU162
 771 00da 89F2     		movl	%esi, %edx
 772              		.loc 1 381 10 view .LVU163
 773 00dc 89442410 		movl	%eax, 16(%esp)
 774              	.LVL48:
 775              		.loc 1 382 5 is_stmt 1 view .LVU164
 776              		.loc 1 383 5 view .LVU165
 777              		.loc 1 384 5 view .LVU166
GAS LISTING /tmp/ccOavTgz.s 			page 16


 778              		.loc 1 384 48 view .LVU167
 779              		.loc 1 384 18 is_stmt 0 view .LVU168
 780 00e0 31C0     		xorl	%eax, %eax
 781              	.LVL49:
 782              		.loc 1 384 18 view .LVU169
 783 00e2 E8FCFFFF 		call	parse_arguments
 783      FF
 784              	.LVL50:
 785              		.loc 1 384 48 view .LVU170
 786 00e7 85C0     		testl	%eax, %eax
 787 00e9 741D     		je	.L86
 788              	.L42:
 789              		.loc 1 385 7 is_stmt 1 view .LVU171
 790              		.loc 1 385 10 is_stmt 0 view .LVU172
 791 00eb 83FD04   		cmpl	$4, %ebp
 792 00ee 0F842C01 		je	.L87
 792      0000
 793              		.loc 1 390 7 is_stmt 1 view .LVU173
 794              		.loc 1 390 13 is_stmt 0 view .LVU174
 795 00f4 83C501   		addl	$1, %ebp
 796              	.LVL51:
 797              		.loc 1 384 18 view .LVU175
 798 00f7 89F2     		movl	%esi, %edx
 799              		.loc 1 390 17 view .LVU176
 800 00f9 8944AC34 		movl	%eax, 52(%esp,%ebp,4)
 801              		.loc 1 384 48 is_stmt 1 view .LVU177
 802              		.loc 1 384 18 is_stmt 0 view .LVU178
 803 00fd 31C0     		xorl	%eax, %eax
 804              	.LVL52:
 805              		.loc 1 384 18 view .LVU179
 806 00ff E8FCFFFF 		call	parse_arguments
 806      FF
 807              	.LVL53:
 808              		.loc 1 384 48 view .LVU180
 809 0104 85C0     		testl	%eax, %eax
 810 0106 75E3     		jne	.L42
 811              	.L86:
 812              		.loc 1 392 5 is_stmt 1 view .LVU181
 813              		.loc 1 393 8 is_stmt 0 view .LVU182
 814 0108 8B442410 		movl	16(%esp), %eax
 815              	.LVL54:
 816              		.loc 1 392 13 view .LVU183
 817 010c C744AC38 		movl	$0, 56(%esp,%ebp,4)
 817      00000000 
 818              		.loc 1 393 5 is_stmt 1 view .LVU184
 819              		.loc 1 393 8 is_stmt 0 view .LVU185
 820 0114 85C0     		testl	%eax, %eax
 821 0116 0F84A400 		je	.L41
 821      0000
 822              		.loc 1 394 7 is_stmt 1 view .LVU186
 823              		.loc 1 394 11 is_stmt 0 view .LVU187
 824 011c 83EC08   		subl	$8, %esp
 825              		.cfi_def_cfa_offset 184
 826 011f 8DB30000 		leal	.LC8@GOTOFF(%ebx), %esi
 826      0000
 827 0125 56       		pushl	%esi
 828              		.cfi_def_cfa_offset 188
GAS LISTING /tmp/ccOavTgz.s 			page 17


 829 0126 50       		pushl	%eax
 830              		.cfi_def_cfa_offset 192
 831 0127 E8FCFFFF 		call	strcmp@PLT
 831      FF
 832              	.LVL55:
 833 012c 83C410   		addl	$16, %esp
 834              		.cfi_def_cfa_offset 176
 835              		.loc 1 394 10 view .LVU188
 836 012f 85C0     		testl	%eax, %eax
 837 0131 0F853101 		jne	.L88
 837      0000
 838              		.loc 1 395 9 is_stmt 1 view .LVU189
 839              		.loc 1 395 12 is_stmt 0 view .LVU190
 840 0137 85ED     		testl	%ebp, %ebp
 841 0139 0F857701 		jne	.L89
 841      0000
 842              		.loc 1 399 9 is_stmt 1 view .LVU191
 843 013f 83EC08   		subl	$8, %esp
 844              		.cfi_def_cfa_offset 184
 845 0142 8D830000 		leal	.LC10@GOTOFF(%ebx), %eax
 845      0000
 846 0148 50       		pushl	%eax
 847              		.cfi_def_cfa_offset 188
 848 0149 57       		pushl	%edi
 849              		.cfi_def_cfa_offset 192
 850 014a E8FCFFFF 		call	chprintf@PLT
 850      FF
 851              	.LVL56:
 852              		.loc 1 400 9 view .LVU192
 853              	.LBB73:
 854              	.LBI70:
 855              		.loc 1 93 13 view .LVU193
 856              	.LBB72:
 857              		.loc 1 95 3 view .LVU194
 858              		.loc 1 95 23 view .LVU195
 859              		.loc 1 95 13 is_stmt 0 view .LVU196
 860 014f 8B6C2434 		movl	52(%esp), %ebp
 861              	.LVL57:
 862              		.loc 1 95 23 view .LVU197
 863 0153 83C410   		addl	$16, %esp
 864              		.cfi_def_cfa_offset 176
 865              		.loc 1 95 13 view .LVU198
 866 0156 8B4500   		movl	0(%ebp), %eax
 867              		.loc 1 95 23 view .LVU199
 868 0159 85C0     		testl	%eax, %eax
 869 015b 7423     		je	.L47
 870 015d 8DB30000 		leal	.LC11@GOTOFF(%ebx), %esi
 870      0000
 871              	.LVL58:
 872              		.p2align 4,,10
 873 0163 8D742600 		.p2align 3
 873      90
 874              	.L48:
 875              		.loc 1 96 5 is_stmt 1 view .LVU200
 876 0168 83EC04   		subl	$4, %esp
 877              		.cfi_def_cfa_offset 180
 878              		.loc 1 97 8 is_stmt 0 view .LVU201
GAS LISTING /tmp/ccOavTgz.s 			page 18


 879 016b 83C508   		addl	$8, %ebp
 880              	.LVL59:
 881              		.loc 1 96 5 view .LVU202
 882 016e 50       		pushl	%eax
 883              		.cfi_def_cfa_offset 184
 884 016f 56       		pushl	%esi
 885              		.cfi_def_cfa_offset 188
 886 0170 57       		pushl	%edi
 887              		.cfi_def_cfa_offset 192
 888 0171 E8FCFFFF 		call	chprintf@PLT
 888      FF
 889              	.LVL60:
 890              		.loc 1 97 5 is_stmt 1 view .LVU203
 891              		.loc 1 95 23 view .LVU204
 892              		.loc 1 95 13 is_stmt 0 view .LVU205
 893 0176 8B4500   		movl	0(%ebp), %eax
 894              		.loc 1 95 23 view .LVU206
 895 0179 83C410   		addl	$16, %esp
 896              		.cfi_def_cfa_offset 176
 897 017c 85C0     		testl	%eax, %eax
 898 017e 75E8     		jne	.L48
 899              	.LVL61:
 900              	.L47:
 901              		.loc 1 95 23 view .LVU207
 902              	.LBE72:
 903              	.LBE73:
 904              		.loc 1 401 9 is_stmt 1 view .LVU208
 905              		.loc 1 401 12 is_stmt 0 view .LVU209
 906 0180 8B6C2428 		movl	40(%esp), %ebp
 907 0184 85ED     		testl	%ebp, %ebp
 908 0186 7428     		je	.L49
 909              	.LVL62:
 910              	.LBB74:
 911              	.LBB75:
 912              		.loc 1 95 23 is_stmt 1 view .LVU210
 913              		.loc 1 95 13 is_stmt 0 view .LVU211
 914 0188 8B4500   		movl	0(%ebp), %eax
 915              		.loc 1 95 23 view .LVU212
 916 018b 85C0     		testl	%eax, %eax
 917 018d 7421     		je	.L49
 918 018f 8DB30000 		leal	.LC11@GOTOFF(%ebx), %esi
 918      0000
 919              		.p2align 4,,10
 920 0195 8D7600   		.p2align 3
 921              	.L50:
 922              		.loc 1 96 5 is_stmt 1 view .LVU213
 923 0198 83EC04   		subl	$4, %esp
 924              		.cfi_def_cfa_offset 180
 925              		.loc 1 97 8 is_stmt 0 view .LVU214
 926 019b 83C508   		addl	$8, %ebp
 927              	.LVL63:
 928              		.loc 1 96 5 view .LVU215
 929 019e 50       		pushl	%eax
 930              		.cfi_def_cfa_offset 184
 931 019f 56       		pushl	%esi
 932              		.cfi_def_cfa_offset 188
 933 01a0 57       		pushl	%edi
GAS LISTING /tmp/ccOavTgz.s 			page 19


 934              		.cfi_def_cfa_offset 192
 935 01a1 E8FCFFFF 		call	chprintf@PLT
 935      FF
 936              	.LVL64:
 937              		.loc 1 97 5 is_stmt 1 view .LVU216
 938              		.loc 1 95 23 view .LVU217
 939              		.loc 1 95 13 is_stmt 0 view .LVU218
 940 01a6 8B4500   		movl	0(%ebp), %eax
 941              		.loc 1 95 23 view .LVU219
 942 01a9 83C410   		addl	$16, %esp
 943              		.cfi_def_cfa_offset 176
 944 01ac 85C0     		testl	%eax, %eax
 945 01ae 75E8     		jne	.L50
 946              	.LVL65:
 947              	.L49:
 948              		.loc 1 95 23 view .LVU220
 949              	.LBE75:
 950              	.LBE74:
 951              		.loc 1 403 9 is_stmt 1 view .LVU221
 952 01b0 83EC08   		subl	$8, %esp
 953              		.cfi_def_cfa_offset 184
 954 01b3 FF742428 		pushl	40(%esp)
 955              		.cfi_def_cfa_offset 188
 956 01b7 57       		pushl	%edi
 957              		.cfi_def_cfa_offset 192
 958 01b8 E8FCFFFF 		call	chprintf@PLT
 958      FF
 959              	.LVL66:
 960 01bd 83C410   		addl	$16, %esp
 961              		.cfi_def_cfa_offset 176
 962              	.LVL67:
 963              		.p2align 4,,10
 964              		.p2align 3
 965              	.L41:
 966              		.loc 1 364 10 view .LVU222
 967              	.LBB76:
 968              		.loc 6 597 20 view .LVU223
 969              	.LBB69:
 970              		.loc 6 599 3 view .LVU224
 971              	.LBB68:
 972              		.loc 6 527 25 view .LVU225
 973              	.LBB67:
 974              		.loc 6 529 3 view .LVU226
 975              	.LBE67:
 976              	.LBE68:
 977              		.loc 6 599 33 is_stmt 0 view .LVU227
 978 01c0 8B44241C 		movl	28(%esp), %eax
 979 01c4 8B400C   		movl	12(%eax), %eax
 980              	.LBE69:
 981              	.LBE76:
 982              		.loc 1 364 10 view .LVU228
 983 01c7 80781D00 		cmpb	$0, 29(%eax)
 984 01cb 0F89CFFE 		jns	.L55
 984      FFFF
 985              	.L38:
 986              		.loc 1 413 3 is_stmt 1 view .LVU229
 987              	.LVL68:
GAS LISTING /tmp/ccOavTgz.s 			page 20


 988              	.LBB77:
 989              	.LBI77:
 990              		.loc 1 439 6 view .LVU230
 991              	.LBB78:
 992              		.loc 1 443 3 view .LVU231
 993              	.LBB79:
 994              	.LBI79:
 995              		.loc 2 407 20 view .LVU232
 996              		.loc 2 409 3 view .LVU233
 997              	.LBB80:
 998              	.LBI80:
 999              		.loc 3 361 20 view .LVU234
 1000              	.LBB81:
 1001              		.loc 3 363 3 view .LVU235
 1002              		.loc 3 363 16 is_stmt 0 view .LVU236
 1003 01d1 8B830000 		movl	port_irq_sts@GOT(%ebx), %eax
 1003      0000
 1004              	.LBE81:
 1005              	.LBE80:
 1006              	.LBE79:
 1007              	.LBB84:
 1008              	.LBB85:
 1009              		.loc 4 252 3 view .LVU237
 1010 01d7 83EC08   		subl	$8, %esp
 1011              		.cfi_def_cfa_offset 184
 1012              	.LBE85:
 1013              	.LBE84:
 1014              	.LBB87:
 1015              	.LBB83:
 1016              	.LBB82:
 1017              		.loc 3 363 16 view .LVU238
 1018 01da C7000100 		movl	$1, (%eax)
 1018      0000
 1019              	.LBE82:
 1020              	.LBE83:
 1021              		.loc 2 410 35 is_stmt 1 view .LVU239
 1022              		.loc 2 411 21 view .LVU240
 1023              	.LBE87:
 1024              		.loc 1 444 3 view .LVU241
 1025              	.LVL69:
 1026              	.LBB88:
 1027              	.LBI84:
 1028              		.loc 4 250 20 view .LVU242
 1029              	.LBB86:
 1030              		.loc 4 252 3 view .LVU243
 1031 01e0 8D830000 		leal	shell_terminated@GOTOFF(%ebx), %eax
 1031      0000
 1032 01e6 6A00     		pushl	$0
 1033              		.cfi_def_cfa_offset 188
 1034 01e8 50       		pushl	%eax
 1035              		.cfi_def_cfa_offset 192
 1036 01e9 E8FCFFFF 		call	chEvtBroadcastFlagsI@PLT
 1036      FF
 1037              	.LVL70:
 1038              		.loc 4 252 3 is_stmt 0 view .LVU244
 1039              	.LBE86:
 1040              	.LBE88:
GAS LISTING /tmp/ccOavTgz.s 			page 21


 1041              		.loc 1 445 3 is_stmt 1 view .LVU245
 1042 01ee C7042400 		movl	$0, (%esp)
 1042      000000
 1043 01f5 E8FCFFFF 		call	chThdExitS@PLT
 1043      FF
 1044              	.LVL71:
 1045              		.loc 1 445 3 is_stmt 0 view .LVU246
 1046              	.LBE78:
 1047              	.LBE77:
 1048              		.loc 1 415 1 view .LVU247
 1049 01fa 83C410   		addl	$16, %esp
 1050              		.cfi_def_cfa_offset 176
 1051 01fd 8B84248C 		movl	140(%esp), %eax
 1051      000000
 1052 0204 652B0514 		subl	%gs:20, %eax
 1052      000000
 1053 020b 0F852D01 		jne	.L90
 1053      0000
 1054 0211 81C49C00 		addl	$156, %esp
 1054      0000
 1055              		.cfi_remember_state
 1056              		.cfi_def_cfa_offset 20
 1057 0217 5B       		popl	%ebx
 1058              		.cfi_restore 3
 1059              		.cfi_def_cfa_offset 16
 1060 0218 5E       		popl	%esi
 1061              		.cfi_restore 6
 1062              		.cfi_def_cfa_offset 12
 1063 0219 5F       		popl	%edi
 1064              		.cfi_restore 7
 1065              		.cfi_def_cfa_offset 8
 1066 021a 5D       		popl	%ebp
 1067              		.cfi_restore 5
 1068              		.cfi_def_cfa_offset 4
 1069 021b C3       		ret
 1070              	.LVL72:
 1071 021c 8D742600 		.p2align 4,,10
 1072              		.p2align 3
 1073              	.L87:
 1074              		.cfi_restore_state
 1075              		.loc 1 386 9 is_stmt 1 view .LVU248
 1076 0220 83EC08   		subl	$8, %esp
 1077              		.cfi_def_cfa_offset 184
 1078 0223 8D830000 		leal	.LC7@GOTOFF(%ebx), %eax
 1078      0000
 1079              	.LVL73:
 1080              		.loc 1 386 9 is_stmt 0 view .LVU249
 1081 0229 50       		pushl	%eax
 1082              		.cfi_def_cfa_offset 188
 1083 022a 57       		pushl	%edi
 1084              		.cfi_def_cfa_offset 192
 1085 022b E8FCFFFF 		call	chprintf@PLT
 1085      FF
 1086              	.LVL74:
 1087              		.loc 1 387 9 is_stmt 1 view .LVU250
 1088              		.loc 1 388 9 view .LVU251
 1089              		.loc 1 392 5 view .LVU252
GAS LISTING /tmp/ccOavTgz.s 			page 22


 1090              		.loc 1 392 13 is_stmt 0 view .LVU253
 1091 0230 C7442458 		movl	$0, 88(%esp)
 1091      00000000 
 1092              		.loc 1 393 5 is_stmt 1 view .LVU254
 1093              		.loc 1 392 13 is_stmt 0 view .LVU255
 1094 0238 83C410   		addl	$16, %esp
 1095              		.cfi_def_cfa_offset 176
 1096 023b EB83     		jmp	.L41
 1097              	.LVL75:
 1098 023d 8D7600   		.p2align 4,,10
 1099              		.p2align 3
 1100              	.L85:
 1101              		.loc 1 371 7 is_stmt 1 view .LVU256
 1102 0240 83EC08   		subl	$8, %esp
 1103              		.cfi_def_cfa_offset 184
 1104 0243 FF742428 		pushl	40(%esp)
 1105              		.cfi_def_cfa_offset 188
 1106 0247 57       		pushl	%edi
 1107              		.cfi_def_cfa_offset 192
 1108 0248 E8FCFFFF 		call	chprintf@PLT
 1108      FF
 1109              	.LVL76:
 1110              		.loc 1 372 7 view .LVU257
 1111 024d 8D830000 		leal	.LC6@GOTOFF(%ebx), %eax
 1111      0000
 1112 0253 59       		popl	%ecx
 1113              		.cfi_def_cfa_offset 188
 1114 0254 5E       		popl	%esi
 1115              		.cfi_def_cfa_offset 184
 1116 0255 50       		pushl	%eax
 1117              		.cfi_def_cfa_offset 188
 1118 0256 57       		pushl	%edi
 1119              		.cfi_def_cfa_offset 192
 1120 0257 E8FCFFFF 		call	chprintf@PLT
 1120      FF
 1121              	.LVL77:
 1122              		.loc 1 373 7 view .LVU258
 1123 025c 83C410   		addl	$16, %esp
 1124              		.cfi_def_cfa_offset 176
 1125 025f E96DFFFF 		jmp	.L38
 1125      FF
 1126              	.LVL78:
 1127              		.p2align 4,,10
 1128 0264 8D742600 		.p2align 3
 1129              	.L88:
 1130              	.LBB89:
 1131              	.LBB90:
 1132              		.loc 1 104 23 view .LVU259
 1133              		.loc 1 104 13 is_stmt 0 view .LVU260
 1134 0268 8B742424 		movl	36(%esp), %esi
 1135 026c 8B06     		movl	(%esi), %eax
 1136              		.loc 1 104 23 view .LVU261
 1137 026e 85C0     		testl	%eax, %eax
 1138 0270 7461     		je	.L45
 1139 0272 897C242C 		movl	%edi, 44(%esp)
 1140 0276 89F7     		movl	%esi, %edi
 1141 0278 8B742410 		movl	16(%esp), %esi
GAS LISTING /tmp/ccOavTgz.s 			page 23


 1142 027c EB0C     		jmp	.L44
 1143              	.LVL79:
 1144 027e 6690     		.p2align 4,,10
 1145              		.p2align 3
 1146              	.L51:
 1147              		.loc 1 109 5 is_stmt 1 view .LVU262
 1148              		.loc 1 104 13 is_stmt 0 view .LVU263
 1149 0280 8B4708   		movl	8(%edi), %eax
 1150              		.loc 1 109 8 view .LVU264
 1151 0283 83C708   		addl	$8, %edi
 1152              	.LVL80:
 1153              		.loc 1 104 23 is_stmt 1 view .LVU265
 1154 0286 85C0     		testl	%eax, %eax
 1155 0288 7445     		je	.L91
 1156              	.LVL81:
 1157              	.L44:
 1158              		.loc 1 105 5 view .LVU266
 1159              		.loc 1 105 9 is_stmt 0 view .LVU267
 1160 028a 83EC08   		subl	$8, %esp
 1161              		.cfi_def_cfa_offset 184
 1162 028d 56       		pushl	%esi
 1163              		.cfi_def_cfa_offset 188
 1164 028e 50       		pushl	%eax
 1165              		.cfi_def_cfa_offset 192
 1166 028f E8FCFFFF 		call	strcmp@PLT
 1166      FF
 1167              	.LVL82:
 1168 0294 83C410   		addl	$16, %esp
 1169              		.cfi_def_cfa_offset 176
 1170              		.loc 1 105 8 view .LVU268
 1171 0297 85C0     		testl	%eax, %eax
 1172 0299 75E5     		jne	.L51
 1173              		.loc 1 106 7 view .LVU269
 1174 029b 89FE     		movl	%edi, %esi
 1175 029d 8B7C242C 		movl	44(%esp), %edi
 1176              	.LVL83:
 1177              		.loc 1 106 7 is_stmt 1 view .LVU270
 1178              	.L84:
 1179              		.loc 1 106 7 is_stmt 0 view .LVU271
 1180              	.LBE90:
 1181              	.LBE89:
 1182              	.LBB91:
 1183              	.LBB92:
 1184              		.loc 1 106 7 is_stmt 1 view .LVU272
 1185 02a1 83EC04   		subl	$4, %esp
 1186              		.cfi_def_cfa_offset 180
 1187 02a4 8D44243C 		leal	60(%esp), %eax
 1188 02a8 50       		pushl	%eax
 1189              		.cfi_def_cfa_offset 184
 1190 02a9 55       		pushl	%ebp
 1191              		.cfi_def_cfa_offset 188
 1192 02aa 57       		pushl	%edi
 1193              		.cfi_def_cfa_offset 192
 1194 02ab FF5604   		call	*4(%esi)
 1195              	.LVL84:
 1196              		.loc 1 107 7 view .LVU273
 1197              		.loc 1 106 7 is_stmt 0 view .LVU274
GAS LISTING /tmp/ccOavTgz.s 			page 24


 1198 02ae 83C410   		addl	$16, %esp
 1199              		.cfi_def_cfa_offset 176
 1200 02b1 E90AFFFF 		jmp	.L41
 1200      FF
 1201              	.LVL85:
 1202              	.L89:
 1203              		.loc 1 106 7 view .LVU275
 1204              	.LBE92:
 1205              	.LBE91:
 1206              		.loc 1 396 11 is_stmt 1 discriminator 1 view .LVU276
 1207 02b6 83EC04   		subl	$4, %esp
 1208              		.cfi_def_cfa_offset 180
 1209 02b9 8D830000 		leal	.LC9@GOTOFF(%ebx), %eax
 1209      0000
 1210 02bf 56       		pushl	%esi
 1211              		.cfi_def_cfa_offset 184
 1212 02c0 50       		pushl	%eax
 1213              		.cfi_def_cfa_offset 188
 1214 02c1 57       		pushl	%edi
 1215              		.cfi_def_cfa_offset 192
 1216 02c2 E8FCFFFF 		call	chprintf@PLT
 1216      FF
 1217              	.LVL86:
 1218              		.loc 1 397 11 discriminator 1 view .LVU277
 1219 02c7 83C410   		addl	$16, %esp
 1220              		.cfi_def_cfa_offset 176
 1221 02ca E9F1FEFF 		jmp	.L41
 1221      FF
 1222              	.LVL87:
 1223              	.L91:
 1224              		.loc 1 397 11 is_stmt 0 discriminator 1 view .LVU278
 1225 02cf 8B7C242C 		movl	44(%esp), %edi
 1226              	.LVL88:
 1227              	.L45:
 1228              		.loc 1 405 65 view .LVU279
 1229 02d3 8B742428 		movl	40(%esp), %esi
 1230 02d7 85F6     		testl	%esi, %esi
 1231 02d9 7438     		je	.L52
 1232              	.LVL89:
 1233              	.LBB94:
 1234              	.LBB93:
 1235              		.loc 1 104 23 is_stmt 1 view .LVU280
 1236              		.loc 1 104 13 is_stmt 0 view .LVU281
 1237 02db 8B06     		movl	(%esi), %eax
 1238              		.loc 1 104 23 view .LVU282
 1239 02dd 85C0     		testl	%eax, %eax
 1240 02df 7432     		je	.L52
 1241 02e1 896C242C 		movl	%ebp, 44(%esp)
 1242 02e5 89F5     		movl	%esi, %ebp
 1243              	.LVL90:
 1244              		.loc 1 104 23 view .LVU283
 1245 02e7 8B742410 		movl	16(%esp), %esi
 1246              	.LVL91:
 1247              		.loc 1 104 23 view .LVU284
 1248 02eb EB0D     		jmp	.L54
 1249 02ed 8D7600   		.p2align 4,,10
 1250              		.p2align 3
GAS LISTING /tmp/ccOavTgz.s 			page 25


 1251              	.L53:
 1252              		.loc 1 109 5 is_stmt 1 view .LVU285
 1253              		.loc 1 104 13 is_stmt 0 view .LVU286
 1254 02f0 8B4508   		movl	8(%ebp), %eax
 1255              		.loc 1 109 8 view .LVU287
 1256 02f3 83C508   		addl	$8, %ebp
 1257              	.LVL92:
 1258              		.loc 1 104 23 is_stmt 1 view .LVU288
 1259 02f6 85C0     		testl	%eax, %eax
 1260 02f8 7419     		je	.L52
 1261              	.L54:
 1262              		.loc 1 105 5 view .LVU289
 1263              		.loc 1 105 9 is_stmt 0 view .LVU290
 1264 02fa 83EC08   		subl	$8, %esp
 1265              		.cfi_def_cfa_offset 184
 1266 02fd 56       		pushl	%esi
 1267              		.cfi_def_cfa_offset 188
 1268 02fe 50       		pushl	%eax
 1269              		.cfi_def_cfa_offset 192
 1270 02ff E8FCFFFF 		call	strcmp@PLT
 1270      FF
 1271              	.LVL93:
 1272 0304 83C410   		addl	$16, %esp
 1273              		.cfi_def_cfa_offset 176
 1274              		.loc 1 105 8 view .LVU291
 1275 0307 85C0     		testl	%eax, %eax
 1276 0309 75E5     		jne	.L53
 1277              		.loc 1 106 7 view .LVU292
 1278 030b 89EE     		movl	%ebp, %esi
 1279 030d 8B6C242C 		movl	44(%esp), %ebp
 1280              	.LVL94:
 1281              		.loc 1 106 7 view .LVU293
 1282 0311 EB8E     		jmp	.L84
 1283              	.LVL95:
 1284              	.L52:
 1285              		.loc 1 106 7 view .LVU294
 1286              	.LBE93:
 1287              	.LBE94:
 1288              		.loc 1 407 9 is_stmt 1 view .LVU295
 1289 0313 83EC04   		subl	$4, %esp
 1290              		.cfi_def_cfa_offset 180
 1291 0316 8D830000 		leal	.LC12@GOTOFF(%ebx), %eax
 1291      0000
 1292 031c FF742414 		pushl	20(%esp)
 1293              		.cfi_def_cfa_offset 184
 1294 0320 50       		pushl	%eax
 1295              		.cfi_def_cfa_offset 188
 1296 0321 57       		pushl	%edi
 1297              		.cfi_def_cfa_offset 192
 1298 0322 E8FCFFFF 		call	chprintf@PLT
 1298      FF
 1299              	.LVL96:
 1300              		.loc 1 408 9 view .LVU296
 1301 0327 58       		popl	%eax
 1302              		.cfi_def_cfa_offset 188
 1303 0328 8D830000 		leal	.LC13@GOTOFF(%ebx), %eax
 1303      0000
GAS LISTING /tmp/ccOavTgz.s 			page 26


 1304 032e 5A       		popl	%edx
 1305              		.cfi_def_cfa_offset 184
 1306 032f 50       		pushl	%eax
 1307              		.cfi_def_cfa_offset 188
 1308 0330 57       		pushl	%edi
 1309              		.cfi_def_cfa_offset 192
 1310 0331 E8FCFFFF 		call	chprintf@PLT
 1310      FF
 1311              	.LVL97:
 1312 0336 83C410   		addl	$16, %esp
 1313              		.cfi_def_cfa_offset 176
 1314 0339 E982FEFF 		jmp	.L41
 1314      FF
 1315              	.LVL98:
 1316              	.L90:
 1317              		.loc 1 415 1 is_stmt 0 view .LVU297
 1318 033e E8FCFFFF 		call	__stack_chk_fail_local
 1318      FF
 1319              	.LVL99:
 1320              		.cfi_endproc
 1321              	.LFE314:
 1322              		.size	shellThread, .-shellThread
 1323              		.globl	shell_terminated
 1324              		.section	.bss.shell_terminated,"aw",@nobits
 1325              		.align 4
 1326              		.type	shell_terminated, @object
 1327              		.size	shell_terminated, 4
 1328              	shell_terminated:
 1329 0000 00000000 		.zero	4
 1330              		.section	.text.__x86.get_pc_thunk.ax,"axG",@progbits,__x86.get_pc_thunk.ax,comdat
 1331              		.globl	__x86.get_pc_thunk.ax
 1332              		.hidden	__x86.get_pc_thunk.ax
 1333              		.type	__x86.get_pc_thunk.ax, @function
 1334              	__x86.get_pc_thunk.ax:
 1335              	.LFB319:
 1336              		.cfi_startproc
 1337 0000 8B0424   		movl	(%esp), %eax
 1338 0003 C3       		ret
 1339              		.cfi_endproc
 1340              	.LFE319:
 1341              		.section	.text.__x86.get_pc_thunk.bx,"axG",@progbits,__x86.get_pc_thunk.bx,comdat
 1342              		.globl	__x86.get_pc_thunk.bx
 1343              		.hidden	__x86.get_pc_thunk.bx
 1344              		.type	__x86.get_pc_thunk.bx, @function
 1345              	__x86.get_pc_thunk.bx:
 1346              	.LFB320:
 1347              		.cfi_startproc
 1348 0000 8B1C24   		movl	(%esp), %ebx
 1349 0003 C3       		ret
 1350              		.cfi_endproc
 1351              	.LFE320:
 1352              		.text
 1353              	.Letext0:
 1354              		.file 7 "/usr/lib/gcc/x86_64-linux-gnu/11/include/stddef.h"
 1355              		.file 8 "/usr/include/bits/types.h"
 1356              		.file 9 "/usr/include/bits/stdint-intn.h"
 1357              		.file 10 "/usr/include/bits/stdint-uintn.h"
GAS LISTING /tmp/ccOavTgz.s 			page 27


 1358              		.file 11 "../../../os/common/ports/SIMIA32/compilers/GCC/chtypes.h"
 1359              		.file 12 "../../../os/rt/include/chearly.h"
 1360              		.file 13 "../../../os/rt/include/chobjects.h"
 1361              		.file 14 "../../../os/rt/include/chrfcu.h"
 1362              		.file 15 "../../../os/rt/include/chdebug.h"
 1363              		.file 16 "../../../os/rt/include/chtime.h"
 1364              		.file 17 "../../../os/rt/include/chlists.h"
 1365              		.file 18 "../../../os/rt/include/chsem.h"
 1366              		.file 19 "../../../os/rt/include/chmtx.h"
 1367              		.file 20 "../../../os/hal/include/hal_streams.h"
 1368              		.file 21 "../../../os/various/shell/shell.h"
 1369              		.file 22 "../../../os/various/shell/shell_cmd.h"
 1370              		.file 23 "/usr/include/string.h"
 1371              		.file 24 "../../../os/hal/lib/streams/chprintf.h"
 1372              		.file 25 "<built-in>"
 5716 0051 2F686F6D 		.section	.note.GNU-stack,"",@progbits
 5716      652F616C 
 5716      65782F43 
 5716      68696269 
 5716      4F532F64 
GAS LISTING /tmp/ccOavTgz.s 			page 110

