GAS LISTING /tmp/ccExXJbd.s 			page 1


   1              		.file	"chevents.c"
   2              		.text
   3              	.Ltext0:
   4              		.file 0 "/home/alex/ChibiOS/demos/various/LAB3" "../../../os/rt/src/chevents.c"
   5              		.section	.text.chEvtObjectInit,"ax",@progbits
   6              		.p2align 4
   7              		.globl	chEvtObjectInit
   8              		.type	chEvtObjectInit, @function
   9              	chEvtObjectInit:
  10              	.LVL0:
  11              	.LFB215:
  12              		.file 1 "../../../os/rt/src/chevents.c"
  13              		.loc 1 99 43 view -0
  14              		.cfi_startproc
  15              		.loc 1 101 3 view .LVU1
  16              		.loc 1 101 3 view .LVU2
  17              		.loc 1 101 3 view .LVU3
  18              		.loc 1 103 3 view .LVU4
  19              		.loc 1 99 43 is_stmt 0 view .LVU5
  20 0000 8B442404 		movl	4(%esp), %eax
  21              		.loc 1 103 13 view .LVU6
  22 0004 8900     		movl	%eax, (%eax)
  23              		.loc 1 104 1 view .LVU7
  24 0006 C3       		ret
  25              		.cfi_endproc
  26              	.LFE215:
  27              		.size	chEvtObjectInit, .-chEvtObjectInit
  28              		.section	.text.chEvtObjectDispose,"ax",@progbits
  29              		.p2align 4
  30              		.globl	chEvtObjectDispose
  31              		.type	chEvtObjectDispose, @function
  32              	chEvtObjectDispose:
  33              	.LVL1:
  34              	.LFB216:
  35              		.loc 1 121 46 is_stmt 1 view -0
  36              		.cfi_startproc
  37              		.loc 1 123 3 view .LVU9
  38              		.loc 1 123 3 view .LVU10
  39              		.loc 1 123 3 view .LVU11
  40              		.loc 1 124 3 view .LVU12
  41              		.loc 1 124 3 view .LVU13
  42              		.loc 1 124 3 view .LVU14
  43              		.loc 1 129 1 is_stmt 0 view .LVU15
  44 0000 C3       		ret
  45              		.cfi_endproc
  46              	.LFE216:
  47              		.size	chEvtObjectDispose, .-chEvtObjectDispose
  48              		.section	.text.chEvtRegisterMaskWithFlagsI,"ax",@progbits
  49              		.p2align 4
  50              		.globl	chEvtRegisterMaskWithFlagsI
  51              		.type	chEvtRegisterMaskWithFlagsI, @function
  52              	chEvtRegisterMaskWithFlagsI:
  53              	.LVL2:
  54              	.LFB217:
  55              		.loc 1 149 55 is_stmt 1 view -0
  56              		.cfi_startproc
  57              		.loc 1 150 3 view .LVU17
GAS LISTING /tmp/ccExXJbd.s 			page 2


  58              	.LBB160:
  59              	.LBI160:
  60              		.file 2 "../../../os/rt/include/chthreads.h"
  61              		.loc 2 527 25 view .LVU18
  62              	.LBB161:
  63              		.loc 2 529 3 view .LVU19
  64 0000 E8FCFFFF 		call	__x86.get_pc_thunk.cx
  64      FF
  65 0005 81C10200 		addl	$_GLOBAL_OFFSET_TABLE_, %ecx
  65      0000
  66              	.LBE161:
  67              	.LBE160:
  68              		.loc 1 149 55 is_stmt 0 view .LVU20
  69 000b 53       		pushl	%ebx
  70              		.cfi_def_cfa_offset 8
  71              		.cfi_offset 3, -8
  72              		.loc 1 149 55 view .LVU21
  73 000c 8B542408 		movl	8(%esp), %edx
  74 0010 8B44240C 		movl	12(%esp), %eax
  75              		.loc 1 155 17 view .LVU22
  76 0014 8B1A     		movl	(%edx), %ebx
  77              	.LBB163:
  78              	.LBB162:
  79              		.loc 2 529 10 view .LVU23
  80 0016 8B890000 		movl	ch0@GOT(%ecx), %ecx
  80      0000
  81 001c 8B490C   		movl	12(%ecx), %ecx
  82              	.LVL3:
  83              		.loc 2 529 10 view .LVU24
  84              	.LBE162:
  85              	.LBE163:
  86              		.loc 1 152 21 is_stmt 1 view .LVU25
  87              		.loc 1 153 3 view .LVU26
  88              		.loc 1 153 3 view .LVU27
  89              		.loc 1 153 3 view .LVU28
  90              		.loc 1 155 3 view .LVU29
  91              		.loc 1 155 17 is_stmt 0 view .LVU30
  92 001f 8918     		movl	%ebx, (%eax)
  93              		.loc 1 156 3 is_stmt 1 view .LVU31
  94              		.loc 1 156 17 is_stmt 0 view .LVU32
  95 0021 8902     		movl	%eax, (%edx)
  96              		.loc 1 157 3 is_stmt 1 view .LVU33
  97              		.loc 1 158 17 is_stmt 0 view .LVU34
  98 0023 8B542410 		movl	16(%esp), %edx
  99              		.loc 1 157 17 view .LVU35
 100 0027 894804   		movl	%ecx, 4(%eax)
 101              		.loc 1 158 3 is_stmt 1 view .LVU36
 102              		.loc 1 158 17 is_stmt 0 view .LVU37
 103 002a 895008   		movl	%edx, 8(%eax)
 104              		.loc 1 159 3 is_stmt 1 view .LVU38
 105              		.loc 1 160 17 is_stmt 0 view .LVU39
 106 002d 8B542414 		movl	20(%esp), %edx
 107              		.loc 1 159 17 view .LVU40
 108 0031 C7400C00 		movl	$0, 12(%eax)
 108      000000
 109              		.loc 1 160 3 is_stmt 1 view .LVU41
 110              		.loc 1 160 17 is_stmt 0 view .LVU42
GAS LISTING /tmp/ccExXJbd.s 			page 3


 111 0038 895010   		movl	%edx, 16(%eax)
 112              		.loc 1 161 1 view .LVU43
 113 003b 5B       		popl	%ebx
 114              		.cfi_restore 3
 115              		.cfi_def_cfa_offset 4
 116 003c C3       		ret
 117              		.cfi_endproc
 118              	.LFE217:
 119              		.size	chEvtRegisterMaskWithFlagsI, .-chEvtRegisterMaskWithFlagsI
 120              		.section	.text.chEvtRegisterMaskWithFlags,"ax",@progbits
 121              		.p2align 4
 122              		.globl	chEvtRegisterMaskWithFlags
 123              		.type	chEvtRegisterMaskWithFlags, @function
 124              	chEvtRegisterMaskWithFlags:
 125              	.LVL4:
 126              	.LFB218:
 127              		.loc 1 181 54 is_stmt 1 view -0
 128              		.cfi_startproc
 129              		.loc 1 183 3 view .LVU45
 130              		.loc 1 184 3 view .LVU46
 131 0000 E8FCFFFF 		call	__x86.get_pc_thunk.dx
 131      FF
 132 0005 81C20200 		addl	$_GLOBAL_OFFSET_TABLE_, %edx
 132      0000
 133              		.loc 1 181 54 is_stmt 0 view .LVU47
 134 000b 56       		pushl	%esi
 135              		.cfi_def_cfa_offset 8
 136              		.cfi_offset 6, -8
 137 000c 53       		pushl	%ebx
 138              		.cfi_def_cfa_offset 12
 139              		.cfi_offset 3, -12
 140              		.loc 1 181 54 view .LVU48
 141 000d 8B4C240C 		movl	12(%esp), %ecx
 142              	.LVL5:
 143              		.loc 1 181 54 view .LVU49
 144 0011 8B442410 		movl	16(%esp), %eax
 145              	.LVL6:
 146              	.LBB164:
 147              	.LBI164:
 148              		.loc 1 146 6 is_stmt 1 view .LVU50
 149              	.LBB165:
 150              		.loc 1 150 3 view .LVU51
 151              	.LBB166:
 152              	.LBI166:
 153              		.loc 2 527 25 view .LVU52
 154              	.LBB167:
 155              		.loc 2 529 3 view .LVU53
 156              	.LBE167:
 157              	.LBE166:
 158              		.loc 1 155 17 is_stmt 0 view .LVU54
 159 0015 8B31     		movl	(%ecx), %esi
 160              	.LBB169:
 161              	.LBB168:
 162              		.loc 2 529 10 view .LVU55
 163 0017 8B9A0000 		movl	ch0@GOT(%edx), %ebx
 163      0000
 164 001d 8B5B0C   		movl	12(%ebx), %ebx
GAS LISTING /tmp/ccExXJbd.s 			page 4


 165              	.LVL7:
 166              		.loc 2 529 10 view .LVU56
 167              	.LBE168:
 168              	.LBE169:
 169              		.loc 1 152 21 is_stmt 1 view .LVU57
 170              		.loc 1 153 3 view .LVU58
 171              		.loc 1 153 3 view .LVU59
 172              		.loc 1 153 3 view .LVU60
 173              		.loc 1 155 3 view .LVU61
 174              		.loc 1 155 17 is_stmt 0 view .LVU62
 175 0020 8930     		movl	%esi, (%eax)
 176              		.loc 1 156 3 is_stmt 1 view .LVU63
 177              		.loc 1 156 17 is_stmt 0 view .LVU64
 178 0022 8901     		movl	%eax, (%ecx)
 179              		.loc 1 157 3 is_stmt 1 view .LVU65
 180              		.loc 1 158 17 is_stmt 0 view .LVU66
 181 0024 8B4C2414 		movl	20(%esp), %ecx
 182              		.loc 1 157 17 view .LVU67
 183 0028 895804   		movl	%ebx, 4(%eax)
 184              		.loc 1 158 3 is_stmt 1 view .LVU68
 185              		.loc 1 158 17 is_stmt 0 view .LVU69
 186 002b 894808   		movl	%ecx, 8(%eax)
 187              		.loc 1 159 3 is_stmt 1 view .LVU70
 188              		.loc 1 160 17 is_stmt 0 view .LVU71
 189 002e 8B4C2418 		movl	24(%esp), %ecx
 190              		.loc 1 159 17 view .LVU72
 191 0032 C7400C00 		movl	$0, 12(%eax)
 191      000000
 192              		.loc 1 160 3 is_stmt 1 view .LVU73
 193              		.loc 1 160 17 is_stmt 0 view .LVU74
 194 0039 894810   		movl	%ecx, 16(%eax)
 195              	.LVL8:
 196              		.loc 1 160 17 view .LVU75
 197              	.LBE165:
 198              	.LBE164:
 199              		.loc 1 185 3 is_stmt 1 view .LVU76
 200              	.LBB170:
 201              	.LBI170:
 202              		.file 3 "../../../os/rt/include/chsys.h"
 203              		.loc 3 421 20 view .LVU77
 204              	.LBB171:
 205              		.loc 3 423 23 view .LVU78
 206              		.loc 3 424 34 view .LVU79
 207              		.loc 3 430 3 view .LVU80
 208              		.loc 3 430 3 view .LVU81
 209              		.loc 3 430 3 view .LVU82
 210              		.loc 3 434 3 view .LVU83
 211              	.LBB172:
 212              	.LBI172:
 213              		.file 4 "../../../os/common/ports/SIMIA32/chcore.h"
 214              		.loc 4 370 20 view .LVU84
 215              	.LBB173:
 216              		.loc 4 372 3 view .LVU85
 217              		.loc 4 372 16 is_stmt 0 view .LVU86
 218 003c 8B820000 		movl	port_irq_sts@GOT(%edx), %eax
 218      0000
 219 0042 C7000000 		movl	$0, (%eax)
GAS LISTING /tmp/ccExXJbd.s 			page 5


 219      0000
 220              	.LBE173:
 221              	.LBE172:
 222              	.LBE171:
 223              	.LBE170:
 224              		.loc 1 186 1 view .LVU87
 225 0048 5B       		popl	%ebx
 226              		.cfi_restore 3
 227              		.cfi_def_cfa_offset 8
 228              	.LVL9:
 229              		.loc 1 186 1 view .LVU88
 230 0049 5E       		popl	%esi
 231              		.cfi_restore 6
 232              		.cfi_def_cfa_offset 4
 233 004a C3       		ret
 234              		.cfi_endproc
 235              	.LFE218:
 236              		.size	chEvtRegisterMaskWithFlags, .-chEvtRegisterMaskWithFlags
 237              		.section	.text.chEvtUnregister,"ax",@progbits
 238              		.p2align 4
 239              		.globl	chEvtUnregister
 240              		.type	chEvtUnregister, @function
 241              	chEvtUnregister:
 242              	.LVL10:
 243              	.LFB219:
 244              		.loc 1 201 66 is_stmt 1 view -0
 245              		.cfi_startproc
 246              		.loc 1 202 3 view .LVU90
 247              		.loc 1 204 3 view .LVU91
 248              		.loc 1 204 3 view .LVU92
 249              		.loc 1 204 3 view .LVU93
 250              		.loc 1 207 3 view .LVU94
 251              		.loc 1 201 66 is_stmt 0 view .LVU95
 252 0000 56       		pushl	%esi
 253              		.cfi_def_cfa_offset 8
 254              		.cfi_offset 6, -8
 255 0001 E8FCFFFF 		call	__x86.get_pc_thunk.si
 255      FF
 256 0006 81C60200 		addl	$_GLOBAL_OFFSET_TABLE_, %esi
 256      0000
 257 000c 53       		pushl	%ebx
 258              		.cfi_def_cfa_offset 12
 259              		.cfi_offset 3, -12
 260              		.loc 1 201 66 view .LVU96
 261 000d 8B54240C 		movl	12(%esp), %edx
 262              	.LVL11:
 263              		.loc 1 209 3 is_stmt 1 view .LVU97
 264              	.LBB174:
 265              	.LBI174:
 266              		.loc 3 407 20 view .LVU98
 267              	.LBB175:
 268              		.loc 3 409 3 view .LVU99
 269              		.loc 3 410 35 view .LVU100
 270              		.loc 3 411 21 view .LVU101
 271              	.LBE175:
 272              	.LBE174:
 273              		.loc 1 201 66 is_stmt 0 view .LVU102
GAS LISTING /tmp/ccExXJbd.s 			page 6


 274 0011 8B5C2410 		movl	16(%esp), %ebx
 275              		.loc 1 207 5 view .LVU103
 276 0015 89D0     		movl	%edx, %eax
 277              	.LBB177:
 278              	.LBB176:
 279              		.loc 3 412 1 view .LVU104
 280 0017 EB0B     		jmp	.L9
 281              	.LVL12:
 282 0019 8DB42600 		.p2align 4,,10
 282      000000
 283              		.p2align 3
 284              	.L11:
 285              		.loc 3 412 1 view .LVU105
 286              	.LBE176:
 287              	.LBE177:
 288              		.loc 1 213 5 is_stmt 1 view .LVU106
 289              		.loc 1 213 8 is_stmt 0 view .LVU107
 290 0020 39D8     		cmpl	%ebx, %eax
 291 0022 741C     		je	.L14
 292              	.LVL13:
 293              	.L9:
 294              		.loc 1 211 18 is_stmt 1 view .LVU108
 295 0024 89C1     		movl	%eax, %ecx
 296              		.loc 1 211 11 is_stmt 0 view .LVU109
 297 0026 8B00     		movl	(%eax), %eax
 298              	.LVL14:
 299              		.loc 1 211 18 view .LVU110
 300 0028 39C2     		cmpl	%eax, %edx
 301 002a 75F4     		jne	.L11
 302              		.loc 1 219 3 is_stmt 1 view .LVU111
 303              	.LBB178:
 304              	.LBI178:
 305              		.loc 3 421 20 view .LVU112
 306              	.LBB179:
 307              		.loc 3 423 23 view .LVU113
 308              		.loc 3 424 34 view .LVU114
 309              		.loc 3 430 3 view .LVU115
 310              		.loc 3 430 3 view .LVU116
 311              		.loc 3 430 3 view .LVU117
 312              		.loc 3 434 3 view .LVU118
 313              	.LBB180:
 314              	.LBI180:
 315              		.loc 4 370 20 view .LVU119
 316              	.LBB181:
 317              		.loc 4 372 3 view .LVU120
 318              		.loc 4 372 16 is_stmt 0 view .LVU121
 319 002c 8B860000 		movl	port_irq_sts@GOT(%esi), %eax
 319      0000
 320 0032 C7000000 		movl	$0, (%eax)
 320      0000
 321              	.LBE181:
 322              	.LBE180:
 323              	.LBE179:
 324              	.LBE178:
 325              		.loc 1 220 1 view .LVU122
 326 0038 5B       		popl	%ebx
 327              		.cfi_remember_state
GAS LISTING /tmp/ccExXJbd.s 			page 7


 328              		.cfi_restore 3
 329              		.cfi_def_cfa_offset 8
 330              	.LVL15:
 331              		.loc 1 220 1 view .LVU123
 332 0039 5E       		popl	%esi
 333              		.cfi_restore 6
 334              		.cfi_def_cfa_offset 4
 335 003a C3       		ret
 336              	.LVL16:
 337 003b 8D742600 		.p2align 4,,10
 337      90
 338              		.p2align 3
 339              	.L14:
 340              		.cfi_restore_state
 341              		.loc 1 214 7 is_stmt 1 view .LVU124
 342              		.loc 1 214 20 is_stmt 0 view .LVU125
 343 0040 8B00     		movl	(%eax), %eax
 344              		.loc 1 214 15 view .LVU126
 345 0042 8901     		movl	%eax, (%ecx)
 346              		.loc 1 215 7 is_stmt 1 view .LVU127
 347              		.loc 1 219 3 view .LVU128
 348              	.LBB185:
 349              		.loc 3 421 20 view .LVU129
 350              	.LBB184:
 351              		.loc 3 423 23 view .LVU130
 352              		.loc 3 424 34 view .LVU131
 353              		.loc 3 430 3 view .LVU132
 354              		.loc 3 430 3 view .LVU133
 355              		.loc 3 430 3 view .LVU134
 356              		.loc 3 434 3 view .LVU135
 357              	.LBB183:
 358              		.loc 4 370 20 view .LVU136
 359              	.LBB182:
 360              		.loc 4 372 3 view .LVU137
 361              		.loc 4 372 16 is_stmt 0 view .LVU138
 362 0044 8B860000 		movl	port_irq_sts@GOT(%esi), %eax
 362      0000
 363 004a C7000000 		movl	$0, (%eax)
 363      0000
 364              	.LBE182:
 365              	.LBE183:
 366              	.LBE184:
 367              	.LBE185:
 368              		.loc 1 220 1 view .LVU139
 369 0050 5B       		popl	%ebx
 370              		.cfi_restore 3
 371              		.cfi_def_cfa_offset 8
 372              	.LVL17:
 373              		.loc 1 220 1 view .LVU140
 374 0051 5E       		popl	%esi
 375              		.cfi_restore 6
 376              		.cfi_def_cfa_offset 4
 377 0052 C3       		ret
 378              		.cfi_endproc
 379              	.LFE219:
 380              		.size	chEvtUnregister, .-chEvtUnregister
 381              		.section	.text.chEvtGetAndClearEventsI,"ax",@progbits
GAS LISTING /tmp/ccExXJbd.s 			page 8


 382              		.p2align 4
 383              		.globl	chEvtGetAndClearEventsI
 384              		.type	chEvtGetAndClearEventsI, @function
 385              	chEvtGetAndClearEventsI:
 386              	.LVL18:
 387              	.LFB220:
 388              		.loc 1 230 57 is_stmt 1 view -0
 389              		.cfi_startproc
 390              		.loc 1 231 3 view .LVU142
 391              	.LBB186:
 392              	.LBI186:
 393              		.loc 2 527 25 view .LVU143
 394              	.LBB187:
 395              		.loc 2 529 3 view .LVU144
 396 0000 E8FCFFFF 		call	__x86.get_pc_thunk.ax
 396      FF
 397 0005 05010000 		addl	$_GLOBAL_OFFSET_TABLE_, %eax
 397      00
 398              	.LBE187:
 399              	.LBE186:
 400              		.loc 1 230 57 is_stmt 0 view .LVU145
 401 000a 53       		pushl	%ebx
 402              		.cfi_def_cfa_offset 8
 403              		.cfi_offset 3, -8
 404              		.loc 1 230 57 view .LVU146
 405 000b 8B4C2408 		movl	8(%esp), %ecx
 406              		.loc 1 237 23 view .LVU147
 407 000f 89CA     		movl	%ecx, %edx
 408 0011 F7D2     		notl	%edx
 409              	.LBB189:
 410              	.LBB188:
 411              		.loc 2 529 10 view .LVU148
 412 0013 8B800000 		movl	ch0@GOT(%eax), %eax
 412      0000
 413 0019 8B580C   		movl	12(%eax), %ebx
 414              	.LVL19:
 415              		.loc 2 529 10 view .LVU149
 416              	.LBE188:
 417              	.LBE189:
 418              		.loc 1 232 3 is_stmt 1 view .LVU150
 419              		.loc 1 234 21 view .LVU151
 420              		.loc 1 236 3 view .LVU152
 421              		.loc 1 236 13 is_stmt 0 view .LVU153
 422 001c 8B4344   		movl	68(%ebx), %eax
 423              	.LVL20:
 424              		.loc 1 237 3 is_stmt 1 view .LVU154
 425              		.loc 1 237 20 is_stmt 0 view .LVU155
 426 001f 21C2     		andl	%eax, %edx
 427              		.loc 1 236 5 view .LVU156
 428 0021 21C8     		andl	%ecx, %eax
 429              	.LVL21:
 430              		.loc 1 237 20 view .LVU157
 431 0023 895344   		movl	%edx, 68(%ebx)
 432              		.loc 1 239 3 is_stmt 1 view .LVU158
 433              		.loc 1 240 1 is_stmt 0 view .LVU159
 434 0026 5B       		popl	%ebx
 435              		.cfi_restore 3
GAS LISTING /tmp/ccExXJbd.s 			page 9


 436              		.cfi_def_cfa_offset 4
 437              	.LVL22:
 438              		.loc 1 240 1 view .LVU160
 439 0027 C3       		ret
 440              		.cfi_endproc
 441              	.LFE220:
 442              		.size	chEvtGetAndClearEventsI, .-chEvtGetAndClearEventsI
 443              		.section	.text.chEvtGetAndClearEvents,"ax",@progbits
 444              		.p2align 4
 445              		.globl	chEvtGetAndClearEvents
 446              		.type	chEvtGetAndClearEvents, @function
 447              	chEvtGetAndClearEvents:
 448              	.LVL23:
 449              	.LFB221:
 450              		.loc 1 250 56 is_stmt 1 view -0
 451              		.cfi_startproc
 452              		.loc 1 251 3 view .LVU162
 453              		.loc 1 253 3 view .LVU163
 454              		.loc 1 254 3 view .LVU164
 455              		.loc 1 250 56 is_stmt 0 view .LVU165
 456 0000 56       		pushl	%esi
 457              		.cfi_def_cfa_offset 8
 458              		.cfi_offset 6, -8
 459 0001 53       		pushl	%ebx
 460              		.cfi_def_cfa_offset 12
 461              		.cfi_offset 3, -12
 462              		.loc 1 250 56 view .LVU166
 463 0002 8B44240C 		movl	12(%esp), %eax
 464              	.LVL24:
 465              	.LBB190:
 466              	.LBI190:
 467              		.loc 1 230 13 is_stmt 1 view .LVU167
 468              	.LBB191:
 469              		.loc 1 231 3 view .LVU168
 470              	.LBB192:
 471              	.LBI192:
 472              		.loc 2 527 25 view .LVU169
 473              	.LBB193:
 474              		.loc 2 529 3 view .LVU170
 475 0006 E8FCFFFF 		call	__x86.get_pc_thunk.bx
 475      FF
 476 000b 81C30200 		addl	$_GLOBAL_OFFSET_TABLE_, %ebx
 476      0000
 477              		.loc 2 529 10 is_stmt 0 view .LVU171
 478 0011 8B930000 		movl	ch0@GOT(%ebx), %edx
 478      0000
 479 0017 8B720C   		movl	12(%edx), %esi
 480              	.LVL25:
 481              		.loc 2 529 10 view .LVU172
 482              	.LBE193:
 483              	.LBE192:
 484              		.loc 1 232 3 is_stmt 1 view .LVU173
 485              		.loc 1 234 21 view .LVU174
 486              		.loc 1 236 3 view .LVU175
 487              		.loc 1 237 23 is_stmt 0 view .LVU176
 488 001a 89C2     		movl	%eax, %edx
 489 001c F7D2     		notl	%edx
GAS LISTING /tmp/ccExXJbd.s 			page 10


 490              		.loc 1 236 13 view .LVU177
 491 001e 8B4E44   		movl	68(%esi), %ecx
 492              	.LVL26:
 493              		.loc 1 237 3 is_stmt 1 view .LVU178
 494              		.loc 1 237 20 is_stmt 0 view .LVU179
 495 0021 21CA     		andl	%ecx, %edx
 496              		.loc 1 236 5 view .LVU180
 497 0023 21C8     		andl	%ecx, %eax
 498              	.LVL27:
 499              		.loc 1 237 20 view .LVU181
 500 0025 895644   		movl	%edx, 68(%esi)
 501              		.loc 1 239 3 is_stmt 1 view .LVU182
 502              	.LVL28:
 503              		.loc 1 239 3 is_stmt 0 view .LVU183
 504              	.LBE191:
 505              	.LBE190:
 506              		.loc 1 255 3 is_stmt 1 view .LVU184
 507              	.LBB194:
 508              	.LBI194:
 509              		.loc 3 421 20 view .LVU185
 510              	.LBB195:
 511              		.loc 3 423 23 view .LVU186
 512              		.loc 3 424 34 view .LVU187
 513              		.loc 3 430 3 view .LVU188
 514              		.loc 3 430 3 view .LVU189
 515              		.loc 3 430 3 view .LVU190
 516              		.loc 3 434 3 view .LVU191
 517              	.LBB196:
 518              	.LBI196:
 519              		.loc 4 370 20 view .LVU192
 520              	.LBB197:
 521              		.loc 4 372 3 view .LVU193
 522              		.loc 4 372 16 is_stmt 0 view .LVU194
 523 0028 8B930000 		movl	port_irq_sts@GOT(%ebx), %edx
 523      0000
 524 002e C7020000 		movl	$0, (%edx)
 524      0000
 525              	.LBE197:
 526              	.LBE196:
 527              	.LBE195:
 528              	.LBE194:
 529              		.loc 1 257 3 is_stmt 1 view .LVU195
 530              		.loc 1 258 1 is_stmt 0 view .LVU196
 531 0034 5B       		popl	%ebx
 532              		.cfi_restore 3
 533              		.cfi_def_cfa_offset 8
 534 0035 5E       		popl	%esi
 535              		.cfi_restore 6
 536              		.cfi_def_cfa_offset 4
 537              	.LVL29:
 538              		.loc 1 258 1 view .LVU197
 539 0036 C3       		ret
 540              		.cfi_endproc
 541              	.LFE221:
 542              		.size	chEvtGetAndClearEvents, .-chEvtGetAndClearEvents
 543              		.section	.text.chEvtAddEvents,"ax",@progbits
 544              		.p2align 4
GAS LISTING /tmp/ccExXJbd.s 			page 11


 545              		.globl	chEvtAddEvents
 546              		.type	chEvtAddEvents, @function
 547              	chEvtAddEvents:
 548              	.LVL30:
 549              	.LFB222:
 550              		.loc 1 269 48 is_stmt 1 view -0
 551              		.cfi_startproc
 552              		.loc 1 270 3 view .LVU199
 553              		.loc 1 272 3 view .LVU200
 554              		.loc 1 273 3 view .LVU201
 555              	.LBB198:
 556              	.LBI198:
 557              		.file 5 "../../../os/rt/include/chevents.h"
 558              		.loc 5 264 27 view .LVU202
 559              	.LBB199:
 560              		.loc 5 266 3 view .LVU203
 561 0000 E8FCFFFF 		call	__x86.get_pc_thunk.dx
 561      FF
 562 0005 81C20200 		addl	$_GLOBAL_OFFSET_TABLE_, %edx
 562      0000
 563              		.loc 5 266 10 is_stmt 0 view .LVU204
 564 000b 8B820000 		movl	ch0@GOT(%edx), %eax
 564      0000
 565              	.LBE199:
 566              	.LBE198:
 567              	.LBB202:
 568              	.LBB203:
 569              	.LBB204:
 570              	.LBB205:
 571              		.loc 4 372 16 view .LVU205
 572 0011 8B920000 		movl	port_irq_sts@GOT(%edx), %edx
 572      0000
 573              	.LBE205:
 574              	.LBE204:
 575              	.LBE203:
 576              	.LBE202:
 577              	.LBB212:
 578              	.LBB200:
 579              		.loc 5 266 10 view .LVU206
 580 0017 8B480C   		movl	12(%eax), %ecx
 581              		.loc 5 266 43 view .LVU207
 582 001a 8B442404 		movl	4(%esp), %eax
 583              	.LBE200:
 584              	.LBE212:
 585              	.LBB213:
 586              	.LBB210:
 587              	.LBB208:
 588              	.LBB206:
 589              		.loc 4 372 16 view .LVU208
 590 001e C7020000 		movl	$0, (%edx)
 590      0000
 591              	.LBE206:
 592              	.LBE208:
 593              	.LBE210:
 594              	.LBE213:
 595              	.LBB214:
 596              	.LBB201:
GAS LISTING /tmp/ccExXJbd.s 			page 12


 597              		.loc 5 266 43 view .LVU209
 598 0024 0B4144   		orl	68(%ecx), %eax
 599 0027 894144   		movl	%eax, 68(%ecx)
 600              	.LVL31:
 601              		.loc 5 266 43 view .LVU210
 602              	.LBE201:
 603              	.LBE214:
 604              		.loc 1 274 3 is_stmt 1 view .LVU211
 605              	.LBB215:
 606              	.LBI202:
 607              		.loc 3 421 20 view .LVU212
 608              	.LBB211:
 609              		.loc 3 423 23 view .LVU213
 610              		.loc 3 424 34 view .LVU214
 611              		.loc 3 430 3 view .LVU215
 612              		.loc 3 430 3 view .LVU216
 613              		.loc 3 430 3 view .LVU217
 614              		.loc 3 434 3 view .LVU218
 615              	.LBB209:
 616              	.LBI204:
 617              		.loc 4 370 20 view .LVU219
 618              	.LBB207:
 619              		.loc 4 372 3 view .LVU220
 620              	.LBE207:
 621              	.LBE209:
 622              	.LBE211:
 623              	.LBE215:
 624              		.loc 1 276 3 view .LVU221
 625              		.loc 1 277 1 is_stmt 0 view .LVU222
 626 002a C3       		ret
 627              		.cfi_endproc
 628              	.LFE222:
 629              		.size	chEvtAddEvents, .-chEvtAddEvents
 630              		.section	.text.chEvtGetAndClearFlagsI,"ax",@progbits
 631              		.p2align 4
 632              		.globl	chEvtGetAndClearFlagsI
 633              		.type	chEvtGetAndClearFlagsI, @function
 634              	chEvtGetAndClearFlagsI:
 635              	.LVL32:
 636              	.LFB223:
 637              		.loc 1 290 60 is_stmt 1 view -0
 638              		.cfi_startproc
 639              		.loc 1 291 3 view .LVU224
 640              		.loc 1 293 21 view .LVU225
 641              		.loc 1 294 3 view .LVU226
 642              		.loc 1 294 3 view .LVU227
 643              		.loc 1 294 3 view .LVU228
 644              		.loc 1 296 3 view .LVU229
 645              		.loc 1 290 60 is_stmt 0 view .LVU230
 646 0000 8B542404 		movl	4(%esp), %edx
 647              		.loc 1 296 9 view .LVU231
 648 0004 8B420C   		movl	12(%edx), %eax
 649              	.LVL33:
 650              		.loc 1 297 3 is_stmt 1 view .LVU232
 651              		.loc 1 299 16 is_stmt 0 view .LVU233
 652 0007 234210   		andl	16(%edx), %eax
 653              	.LVL34:
GAS LISTING /tmp/ccExXJbd.s 			page 13


 654              		.loc 1 297 14 view .LVU234
 655 000a C7420C00 		movl	$0, 12(%edx)
 655      000000
 656              	.LVL35:
 657              		.loc 1 299 3 is_stmt 1 view .LVU235
 658              		.loc 1 300 1 is_stmt 0 view .LVU236
 659 0011 C3       		ret
 660              		.cfi_endproc
 661              	.LFE223:
 662              		.size	chEvtGetAndClearFlagsI, .-chEvtGetAndClearFlagsI
 663              		.section	.text.chEvtGetAndClearFlags,"ax",@progbits
 664              		.p2align 4
 665              		.globl	chEvtGetAndClearFlags
 666              		.type	chEvtGetAndClearFlags, @function
 667              	chEvtGetAndClearFlags:
 668              	.LVL36:
 669              	.LFB224:
 670              		.loc 1 313 59 is_stmt 1 view -0
 671              		.cfi_startproc
 672              		.loc 1 314 3 view .LVU238
 673              		.loc 1 316 3 view .LVU239
 674              		.loc 1 316 3 view .LVU240
 675              		.loc 1 316 3 view .LVU241
 676              		.loc 1 318 3 view .LVU242
 677              		.loc 1 319 3 view .LVU243
 678 0000 E8FCFFFF 		call	__x86.get_pc_thunk.cx
 678      FF
 679 0005 81C10200 		addl	$_GLOBAL_OFFSET_TABLE_, %ecx
 679      0000
 680              		.loc 1 313 59 is_stmt 0 view .LVU244
 681 000b 8B542404 		movl	4(%esp), %edx
 682              		.loc 1 319 9 view .LVU245
 683 000f 8B420C   		movl	12(%edx), %eax
 684              	.LVL37:
 685              		.loc 1 320 3 is_stmt 1 view .LVU246
 686              		.loc 1 323 16 is_stmt 0 view .LVU247
 687 0012 234210   		andl	16(%edx), %eax
 688              	.LVL38:
 689              		.loc 1 320 14 view .LVU248
 690 0015 C7420C00 		movl	$0, 12(%edx)
 690      000000
 691              	.LVL39:
 692              		.loc 1 321 3 is_stmt 1 view .LVU249
 693              	.LBB216:
 694              	.LBI216:
 695              		.loc 3 421 20 view .LVU250
 696              	.LBB217:
 697              		.loc 3 423 23 view .LVU251
 698              		.loc 3 424 34 view .LVU252
 699              		.loc 3 430 3 view .LVU253
 700              		.loc 3 430 3 view .LVU254
 701              		.loc 3 430 3 view .LVU255
 702              		.loc 3 434 3 view .LVU256
 703              	.LBB218:
 704              	.LBI218:
 705              		.loc 4 370 20 view .LVU257
 706              	.LBB219:
GAS LISTING /tmp/ccExXJbd.s 			page 14


 707              		.loc 4 372 3 view .LVU258
 708              		.loc 4 372 16 is_stmt 0 view .LVU259
 709 001c 8B890000 		movl	port_irq_sts@GOT(%ecx), %ecx
 709      0000
 710 0022 C7010000 		movl	$0, (%ecx)
 710      0000
 711              	.LBE219:
 712              	.LBE218:
 713              	.LBE217:
 714              	.LBE216:
 715              		.loc 1 323 3 is_stmt 1 view .LVU260
 716              		.loc 1 324 1 is_stmt 0 view .LVU261
 717 0028 C3       		ret
 718              		.cfi_endproc
 719              	.LFE224:
 720              		.size	chEvtGetAndClearFlags, .-chEvtGetAndClearFlags
 721              		.section	.text.chEvtSignalI,"ax",@progbits
 722              		.p2align 4
 723              		.globl	chEvtSignalI
 724              		.type	chEvtSignalI, @function
 725              	chEvtSignalI:
 726              	.LVL40:
 727              	.LFB225:
 728              		.loc 1 338 53 is_stmt 1 view -0
 729              		.cfi_startproc
 730              		.loc 1 340 21 view .LVU263
 731              		.loc 1 341 3 view .LVU264
 732              		.loc 1 341 3 view .LVU265
 733              		.loc 1 341 3 view .LVU266
 734              		.loc 1 343 3 view .LVU267
 735              		.loc 1 338 53 is_stmt 0 view .LVU268
 736 0000 53       		pushl	%ebx
 737              		.cfi_def_cfa_offset 8
 738              		.cfi_offset 3, -8
 739 0001 E8FCFFFF 		call	__x86.get_pc_thunk.bx
 739      FF
 740 0006 81C30200 		addl	$_GLOBAL_OFFSET_TABLE_, %ebx
 740      0000
 741 000c 83EC08   		subl	$8, %esp
 742              		.cfi_def_cfa_offset 16
 743              		.loc 1 338 53 view .LVU269
 744 000f 8B542410 		movl	16(%esp), %edx
 745              		.loc 1 343 16 view .LVU270
 746 0013 8B442414 		movl	20(%esp), %eax
 747              		.loc 1 345 11 view .LVU271
 748 0017 0FB64A1C 		movzbl	28(%edx), %ecx
 749              		.loc 1 343 16 view .LVU272
 750 001b 0B4244   		orl	68(%edx), %eax
 751 001e 894244   		movl	%eax, 68(%edx)
 752              		.loc 1 345 3 is_stmt 1 view .LVU273
 753              		.loc 1 345 6 is_stmt 0 view .LVU274
 754 0021 80F90A   		cmpb	$10, %cl
 755 0024 7432     		je	.L27
 756              		.loc 1 346 59 view .LVU275
 757 0026 80F90B   		cmpb	$11, %cl
 758 0029 7405     		je	.L28
 759              	.L22:
GAS LISTING /tmp/ccExXJbd.s 			page 15


 760              		.loc 1 352 1 view .LVU276
 761 002b 83C408   		addl	$8, %esp
 762              		.cfi_remember_state
 763              		.cfi_def_cfa_offset 8
 764 002e 5B       		popl	%ebx
 765              		.cfi_restore 3
 766              		.cfi_def_cfa_offset 4
 767 002f C3       		ret
 768              		.p2align 4,,10
 769              		.p2align 3
 770              	.L28:
 771              		.cfi_restore_state
 772              		.loc 1 348 30 view .LVU277
 773 0030 8B4A34   		movl	52(%edx), %ecx
 774              		.loc 1 348 23 view .LVU278
 775 0033 21C8     		andl	%ecx, %eax
 776              		.loc 1 347 41 view .LVU279
 777 0035 39C1     		cmpl	%eax, %ecx
 778 0037 75F2     		jne	.L22
 779              	.L24:
 780              		.loc 1 349 5 is_stmt 1 view .LVU280
 781              		.loc 1 350 12 is_stmt 0 view .LVU281
 782 0039 83EC0C   		subl	$12, %esp
 783              		.cfi_def_cfa_offset 28
 784              		.loc 1 349 18 view .LVU282
 785 003c C7423400 		movl	$0, 52(%edx)
 785      000000
 786              		.loc 1 350 5 is_stmt 1 view .LVU283
 787              		.loc 1 350 12 is_stmt 0 view .LVU284
 788 0043 52       		pushl	%edx
 789              		.cfi_def_cfa_offset 32
 790 0044 E8FCFFFF 		call	chSchReadyI@PLT
 790      FF
 791              	.LVL41:
 792 0049 83C410   		addl	$16, %esp
 793              		.cfi_def_cfa_offset 16
 794              		.loc 1 352 1 view .LVU285
 795 004c 83C408   		addl	$8, %esp
 796              		.cfi_remember_state
 797              		.cfi_def_cfa_offset 8
 798 004f 5B       		popl	%ebx
 799              		.cfi_restore 3
 800              		.cfi_def_cfa_offset 4
 801 0050 C3       		ret
 802              		.p2align 4,,10
 803 0051 8DB42600 		.p2align 3
 803      000000
 804              	.L27:
 805              		.cfi_restore_state
 806              		.loc 1 346 23 discriminator 1 view .LVU286
 807 0058 234234   		andl	52(%edx), %eax
 808              		.loc 1 345 40 discriminator 1 view .LVU287
 809 005b 75DC     		jne	.L24
 810 005d EBCC     		jmp	.L22
 811              		.cfi_endproc
 812              	.LFE225:
 813              		.size	chEvtSignalI, .-chEvtSignalI
GAS LISTING /tmp/ccExXJbd.s 			page 16


 814              		.section	.text.chEvtSignal,"ax",@progbits
 815              		.p2align 4
 816              		.globl	chEvtSignal
 817              		.type	chEvtSignal, @function
 818              	chEvtSignal:
 819              	.LVL42:
 820              	.LFB226:
 821              		.loc 1 362 52 is_stmt 1 view -0
 822              		.cfi_startproc
 823              		.loc 1 364 3 view .LVU289
 824              		.loc 1 364 3 view .LVU290
 825              		.loc 1 364 3 view .LVU291
 826              		.loc 1 366 3 view .LVU292
 827              	.LBB229:
 828              	.LBI229:
 829              		.loc 3 407 20 view .LVU293
 830              		.loc 3 409 3 view .LVU294
 831              	.LBB230:
 832              	.LBI230:
 833              		.loc 4 361 20 view .LVU295
 834              	.LBB231:
 835              		.loc 4 363 3 view .LVU296
 836              	.LBE231:
 837              	.LBE230:
 838              	.LBE229:
 839              		.loc 1 362 52 is_stmt 0 view .LVU297
 840 0000 56       		pushl	%esi
 841              		.cfi_def_cfa_offset 8
 842              		.cfi_offset 6, -8
 843 0001 53       		pushl	%ebx
 844              		.cfi_def_cfa_offset 12
 845              		.cfi_offset 3, -12
 846 0002 E8FCFFFF 		call	__x86.get_pc_thunk.bx
 846      FF
 847 0007 81C30200 		addl	$_GLOBAL_OFFSET_TABLE_, %ebx
 847      0000
 848 000d 83EC04   		subl	$4, %esp
 849              		.cfi_def_cfa_offset 16
 850              		.loc 1 362 52 view .LVU298
 851 0010 8B542410 		movl	16(%esp), %edx
 852              	.LBB236:
 853              	.LBB237:
 854              		.loc 1 343 16 view .LVU299
 855 0014 8B442414 		movl	20(%esp), %eax
 856              		.loc 1 345 11 view .LVU300
 857 0018 0FB64A1C 		movzbl	28(%edx), %ecx
 858              		.loc 1 343 16 view .LVU301
 859 001c 0B4244   		orl	68(%edx), %eax
 860              	.LBE237:
 861              	.LBE236:
 862              	.LBB241:
 863              	.LBB234:
 864              	.LBB232:
 865              		.loc 4 363 16 view .LVU302
 866 001f 8BB30000 		movl	port_irq_sts@GOT(%ebx), %esi
 866      0000
 867              	.LBE232:
GAS LISTING /tmp/ccExXJbd.s 			page 17


 868              	.LBE234:
 869              	.LBE241:
 870              	.LBB242:
 871              	.LBB238:
 872              		.loc 1 343 16 view .LVU303
 873 0025 894244   		movl	%eax, 68(%edx)
 874              	.LBE238:
 875              	.LBE242:
 876              	.LBB243:
 877              	.LBB235:
 878              	.LBB233:
 879              		.loc 4 363 16 view .LVU304
 880 0028 C7060100 		movl	$1, (%esi)
 880      0000
 881              	.LBE233:
 882              	.LBE235:
 883              		.loc 3 410 35 is_stmt 1 view .LVU305
 884              		.loc 3 411 21 view .LVU306
 885              	.LBE243:
 886              		.loc 1 367 3 view .LVU307
 887              	.LVL43:
 888              	.LBB244:
 889              	.LBI236:
 890              		.loc 1 338 6 view .LVU308
 891              	.LBB239:
 892              		.loc 1 340 21 view .LVU309
 893              		.loc 1 341 3 view .LVU310
 894              		.loc 1 341 3 view .LVU311
 895              		.loc 1 341 3 view .LVU312
 896              		.loc 1 343 3 view .LVU313
 897              		.loc 1 345 3 view .LVU314
 898              		.loc 1 345 6 is_stmt 0 view .LVU315
 899 002e 80F90A   		cmpb	$10, %cl
 900 0031 743D     		je	.L34
 901              		.loc 1 346 59 view .LVU316
 902 0033 80F90B   		cmpb	$11, %cl
 903 0036 7418     		je	.L35
 904              	.LVL44:
 905              	.L32:
 906              		.loc 1 346 59 view .LVU317
 907              	.LBE239:
 908              	.LBE244:
 909              		.loc 1 368 3 is_stmt 1 view .LVU318
 910 0038 E8FCFFFF 		call	chSchRescheduleS@PLT
 910      FF
 911              	.LVL45:
 912              		.loc 1 369 3 view .LVU319
 913              	.LBB245:
 914              	.LBI245:
 915              		.loc 3 421 20 view .LVU320
 916              	.LBB246:
 917              		.loc 3 423 23 view .LVU321
 918              		.loc 3 424 34 view .LVU322
 919              		.loc 3 430 3 view .LVU323
 920              		.loc 3 430 3 view .LVU324
 921              		.loc 3 430 3 view .LVU325
 922              		.loc 3 434 3 view .LVU326
GAS LISTING /tmp/ccExXJbd.s 			page 18


 923              	.LBB247:
 924              	.LBI247:
 925              		.loc 4 370 20 view .LVU327
 926              	.LBB248:
 927              		.loc 4 372 3 view .LVU328
 928              		.loc 4 372 16 is_stmt 0 view .LVU329
 929 003d C7060000 		movl	$0, (%esi)
 929      0000
 930              	.LBE248:
 931              	.LBE247:
 932              	.LBE246:
 933              	.LBE245:
 934              		.loc 1 370 1 view .LVU330
 935 0043 83C404   		addl	$4, %esp
 936              		.cfi_remember_state
 937              		.cfi_def_cfa_offset 12
 938 0046 5B       		popl	%ebx
 939              		.cfi_restore 3
 940              		.cfi_def_cfa_offset 8
 941 0047 5E       		popl	%esi
 942              		.cfi_restore 6
 943              		.cfi_def_cfa_offset 4
 944 0048 C3       		ret
 945              	.LVL46:
 946 0049 8DB42600 		.p2align 4,,10
 946      000000
 947              		.p2align 3
 948              	.L35:
 949              		.cfi_restore_state
 950              	.LBB249:
 951              	.LBB240:
 952              		.loc 1 348 30 view .LVU331
 953 0050 8B4A34   		movl	52(%edx), %ecx
 954              		.loc 1 348 23 view .LVU332
 955 0053 21C8     		andl	%ecx, %eax
 956              		.loc 1 347 41 view .LVU333
 957 0055 39C1     		cmpl	%eax, %ecx
 958 0057 75DF     		jne	.L32
 959              	.L31:
 960              		.loc 1 349 5 is_stmt 1 view .LVU334
 961              		.loc 1 350 12 is_stmt 0 view .LVU335
 962 0059 83EC0C   		subl	$12, %esp
 963              		.cfi_def_cfa_offset 28
 964              		.loc 1 349 18 view .LVU336
 965 005c C7423400 		movl	$0, 52(%edx)
 965      000000
 966              		.loc 1 350 5 is_stmt 1 view .LVU337
 967              		.loc 1 350 12 is_stmt 0 view .LVU338
 968 0063 52       		pushl	%edx
 969              		.cfi_def_cfa_offset 32
 970 0064 E8FCFFFF 		call	chSchReadyI@PLT
 970      FF
 971              	.LVL47:
 972              		.loc 1 350 12 view .LVU339
 973 0069 83C410   		addl	$16, %esp
 974              		.cfi_def_cfa_offset 16
 975 006c EBCA     		jmp	.L32
GAS LISTING /tmp/ccExXJbd.s 			page 19


 976              	.LVL48:
 977 006e 6690     		.p2align 4,,10
 978              		.p2align 3
 979              	.L34:
 980              		.loc 1 346 23 view .LVU340
 981 0070 234234   		andl	52(%edx), %eax
 982              		.loc 1 345 40 view .LVU341
 983 0073 75E4     		jne	.L31
 984 0075 EBC1     		jmp	.L32
 985              	.LBE240:
 986              	.LBE249:
 987              		.cfi_endproc
 988              	.LFE226:
 989              		.size	chEvtSignal, .-chEvtSignal
 990              		.section	.text.chEvtBroadcastFlagsI,"ax",@progbits
 991              		.p2align 4
 992              		.globl	chEvtBroadcastFlagsI
 993              		.type	chEvtBroadcastFlagsI, @function
 994              	chEvtBroadcastFlagsI:
 995              	.LVL49:
 996              	.LFB227:
 997              		.loc 1 389 68 is_stmt 1 view -0
 998              		.cfi_startproc
 999              		.loc 1 390 3 view .LVU343
 1000              		.loc 1 392 21 view .LVU344
 1001              		.loc 1 393 3 view .LVU345
 1002              		.loc 1 393 3 view .LVU346
 1003              		.loc 1 393 3 view .LVU347
 1004              		.loc 1 395 3 view .LVU348
 1005              		.loc 1 389 68 is_stmt 0 view .LVU349
 1006 0000 55       		pushl	%ebp
 1007              		.cfi_def_cfa_offset 8
 1008              		.cfi_offset 5, -8
 1009 0001 57       		pushl	%edi
 1010              		.cfi_def_cfa_offset 12
 1011              		.cfi_offset 7, -12
 1012 0002 56       		pushl	%esi
 1013              		.cfi_def_cfa_offset 16
 1014              		.cfi_offset 6, -16
 1015 0003 53       		pushl	%ebx
 1016              		.cfi_def_cfa_offset 20
 1017              		.cfi_offset 3, -20
 1018 0004 E8FCFFFF 		call	__x86.get_pc_thunk.bx
 1018      FF
 1019 0009 81C30200 		addl	$_GLOBAL_OFFSET_TABLE_, %ebx
 1019      0000
 1020 000f 83EC0C   		subl	$12, %esp
 1021              		.cfi_def_cfa_offset 32
 1022              		.loc 1 389 68 view .LVU350
 1023 0012 8B6C2420 		movl	32(%esp), %ebp
 1024 0016 8B7C2424 		movl	36(%esp), %edi
 1025              		.loc 1 395 7 view .LVU351
 1026 001a 8B7500   		movl	0(%ebp), %esi
 1027              	.LVL50:
 1028              		.loc 1 397 3 is_stmt 1 view .LVU352
 1029              		.loc 1 397 14 view .LVU353
 1030 001d 39F5     		cmpl	%esi, %ebp
GAS LISTING /tmp/ccExXJbd.s 			page 20


 1031 001f 7512     		jne	.L43
 1032 0021 EB51     		jmp	.L36
 1033              	.LVL51:
 1034              		.p2align 4,,10
 1035 0023 8D742600 		.p2align 3
 1035      90
 1036              	.L40:
 1037              	.LBB252:
 1038              	.LBB253:
 1039              		.loc 1 346 59 is_stmt 0 view .LVU354
 1040 0028 80F90B   		cmpb	$11, %cl
 1041 002b 7453     		je	.L49
 1042              	.LVL52:
 1043              	.L39:
 1044              		.loc 1 346 59 view .LVU355
 1045              	.LBE253:
 1046              	.LBE252:
 1047              		.loc 1 406 5 is_stmt 1 view .LVU356
 1048              		.loc 1 406 9 is_stmt 0 view .LVU357
 1049 002d 8B36     		movl	(%esi), %esi
 1050              	.LVL53:
 1051              		.loc 1 397 14 is_stmt 1 view .LVU358
 1052 002f 39F5     		cmpl	%esi, %ebp
 1053 0031 7441     		je	.L36
 1054              	.L43:
 1055              		.loc 1 399 5 view .LVU359
 1056              		.loc 1 399 16 is_stmt 0 view .LVU360
 1057 0033 097E0C   		orl	%edi, 12(%esi)
 1058              		.loc 1 402 5 is_stmt 1 view .LVU361
 1059              		.loc 1 402 8 is_stmt 0 view .LVU362
 1060 0036 85FF     		testl	%edi, %edi
 1061 0038 7407     		je	.L38
 1062              		.loc 1 403 17 discriminator 1 view .LVU363
 1063 003a 89F8     		movl	%edi, %eax
 1064 003c 234610   		andl	16(%esi), %eax
 1065              		.loc 1 402 36 discriminator 1 view .LVU364
 1066 003f 74EC     		je	.L39
 1067              	.L38:
 1068              		.loc 1 404 7 is_stmt 1 view .LVU365
 1069 0041 8B5604   		movl	4(%esi), %edx
 1070              	.LVL54:
 1071              	.LBB257:
 1072              	.LBI252:
 1073              		.loc 1 338 6 view .LVU366
 1074              	.LBB254:
 1075              		.loc 1 340 21 view .LVU367
 1076              		.loc 1 341 3 view .LVU368
 1077              		.loc 1 341 3 view .LVU369
 1078              		.loc 1 341 3 view .LVU370
 1079              		.loc 1 343 3 view .LVU371
 1080              		.loc 1 343 16 is_stmt 0 view .LVU372
 1081 0044 8B4608   		movl	8(%esi), %eax
 1082              		.loc 1 345 11 view .LVU373
 1083 0047 0FB64A1C 		movzbl	28(%edx), %ecx
 1084              		.loc 1 343 16 view .LVU374
 1085 004b 0B4244   		orl	68(%edx), %eax
 1086 004e 894244   		movl	%eax, 68(%edx)
GAS LISTING /tmp/ccExXJbd.s 			page 21


 1087              		.loc 1 345 3 is_stmt 1 view .LVU375
 1088              		.loc 1 345 6 is_stmt 0 view .LVU376
 1089 0051 80F90A   		cmpb	$10, %cl
 1090 0054 75D2     		jne	.L40
 1091              		.loc 1 346 23 view .LVU377
 1092 0056 234234   		andl	52(%edx), %eax
 1093              		.loc 1 345 40 view .LVU378
 1094 0059 74D2     		je	.L39
 1095              	.L41:
 1096              		.loc 1 349 5 is_stmt 1 view .LVU379
 1097              		.loc 1 350 12 is_stmt 0 view .LVU380
 1098 005b 83EC0C   		subl	$12, %esp
 1099              		.cfi_def_cfa_offset 44
 1100              		.loc 1 349 18 view .LVU381
 1101 005e C7423400 		movl	$0, 52(%edx)
 1101      000000
 1102              		.loc 1 350 5 is_stmt 1 view .LVU382
 1103              		.loc 1 350 12 is_stmt 0 view .LVU383
 1104 0065 52       		pushl	%edx
 1105              		.cfi_def_cfa_offset 48
 1106 0066 E8FCFFFF 		call	chSchReadyI@PLT
 1106      FF
 1107              	.LVL55:
 1108              		.loc 1 350 12 view .LVU384
 1109              	.LBE254:
 1110              	.LBE257:
 1111              		.loc 1 406 9 view .LVU385
 1112 006b 8B36     		movl	(%esi), %esi
 1113              	.LVL56:
 1114              	.LBB258:
 1115              	.LBB255:
 1116              		.loc 1 350 12 view .LVU386
 1117 006d 83C410   		addl	$16, %esp
 1118              		.cfi_def_cfa_offset 32
 1119              		.loc 1 350 12 view .LVU387
 1120              	.LBE255:
 1121              	.LBE258:
 1122              		.loc 1 406 5 is_stmt 1 view .LVU388
 1123              	.LVL57:
 1124              		.loc 1 397 14 view .LVU389
 1125 0070 39F5     		cmpl	%esi, %ebp
 1126 0072 75BF     		jne	.L43
 1127              	.L36:
 1128              		.loc 1 408 1 is_stmt 0 view .LVU390
 1129 0074 83C40C   		addl	$12, %esp
 1130              		.cfi_remember_state
 1131              		.cfi_def_cfa_offset 20
 1132 0077 5B       		popl	%ebx
 1133              		.cfi_restore 3
 1134              		.cfi_def_cfa_offset 16
 1135 0078 5E       		popl	%esi
 1136              		.cfi_restore 6
 1137              		.cfi_def_cfa_offset 12
 1138              	.LVL58:
 1139              		.loc 1 408 1 view .LVU391
 1140 0079 5F       		popl	%edi
 1141              		.cfi_restore 7
GAS LISTING /tmp/ccExXJbd.s 			page 22


 1142              		.cfi_def_cfa_offset 8
 1143 007a 5D       		popl	%ebp
 1144              		.cfi_restore 5
 1145              		.cfi_def_cfa_offset 4
 1146 007b C3       		ret
 1147              	.LVL59:
 1148 007c 8D742600 		.p2align 4,,10
 1149              		.p2align 3
 1150              	.L49:
 1151              		.cfi_restore_state
 1152              	.LBB259:
 1153              	.LBB256:
 1154              		.loc 1 348 30 view .LVU392
 1155 0080 8B4A34   		movl	52(%edx), %ecx
 1156              		.loc 1 348 23 view .LVU393
 1157 0083 21C8     		andl	%ecx, %eax
 1158              		.loc 1 347 41 view .LVU394
 1159 0085 39C1     		cmpl	%eax, %ecx
 1160 0087 75A4     		jne	.L39
 1161 0089 EBD0     		jmp	.L41
 1162              	.LBE256:
 1163              	.LBE259:
 1164              		.cfi_endproc
 1165              	.LFE227:
 1166              		.size	chEvtBroadcastFlagsI, .-chEvtBroadcastFlagsI
 1167              		.section	.text.chEvtBroadcastFlags,"ax",@progbits
 1168              		.p2align 4
 1169              		.globl	chEvtBroadcastFlags
 1170              		.type	chEvtBroadcastFlags, @function
 1171              	chEvtBroadcastFlags:
 1172              	.LVL60:
 1173              	.LFB228:
 1174              		.loc 1 423 67 is_stmt 1 view -0
 1175              		.cfi_startproc
 1176              		.loc 1 425 3 view .LVU396
 1177              	.LBB260:
 1178              	.LBI260:
 1179              		.loc 3 407 20 view .LVU397
 1180              		.loc 3 409 3 view .LVU398
 1181              	.LBB261:
 1182              	.LBI261:
 1183              		.loc 4 361 20 view .LVU399
 1184              	.LBB262:
 1185              		.loc 4 363 3 view .LVU400
 1186              	.LBE262:
 1187              	.LBE261:
 1188              	.LBE260:
 1189              		.loc 1 423 67 is_stmt 0 view .LVU401
 1190 0000 56       		pushl	%esi
 1191              		.cfi_def_cfa_offset 8
 1192              		.cfi_offset 6, -8
 1193 0001 53       		pushl	%ebx
 1194              		.cfi_def_cfa_offset 12
 1195              		.cfi_offset 3, -12
 1196 0002 E8FCFFFF 		call	__x86.get_pc_thunk.bx
 1196      FF
 1197 0007 81C30200 		addl	$_GLOBAL_OFFSET_TABLE_, %ebx
GAS LISTING /tmp/ccExXJbd.s 			page 23


 1197      0000
 1198 000d 83EC0C   		subl	$12, %esp
 1199              		.cfi_def_cfa_offset 24
 1200              		.loc 1 426 3 view .LVU402
 1201 0010 FF74241C 		pushl	28(%esp)
 1202              		.cfi_def_cfa_offset 28
 1203 0014 FF74241C 		pushl	28(%esp)
 1204              		.cfi_def_cfa_offset 32
 1205              	.LBB265:
 1206              	.LBB264:
 1207              	.LBB263:
 1208              		.loc 4 363 16 view .LVU403
 1209 0018 8BB30000 		movl	port_irq_sts@GOT(%ebx), %esi
 1209      0000
 1210 001e C7060100 		movl	$1, (%esi)
 1210      0000
 1211              	.LBE263:
 1212              	.LBE264:
 1213              		.loc 3 410 35 is_stmt 1 view .LVU404
 1214              		.loc 3 411 21 view .LVU405
 1215              	.LBE265:
 1216              		.loc 1 426 3 view .LVU406
 1217 0024 E8FCFFFF 		call	chEvtBroadcastFlagsI
 1217      FF
 1218              	.LVL61:
 1219              		.loc 1 427 3 view .LVU407
 1220 0029 E8FCFFFF 		call	chSchRescheduleS@PLT
 1220      FF
 1221              	.LVL62:
 1222              		.loc 1 428 3 view .LVU408
 1223              	.LBB266:
 1224              	.LBI266:
 1225              		.loc 3 421 20 view .LVU409
 1226              	.LBB267:
 1227              		.loc 3 423 23 view .LVU410
 1228              		.loc 3 424 34 view .LVU411
 1229              		.loc 3 430 3 view .LVU412
 1230              		.loc 3 430 3 view .LVU413
 1231              		.loc 3 430 3 view .LVU414
 1232              		.loc 3 434 3 view .LVU415
 1233              	.LBB268:
 1234              	.LBI268:
 1235              		.loc 4 370 20 view .LVU416
 1236              	.LBB269:
 1237              		.loc 4 372 3 view .LVU417
 1238              		.loc 4 372 16 is_stmt 0 view .LVU418
 1239 002e C7060000 		movl	$0, (%esi)
 1239      0000
 1240              	.LBE269:
 1241              	.LBE268:
 1242              	.LBE267:
 1243              	.LBE266:
 1244              		.loc 1 429 1 view .LVU419
 1245 0034 83C414   		addl	$20, %esp
 1246              		.cfi_def_cfa_offset 12
 1247 0037 5B       		popl	%ebx
 1248              		.cfi_restore 3
GAS LISTING /tmp/ccExXJbd.s 			page 24


 1249              		.cfi_def_cfa_offset 8
 1250 0038 5E       		popl	%esi
 1251              		.cfi_restore 6
 1252              		.cfi_def_cfa_offset 4
 1253 0039 C3       		ret
 1254              		.cfi_endproc
 1255              	.LFE228:
 1256              		.size	chEvtBroadcastFlags, .-chEvtBroadcastFlags
 1257              		.section	.text.chEvtDispatch,"ax",@progbits
 1258              		.p2align 4
 1259              		.globl	chEvtDispatch
 1260              		.type	chEvtDispatch, @function
 1261              	chEvtDispatch:
 1262              	.LVL63:
 1263              	.LFB229:
 1264              		.loc 1 440 69 is_stmt 1 view -0
 1265              		.cfi_startproc
 1266              		.loc 1 441 3 view .LVU421
 1267              		.loc 1 443 3 view .LVU422
 1268              		.loc 1 443 3 view .LVU423
 1269              		.loc 1 443 3 view .LVU424
 1270              		.loc 1 445 3 view .LVU425
 1271              		.loc 1 446 3 view .LVU426
 1272              		.loc 1 440 69 is_stmt 0 view .LVU427
 1273 0000 55       		pushl	%ebp
 1274              		.cfi_def_cfa_offset 8
 1275              		.cfi_offset 5, -8
 1276 0001 57       		pushl	%edi
 1277              		.cfi_def_cfa_offset 12
 1278              		.cfi_offset 7, -12
 1279 0002 56       		pushl	%esi
 1280              		.cfi_def_cfa_offset 16
 1281              		.cfi_offset 6, -16
 1282 0003 53       		pushl	%ebx
 1283              		.cfi_def_cfa_offset 20
 1284              		.cfi_offset 3, -20
 1285 0004 83EC0C   		subl	$12, %esp
 1286              		.cfi_def_cfa_offset 32
 1287              		.loc 1 440 69 view .LVU428
 1288 0007 8B6C2424 		movl	36(%esp), %ebp
 1289              	.LVL64:
 1290              		.loc 1 446 17 is_stmt 1 view .LVU429
 1291              		.loc 1 440 69 is_stmt 0 view .LVU430
 1292 000b 8B7C2420 		movl	32(%esp), %edi
 1293              		.loc 1 446 17 view .LVU431
 1294 000f 85ED     		testl	%ebp, %ebp
 1295 0011 742C     		je	.L52
 1296              		.loc 1 445 7 view .LVU432
 1297 0013 31DB     		xorl	%ebx, %ebx
 1298              		.loc 1 447 19 view .LVU433
 1299 0015 BE010000 		movl	$1, %esi
 1299      00
 1300              	.LVL65:
 1301 001a 8DB60000 		.p2align 4,,10
 1301      0000
 1302              		.p2align 3
 1303              	.L55:
GAS LISTING /tmp/ccExXJbd.s 			page 25


 1304              		.loc 1 447 5 is_stmt 1 view .LVU434
 1305              		.loc 1 447 19 is_stmt 0 view .LVU435
 1306 0020 89F0     		movl	%esi, %eax
 1307 0022 89D9     		movl	%ebx, %ecx
 1308 0024 D3E0     		sall	%cl, %eax
 1309              		.loc 1 447 8 view .LVU436
 1310 0026 85E8     		testl	%ebp, %eax
 1311 0028 7426     		je	.L54
 1312              		.loc 1 448 7 is_stmt 1 discriminator 5 view .LVU437
 1313              		.loc 1 448 7 discriminator 5 view .LVU438
 1314              		.loc 1 448 7 discriminator 5 view .LVU439
 1315              		.loc 1 449 7 discriminator 5 view .LVU440
 1316              		.loc 1 450 7 is_stmt 0 discriminator 5 view .LVU441
 1317 002a 83EC0C   		subl	$12, %esp
 1318              		.cfi_def_cfa_offset 44
 1319              		.loc 1 449 17 discriminator 5 view .LVU442
 1320 002d F7D0     		notl	%eax
 1321              		.loc 1 450 7 discriminator 5 view .LVU443
 1322 002f 53       		pushl	%ebx
 1323              		.cfi_def_cfa_offset 48
 1324              		.loc 1 449 14 discriminator 5 view .LVU444
 1325 0030 21C5     		andl	%eax, %ebp
 1326              	.LVL66:
 1327              		.loc 1 450 7 is_stmt 1 discriminator 5 view .LVU445
 1328 0032 FF149F   		call	*(%edi,%ebx,4)
 1329              	.LVL67:
 1330              		.loc 1 452 5 discriminator 5 view .LVU446
 1331              		.loc 1 452 8 is_stmt 0 discriminator 5 view .LVU447
 1332 0035 83C301   		addl	$1, %ebx
 1333              	.LVL68:
 1334              		.loc 1 446 17 is_stmt 1 discriminator 5 view .LVU448
 1335 0038 83C410   		addl	$16, %esp
 1336              		.cfi_def_cfa_offset 32
 1337 003b 85ED     		testl	%ebp, %ebp
 1338 003d 75E1     		jne	.L55
 1339              	.LVL69:
 1340              	.L52:
 1341              		.loc 1 454 1 is_stmt 0 view .LVU449
 1342 003f 83C40C   		addl	$12, %esp
 1343              		.cfi_remember_state
 1344              		.cfi_def_cfa_offset 20
 1345 0042 5B       		popl	%ebx
 1346              		.cfi_restore 3
 1347              		.cfi_def_cfa_offset 16
 1348 0043 5E       		popl	%esi
 1349              		.cfi_restore 6
 1350              		.cfi_def_cfa_offset 12
 1351 0044 5F       		popl	%edi
 1352              		.cfi_restore 7
 1353              		.cfi_def_cfa_offset 8
 1354 0045 5D       		popl	%ebp
 1355              		.cfi_restore 5
 1356              		.cfi_def_cfa_offset 4
 1357              	.LVL70:
 1358              		.loc 1 454 1 view .LVU450
 1359 0046 C3       		ret
 1360              	.LVL71:
GAS LISTING /tmp/ccExXJbd.s 			page 26


 1361 0047 8DB42600 		.p2align 4,,10
 1361      00000066 
 1361      90
 1362              		.p2align 3
 1363              	.L54:
 1364              		.cfi_restore_state
 1365              		.loc 1 452 5 is_stmt 1 view .LVU451
 1366              		.loc 1 452 8 is_stmt 0 view .LVU452
 1367 0050 83C301   		addl	$1, %ebx
 1368              	.LVL72:
 1369              		.loc 1 446 17 is_stmt 1 view .LVU453
 1370              		.loc 1 446 17 is_stmt 0 view .LVU454
 1371 0053 EBCB     		jmp	.L55
 1372              		.cfi_endproc
 1373              	.LFE229:
 1374              		.size	chEvtDispatch, .-chEvtDispatch
 1375              		.section	.text.chEvtWaitOne,"ax",@progbits
 1376              		.p2align 4
 1377              		.globl	chEvtWaitOne
 1378              		.type	chEvtWaitOne, @function
 1379              	chEvtWaitOne:
 1380              	.LVL73:
 1381              	.LFB230:
 1382              		.loc 1 475 46 is_stmt 1 view -0
 1383              		.cfi_startproc
 1384              		.loc 1 476 3 view .LVU456
 1385              	.LBB270:
 1386              	.LBI270:
 1387              		.loc 2 527 25 view .LVU457
 1388              	.LBB271:
 1389              		.loc 2 529 3 view .LVU458
 1390              	.LBE271:
 1391              	.LBE270:
 1392              		.loc 1 475 46 is_stmt 0 view .LVU459
 1393 0000 57       		pushl	%edi
 1394              		.cfi_def_cfa_offset 8
 1395              		.cfi_offset 7, -8
 1396 0001 56       		pushl	%esi
 1397              		.cfi_def_cfa_offset 12
 1398              		.cfi_offset 6, -12
 1399 0002 53       		pushl	%ebx
 1400              		.cfi_def_cfa_offset 16
 1401              		.cfi_offset 3, -16
 1402 0003 E8FCFFFF 		call	__x86.get_pc_thunk.bx
 1402      FF
 1403 0008 81C30200 		addl	$_GLOBAL_OFFSET_TABLE_, %ebx
 1403      0000
 1404              	.LBB274:
 1405              	.LBB272:
 1406              		.loc 2 529 10 view .LVU460
 1407 000e 8B830000 		movl	ch0@GOT(%ebx), %eax
 1407      0000
 1408              	.LBE272:
 1409              	.LBE274:
 1410              	.LBB275:
 1411              	.LBB276:
 1412              	.LBB277:
GAS LISTING /tmp/ccExXJbd.s 			page 27


 1413              		.loc 4 363 16 view .LVU461
 1414 0014 8BBB0000 		movl	port_irq_sts@GOT(%ebx), %edi
 1414      0000
 1415              	.LBE277:
 1416              	.LBE276:
 1417              	.LBE275:
 1418              	.LBB280:
 1419              	.LBB273:
 1420              		.loc 2 529 10 view .LVU462
 1421 001a 8B700C   		movl	12(%eax), %esi
 1422              	.LVL74:
 1423              		.loc 2 529 10 view .LVU463
 1424              	.LBE273:
 1425              	.LBE280:
 1426              		.loc 1 477 3 is_stmt 1 view .LVU464
 1427              		.loc 1 479 3 view .LVU465
 1428              	.LBB281:
 1429              	.LBI275:
 1430              		.loc 3 407 20 view .LVU466
 1431              		.loc 3 409 3 view .LVU467
 1432              	.LBB279:
 1433              	.LBI276:
 1434              		.loc 4 361 20 view .LVU468
 1435              	.LBB278:
 1436              		.loc 4 363 3 view .LVU469
 1437              		.loc 4 363 16 is_stmt 0 view .LVU470
 1438 001d C7070100 		movl	$1, (%edi)
 1438      0000
 1439              	.LBE278:
 1440              	.LBE279:
 1441              		.loc 3 410 35 is_stmt 1 view .LVU471
 1442              		.loc 3 411 21 view .LVU472
 1443              	.LBE281:
 1444              		.loc 1 480 3 view .LVU473
 1445              		.loc 1 480 13 is_stmt 0 view .LVU474
 1446 0023 8B5644   		movl	68(%esi), %edx
 1447              	.LVL75:
 1448              		.loc 1 481 3 is_stmt 1 view .LVU475
 1449              		.loc 1 481 6 is_stmt 0 view .LVU476
 1450 0026 89D1     		movl	%edx, %ecx
 1451 0028 234C2410 		andl	16(%esp), %ecx
 1452              	.LVL76:
 1453              		.loc 1 481 6 view .LVU477
 1454 002c 7422     		je	.L67
 1455              	.LVL77:
 1456              	.L65:
 1457              		.loc 1 486 3 is_stmt 1 view .LVU478
 1458              		.loc 1 486 5 is_stmt 0 view .LVU479
 1459 002e 89C8     		movl	%ecx, %eax
 1460              	.LBB282:
 1461              	.LBB283:
 1462              	.LBB284:
 1463              	.LBB285:
 1464              		.loc 4 372 16 view .LVU480
 1465 0030 C7070000 		movl	$0, (%edi)
 1465      0000
 1466              	.LBE285:
GAS LISTING /tmp/ccExXJbd.s 			page 28


 1467              	.LBE284:
 1468              	.LBE283:
 1469              	.LBE282:
 1470              		.loc 1 486 5 view .LVU481
 1471 0036 F7D8     		negl	%eax
 1472 0038 21C8     		andl	%ecx, %eax
 1473              	.LVL78:
 1474              		.loc 1 487 3 is_stmt 1 view .LVU482
 1475              		.loc 1 487 23 is_stmt 0 view .LVU483
 1476 003a 89C1     		movl	%eax, %ecx
 1477 003c F7D1     		notl	%ecx
 1478              		.loc 1 487 20 view .LVU484
 1479 003e 21CA     		andl	%ecx, %edx
 1480 0040 895644   		movl	%edx, 68(%esi)
 1481              		.loc 1 488 3 is_stmt 1 view .LVU485
 1482              	.LBB289:
 1483              	.LBI282:
 1484              		.loc 3 421 20 view .LVU486
 1485              	.LBB288:
 1486              		.loc 3 423 23 view .LVU487
 1487              		.loc 3 424 34 view .LVU488
 1488              		.loc 3 430 3 view .LVU489
 1489              		.loc 3 430 3 view .LVU490
 1490              		.loc 3 430 3 view .LVU491
 1491              		.loc 3 434 3 view .LVU492
 1492              	.LBB287:
 1493              	.LBI284:
 1494              		.loc 4 370 20 view .LVU493
 1495              	.LBB286:
 1496              		.loc 4 372 3 view .LVU494
 1497              	.LBE286:
 1498              	.LBE287:
 1499              	.LBE288:
 1500              	.LBE289:
 1501              		.loc 1 490 3 view .LVU495
 1502              		.loc 1 491 1 is_stmt 0 view .LVU496
 1503 0043 5B       		popl	%ebx
 1504              		.cfi_remember_state
 1505              		.cfi_restore 3
 1506              		.cfi_def_cfa_offset 12
 1507 0044 5E       		popl	%esi
 1508              		.cfi_restore 6
 1509              		.cfi_def_cfa_offset 8
 1510              	.LVL79:
 1511              		.loc 1 491 1 view .LVU497
 1512 0045 5F       		popl	%edi
 1513              		.cfi_restore 7
 1514              		.cfi_def_cfa_offset 4
 1515 0046 C3       		ret
 1516              	.LVL80:
 1517 0047 8DB42600 		.p2align 4,,10
 1517      00000066 
 1517      90
 1518              		.p2align 3
 1519              	.L67:
 1520              		.cfi_restore_state
 1521              		.loc 1 482 5 is_stmt 1 view .LVU498
GAS LISTING /tmp/ccExXJbd.s 			page 29


 1522              		.loc 1 482 22 is_stmt 0 view .LVU499
 1523 0050 8B442410 		movl	16(%esp), %eax
 1524              		.loc 1 483 5 view .LVU500
 1525 0054 83EC0C   		subl	$12, %esp
 1526              		.cfi_def_cfa_offset 28
 1527              		.loc 1 482 22 view .LVU501
 1528 0057 894634   		movl	%eax, 52(%esi)
 1529              		.loc 1 483 5 is_stmt 1 view .LVU502
 1530 005a 6A0A     		pushl	$10
 1531              		.cfi_def_cfa_offset 32
 1532 005c E8FCFFFF 		call	chSchGoSleepS@PLT
 1532      FF
 1533              	.LVL81:
 1534              		.loc 1 484 5 view .LVU503
 1535              		.loc 1 484 7 is_stmt 0 view .LVU504
 1536 0061 8B4C2420 		movl	32(%esp), %ecx
 1537              		.loc 1 484 15 view .LVU505
 1538 0065 8B5644   		movl	68(%esi), %edx
 1539              		.loc 1 484 7 view .LVU506
 1540 0068 83C410   		addl	$16, %esp
 1541              		.cfi_def_cfa_offset 16
 1542 006b 21D1     		andl	%edx, %ecx
 1543              	.LVL82:
 1544              		.loc 1 484 7 view .LVU507
 1545 006d EBBF     		jmp	.L65
 1546              		.cfi_endproc
 1547              	.LFE230:
 1548              		.size	chEvtWaitOne, .-chEvtWaitOne
 1549              		.section	.text.chEvtWaitAny,"ax",@progbits
 1550              		.p2align 4
 1551              		.globl	chEvtWaitAny
 1552              		.type	chEvtWaitAny, @function
 1553              	chEvtWaitAny:
 1554              	.LVL83:
 1555              	.LFB231:
 1556              		.loc 1 505 46 is_stmt 1 view -0
 1557              		.cfi_startproc
 1558              		.loc 1 506 3 view .LVU509
 1559              	.LBB290:
 1560              	.LBI290:
 1561              		.loc 2 527 25 view .LVU510
 1562              	.LBB291:
 1563              		.loc 2 529 3 view .LVU511
 1564              	.LBE291:
 1565              	.LBE290:
 1566              		.loc 1 505 46 is_stmt 0 view .LVU512
 1567 0000 57       		pushl	%edi
 1568              		.cfi_def_cfa_offset 8
 1569              		.cfi_offset 7, -8
 1570 0001 56       		pushl	%esi
 1571              		.cfi_def_cfa_offset 12
 1572              		.cfi_offset 6, -12
 1573 0002 53       		pushl	%ebx
 1574              		.cfi_def_cfa_offset 16
 1575              		.cfi_offset 3, -16
 1576 0003 E8FCFFFF 		call	__x86.get_pc_thunk.bx
 1576      FF
GAS LISTING /tmp/ccExXJbd.s 			page 30


 1577 0008 81C30200 		addl	$_GLOBAL_OFFSET_TABLE_, %ebx
 1577      0000
 1578              	.LBB294:
 1579              	.LBB292:
 1580              		.loc 2 529 10 view .LVU513
 1581 000e 8B830000 		movl	ch0@GOT(%ebx), %eax
 1581      0000
 1582              	.LBE292:
 1583              	.LBE294:
 1584              	.LBB295:
 1585              	.LBB296:
 1586              	.LBB297:
 1587              		.loc 4 363 16 view .LVU514
 1588 0014 8BBB0000 		movl	port_irq_sts@GOT(%ebx), %edi
 1588      0000
 1589              	.LBE297:
 1590              	.LBE296:
 1591              	.LBE295:
 1592              	.LBB300:
 1593              	.LBB293:
 1594              		.loc 2 529 10 view .LVU515
 1595 001a 8B700C   		movl	12(%eax), %esi
 1596              	.LVL84:
 1597              		.loc 2 529 10 view .LVU516
 1598              	.LBE293:
 1599              	.LBE300:
 1600              		.loc 1 507 3 is_stmt 1 view .LVU517
 1601              		.loc 1 509 3 view .LVU518
 1602              	.LBB301:
 1603              	.LBI295:
 1604              		.loc 3 407 20 view .LVU519
 1605              		.loc 3 409 3 view .LVU520
 1606              	.LBB299:
 1607              	.LBI296:
 1608              		.loc 4 361 20 view .LVU521
 1609              	.LBB298:
 1610              		.loc 4 363 3 view .LVU522
 1611              		.loc 4 363 16 is_stmt 0 view .LVU523
 1612 001d C7070100 		movl	$1, (%edi)
 1612      0000
 1613              	.LBE298:
 1614              	.LBE299:
 1615              		.loc 3 410 35 is_stmt 1 view .LVU524
 1616              		.loc 3 411 21 view .LVU525
 1617              	.LBE301:
 1618              		.loc 1 510 3 view .LVU526
 1619              		.loc 1 510 13 is_stmt 0 view .LVU527
 1620 0023 8B4644   		movl	68(%esi), %eax
 1621              	.LVL85:
 1622              		.loc 1 511 3 is_stmt 1 view .LVU528
 1623              		.loc 1 511 6 is_stmt 0 view .LVU529
 1624 0026 89C1     		movl	%eax, %ecx
 1625 0028 234C2410 		andl	16(%esp), %ecx
 1626              	.LVL86:
 1627              		.loc 1 511 6 view .LVU530
 1628 002c 741A     		je	.L71
 1629              	.LVL87:
GAS LISTING /tmp/ccExXJbd.s 			page 31


 1630              	.L69:
 1631              		.loc 1 516 3 is_stmt 1 view .LVU531
 1632              		.loc 1 516 23 is_stmt 0 view .LVU532
 1633 002e 89CA     		movl	%ecx, %edx
 1634              	.LBB302:
 1635              	.LBB303:
 1636              	.LBB304:
 1637              	.LBB305:
 1638              		.loc 4 372 16 view .LVU533
 1639 0030 C7070000 		movl	$0, (%edi)
 1639      0000
 1640              	.LBE305:
 1641              	.LBE304:
 1642              	.LBE303:
 1643              	.LBE302:
 1644              		.loc 1 516 23 view .LVU534
 1645 0036 F7D2     		notl	%edx
 1646              		.loc 1 516 20 view .LVU535
 1647 0038 21D0     		andl	%edx, %eax
 1648 003a 894644   		movl	%eax, 68(%esi)
 1649              		.loc 1 517 3 is_stmt 1 view .LVU536
 1650              	.LBB309:
 1651              	.LBI302:
 1652              		.loc 3 421 20 view .LVU537
 1653              	.LBB308:
 1654              		.loc 3 423 23 view .LVU538
 1655              		.loc 3 424 34 view .LVU539
 1656              		.loc 3 430 3 view .LVU540
 1657              		.loc 3 430 3 view .LVU541
 1658              		.loc 3 430 3 view .LVU542
 1659              		.loc 3 434 3 view .LVU543
 1660              	.LBB307:
 1661              	.LBI304:
 1662              		.loc 4 370 20 view .LVU544
 1663              	.LBB306:
 1664              		.loc 4 372 3 view .LVU545
 1665              	.LBE306:
 1666              	.LBE307:
 1667              	.LBE308:
 1668              	.LBE309:
 1669              		.loc 1 519 3 view .LVU546
 1670              		.loc 1 520 1 is_stmt 0 view .LVU547
 1671 003d 89C8     		movl	%ecx, %eax
 1672 003f 5B       		popl	%ebx
 1673              		.cfi_remember_state
 1674              		.cfi_restore 3
 1675              		.cfi_def_cfa_offset 12
 1676 0040 5E       		popl	%esi
 1677              		.cfi_restore 6
 1678              		.cfi_def_cfa_offset 8
 1679              	.LVL88:
 1680              		.loc 1 520 1 view .LVU548
 1681 0041 5F       		popl	%edi
 1682              		.cfi_restore 7
 1683              		.cfi_def_cfa_offset 4
 1684 0042 C3       		ret
 1685              	.LVL89:
GAS LISTING /tmp/ccExXJbd.s 			page 32


 1686              		.p2align 4,,10
 1687 0043 8D742600 		.p2align 3
 1687      90
 1688              	.L71:
 1689              		.cfi_restore_state
 1690              		.loc 1 512 5 is_stmt 1 view .LVU549
 1691              		.loc 1 512 22 is_stmt 0 view .LVU550
 1692 0048 8B442410 		movl	16(%esp), %eax
 1693              		.loc 1 513 5 view .LVU551
 1694 004c 83EC0C   		subl	$12, %esp
 1695              		.cfi_def_cfa_offset 28
 1696              		.loc 1 512 22 view .LVU552
 1697 004f 894634   		movl	%eax, 52(%esi)
 1698              		.loc 1 513 5 is_stmt 1 view .LVU553
 1699 0052 6A0A     		pushl	$10
 1700              		.cfi_def_cfa_offset 32
 1701 0054 E8FCFFFF 		call	chSchGoSleepS@PLT
 1701      FF
 1702              	.LVL90:
 1703              		.loc 1 514 5 view .LVU554
 1704              		.loc 1 514 7 is_stmt 0 view .LVU555
 1705 0059 8B4C2420 		movl	32(%esp), %ecx
 1706              		.loc 1 514 15 view .LVU556
 1707 005d 8B4644   		movl	68(%esi), %eax
 1708              		.loc 1 514 7 view .LVU557
 1709 0060 83C410   		addl	$16, %esp
 1710              		.cfi_def_cfa_offset 16
 1711 0063 21C1     		andl	%eax, %ecx
 1712              	.LVL91:
 1713              		.loc 1 514 7 view .LVU558
 1714 0065 EBC7     		jmp	.L69
 1715              		.cfi_endproc
 1716              	.LFE231:
 1717              		.size	chEvtWaitAny, .-chEvtWaitAny
 1718              		.section	.text.chEvtWaitAll,"ax",@progbits
 1719              		.p2align 4
 1720              		.globl	chEvtWaitAll
 1721              		.type	chEvtWaitAll, @function
 1722              	chEvtWaitAll:
 1723              	.LVL92:
 1724              	.LFB232:
 1725              		.loc 1 533 46 is_stmt 1 view -0
 1726              		.cfi_startproc
 1727              		.loc 1 534 3 view .LVU560
 1728              	.LBB310:
 1729              	.LBI310:
 1730              		.loc 2 527 25 view .LVU561
 1731              	.LBB311:
 1732              		.loc 2 529 3 view .LVU562
 1733              	.LBE311:
 1734              	.LBE310:
 1735              		.loc 1 533 46 is_stmt 0 view .LVU563
 1736 0000 55       		pushl	%ebp
 1737              		.cfi_def_cfa_offset 8
 1738              		.cfi_offset 5, -8
 1739 0001 57       		pushl	%edi
 1740              		.cfi_def_cfa_offset 12
GAS LISTING /tmp/ccExXJbd.s 			page 33


 1741              		.cfi_offset 7, -12
 1742 0002 56       		pushl	%esi
 1743              		.cfi_def_cfa_offset 16
 1744              		.cfi_offset 6, -16
 1745 0003 53       		pushl	%ebx
 1746              		.cfi_def_cfa_offset 20
 1747              		.cfi_offset 3, -20
 1748 0004 E8FCFFFF 		call	__x86.get_pc_thunk.bx
 1748      FF
 1749 0009 81C30200 		addl	$_GLOBAL_OFFSET_TABLE_, %ebx
 1749      0000
 1750 000f 83EC0C   		subl	$12, %esp
 1751              		.cfi_def_cfa_offset 32
 1752              		.loc 1 533 46 view .LVU564
 1753 0012 8B742420 		movl	32(%esp), %esi
 1754              	.LBB314:
 1755              	.LBB312:
 1756              		.loc 2 529 10 view .LVU565
 1757 0016 8B830000 		movl	ch0@GOT(%ebx), %eax
 1757      0000
 1758              	.LBE312:
 1759              	.LBE314:
 1760              	.LBB315:
 1761              	.LBB316:
 1762              	.LBB317:
 1763              		.loc 4 363 16 view .LVU566
 1764 001c 8BAB0000 		movl	port_irq_sts@GOT(%ebx), %ebp
 1764      0000
 1765              	.LBE317:
 1766              	.LBE316:
 1767              	.LBE315:
 1768              	.LBB320:
 1769              	.LBB313:
 1770              		.loc 2 529 10 view .LVU567
 1771 0022 8B780C   		movl	12(%eax), %edi
 1772              	.LVL93:
 1773              		.loc 2 529 10 view .LVU568
 1774              	.LBE313:
 1775              	.LBE320:
 1776              		.loc 1 536 3 is_stmt 1 view .LVU569
 1777              	.LBB321:
 1778              	.LBI315:
 1779              		.loc 3 407 20 view .LVU570
 1780              		.loc 3 409 3 view .LVU571
 1781              	.LBB319:
 1782              	.LBI316:
 1783              		.loc 4 361 20 view .LVU572
 1784              	.LBB318:
 1785              		.loc 4 363 3 view .LVU573
 1786              		.loc 4 363 16 is_stmt 0 view .LVU574
 1787 0025 C7450001 		movl	$1, 0(%ebp)
 1787      000000
 1788              	.LBE318:
 1789              	.LBE319:
 1790              		.loc 3 410 35 is_stmt 1 view .LVU575
 1791              		.loc 3 411 21 view .LVU576
 1792              	.LBE321:
GAS LISTING /tmp/ccExXJbd.s 			page 34


 1793              		.loc 1 537 3 view .LVU577
 1794              		.loc 1 537 14 is_stmt 0 view .LVU578
 1795 002c 8B5744   		movl	68(%edi), %edx
 1796              		.loc 1 537 25 view .LVU579
 1797 002f 89D0     		movl	%edx, %eax
 1798 0031 21F0     		andl	%esi, %eax
 1799              		.loc 1 537 6 view .LVU580
 1800 0033 39F0     		cmpl	%esi, %eax
 1801 0035 7413     		je	.L73
 1802              		.loc 1 538 5 is_stmt 1 view .LVU581
 1803              		.loc 1 539 5 is_stmt 0 view .LVU582
 1804 0037 83EC0C   		subl	$12, %esp
 1805              		.cfi_def_cfa_offset 44
 1806              		.loc 1 538 22 view .LVU583
 1807 003a 897734   		movl	%esi, 52(%edi)
 1808              		.loc 1 539 5 is_stmt 1 view .LVU584
 1809 003d 6A0B     		pushl	$11
 1810              		.cfi_def_cfa_offset 48
 1811 003f E8FCFFFF 		call	chSchGoSleepS@PLT
 1811      FF
 1812              	.LVL94:
 1813              		.loc 1 541 20 is_stmt 0 view .LVU585
 1814 0044 8B5744   		movl	68(%edi), %edx
 1815 0047 83C410   		addl	$16, %esp
 1816              		.cfi_def_cfa_offset 32
 1817              	.L73:
 1818              		.loc 1 541 3 is_stmt 1 view .LVU586
 1819              		.loc 1 541 23 is_stmt 0 view .LVU587
 1820 004a 89F0     		movl	%esi, %eax
 1821              	.LBB322:
 1822              	.LBB323:
 1823              	.LBB324:
 1824              	.LBB325:
 1825              		.loc 4 372 16 view .LVU588
 1826 004c C7450000 		movl	$0, 0(%ebp)
 1826      000000
 1827              	.LBE325:
 1828              	.LBE324:
 1829              	.LBE323:
 1830              	.LBE322:
 1831              		.loc 1 541 23 view .LVU589
 1832 0053 F7D0     		notl	%eax
 1833              		.loc 1 541 20 view .LVU590
 1834 0055 21D0     		andl	%edx, %eax
 1835 0057 894744   		movl	%eax, 68(%edi)
 1836              		.loc 1 542 3 is_stmt 1 view .LVU591
 1837              	.LBB329:
 1838              	.LBI322:
 1839              		.loc 3 421 20 view .LVU592
 1840              	.LBB328:
 1841              		.loc 3 423 23 view .LVU593
 1842              		.loc 3 424 34 view .LVU594
 1843              		.loc 3 430 3 view .LVU595
 1844              		.loc 3 430 3 view .LVU596
 1845              		.loc 3 430 3 view .LVU597
 1846              		.loc 3 434 3 view .LVU598
 1847              	.LBB327:
GAS LISTING /tmp/ccExXJbd.s 			page 35


 1848              	.LBI324:
 1849              		.loc 4 370 20 view .LVU599
 1850              	.LBB326:
 1851              		.loc 4 372 3 view .LVU600
 1852              	.LBE326:
 1853              	.LBE327:
 1854              	.LBE328:
 1855              	.LBE329:
 1856              		.loc 1 544 3 view .LVU601
 1857              		.loc 1 545 1 is_stmt 0 view .LVU602
 1858 005a 83C40C   		addl	$12, %esp
 1859              		.cfi_def_cfa_offset 20
 1860 005d 89F0     		movl	%esi, %eax
 1861 005f 5B       		popl	%ebx
 1862              		.cfi_restore 3
 1863              		.cfi_def_cfa_offset 16
 1864 0060 5E       		popl	%esi
 1865              		.cfi_restore 6
 1866              		.cfi_def_cfa_offset 12
 1867 0061 5F       		popl	%edi
 1868              		.cfi_restore 7
 1869              		.cfi_def_cfa_offset 8
 1870              	.LVL95:
 1871              		.loc 1 545 1 view .LVU603
 1872 0062 5D       		popl	%ebp
 1873              		.cfi_restore 5
 1874              		.cfi_def_cfa_offset 4
 1875 0063 C3       		ret
 1876              		.cfi_endproc
 1877              	.LFE232:
 1878              		.size	chEvtWaitAll, .-chEvtWaitAll
 1879              		.section	.text.chEvtWaitOneTimeout,"ax",@progbits
 1880              		.p2align 4
 1881              		.globl	chEvtWaitOneTimeout
 1882              		.type	chEvtWaitOneTimeout, @function
 1883              	chEvtWaitOneTimeout:
 1884              	.LVL96:
 1885              	.LFB233:
 1886              		.loc 1 570 76 is_stmt 1 view -0
 1887              		.cfi_startproc
 1888              		.loc 1 571 3 view .LVU605
 1889              	.LBB330:
 1890              	.LBI330:
 1891              		.loc 2 527 25 view .LVU606
 1892              	.LBB331:
 1893              		.loc 2 529 3 view .LVU607
 1894              	.LBE331:
 1895              	.LBE330:
 1896              		.loc 1 570 76 is_stmt 0 view .LVU608
 1897 0000 55       		pushl	%ebp
 1898              		.cfi_def_cfa_offset 8
 1899              		.cfi_offset 5, -8
 1900 0001 57       		pushl	%edi
 1901              		.cfi_def_cfa_offset 12
 1902              		.cfi_offset 7, -12
 1903 0002 56       		pushl	%esi
 1904              		.cfi_def_cfa_offset 16
GAS LISTING /tmp/ccExXJbd.s 			page 36


 1905              		.cfi_offset 6, -16
 1906 0003 53       		pushl	%ebx
 1907              		.cfi_def_cfa_offset 20
 1908              		.cfi_offset 3, -20
 1909 0004 E8FCFFFF 		call	__x86.get_pc_thunk.bx
 1909      FF
 1910 0009 81C30200 		addl	$_GLOBAL_OFFSET_TABLE_, %ebx
 1910      0000
 1911 000f 83EC0C   		subl	$12, %esp
 1912              		.cfi_def_cfa_offset 32
 1913              	.LBB334:
 1914              	.LBB332:
 1915              		.loc 2 529 10 view .LVU609
 1916 0012 8B830000 		movl	ch0@GOT(%ebx), %eax
 1916      0000
 1917              	.LBE332:
 1918              	.LBE334:
 1919              	.LBB335:
 1920              	.LBB336:
 1921              	.LBB337:
 1922              		.loc 4 363 16 view .LVU610
 1923 0018 8BAB0000 		movl	port_irq_sts@GOT(%ebx), %ebp
 1923      0000
 1924              	.LBE337:
 1925              	.LBE336:
 1926              	.LBE335:
 1927              	.LBB340:
 1928              	.LBB333:
 1929              		.loc 2 529 10 view .LVU611
 1930 001e 8B780C   		movl	12(%eax), %edi
 1931              	.LVL97:
 1932              		.loc 2 529 10 view .LVU612
 1933              	.LBE333:
 1934              	.LBE340:
 1935              		.loc 1 572 3 is_stmt 1 view .LVU613
 1936              		.loc 1 574 3 view .LVU614
 1937              	.LBB341:
 1938              	.LBI335:
 1939              		.loc 3 407 20 view .LVU615
 1940              		.loc 3 409 3 view .LVU616
 1941              	.LBB339:
 1942              	.LBI336:
 1943              		.loc 4 361 20 view .LVU617
 1944              	.LBB338:
 1945              		.loc 4 363 3 view .LVU618
 1946              		.loc 4 363 16 is_stmt 0 view .LVU619
 1947 0021 C7450001 		movl	$1, 0(%ebp)
 1947      000000
 1948              	.LBE338:
 1949              	.LBE339:
 1950              		.loc 3 410 35 is_stmt 1 view .LVU620
 1951              		.loc 3 411 21 view .LVU621
 1952              	.LBE341:
 1953              		.loc 1 575 3 view .LVU622
 1954              		.loc 1 575 13 is_stmt 0 view .LVU623
 1955 0028 8B4744   		movl	68(%edi), %eax
 1956              	.LVL98:
GAS LISTING /tmp/ccExXJbd.s 			page 37


 1957              		.loc 1 576 3 is_stmt 1 view .LVU624
 1958              		.loc 1 576 6 is_stmt 0 view .LVU625
 1959 002b 89C6     		movl	%eax, %esi
 1960 002d 23742420 		andl	32(%esp), %esi
 1961              	.LVL99:
 1962              		.loc 1 576 6 view .LVU626
 1963 0031 7542     		jne	.L76
 1964              		.loc 1 577 5 is_stmt 1 view .LVU627
 1965              		.loc 1 577 8 is_stmt 0 view .LVU628
 1966 0033 8B442424 		movl	36(%esp), %eax
 1967 0037 85C0     		testl	%eax, %eax
 1968 0039 7515     		jne	.L81
 1969              	.LVL100:
 1970              	.L78:
 1971              	.LBB342:
 1972              	.LBB343:
 1973              	.LBB344:
 1974              	.LBB345:
 1975              		.loc 4 372 16 view .LVU629
 1976 003b C7450000 		movl	$0, 0(%ebp)
 1976      000000
 1977              	.LBE345:
 1978              	.LBE344:
 1979              	.LBE343:
 1980              	.LBE342:
 1981              		.loc 1 593 1 view .LVU630
 1982 0042 83C40C   		addl	$12, %esp
 1983              		.cfi_remember_state
 1984              		.cfi_def_cfa_offset 20
 1985 0045 89F0     		movl	%esi, %eax
 1986 0047 5B       		popl	%ebx
 1987              		.cfi_restore 3
 1988              		.cfi_def_cfa_offset 16
 1989 0048 5E       		popl	%esi
 1990              		.cfi_restore 6
 1991              		.cfi_def_cfa_offset 12
 1992 0049 5F       		popl	%edi
 1993              		.cfi_restore 7
 1994              		.cfi_def_cfa_offset 8
 1995              	.LVL101:
 1996              		.loc 1 593 1 view .LVU631
 1997 004a 5D       		popl	%ebp
 1998              		.cfi_restore 5
 1999              		.cfi_def_cfa_offset 4
 2000 004b C3       		ret
 2001              	.LVL102:
 2002 004c 8D742600 		.p2align 4,,10
 2003              		.p2align 3
 2004              	.L81:
 2005              		.cfi_restore_state
 2006              		.loc 1 581 5 is_stmt 1 view .LVU632
 2007              		.loc 1 581 22 is_stmt 0 view .LVU633
 2008 0050 8B442420 		movl	32(%esp), %eax
 2009              		.loc 1 582 9 view .LVU634
 2010 0054 83EC08   		subl	$8, %esp
 2011              		.cfi_def_cfa_offset 40
 2012              		.loc 1 581 22 view .LVU635
GAS LISTING /tmp/ccExXJbd.s 			page 38


 2013 0057 894734   		movl	%eax, 52(%edi)
 2014              		.loc 1 582 5 is_stmt 1 view .LVU636
 2015              		.loc 1 582 9 is_stmt 0 view .LVU637
 2016 005a FF74242C 		pushl	44(%esp)
 2017              		.cfi_def_cfa_offset 44
 2018 005e 6A0A     		pushl	$10
 2019              		.cfi_def_cfa_offset 48
 2020 0060 E8FCFFFF 		call	chSchGoSleepTimeoutS@PLT
 2020      FF
 2021              	.LVL103:
 2022              		.loc 1 582 8 view .LVU638
 2023 0065 83C410   		addl	$16, %esp
 2024              		.cfi_def_cfa_offset 32
 2025 0068 85C0     		testl	%eax, %eax
 2026 006a 78CF     		js	.L78
 2027              		.loc 1 586 5 is_stmt 1 view .LVU639
 2028              		.loc 1 586 15 is_stmt 0 view .LVU640
 2029 006c 8B4744   		movl	68(%edi), %eax
 2030              		.loc 1 586 7 view .LVU641
 2031 006f 8B742420 		movl	32(%esp), %esi
 2032              	.LVL104:
 2033              		.loc 1 586 7 view .LVU642
 2034 0073 21C6     		andl	%eax, %esi
 2035              	.LVL105:
 2036              	.L76:
 2037              		.loc 1 588 3 is_stmt 1 view .LVU643
 2038              		.loc 1 588 5 is_stmt 0 view .LVU644
 2039 0075 89F2     		movl	%esi, %edx
 2040 0077 F7DA     		negl	%edx
 2041 0079 21D6     		andl	%edx, %esi
 2042              	.LVL106:
 2043              		.loc 1 589 3 is_stmt 1 view .LVU645
 2044              		.loc 1 589 23 is_stmt 0 view .LVU646
 2045 007b 89F2     		movl	%esi, %edx
 2046 007d F7D2     		notl	%edx
 2047              		.loc 1 589 20 view .LVU647
 2048 007f 21D0     		andl	%edx, %eax
 2049 0081 894744   		movl	%eax, 68(%edi)
 2050              		.loc 1 590 3 is_stmt 1 view .LVU648
 2051              		.loc 1 592 3 view .LVU649
 2052              		.loc 1 592 10 is_stmt 0 view .LVU650
 2053 0084 EBB5     		jmp	.L78
 2054              		.cfi_endproc
 2055              	.LFE233:
 2056              		.size	chEvtWaitOneTimeout, .-chEvtWaitOneTimeout
 2057              		.section	.text.chEvtWaitAnyTimeout,"ax",@progbits
 2058              		.p2align 4
 2059              		.globl	chEvtWaitAnyTimeout
 2060              		.type	chEvtWaitAnyTimeout, @function
 2061              	chEvtWaitAnyTimeout:
 2062              	.LVL107:
 2063              	.LFB234:
 2064              		.loc 1 612 76 is_stmt 1 view -0
 2065              		.cfi_startproc
 2066              		.loc 1 613 3 view .LVU652
 2067              	.LBB346:
 2068              	.LBI346:
GAS LISTING /tmp/ccExXJbd.s 			page 39


 2069              		.loc 2 527 25 view .LVU653
 2070              	.LBB347:
 2071              		.loc 2 529 3 view .LVU654
 2072              	.LBE347:
 2073              	.LBE346:
 2074              		.loc 1 612 76 is_stmt 0 view .LVU655
 2075 0000 55       		pushl	%ebp
 2076              		.cfi_def_cfa_offset 8
 2077              		.cfi_offset 5, -8
 2078 0001 57       		pushl	%edi
 2079              		.cfi_def_cfa_offset 12
 2080              		.cfi_offset 7, -12
 2081 0002 56       		pushl	%esi
 2082              		.cfi_def_cfa_offset 16
 2083              		.cfi_offset 6, -16
 2084 0003 53       		pushl	%ebx
 2085              		.cfi_def_cfa_offset 20
 2086              		.cfi_offset 3, -20
 2087 0004 E8FCFFFF 		call	__x86.get_pc_thunk.bx
 2087      FF
 2088 0009 81C30200 		addl	$_GLOBAL_OFFSET_TABLE_, %ebx
 2088      0000
 2089 000f 83EC0C   		subl	$12, %esp
 2090              		.cfi_def_cfa_offset 32
 2091              	.LBB350:
 2092              	.LBB348:
 2093              		.loc 2 529 10 view .LVU656
 2094 0012 8B830000 		movl	ch0@GOT(%ebx), %eax
 2094      0000
 2095              	.LBE348:
 2096              	.LBE350:
 2097              	.LBB351:
 2098              	.LBB352:
 2099              	.LBB353:
 2100              		.loc 4 363 16 view .LVU657
 2101 0018 8BBB0000 		movl	port_irq_sts@GOT(%ebx), %edi
 2101      0000
 2102              	.LBE353:
 2103              	.LBE352:
 2104              	.LBE351:
 2105              	.LBB356:
 2106              	.LBB349:
 2107              		.loc 2 529 10 view .LVU658
 2108 001e 8B700C   		movl	12(%eax), %esi
 2109              	.LVL108:
 2110              		.loc 2 529 10 view .LVU659
 2111              	.LBE349:
 2112              	.LBE356:
 2113              		.loc 1 614 3 is_stmt 1 view .LVU660
 2114              		.loc 1 616 3 view .LVU661
 2115              	.LBB357:
 2116              	.LBI351:
 2117              		.loc 3 407 20 view .LVU662
 2118              		.loc 3 409 3 view .LVU663
 2119              	.LBB355:
 2120              	.LBI352:
 2121              		.loc 4 361 20 view .LVU664
GAS LISTING /tmp/ccExXJbd.s 			page 40


 2122              	.LBB354:
 2123              		.loc 4 363 3 view .LVU665
 2124              		.loc 4 363 16 is_stmt 0 view .LVU666
 2125 0021 C7070100 		movl	$1, (%edi)
 2125      0000
 2126              	.LBE354:
 2127              	.LBE355:
 2128              		.loc 3 410 35 is_stmt 1 view .LVU667
 2129              		.loc 3 411 21 view .LVU668
 2130              	.LBE357:
 2131              		.loc 1 617 3 view .LVU669
 2132              		.loc 1 617 13 is_stmt 0 view .LVU670
 2133 0027 8B4644   		movl	68(%esi), %eax
 2134              	.LVL109:
 2135              		.loc 1 618 3 is_stmt 1 view .LVU671
 2136              		.loc 1 618 6 is_stmt 0 view .LVU672
 2137 002a 89C5     		movl	%eax, %ebp
 2138 002c 236C2420 		andl	32(%esp), %ebp
 2139              	.LVL110:
 2140              		.loc 1 618 6 view .LVU673
 2141 0030 7543     		jne	.L83
 2142              		.loc 1 619 5 is_stmt 1 view .LVU674
 2143              		.loc 1 619 8 is_stmt 0 view .LVU675
 2144 0032 8B442424 		movl	36(%esp), %eax
 2145 0036 85C0     		testl	%eax, %eax
 2146 0038 7516     		jne	.L88
 2147              	.L85:
 2148              	.LBB358:
 2149              	.LBB359:
 2150              	.LBB360:
 2151              	.LBB361:
 2152              		.loc 4 372 16 view .LVU676
 2153 003a C7070000 		movl	$0, (%edi)
 2153      0000
 2154              	.LBE361:
 2155              	.LBE360:
 2156              	.LBE359:
 2157              	.LBE358:
 2158              		.loc 1 634 1 view .LVU677
 2159 0040 83C40C   		addl	$12, %esp
 2160              		.cfi_remember_state
 2161              		.cfi_def_cfa_offset 20
 2162 0043 89E8     		movl	%ebp, %eax
 2163 0045 5B       		popl	%ebx
 2164              		.cfi_restore 3
 2165              		.cfi_def_cfa_offset 16
 2166 0046 5E       		popl	%esi
 2167              		.cfi_restore 6
 2168              		.cfi_def_cfa_offset 12
 2169              	.LVL111:
 2170              		.loc 1 634 1 view .LVU678
 2171 0047 5F       		popl	%edi
 2172              		.cfi_restore 7
 2173              		.cfi_def_cfa_offset 8
 2174 0048 5D       		popl	%ebp
 2175              		.cfi_restore 5
 2176              		.cfi_def_cfa_offset 4
GAS LISTING /tmp/ccExXJbd.s 			page 41


 2177              	.LVL112:
 2178              		.loc 1 634 1 view .LVU679
 2179 0049 C3       		ret
 2180              	.LVL113:
 2181 004a 8DB60000 		.p2align 4,,10
 2181      0000
 2182              		.p2align 3
 2183              	.L88:
 2184              		.cfi_restore_state
 2185              		.loc 1 623 5 is_stmt 1 view .LVU680
 2186              		.loc 1 623 22 is_stmt 0 view .LVU681
 2187 0050 8B442420 		movl	32(%esp), %eax
 2188              		.loc 1 624 9 view .LVU682
 2189 0054 83EC08   		subl	$8, %esp
 2190              		.cfi_def_cfa_offset 40
 2191              		.loc 1 623 22 view .LVU683
 2192 0057 894634   		movl	%eax, 52(%esi)
 2193              		.loc 1 624 5 is_stmt 1 view .LVU684
 2194              		.loc 1 624 9 is_stmt 0 view .LVU685
 2195 005a FF74242C 		pushl	44(%esp)
 2196              		.cfi_def_cfa_offset 44
 2197 005e 6A0A     		pushl	$10
 2198              		.cfi_def_cfa_offset 48
 2199 0060 E8FCFFFF 		call	chSchGoSleepTimeoutS@PLT
 2199      FF
 2200              	.LVL114:
 2201              		.loc 1 624 8 view .LVU686
 2202 0065 83C410   		addl	$16, %esp
 2203              		.cfi_def_cfa_offset 32
 2204 0068 85C0     		testl	%eax, %eax
 2205 006a 78CE     		js	.L85
 2206              		.loc 1 628 5 is_stmt 1 view .LVU687
 2207              		.loc 1 628 15 is_stmt 0 view .LVU688
 2208 006c 8B4644   		movl	68(%esi), %eax
 2209              		.loc 1 628 7 view .LVU689
 2210 006f 8B6C2420 		movl	32(%esp), %ebp
 2211              	.LVL115:
 2212              		.loc 1 628 7 view .LVU690
 2213 0073 21C5     		andl	%eax, %ebp
 2214              	.LVL116:
 2215              	.L83:
 2216              		.loc 1 630 3 is_stmt 1 view .LVU691
 2217              		.loc 1 630 23 is_stmt 0 view .LVU692
 2218 0075 89EA     		movl	%ebp, %edx
 2219              	.LBB365:
 2220              	.LBB364:
 2221              	.LBB363:
 2222              	.LBB362:
 2223              		.loc 4 372 16 view .LVU693
 2224 0077 C7070000 		movl	$0, (%edi)
 2224      0000
 2225              	.LBE362:
 2226              	.LBE363:
 2227              	.LBE364:
 2228              	.LBE365:
 2229              		.loc 1 630 23 view .LVU694
 2230 007d F7D2     		notl	%edx
GAS LISTING /tmp/ccExXJbd.s 			page 42


 2231              		.loc 1 630 20 view .LVU695
 2232 007f 21D0     		andl	%edx, %eax
 2233 0081 894644   		movl	%eax, 68(%esi)
 2234              		.loc 1 631 3 is_stmt 1 view .LVU696
 2235              		.loc 1 633 3 view .LVU697
 2236              		.loc 1 634 1 is_stmt 0 view .LVU698
 2237 0084 83C40C   		addl	$12, %esp
 2238              		.cfi_def_cfa_offset 20
 2239 0087 89E8     		movl	%ebp, %eax
 2240 0089 5B       		popl	%ebx
 2241              		.cfi_restore 3
 2242              		.cfi_def_cfa_offset 16
 2243 008a 5E       		popl	%esi
 2244              		.cfi_restore 6
 2245              		.cfi_def_cfa_offset 12
 2246              	.LVL117:
 2247              		.loc 1 634 1 view .LVU699
 2248 008b 5F       		popl	%edi
 2249              		.cfi_restore 7
 2250              		.cfi_def_cfa_offset 8
 2251 008c 5D       		popl	%ebp
 2252              		.cfi_restore 5
 2253              		.cfi_def_cfa_offset 4
 2254              	.LVL118:
 2255              		.loc 1 634 1 view .LVU700
 2256 008d C3       		ret
 2257              		.cfi_endproc
 2258              	.LFE234:
 2259              		.size	chEvtWaitAnyTimeout, .-chEvtWaitAnyTimeout
 2260              		.section	.text.chEvtWaitAllTimeout,"ax",@progbits
 2261              		.p2align 4
 2262              		.globl	chEvtWaitAllTimeout
 2263              		.type	chEvtWaitAllTimeout, @function
 2264              	chEvtWaitAllTimeout:
 2265              	.LVL119:
 2266              	.LFB235:
 2267              		.loc 1 652 76 is_stmt 1 view -0
 2268              		.cfi_startproc
 2269              		.loc 1 653 3 view .LVU702
 2270              	.LBB366:
 2271              	.LBI366:
 2272              		.loc 2 527 25 view .LVU703
 2273              	.LBB367:
 2274              		.loc 2 529 3 view .LVU704
 2275              	.LBE367:
 2276              	.LBE366:
 2277              		.loc 1 652 76 is_stmt 0 view .LVU705
 2278 0000 55       		pushl	%ebp
 2279              		.cfi_def_cfa_offset 8
 2280              		.cfi_offset 5, -8
 2281 0001 57       		pushl	%edi
 2282              		.cfi_def_cfa_offset 12
 2283              		.cfi_offset 7, -12
 2284 0002 56       		pushl	%esi
 2285              		.cfi_def_cfa_offset 16
 2286              		.cfi_offset 6, -16
 2287 0003 53       		pushl	%ebx
GAS LISTING /tmp/ccExXJbd.s 			page 43


 2288              		.cfi_def_cfa_offset 20
 2289              		.cfi_offset 3, -20
 2290 0004 E8FCFFFF 		call	__x86.get_pc_thunk.bx
 2290      FF
 2291 0009 81C30200 		addl	$_GLOBAL_OFFSET_TABLE_, %ebx
 2291      0000
 2292 000f 83EC0C   		subl	$12, %esp
 2293              		.cfi_def_cfa_offset 32
 2294              		.loc 1 652 76 view .LVU706
 2295 0012 8B742420 		movl	32(%esp), %esi
 2296              	.LBB370:
 2297              	.LBB368:
 2298              		.loc 2 529 10 view .LVU707
 2299 0016 8B830000 		movl	ch0@GOT(%ebx), %eax
 2299      0000
 2300              	.LBE368:
 2301              	.LBE370:
 2302              	.LBB371:
 2303              	.LBB372:
 2304              	.LBB373:
 2305              		.loc 4 363 16 view .LVU708
 2306 001c 8BAB0000 		movl	port_irq_sts@GOT(%ebx), %ebp
 2306      0000
 2307              	.LBE373:
 2308              	.LBE372:
 2309              	.LBE371:
 2310              	.LBB376:
 2311              	.LBB369:
 2312              		.loc 2 529 10 view .LVU709
 2313 0022 8B780C   		movl	12(%eax), %edi
 2314              	.LVL120:
 2315              		.loc 2 529 10 view .LVU710
 2316              	.LBE369:
 2317              	.LBE376:
 2318              		.loc 1 655 3 is_stmt 1 view .LVU711
 2319              	.LBB377:
 2320              	.LBI371:
 2321              		.loc 3 407 20 view .LVU712
 2322              		.loc 3 409 3 view .LVU713
 2323              	.LBB375:
 2324              	.LBI372:
 2325              		.loc 4 361 20 view .LVU714
 2326              	.LBB374:
 2327              		.loc 4 363 3 view .LVU715
 2328              		.loc 4 363 16 is_stmt 0 view .LVU716
 2329 0025 C7450001 		movl	$1, 0(%ebp)
 2329      000000
 2330              	.LBE374:
 2331              	.LBE375:
 2332              		.loc 3 410 35 is_stmt 1 view .LVU717
 2333              		.loc 3 411 21 view .LVU718
 2334              	.LBE377:
 2335              		.loc 1 656 3 view .LVU719
 2336              		.loc 1 656 14 is_stmt 0 view .LVU720
 2337 002c 8B4744   		movl	68(%edi), %eax
 2338              		.loc 1 656 25 view .LVU721
 2339 002f 89C2     		movl	%eax, %edx
GAS LISTING /tmp/ccExXJbd.s 			page 44


 2340 0031 21F2     		andl	%esi, %edx
 2341              		.loc 1 656 6 view .LVU722
 2342 0033 39F2     		cmpl	%esi, %edx
 2343 0035 7434     		je	.L90
 2344              		.loc 1 657 5 is_stmt 1 view .LVU723
 2345              		.loc 1 657 8 is_stmt 0 view .LVU724
 2346 0037 8B442424 		movl	36(%esp), %eax
 2347 003b 85C0     		testl	%eax, %eax
 2348 003d 7511     		jne	.L91
 2349              	.L93:
 2350              		.loc 1 658 7 is_stmt 1 view .LVU725
 2351              	.LBB378:
 2352              	.LBI378:
 2353              		.loc 3 421 20 view .LVU726
 2354              	.LBB379:
 2355              		.loc 3 423 23 view .LVU727
 2356              		.loc 3 424 34 view .LVU728
 2357              		.loc 3 430 3 view .LVU729
 2358              		.loc 3 430 3 view .LVU730
 2359              		.loc 3 430 3 view .LVU731
 2360              		.loc 3 434 3 view .LVU732
 2361              	.LBB380:
 2362              	.LBI380:
 2363              		.loc 4 370 20 view .LVU733
 2364              	.LBB381:
 2365              		.loc 4 372 3 view .LVU734
 2366              	.LBE381:
 2367              	.LBE380:
 2368              	.LBE379:
 2369              	.LBE378:
 2370              		.loc 1 659 7 view .LVU735
 2371              	.LBB388:
 2372              	.LBB386:
 2373              	.LBB384:
 2374              	.LBB382:
 2375              		.loc 4 372 16 is_stmt 0 view .LVU736
 2376 003f C7450000 		movl	$0, 0(%ebp)
 2376      000000
 2377              	.LBE382:
 2378              	.LBE384:
 2379              	.LBE386:
 2380              	.LBE388:
 2381              		.loc 1 671 1 view .LVU737
 2382 0046 83C40C   		addl	$12, %esp
 2383              		.cfi_remember_state
 2384              		.cfi_def_cfa_offset 20
 2385              		.loc 1 659 14 view .LVU738
 2386 0049 31C0     		xorl	%eax, %eax
 2387              		.loc 1 671 1 view .LVU739
 2388 004b 5B       		popl	%ebx
 2389              		.cfi_restore 3
 2390              		.cfi_def_cfa_offset 16
 2391 004c 5E       		popl	%esi
 2392              		.cfi_restore 6
 2393              		.cfi_def_cfa_offset 12
 2394 004d 5F       		popl	%edi
 2395              		.cfi_restore 7
GAS LISTING /tmp/ccExXJbd.s 			page 45


 2396              		.cfi_def_cfa_offset 8
 2397              	.LVL121:
 2398              		.loc 1 671 1 view .LVU740
 2399 004e 5D       		popl	%ebp
 2400              		.cfi_restore 5
 2401              		.cfi_def_cfa_offset 4
 2402 004f C3       		ret
 2403              	.LVL122:
 2404              		.p2align 4,,10
 2405              		.p2align 3
 2406              	.L91:
 2407              		.cfi_restore_state
 2408              		.loc 1 661 5 is_stmt 1 view .LVU741
 2409              		.loc 1 662 9 is_stmt 0 view .LVU742
 2410 0050 83EC08   		subl	$8, %esp
 2411              		.cfi_def_cfa_offset 40
 2412              		.loc 1 661 22 view .LVU743
 2413 0053 897734   		movl	%esi, 52(%edi)
 2414              		.loc 1 662 5 is_stmt 1 view .LVU744
 2415              		.loc 1 662 9 is_stmt 0 view .LVU745
 2416 0056 FF74242C 		pushl	44(%esp)
 2417              		.cfi_def_cfa_offset 44
 2418 005a 6A0B     		pushl	$11
 2419              		.cfi_def_cfa_offset 48
 2420 005c E8FCFFFF 		call	chSchGoSleepTimeoutS@PLT
 2420      FF
 2421              	.LVL123:
 2422              		.loc 1 662 8 view .LVU746
 2423 0061 83C410   		addl	$16, %esp
 2424              		.cfi_def_cfa_offset 32
 2425 0064 85C0     		testl	%eax, %eax
 2426 0066 78D7     		js	.L93
 2427              		.loc 1 667 20 view .LVU747
 2428 0068 8B4744   		movl	68(%edi), %eax
 2429              	.L90:
 2430              		.loc 1 667 3 is_stmt 1 view .LVU748
 2431              		.loc 1 667 23 is_stmt 0 view .LVU749
 2432 006b 89F2     		movl	%esi, %edx
 2433              	.LBB389:
 2434              	.LBB387:
 2435              	.LBB385:
 2436              	.LBB383:
 2437              		.loc 4 372 16 view .LVU750
 2438 006d C7450000 		movl	$0, 0(%ebp)
 2438      000000
 2439              	.LBE383:
 2440              	.LBE385:
 2441              	.LBE387:
 2442              	.LBE389:
 2443              		.loc 1 667 23 view .LVU751
 2444 0074 F7D2     		notl	%edx
 2445              		.loc 1 667 20 view .LVU752
 2446 0076 21D0     		andl	%edx, %eax
 2447 0078 894744   		movl	%eax, 68(%edi)
 2448              		.loc 1 668 3 is_stmt 1 view .LVU753
 2449              		.loc 1 670 3 view .LVU754
 2450              		.loc 1 671 1 is_stmt 0 view .LVU755
GAS LISTING /tmp/ccExXJbd.s 			page 46


 2451 007b 83C40C   		addl	$12, %esp
 2452              		.cfi_def_cfa_offset 20
 2453              		.loc 1 670 10 view .LVU756
 2454 007e 89F0     		movl	%esi, %eax
 2455              		.loc 1 671 1 view .LVU757
 2456 0080 5B       		popl	%ebx
 2457              		.cfi_restore 3
 2458              		.cfi_def_cfa_offset 16
 2459 0081 5E       		popl	%esi
 2460              		.cfi_restore 6
 2461              		.cfi_def_cfa_offset 12
 2462 0082 5F       		popl	%edi
 2463              		.cfi_restore 7
 2464              		.cfi_def_cfa_offset 8
 2465              	.LVL124:
 2466              		.loc 1 671 1 view .LVU758
 2467 0083 5D       		popl	%ebp
 2468              		.cfi_restore 5
 2469              		.cfi_def_cfa_offset 4
 2470 0084 C3       		ret
 2471              		.cfi_endproc
 2472              	.LFE235:
 2473              		.size	chEvtWaitAllTimeout, .-chEvtWaitAllTimeout
 2474              		.section	.text.__x86.get_pc_thunk.ax,"axG",@progbits,__x86.get_pc_thunk.ax,comdat
 2475              		.globl	__x86.get_pc_thunk.ax
 2476              		.hidden	__x86.get_pc_thunk.ax
 2477              		.type	__x86.get_pc_thunk.ax, @function
 2478              	__x86.get_pc_thunk.ax:
 2479              	.LFB237:
 2480              		.cfi_startproc
 2481 0000 8B0424   		movl	(%esp), %eax
 2482 0003 C3       		ret
 2483              		.cfi_endproc
 2484              	.LFE237:
 2485              		.section	.text.__x86.get_pc_thunk.dx,"axG",@progbits,__x86.get_pc_thunk.dx,comdat
 2486              		.globl	__x86.get_pc_thunk.dx
 2487              		.hidden	__x86.get_pc_thunk.dx
 2488              		.type	__x86.get_pc_thunk.dx, @function
 2489              	__x86.get_pc_thunk.dx:
 2490              	.LFB238:
 2491              		.cfi_startproc
 2492 0000 8B1424   		movl	(%esp), %edx
 2493 0003 C3       		ret
 2494              		.cfi_endproc
 2495              	.LFE238:
 2496              		.section	.text.__x86.get_pc_thunk.cx,"axG",@progbits,__x86.get_pc_thunk.cx,comdat
 2497              		.globl	__x86.get_pc_thunk.cx
 2498              		.hidden	__x86.get_pc_thunk.cx
 2499              		.type	__x86.get_pc_thunk.cx, @function
 2500              	__x86.get_pc_thunk.cx:
 2501              	.LFB239:
 2502              		.cfi_startproc
 2503 0000 8B0C24   		movl	(%esp), %ecx
 2504 0003 C3       		ret
 2505              		.cfi_endproc
 2506              	.LFE239:
 2507              		.section	.text.__x86.get_pc_thunk.bx,"axG",@progbits,__x86.get_pc_thunk.bx,comdat
GAS LISTING /tmp/ccExXJbd.s 			page 47


 2508              		.globl	__x86.get_pc_thunk.bx
 2509              		.hidden	__x86.get_pc_thunk.bx
 2510              		.type	__x86.get_pc_thunk.bx, @function
 2511              	__x86.get_pc_thunk.bx:
 2512              	.LFB240:
 2513              		.cfi_startproc
 2514 0000 8B1C24   		movl	(%esp), %ebx
 2515 0003 C3       		ret
 2516              		.cfi_endproc
 2517              	.LFE240:
 2518              		.section	.text.__x86.get_pc_thunk.si,"axG",@progbits,__x86.get_pc_thunk.si,comdat
 2519              		.globl	__x86.get_pc_thunk.si
 2520              		.hidden	__x86.get_pc_thunk.si
 2521              		.type	__x86.get_pc_thunk.si, @function
 2522              	__x86.get_pc_thunk.si:
 2523              	.LFB241:
 2524              		.cfi_startproc
 2525 0000 8B3424   		movl	(%esp), %esi
 2526 0003 C3       		ret
 2527              		.cfi_endproc
 2528              	.LFE241:
 2529              		.text
 2530              	.Letext0:
 2531              		.file 6 "/usr/include/bits/types.h"
 2532              		.file 7 "/usr/include/bits/stdint-intn.h"
 2533              		.file 8 "/usr/include/bits/stdint-uintn.h"
 2534              		.file 9 "../../../os/common/ports/SIMIA32/compilers/GCC/chtypes.h"
 2535              		.file 10 "../../../os/rt/include/chearly.h"
 2536              		.file 11 "../../../os/rt/include/chobjects.h"
 2537              		.file 12 "../../../os/rt/include/chrfcu.h"
 2538              		.file 13 "../../../os/rt/include/chdebug.h"
 2539              		.file 14 "../../../os/rt/include/chtime.h"
 2540              		.file 15 "../../../os/rt/include/chlists.h"
 2541              		.file 16 "../../../os/rt/include/chsem.h"
 2542              		.file 17 "../../../os/rt/include/chmtx.h"
 2543              		.file 18 "../../../os/rt/include/chschd.h"
 8015 0044 2F686F6D 		.section	.note.GNU-stack,"",@progbits
 8015      652F616C 
 8015      65782F43 
 8015      68696269 
 8015      4F532F64 
GAS LISTING /tmp/ccExXJbd.s 			page 151

