GAS LISTING /tmp/ccHoIXjl.s 			page 1


   1              		.file	"chmemcore.c"
   2              		.text
   3              	.Ltext0:
   4              		.file 0 "/home/alex/ChibiOS/demos/various/LAB3" "../../../os/oslib/src/chmemcore.c"
   5              		.section	.text.__core_init,"ax",@progbits
   6              		.p2align 4
   7              		.globl	__core_init
   8              		.type	__core_init, @function
   9              	__core_init:
  10              	.LFB203:
  11              		.file 1 "../../../os/oslib/src/chmemcore.c"
  12              		.loc 1 81 24 view -0
  13              		.cfi_startproc
  14              		.loc 1 91 3 view .LVU1
  15              		.loc 1 93 3 view .LVU2
  16 0000 E8FCFFFF 		call	__x86.get_pc_thunk.ax
  16      FF
  17 0005 05010000 		addl	$_GLOBAL_OFFSET_TABLE_, %eax
  17      00
  18              		.loc 1 93 22 is_stmt 0 view .LVU3
  19 000a 8D900000 		leal	static_heap.0@GOTOFF(%eax), %edx
  19      0000
  20 0010 89900000 		movl	%edx, ch_memcore@GOTOFF(%eax)
  20      0000
  21              		.loc 1 94 3 is_stmt 1 view .LVU4
  22              		.loc 1 94 22 is_stmt 0 view .LVU5
  23 0016 81C20000 		addl	$131072, %edx
  23      0200
  24 001c 89900400 		movl	%edx, 4+ch_memcore@GOTOFF(%eax)
  24      0000
  25              		.loc 1 96 1 view .LVU6
  26 0022 C3       		ret
  27              		.cfi_endproc
  28              	.LFE203:
  29              		.size	__core_init, .-__core_init
  30              		.section	.text.chCoreAllocFromBaseI,"ax",@progbits
  31              		.p2align 4
  32              		.globl	chCoreAllocFromBaseI
  33              		.type	chCoreAllocFromBaseI, @function
  34              	chCoreAllocFromBaseI:
  35              	.LVL0:
  36              	.LFB204:
  37              		.loc 1 112 72 is_stmt 1 view -0
  38              		.cfi_startproc
  39              		.loc 1 113 3 view .LVU8
  40              		.loc 1 115 21 view .LVU9
  41              		.loc 1 116 3 view .LVU10
  42              		.loc 1 116 3 view .LVU11
  43              		.loc 1 116 3 view .LVU12
  44              		.loc 1 118 3 view .LVU13
  45 0000 E8FCFFFF 		call	__x86.get_pc_thunk.cx
  45      FF
  46 0005 81C10200 		addl	$_GLOBAL_OFFSET_TABLE_, %ecx
  46      0000
  47              		.loc 1 112 72 is_stmt 0 view .LVU14
  48 000b 53       		pushl	%ebx
  49              		.cfi_def_cfa_offset 8
GAS LISTING /tmp/ccHoIXjl.s 			page 2


  50              		.cfi_offset 3, -8
  51              		.loc 1 118 18 view .LVU15
  52 000c 8B442410 		movl	16(%esp), %eax
  53              		.loc 1 112 72 view .LVU16
  54 0010 8B54240C 		movl	12(%esp), %edx
  55              		.loc 1 118 18 view .LVU17
  56 0014 8B990000 		movl	ch_memcore@GOTOFF(%ecx), %ebx
  56      0000
  57 001a 01D8     		addl	%ebx, %eax
  58 001c 8D4402FF 		leal	-1(%edx,%eax), %eax
  59 0020 F7DA     		negl	%edx
  60 0022 21D0     		andl	%edx, %eax
  61              	.LVL1:
  62              		.loc 1 119 3 is_stmt 1 view .LVU18
  63              		.loc 1 119 8 is_stmt 0 view .LVU19
  64 0024 8B542408 		movl	8(%esp), %edx
  65 0028 01C2     		addl	%eax, %edx
  66              	.LVL2:
  67              		.loc 1 122 3 is_stmt 1 view .LVU20
  68              		.loc 1 122 34 is_stmt 0 view .LVU21
  69 002a 39910400 		cmpl	%edx, 4+ch_memcore@GOTOFF(%ecx)
  69      0000
  70 0030 720E     		jb	.L5
  71 0032 39D3     		cmpl	%edx, %ebx
  72 0034 770A     		ja	.L5
  73              		.loc 1 126 3 is_stmt 1 view .LVU22
  74              		.loc 1 126 22 is_stmt 0 view .LVU23
  75 0036 89910000 		movl	%edx, ch_memcore@GOTOFF(%ecx)
  75      0000
  76              		.loc 1 128 3 is_stmt 1 view .LVU24
  77              		.loc 1 129 1 is_stmt 0 view .LVU25
  78 003c 5B       		popl	%ebx
  79              		.cfi_remember_state
  80              		.cfi_restore 3
  81              		.cfi_def_cfa_offset 4
  82 003d C3       		ret
  83 003e 6690     		.p2align 4,,10
  84              		.p2align 3
  85              	.L5:
  86              		.cfi_restore_state
  87              		.loc 1 123 12 view .LVU26
  88 0040 31C0     		xorl	%eax, %eax
  89              	.LVL3:
  90              		.loc 1 129 1 view .LVU27
  91 0042 5B       		popl	%ebx
  92              		.cfi_restore 3
  93              		.cfi_def_cfa_offset 4
  94              	.LVL4:
  95              		.loc 1 129 1 view .LVU28
  96 0043 C3       		ret
  97              		.cfi_endproc
  98              	.LFE204:
  99              		.size	chCoreAllocFromBaseI, .-chCoreAllocFromBaseI
 100              		.section	.text.chCoreAllocFromTopI,"ax",@progbits
 101              		.p2align 4
 102              		.globl	chCoreAllocFromTopI
 103              		.type	chCoreAllocFromTopI, @function
GAS LISTING /tmp/ccHoIXjl.s 			page 3


 104              	chCoreAllocFromTopI:
 105              	.LVL5:
 106              	.LFB205:
 107              		.loc 1 145 71 is_stmt 1 view -0
 108              		.cfi_startproc
 109              		.loc 1 146 3 view .LVU30
 110              		.loc 1 148 21 view .LVU31
 111              		.loc 1 149 3 view .LVU32
 112              		.loc 1 149 3 view .LVU33
 113              		.loc 1 149 3 view .LVU34
 114              		.loc 1 151 3 view .LVU35
 115 0000 E8FCFFFF 		call	__x86.get_pc_thunk.cx
 115      FF
 116 0005 81C10200 		addl	$_GLOBAL_OFFSET_TABLE_, %ecx
 116      0000
 117              		.loc 1 145 71 is_stmt 0 view .LVU36
 118 000b 53       		pushl	%ebx
 119              		.cfi_def_cfa_offset 8
 120              		.cfi_offset 3, -8
 121              		.loc 1 151 18 view .LVU37
 122 000c 8B54240C 		movl	12(%esp), %edx
 123 0010 F7DA     		negl	%edx
 124 0012 8B990400 		movl	4+ch_memcore@GOTOFF(%ecx), %ebx
 124      0000
 125 0018 89D8     		movl	%ebx, %eax
 126 001a 2B442408 		subl	8(%esp), %eax
 127              		.loc 1 151 5 view .LVU38
 128 001e 21D0     		andl	%edx, %eax
 129              	.LVL6:
 130              		.loc 1 152 3 is_stmt 1 view .LVU39
 131              		.loc 1 152 8 is_stmt 0 view .LVU40
 132 0020 89C2     		movl	%eax, %edx
 133 0022 2B542410 		subl	16(%esp), %edx
 134              	.LVL7:
 135              		.loc 1 155 3 is_stmt 1 view .LVU41
 136              		.loc 1 155 35 is_stmt 0 view .LVU42
 137 0026 39910000 		cmpl	%edx, ch_memcore@GOTOFF(%ecx)
 137      0000
 138 002c 7712     		ja	.L9
 139 002e 39D3     		cmpl	%edx, %ebx
 140 0030 720E     		jb	.L9
 141              		.loc 1 159 3 is_stmt 1 view .LVU43
 142              		.loc 1 159 21 is_stmt 0 view .LVU44
 143 0032 89910400 		movl	%edx, 4+ch_memcore@GOTOFF(%ecx)
 143      0000
 144              		.loc 1 161 3 is_stmt 1 view .LVU45
 145              		.loc 1 162 1 is_stmt 0 view .LVU46
 146 0038 5B       		popl	%ebx
 147              		.cfi_remember_state
 148              		.cfi_restore 3
 149              		.cfi_def_cfa_offset 4
 150 0039 C3       		ret
 151 003a 8DB60000 		.p2align 4,,10
 151      0000
 152              		.p2align 3
 153              	.L9:
 154              		.cfi_restore_state
GAS LISTING /tmp/ccHoIXjl.s 			page 4


 155              		.loc 1 156 12 view .LVU47
 156 0040 31C0     		xorl	%eax, %eax
 157              	.LVL8:
 158              		.loc 1 162 1 view .LVU48
 159 0042 5B       		popl	%ebx
 160              		.cfi_restore 3
 161              		.cfi_def_cfa_offset 4
 162              	.LVL9:
 163              		.loc 1 162 1 view .LVU49
 164 0043 C3       		ret
 165              		.cfi_endproc
 166              	.LFE205:
 167              		.size	chCoreAllocFromTopI, .-chCoreAllocFromTopI
 168              		.section	.text.chCoreAllocFromBase,"ax",@progbits
 169              		.p2align 4
 170              		.globl	chCoreAllocFromBase
 171              		.type	chCoreAllocFromBase, @function
 172              	chCoreAllocFromBase:
 173              	.LVL10:
 174              	.LFB206:
 175              		.loc 1 178 71 is_stmt 1 view -0
 176              		.cfi_startproc
 177              		.loc 1 179 3 view .LVU51
 178              		.loc 1 181 3 view .LVU52
 179              		.loc 1 182 3 view .LVU53
 180 0000 E8FCFFFF 		call	__x86.get_pc_thunk.cx
 180      FF
 181 0005 81C10200 		addl	$_GLOBAL_OFFSET_TABLE_, %ecx
 181      0000
 182              		.loc 1 178 71 is_stmt 0 view .LVU54
 183 000b 53       		pushl	%ebx
 184              		.cfi_def_cfa_offset 8
 185              		.cfi_offset 3, -8
 186              	.LVL11:
 187              	.LBB28:
 188              	.LBB29:
 189              		.loc 1 118 18 view .LVU55
 190 000c 8B442410 		movl	16(%esp), %eax
 191              	.LBE29:
 192              	.LBE28:
 193              		.loc 1 178 71 view .LVU56
 194 0010 8B54240C 		movl	12(%esp), %edx
 195              	.LVL12:
 196              	.LBB32:
 197              	.LBI28:
 198              		.loc 1 112 7 is_stmt 1 view .LVU57
 199              	.LBB30:
 200              		.loc 1 113 3 view .LVU58
 201              		.loc 1 115 21 view .LVU59
 202              		.loc 1 116 3 view .LVU60
 203              		.loc 1 116 3 view .LVU61
 204              		.loc 1 116 3 view .LVU62
 205              		.loc 1 118 3 view .LVU63
 206              		.loc 1 118 18 is_stmt 0 view .LVU64
 207 0014 8B990000 		movl	ch_memcore@GOTOFF(%ecx), %ebx
 207      0000
 208 001a 01D8     		addl	%ebx, %eax
GAS LISTING /tmp/ccHoIXjl.s 			page 5


 209 001c 8D4402FF 		leal	-1(%edx,%eax), %eax
 210 0020 F7DA     		negl	%edx
 211 0022 21D0     		andl	%edx, %eax
 212              	.LVL13:
 213              		.loc 1 119 3 is_stmt 1 view .LVU65
 214              		.loc 1 119 8 is_stmt 0 view .LVU66
 215 0024 8B542408 		movl	8(%esp), %edx
 216 0028 01C2     		addl	%eax, %edx
 217              	.LVL14:
 218              		.loc 1 122 3 is_stmt 1 view .LVU67
 219              		.loc 1 122 34 is_stmt 0 view .LVU68
 220 002a 3B910400 		cmpl	4+ch_memcore@GOTOFF(%ecx), %edx
 220      0000
 221 0030 771E     		ja	.L13
 222 0032 39D3     		cmpl	%edx, %ebx
 223 0034 771A     		ja	.L13
 224              		.loc 1 126 3 is_stmt 1 view .LVU69
 225              		.loc 1 126 22 is_stmt 0 view .LVU70
 226 0036 89910000 		movl	%edx, ch_memcore@GOTOFF(%ecx)
 226      0000
 227              		.loc 1 128 3 is_stmt 1 view .LVU71
 228              	.LVL15:
 229              		.loc 1 128 3 is_stmt 0 view .LVU72
 230              	.LBE30:
 231              	.LBE32:
 232              		.loc 1 183 3 is_stmt 1 view .LVU73
 233              	.LBB33:
 234              	.LBI33:
 235              		.file 2 "../../../os/rt/include/chsys.h"
 236              		.loc 2 421 20 view .LVU74
 237              	.LBB34:
 238              		.loc 2 423 23 view .LVU75
 239              		.loc 2 424 34 view .LVU76
 240              		.loc 2 430 3 view .LVU77
 241              		.loc 2 430 3 view .LVU78
 242              		.loc 2 430 3 view .LVU79
 243              		.loc 2 434 3 view .LVU80
 244              	.LBB35:
 245              	.LBI35:
 246              		.file 3 "../../../os/common/ports/SIMIA32/chcore.h"
 247              		.loc 3 370 20 view .LVU81
 248              	.LBB36:
 249              		.loc 3 372 3 view .LVU82
 250              		.loc 3 372 16 is_stmt 0 view .LVU83
 251 003c 8B910000 		movl	port_irq_sts@GOT(%ecx), %edx
 251      0000
 252 0042 C7020000 		movl	$0, (%edx)
 252      0000
 253              	.LBE36:
 254              	.LBE35:
 255              	.LBE34:
 256              	.LBE33:
 257              		.loc 1 185 3 is_stmt 1 view .LVU84
 258              		.loc 1 186 1 is_stmt 0 view .LVU85
 259 0048 5B       		popl	%ebx
 260              		.cfi_remember_state
 261              		.cfi_restore 3
GAS LISTING /tmp/ccHoIXjl.s 			page 6


 262              		.cfi_def_cfa_offset 4
 263 0049 C3       		ret
 264              	.LVL16:
 265 004a 8DB60000 		.p2align 4,,10
 265      0000
 266              		.p2align 3
 267              	.L13:
 268              		.cfi_restore_state
 269              	.LBB43:
 270              	.LBB41:
 271              	.LBB39:
 272              	.LBB37:
 273              		.loc 3 372 16 view .LVU86
 274 0050 8B910000 		movl	port_irq_sts@GOT(%ecx), %edx
 274      0000
 275              	.LVL17:
 276              		.loc 3 372 16 view .LVU87
 277              	.LBE37:
 278              	.LBE39:
 279              	.LBE41:
 280              	.LBE43:
 281              	.LBB44:
 282              	.LBB31:
 283              		.loc 1 123 12 view .LVU88
 284 0056 31C0     		xorl	%eax, %eax
 285              	.LVL18:
 286              		.loc 1 123 12 view .LVU89
 287              	.LBE31:
 288              	.LBE44:
 289              		.loc 1 183 3 is_stmt 1 view .LVU90
 290              	.LBB45:
 291              		.loc 2 421 20 view .LVU91
 292              	.LBB42:
 293              		.loc 2 423 23 view .LVU92
 294              		.loc 2 424 34 view .LVU93
 295              		.loc 2 430 3 view .LVU94
 296              		.loc 2 430 3 view .LVU95
 297              		.loc 2 430 3 view .LVU96
 298              		.loc 2 434 3 view .LVU97
 299              	.LBB40:
 300              		.loc 3 370 20 view .LVU98
 301              	.LBB38:
 302              		.loc 3 372 3 view .LVU99
 303              		.loc 3 372 16 is_stmt 0 view .LVU100
 304 0058 C7020000 		movl	$0, (%edx)
 304      0000
 305              	.LBE38:
 306              	.LBE40:
 307              	.LBE42:
 308              	.LBE45:
 309              		.loc 1 185 3 is_stmt 1 view .LVU101
 310              		.loc 1 186 1 is_stmt 0 view .LVU102
 311 005e 5B       		popl	%ebx
 312              		.cfi_restore 3
 313              		.cfi_def_cfa_offset 4
 314 005f C3       		ret
 315              		.cfi_endproc
GAS LISTING /tmp/ccHoIXjl.s 			page 7


 316              	.LFE206:
 317              		.size	chCoreAllocFromBase, .-chCoreAllocFromBase
 318              		.section	.text.chCoreAllocFromTop,"ax",@progbits
 319              		.p2align 4
 320              		.globl	chCoreAllocFromTop
 321              		.type	chCoreAllocFromTop, @function
 322              	chCoreAllocFromTop:
 323              	.LVL19:
 324              	.LFB207:
 325              		.loc 1 202 70 is_stmt 1 view -0
 326              		.cfi_startproc
 327              		.loc 1 203 3 view .LVU104
 328              		.loc 1 205 3 view .LVU105
 329              		.loc 1 206 3 view .LVU106
 330 0000 E8FCFFFF 		call	__x86.get_pc_thunk.dx
 330      FF
 331 0005 81C20200 		addl	$_GLOBAL_OFFSET_TABLE_, %edx
 331      0000
 332              		.loc 1 202 70 is_stmt 0 view .LVU107
 333 000b 53       		pushl	%ebx
 334              		.cfi_def_cfa_offset 8
 335              		.cfi_offset 3, -8
 336              	.LVL20:
 337              	.LBB52:
 338              	.LBI52:
 339              		.loc 1 145 7 is_stmt 1 view .LVU108
 340              	.LBB53:
 341              		.loc 1 146 3 view .LVU109
 342              		.loc 1 148 21 view .LVU110
 343              		.loc 1 149 3 view .LVU111
 344              		.loc 1 149 3 view .LVU112
 345              		.loc 1 149 3 view .LVU113
 346              		.loc 1 151 3 view .LVU114
 347              		.loc 1 151 18 is_stmt 0 view .LVU115
 348 000c 8B4C240C 		movl	12(%esp), %ecx
 349 0010 F7D9     		negl	%ecx
 350 0012 8B9A0400 		movl	4+ch_memcore@GOTOFF(%edx), %ebx
 350      0000
 351 0018 89D8     		movl	%ebx, %eax
 352 001a 2B442408 		subl	8(%esp), %eax
 353              		.loc 1 151 5 view .LVU116
 354 001e 21C8     		andl	%ecx, %eax
 355              	.LVL21:
 356              		.loc 1 152 3 is_stmt 1 view .LVU117
 357              		.loc 1 152 8 is_stmt 0 view .LVU118
 358 0020 89C1     		movl	%eax, %ecx
 359 0022 2B4C2410 		subl	16(%esp), %ecx
 360              	.LVL22:
 361              		.loc 1 155 3 is_stmt 1 view .LVU119
 362              		.loc 1 155 35 is_stmt 0 view .LVU120
 363 0026 3B8A0000 		cmpl	ch_memcore@GOTOFF(%edx), %ecx
 363      0000
 364 002c 7222     		jb	.L17
 365 002e 39CB     		cmpl	%ecx, %ebx
 366 0030 721E     		jb	.L17
 367              		.loc 1 159 3 is_stmt 1 view .LVU121
 368              		.loc 1 159 21 is_stmt 0 view .LVU122
GAS LISTING /tmp/ccHoIXjl.s 			page 8


 369 0032 898A0400 		movl	%ecx, 4+ch_memcore@GOTOFF(%edx)
 369      0000
 370              		.loc 1 161 3 is_stmt 1 view .LVU123
 371              	.LVL23:
 372              		.loc 1 161 3 is_stmt 0 view .LVU124
 373              	.LBE53:
 374              	.LBE52:
 375              		.loc 1 207 3 is_stmt 1 view .LVU125
 376              	.LBB55:
 377              	.LBI55:
 378              		.loc 2 421 20 view .LVU126
 379              	.LBB56:
 380              		.loc 2 423 23 view .LVU127
 381              		.loc 2 424 34 view .LVU128
 382              		.loc 2 430 3 view .LVU129
 383              		.loc 2 430 3 view .LVU130
 384              		.loc 2 430 3 view .LVU131
 385              		.loc 2 434 3 view .LVU132
 386              	.LBB57:
 387              	.LBI57:
 388              		.loc 3 370 20 view .LVU133
 389              	.LBB58:
 390              		.loc 3 372 3 view .LVU134
 391              		.loc 3 372 16 is_stmt 0 view .LVU135
 392 0038 8B920000 		movl	port_irq_sts@GOT(%edx), %edx
 392      0000
 393 003e C7020000 		movl	$0, (%edx)
 393      0000
 394              	.LBE58:
 395              	.LBE57:
 396              	.LBE56:
 397              	.LBE55:
 398              		.loc 1 209 3 is_stmt 1 view .LVU136
 399              		.loc 1 210 1 is_stmt 0 view .LVU137
 400 0044 5B       		popl	%ebx
 401              		.cfi_remember_state
 402              		.cfi_restore 3
 403              		.cfi_def_cfa_offset 4
 404 0045 C3       		ret
 405              	.LVL24:
 406 0046 8DB42600 		.p2align 4,,10
 406      0000008D 
 406      7600
 407              		.p2align 3
 408              	.L17:
 409              		.cfi_restore_state
 410              	.LBB65:
 411              	.LBB63:
 412              	.LBB61:
 413              	.LBB59:
 414              		.loc 3 372 16 view .LVU138
 415 0050 8B920000 		movl	port_irq_sts@GOT(%edx), %edx
 415      0000
 416              	.LBE59:
 417              	.LBE61:
 418              	.LBE63:
 419              	.LBE65:
GAS LISTING /tmp/ccHoIXjl.s 			page 9


 420              	.LBB66:
 421              	.LBB54:
 422              		.loc 1 156 12 view .LVU139
 423 0056 31C0     		xorl	%eax, %eax
 424              	.LVL25:
 425              		.loc 1 156 12 view .LVU140
 426              	.LBE54:
 427              	.LBE66:
 428              		.loc 1 207 3 is_stmt 1 view .LVU141
 429              	.LBB67:
 430              		.loc 2 421 20 view .LVU142
 431              	.LBB64:
 432              		.loc 2 423 23 view .LVU143
 433              		.loc 2 424 34 view .LVU144
 434              		.loc 2 430 3 view .LVU145
 435              		.loc 2 430 3 view .LVU146
 436              		.loc 2 430 3 view .LVU147
 437              		.loc 2 434 3 view .LVU148
 438              	.LBB62:
 439              		.loc 3 370 20 view .LVU149
 440              	.LBB60:
 441              		.loc 3 372 3 view .LVU150
 442              		.loc 3 372 16 is_stmt 0 view .LVU151
 443 0058 C7020000 		movl	$0, (%edx)
 443      0000
 444              	.LBE60:
 445              	.LBE62:
 446              	.LBE64:
 447              	.LBE67:
 448              		.loc 1 209 3 is_stmt 1 view .LVU152
 449              		.loc 1 210 1 is_stmt 0 view .LVU153
 450 005e 5B       		popl	%ebx
 451              		.cfi_restore 3
 452              		.cfi_def_cfa_offset 4
 453 005f C3       		ret
 454              		.cfi_endproc
 455              	.LFE207:
 456              		.size	chCoreAllocFromTop, .-chCoreAllocFromTop
 457              		.section	.text.chCoreGetStatusX,"ax",@progbits
 458              		.p2align 4
 459              		.globl	chCoreGetStatusX
 460              		.type	chCoreGetStatusX, @function
 461              	chCoreGetStatusX:
 462              	.LVL26:
 463              	.LFB208:
 464              		.loc 1 219 43 is_stmt 1 view -0
 465              		.cfi_startproc
 466              		.loc 1 221 3 view .LVU155
 467 0000 E8FCFFFF 		call	__x86.get_pc_thunk.ax
 467      FF
 468 0005 05010000 		addl	$_GLOBAL_OFFSET_TABLE_, %eax
 468      00
 469              		.loc 1 219 43 is_stmt 0 view .LVU156
 470 000a 8B542404 		movl	4(%esp), %edx
 471              		.loc 1 221 25 view .LVU157
 472 000e 8B880000 		movl	ch_memcore@GOTOFF(%eax), %ecx
 472      0000
GAS LISTING /tmp/ccHoIXjl.s 			page 10


 473              		.loc 1 223 42 view .LVU158
 474 0014 8B800400 		movl	4+ch_memcore@GOTOFF(%eax), %eax
 474      0000
 475 001a 29C8     		subl	%ecx, %eax
 476              		.loc 1 221 13 view .LVU159
 477 001c 890A     		movl	%ecx, (%edx)
 478              		.loc 1 223 3 is_stmt 1 view .LVU160
 479              		.loc 1 223 13 is_stmt 0 view .LVU161
 480 001e 894204   		movl	%eax, 4(%edx)
 481              		.loc 1 225 1 view .LVU162
 482 0021 C3       		ret
 483              		.cfi_endproc
 484              	.LFE208:
 485              		.size	chCoreGetStatusX, .-chCoreGetStatusX
 486              		.section	.bss.static_heap.0,"aw",@nobits
 487              		.align 32
 488              		.type	static_heap.0, @object
 489              		.size	static_heap.0, 131072
 490              	static_heap.0:
 491 0000 00000000 		.zero	131072
 491      00000000 
 491      00000000 
 491      00000000 
 491      00000000 
 492              		.globl	ch_memcore
 493              		.section	.bss.ch_memcore,"aw",@nobits
 494              		.align 4
 495              		.type	ch_memcore, @object
 496              		.size	ch_memcore, 8
 497              	ch_memcore:
 498 0000 00000000 		.zero	8
 498      00000000 
 499              		.section	.text.__x86.get_pc_thunk.ax,"axG",@progbits,__x86.get_pc_thunk.ax,comdat
 500              		.globl	__x86.get_pc_thunk.ax
 501              		.hidden	__x86.get_pc_thunk.ax
 502              		.type	__x86.get_pc_thunk.ax, @function
 503              	__x86.get_pc_thunk.ax:
 504              	.LFB211:
 505              		.cfi_startproc
 506 0000 8B0424   		movl	(%esp), %eax
 507 0003 C3       		ret
 508              		.cfi_endproc
 509              	.LFE211:
 510              		.section	.text.__x86.get_pc_thunk.dx,"axG",@progbits,__x86.get_pc_thunk.dx,comdat
 511              		.globl	__x86.get_pc_thunk.dx
 512              		.hidden	__x86.get_pc_thunk.dx
 513              		.type	__x86.get_pc_thunk.dx, @function
 514              	__x86.get_pc_thunk.dx:
 515              	.LFB212:
 516              		.cfi_startproc
 517 0000 8B1424   		movl	(%esp), %edx
 518 0003 C3       		ret
 519              		.cfi_endproc
 520              	.LFE212:
 521              		.section	.text.__x86.get_pc_thunk.cx,"axG",@progbits,__x86.get_pc_thunk.cx,comdat
 522              		.globl	__x86.get_pc_thunk.cx
 523              		.hidden	__x86.get_pc_thunk.cx
GAS LISTING /tmp/ccHoIXjl.s 			page 11


 524              		.type	__x86.get_pc_thunk.cx, @function
 525              	__x86.get_pc_thunk.cx:
 526              	.LFB213:
 527              		.cfi_startproc
 528 0000 8B0C24   		movl	(%esp), %ecx
 529 0003 C3       		ret
 530              		.cfi_endproc
 531              	.LFE213:
 532              		.text
 533              	.Letext0:
 534              		.file 4 "/usr/lib/gcc/x86_64-linux-gnu/11/include/stddef.h"
 535              		.file 5 "/usr/include/bits/types.h"
 536              		.file 6 "/usr/include/bits/stdint-uintn.h"
 537              		.file 7 "../../../os/common/ports/SIMIA32/compilers/GCC/chtypes.h"
 538              		.file 8 "../../../os/oslib/include/chmemchecks.h"
 539              		.file 9 "../../../os/oslib/include/chmemcore.h"
 2296 0048 2F686F6D 		.section	.note.GNU-stack,"",@progbits
 2296      652F616C 
 2296      65782F43 
 2296      68696269 
 2296      4F532F64 
GAS LISTING /tmp/ccHoIXjl.s 			page 45

