GAS LISTING /tmp/ccLlvNSj.s 			page 1


   1              		.file	"chobjcaches.c"
   2              		.text
   3              	.Ltext0:
   4              		.file 0 "/home/alex/ChibiOS/demos/various/LAB3" "../../../os/oslib/src/chobjcaches.c"
   5              		.section	.text.chCacheObjectInit,"ax",@progbits
   6              		.p2align 4
   7              		.globl	chCacheObjectInit
   8              		.type	chCacheObjectInit, @function
   9              	chCacheObjectInit:
  10              	.LVL0:
  11              	.LFB205:
  12              		.file 1 "../../../os/oslib/src/chobjcaches.c"
  13              		.loc 1 247 44 view -0
  14              		.cfi_startproc
  15              		.loc 1 249 3 view .LVU1
  16              		.loc 1 249 3 view .LVU2
  17              		.loc 1 249 3 view .LVU3
  18              		.loc 1 255 3 view .LVU4
  19              		.loc 1 247 44 is_stmt 0 view .LVU5
  20 0000 55       		pushl	%ebp
  21              		.cfi_def_cfa_offset 8
  22              		.cfi_offset 5, -8
  23 0001 57       		pushl	%edi
  24              		.cfi_def_cfa_offset 12
  25              		.cfi_offset 7, -12
  26 0002 56       		pushl	%esi
  27              		.cfi_def_cfa_offset 16
  28              		.cfi_offset 6, -16
  29 0003 53       		pushl	%ebx
  30              		.cfi_def_cfa_offset 20
  31              		.cfi_offset 3, -20
  32 0004 E8FCFFFF 		call	__x86.get_pc_thunk.bx
  32      FF
  33 0009 81C30200 		addl	$_GLOBAL_OFFSET_TABLE_, %ebx
  33      0000
  34 000f 83EC24   		subl	$36, %esp
  35              		.cfi_def_cfa_offset 56
  36              		.loc 1 247 44 view .LVU6
  37 0012 8B6C2438 		movl	56(%esp), %ebp
  38 0016 8B7C2444 		movl	68(%esp), %edi
  39 001a 8B74244C 		movl	76(%esp), %esi
  40              		.loc 1 255 3 view .LVU7
  41 001e 6A01     		pushl	$1
  42              		.cfi_def_cfa_offset 60
  43 0020 8D4D24   		leal	36(%ebp), %ecx
  44 0023 51       		pushl	%ecx
  45              		.cfi_def_cfa_offset 64
  46 0024 E8FCFFFF 		call	chSemObjectInit@PLT
  46      FF
  47              	.LVL1:
  48              		.loc 1 256 3 is_stmt 1 view .LVU8
  49 0029 8D4D30   		leal	48(%ebp), %ecx
  50 002c 58       		popl	%eax
  51              		.cfi_def_cfa_offset 60
  52 002d 5A       		popl	%edx
  53              		.cfi_def_cfa_offset 56
  54 002e 57       		pushl	%edi
GAS LISTING /tmp/ccLlvNSj.s 			page 2


  55              		.cfi_def_cfa_offset 60
  56 002f 51       		pushl	%ecx
  57              		.cfi_def_cfa_offset 64
  58 0030 E8FCFFFF 		call	chSemObjectInit@PLT
  58      FF
  59              	.LVL2:
  60              		.loc 1 257 3 view .LVU9
  61              		.loc 1 261 25 is_stmt 0 view .LVU10
  62 0035 8B4C2458 		movl	88(%esp), %ecx
  63              		.loc 1 257 25 view .LVU11
  64 0039 8B442444 		movl	68(%esp), %eax
  65              		.loc 1 259 25 view .LVU12
  66 003d 897D08   		movl	%edi, 8(%ebp)
  67              		.loc 1 260 25 view .LVU13
  68 0040 897510   		movl	%esi, 16(%ebp)
  69              		.loc 1 261 25 view .LVU14
  70 0043 894D3C   		movl	%ecx, 60(%ebp)
  71              		.loc 1 262 25 view .LVU15
  72 0046 8B4C245C 		movl	92(%esp), %ecx
  73              		.loc 1 257 25 view .LVU16
  74 004a 894500   		movl	%eax, 0(%ebp)
  75              		.loc 1 258 3 is_stmt 1 view .LVU17
  76              		.loc 1 258 25 is_stmt 0 view .LVU18
  77 004d 8B442448 		movl	72(%esp), %eax
  78              		.loc 1 262 25 view .LVU19
  79 0051 894D40   		movl	%ecx, 64(%ebp)
  80              		.loc 1 265 27 view .LVU20
  81 0054 8D4D14   		leal	20(%ebp), %ecx
  82 0057 894C241C 		movl	%ecx, 28(%esp)
  83              		.loc 1 265 25 view .LVU21
  84 005b 894D1C   		movl	%ecx, 28(%ebp)
  85              		.loc 1 266 25 view .LVU22
  86 005e 894D20   		movl	%ecx, 32(%ebp)
  87              		.loc 1 273 20 view .LVU23
  88 0061 8B4C2444 		movl	68(%esp), %ecx
  89 0065 83C410   		addl	$16, %esp
  90              		.cfi_def_cfa_offset 48
  91              		.loc 1 258 25 view .LVU24
  92 0068 894504   		movl	%eax, 4(%ebp)
  93              		.loc 1 259 3 is_stmt 1 view .LVU25
  94              		.loc 1 260 3 view .LVU26
  95              		.loc 1 261 3 view .LVU27
  96              		.loc 1 262 3 view .LVU28
  97              		.loc 1 263 3 view .LVU29
  98              		.loc 1 263 25 is_stmt 0 view .LVU30
  99 006b C7451400 		movl	$0, 20(%ebp)
  99      000000
 100              		.loc 1 264 3 is_stmt 1 view .LVU31
 101              		.loc 1 273 20 is_stmt 0 view .LVU32
 102 0072 8D0CC8   		leal	(%eax,%ecx,8), %ecx
 103              		.loc 1 264 25 view .LVU33
 104 0075 C7451800 		movl	$0, 24(%ebp)
 104      000000
 105              		.loc 1 265 3 is_stmt 1 view .LVU34
 106              		.loc 1 266 3 view .LVU35
 107              	.LVL3:
 108 007c 8D742600 		.p2align 4,,10
GAS LISTING /tmp/ccLlvNSj.s 			page 3


 109              		.p2align 3
 110              	.L2:
 111              		.loc 1 269 3 discriminator 1 view .LVU36
 112              		.loc 1 270 5 discriminator 1 view .LVU37
 113              		.loc 1 270 17 is_stmt 0 discriminator 1 view .LVU38
 114 0080 8900     		movl	%eax, (%eax)
 115              		.loc 1 271 5 is_stmt 1 discriminator 1 view .LVU39
 116              		.loc 1 271 17 is_stmt 0 discriminator 1 view .LVU40
 117 0082 894004   		movl	%eax, 4(%eax)
 118              		.loc 1 272 5 is_stmt 1 discriminator 1 view .LVU41
 119              		.loc 1 272 10 is_stmt 0 discriminator 1 view .LVU42
 120 0085 83C008   		addl	$8, %eax
 121              	.LVL4:
 122              		.loc 1 273 18 is_stmt 1 discriminator 1 view .LVU43
 123 0088 39C1     		cmpl	%eax, %ecx
 124 008a 77F4     		ja	.L2
 125 008c 89742444 		movl	%esi, 68(%esp)
 126              	.LVL5:
 127              		.loc 1 273 18 is_stmt 0 discriminator 1 view .LVU44
 128 0090 89EE     		movl	%ebp, %esi
 129 0092 8B6C2444 		movl	68(%esp), %ebp
 130              	.LVL6:
 131 0096 8DB42600 		.p2align 4,,10
 131      0000008D 
 131      7600
 132              		.p2align 3
 133              	.L3:
 134              		.loc 1 276 3 is_stmt 1 discriminator 1 view .LVU45
 135              	.LBB33:
 136              		.loc 1 277 5 discriminator 1 view .LVU46
 137              		.loc 1 279 5 discriminator 1 view .LVU47
 138 00a0 83EC08   		subl	$8, %esp
 139              		.cfi_def_cfa_offset 56
 140 00a3 8D5518   		leal	24(%ebp), %edx
 141 00a6 6A01     		pushl	$1
 142              		.cfi_def_cfa_offset 60
 143 00a8 52       		pushl	%edx
 144              		.cfi_def_cfa_offset 64
 145 00a9 E8FCFFFF 		call	chSemObjectInit@PLT
 145      FF
 146              	.LVL7:
 147              		.loc 1 280 5 discriminator 1 view .LVU48
 148 00ae 8B561C   		movl	28(%esi), %edx
 149 00b1 8B44241C 		movl	28(%esp), %eax
 150 00b5 895508   		movl	%edx, 8(%ebp)
 151              		.loc 1 280 5 discriminator 1 view .LVU49
 152 00b8 89450C   		movl	%eax, 12(%ebp)
 153              		.loc 1 280 5 discriminator 1 view .LVU50
 154 00bb 896A0C   		movl	%ebp, 12(%edx)
 155              		.loc 1 280 5 discriminator 1 view .LVU51
 156 00be 896E1C   		movl	%ebp, 28(%esi)
 157              		.loc 1 280 31 discriminator 1 view .LVU52
 158              		.loc 1 281 5 discriminator 1 view .LVU53
 159              		.loc 1 281 21 is_stmt 0 discriminator 1 view .LVU54
 160 00c1 C7451000 		movl	$0, 16(%ebp)
 160      000000
 161              		.loc 1 282 5 is_stmt 1 discriminator 1 view .LVU55
GAS LISTING /tmp/ccLlvNSj.s 			page 4


 162              		.loc 1 282 21 is_stmt 0 discriminator 1 view .LVU56
 163 00c8 C7451400 		movl	$0, 20(%ebp)
 163      000000
 164              		.loc 1 283 5 is_stmt 1 discriminator 1 view .LVU57
 165              		.loc 1 283 21 is_stmt 0 discriminator 1 view .LVU58
 166 00cf C7452401 		movl	$1, 36(%ebp)
 166      000000
 167              		.loc 1 284 5 is_stmt 1 discriminator 1 view .LVU59
 168              		.loc 1 284 21 is_stmt 0 discriminator 1 view .LVU60
 169 00d6 C7452800 		movl	$0, 40(%ebp)
 169      000000
 170              		.loc 1 285 5 is_stmt 1 discriminator 1 view .LVU61
 171              		.loc 1 285 11 is_stmt 0 discriminator 1 view .LVU62
 172 00dd 036C2450 		addl	80(%esp), %ebp
 173              	.LVL8:
 174              		.loc 1 286 5 is_stmt 1 discriminator 1 view .LVU63
 175              		.loc 1 286 5 is_stmt 0 discriminator 1 view .LVU64
 176              	.LBE33:
 177              		.loc 1 287 17 is_stmt 1 discriminator 1 view .LVU65
 178 00e1 83C410   		addl	$16, %esp
 179              		.cfi_def_cfa_offset 48
 180 00e4 83EF01   		subl	$1, %edi
 181              	.LVL9:
 182              		.loc 1 287 17 is_stmt 0 discriminator 1 view .LVU66
 183 00e7 75B7     		jne	.L3
 184              		.loc 1 288 1 view .LVU67
 185 00e9 83C41C   		addl	$28, %esp
 186              		.cfi_def_cfa_offset 20
 187 00ec 5B       		popl	%ebx
 188              		.cfi_restore 3
 189              		.cfi_def_cfa_offset 16
 190 00ed 5E       		popl	%esi
 191              		.cfi_restore 6
 192              		.cfi_def_cfa_offset 12
 193 00ee 5F       		popl	%edi
 194              		.cfi_restore 7
 195              		.cfi_def_cfa_offset 8
 196              	.LVL10:
 197              		.loc 1 288 1 view .LVU68
 198 00ef 5D       		popl	%ebp
 199              		.cfi_restore 5
 200              		.cfi_def_cfa_offset 4
 201              	.LVL11:
 202              		.loc 1 288 1 view .LVU69
 203 00f0 C3       		ret
 204              		.cfi_endproc
 205              	.LFE205:
 206              		.size	chCacheObjectInit, .-chCacheObjectInit
 207              		.section	.text.chCacheGetObject,"ax",@progbits
 208              		.p2align 4
 209              		.globl	chCacheGetObject
 210              		.type	chCacheGetObject, @function
 211              	chCacheGetObject:
 212              	.LVL12:
 213              	.LFB206:
 214              		.loc 1 305 45 is_stmt 1 view -0
 215              		.cfi_startproc
GAS LISTING /tmp/ccLlvNSj.s 			page 5


 216              		.loc 1 306 3 view .LVU71
 217              		.loc 1 309 3 view .LVU72
 218              	.LBB62:
 219              	.LBI62:
 220              		.file 2 "../../../os/rt/include/chsys.h"
 221              		.loc 2 407 20 view .LVU73
 222              		.loc 2 409 3 view .LVU74
 223              	.LBB63:
 224              	.LBI63:
 225              		.file 3 "../../../os/common/ports/SIMIA32/chcore.h"
 226              		.loc 3 361 20 view .LVU75
 227              	.LBB64:
 228              		.loc 3 363 3 view .LVU76
 229              	.LBE64:
 230              	.LBE63:
 231              	.LBE62:
 232              		.loc 1 305 45 is_stmt 0 view .LVU77
 233 0000 55       		pushl	%ebp
 234              		.cfi_def_cfa_offset 8
 235              		.cfi_offset 5, -8
 236 0001 57       		pushl	%edi
 237              		.cfi_def_cfa_offset 12
 238              		.cfi_offset 7, -12
 239 0002 56       		pushl	%esi
 240              		.cfi_def_cfa_offset 16
 241              		.cfi_offset 6, -16
 242 0003 53       		pushl	%ebx
 243              		.cfi_def_cfa_offset 20
 244              		.cfi_offset 3, -20
 245 0004 E8FCFFFF 		call	__x86.get_pc_thunk.bx
 245      FF
 246 0009 81C30200 		addl	$_GLOBAL_OFFSET_TABLE_, %ebx
 246      0000
 247 000f 83EC1C   		subl	$28, %esp
 248              		.cfi_def_cfa_offset 48
 249              		.loc 1 305 45 view .LVU78
 250 0012 8B6C2430 		movl	48(%esp), %ebp
 251 0016 8B7C2434 		movl	52(%esp), %edi
 252              	.LBB71:
 253              	.LBB72:
 254              		.loc 1 140 22 view .LVU79
 255 001a 8B4C2438 		movl	56(%esp), %ecx
 256              	.LBE72:
 257              	.LBE71:
 258              	.LBB78:
 259              	.LBB68:
 260              	.LBB65:
 261              		.loc 3 363 16 view .LVU80
 262 001e 8B830000 		movl	port_irq_sts@GOT(%ebx), %eax
 262      0000
 263              	.LBE65:
 264              	.LBE68:
 265              	.LBE78:
 266              	.LBB79:
 267              	.LBB75:
 268              		.loc 1 140 22 view .LVU81
 269 0024 01F9     		addl	%edi, %ecx
GAS LISTING /tmp/ccLlvNSj.s 			page 6


 270 0026 894C240C 		movl	%ecx, 12(%esp)
 271              	.LBE75:
 272              	.LBE79:
 273              	.LBB80:
 274              	.LBB69:
 275              	.LBB66:
 276              		.loc 3 363 16 view .LVU82
 277 002a C7000100 		movl	$1, (%eax)
 277      0000
 278              	.LBE66:
 279              	.LBE69:
 280              		.loc 2 410 35 is_stmt 1 view .LVU83
 281              		.loc 2 411 21 view .LVU84
 282              	.LBE80:
 283              		.loc 1 312 3 view .LVU85
 284              	.LVL13:
 285              	.LBB81:
 286              	.LBI71:
 287              		.loc 1 134 21 view .LVU86
 288              	.LBB76:
 289              		.loc 1 137 3 view .LVU87
 290              		.loc 1 140 3 view .LVU88
 291              	.LBE76:
 292              	.LBE81:
 293              	.LBB82:
 294              	.LBB70:
 295              	.LBB67:
 296              		.loc 3 363 16 is_stmt 0 view .LVU89
 297 0030 89442408 		movl	%eax, 8(%esp)
 298              	.LBE67:
 299              	.LBE70:
 300              	.LBE82:
 301              	.LBB83:
 302              	.LBB77:
 303              		.loc 1 140 22 view .LVU90
 304 0034 8B4500   		movl	0(%ebp), %eax
 305 0037 83E801   		subl	$1, %eax
 306 003a 21C8     		andl	%ecx, %eax
 307              		.loc 1 140 8 view .LVU91
 308 003c 8B4D04   		movl	4(%ebp), %ecx
 309 003f 8D04C1   		leal	(%ecx,%eax,8), %eax
 310              	.LVL14:
 311              		.loc 1 143 3 is_stmt 1 view .LVU92
 312              		.loc 1 143 5 is_stmt 0 view .LVU93
 313 0042 8B30     		movl	(%eax), %esi
 314              	.LVL15:
 315              		.loc 1 144 3 is_stmt 1 view .LVU94
 316              		.loc 1 144 12 view .LVU95
 317 0044 39F0     		cmpl	%esi, %eax
 318 0046 7458     		je	.L9
 319 0048 8B542438 		movl	56(%esp), %edx
 320 004c EB08     		jmp	.L12
 321              	.LVL16:
 322 004e 6690     		.p2align 4,,10
 323              		.p2align 3
 324              	.L10:
 325              	.LBB73:
GAS LISTING /tmp/ccLlvNSj.s 			page 7


 326              		.loc 1 151 5 view .LVU96
 327              		.loc 1 151 7 is_stmt 0 view .LVU97
 328 0050 8B36     		movl	(%esi), %esi
 329              	.LVL17:
 330              		.loc 1 151 7 view .LVU98
 331              	.LBE73:
 332              		.loc 1 144 12 is_stmt 1 view .LVU99
 333 0052 39F0     		cmpl	%esi, %eax
 334 0054 744A     		je	.L9
 335              	.L12:
 336              	.LBB74:
 337              		.loc 1 145 5 view .LVU100
 338              	.LVL18:
 339              		.loc 1 146 5 view .LVU101
 340              		.loc 1 146 8 is_stmt 0 view .LVU102
 341 0056 3B7E10   		cmpl	16(%esi), %edi
 342 0059 75F5     		jne	.L10
 343              		.loc 1 146 36 view .LVU103
 344 005b 3B5614   		cmpl	20(%esi), %edx
 345 005e 75F0     		jne	.L10
 346              	.LVL19:
 347              		.loc 1 146 36 view .LVU104
 348              	.LBE74:
 349              	.LBE77:
 350              	.LBE83:
 351              		.loc 1 313 3 is_stmt 1 view .LVU105
 352              		.loc 1 315 5 view .LVU106
 353              		.loc 1 315 5 view .LVU107
 354              		.loc 1 315 5 view .LVU108
 355              		.loc 1 320 5 view .LVU109
 356              	.LBB84:
 357              	.LBI84:
 358              		.file 4 "../../../os/rt/include/chsem.h"
 359              		.loc 4 190 21 view .LVU110
 360              	.LBB85:
 361              		.loc 4 192 21 view .LVU111
 362              		.loc 4 194 3 view .LVU112
 363              		.loc 4 194 12 is_stmt 0 view .LVU113
 364 0060 8B4620   		movl	32(%esi), %eax
 365              	.LVL20:
 366              		.loc 4 194 12 view .LVU114
 367              	.LBE85:
 368              	.LBE84:
 369              		.loc 1 320 8 view .LVU115
 370 0063 85C0     		testl	%eax, %eax
 371 0065 0F8EE500 		jle	.L26
 371      0000
 372              		.loc 1 323 7 is_stmt 1 discriminator 5 view .LVU116
 373              		.loc 1 323 7 discriminator 5 view .LVU117
 374              		.loc 1 323 7 discriminator 5 view .LVU118
 375              		.loc 1 327 7 discriminator 5 view .LVU119
 376 006b 8B4E08   		movl	8(%esi), %ecx
 377 006e 8B560C   		movl	12(%esi), %edx
 378              	.LBB86:
 379              	.LBB87:
 380              		.loc 4 163 10 is_stmt 0 discriminator 5 view .LVU120
 381 0071 83E801   		subl	$1, %eax
GAS LISTING /tmp/ccLlvNSj.s 			page 8


 382              	.LBE87:
 383              	.LBE86:
 384              		.loc 1 327 7 discriminator 5 view .LVU121
 385 0074 894A08   		movl	%ecx, 8(%edx)
 386              		.loc 1 327 7 is_stmt 1 discriminator 5 view .LVU122
 387 0077 8B4E08   		movl	8(%esi), %ecx
 388 007a 89510C   		movl	%edx, 12(%ecx)
 389              		.loc 1 327 23 discriminator 5 view .LVU123
 390              		.loc 1 328 7 discriminator 5 view .LVU124
 391              		.loc 1 328 23 is_stmt 0 discriminator 5 view .LVU125
 392 007d 836624FE 		andl	$-2, 36(%esi)
 393              		.loc 1 332 7 is_stmt 1 discriminator 5 view .LVU126
 394              	.LVL21:
 395              	.LBB89:
 396              	.LBI86:
 397              		.loc 4 159 20 discriminator 5 view .LVU127
 398              	.LBB88:
 399              		.loc 4 161 21 discriminator 5 view .LVU128
 400              		.loc 4 163 3 discriminator 5 view .LVU129
 401              		.loc 4 163 10 is_stmt 0 discriminator 5 view .LVU130
 402 0081 894620   		movl	%eax, 32(%esi)
 403              	.LVL22:
 404              	.L14:
 405              		.loc 4 163 10 discriminator 5 view .LVU131
 406              	.LBE88:
 407              	.LBE89:
 408              		.loc 1 352 39 is_stmt 1 discriminator 1 view .LVU132
 409              		.loc 1 356 3 discriminator 1 view .LVU133
 410              	.LBB90:
 411              	.LBI90:
 412              		.loc 2 421 20 discriminator 1 view .LVU134
 413              	.LBB91:
 414              		.loc 2 423 23 discriminator 1 view .LVU135
 415              		.loc 2 424 34 discriminator 1 view .LVU136
 416              		.loc 2 430 3 discriminator 1 view .LVU137
 417              		.loc 2 430 3 discriminator 1 view .LVU138
 418              		.loc 2 430 3 discriminator 1 view .LVU139
 419              		.loc 2 434 3 discriminator 1 view .LVU140
 420              	.LBB92:
 421              	.LBI92:
 422              		.loc 3 370 20 discriminator 1 view .LVU141
 423              	.LBB93:
 424              		.loc 3 372 3 discriminator 1 view .LVU142
 425              		.loc 3 372 16 is_stmt 0 discriminator 1 view .LVU143
 426 0084 8B442408 		movl	8(%esp), %eax
 427 0088 C7000000 		movl	$0, (%eax)
 427      0000
 428              	.LBE93:
 429              	.LBE92:
 430              	.LBE91:
 431              	.LBE90:
 432              		.loc 1 358 3 is_stmt 1 discriminator 1 view .LVU144
 433              		.loc 1 359 1 is_stmt 0 discriminator 1 view .LVU145
 434 008e 83C41C   		addl	$28, %esp
 435              		.cfi_remember_state
 436              		.cfi_def_cfa_offset 20
 437 0091 89F0     		movl	%esi, %eax
GAS LISTING /tmp/ccLlvNSj.s 			page 9


 438 0093 5B       		popl	%ebx
 439              		.cfi_restore 3
 440              		.cfi_def_cfa_offset 16
 441 0094 5E       		popl	%esi
 442              		.cfi_restore 6
 443              		.cfi_def_cfa_offset 12
 444              	.LVL23:
 445              		.loc 1 359 1 discriminator 1 view .LVU146
 446 0095 5F       		popl	%edi
 447              		.cfi_restore 7
 448              		.cfi_def_cfa_offset 8
 449 0096 5D       		popl	%ebp
 450              		.cfi_restore 5
 451              		.cfi_def_cfa_offset 4
 452 0097 C3       		ret
 453              	.LVL24:
 454 0098 8DB42600 		.p2align 4,,10
 454      00000090 
 455              		.p2align 3
 456              	.L9:
 457              		.cfi_restore_state
 458              	.LBB94:
 459              	.LBB95:
 460              		.loc 1 170 12 view .LVU147
 461 00a0 8D4530   		leal	48(%ebp), %eax
 462              	.LVL25:
 463              		.loc 1 170 12 view .LVU148
 464 00a3 89C6     		movl	%eax, %esi
 465              	.LVL26:
 466              		.loc 1 170 12 view .LVU149
 467 00a5 EB31     		jmp	.L13
 468              	.LVL27:
 469 00a7 8DB42600 		.p2align 4,,10
 469      00000066 
 469      90
 470              		.p2align 3
 471              	.L15:
 472              		.loc 1 204 5 is_stmt 1 view .LVU150
 473              	.LBB96:
 474              	.LBI96:
 475              		.loc 2 421 20 view .LVU151
 476              	.LBB97:
 477              		.loc 2 423 23 view .LVU152
 478              		.loc 2 424 34 view .LVU153
 479              		.loc 2 430 3 view .LVU154
 480              		.loc 2 430 3 view .LVU155
 481              		.loc 2 430 3 view .LVU156
 482              		.loc 2 434 3 view .LVU157
 483              	.LBB98:
 484              	.LBI98:
 485              		.loc 3 370 20 view .LVU158
 486              	.LBB99:
 487              		.loc 3 372 3 view .LVU159
 488              		.loc 3 372 16 is_stmt 0 view .LVU160
 489 00b0 8B442408 		movl	8(%esp), %eax
 490              	.LBE99:
 491              	.LBE98:
GAS LISTING /tmp/ccLlvNSj.s 			page 10


 492              	.LBE97:
 493              	.LBE96:
 494              		.loc 1 210 12 view .LVU161
 495 00b4 83EC04   		subl	$4, %esp
 496              		.cfi_def_cfa_offset 52
 497              		.loc 1 209 21 view .LVU162
 498 00b7 C7422422 		movl	$34, 36(%edx)
 498      000000
 499              	.LBB103:
 500              	.LBB102:
 501              	.LBB101:
 502              	.LBB100:
 503              		.loc 3 372 16 view .LVU163
 504 00be C7000000 		movl	$0, (%eax)
 504      0000
 505              	.LBE100:
 506              	.LBE101:
 507              	.LBE102:
 508              	.LBE103:
 509              		.loc 1 209 5 is_stmt 1 view .LVU164
 510              		.loc 1 210 5 view .LVU165
 511              		.loc 1 210 12 is_stmt 0 view .LVU166
 512 00c4 6A01     		pushl	$1
 513              		.cfi_def_cfa_offset 56
 514 00c6 52       		pushl	%edx
 515              		.cfi_def_cfa_offset 60
 516 00c7 55       		pushl	%ebp
 517              		.cfi_def_cfa_offset 64
 518 00c8 FF5540   		call	*64(%ebp)
 519              	.LVL28:
 520              		.loc 1 213 5 is_stmt 1 view .LVU167
 521              	.LBB104:
 522              	.LBI104:
 523              		.loc 2 407 20 view .LVU168
 524              	.LBB105:
 525              		.loc 2 409 3 view .LVU169
 526              	.LBB106:
 527              	.LBI106:
 528              		.loc 3 361 20 view .LVU170
 529              	.LBB107:
 530              		.loc 3 363 3 view .LVU171
 531              		.loc 3 363 16 is_stmt 0 view .LVU172
 532 00cb 8B442418 		movl	24(%esp), %eax
 533 00cf C7000100 		movl	$1, (%eax)
 533      0000
 534              	.LBE107:
 535              	.LBE106:
 536              		.loc 2 410 35 is_stmt 1 view .LVU173
 537              		.loc 2 411 21 view .LVU174
 538              		.loc 2 412 1 is_stmt 0 view .LVU175
 539 00d5 83C410   		addl	$16, %esp
 540              		.cfi_def_cfa_offset 48
 541              	.L13:
 542              		.loc 2 412 1 view .LVU176
 543              	.LBE105:
 544              	.LBE104:
 545              		.loc 1 166 3 is_stmt 1 view .LVU177
GAS LISTING /tmp/ccLlvNSj.s 			page 11


 546              		.loc 1 168 3 view .LVU178
 547              		.loc 1 170 5 view .LVU179
 548              		.loc 1 170 12 is_stmt 0 view .LVU180
 549 00d8 83EC0C   		subl	$12, %esp
 550              		.cfi_def_cfa_offset 60
 551 00db 56       		pushl	%esi
 552              		.cfi_def_cfa_offset 64
 553 00dc E8FCFFFF 		call	chSemWaitS@PLT
 553      FF
 554              	.LVL29:
 555              		.loc 1 174 5 is_stmt 1 view .LVU181
 556              		.loc 1 174 10 is_stmt 0 view .LVU182
 557 00e1 8B5520   		movl	32(%ebp), %edx
 558              	.LVL30:
 559              		.loc 1 176 5 is_stmt 1 view .LVU183
 560              		.loc 1 176 5 view .LVU184
 561              		.loc 1 176 5 view .LVU185
 562              		.loc 1 178 5 view .LVU186
 563              		.loc 1 178 5 view .LVU187
 564              		.loc 1 178 5 view .LVU188
 565              		.loc 1 181 5 view .LVU189
 566              		.loc 1 190 8 is_stmt 0 view .LVU190
 567 00e4 83C410   		addl	$16, %esp
 568              		.cfi_def_cfa_offset 48
 569              		.loc 1 181 5 view .LVU191
 570 00e7 8B4A0C   		movl	12(%edx), %ecx
 571 00ea 8B4208   		movl	8(%edx), %eax
 572 00ed 894108   		movl	%eax, 8(%ecx)
 573              		.loc 1 181 5 is_stmt 1 view .LVU192
 574 00f0 89480C   		movl	%ecx, 12(%eax)
 575              		.loc 1 181 21 view .LVU193
 576              		.loc 1 182 5 view .LVU194
 577              		.loc 1 182 21 is_stmt 0 view .LVU195
 578 00f3 8B4224   		movl	36(%edx), %eax
 579              	.LBB108:
 580              	.LBB109:
 581              		.loc 4 163 10 view .LVU196
 582 00f6 836A2001 		subl	$1, 32(%edx)
 583              	.LBE109:
 584              	.LBE108:
 585              		.loc 1 182 21 view .LVU197
 586 00fa 89C1     		movl	%eax, %ecx
 587 00fc 83E1FE   		andl	$-2, %ecx
 588 00ff 894A24   		movl	%ecx, 36(%edx)
 589              		.loc 1 186 5 is_stmt 1 view .LVU198
 590              	.LVL31:
 591              	.LBB111:
 592              	.LBI108:
 593              		.loc 4 159 20 view .LVU199
 594              	.LBB110:
 595              		.loc 4 161 21 view .LVU200
 596              		.loc 4 163 3 view .LVU201
 597              		.loc 4 163 3 is_stmt 0 view .LVU202
 598              	.LBE110:
 599              	.LBE111:
 600              		.loc 1 190 5 is_stmt 1 view .LVU203
 601              		.loc 1 190 8 is_stmt 0 view .LVU204
GAS LISTING /tmp/ccLlvNSj.s 			page 12


 602 0102 A810     		testb	$16, %al
 603 0104 75AA     		jne	.L15
 604              		.loc 1 193 10 view .LVU205
 605 0106 89D6     		movl	%edx, %esi
 606              		.loc 1 193 7 is_stmt 1 view .LVU206
 607              		.loc 1 193 10 is_stmt 0 view .LVU207
 608 0108 A802     		testb	$2, %al
 609 010a 740C     		je	.L16
 610              		.loc 1 194 9 is_stmt 1 view .LVU208
 611 010c 8B0A     		movl	(%edx), %ecx
 612 010e 8B4204   		movl	4(%edx), %eax
 613 0111 8908     		movl	%ecx, (%eax)
 614              		.loc 1 194 9 view .LVU209
 615 0113 8B0A     		movl	(%edx), %ecx
 616 0115 894104   		movl	%eax, 4(%ecx)
 617              	.L16:
 618              		.loc 1 194 26 view .LVU210
 619              		.loc 1 198 7 view .LVU211
 620              		.loc 1 200 7 view .LVU212
 621              	.LVL32:
 622              		.loc 1 200 7 is_stmt 0 view .LVU213
 623              	.LBE95:
 624              	.LBE94:
 625              		.loc 1 349 5 is_stmt 1 view .LVU214
 626              		.loc 1 350 21 is_stmt 0 view .LVU215
 627 0118 8B442438 		movl	56(%esp), %eax
 628              	.LBB112:
 629              		.loc 1 352 5 view .LVU216
 630 011c 8B5504   		movl	4(%ebp), %edx
 631              	.LVL33:
 632              		.loc 1 352 5 view .LVU217
 633              	.LBE112:
 634              		.loc 1 349 21 view .LVU218
 635 011f 897E10   		movl	%edi, 16(%esi)
 636              		.loc 1 350 5 is_stmt 1 view .LVU219
 637              		.loc 1 351 21 is_stmt 0 view .LVU220
 638 0122 C746240A 		movl	$10, 36(%esi)
 638      000000
 639              		.loc 1 350 21 view .LVU221
 640 0129 894614   		movl	%eax, 20(%esi)
 641              		.loc 1 351 5 is_stmt 1 view .LVU222
 642              	.LBB113:
 643              		.loc 1 352 5 view .LVU223
 644              		.loc 1 352 5 view .LVU224
 645 012c 8B4500   		movl	0(%ebp), %eax
 646 012f 83E801   		subl	$1, %eax
 647 0132 2344240C 		andl	12(%esp), %eax
 648 0136 8D04C2   		leal	(%edx,%eax,8), %eax
 649              	.LVL34:
 650              		.loc 1 352 5 view .LVU225
 651 0139 8B10     		movl	(%eax), %edx
 652 013b 894604   		movl	%eax, 4(%esi)
 653 013e 8916     		movl	%edx, (%esi)
 654              		.loc 1 352 5 view .LVU226
 655              		.loc 1 352 5 view .LVU227
 656 0140 8B10     		movl	(%eax), %edx
 657 0142 897204   		movl	%esi, 4(%edx)
GAS LISTING /tmp/ccLlvNSj.s 			page 13


 658              		.loc 1 352 5 view .LVU228
 659 0145 8930     		movl	%esi, (%eax)
 660 0147 E938FFFF 		jmp	.L14
 660      FF
 661              	.LVL35:
 662 014c 8D742600 		.p2align 4,,10
 663              		.p2align 3
 664              	.L26:
 665              		.loc 1 352 5 is_stmt 0 view .LVU229
 666              	.LBE113:
 667              		.loc 1 338 7 is_stmt 1 discriminator 5 view .LVU230
 668              		.loc 1 338 7 discriminator 5 view .LVU231
 669              		.loc 1 338 7 discriminator 5 view .LVU232
 670              		.loc 1 341 7 discriminator 5 view .LVU233
 671              		.loc 1 341 14 is_stmt 0 discriminator 5 view .LVU234
 672 0150 83EC0C   		subl	$12, %esp
 673              		.cfi_def_cfa_offset 60
 674 0153 8D4618   		leal	24(%esi), %eax
 675 0156 50       		pushl	%eax
 676              		.cfi_def_cfa_offset 64
 677 0157 E8FCFFFF 		call	chSemWaitS@PLT
 677      FF
 678              	.LVL36:
 679 015c 83C410   		addl	$16, %esp
 680              		.cfi_def_cfa_offset 48
 681 015f E920FFFF 		jmp	.L14
 681      FF
 682              		.cfi_endproc
 683              	.LFE206:
 684              		.size	chCacheGetObject, .-chCacheGetObject
 685              		.section	.text.chCacheReleaseObjectI,"ax",@progbits
 686              		.p2align 4
 687              		.globl	chCacheReleaseObjectI
 688              		.type	chCacheReleaseObjectI, @function
 689              	chCacheReleaseObjectI:
 690              	.LVL37:
 691              	.LFB207:
 692              		.loc 1 378 47 is_stmt 1 view -0
 693              		.cfi_startproc
 694              		.loc 1 381 3 view .LVU236
 695              		.loc 1 381 3 view .LVU237
 696              		.loc 1 381 3 view .LVU238
 697              		.loc 1 385 3 view .LVU239
 698              		.loc 1 385 3 view .LVU240
 699              		.loc 1 385 3 view .LVU241
 700              		.loc 1 390 3 view .LVU242
 701              		.loc 1 378 47 is_stmt 0 view .LVU243
 702 0000 57       		pushl	%edi
 703              		.cfi_def_cfa_offset 8
 704              		.cfi_offset 7, -8
 705 0001 56       		pushl	%esi
 706              		.cfi_def_cfa_offset 12
 707              		.cfi_offset 6, -12
 708 0002 53       		pushl	%ebx
 709              		.cfi_def_cfa_offset 16
 710              		.cfi_offset 3, -16
 711              		.loc 1 378 47 view .LVU244
GAS LISTING /tmp/ccLlvNSj.s 			page 14


 712 0003 8B742414 		movl	20(%esp), %esi
 713              	.LVL38:
 714              	.LBB114:
 715              	.LBI114:
 716              		.loc 4 190 21 is_stmt 1 view .LVU245
 717              	.LBB115:
 718              		.loc 4 192 21 view .LVU246
 719              		.loc 4 194 3 view .LVU247
 720              		.loc 4 194 3 is_stmt 0 view .LVU248
 721 0007 E8FCFFFF 		call	__x86.get_pc_thunk.bx
 721      FF
 722 000c 81C30200 		addl	$_GLOBAL_OFFSET_TABLE_, %ebx
 722      0000
 723              	.LBE115:
 724              	.LBE114:
 725              		.loc 1 378 47 view .LVU249
 726 0012 8B442410 		movl	16(%esp), %eax
 727              		.loc 1 390 6 view .LVU250
 728 0016 8B4E20   		movl	32(%esi), %ecx
 729              		.loc 1 394 21 view .LVU251
 730 0019 8B5624   		movl	36(%esi), %edx
 731              		.loc 1 390 6 view .LVU252
 732 001c 85C9     		testl	%ecx, %ecx
 733 001e 0F888400 		js	.L35
 733      0000
 734              		.loc 1 401 3 is_stmt 1 view .LVU253
 735              		.loc 1 403 5 is_stmt 0 view .LVU254
 736 0024 8D4814   		leal	20(%eax), %ecx
 737              		.loc 1 401 6 view .LVU255
 738 0027 F6C208   		testb	$8, %dl
 739 002a 7534     		jne	.L36
 740              		.loc 1 410 5 is_stmt 1 view .LVU256
 741              		.loc 1 410 8 is_stmt 0 view .LVU257
 742 002c F6C220   		testb	$32, %dl
 743 002f 755F     		jne	.L32
 744              		.loc 1 412 7 is_stmt 1 view .LVU258
 745 0031 8B781C   		movl	28(%eax), %edi
 746 0034 894E0C   		movl	%ecx, 12(%esi)
 747 0037 897E08   		movl	%edi, 8(%esi)
 748              		.loc 1 412 7 view .LVU259
 749              		.loc 1 412 7 view .LVU260
 750 003a 89770C   		movl	%esi, 12(%edi)
 751              		.loc 1 412 7 view .LVU261
 752 003d 89701C   		movl	%esi, 28(%eax)
 753              		.loc 1 412 33 view .LVU262
 754              	.LVL39:
 755              	.L33:
 756              		.loc 1 416 33 discriminator 1 view .LVU263
 757              		.loc 1 418 5 discriminator 1 view .LVU264
 758              		.loc 1 419 5 discriminator 1 view .LVU265
 759              		.loc 1 418 21 is_stmt 0 discriminator 1 view .LVU266
 760 0040 83E212   		andl	$18, %edx
 761              		.loc 1 419 21 discriminator 1 view .LVU267
 762 0043 83CA01   		orl	$1, %edx
 763              	.L31:
 764              		.loc 1 423 3 view .LVU268
 765 0046 83EC0C   		subl	$12, %esp
GAS LISTING /tmp/ccLlvNSj.s 			page 15


 766              		.cfi_def_cfa_offset 28
 767 0049 83C030   		addl	$48, %eax
 768              		.loc 1 406 21 view .LVU269
 769 004c 895624   		movl	%edx, 36(%esi)
 770              		.loc 1 423 3 is_stmt 1 view .LVU270
 771 004f 50       		pushl	%eax
 772              		.cfi_def_cfa_offset 32
 773 0050 E8FCFFFF 		call	chSemSignalI@PLT
 773      FF
 774              	.LVL40:
 775              		.loc 1 427 3 view .LVU271
 776              	.LBB116:
 777              	.LBI116:
 778              		.loc 4 175 20 view .LVU272
 779              	.LBB117:
 780              		.loc 4 177 21 view .LVU273
 781              		.loc 4 179 3 view .LVU274
 782              		.loc 4 180 1 is_stmt 0 view .LVU275
 783 0055 83C410   		addl	$16, %esp
 784              		.cfi_def_cfa_offset 16
 785              	.LVL41:
 786              		.loc 4 179 10 view .LVU276
 787 0058 83462001 		addl	$1, 32(%esi)
 788              	.LBE117:
 789              	.LBE116:
 790              		.loc 1 428 1 view .LVU277
 791 005c 5B       		popl	%ebx
 792              		.cfi_remember_state
 793              		.cfi_restore 3
 794              		.cfi_def_cfa_offset 12
 795 005d 5E       		popl	%esi
 796              		.cfi_restore 6
 797              		.cfi_def_cfa_offset 8
 798              	.LVL42:
 799              		.loc 1 428 1 view .LVU278
 800 005e 5F       		popl	%edi
 801              		.cfi_restore 7
 802              		.cfi_def_cfa_offset 4
 803 005f C3       		ret
 804              	.LVL43:
 805              		.p2align 4,,10
 806              		.p2align 3
 807              	.L36:
 808              		.cfi_restore_state
 809              		.loc 1 402 5 is_stmt 1 view .LVU279
 810 0060 8B16     		movl	(%esi), %edx
 811 0062 8B7E04   		movl	4(%esi), %edi
 812 0065 8917     		movl	%edx, (%edi)
 813              		.loc 1 402 5 view .LVU280
 814 0067 897A04   		movl	%edi, 4(%edx)
 815              		.loc 1 402 22 view .LVU281
 816              		.loc 1 403 5 view .LVU282
 817 006a 8B5020   		movl	32(%eax), %edx
 818 006d 894E08   		movl	%ecx, 8(%esi)
 819 0070 89560C   		movl	%edx, 12(%esi)
 820              		.loc 1 403 5 view .LVU283
 821              		.loc 1 403 5 view .LVU284
GAS LISTING /tmp/ccLlvNSj.s 			page 16


 822 0073 897208   		movl	%esi, 8(%edx)
 823              		.loc 1 403 5 view .LVU285
 824 0076 BA010000 		movl	$1, %edx
 824      00
 825 007b 897020   		movl	%esi, 32(%eax)
 826              		.loc 1 403 31 view .LVU286
 827              		.loc 1 404 5 view .LVU287
 828              		.loc 1 404 21 is_stmt 0 view .LVU288
 829 007e C7461000 		movl	$0, 16(%esi)
 829      000000
 830              		.loc 1 405 5 is_stmt 1 view .LVU289
 831              		.loc 1 405 21 is_stmt 0 view .LVU290
 832 0085 C7461400 		movl	$0, 20(%esi)
 832      000000
 833              		.loc 1 406 5 is_stmt 1 view .LVU291
 834 008c EBB8     		jmp	.L31
 835 008e 6690     		.p2align 4,,10
 836              		.p2align 3
 837              	.L32:
 838              		.loc 1 416 7 view .LVU292
 839 0090 8B7820   		movl	32(%eax), %edi
 840 0093 894E08   		movl	%ecx, 8(%esi)
 841 0096 897E0C   		movl	%edi, 12(%esi)
 842              		.loc 1 416 7 view .LVU293
 843              		.loc 1 416 7 view .LVU294
 844 0099 897708   		movl	%esi, 8(%edi)
 845              		.loc 1 416 7 view .LVU295
 846 009c 897020   		movl	%esi, 32(%eax)
 847 009f EB9F     		jmp	.L33
 848              		.p2align 4,,10
 849 00a1 8DB42600 		.p2align 3
 849      000000
 850              	.L35:
 851              		.loc 1 394 5 view .LVU296
 852              		.loc 1 394 21 is_stmt 0 view .LVU297
 853 00a8 83E21A   		andl	$26, %edx
 854              		.loc 1 395 5 view .LVU298
 855 00ab 83EC0C   		subl	$12, %esp
 856              		.cfi_def_cfa_offset 28
 857 00ae 83C618   		addl	$24, %esi
 858              	.LVL44:
 859              		.loc 1 394 21 view .LVU299
 860 00b1 89560C   		movl	%edx, 12(%esi)
 861              		.loc 1 395 5 is_stmt 1 view .LVU300
 862 00b4 56       		pushl	%esi
 863              		.cfi_def_cfa_offset 32
 864 00b5 E8FCFFFF 		call	chSemSignalI@PLT
 864      FF
 865              	.LVL45:
 866              		.loc 1 396 5 view .LVU301
 867 00ba 83C410   		addl	$16, %esp
 868              		.cfi_def_cfa_offset 16
 869              		.loc 1 428 1 is_stmt 0 view .LVU302
 870 00bd 5B       		popl	%ebx
 871              		.cfi_restore 3
 872              		.cfi_def_cfa_offset 12
 873 00be 5E       		popl	%esi
GAS LISTING /tmp/ccLlvNSj.s 			page 17


 874              		.cfi_restore 6
 875              		.cfi_def_cfa_offset 8
 876 00bf 5F       		popl	%edi
 877              		.cfi_restore 7
 878              		.cfi_def_cfa_offset 4
 879 00c0 C3       		ret
 880              		.cfi_endproc
 881              	.LFE207:
 882              		.size	chCacheReleaseObjectI, .-chCacheReleaseObjectI
 883              		.section	.text.chCacheReadObject,"ax",@progbits
 884              		.p2align 4
 885              		.globl	chCacheReadObject
 886              		.type	chCacheReadObject, @function
 887              	chCacheReadObject:
 888              	.LVL46:
 889              	.LFB208:
 890              		.loc 1 449 36 is_stmt 1 view -0
 891              		.cfi_startproc
 892              		.loc 1 454 3 view .LVU304
 893              		.loc 1 449 36 is_stmt 0 view .LVU305
 894 0000 8B442408 		movl	8(%esp), %eax
 895 0004 8B542404 		movl	4(%esp), %edx
 896              		.loc 1 456 10 view .LVU306
 897 0008 0FB64C24 		movzbl	12(%esp), %ecx
 897      0C
 898              		.loc 1 454 19 view .LVU307
 899 000d 83482408 		orl	$8, 36(%eax)
 900              		.loc 1 456 3 is_stmt 1 view .LVU308
 901              		.loc 1 456 10 is_stmt 0 view .LVU309
 902 0011 894C240C 		movl	%ecx, 12(%esp)
 903              	.LVL47:
 904              		.loc 1 456 10 view .LVU310
 905 0015 89442408 		movl	%eax, 8(%esp)
 906              	.LVL48:
 907              		.loc 1 456 10 view .LVU311
 908 0019 89542404 		movl	%edx, 4(%esp)
 909              	.LVL49:
 910              		.loc 1 456 10 view .LVU312
 911 001d FF623C   		jmp	*60(%edx)
 912              	.LVL50:
 913              		.loc 1 456 10 view .LVU313
 914              		.cfi_endproc
 915              	.LFE208:
 916              		.size	chCacheReadObject, .-chCacheReadObject
 917              		.section	.text.chCacheWriteObject,"ax",@progbits
 918              		.p2align 4
 919              		.globl	chCacheWriteObject
 920              		.type	chCacheWriteObject, @function
 921              	chCacheWriteObject:
 922              	.LVL51:
 923              	.LFB209:
 924              		.loc 1 478 37 is_stmt 1 view -0
 925              		.cfi_startproc
 926              		.loc 1 482 3 view .LVU315
 927              		.loc 1 478 37 is_stmt 0 view .LVU316
 928 0000 8B442408 		movl	8(%esp), %eax
 929 0004 8B542404 		movl	4(%esp), %edx
GAS LISTING /tmp/ccLlvNSj.s 			page 18


 930              		.loc 1 484 10 view .LVU317
 931 0008 0FB64C24 		movzbl	12(%esp), %ecx
 931      0C
 932              		.loc 1 482 19 view .LVU318
 933 000d 836024EF 		andl	$-17, 36(%eax)
 934              		.loc 1 484 3 is_stmt 1 view .LVU319
 935              		.loc 1 484 10 is_stmt 0 view .LVU320
 936 0011 894C240C 		movl	%ecx, 12(%esp)
 937              	.LVL52:
 938              		.loc 1 484 10 view .LVU321
 939 0015 89442408 		movl	%eax, 8(%esp)
 940              	.LVL53:
 941              		.loc 1 484 10 view .LVU322
 942 0019 89542404 		movl	%edx, 4(%esp)
 943              	.LVL54:
 944              		.loc 1 484 10 view .LVU323
 945 001d FF6240   		jmp	*64(%edx)
 946              	.LVL55:
 947              		.loc 1 484 10 view .LVU324
 948              		.cfi_endproc
 949              	.LFE209:
 950              		.size	chCacheWriteObject, .-chCacheWriteObject
 951              		.section	.text.__x86.get_pc_thunk.bx,"axG",@progbits,__x86.get_pc_thunk.bx,comdat
 952              		.globl	__x86.get_pc_thunk.bx
 953              		.hidden	__x86.get_pc_thunk.bx
 954              		.type	__x86.get_pc_thunk.bx, @function
 955              	__x86.get_pc_thunk.bx:
 956              	.LFB211:
 957              		.cfi_startproc
 958 0000 8B1C24   		movl	(%esp), %ebx
 959 0003 C3       		ret
 960              		.cfi_endproc
 961              	.LFE211:
 962              		.text
 963              	.Letext0:
 964              		.file 5 "/usr/lib/gcc/x86_64-linux-gnu/11/include/stddef.h"
 965              		.file 6 "/usr/include/bits/types.h"
 966              		.file 7 "/usr/include/bits/stdint-intn.h"
 967              		.file 8 "/usr/include/bits/stdint-uintn.h"
 968              		.file 9 "../../../os/common/ports/SIMIA32/compilers/GCC/chtypes.h"
 969              		.file 10 "../../../os/rt/include/chlists.h"
 970              		.file 11 "../../../os/oslib/include/chobjcaches.h"
 3824 004a 2F686F6D 		.section	.note.GNU-stack,"",@progbits
 3824      652F616C 
 3824      65782F43 
 3824      68696269 
 3824      4F532F64 
GAS LISTING /tmp/ccLlvNSj.s 			page 73

