GAS LISTING /tmp/ccj2Uoco.s 			page 1


   1              		.file	"chpipes.c"
   2              		.text
   3              	.Ltext0:
   4              		.file 0 "/home/alex/ChibiOS/demos/various/LAB2" "../../../os/oslib/src/chpipes.c"
   5              		.section	.text.chPipeObjectInit,"ax",@progbits
   6              		.p2align 4
   7              		.globl	chPipeObjectInit
   8              		.type	chPipeObjectInit, @function
   9              	chPipeObjectInit:
  10              	.LVL0:
  11              	.LFB217:
  12              		.file 1 "../../../os/oslib/src/chpipes.c"
  13              		.loc 1 207 59 view -0
  14              		.cfi_startproc
  15              		.loc 1 209 3 view .LVU1
  16              		.loc 1 209 3 view .LVU2
  17              		.loc 1 209 3 view .LVU3
  18              		.loc 1 211 3 view .LVU4
  19              		.loc 1 207 59 is_stmt 0 view .LVU5
  20 0000 56       		pushl	%esi
  21              		.cfi_def_cfa_offset 8
  22              		.cfi_offset 6, -8
  23 0001 53       		pushl	%ebx
  24              		.cfi_def_cfa_offset 12
  25              		.cfi_offset 3, -12
  26 0002 E8FCFFFF 		call	__x86.get_pc_thunk.bx
  26      FF
  27 0007 81C30200 		addl	$_GLOBAL_OFFSET_TABLE_, %ebx
  27      0000
  28 000d 83EC10   		subl	$16, %esp
  29              		.cfi_def_cfa_offset 28
  30              		.loc 1 207 59 view .LVU6
  31 0010 8B74241C 		movl	28(%esp), %esi
  32 0014 8B442420 		movl	32(%esp), %eax
  33              		.loc 1 211 14 view .LVU7
  34 0018 8906     		movl	%eax, (%esi)
  35              		.loc 1 212 3 is_stmt 1 view .LVU8
  36              		.loc 1 212 14 is_stmt 0 view .LVU9
  37 001a 89460C   		movl	%eax, 12(%esi)
  38              		.loc 1 213 3 is_stmt 1 view .LVU10
  39              		.loc 1 213 14 is_stmt 0 view .LVU11
  40 001d 894608   		movl	%eax, 8(%esi)
  41              		.loc 1 214 3 is_stmt 1 view .LVU12
  42              		.loc 1 214 16 is_stmt 0 view .LVU13
  43 0020 03442424 		addl	36(%esp), %eax
  44 0024 894604   		movl	%eax, 4(%esi)
  45              		.loc 1 215 3 is_stmt 1 view .LVU14
  46              		.loc 1 219 3 is_stmt 0 view .LVU15
  47 0027 8D4620   		leal	32(%esi), %eax
  48              		.loc 1 215 14 view .LVU16
  49 002a C7461000 		movl	$0, 16(%esi)
  49      000000
  50              		.loc 1 216 3 is_stmt 1 view .LVU17
  51              		.loc 1 216 14 is_stmt 0 view .LVU18
  52 0031 C6461400 		movb	$0, 20(%esi)
  53              		.loc 1 217 3 is_stmt 1 view .LVU19
  54              		.loc 1 217 14 is_stmt 0 view .LVU20
GAS LISTING /tmp/ccj2Uoco.s 			page 2


  55 0035 C7461800 		movl	$0, 24(%esi)
  55      000000
  56              		.loc 1 218 3 is_stmt 1 view .LVU21
  57              		.loc 1 218 14 is_stmt 0 view .LVU22
  58 003c C7461C00 		movl	$0, 28(%esi)
  58      000000
  59              		.loc 1 219 3 is_stmt 1 view .LVU23
  60 0043 50       		pushl	%eax
  61              		.cfi_def_cfa_offset 32
  62 0044 E8FCFFFF 		call	chMtxObjectInit@PLT
  62      FF
  63              	.LVL1:
  64              		.loc 1 220 3 view .LVU24
  65 0049 8D4630   		leal	48(%esi), %eax
  66              		.loc 1 221 3 is_stmt 0 view .LVU25
  67 004c 83C640   		addl	$64, %esi
  68              		.loc 1 220 3 view .LVU26
  69 004f 890424   		movl	%eax, (%esp)
  70 0052 E8FCFFFF 		call	chMtxObjectInit@PLT
  70      FF
  71              	.LVL2:
  72              		.loc 1 221 3 is_stmt 1 view .LVU27
  73 0057 893424   		movl	%esi, (%esp)
  74 005a E8FCFFFF 		call	chMtxObjectInit@PLT
  74      FF
  75              	.LVL3:
  76              		.loc 1 222 1 is_stmt 0 view .LVU28
  77 005f 83C414   		addl	$20, %esp
  78              		.cfi_def_cfa_offset 12
  79 0062 5B       		popl	%ebx
  80              		.cfi_restore 3
  81              		.cfi_def_cfa_offset 8
  82 0063 5E       		popl	%esi
  83              		.cfi_restore 6
  84              		.cfi_def_cfa_offset 4
  85 0064 C3       		ret
  86              		.cfi_endproc
  87              	.LFE217:
  88              		.size	chPipeObjectInit, .-chPipeObjectInit
  89              		.section	.text.chPipeReset,"ax",@progbits
  90              		.p2align 4
  91              		.globl	chPipeReset
  92              		.type	chPipeReset, @function
  93              	chPipeReset:
  94              	.LVL4:
  95              	.LFB218:
  96              		.loc 1 236 30 is_stmt 1 view -0
  97              		.cfi_startproc
  98              		.loc 1 238 3 view .LVU30
  99              		.loc 1 238 3 view .LVU31
 100              		.loc 1 238 3 view .LVU32
 101              		.loc 1 240 3 view .LVU33
 102              		.loc 1 236 30 is_stmt 0 view .LVU34
 103 0000 55       		pushl	%ebp
 104              		.cfi_def_cfa_offset 8
 105              		.cfi_offset 5, -8
 106 0001 57       		pushl	%edi
GAS LISTING /tmp/ccj2Uoco.s 			page 3


 107              		.cfi_def_cfa_offset 12
 108              		.cfi_offset 7, -12
 109 0002 56       		pushl	%esi
 110              		.cfi_def_cfa_offset 16
 111              		.cfi_offset 6, -16
 112 0003 53       		pushl	%ebx
 113              		.cfi_def_cfa_offset 20
 114              		.cfi_offset 3, -20
 115 0004 E8FCFFFF 		call	__x86.get_pc_thunk.bx
 115      FF
 116 0009 81C30200 		addl	$_GLOBAL_OFFSET_TABLE_, %ebx
 116      0000
 117 000f 83EC18   		subl	$24, %esp
 118              		.cfi_def_cfa_offset 44
 119              		.loc 1 236 30 view .LVU35
 120 0012 8B74242C 		movl	44(%esp), %esi
 121              		.loc 1 240 3 view .LVU36
 122 0016 8D7E20   		leal	32(%esi), %edi
 123 0019 57       		pushl	%edi
 124              		.cfi_def_cfa_offset 48
 125 001a E8FCFFFF 		call	chMtxLock@PLT
 125      FF
 126              	.LVL5:
 127              		.loc 1 242 3 is_stmt 1 view .LVU37
 128              		.loc 1 242 17 is_stmt 0 view .LVU38
 129 001f 8B06     		movl	(%esi), %eax
 130              		.loc 1 245 13 view .LVU39
 131 0021 C6461401 		movb	$1, 20(%esi)
 132              		.loc 1 244 13 view .LVU40
 133 0025 C7461000 		movl	$0, 16(%esi)
 133      000000
 134              	.LBB86:
 135              	.LBB87:
 136              	.LBB88:
 137              		.file 2 "../../../os/common/ports/SIMIA32/chcore.h"
 138              		.loc 2 363 16 view .LVU41
 139 002c 8BAB0000 		movl	port_irq_sts@GOT(%ebx), %ebp
 139      0000
 140              	.LBE88:
 141              	.LBE87:
 142              	.LBE86:
 143              		.loc 1 242 13 view .LVU42
 144 0032 894608   		movl	%eax, 8(%esi)
 145              		.loc 1 243 3 is_stmt 1 view .LVU43
 146              		.loc 1 243 13 is_stmt 0 view .LVU44
 147 0035 89460C   		movl	%eax, 12(%esi)
 148              		.loc 1 244 3 is_stmt 1 view .LVU45
 149              		.loc 1 245 3 view .LVU46
 150              		.loc 1 247 3 view .LVU47
 151              	.LBB93:
 152              	.LBI86:
 153              		.file 3 "../../../os/rt/include/chsys.h"
 154              		.loc 3 407 20 view .LVU48
 155              		.loc 3 409 3 view .LVU49
 156              	.LBB91:
 157              	.LBI87:
 158              		.loc 2 361 20 view .LVU50
GAS LISTING /tmp/ccj2Uoco.s 			page 4


 159              	.LBB89:
 160              		.loc 2 363 3 view .LVU51
 161              	.LBE89:
 162              	.LBE91:
 163              	.LBE93:
 164              		.loc 1 248 3 is_stmt 0 view .LVU52
 165 0038 58       		popl	%eax
 166              		.cfi_def_cfa_offset 44
 167 0039 8D4618   		leal	24(%esi), %eax
 168              		.loc 1 249 3 view .LVU53
 169 003c 83C61C   		addl	$28, %esi
 170              		.loc 1 248 3 view .LVU54
 171 003f 5A       		popl	%edx
 172              		.cfi_def_cfa_offset 40
 173 0040 6AFE     		pushl	$-2
 174              		.cfi_def_cfa_offset 44
 175 0042 50       		pushl	%eax
 176              		.cfi_def_cfa_offset 48
 177              	.LBB94:
 178              	.LBB92:
 179              	.LBB90:
 180              		.loc 2 363 16 view .LVU55
 181 0043 C7450001 		movl	$1, 0(%ebp)
 181      000000
 182              	.LBE90:
 183              	.LBE92:
 184              		.loc 3 410 35 is_stmt 1 view .LVU56
 185              		.loc 3 411 21 view .LVU57
 186              	.LBE94:
 187              		.loc 1 248 3 view .LVU58
 188 004a E8FCFFFF 		call	chThdResumeI@PLT
 188      FF
 189              	.LVL6:
 190              		.loc 1 249 3 view .LVU59
 191 004f 59       		popl	%ecx
 192              		.cfi_def_cfa_offset 44
 193 0050 58       		popl	%eax
 194              		.cfi_def_cfa_offset 40
 195 0051 6AFE     		pushl	$-2
 196              		.cfi_def_cfa_offset 44
 197 0053 56       		pushl	%esi
 198              		.cfi_def_cfa_offset 48
 199 0054 E8FCFFFF 		call	chThdResumeI@PLT
 199      FF
 200              	.LVL7:
 201              		.loc 1 250 3 view .LVU60
 202 0059 E8FCFFFF 		call	chSchRescheduleS@PLT
 202      FF
 203              	.LVL8:
 204              		.loc 1 251 3 view .LVU61
 205              	.LBB95:
 206              	.LBI95:
 207              		.loc 3 421 20 view .LVU62
 208              	.LBB96:
 209              		.loc 3 423 23 view .LVU63
 210              		.loc 3 424 34 view .LVU64
 211              		.loc 3 430 3 view .LVU65
GAS LISTING /tmp/ccj2Uoco.s 			page 5


 212              		.loc 3 430 3 view .LVU66
 213              		.loc 3 430 3 view .LVU67
 214              		.loc 3 434 3 view .LVU68
 215              	.LBB97:
 216              	.LBI97:
 217              		.loc 2 370 20 view .LVU69
 218              	.LBB98:
 219              		.loc 2 372 3 view .LVU70
 220              	.LBE98:
 221              	.LBE97:
 222              	.LBE96:
 223              	.LBE95:
 224              		.loc 1 253 3 is_stmt 0 view .LVU71
 225 005e 893C24   		movl	%edi, (%esp)
 226              	.LBB102:
 227              	.LBB101:
 228              	.LBB100:
 229              	.LBB99:
 230              		.loc 2 372 16 view .LVU72
 231 0061 C7450000 		movl	$0, 0(%ebp)
 231      000000
 232              	.LBE99:
 233              	.LBE100:
 234              	.LBE101:
 235              	.LBE102:
 236              		.loc 1 253 3 is_stmt 1 view .LVU73
 237 0068 E8FCFFFF 		call	chMtxUnlock@PLT
 237      FF
 238              	.LVL9:
 239              		.loc 1 254 1 is_stmt 0 view .LVU74
 240 006d 83C41C   		addl	$28, %esp
 241              		.cfi_def_cfa_offset 20
 242 0070 5B       		popl	%ebx
 243              		.cfi_restore 3
 244              		.cfi_def_cfa_offset 16
 245 0071 5E       		popl	%esi
 246              		.cfi_restore 6
 247              		.cfi_def_cfa_offset 12
 248 0072 5F       		popl	%edi
 249              		.cfi_restore 7
 250              		.cfi_def_cfa_offset 8
 251 0073 5D       		popl	%ebp
 252              		.cfi_restore 5
 253              		.cfi_def_cfa_offset 4
 254 0074 C3       		ret
 255              		.cfi_endproc
 256              	.LFE218:
 257              		.size	chPipeReset, .-chPipeReset
 258              		.section	.text.chPipeWriteTimeout,"ax",@progbits
 259              		.p2align 4
 260              		.globl	chPipeWriteTimeout
 261              		.type	chPipeWriteTimeout, @function
 262              	chPipeWriteTimeout:
 263              	.LVL10:
 264              	.LFB219:
 265              		.loc 1 278 60 is_stmt 1 view -0
 266              		.cfi_startproc
GAS LISTING /tmp/ccj2Uoco.s 			page 6


 267              		.loc 1 279 3 view .LVU76
 268              		.loc 1 278 60 is_stmt 0 view .LVU77
 269 0000 55       		pushl	%ebp
 270              		.cfi_def_cfa_offset 8
 271              		.cfi_offset 5, -8
 272 0001 57       		pushl	%edi
 273              		.cfi_def_cfa_offset 12
 274              		.cfi_offset 7, -12
 275 0002 56       		pushl	%esi
 276              		.cfi_def_cfa_offset 16
 277              		.cfi_offset 6, -16
 278 0003 31F6     		xorl	%esi, %esi
 279 0005 53       		pushl	%ebx
 280              		.cfi_def_cfa_offset 20
 281              		.cfi_offset 3, -20
 282 0006 E8FCFFFF 		call	__x86.get_pc_thunk.bx
 282      FF
 283 000b 81C30200 		addl	$_GLOBAL_OFFSET_TABLE_, %ebx
 283      0000
 284 0011 83EC2C   		subl	$44, %esp
 285              		.cfi_def_cfa_offset 64
 286              	.LVL11:
 287              		.loc 1 281 3 is_stmt 1 view .LVU78
 288              		.loc 1 281 3 view .LVU79
 289              		.loc 1 281 3 view .LVU80
 290              		.loc 1 284 3 view .LVU81
 291              		.loc 1 278 60 is_stmt 0 view .LVU82
 292 0014 8B7C2440 		movl	64(%esp), %edi
 293              		.loc 1 284 6 view .LVU83
 294 0018 807F1400 		cmpb	$0, 20(%edi)
 295 001c 7412     		je	.L27
 296              		.loc 1 318 1 view .LVU84
 297 001e 83C42C   		addl	$44, %esp
 298              		.cfi_remember_state
 299              		.cfi_def_cfa_offset 20
 300 0021 89F0     		movl	%esi, %eax
 301 0023 5B       		popl	%ebx
 302              		.cfi_restore 3
 303              		.cfi_def_cfa_offset 16
 304 0024 5E       		popl	%esi
 305              		.cfi_restore 6
 306              		.cfi_def_cfa_offset 12
 307 0025 5F       		popl	%edi
 308              		.cfi_restore 7
 309              		.cfi_def_cfa_offset 8
 310 0026 5D       		popl	%ebp
 311              		.cfi_restore 5
 312              		.cfi_def_cfa_offset 4
 313 0027 C3       		ret
 314 0028 8DB42600 		.p2align 4,,10
 314      00000090 
 315              		.p2align 3
 316              	.L27:
 317              		.cfi_restore_state
 318              		.loc 1 288 3 is_stmt 1 view .LVU85
 319 0030 8D4730   		leal	48(%edi), %eax
 320 0033 83EC0C   		subl	$12, %esp
GAS LISTING /tmp/ccj2Uoco.s 			page 7


 321              		.cfi_def_cfa_offset 76
 322 0036 89442428 		movl	%eax, 40(%esp)
 323 003a 50       		pushl	%eax
 324              		.cfi_def_cfa_offset 80
 325 003b E8FCFFFF 		call	chMtxLock@PLT
 325      FF
 326              	.LVL12:
 327              		.loc 1 290 3 view .LVU86
 328              		.loc 1 290 12 view .LVU87
 329              	.LBB128:
 330              	.LBB129:
 331              	.LBB130:
 332              		.loc 1 108 3 is_stmt 0 view .LVU88
 333 0040 8B6C2458 		movl	88(%esp), %ebp
 334 0044 8D4720   		leal	32(%edi), %eax
 335              	.LBE130:
 336              	.LBE129:
 337              	.LBE128:
 338              		.loc 1 290 12 view .LVU89
 339 0047 83C410   		addl	$16, %esp
 340              		.cfi_def_cfa_offset 64
 341              	.LBB174:
 342              	.LBB155:
 343              	.LBB151:
 344              		.loc 1 108 3 view .LVU90
 345 004a 8944240C 		movl	%eax, 12(%esp)
 346              	.LBE151:
 347              	.LBE155:
 348              	.LBE174:
 349              		.loc 1 290 12 view .LVU91
 350 004e 85ED     		testl	%ebp, %ebp
 351 0050 0F84F900 		je	.L15
 351      0000
 352              	.LBB175:
 353              		.loc 1 311 7 view .LVU92
 354 0056 8D471C   		leal	28(%edi), %eax
 355 0059 89442414 		movl	%eax, 20(%esp)
 356              	.LBB156:
 357              	.LBB157:
 358              	.LBB158:
 359              	.LBB159:
 360              		.loc 2 363 16 view .LVU93
 361 005d 8B830000 		movl	port_irq_sts@GOT(%ebx), %eax
 361      0000
 362 0063 89442418 		movl	%eax, 24(%esp)
 363              	.LVL13:
 364 0067 8DB42600 		.p2align 4,,10
 364      00000066 
 364      90
 365              		.p2align 3
 366              	.L16:
 367              		.loc 2 363 16 view .LVU94
 368              	.LBE159:
 369              	.LBE158:
 370              	.LBE157:
 371              	.LBE156:
 372              		.loc 1 291 5 is_stmt 1 view .LVU95
GAS LISTING /tmp/ccj2Uoco.s 			page 8


 373              		.loc 1 293 5 view .LVU96
 374              	.LBB170:
 375              	.LBI129:
 376              		.loc 1 105 15 view .LVU97
 377              	.LBB152:
 378              		.loc 1 106 3 view .LVU98
 379              		.loc 1 108 3 view .LVU99
 380 0070 83EC0C   		subl	$12, %esp
 381              		.cfi_def_cfa_offset 76
 382 0073 FF742418 		pushl	24(%esp)
 383              		.cfi_def_cfa_offset 80
 384 0077 E8FCFFFF 		call	chMtxLock@PLT
 384      FF
 385              	.LVL14:
 386              		.loc 1 111 3 view .LVU100
 387              	.LBB131:
 388              	.LBI131:
 389              		.file 4 "../../../os/oslib/include/chpipes.h"
 390              		.loc 4 187 22 view .LVU101
 391              	.LBB132:
 392              		.loc 4 189 3 view .LVU102
 393              	.LBB133:
 394              	.LBI133:
 395              		.loc 4 158 22 view .LVU103
 396              	.LBB134:
 397              		.loc 4 162 3 view .LVU104
 398              		.loc 4 162 21 is_stmt 0 view .LVU105
 399 007c 8B5704   		movl	4(%edi), %edx
 400              	.LVL15:
 401              		.loc 4 162 21 view .LVU106
 402              	.LBE134:
 403              	.LBE133:
 404              	.LBB136:
 405              	.LBI136:
 406              		.loc 4 174 22 is_stmt 1 view .LVU107
 407              	.LBB137:
 408              		.loc 4 176 3 view .LVU108
 409              		.loc 4 176 3 is_stmt 0 view .LVU109
 410              	.LBE137:
 411              	.LBE136:
 412              	.LBE132:
 413              	.LBE131:
 414              		.loc 1 114 11 view .LVU110
 415 007f 8B4710   		movl	16(%edi), %eax
 416              	.LBB140:
 417              	.LBB139:
 418              	.LBB138:
 419              	.LBB135:
 420              		.loc 4 162 27 view .LVU111
 421 0082 89D6     		movl	%edx, %esi
 422 0084 2B37     		subl	(%edi), %esi
 423              	.LBE135:
 424              	.LBE138:
 425              		.loc 4 189 28 view .LVU112
 426 0086 2B7710   		subl	16(%edi), %esi
 427 0089 39EE     		cmpl	%ebp, %esi
 428 008b 0F47F5   		cmova	%ebp, %esi
GAS LISTING /tmp/ccj2Uoco.s 			page 9


 429              	.LVL16:
 430              		.loc 4 189 28 view .LVU113
 431              	.LBE139:
 432              	.LBE140:
 433              		.loc 1 114 3 is_stmt 1 view .LVU114
 434              		.loc 1 121 6 is_stmt 0 view .LVU115
 435 008e 83C410   		addl	$16, %esp
 436              		.cfi_def_cfa_offset 64
 437              		.loc 1 114 11 view .LVU116
 438 0091 01F0     		addl	%esi, %eax
 439 0093 894710   		movl	%eax, 16(%edi)
 440              		.loc 1 118 3 is_stmt 1 view .LVU117
 441              		.loc 1 118 29 is_stmt 0 view .LVU118
 442 0096 8B4708   		movl	8(%edi), %eax
 443              		.loc 1 118 25 view .LVU119
 444 0099 29C2     		subl	%eax, %edx
 445              	.LVL17:
 446              		.loc 1 121 3 is_stmt 1 view .LVU120
 447              		.loc 1 121 6 is_stmt 0 view .LVU121
 448 009b 39D6     		cmpl	%edx, %esi
 449 009d 0F82ED00 		jb	.L28
 449      0000
 450              		.loc 1 125 8 is_stmt 1 view .LVU122
 451              		.loc 1 125 11 is_stmt 0 view .LVU123
 452 00a3 0F86C700 		jbe	.L12
 452      0000
 453              		.loc 1 126 5 is_stmt 1 view .LVU124
 454              	.LVL18:
 455              	.LBB141:
 456              	.LBI141:
 457              		.file 5 "/usr/include/bits/string_fortified.h"
 458              		.loc 5 26 1 view .LVU125
 459              	.LBB142:
 460              		.loc 5 29 3 view .LVU126
 461              		.loc 5 29 10 is_stmt 0 view .LVU127
 462 00a9 83EC04   		subl	$4, %esp
 463              		.cfi_def_cfa_offset 68
 464 00ac 52       		pushl	%edx
 465              		.cfi_def_cfa_offset 72
 466 00ad 89542418 		movl	%edx, 24(%esp)
 467 00b1 FF74244C 		pushl	76(%esp)
 468              		.cfi_def_cfa_offset 76
 469 00b5 50       		pushl	%eax
 470              		.cfi_def_cfa_offset 80
 471 00b6 E8FCFFFF 		call	memcpy@PLT
 471      FF
 472              	.LVL19:
 473              		.loc 5 29 10 view .LVU128
 474              	.LBE142:
 475              	.LBE141:
 476              		.loc 1 127 5 is_stmt 1 view .LVU129
 477              		.loc 1 128 5 view .LVU130
 478              		.loc 1 128 8 is_stmt 0 view .LVU131
 479 00bb 8B542420 		movl	32(%esp), %edx
 480 00bf 89F1     		movl	%esi, %ecx
 481 00c1 29D1     		subl	%edx, %ecx
 482              	.LVL20:
GAS LISTING /tmp/ccj2Uoco.s 			page 10


 483              		.loc 1 129 5 is_stmt 1 view .LVU132
 484              	.LBB143:
 485              	.LBI143:
 486              		.loc 5 26 1 view .LVU133
 487              	.LBB144:
 488              		.loc 5 29 3 view .LVU134
 489              	.LBE144:
 490              	.LBE143:
 491              		.loc 1 127 8 is_stmt 0 view .LVU135
 492 00c3 03542454 		addl	84(%esp), %edx
 493              	.LVL21:
 494              	.LBB146:
 495              	.LBB145:
 496              		.loc 5 29 10 view .LVU136
 497 00c7 83C40C   		addl	$12, %esp
 498              		.cfi_def_cfa_offset 68
 499 00ca 51       		pushl	%ecx
 500              		.cfi_def_cfa_offset 72
 501 00cb 894C2418 		movl	%ecx, 24(%esp)
 502              	.LVL22:
 503              		.loc 5 29 10 view .LVU137
 504 00cf 52       		pushl	%edx
 505              		.cfi_def_cfa_offset 76
 506              	.LVL23:
 507              		.loc 5 29 10 view .LVU138
 508 00d0 FF37     		pushl	(%edi)
 509              		.cfi_def_cfa_offset 80
 510 00d2 E8FCFFFF 		call	memcpy@PLT
 510      FF
 511              	.LVL24:
 512              		.loc 5 29 10 view .LVU139
 513              	.LBE145:
 514              	.LBE146:
 515              		.loc 1 130 5 is_stmt 1 view .LVU140
 516              		.loc 1 130 28 is_stmt 0 view .LVU141
 517 00d7 8B4C2420 		movl	32(%esp), %ecx
 518 00db 83C410   		addl	$16, %esp
 519              		.cfi_def_cfa_offset 64
 520 00de 030F     		addl	(%edi), %ecx
 521              	.LVL25:
 522              	.L11:
 523              		.loc 1 137 3 view .LVU142
 524 00e0 83EC0C   		subl	$12, %esp
 525              		.cfi_def_cfa_offset 76
 526              		.loc 1 123 15 view .LVU143
 527 00e3 894F08   		movl	%ecx, 8(%edi)
 528              		.loc 1 137 3 is_stmt 1 view .LVU144
 529 00e6 FF742418 		pushl	24(%esp)
 530              		.cfi_def_cfa_offset 80
 531 00ea E8FCFFFF 		call	chMtxUnlock@PLT
 531      FF
 532              	.LVL26:
 533              		.loc 1 139 3 view .LVU145
 534              		.loc 1 139 3 is_stmt 0 view .LVU146
 535              	.LBE152:
 536              	.LBE170:
 537              		.loc 1 294 5 is_stmt 1 view .LVU147
GAS LISTING /tmp/ccj2Uoco.s 			page 11


 538              		.loc 1 294 8 is_stmt 0 view .LVU148
 539 00ef 83C410   		addl	$16, %esp
 540              		.cfi_def_cfa_offset 64
 541 00f2 85F6     		testl	%esi, %esi
 542 00f4 753A     		jne	.L13
 543              	.LBB171:
 544              		.loc 1 295 7 is_stmt 1 view .LVU149
 545              		.loc 1 297 7 view .LVU150
 546              	.LBB164:
 547              	.LBI157:
 548              		.loc 3 407 20 view .LVU151
 549              		.loc 3 409 3 view .LVU152
 550              	.LBB162:
 551              	.LBI158:
 552              		.loc 2 361 20 view .LVU153
 553              	.LBB160:
 554              		.loc 2 363 3 view .LVU154
 555              		.loc 2 363 16 is_stmt 0 view .LVU155
 556 00f6 8B742418 		movl	24(%esp), %esi
 557              	.LVL27:
 558              		.loc 2 363 16 view .LVU156
 559              	.LBE160:
 560              	.LBE162:
 561              	.LBE164:
 562              		.loc 1 298 13 view .LVU157
 563 00fa 8D4718   		leal	24(%edi), %eax
 564 00fd 83EC08   		subl	$8, %esp
 565              		.cfi_def_cfa_offset 72
 566              	.LBB165:
 567              	.LBB163:
 568              	.LBB161:
 569              		.loc 2 363 16 view .LVU158
 570 0100 C7060100 		movl	$1, (%esi)
 570      0000
 571              	.LBE161:
 572              	.LBE163:
 573              		.loc 3 410 35 is_stmt 1 view .LVU159
 574              		.loc 3 411 21 view .LVU160
 575              	.LBE165:
 576              		.loc 1 298 7 view .LVU161
 577              		.loc 1 298 13 is_stmt 0 view .LVU162
 578 0106 FF742454 		pushl	84(%esp)
 579              		.cfi_def_cfa_offset 76
 580 010a 50       		pushl	%eax
 581              		.cfi_def_cfa_offset 80
 582 010b E8FCFFFF 		call	chThdSuspendTimeoutS@PLT
 582      FF
 583              	.LVL28:
 584              		.loc 1 299 7 is_stmt 1 view .LVU163
 585              	.LBB166:
 586              	.LBI166:
 587              		.loc 3 421 20 view .LVU164
 588              	.LBB167:
 589              		.loc 3 423 23 view .LVU165
 590              		.loc 3 424 34 view .LVU166
 591              		.loc 3 430 3 view .LVU167
 592              		.loc 3 430 3 view .LVU168
GAS LISTING /tmp/ccj2Uoco.s 			page 12


 593              		.loc 3 430 3 view .LVU169
 594              		.loc 3 434 3 view .LVU170
 595              	.LBB168:
 596              	.LBI168:
 597              		.loc 2 370 20 view .LVU171
 598              	.LBB169:
 599              		.loc 2 372 3 view .LVU172
 600              		.loc 2 372 16 is_stmt 0 view .LVU173
 601 0110 C7060000 		movl	$0, (%esi)
 601      0000
 602              	.LBE169:
 603              	.LBE168:
 604              	.LBE167:
 605              	.LBE166:
 606              		.loc 1 302 7 is_stmt 1 view .LVU174
 607              		.loc 1 302 10 is_stmt 0 view .LVU175
 608 0116 83C410   		addl	$16, %esp
 609              		.cfi_def_cfa_offset 64
 610 0119 85C0     		testl	%eax, %eax
 611 011b 0F844FFF 		je	.L16
 611      FFFF
 612              	.LBE171:
 613              	.LBE175:
 614              		.loc 1 317 14 view .LVU176
 615 0121 8B742448 		movl	72(%esp), %esi
 616 0125 29EE     		subl	%ebp, %esi
 617 0127 EB2A     		jmp	.L9
 618              	.LVL29:
 619 0129 8DB42600 		.p2align 4,,10
 619      000000
 620              		.p2align 3
 621              	.L13:
 622              	.LBB176:
 623              		.loc 1 307 7 is_stmt 1 view .LVU177
 624              		.loc 1 308 10 is_stmt 0 view .LVU178
 625 0130 01742444 		addl	%esi, 68(%esp)
 626              	.LVL30:
 627              		.loc 1 311 7 view .LVU179
 628 0134 83EC08   		subl	$8, %esp
 629              		.cfi_def_cfa_offset 72
 630              		.loc 1 307 10 view .LVU180
 631 0137 29F5     		subl	%esi, %ebp
 632              	.LVL31:
 633              		.loc 1 308 7 is_stmt 1 view .LVU181
 634              		.loc 1 311 7 view .LVU182
 635 0139 6A00     		pushl	$0
 636              		.cfi_def_cfa_offset 76
 637 013b FF742420 		pushl	32(%esp)
 638              		.cfi_def_cfa_offset 80
 639 013f E8FCFFFF 		call	chThdResume@PLT
 639      FF
 640              	.LVL32:
 641              		.loc 1 311 7 is_stmt 0 view .LVU183
 642              	.LBE176:
 643              		.loc 1 290 12 is_stmt 1 view .LVU184
 644 0144 83C410   		addl	$16, %esp
 645              		.cfi_def_cfa_offset 64
GAS LISTING /tmp/ccj2Uoco.s 			page 13


 646 0147 85ED     		testl	%ebp, %ebp
 647 0149 0F8521FF 		jne	.L16
 647      FFFF
 648              	.LVL33:
 649              	.L15:
 650              	.LBB177:
 651              	.LBB172:
 652              	.LBB153:
 653              		.loc 1 108 3 is_stmt 0 view .LVU185
 654 014f 8B742448 		movl	72(%esp), %esi
 655              	.L9:
 656              		.loc 1 108 3 view .LVU186
 657              	.LBE153:
 658              	.LBE172:
 659              	.LBE177:
 660              		.loc 1 315 3 is_stmt 1 view .LVU187
 661 0153 83EC0C   		subl	$12, %esp
 662              		.cfi_def_cfa_offset 76
 663 0156 FF742428 		pushl	40(%esp)
 664              		.cfi_def_cfa_offset 80
 665 015a E8FCFFFF 		call	chMtxUnlock@PLT
 665      FF
 666              	.LVL34:
 667              		.loc 1 317 3 view .LVU188
 668              		.loc 1 317 14 is_stmt 0 view .LVU189
 669 015f 83C410   		addl	$16, %esp
 670              		.cfi_def_cfa_offset 64
 671              		.loc 1 318 1 view .LVU190
 672 0162 89F0     		movl	%esi, %eax
 673 0164 83C42C   		addl	$44, %esp
 674              		.cfi_remember_state
 675              		.cfi_def_cfa_offset 20
 676 0167 5B       		popl	%ebx
 677              		.cfi_restore 3
 678              		.cfi_def_cfa_offset 16
 679 0168 5E       		popl	%esi
 680              		.cfi_restore 6
 681              		.cfi_def_cfa_offset 12
 682 0169 5F       		popl	%edi
 683              		.cfi_restore 7
 684              		.cfi_def_cfa_offset 8
 685 016a 5D       		popl	%ebp
 686              		.cfi_restore 5
 687              		.cfi_def_cfa_offset 4
 688              	.LVL35:
 689              		.loc 1 318 1 view .LVU191
 690 016b C3       		ret
 691              	.LVL36:
 692 016c 8D742600 		.p2align 4,,10
 693              		.p2align 3
 694              	.L12:
 695              		.cfi_restore_state
 696              	.LBB178:
 697              	.LBB173:
 698              	.LBB154:
 699              		.loc 1 133 5 is_stmt 1 view .LVU192
 700              	.LBB147:
GAS LISTING /tmp/ccj2Uoco.s 			page 14


 701              	.LBI147:
 702              		.loc 5 26 1 view .LVU193
 703              	.LBB148:
 704              		.loc 5 29 3 view .LVU194
 705              		.loc 5 29 10 is_stmt 0 view .LVU195
 706 0170 83EC04   		subl	$4, %esp
 707              		.cfi_def_cfa_offset 68
 708 0173 56       		pushl	%esi
 709              		.cfi_def_cfa_offset 72
 710 0174 FF74244C 		pushl	76(%esp)
 711              		.cfi_def_cfa_offset 76
 712 0178 50       		pushl	%eax
 713              		.cfi_def_cfa_offset 80
 714 0179 E8FCFFFF 		call	memcpy@PLT
 714      FF
 715              	.LVL37:
 716              		.loc 5 29 10 view .LVU196
 717              	.LBE148:
 718              	.LBE147:
 719              		.loc 1 134 5 is_stmt 1 view .LVU197
 720              		.loc 1 134 19 is_stmt 0 view .LVU198
 721 017e 8B0F     		movl	(%edi), %ecx
 722 0180 83C410   		addl	$16, %esp
 723              		.cfi_def_cfa_offset 64
 724 0183 E958FFFF 		jmp	.L11
 724      FF
 725              	.LVL38:
 726 0188 8DB42600 		.p2align 4,,10
 726      00000090 
 727              		.p2align 3
 728              	.L28:
 729              		.loc 1 122 5 is_stmt 1 view .LVU199
 730              	.LBB149:
 731              	.LBI149:
 732              		.loc 5 26 1 view .LVU200
 733              	.LBB150:
 734              		.loc 5 29 3 view .LVU201
 735              		.loc 5 29 10 is_stmt 0 view .LVU202
 736 0190 83EC04   		subl	$4, %esp
 737              		.cfi_def_cfa_offset 68
 738 0193 56       		pushl	%esi
 739              		.cfi_def_cfa_offset 72
 740 0194 FF74244C 		pushl	76(%esp)
 741              		.cfi_def_cfa_offset 76
 742 0198 50       		pushl	%eax
 743              		.cfi_def_cfa_offset 80
 744 0199 E8FCFFFF 		call	memcpy@PLT
 744      FF
 745              	.LVL39:
 746              		.loc 5 29 10 view .LVU203
 747              	.LBE150:
 748              	.LBE149:
 749              		.loc 1 123 5 is_stmt 1 view .LVU204
 750              		.loc 1 123 15 is_stmt 0 view .LVU205
 751 019e 8B4F08   		movl	8(%edi), %ecx
 752 01a1 83C410   		addl	$16, %esp
 753              		.cfi_def_cfa_offset 64
GAS LISTING /tmp/ccj2Uoco.s 			page 15


 754 01a4 01F1     		addl	%esi, %ecx
 755 01a6 E935FFFF 		jmp	.L11
 755      FF
 756              	.LBE154:
 757              	.LBE173:
 758              	.LBE178:
 759              		.cfi_endproc
 760              	.LFE219:
 761              		.size	chPipeWriteTimeout, .-chPipeWriteTimeout
 762              		.section	.text.chPipeReadTimeout,"ax",@progbits
 763              		.p2align 4
 764              		.globl	chPipeReadTimeout
 765              		.type	chPipeReadTimeout, @function
 766              	chPipeReadTimeout:
 767              	.LVL40:
 768              	.LFB220:
 769              		.loc 1 342 59 is_stmt 1 view -0
 770              		.cfi_startproc
 771              		.loc 1 343 3 view .LVU207
 772              		.loc 1 342 59 is_stmt 0 view .LVU208
 773 0000 55       		pushl	%ebp
 774              		.cfi_def_cfa_offset 8
 775              		.cfi_offset 5, -8
 776 0001 57       		pushl	%edi
 777              		.cfi_def_cfa_offset 12
 778              		.cfi_offset 7, -12
 779 0002 31FF     		xorl	%edi, %edi
 780 0004 56       		pushl	%esi
 781              		.cfi_def_cfa_offset 16
 782              		.cfi_offset 6, -16
 783 0005 53       		pushl	%ebx
 784              		.cfi_def_cfa_offset 20
 785              		.cfi_offset 3, -20
 786 0006 E8FCFFFF 		call	__x86.get_pc_thunk.bx
 786      FF
 787 000b 81C30200 		addl	$_GLOBAL_OFFSET_TABLE_, %ebx
 787      0000
 788 0011 83EC2C   		subl	$44, %esp
 789              		.cfi_def_cfa_offset 64
 790              	.LVL41:
 791              		.loc 1 345 3 is_stmt 1 view .LVU209
 792              		.loc 1 345 3 view .LVU210
 793              		.loc 1 345 3 view .LVU211
 794              		.loc 1 348 3 view .LVU212
 795              		.loc 1 342 59 is_stmt 0 view .LVU213
 796 0014 8B742440 		movl	64(%esp), %esi
 797              		.loc 1 348 6 view .LVU214
 798 0018 807E1400 		cmpb	$0, 20(%esi)
 799 001c 7412     		je	.L50
 800              		.loc 1 382 1 view .LVU215
 801 001e 83C42C   		addl	$44, %esp
 802              		.cfi_remember_state
 803              		.cfi_def_cfa_offset 20
 804 0021 89F8     		movl	%edi, %eax
 805 0023 5B       		popl	%ebx
 806              		.cfi_restore 3
 807              		.cfi_def_cfa_offset 16
GAS LISTING /tmp/ccj2Uoco.s 			page 16


 808 0024 5E       		popl	%esi
 809              		.cfi_restore 6
 810              		.cfi_def_cfa_offset 12
 811 0025 5F       		popl	%edi
 812              		.cfi_restore 7
 813              		.cfi_def_cfa_offset 8
 814 0026 5D       		popl	%ebp
 815              		.cfi_restore 5
 816              		.cfi_def_cfa_offset 4
 817 0027 C3       		ret
 818 0028 8DB42600 		.p2align 4,,10
 818      00000090 
 819              		.p2align 3
 820              	.L50:
 821              		.cfi_restore_state
 822              		.loc 1 352 3 is_stmt 1 view .LVU216
 823 0030 8D4640   		leal	64(%esi), %eax
 824 0033 83EC0C   		subl	$12, %esp
 825              		.cfi_def_cfa_offset 76
 826 0036 89442428 		movl	%eax, 40(%esp)
 827 003a 50       		pushl	%eax
 828              		.cfi_def_cfa_offset 80
 829 003b E8FCFFFF 		call	chMtxLock@PLT
 829      FF
 830              	.LVL42:
 831              		.loc 1 354 3 view .LVU217
 832              		.loc 1 354 12 view .LVU218
 833              	.LBB200:
 834              	.LBB201:
 835              	.LBB202:
 836              		.loc 1 159 3 is_stmt 0 view .LVU219
 837 0040 8B6C2458 		movl	88(%esp), %ebp
 838 0044 8D4620   		leal	32(%esi), %eax
 839              	.LBE202:
 840              	.LBE201:
 841              	.LBE200:
 842              		.loc 1 354 12 view .LVU220
 843 0047 83C410   		addl	$16, %esp
 844              		.cfi_def_cfa_offset 64
 845              	.LBB238:
 846              	.LBB219:
 847              	.LBB215:
 848              		.loc 1 159 3 view .LVU221
 849 004a 8944240C 		movl	%eax, 12(%esp)
 850              	.LBE215:
 851              	.LBE219:
 852              	.LBE238:
 853              		.loc 1 354 12 view .LVU222
 854 004e 85ED     		testl	%ebp, %ebp
 855 0050 0F84F100 		je	.L38
 855      0000
 856              	.LBB239:
 857              		.loc 1 375 7 view .LVU223
 858 0056 8D4618   		leal	24(%esi), %eax
 859 0059 89442414 		movl	%eax, 20(%esp)
 860              	.LBB220:
 861              	.LBB221:
GAS LISTING /tmp/ccj2Uoco.s 			page 17


 862              	.LBB222:
 863              	.LBB223:
 864              		.loc 2 363 16 view .LVU224
 865 005d 8B830000 		movl	port_irq_sts@GOT(%ebx), %eax
 865      0000
 866 0063 89442418 		movl	%eax, 24(%esp)
 867              	.LVL43:
 868 0067 8DB42600 		.p2align 4,,10
 868      00000066 
 868      90
 869              		.p2align 3
 870              	.L39:
 871              		.loc 2 363 16 view .LVU225
 872              	.LBE223:
 873              	.LBE222:
 874              	.LBE221:
 875              	.LBE220:
 876              		.loc 1 355 5 is_stmt 1 view .LVU226
 877              		.loc 1 357 5 view .LVU227
 878              	.LBB234:
 879              	.LBI201:
 880              		.loc 1 156 15 view .LVU228
 881              	.LBB216:
 882              		.loc 1 157 3 view .LVU229
 883              		.loc 1 159 3 view .LVU230
 884 0070 83EC0C   		subl	$12, %esp
 885              		.cfi_def_cfa_offset 76
 886 0073 89EF     		movl	%ebp, %edi
 887 0075 FF742418 		pushl	24(%esp)
 888              		.cfi_def_cfa_offset 80
 889 0079 E8FCFFFF 		call	chMtxLock@PLT
 889      FF
 890              	.LVL44:
 891              		.loc 1 162 3 view .LVU231
 892              	.LBB203:
 893              	.LBI203:
 894              		.loc 4 174 22 view .LVU232
 895              	.LBB204:
 896              		.loc 4 176 3 view .LVU233
 897              		.loc 4 176 12 is_stmt 0 view .LVU234
 898 007e 8B4610   		movl	16(%esi), %eax
 899              	.LVL45:
 900              		.loc 4 176 12 view .LVU235
 901              	.LBE204:
 902              	.LBE203:
 903              		.loc 1 169 25 view .LVU236
 904 0081 8B5604   		movl	4(%esi), %edx
 905 0084 39E8     		cmpl	%ebp, %eax
 906 0086 0F46F8   		cmovbe	%eax, %edi
 907              	.LVL46:
 908              		.loc 1 165 3 is_stmt 1 view .LVU237
 909              		.loc 1 172 6 is_stmt 0 view .LVU238
 910 0089 83C410   		addl	$16, %esp
 911              		.cfi_def_cfa_offset 64
 912              		.loc 1 165 11 view .LVU239
 913 008c 29F8     		subl	%edi, %eax
 914 008e 894610   		movl	%eax, 16(%esi)
GAS LISTING /tmp/ccj2Uoco.s 			page 18


 915              		.loc 1 169 3 is_stmt 1 view .LVU240
 916              		.loc 1 169 29 is_stmt 0 view .LVU241
 917 0091 8B460C   		movl	12(%esi), %eax
 918              		.loc 1 169 25 view .LVU242
 919 0094 29C2     		subl	%eax, %edx
 920              	.LVL47:
 921              		.loc 1 172 3 is_stmt 1 view .LVU243
 922              		.loc 1 172 6 is_stmt 0 view .LVU244
 923 0096 39D7     		cmpl	%edx, %edi
 924 0098 0F82E200 		jb	.L51
 924      0000
 925              		.loc 1 176 8 is_stmt 1 view .LVU245
 926              		.loc 1 176 11 is_stmt 0 view .LVU246
 927 009e 0F86C400 		jbe	.L35
 927      0000
 928              		.loc 1 177 5 is_stmt 1 view .LVU247
 929              	.LVL48:
 930              	.LBB205:
 931              	.LBI205:
 932              		.loc 5 26 1 view .LVU248
 933              	.LBB206:
 934              		.loc 5 29 3 view .LVU249
 935              		.loc 5 29 10 is_stmt 0 view .LVU250
 936 00a4 83EC04   		subl	$4, %esp
 937              		.cfi_def_cfa_offset 68
 938 00a7 52       		pushl	%edx
 939              		.cfi_def_cfa_offset 72
 940 00a8 89542418 		movl	%edx, 24(%esp)
 941 00ac 50       		pushl	%eax
 942              		.cfi_def_cfa_offset 76
 943 00ad FF742450 		pushl	80(%esp)
 944              		.cfi_def_cfa_offset 80
 945 00b1 E8FCFFFF 		call	memcpy@PLT
 945      FF
 946              	.LVL49:
 947              		.loc 5 29 10 view .LVU251
 948              	.LBE206:
 949              	.LBE205:
 950              		.loc 1 178 5 is_stmt 1 view .LVU252
 951              		.loc 1 179 5 view .LVU253
 952              		.loc 1 179 8 is_stmt 0 view .LVU254
 953 00b6 8B542420 		movl	32(%esp), %edx
 954 00ba 89F9     		movl	%edi, %ecx
 955 00bc 29D1     		subl	%edx, %ecx
 956              	.LVL50:
 957              		.loc 1 180 5 is_stmt 1 view .LVU255
 958              	.LBB207:
 959              	.LBI207:
 960              		.loc 5 26 1 view .LVU256
 961              	.LBB208:
 962              		.loc 5 29 3 view .LVU257
 963              	.LBE208:
 964              	.LBE207:
 965              		.loc 1 178 8 is_stmt 0 view .LVU258
 966 00be 03542454 		addl	84(%esp), %edx
 967              	.LVL51:
 968              	.LBB210:
GAS LISTING /tmp/ccj2Uoco.s 			page 19


 969              	.LBB209:
 970              		.loc 5 29 10 view .LVU259
 971 00c2 83C40C   		addl	$12, %esp
 972              		.cfi_def_cfa_offset 68
 973 00c5 51       		pushl	%ecx
 974              		.cfi_def_cfa_offset 72
 975 00c6 894C2418 		movl	%ecx, 24(%esp)
 976              	.LVL52:
 977              		.loc 5 29 10 view .LVU260
 978 00ca FF36     		pushl	(%esi)
 979              		.cfi_def_cfa_offset 76
 980              	.LVL53:
 981              		.loc 5 29 10 view .LVU261
 982 00cc 52       		pushl	%edx
 983              		.cfi_def_cfa_offset 80
 984 00cd E8FCFFFF 		call	memcpy@PLT
 984      FF
 985              	.LVL54:
 986              		.loc 5 29 10 view .LVU262
 987              	.LBE209:
 988              	.LBE210:
 989              		.loc 1 181 5 is_stmt 1 view .LVU263
 990              		.loc 1 181 28 is_stmt 0 view .LVU264
 991 00d2 8B4C2420 		movl	32(%esp), %ecx
 992 00d6 83C410   		addl	$16, %esp
 993              		.cfi_def_cfa_offset 64
 994 00d9 030E     		addl	(%esi), %ecx
 995              	.LVL55:
 996              	.L34:
 997              		.loc 1 188 3 view .LVU265
 998 00db 83EC0C   		subl	$12, %esp
 999              		.cfi_def_cfa_offset 76
 1000              		.loc 1 174 15 view .LVU266
 1001 00de 894E0C   		movl	%ecx, 12(%esi)
 1002              		.loc 1 188 3 is_stmt 1 view .LVU267
 1003 00e1 FF742418 		pushl	24(%esp)
 1004              		.cfi_def_cfa_offset 80
 1005 00e5 E8FCFFFF 		call	chMtxUnlock@PLT
 1005      FF
 1006              	.LVL56:
 1007              		.loc 1 190 3 view .LVU268
 1008              		.loc 1 190 3 is_stmt 0 view .LVU269
 1009              	.LBE216:
 1010              	.LBE234:
 1011              		.loc 1 358 5 is_stmt 1 view .LVU270
 1012              		.loc 1 358 8 is_stmt 0 view .LVU271
 1013 00ea 83C410   		addl	$16, %esp
 1014              		.cfi_def_cfa_offset 64
 1015 00ed 85FF     		testl	%edi, %edi
 1016 00ef 7537     		jne	.L36
 1017              	.LBB235:
 1018              		.loc 1 359 7 is_stmt 1 view .LVU272
 1019              		.loc 1 361 7 view .LVU273
 1020              	.LBB228:
 1021              	.LBI221:
 1022              		.loc 3 407 20 view .LVU274
 1023              		.loc 3 409 3 view .LVU275
GAS LISTING /tmp/ccj2Uoco.s 			page 20


 1024              	.LBB226:
 1025              	.LBI222:
 1026              		.loc 2 361 20 view .LVU276
 1027              	.LBB224:
 1028              		.loc 2 363 3 view .LVU277
 1029              		.loc 2 363 16 is_stmt 0 view .LVU278
 1030 00f1 8B7C2418 		movl	24(%esp), %edi
 1031              	.LVL57:
 1032              		.loc 2 363 16 view .LVU279
 1033              	.LBE224:
 1034              	.LBE226:
 1035              	.LBE228:
 1036              		.loc 1 362 13 view .LVU280
 1037 00f5 8D461C   		leal	28(%esi), %eax
 1038 00f8 83EC08   		subl	$8, %esp
 1039              		.cfi_def_cfa_offset 72
 1040              	.LBB229:
 1041              	.LBB227:
 1042              	.LBB225:
 1043              		.loc 2 363 16 view .LVU281
 1044 00fb C7070100 		movl	$1, (%edi)
 1044      0000
 1045              	.LBE225:
 1046              	.LBE227:
 1047              		.loc 3 410 35 is_stmt 1 view .LVU282
 1048              		.loc 3 411 21 view .LVU283
 1049              	.LBE229:
 1050              		.loc 1 362 7 view .LVU284
 1051              		.loc 1 362 13 is_stmt 0 view .LVU285
 1052 0101 FF742454 		pushl	84(%esp)
 1053              		.cfi_def_cfa_offset 76
 1054 0105 50       		pushl	%eax
 1055              		.cfi_def_cfa_offset 80
 1056 0106 E8FCFFFF 		call	chThdSuspendTimeoutS@PLT
 1056      FF
 1057              	.LVL58:
 1058              		.loc 1 363 7 is_stmt 1 view .LVU286
 1059              	.LBB230:
 1060              	.LBI230:
 1061              		.loc 3 421 20 view .LVU287
 1062              	.LBB231:
 1063              		.loc 3 423 23 view .LVU288
 1064              		.loc 3 424 34 view .LVU289
 1065              		.loc 3 430 3 view .LVU290
 1066              		.loc 3 430 3 view .LVU291
 1067              		.loc 3 430 3 view .LVU292
 1068              		.loc 3 434 3 view .LVU293
 1069              	.LBB232:
 1070              	.LBI232:
 1071              		.loc 2 370 20 view .LVU294
 1072              	.LBB233:
 1073              		.loc 2 372 3 view .LVU295
 1074              		.loc 2 372 16 is_stmt 0 view .LVU296
 1075 010b C7070000 		movl	$0, (%edi)
 1075      0000
 1076              	.LBE233:
 1077              	.LBE232:
GAS LISTING /tmp/ccj2Uoco.s 			page 21


 1078              	.LBE231:
 1079              	.LBE230:
 1080              		.loc 1 366 7 is_stmt 1 view .LVU297
 1081              		.loc 1 366 10 is_stmt 0 view .LVU298
 1082 0111 83C410   		addl	$16, %esp
 1083              		.cfi_def_cfa_offset 64
 1084 0114 85C0     		testl	%eax, %eax
 1085 0116 0F8454FF 		je	.L39
 1085      FFFF
 1086              	.LBE235:
 1087              	.LBE239:
 1088              		.loc 1 381 14 view .LVU299
 1089 011c 8B7C2448 		movl	72(%esp), %edi
 1090 0120 29EF     		subl	%ebp, %edi
 1091 0122 EB27     		jmp	.L32
 1092              	.LVL59:
 1093              		.p2align 4,,10
 1094 0124 8D742600 		.p2align 3
 1095              	.L36:
 1096              	.LBB240:
 1097              		.loc 1 371 7 is_stmt 1 view .LVU300
 1098              		.loc 1 372 10 is_stmt 0 view .LVU301
 1099 0128 017C2444 		addl	%edi, 68(%esp)
 1100              	.LVL60:
 1101              		.loc 1 375 7 view .LVU302
 1102 012c 83EC08   		subl	$8, %esp
 1103              		.cfi_def_cfa_offset 72
 1104              		.loc 1 371 10 view .LVU303
 1105 012f 29FD     		subl	%edi, %ebp
 1106              	.LVL61:
 1107              		.loc 1 372 7 is_stmt 1 view .LVU304
 1108              		.loc 1 375 7 view .LVU305
 1109 0131 6A00     		pushl	$0
 1110              		.cfi_def_cfa_offset 76
 1111 0133 FF742420 		pushl	32(%esp)
 1112              		.cfi_def_cfa_offset 80
 1113 0137 E8FCFFFF 		call	chThdResume@PLT
 1113      FF
 1114              	.LVL62:
 1115              		.loc 1 375 7 is_stmt 0 view .LVU306
 1116              	.LBE240:
 1117              		.loc 1 354 12 is_stmt 1 view .LVU307
 1118 013c 83C410   		addl	$16, %esp
 1119              		.cfi_def_cfa_offset 64
 1120 013f 85ED     		testl	%ebp, %ebp
 1121 0141 0F8529FF 		jne	.L39
 1121      FFFF
 1122              	.LVL63:
 1123              	.L38:
 1124              	.LBB241:
 1125              	.LBB236:
 1126              	.LBB217:
 1127              		.loc 1 159 3 is_stmt 0 view .LVU308
 1128 0147 8B7C2448 		movl	72(%esp), %edi
 1129              	.L32:
 1130              		.loc 1 159 3 view .LVU309
 1131              	.LBE217:
GAS LISTING /tmp/ccj2Uoco.s 			page 22


 1132              	.LBE236:
 1133              	.LBE241:
 1134              		.loc 1 379 3 is_stmt 1 view .LVU310
 1135 014b 83EC0C   		subl	$12, %esp
 1136              		.cfi_def_cfa_offset 76
 1137 014e FF742428 		pushl	40(%esp)
 1138              		.cfi_def_cfa_offset 80
 1139 0152 E8FCFFFF 		call	chMtxUnlock@PLT
 1139      FF
 1140              	.LVL64:
 1141              		.loc 1 381 3 view .LVU311
 1142              		.loc 1 381 14 is_stmt 0 view .LVU312
 1143 0157 83C410   		addl	$16, %esp
 1144              		.cfi_def_cfa_offset 64
 1145              		.loc 1 382 1 view .LVU313
 1146 015a 89F8     		movl	%edi, %eax
 1147 015c 83C42C   		addl	$44, %esp
 1148              		.cfi_remember_state
 1149              		.cfi_def_cfa_offset 20
 1150 015f 5B       		popl	%ebx
 1151              		.cfi_restore 3
 1152              		.cfi_def_cfa_offset 16
 1153 0160 5E       		popl	%esi
 1154              		.cfi_restore 6
 1155              		.cfi_def_cfa_offset 12
 1156 0161 5F       		popl	%edi
 1157              		.cfi_restore 7
 1158              		.cfi_def_cfa_offset 8
 1159 0162 5D       		popl	%ebp
 1160              		.cfi_restore 5
 1161              		.cfi_def_cfa_offset 4
 1162              	.LVL65:
 1163              		.loc 1 382 1 view .LVU314
 1164 0163 C3       		ret
 1165              	.LVL66:
 1166              		.p2align 4,,10
 1167 0164 8D742600 		.p2align 3
 1168              	.L35:
 1169              		.cfi_restore_state
 1170              	.LBB242:
 1171              	.LBB237:
 1172              	.LBB218:
 1173              		.loc 1 184 5 is_stmt 1 view .LVU315
 1174              	.LBB211:
 1175              	.LBI211:
 1176              		.loc 5 26 1 view .LVU316
 1177              	.LBB212:
 1178              		.loc 5 29 3 view .LVU317
 1179              		.loc 5 29 10 is_stmt 0 view .LVU318
 1180 0168 83EC04   		subl	$4, %esp
 1181              		.cfi_def_cfa_offset 68
 1182 016b 57       		pushl	%edi
 1183              		.cfi_def_cfa_offset 72
 1184 016c 50       		pushl	%eax
 1185              		.cfi_def_cfa_offset 76
 1186 016d FF742450 		pushl	80(%esp)
 1187              		.cfi_def_cfa_offset 80
GAS LISTING /tmp/ccj2Uoco.s 			page 23


 1188 0171 E8FCFFFF 		call	memcpy@PLT
 1188      FF
 1189              	.LVL67:
 1190              		.loc 5 29 10 view .LVU319
 1191              	.LBE212:
 1192              	.LBE211:
 1193              		.loc 1 185 5 is_stmt 1 view .LVU320
 1194              		.loc 1 185 19 is_stmt 0 view .LVU321
 1195 0176 8B0E     		movl	(%esi), %ecx
 1196 0178 83C410   		addl	$16, %esp
 1197              		.cfi_def_cfa_offset 64
 1198 017b E95BFFFF 		jmp	.L34
 1198      FF
 1199              	.LVL68:
 1200              		.p2align 4,,10
 1201              		.p2align 3
 1202              	.L51:
 1203              		.loc 1 173 5 is_stmt 1 view .LVU322
 1204              	.LBB213:
 1205              	.LBI213:
 1206              		.loc 5 26 1 view .LVU323
 1207              	.LBB214:
 1208              		.loc 5 29 3 view .LVU324
 1209              		.loc 5 29 10 is_stmt 0 view .LVU325
 1210 0180 83EC04   		subl	$4, %esp
 1211              		.cfi_def_cfa_offset 68
 1212 0183 57       		pushl	%edi
 1213              		.cfi_def_cfa_offset 72
 1214 0184 50       		pushl	%eax
 1215              		.cfi_def_cfa_offset 76
 1216 0185 FF742450 		pushl	80(%esp)
 1217              		.cfi_def_cfa_offset 80
 1218 0189 E8FCFFFF 		call	memcpy@PLT
 1218      FF
 1219              	.LVL69:
 1220              		.loc 5 29 10 view .LVU326
 1221              	.LBE214:
 1222              	.LBE213:
 1223              		.loc 1 174 5 is_stmt 1 view .LVU327
 1224              		.loc 1 174 15 is_stmt 0 view .LVU328
 1225 018e 8B4E0C   		movl	12(%esi), %ecx
 1226 0191 83C410   		addl	$16, %esp
 1227              		.cfi_def_cfa_offset 64
 1228 0194 01F9     		addl	%edi, %ecx
 1229 0196 E940FFFF 		jmp	.L34
 1229      FF
 1230              	.LBE218:
 1231              	.LBE237:
 1232              	.LBE242:
 1233              		.cfi_endproc
 1234              	.LFE220:
 1235              		.size	chPipeReadTimeout, .-chPipeReadTimeout
 1236              		.section	.text.__x86.get_pc_thunk.bx,"axG",@progbits,__x86.get_pc_thunk.bx,comdat
 1237              		.globl	__x86.get_pc_thunk.bx
 1238              		.hidden	__x86.get_pc_thunk.bx
 1239              		.type	__x86.get_pc_thunk.bx, @function
 1240              	__x86.get_pc_thunk.bx:
GAS LISTING /tmp/ccj2Uoco.s 			page 24


 1241              	.LFB221:
 1242              		.cfi_startproc
 1243 0000 8B1C24   		movl	(%esp), %ebx
 1244 0003 C3       		ret
 1245              		.cfi_endproc
 1246              	.LFE221:
 1247              		.text
 1248              	.Letext0:
 1249              		.file 6 "/usr/lib/gcc/x86_64-linux-gnu/11/include/stddef.h"
 1250              		.file 7 "/usr/include/bits/types.h"
 1251              		.file 8 "/usr/include/bits/stdint-intn.h"
 1252              		.file 9 "/usr/include/bits/stdint-uintn.h"
 1253              		.file 10 "../../../os/common/ports/SIMIA32/compilers/GCC/chtypes.h"
 1254              		.file 11 "../../../os/rt/include/chearly.h"
 1255              		.file 12 "../../../os/rt/include/chobjects.h"
 1256              		.file 13 "../../../os/rt/include/chrfcu.h"
 1257              		.file 14 "../../../os/rt/include/chdebug.h"
 1258              		.file 15 "../../../os/rt/include/chtime.h"
 1259              		.file 16 "../../../os/rt/include/chlists.h"
 1260              		.file 17 "../../../os/rt/include/chsem.h"
 1261              		.file 18 "../../../os/rt/include/chmtx.h"
 1262              		.file 19 "../../../os/rt/include/chthreads.h"
 1263              		.file 20 "../../../os/rt/include/chschd.h"
 1264              		.file 21 "<built-in>"
 5637 0046 2F686F6D 		.section	.note.GNU-stack,"",@progbits
 5637      652F616C 
 5637      65782F43 
 5637      68696269 
 5637      4F532F64 
GAS LISTING /tmp/ccj2Uoco.s 			page 107

