GAS LISTING /tmp/ccgNg7u5.s 			page 1


   1              		.file	"chsys.c"
   2              		.text
   3              	.Ltext0:
   4              		.file 0 "/home/alex/ChibiOS/demos/various/LAB3" "../../../os/rt/src/chsys.c"
   5              		.section	.text.chSysWaitSystemState,"ax",@progbits
   6              		.p2align 4
   7              		.globl	chSysWaitSystemState
   8              		.type	chSysWaitSystemState, @function
   9              	chSysWaitSystemState:
  10              	.LVL0:
  11              	.LFB203:
  12              		.file 1 "../../../os/rt/src/chsys.c"
  13              		.loc 1 128 49 view -0
  14              		.cfi_startproc
  15              		.loc 1 130 3 view .LVU1
  16 0000 E8FCFFFF 		call	__x86.get_pc_thunk.ax
  16      FF
  17 0005 05010000 		addl	$_GLOBAL_OFFSET_TABLE_, %eax
  17      00
  18              		.loc 1 128 49 is_stmt 0 view .LVU2
  19 000a 8B542404 		movl	4(%esp), %edx
  20              		.loc 1 130 19 view .LVU3
  21 000e 8B800000 		movl	ch_system@GOTOFF(%eax), %eax
  21      0000
  22              		.p2align 4,,10
  23 0014 8D742600 		.p2align 3
  24              	.L2:
  25              		.loc 1 131 3 is_stmt 1 discriminator 1 view .LVU4
  26              		.loc 1 130 26 discriminator 1 view .LVU5
  27 0018 39D0     		cmpl	%edx, %eax
  28 001a 75FC     		jne	.L2
  29              		.loc 1 132 1 is_stmt 0 view .LVU6
  30 001c C3       		ret
  31              		.cfi_endproc
  32              	.LFE203:
  33              		.size	chSysWaitSystemState, .-chSysWaitSystemState
  34              		.section	.text.chSysInit,"ax",@progbits
  35              		.p2align 4
  36              		.globl	chSysInit
  37              		.type	chSysInit, @function
  38              	chSysInit:
  39              	.LFB204:
  40              		.loc 1 145 22 is_stmt 1 view -0
  41              		.cfi_startproc
  42 0000 57       		pushl	%edi
  43              		.cfi_def_cfa_offset 8
  44              		.cfi_offset 7, -8
  45 0001 56       		pushl	%esi
  46              		.cfi_def_cfa_offset 12
  47              		.cfi_offset 6, -12
  48              	.LBB20:
  49              	.LBB21:
  50              		.file 2 "../../../os/rt/include/chtm.h"
  51              		.loc 2 128 3 is_stmt 0 view .LVU8
  52 0002 BE040000 		movl	$4, %esi
  52      00
  53              	.LBE21:
GAS LISTING /tmp/ccgNg7u5.s 			page 2


  54              	.LBE20:
  55              		.loc 1 145 22 view .LVU9
  56 0007 53       		pushl	%ebx
  57              		.cfi_def_cfa_offset 16
  58              		.cfi_offset 3, -16
  59 0008 E8FCFFFF 		call	__x86.get_pc_thunk.bx
  59      FF
  60 000d 81C30200 		addl	$_GLOBAL_OFFSET_TABLE_, %ebx
  60      0000
  61 0013 83EC2C   		subl	$44, %esp
  62              		.cfi_def_cfa_offset 60
  63              		.loc 1 145 22 view .LVU10
  64 0016 65A11400 		movl	%gs:20, %eax
  64      0000
  65 001c 89442428 		movl	%eax, 40(%esp)
  66 0020 31C0     		xorl	%eax, %eax
  67              		.loc 1 146 3 is_stmt 1 view .LVU11
  68              		.loc 1 149 3 view .LVU12
  69              	.LBB24:
  70              	.LBB22:
  71              		.loc 2 128 3 is_stmt 0 view .LVU13
  72 0022 8D7C2410 		leal	16(%esp), %edi
  73 0026 57       		pushl	%edi
  74              		.cfi_def_cfa_offset 64
  75              	.LBE22:
  76              	.LBE24:
  77              		.loc 1 149 19 view .LVU14
  78 0027 C7830000 		movl	$1, ch_system@GOTOFF(%ebx)
  78      00000100 
  78      0000
  79              		.loc 1 150 3 is_stmt 1 view .LVU15
  80              	.LVL1:
  81              		.loc 1 150 18 view .LVU16
  82              		.loc 1 151 5 view .LVU17
  83              		.loc 1 151 28 is_stmt 0 view .LVU18
  84 0031 C7830400 		movl	$0, 4+ch_system@GOTOFF(%ebx)
  84      00000000 
  84      0000
  85              		.loc 1 150 50 is_stmt 1 view .LVU19
  86              	.LVL2:
  87              		.loc 1 150 18 view .LVU20
  88              		.loc 1 156 3 view .LVU21
  89              	.LBB25:
  90              	.LBI20:
  91              		.loc 2 120 20 view .LVU22
  92              	.LBB23:
  93              		.loc 2 121 3 view .LVU23
  94              		.loc 2 122 3 view .LVU24
  95              		.loc 2 127 3 view .LVU25
  96              		.loc 2 127 15 is_stmt 0 view .LVU26
  97 003b C7830800 		movl	$0, 8+ch_system@GOTOFF(%ebx)
  97      00000000 
  97      0000
  98              		.loc 2 128 3 is_stmt 1 view .LVU27
  99 0045 E8FCFFFF 		call	chTMObjectInit@PLT
  99      FF
 100              	.LVL3:
GAS LISTING /tmp/ccgNg7u5.s 			page 3


 101              		.loc 2 129 3 view .LVU28
 102              		.loc 2 128 3 is_stmt 0 view .LVU29
 103 004a 83C410   		addl	$16, %esp
 104              		.cfi_def_cfa_offset 48
 105              	.LVL4:
 106              	.L6:
 107              		.loc 2 130 3 is_stmt 1 view .LVU30
 108              		.loc 2 131 5 view .LVU31
 109 004d 83EC0C   		subl	$12, %esp
 110              		.cfi_def_cfa_offset 60
 111 0050 57       		pushl	%edi
 112              		.cfi_def_cfa_offset 64
 113 0051 E8FCFFFF 		call	chTMStartMeasurementX@PLT
 113      FF
 114              	.LVL5:
 115              		.loc 2 132 5 view .LVU32
 116 0056 893C24   		movl	%edi, (%esp)
 117 0059 E8FCFFFF 		call	chTMStopMeasurementX@PLT
 117      FF
 118              	.LVL6:
 119              		.loc 2 133 5 view .LVU33
 120              		.loc 2 134 14 view .LVU34
 121 005e 83C410   		addl	$16, %esp
 122              		.cfi_def_cfa_offset 48
 123 0061 83EE01   		subl	$1, %esi
 124              	.LVL7:
 125              		.loc 2 134 14 is_stmt 0 view .LVU35
 126 0064 75E7     		jne	.L6
 127              		.loc 2 135 3 is_stmt 1 view .LVU36
 128              		.loc 2 135 15 is_stmt 0 view .LVU37
 129 0066 8B442404 		movl	4(%esp), %eax
 130 006a 89830800 		movl	%eax, 8+ch_system@GOTOFF(%ebx)
 130      0000
 131              	.LVL8:
 132              		.loc 2 135 15 view .LVU38
 133              	.LBE23:
 134              	.LBE25:
 135              		.loc 1 170 3 is_stmt 1 view .LVU39
 136              		.loc 1 170 28 view .LVU40
 137              		.loc 1 173 3 view .LVU41
 138              	.LBB26:
 139              	.LBI26:
 140              		.file 3 "../../../os/oslib/include/chlib.h"
 141              		.loc 3 256 20 view .LVU42
 142              	.LBB27:
 143              		.loc 3 259 3 view .LVU43
 144 0070 E8FCFFFF 		call	__core_init@PLT
 144      FF
 145              	.LVL9:
 146              		.loc 3 262 3 view .LVU44
 147 0075 E8FCFFFF 		call	__heap_init@PLT
 147      FF
 148              	.LVL10:
 149              		.loc 3 265 3 view .LVU45
 150 007a E8FCFFFF 		call	__factory_init@PLT
 150      FF
 151              	.LVL11:
GAS LISTING /tmp/ccgNg7u5.s 			page 4


 152              	.LBE27:
 153              	.LBE26:
 154              		.loc 1 176 3 view .LVU46
 155 007f 83EC08   		subl	$8, %esp
 156              		.cfi_def_cfa_offset 56
 157 0082 8D830000 		leal	ch_core0_cfg@GOTOFF(%ebx), %eax
 157      0000
 158 0088 50       		pushl	%eax
 159              		.cfi_def_cfa_offset 60
 160 0089 8D830000 		leal	ch0@GOTOFF(%ebx), %eax
 160      0000
 161 008f 50       		pushl	%eax
 162              		.cfi_def_cfa_offset 64
 163 0090 E8FCFFFF 		call	chInstanceObjectInit@PLT
 163      FF
 164              	.LVL12:
 165              		.loc 1 179 3 view .LVU47
 166              	.LBB28:
 167              	.LBB29:
 168              	.LBB30:
 169              	.LBB31:
 170              		.file 4 "../../../os/common/ports/SIMIA32/chcore.h"
 171              		.loc 4 372 16 is_stmt 0 view .LVU48
 172 0095 8B830000 		movl	port_irq_sts@GOT(%ebx), %eax
 172      0000
 173              	.LBE31:
 174              	.LBE30:
 175              	.LBE29:
 176              	.LBE28:
 177              		.loc 1 181 1 view .LVU49
 178 009b 83C410   		addl	$16, %esp
 179              		.cfi_def_cfa_offset 48
 180              		.loc 1 179 19 view .LVU50
 181 009e C7830000 		movl	$2, ch_system@GOTOFF(%ebx)
 181      00000200 
 181      0000
 182              		.loc 1 180 3 is_stmt 1 view .LVU51
 183              	.LBB35:
 184              	.LBI28:
 185              		.file 5 "../../../os/rt/include/chsys.h"
 186              		.loc 5 421 20 view .LVU52
 187              	.LBB34:
 188              		.loc 5 423 23 view .LVU53
 189              		.loc 5 424 34 view .LVU54
 190              		.loc 5 430 3 view .LVU55
 191              		.loc 5 430 3 view .LVU56
 192              		.loc 5 430 3 view .LVU57
 193              		.loc 5 434 3 view .LVU58
 194              	.LBB33:
 195              	.LBI30:
 196              		.loc 4 370 20 view .LVU59
 197              	.LBB32:
 198              		.loc 4 372 3 view .LVU60
 199              		.loc 4 372 16 is_stmt 0 view .LVU61
 200 00a8 C7000000 		movl	$0, (%eax)
 200      0000
 201              	.LBE32:
GAS LISTING /tmp/ccgNg7u5.s 			page 5


 202              	.LBE33:
 203              	.LBE34:
 204              	.LBE35:
 205              		.loc 1 181 1 view .LVU62
 206 00ae 8B44241C 		movl	28(%esp), %eax
 207 00b2 652B0514 		subl	%gs:20, %eax
 207      000000
 208 00b9 7507     		jne	.L10
 209 00bb 83C420   		addl	$32, %esp
 210              		.cfi_remember_state
 211              		.cfi_def_cfa_offset 16
 212 00be 5B       		popl	%ebx
 213              		.cfi_restore 3
 214              		.cfi_def_cfa_offset 12
 215 00bf 5E       		popl	%esi
 216              		.cfi_restore 6
 217              		.cfi_def_cfa_offset 8
 218 00c0 5F       		popl	%edi
 219              		.cfi_restore 7
 220              		.cfi_def_cfa_offset 4
 221 00c1 C3       		ret
 222              	.L10:
 223              		.cfi_restore_state
 224 00c2 E8FCFFFF 		call	__stack_chk_fail_local
 224      FF
 225              	.LVL13:
 226              		.cfi_endproc
 227              	.LFE204:
 228              		.size	chSysInit, .-chSysInit
 229              		.section	.text.chSysHalt,"ax",@progbits
 230              		.p2align 4
 231              		.globl	chSysHalt
 232              		.type	chSysHalt, @function
 233              	chSysHalt:
 234              	.LVL14:
 235              	.LFB205:
 236              		.loc 1 195 36 is_stmt 1 view -0
 237              		.cfi_startproc
 238              		.loc 1 197 3 view .LVU64
 239              	.LBB36:
 240              	.LBI36:
 241              		.loc 4 398 20 view .LVU65
 242              	.LBB37:
 243              		.loc 4 400 3 view .LVU66
 244 0000 E8FCFFFF 		call	__x86.get_pc_thunk.ax
 244      FF
 245 0005 05010000 		addl	$_GLOBAL_OFFSET_TABLE_, %eax
 245      00
 246              	.LBE37:
 247              	.LBE36:
 248              		.loc 1 215 19 is_stmt 0 view .LVU67
 249 000a C7800000 		movl	$3, ch_system@GOTOFF(%eax)
 249      00000300 
 249      0000
 250              	.LBB39:
 251              	.LBB38:
 252              		.loc 4 400 16 view .LVU68
GAS LISTING /tmp/ccgNg7u5.s 			page 6


 253 0014 8B900000 		movl	port_irq_sts@GOT(%eax), %edx
 253      0000
 254 001a C7020100 		movl	$1, (%edx)
 254      0000
 255              	.LBE38:
 256              	.LBE39:
 257              		.loc 1 200 23 is_stmt 1 view .LVU69
 258              		.loc 1 203 3 view .LVU70
 259              		.loc 1 203 27 is_stmt 0 view .LVU71
 260 0020 8B542404 		movl	4(%esp), %edx
 261 0024 8990DC00 		movl	%edx, 220+ch0@GOTOFF(%eax)
 261      0000
 262              		.loc 1 206 3 is_stmt 1 view .LVU72
 263              		.loc 1 206 34 view .LVU73
 264              		.loc 1 215 3 view .LVU74
 265              	.L12:
 266              		.loc 1 218 3 discriminator 1 view .LVU75
 267              		.loc 1 219 3 discriminator 1 view .LVU76
 268              		.loc 1 218 9 discriminator 1 view .LVU77
 269              		.loc 1 218 3 discriminator 1 view .LVU78
 270              		.loc 1 219 3 discriminator 1 view .LVU79
 271              		.loc 1 218 9 discriminator 1 view .LVU80
 272 002a EBFE     		jmp	.L12
 273              		.cfi_endproc
 274              	.LFE205:
 275              		.size	chSysHalt, .-chSysHalt
 276              		.section	.text.chSysGetIdleThreadX,"ax",@progbits
 277              		.p2align 4
 278              		.globl	chSysGetIdleThreadX
 279              		.type	chSysGetIdleThreadX, @function
 280              	chSysGetIdleThreadX:
 281              	.LFB206:
 282              		.loc 1 234 37 view -0
 283              		.cfi_startproc
 284              		.loc 1 235 3 view .LVU82
 285              	.LVL15:
 286              		.loc 1 237 3 view .LVU83
 287              		.loc 1 237 3 view .LVU84
 288              		.loc 1 237 3 view .LVU85
 289              		.loc 1 239 3 view .LVU86
 290 0000 E8FCFFFF 		call	__x86.get_pc_thunk.ax
 290      FF
 291 0005 05010000 		addl	$_GLOBAL_OFFSET_TABLE_, %eax
 291      00
 292              		.loc 1 239 10 is_stmt 0 view .LVU87
 293 000a 8B800400 		movl	4+ch0@GOTOFF(%eax), %eax
 293      0000
 294              		.loc 1 240 1 view .LVU88
 295 0010 C3       		ret
 296              		.cfi_endproc
 297              	.LFE206:
 298              		.size	chSysGetIdleThreadX, .-chSysGetIdleThreadX
 299              		.section	.text.chSysIntegrityCheckI,"ax",@progbits
 300              		.p2align 4
 301              		.globl	chSysIntegrityCheckI
 302              		.type	chSysIntegrityCheckI, @function
 303              	chSysIntegrityCheckI:
GAS LISTING /tmp/ccgNg7u5.s 			page 7


 304              	.LVL16:
 305              	.LFB207:
 306              		.loc 1 266 46 is_stmt 1 view -0
 307              		.cfi_startproc
 308              		.loc 1 267 3 view .LVU90
 309              		.loc 1 268 3 view .LVU91
 310              		.loc 1 270 21 view .LVU92
 311              		.loc 1 273 3 view .LVU93
 312              		.loc 1 266 46 is_stmt 0 view .LVU94
 313 0000 57       		pushl	%edi
 314              		.cfi_def_cfa_offset 8
 315              		.cfi_offset 7, -8
 316 0001 56       		pushl	%esi
 317              		.cfi_def_cfa_offset 12
 318              		.cfi_offset 6, -12
 319 0002 53       		pushl	%ebx
 320              		.cfi_def_cfa_offset 16
 321              		.cfi_offset 3, -16
 322              		.loc 1 266 46 view .LVU95
 323 0003 8B742410 		movl	16(%esp), %esi
 324 0007 E8FCFFFF 		call	__x86.get_pc_thunk.bx
 324      FF
 325 000c 81C30200 		addl	$_GLOBAL_OFFSET_TABLE_, %ebx
 325      0000
 326              		.loc 1 273 6 view .LVU96
 327 0012 F7C60100 		testl	$1, %esi
 327      0000
 328 0018 7455     		je	.L15
 329              	.LBB40:
 330              		.loc 1 274 5 is_stmt 1 view .LVU97
 331              		.loc 1 277 5 view .LVU98
 332              	.LVL17:
 333              		.loc 1 278 5 view .LVU99
 334              		.loc 1 278 9 is_stmt 0 view .LVU100
 335 001a 8B930000 		movl	ch0@GOTOFF(%ebx), %edx
 335      0000
 336              	.LVL18:
 337              		.loc 1 279 5 is_stmt 1 view .LVU101
 338              		.loc 1 279 16 view .LVU102
 339 0020 8DBB0000 		leal	ch0@GOTOFF(%ebx), %edi
 339      0000
 340              		.loc 1 285 9 is_stmt 0 view .LVU103
 341 0026 8B8B0400 		movl	4+ch0@GOTOFF(%ebx), %ecx
 341      0000
 342              		.loc 1 277 7 view .LVU104
 343 002c 31C0     		xorl	%eax, %eax
 344              		.loc 1 279 16 view .LVU105
 345 002e 39FA     		cmpl	%edi, %edx
 346 0030 0F84D200 		je	.L16
 346      0000
 347              	.LVL19:
 348 0036 8DB42600 		.p2align 4,,10
 348      0000008D 
 348      7600
 349              		.p2align 3
 350              	.L17:
 351              		.loc 1 280 7 is_stmt 1 view .LVU106
GAS LISTING /tmp/ccgNg7u5.s 			page 8


 352              		.loc 1 281 11 is_stmt 0 view .LVU107
 353 0040 8B12     		movl	(%edx), %edx
 354              	.LVL20:
 355              		.loc 1 280 8 view .LVU108
 356 0042 83C001   		addl	$1, %eax
 357              	.LVL21:
 358              		.loc 1 281 7 is_stmt 1 view .LVU109
 359              		.loc 1 279 16 view .LVU110
 360 0045 39FA     		cmpl	%edi, %edx
 361 0047 75F7     		jne	.L17
 362              		.loc 1 285 5 view .LVU111
 363              	.LVL22:
 364              		.loc 1 286 5 view .LVU112
 365              		.loc 1 286 16 view .LVU113
 366 0049 39D1     		cmpl	%edx, %ecx
 367 004b 0F84C700 		je	.L36
 367      0000
 368              	.LVL23:
 369              		.p2align 4,,10
 370 0051 8DB42600 		.p2align 3
 370      000000
 371              	.L21:
 372              		.loc 1 287 7 view .LVU114
 373              		.loc 1 288 11 is_stmt 0 view .LVU115
 374 0058 8B4904   		movl	4(%ecx), %ecx
 375              	.LVL24:
 376              		.loc 1 287 8 view .LVU116
 377 005b 83E801   		subl	$1, %eax
 378              	.LVL25:
 379              		.loc 1 288 7 is_stmt 1 view .LVU117
 380              		.loc 1 286 16 view .LVU118
 381 005e 39F9     		cmpl	%edi, %ecx
 382 0060 75F6     		jne	.L21
 383              		.loc 1 292 5 view .LVU119
 384              		.loc 1 293 14 is_stmt 0 view .LVU120
 385 0062 BA010000 		movl	$1, %edx
 385      00
 386              		.loc 1 292 8 view .LVU121
 387 0067 85C0     		testl	%eax, %eax
 388 0069 0F859000 		jne	.L14
 388      0000
 389              	.LVL26:
 390              	.L15:
 391              		.loc 1 292 8 view .LVU122
 392              	.LBE40:
 393              		.loc 1 298 3 is_stmt 1 view .LVU123
 394              		.loc 1 298 6 is_stmt 0 view .LVU124
 395 006f F7C60200 		testl	$2, %esi
 395      0000
 396 0075 7444     		je	.L22
 397              	.LBB41:
 398              		.loc 1 299 5 is_stmt 1 view .LVU125
 399              		.loc 1 302 5 view .LVU126
 400              	.LVL27:
 401              		.loc 1 303 5 view .LVU127
 402              		.loc 1 303 9 is_stmt 0 view .LVU128
 403 0077 8B931000 		movl	16+ch0@GOTOFF(%ebx), %edx
GAS LISTING /tmp/ccgNg7u5.s 			page 9


 403      0000
 404              	.LVL28:
 405              		.loc 1 304 5 is_stmt 1 view .LVU129
 406              		.loc 1 304 16 view .LVU130
 407 007d 8DBB1000 		leal	16+ch0@GOTOFF(%ebx), %edi
 407      0000
 408              		.loc 1 310 9 is_stmt 0 view .LVU131
 409 0083 8B8B1400 		movl	20+ch0@GOTOFF(%ebx), %ecx
 409      0000
 410              		.loc 1 302 7 view .LVU132
 411 0089 31C0     		xorl	%eax, %eax
 412              		.loc 1 304 16 view .LVU133
 413 008b 39FA     		cmpl	%edi, %edx
 414 008d 0F848D00 		je	.L23
 414      0000
 415              	.LVL29:
 416              		.p2align 4,,10
 417 0093 8D742600 		.p2align 3
 417      90
 418              	.L24:
 419              		.loc 1 305 7 is_stmt 1 view .LVU134
 420              		.loc 1 306 11 is_stmt 0 view .LVU135
 421 0098 8B12     		movl	(%edx), %edx
 422              	.LVL30:
 423              		.loc 1 305 8 view .LVU136
 424 009a 83C001   		addl	$1, %eax
 425              	.LVL31:
 426              		.loc 1 306 7 is_stmt 1 view .LVU137
 427              		.loc 1 304 16 view .LVU138
 428 009d 39FA     		cmpl	%edi, %edx
 429 009f 75F7     		jne	.L24
 430              		.loc 1 310 5 view .LVU139
 431              	.LVL32:
 432              		.loc 1 311 5 view .LVU140
 433              		.loc 1 311 16 view .LVU141
 434 00a1 39D1     		cmpl	%edx, %ecx
 435 00a3 7473     		je	.L36
 436              	.LVL33:
 437              		.p2align 4,,10
 438 00a5 8D7600   		.p2align 3
 439              	.L27:
 440              		.loc 1 312 7 view .LVU142
 441              		.loc 1 313 11 is_stmt 0 view .LVU143
 442 00a8 8B4904   		movl	4(%ecx), %ecx
 443              	.LVL34:
 444              		.loc 1 312 8 view .LVU144
 445 00ab 83E801   		subl	$1, %eax
 446              	.LVL35:
 447              		.loc 1 313 7 is_stmt 1 view .LVU145
 448              		.loc 1 311 16 view .LVU146
 449 00ae 39F9     		cmpl	%edi, %ecx
 450 00b0 75F6     		jne	.L27
 451              		.loc 1 317 5 view .LVU147
 452              	.LBE41:
 453              	.LBB42:
 454              		.loc 1 293 14 is_stmt 0 view .LVU148
 455 00b2 BA010000 		movl	$1, %edx
GAS LISTING /tmp/ccgNg7u5.s 			page 10


 455      00
 456              	.LBE42:
 457              	.LBB43:
 458              		.loc 1 317 8 view .LVU149
 459 00b7 85C0     		testl	%eax, %eax
 460 00b9 7544     		jne	.L14
 461              	.LVL36:
 462              	.L22:
 463              		.loc 1 317 8 view .LVU150
 464              	.LBE43:
 465              		.loc 1 323 3 is_stmt 1 view .LVU151
 466              		.loc 1 358 10 is_stmt 0 view .LVU152
 467 00bb 31D2     		xorl	%edx, %edx
 468              		.loc 1 323 6 view .LVU153
 469 00bd 83E604   		andl	$4, %esi
 470 00c0 743D     		je	.L14
 471              	.LBB44:
 472              		.loc 1 324 5 is_stmt 1 view .LVU154
 473              		.loc 1 328 5 view .LVU155
 474              	.LVL37:
 475              		.loc 1 331 5 view .LVU156
 476              		.loc 1 332 5 view .LVU157
 477              		.loc 1 332 8 is_stmt 0 view .LVU158
 478 00c2 8B932800 		movl	40+ch0@GOTOFF(%ebx), %edx
 478      0000
 479              	.LVL38:
 480              		.loc 1 333 5 is_stmt 1 view .LVU159
 481              		.loc 1 333 15 view .LVU160
 482 00c8 8D8B2800 		leal	40+ch0@GOTOFF(%ebx), %ecx
 482      0000
 483              		.loc 1 331 7 is_stmt 0 view .LVU161
 484 00ce 31C0     		xorl	%eax, %eax
 485              		.loc 1 333 15 view .LVU162
 486 00d0 39CA     		cmpl	%ecx, %edx
 487 00d2 740D     		je	.L28
 488              	.LVL39:
 489              		.p2align 4,,10
 490 00d4 8D742600 		.p2align 3
 491              	.L29:
 492              		.loc 1 334 7 is_stmt 1 view .LVU163
 493              		.loc 1 335 10 is_stmt 0 view .LVU164
 494 00d8 8B12     		movl	(%edx), %edx
 495              	.LVL40:
 496              		.loc 1 334 8 view .LVU165
 497 00da 83C001   		addl	$1, %eax
 498              	.LVL41:
 499              		.loc 1 335 7 is_stmt 1 view .LVU166
 500              		.loc 1 333 15 view .LVU167
 501 00dd 39CA     		cmpl	%ecx, %edx
 502 00df 75F7     		jne	.L29
 503              	.LVL42:
 504              	.L28:
 505              		.loc 1 339 5 view .LVU168
 506              		.loc 1 339 8 is_stmt 0 view .LVU169
 507 00e1 8B932C00 		movl	44+ch0@GOTOFF(%ebx), %edx
 507      0000
 508              	.LVL43:
GAS LISTING /tmp/ccgNg7u5.s 			page 11


 509              		.loc 1 340 5 is_stmt 1 view .LVU170
 510              		.loc 1 340 15 view .LVU171
 511 00e7 39CA     		cmpl	%ecx, %edx
 512 00e9 740F     		je	.L30
 513 00eb 8D742600 		.p2align 4,,10
 513      90
 514              		.p2align 3
 515              	.L31:
 516              		.loc 1 341 7 view .LVU172
 517              		.loc 1 342 10 is_stmt 0 view .LVU173
 518 00f0 8B5204   		movl	4(%edx), %edx
 519              	.LVL44:
 520              		.loc 1 341 8 view .LVU174
 521 00f3 83E801   		subl	$1, %eax
 522              	.LVL45:
 523              		.loc 1 342 7 is_stmt 1 view .LVU175
 524              		.loc 1 340 15 view .LVU176
 525 00f6 39CA     		cmpl	%ecx, %edx
 526 00f8 75F6     		jne	.L31
 527              	.L30:
 528              		.loc 1 346 5 view .LVU177
 529              		.loc 1 346 8 is_stmt 0 view .LVU178
 530 00fa 85C0     		testl	%eax, %eax
 531 00fc 0F95C2   		setne	%dl
 532              	.LVL46:
 533              	.L14:
 534              		.loc 1 346 8 view .LVU179
 535              	.LBE44:
 536              		.loc 1 359 1 view .LVU180
 537 00ff 5B       		popl	%ebx
 538              		.cfi_remember_state
 539              		.cfi_restore 3
 540              		.cfi_def_cfa_offset 12
 541 0100 89D0     		movl	%edx, %eax
 542 0102 5E       		popl	%esi
 543              		.cfi_restore 6
 544              		.cfi_def_cfa_offset 8
 545 0103 5F       		popl	%edi
 546              		.cfi_restore 7
 547              		.cfi_def_cfa_offset 4
 548 0104 C3       		ret
 549              	.LVL47:
 550              		.p2align 4,,10
 551 0105 8D7600   		.p2align 3
 552              	.L16:
 553              		.cfi_restore_state
 554              	.LBB45:
 555              		.loc 1 285 5 is_stmt 1 view .LVU181
 556              		.loc 1 286 5 view .LVU182
 557              		.loc 1 286 16 view .LVU183
 558 0108 39F9     		cmpl	%edi, %ecx
 559 010a 0F8548FF 		jne	.L21
 559      FFFF
 560 0110 E95AFFFF 		jmp	.L15
 560      FF
 561              	.LVL48:
 562              		.p2align 4,,10
GAS LISTING /tmp/ccgNg7u5.s 			page 12


 563 0115 8D7600   		.p2align 3
 564              	.L36:
 565              		.loc 1 293 14 is_stmt 0 view .LVU184
 566 0118 BA010000 		movl	$1, %edx
 566      00
 567 011d EBE0     		jmp	.L14
 568              	.LVL49:
 569 011f 90       		.p2align 4,,10
 570              		.p2align 3
 571              	.L23:
 572              		.loc 1 293 14 view .LVU185
 573              	.LBE45:
 574              	.LBB46:
 575              		.loc 1 310 5 is_stmt 1 view .LVU186
 576              		.loc 1 311 5 view .LVU187
 577              		.loc 1 311 16 view .LVU188
 578 0120 39F9     		cmpl	%edi, %ecx
 579 0122 0F8580FF 		jne	.L27
 579      FFFF
 580 0128 EB91     		jmp	.L22
 581              	.LBE46:
 582              		.cfi_endproc
 583              	.LFE207:
 584              		.size	chSysIntegrityCheckI, .-chSysIntegrityCheckI
 585              		.section	.text.chSysTimerHandlerI,"ax",@progbits
 586              		.p2align 4
 587              		.globl	chSysTimerHandlerI
 588              		.type	chSysTimerHandlerI, @function
 589              	chSysTimerHandlerI:
 590              	.LFB208:
 591              		.loc 1 372 31 view -0
 592              		.cfi_startproc
 593              		.loc 1 377 21 view .LVU190
 594              		.loc 1 389 3 view .LVU191
 595              		.loc 1 372 31 is_stmt 0 view .LVU192
 596 0000 53       		pushl	%ebx
 597              		.cfi_def_cfa_offset 8
 598              		.cfi_offset 3, -8
 599 0001 E8FCFFFF 		call	__x86.get_pc_thunk.bx
 599      FF
 600 0006 81C30200 		addl	$_GLOBAL_OFFSET_TABLE_, %ebx
 600      0000
 601 000c 83EC08   		subl	$8, %esp
 602              		.cfi_def_cfa_offset 16
 603              		.loc 1 389 3 view .LVU193
 604 000f E8FCFFFF 		call	chVTDoTickI@PLT
 604      FF
 605              	.LVL50:
 606              		.loc 1 390 3 is_stmt 1 view .LVU194
 607              		.loc 1 390 28 view .LVU195
 608              		.loc 1 391 1 is_stmt 0 view .LVU196
 609 0014 83C408   		addl	$8, %esp
 610              		.cfi_def_cfa_offset 8
 611 0017 5B       		popl	%ebx
 612              		.cfi_restore 3
 613              		.cfi_def_cfa_offset 4
 614 0018 C3       		ret
GAS LISTING /tmp/ccgNg7u5.s 			page 13


 615              		.cfi_endproc
 616              	.LFE208:
 617              		.size	chSysTimerHandlerI, .-chSysTimerHandlerI
 618              		.section	.text.chSysIsCounterWithinX,"ax",@progbits
 619              		.p2align 4
 620              		.globl	chSysIsCounterWithinX
 621              		.type	chSysIsCounterWithinX, @function
 622              	chSysIsCounterWithinX:
 623              	.LVL51:
 624              	.LFB209:
 625              		.loc 1 467 69 is_stmt 1 view -0
 626              		.cfi_startproc
 627              		.loc 1 469 3 view .LVU198
 628              		.loc 1 469 31 is_stmt 0 view .LVU199
 629 0000 8B542404 		movl	4(%esp), %edx
 630              		.loc 1 470 31 view .LVU200
 631 0004 8B44240C 		movl	12(%esp), %eax
 632              		.loc 1 469 31 view .LVU201
 633 0008 2B542408 		subl	8(%esp), %edx
 634              		.loc 1 470 31 view .LVU202
 635 000c 2B442408 		subl	8(%esp), %eax
 636              		.loc 1 469 10 view .LVU203
 637 0010 39C2     		cmpl	%eax, %edx
 638 0012 0F92C0   		setb	%al
 639              		.loc 1 471 1 view .LVU204
 640 0015 C3       		ret
 641              		.cfi_endproc
 642              	.LFE209:
 643              		.size	chSysIsCounterWithinX, .-chSysIsCounterWithinX
 644              		.section	.text.chSysPolledDelayX,"ax",@progbits
 645              		.p2align 4
 646              		.globl	chSysPolledDelayX
 647              		.type	chSysPolledDelayX, @function
 648              	chSysPolledDelayX:
 649              	.LVL52:
 650              	.LFB210:
 651              		.loc 1 484 40 is_stmt 1 view -0
 652              		.cfi_startproc
 653              		.loc 1 485 3 view .LVU206
 654              		.loc 1 484 40 is_stmt 0 view .LVU207
 655 0000 57       		pushl	%edi
 656              		.cfi_def_cfa_offset 8
 657              		.cfi_offset 7, -8
 658 0001 56       		pushl	%esi
 659              		.cfi_def_cfa_offset 12
 660              		.cfi_offset 6, -12
 661 0002 53       		pushl	%ebx
 662              		.cfi_def_cfa_offset 16
 663              		.cfi_offset 3, -16
 664              		.loc 1 484 40 view .LVU208
 665 0003 8B7C2410 		movl	16(%esp), %edi
 666 0007 E8FCFFFF 		call	__x86.get_pc_thunk.bx
 666      FF
 667 000c 81C30200 		addl	$_GLOBAL_OFFSET_TABLE_, %ebx
 667      0000
 668              		.loc 1 485 19 view .LVU209
 669 0012 E8FCFFFF 		call	port_rt_get_counter_value@PLT
GAS LISTING /tmp/ccgNg7u5.s 			page 14


 669      FF
 670              	.LVL53:
 671 0017 89C6     		movl	%eax, %esi
 672              	.LVL54:
 673              		.loc 1 486 3 is_stmt 1 view .LVU210
 674              		.loc 1 488 3 view .LVU211
 675 0019 8DB42600 		.p2align 4,,10
 675      000000
 676              		.p2align 3
 677              	.L60:
 678              		.loc 1 489 3 discriminator 1 view .LVU212
 679              		.loc 1 488 10 discriminator 1 view .LVU213
 680              		.loc 1 488 32 is_stmt 0 discriminator 1 view .LVU214
 681 0020 E8FCFFFF 		call	port_rt_get_counter_value@PLT
 681      FF
 682              	.LVL55:
 683              	.LBB47:
 684              	.LBI47:
 685              		.loc 1 467 6 is_stmt 1 discriminator 1 view .LVU215
 686              	.LBB48:
 687              		.loc 1 469 3 discriminator 1 view .LVU216
 688              		.loc 1 469 31 is_stmt 0 discriminator 1 view .LVU217
 689 0025 29F0     		subl	%esi, %eax
 690              	.LBE48:
 691              	.LBE47:
 692              		.loc 1 488 10 discriminator 1 view .LVU218
 693 0027 39C7     		cmpl	%eax, %edi
 694 0029 77F5     		ja	.L60
 695              		.loc 1 490 1 view .LVU219
 696 002b 5B       		popl	%ebx
 697              		.cfi_restore 3
 698              		.cfi_def_cfa_offset 12
 699 002c 5E       		popl	%esi
 700              		.cfi_restore 6
 701              		.cfi_def_cfa_offset 8
 702              	.LVL56:
 703              		.loc 1 490 1 view .LVU220
 704 002d 5F       		popl	%edi
 705              		.cfi_restore 7
 706              		.cfi_def_cfa_offset 4
 707 002e C3       		ret
 708              		.cfi_endproc
 709              	.LFE210:
 710              		.size	chSysPolledDelayX, .-chSysPolledDelayX
 711              		.globl	ch_core0_cfg
 712              		.section	.rodata.str1.1,"aMS",@progbits,1
 713              	.LC0:
 714 0000 633000   		.string	"c0"
 715              		.section	.data.rel.ro.ch_core0_cfg,"aw"
 716              		.align 4
 717              		.type	ch_core0_cfg, @object
 718              		.size	ch_core0_cfg, 20
 719              	ch_core0_cfg:
 720 0000 00000000 		.long	.LC0
 721 0004 00000000 		.long	__main_thread_stack_base__
 722 0008 00000000 		.long	__main_thread_stack_end__
 723 000c 00000000 		.long	ch_c0_idle_thread_wa
GAS LISTING /tmp/ccgNg7u5.s 			page 15


 724 0010 30410000 		.long	ch_c0_idle_thread_wa+16688
 725              		.section	.bss.ch_c0_idle_thread_wa,"aw",@nobits
 726              		.align 16
 727              		.type	ch_c0_idle_thread_wa, @object
 728              		.size	ch_c0_idle_thread_wa, 16688
 729              	ch_c0_idle_thread_wa:
 730 0000 00000000 		.zero	16688
 730      00000000 
 730      00000000 
 730      00000000 
 730      00000000 
 731              		.globl	ch0
 732              		.section	.bss.ch0,"aw",@nobits
 733              		.align 32
 734              		.type	ch0, @object
 735              		.size	ch0, 224
 736              	ch0:
 737 0000 00000000 		.zero	224
 737      00000000 
 737      00000000 
 737      00000000 
 737      00000000 
 738              		.globl	ch_system
 739              		.section	.bss.ch_system,"aw",@nobits
 740              		.align 4
 741              		.type	ch_system, @object
 742              		.size	ch_system, 12
 743              	ch_system:
 744 0000 00000000 		.zero	12
 744      00000000 
 744      00000000 
 745              		.section	.text.__x86.get_pc_thunk.ax,"axG",@progbits,__x86.get_pc_thunk.ax,comdat
 746              		.globl	__x86.get_pc_thunk.ax
 747              		.hidden	__x86.get_pc_thunk.ax
 748              		.type	__x86.get_pc_thunk.ax, @function
 749              	__x86.get_pc_thunk.ax:
 750              	.LFB212:
 751              		.cfi_startproc
 752 0000 8B0424   		movl	(%esp), %eax
 753 0003 C3       		ret
 754              		.cfi_endproc
 755              	.LFE212:
 756              		.section	.text.__x86.get_pc_thunk.bx,"axG",@progbits,__x86.get_pc_thunk.bx,comdat
 757              		.globl	__x86.get_pc_thunk.bx
 758              		.hidden	__x86.get_pc_thunk.bx
 759              		.type	__x86.get_pc_thunk.bx, @function
 760              	__x86.get_pc_thunk.bx:
 761              	.LFB213:
 762              		.cfi_startproc
 763 0000 8B1C24   		movl	(%esp), %ebx
 764 0003 C3       		ret
 765              		.cfi_endproc
 766              	.LFE213:
 767              		.text
 768              	.Letext0:
 769              		.file 6 "/usr/lib/gcc/x86_64-linux-gnu/11/include/stddef.h"
 770              		.file 7 "/usr/include/bits/types.h"
GAS LISTING /tmp/ccgNg7u5.s 			page 16


 771              		.file 8 "/usr/include/bits/stdint-intn.h"
 772              		.file 9 "/usr/include/bits/stdint-uintn.h"
 773              		.file 10 "../../../os/common/ports/SIMIA32/compilers/GCC/chtypes.h"
 774              		.file 11 "../../../os/rt/include/chearly.h"
 775              		.file 12 "../../../os/rt/include/chobjects.h"
 776              		.file 13 "../../../os/rt/include/chrfcu.h"
 777              		.file 14 "../../../os/rt/include/chdebug.h"
 778              		.file 15 "../../../os/rt/include/chtime.h"
 779              		.file 16 "../../../os/rt/include/chlists.h"
 780              		.file 17 "../../../os/rt/include/chsem.h"
 781              		.file 18 "../../../os/rt/include/chmtx.h"
 782              		.file 19 "../../../os/rt/include/chvt.h"
 783              		.file 20 "../../../os/oslib/include/chfactory.h"
 784              		.file 21 "../../../os/oslib/include/chmemheaps.h"
 785              		.file 22 "../../../os/oslib/include/chmemcore.h"
 786              		.file 23 "../../../os/rt/include/chinstances.h"
 4509 0041 2F686F6D 		.section	.note.GNU-stack,"",@progbits
 4509      652F616C 
 4509      65782F43 
 4509      68696269 
 4509      4F532F64 
GAS LISTING /tmp/ccgNg7u5.s 			page 89

