GAS LISTING /tmp/ccgNg7u5.s 			page 1


   1              		.file	"chsys.c"
   2              		.text
   3              	.Ltext0:
   4              		.file 0 "/home/alex/ChibiOS/demos/various/LAB3" "../../../os/rt/src/chsys.c"
   5              		.section	.text.chSysWaitSystemState,"ax",@progbits
   6              		.p2align 4
   7              		.globl	chSysWaitSystemState
   8              		.type	chSysWaitSystemState, @function
   9              	chSysWaitSystemState:
  10              	.LVL0:
  11              	.LFB203:
  12              		.file 1 "../../../os/rt/src/chsys.c"
  13              		.loc 1 128 49 view -0
  14              		.cfi_startproc
  15              		.loc 1 130 3 view .LVU1
  16 0000 E8FCFFFF 		call	__x86.get_pc_thunk.ax
  16      FF
  17 0005 05010000 		addl	$_GLOBAL_OFFSET_TABLE_, %eax
  17      00
  18              		.loc 1 128 49 is_stmt 0 view .LVU2
  19 000a 8B542404 		movl	4(%esp), %edx
  20              		.loc 1 130 19 view .LVU3
  21 000e 8B800000 		movl	ch_system@GOTOFF(%eax), %eax
  21      0000
  22              		.p2align 4,,10
  23 0014 8D742600 		.p2align 3
  24              	.L2:
  25              		.loc 1 131 3 is_stmt 1 discriminator 1 view .LVU4
  26              		.loc 1 130 26 discriminator 1 view .LVU5
  27 0018 39D0     		cmpl	%edx, %eax
  28 001a 75FC     		jne	.L2
  29              		.loc 1 132 1 is_stmt 0 view .LVU6
  30 001c C3       		ret
  31              		.cfi_endproc
  32              	.LFE203:
  33              		.size	chSysWaitSystemState, .-chSysWaitSystemState
  34              		.section	.text.chSysInit,"ax",@progbits
  35              		.p2align 4
  36              		.globl	chSysInit
  37              		.type	chSysInit, @function
  38              	chSysInit:
  39              	.LFB204:
  40              		.loc 1 145 22 is_stmt 1 view -0
  41              		.cfi_startproc
  42 0000 57       		pushl	%edi
  43              		.cfi_def_cfa_offset 8
  44              		.cfi_offset 7, -8
  45 0001 56       		pushl	%esi
  46              		.cfi_def_cfa_offset 12
  47              		.cfi_offset 6, -12
  48              	.LBB20:
  49              	.LBB21:
  50              		.file 2 "../../../os/rt/include/chtm.h"
  51              		.loc 2 128 3 is_stmt 0 view .LVU8
  52 0002 BE040000 		movl	$4, %esi
  52      00
  53              	.LBE21:
GAS LISTING /tmp/ccgNg7u5.s 			page 2


  54              	.LBE20:
  55              		.loc 1 145 22 view .LVU9
  56 0007 53       		pushl	%ebx
  57              		.cfi_def_cfa_offset 16
  58              		.cfi_offset 3, -16
  59 0008 E8FCFFFF 		call	__x86.get_pc_thunk.bx
  59      FF
  60 000d 81C30200 		addl	$_GLOBAL_OFFSET_TABLE_, %ebx
  60      0000
  61 0013 83EC2C   		subl	$44, %esp
  62              		.cfi_def_cfa_offset 60
  63              		.loc 1 145 22 view .LVU10
  64 0016 65A11400 		movl	%gs:20, %eax
  64      0000
  65 001c 89442428 		movl	%eax, 40(%esp)
  66 0020 31C0     		xorl	%eax, %eax
  67              		.loc 1 146 3 is_stmt 1 view .LVU11
  68              		.loc 1 149 3 view .LVU12
  69              	.LBB24:
  70              	.LBB22:
  71              		.loc 2 128 3 is_stmt 0 view .LVU13
  72 0022 8D7C2410 		leal	16(%esp), %edi
  73 0026 57       		pushl	%edi
  74              		.cfi_def_cfa_offset 64
  75              	.LBE22:
  76              	.LBE24:
  77              		.loc 1 149 19 view .LVU14
  78 0027 C7830000 		movl	$1, ch_system@GOTOFF(%ebx)
  78      00000100 
  78      0000
  79              		.loc 1 150 3 is_stmt 1 view .LVU15
  80              	.LVL1:
  81              		.loc 1 150 18 view .LVU16
  82              		.loc 1 151 5 view .LVU17
  83              		.loc 1 151 28 is_stmt 0 view .LVU18
  84 0031 C7830400 		movl	$0, 4+ch_system@GOTOFF(%ebx)
  84      00000000 
  84      0000
  85              		.loc 1 150 50 is_stmt 1 view .LVU19
  86              	.LVL2:
  87              		.loc 1 150 18 view .LVU20
  88              		.loc 1 156 3 view .LVU21
  89              	.LBB25:
  90              	.LBI20:
  91              		.loc 2 120 20 view .LVU22
  92              	.LBB23:
  93              		.loc 2 121 3 view .LVU23
  94              		.loc 2 122 3 view .LVU24
  95              		.loc 2 127 3 view .LVU25
  96              		.loc 2 127 15 is_stmt 0 view .LVU26
  97 003b C7830800 		movl	$0, 8+ch_system@GOTOFF(%ebx)
  97      00000000 
  97      0000
  98              		.loc 2 128 3 is_stmt 1 view .LVU27
  99 0045 E8FCFFFF 		call	chTMObjectInit@PLT
  99      FF
 100              	.LVL3:
GAS LISTING /tmp/ccgNg7u5.s 			page 3


 101              		.loc 2 129 3 view .LVU28
 102              		.loc 2 128 3 is_stmt 0 view .LVU29
 103 004a 83C410   		addl	$16, %esp
 104              		.cfi_def_cfa_offset 48
 105              	.LVL4:
 106              	.L6:
 107              		.loc 2 130 3 is_stmt 1 view .LVU30
 108              		.loc 2 131 5 view .LVU31
 109 004d 83EC0C   		subl	$12, %esp
 110              		.cfi_def_cfa_offset 60
 111 0050 57       		pushl	%edi
 112              		.cfi_def_cfa_offset 64
 113 0051 E8FCFFFF 		call	chTMStartMeasurementX@PLT
 113      FF
 114              	.LVL5:
 115              		.loc 2 132 5 view .LVU32
 116 0056 893C24   		movl	%edi, (%esp)
 117 0059 E8FCFFFF 		call	chTMStopMeasurementX@PLT
 117      FF
 118              	.LVL6:
 119              		.loc 2 133 5 view .LVU33
 120              		.loc 2 134 14 view .LVU34
 121 005e 83C410   		addl	$16, %esp
 122              		.cfi_def_cfa_offset 48
 123 0061 83EE01   		subl	$1, %esi
 124              	.LVL7:
 125              		.loc 2 134 14 is_stmt 0 view .LVU35
 126 0064 75E7     		jne	.L6
 127              		.loc 2 135 3 is_stmt 1 view .LVU36
 128              		.loc 2 135 15 is_stmt 0 view .LVU37
 129 0066 8B442404 		movl	4(%esp), %eax
 130 006a 89830800 		movl	%eax, 8+ch_system@GOTOFF(%ebx)
 130      0000
 131              	.LVL8:
 132              		.loc 2 135 15 view .LVU38
 133              	.LBE23:
 134              	.LBE25:
 135              		.loc 1 170 3 is_stmt 1 view .LVU39
 136              		.loc 1 170 28 view .LVU40
 137              		.loc 1 173 3 view .LVU41
 138              	.LBB26:
 139              	.LBI26:
 140              		.file 3 "../../../os/oslib/include/chlib.h"
 141              		.loc 3 256 20 view .LVU42
 142              	.LBB27:
 143              		.loc 3 259 3 view .LVU43
 144 0070 E8FCFFFF 		call	__core_init@PLT
 144      FF
 145              	.LVL9:
 146              		.loc 3 262 3 view .LVU44
 147 0075 E8FCFFFF 		call	__heap_init@PLT
 147      FF
 148              	.LVL10:
 149              		.loc 3 265 3 view .LVU45
 150 007a E8FCFFFF 		call	__factory_init@PLT
 150      FF
 151              	.LVL11:
GAS LISTING /tmp/ccgNg7u5.s 			page 4


 152              	.LBE27:
 153              	.LBE26:
 154              		.loc 1 176 3 view .LVU46
 155 007f 83EC08   		subl	$8, %esp
 156              		.cfi_def_cfa_offset 56
 157 0082 8D830000 		leal	ch_core0_cfg@GOTOFF(%ebx), %eax
 157      0000
 158 0088 50       		pushl	%eax
 159              		.cfi_def_cfa_offset 60
 160 0089 8D830000 		leal	ch0@GOTOFF(%ebx), %eax
 160      0000
 161 008f 50       		pushl	%eax
 162              		.cfi_def_cfa_offset 64
 163 0090 E8FCFFFF 		call	chInstanceObjectInit@PLT
 163      FF
 164              	.LVL12:
 165              		.loc 1 179 3 view .LVU47
 166              	.LBB28:
 167              	.LBB29:
 168              	.LBB30:
 169              	.LBB31:
 170              		.file 4 "../../../os/common/ports/SIMIA32/chcore.h"
 171              		.loc 4 372 16 is_stmt 0 view .LVU48
 172 0095 8B830000 		movl	port_irq_sts@GOT(%ebx), %eax
 172      0000
 173              	.LBE31:
 174              	.LBE30:
 175              	.LBE29:
 176              	.LBE28:
 177              		.loc 1 181 1 view .LVU49
 178 009b 83C410   		addl	$16, %esp
 179              		.cfi_def_cfa_offset 48
 180              		.loc 1 179 19 view .LVU50
 181 009e C7830000 		movl	$2, ch_system@GOTOFF(%ebx)
 181      00000200 
 181      0000
 182              		.loc 1 180 3 is_stmt 1 view .LVU51
 183              	.LBB35:
 184              	.LBI28:
 185              		.file 5 "../../../os/rt/include/chsys.h"
 186              		.loc 5 421 20 view .LVU52
 187              	.LBB34:
 188              		.loc 5 423 23 view .LVU53
 189              		.loc 5 424 34 view .LVU54
 190              		.loc 5 430 3 view .LVU55
 191              		.loc 5 430 3 view .LVU56
 192              		.loc 5 430 3 view .LVU57
 193              		.loc 5 434 3 view .LVU58
 194              	.LBB33:
 195              	.LBI30:
 196              		.loc 4 370 20 view .LVU59
 197              	.LBB32:
 198              		.loc 4 372 3 view .LVU60
 199              		.loc 4 372 16 is_stmt 0 view .LVU61
 200 00a8 C7000000 		movl	$0, (%eax)
 200      0000
 201              	.LBE32:
GAS LISTING /tmp/ccgNg7u5.s 			page 5


 202              	.LBE33:
 203              	.LBE34:
 204              	.LBE35:
 205              		.loc 1 181 1 view .LVU62
 206 00ae 8B44241C 		movl	28(%esp), %eax
 207 00b2 652B0514 		subl	%gs:20, %eax
 207      000000
 208 00b9 7507     		jne	.L10
 209 00bb 83C420   		addl	$32, %esp
 210              		.cfi_remember_state
 211              		.cfi_def_cfa_offset 16
 212 00be 5B       		popl	%ebx
 213              		.cfi_restore 3
 214              		.cfi_def_cfa_offset 12
 215 00bf 5E       		popl	%esi
 216              		.cfi_restore 6
 217              		.cfi_def_cfa_offset 8
 218 00c0 5F       		popl	%edi
 219              		.cfi_restore 7
 220              		.cfi_def_cfa_offset 4
 221 00c1 C3       		ret
 222              	.L10:
 223              		.cfi_restore_state
 224 00c2 E8FCFFFF 		call	__stack_chk_fail_local
 224      FF
 225              	.LVL13:
 226              		.cfi_endproc
 227              	.LFE204:
 228              		.size	chSysInit, .-chSysInit
 229              		.section	.text.chSysHalt,"ax",@progbits
 230              		.p2align 4
 231              		.globl	chSysHalt
 232              		.type	chSysHalt, @function
 233              	chSysHalt:
 234              	.LVL14:
 235              	.LFB205:
 236              		.loc 1 195 36 is_stmt 1 view -0
 237              		.cfi_startproc
 238              		.loc 1 197 3 view .LVU64
 239              	.LBB36:
 240              	.LBI36:
 241              		.loc 4 398 20 view .LVU65
 242              	.LBB37:
 243              		.loc 4 400 3 view .LVU66
 244 0000 E8FCFFFF 		call	__x86.get_pc_thunk.ax
 244      FF
 245 0005 05010000 		addl	$_GLOBAL_OFFSET_TABLE_, %eax
 245      00
 246              	.LBE37:
 247              	.LBE36:
 248              		.loc 1 215 19 is_stmt 0 view .LVU67
 249 000a C7800000 		movl	$3, ch_system@GOTOFF(%eax)
 249      00000300 
 249      0000
 250              	.LBB39:
 251              	.LBB38:
 252              		.loc 4 400 16 view .LVU68
GAS LISTING /tmp/ccgNg7u5.s 			page 6


 253 0014 8B900000 		movl	port_irq_sts@GOT(%eax), %edx
 253      0000
 254 001a C7020100 		movl	$1, (%edx)
 254      0000
 255              	.LBE38:
 256              	.LBE39:
 257              		.loc 1 200 23 is_stmt 1 view .LVU69
 258              		.loc 1 203 3 view .LVU70
 259              		.loc 1 203 27 is_stmt 0 view .LVU71
 260 0020 8B542404 		movl	4(%esp), %edx
 261 0024 8990DC00 		movl	%edx, 220+ch0@GOTOFF(%eax)
 261      0000
 262              		.loc 1 206 3 is_stmt 1 view .LVU72
 263              		.loc 1 206 34 view .LVU73
 264              		.loc 1 215 3 view .LVU74
 265              	.L12:
 266              		.loc 1 218 3 discriminator 1 view .LVU75
 267              		.loc 1 219 3 discriminator 1 view .LVU76
 268              		.loc 1 218 9 discriminator 1 view .LVU77
 269              		.loc 1 218 3 discriminator 1 view .LVU78
 270              		.loc 1 219 3 discriminator 1 view .LVU79
 271              		.loc 1 218 9 discriminator 1 view .LVU80
 272 002a EBFE     		jmp	.L12
 273              		.cfi_endproc
 274              	.LFE205:
 275              		.size	chSysHalt, .-chSysHalt
 276              		.section	.text.chSysGetIdleThreadX,"ax",@progbits
 277              		.p2align 4
 278              		.globl	chSysGetIdleThreadX
 279              		.type	chSysGetIdleThreadX, @function
 280              	chSysGetIdleThreadX:
 281              	.LFB206:
 282              		.loc 1 234 37 view -0
 283              		.cfi_startproc
 284              		.loc 1 235 3 view .LVU82
 285              	.LVL15:
 286              		.loc 1 237 3 view .LVU83
 287              		.loc 1 237 3 view .LVU84
 288              		.loc 1 237 3 view .LVU85
 289              		.loc 1 239 3 view .LVU86
 290 0000 E8FCFFFF 		call	__x86.get_pc_thunk.ax
 290      FF
 291 0005 05010000 		addl	$_GLOBAL_OFFSET_TABLE_, %eax
 291      00
 292              		.loc 1 239 10 is_stmt 0 view .LVU87
 293 000a 8B800400 		movl	4+ch0@GOTOFF(%eax), %eax
 293      0000
 294              		.loc 1 240 1 view .LVU88
 295 0010 C3       		ret
 296              		.cfi_endproc
 297              	.LFE206:
 298              		.size	chSysGetIdleThreadX, .-chSysGetIdleThreadX
 299              		.section	.text.chSysIntegrityCheckI,"ax",@progbits
 300              		.p2align 4
 301              		.globl	chSysIntegrityCheckI
 302              		.type	chSysIntegrityCheckI, @function
 303              	chSysIntegrityCheckI:
GAS LISTING /tmp/ccgNg7u5.s 			page 7


 304              	.LVL16:
 305              	.LFB207:
 306              		.loc 1 266 46 is_stmt 1 view -0
 307              		.cfi_startproc
 308              		.loc 1 267 3 view .LVU90
 309              		.loc 1 268 3 view .LVU91
 310              		.loc 1 270 21 view .LVU92
 311              		.loc 1 273 3 view .LVU93
 312              		.loc 1 266 46 is_stmt 0 view .LVU94
 313 0000 57       		pushl	%edi
 314              		.cfi_def_cfa_offset 8
 315              		.cfi_offset 7, -8
 316 0001 56       		pushl	%esi
 317              		.cfi_def_cfa_offset 12
 318              		.cfi_offset 6, -12
 319 0002 53       		pushl	%ebx
 320              		.cfi_def_cfa_offset 16
 321              		.cfi_offset 3, -16
 322              		.loc 1 266 46 view .LVU95
 323 0003 8B742410 		movl	16(%esp), %esi
 324 0007 E8FCFFFF 		call	__x86.get_pc_thunk.bx
 324      FF
 325 000c 81C30200 		addl	$_GLOBAL_OFFSET_TABLE_, %ebx
 325      0000
 326              		.loc 1 273 6 view .LVU96
 327 0012 F7C60100 		testl	$1, %esi
 327      0000
 328 0018 7455     		je	.L15
 329              	.LBB40:
 330              		.loc 1 274 5 is_stmt 1 view .LVU97
 331              		.loc 1 277 5 view .LVU98
 332              	.LVL17:
 333              		.loc 1 278 5 view .LVU99
 334              		.loc 1 278 9 is_stmt 0 view .LVU100
 335 001a 8B930000 		movl	ch0@GOTOFF(%ebx), %edx
 335      0000
 336              	.LVL18:
 337              		.loc 1 279 5 is_stmt 1 view .LVU101
 338              		.loc 1 279 16 view .LVU102
 339 0020 8DBB0000 		leal	ch0@GOTOFF(%ebx), %edi
 339      0000
 340              		.loc 1 285 9 is_stmt 0 view .LVU103
 341 0026 8B8B0400 		movl	4+ch0@GOTOFF(%ebx), %ecx
 341      0000
 342              		.loc 1 277 7 view .LVU104
 343 002c 31C0     		xorl	%eax, %eax
 344              		.loc 1 279 16 view .LVU105
 345 002e 39FA     		cmpl	%edi, %edx
 346 0030 0F84D200 		je	.L16
 346      0000
 347              	.LVL19:
 348 0036 8DB42600 		.p2align 4,,10
 348      0000008D 
 348      7600
 349              		.p2align 3
 350              	.L17:
 351              		.loc 1 280 7 is_stmt 1 view .LVU106
GAS LISTING /tmp/ccgNg7u5.s 			page 8


 352              		.loc 1 281 11 is_stmt 0 view .LVU107
 353 0040 8B12     		movl	(%edx), %edx
 354              	.LVL20:
 355              		.loc 1 280 8 view .LVU108
 356 0042 83C001   		addl	$1, %eax
 357              	.LVL21:
 358              		.loc 1 281 7 is_stmt 1 view .LVU109
 359              		.loc 1 279 16 view .LVU110
 360 0045 39FA     		cmpl	%edi, %edx
 361 0047 75F7     		jne	.L17
 362              		.loc 1 285 5 view .LVU111
 363              	.LVL22:
 364              		.loc 1 286 5 view .LVU112
 365              		.loc 1 286 16 view .LVU113
 366 0049 39D1     		cmpl	%edx, %ecx
 367 004b 0F84C700 		je	.L36
 367      0000
 368              	.LVL23:
 369              		.p2align 4,,10
 370 0051 8DB42600 		.p2align 3
 370      000000
 371              	.L21:
 372              		.loc 1 287 7 view .LVU114
 373              		.loc 1 288 11 is_stmt 0 view .LVU115
 374 0058 8B4904   		movl	4(%ecx), %ecx
 375              	.LVL24:
 376              		.loc 1 287 8 view .LVU116
 377 005b 83E801   		subl	$1, %eax
 378              	.LVL25:
 379              		.loc 1 288 7 is_stmt 1 view .LVU117
 380              		.loc 1 286 16 view .LVU118
 381 005e 39F9     		cmpl	%edi, %ecx
 382 0060 75F6     		jne	.L21
 383              		.loc 1 292 5 view .LVU119
 384              		.loc 1 293 14 is_stmt 0 view .LVU120
 385 0062 BA010000 		movl	$1, %edx
 385      00
 386              		.loc 1 292 8 view .LVU121
 387 0067 85C0     		testl	%eax, %eax
 388 0069 0F859000 		jne	.L14
 388      0000
 389              	.LVL26:
 390              	.L15:
 391              		.loc 1 292 8 view .LVU122
 392              	.LBE40:
 393              		.loc 1 298 3 is_stmt 1 view .LVU123
 394              		.loc 1 298 6 is_stmt 0 view .LVU124
 395 006f F7C60200 		testl	$2, %esi
 395      0000
 396 0075 7444     		je	.L22
 397              	.LBB41:
 398              		.loc 1 299 5 is_stmt 1 view .LVU125
 399              		.loc 1 302 5 view .LVU126
 400              	.LVL27:
 401              		.loc 1 303 5 view .LVU127
 402              		.loc 1 303 9 is_stmt 0 view .LVU128
 403 0077 8B931000 		movl	16+ch0@GOTOFF(%ebx), %edx
GAS LISTING /tmp/ccgNg7u5.s 			page 9


 403      0000
 404              	.LVL28:
 405              		.loc 1 304 5 is_stmt 1 view .LVU129
 406              		.loc 1 304 16 view .LVU130
 407 007d 8DBB1000 		leal	16+ch0@GOTOFF(%ebx), %edi
 407      0000
 408              		.loc 1 310 9 is_stmt 0 view .LVU131
 409 0083 8B8B1400 		movl	20+ch0@GOTOFF(%ebx), %ecx
 409      0000
 410              		.loc 1 302 7 view .LVU132
 411 0089 31C0     		xorl	%eax, %eax
 412              		.loc 1 304 16 view .LVU133
 413 008b 39FA     		cmpl	%edi, %edx
 414 008d 0F848D00 		je	.L23
 414      0000
 415              	.LVL29:
 416              		.p2align 4,,10
 417 0093 8D742600 		.p2align 3
 417      90
 418              	.L24:
 419              		.loc 1 305 7 is_stmt 1 view .LVU134
 420              		.loc 1 306 11 is_stmt 0 view .LVU135
 421 0098 8B12     		movl	(%edx), %edx
 422              	.LVL30:
 423              		.loc 1 305 8 view .LVU136
 424 009a 83C001   		addl	$1, %eax
 425              	.LVL31:
 426              		.loc 1 306 7 is_stmt 1 view .LVU137
 427              		.loc 1 304 16 view .LVU138
 428 009d 39FA     		cmpl	%edi, %edx
 429 009f 75F7     		jne	.L24
 430              		.loc 1 310 5 view .LVU139
 431              	.LVL32:
 432              		.loc 1 311 5 view .LVU140
 433              		.loc 1 311 16 view .LVU141
 434 00a1 39D1     		cmpl	%edx, %ecx
 435 00a3 7473     		je	.L36
 436              	.LVL33:
 437              		.p2align 4,,10
 438 00a5 8D7600   		.p2align 3
 439              	.L27:
 440              		.loc 1 312 7 view .LVU142
 441              		.loc 1 313 11 is_stmt 0 view .LVU143
 442 00a8 8B4904   		movl	4(%ecx), %ecx
 443              	.LVL34:
 444              		.loc 1 312 8 view .LVU144
 445 00ab 83E801   		subl	$1, %eax
 446              	.LVL35:
 447              		.loc 1 313 7 is_stmt 1 view .LVU145
 448              		.loc 1 311 16 view .LVU146
 449 00ae 39F9     		cmpl	%edi, %ecx
 450 00b0 75F6     		jne	.L27
 451              		.loc 1 317 5 view .LVU147
 452              	.LBE41:
 453              	.LBB42:
 454              		.loc 1 293 14 is_stmt 0 view .LVU148
 455 00b2 BA010000 		movl	$1, %edx
GAS LISTING /tmp/ccgNg7u5.s 			page 10


 455      00
 456              	.LBE42:
 457              	.LBB43:
 458              		.loc 1 317 8 view .LVU149
 459 00b7 85C0     		testl	%eax, %eax
 460 00b9 7544     		jne	.L14
 461              	.LVL36:
 462              	.L22:
 463              		.loc 1 317 8 view .LVU150
 464              	.LBE43:
 465              		.loc 1 323 3 is_stmt 1 view .LVU151
 466              		.loc 1 358 10 is_stmt 0 view .LVU152
 467 00bb 31D2     		xorl	%edx, %edx
 468              		.loc 1 323 6 view .LVU153
 469 00bd 83E604   		andl	$4, %esi
 470 00c0 743D     		je	.L14
 471              	.LBB44:
 472              		.loc 1 324 5 is_stmt 1 view .LVU154
 473              		.loc 1 328 5 view .LVU155
 474              	.LVL37:
 475              		.loc 1 331 5 view .LVU156
 476              		.loc 1 332 5 view .LVU157
 477              		.loc 1 332 8 is_stmt 0 view .LVU158
 478 00c2 8B932800 		movl	40+ch0@GOTOFF(%ebx), %edx
 478      0000
 479              	.LVL38:
 480              		.loc 1 333 5 is_stmt 1 view .LVU159
 481              		.loc 1 333 15 view .LVU160
 482 00c8 8D8B2800 		leal	40+ch0@GOTOFF(%ebx), %ecx
 482      0000
 483              		.loc 1 331 7 is_stmt 0 view .LVU161
 484 00ce 31C0     		xorl	%eax, %eax
 485              		.loc 1 333 15 view .LVU162
 486 00d0 39CA     		cmpl	%ecx, %edx
 487 00d2 740D     		je	.L28
 488              	.LVL39:
 489              		.p2align 4,,10
 490 00d4 8D742600 		.p2align 3
 491              	.L29:
 492              		.loc 1 334 7 is_stmt 1 view .LVU163
 493              		.loc 1 335 10 is_stmt 0 view .LVU164
 494 00d8 8B12     		movl	(%edx), %edx
 495              	.LVL40:
 496              		.loc 1 334 8 view .LVU165
 497 00da 83C001   		addl	$1, %eax
 498              	.LVL41:
 499              		.loc 1 335 7 is_stmt 1 view .LVU166
 500              		.loc 1 333 15 view .LVU167
 501 00dd 39CA     		cmpl	%ecx, %edx
 502 00df 75F7     		jne	.L29
 503              	.LVL42:
 504              	.L28:
 505              		.loc 1 339 5 view .LVU168
 506              		.loc 1 339 8 is_stmt 0 view .LVU169
 507 00e1 8B932C00 		movl	44+ch0@GOTOFF(%ebx), %edx
 507      0000
 508              	.LVL43:
GAS LISTING /tmp/ccgNg7u5.s 			page 11


 509              		.loc 1 340 5 is_stmt 1 view .LVU170
 510              		.loc 1 340 15 view .LVU171
 511 00e7 39CA     		cmpl	%ecx, %edx
 512 00e9 740F     		je	.L30
 513 00eb 8D742600 		.p2align 4,,10
 513      90
 514              		.p2align 3
 515              	.L31:
 516              		.loc 1 341 7 view .LVU172
 517              		.loc 1 342 10 is_stmt 0 view .LVU173
 518 00f0 8B5204   		movl	4(%edx), %edx
 519              	.LVL44:
 520              		.loc 1 341 8 view .LVU174
 521 00f3 83E801   		subl	$1, %eax
 522              	.LVL45:
 523              		.loc 1 342 7 is_stmt 1 view .LVU175
 524              		.loc 1 340 15 view .LVU176
 525 00f6 39CA     		cmpl	%ecx, %edx
 526 00f8 75F6     		jne	.L31
 527              	.L30:
 528              		.loc 1 346 5 view .LVU177
 529              		.loc 1 346 8 is_stmt 0 view .LVU178
 530 00fa 85C0     		testl	%eax, %eax
 531 00fc 0F95C2   		setne	%dl
 532              	.LVL46:
 533              	.L14:
 534              		.loc 1 346 8 view .LVU179
 535              	.LBE44:
 536              		.loc 1 359 1 view .LVU180
 537 00ff 5B       		popl	%ebx
 538              		.cfi_remember_state
 539              		.cfi_restore 3
 540              		.cfi_def_cfa_offset 12
 541 0100 89D0     		movl	%edx, %eax
 542 0102 5E       		popl	%esi
 543              		.cfi_restore 6
 544              		.cfi_def_cfa_offset 8
 545 0103 5F       		popl	%edi
 546              		.cfi_restore 7
 547              		.cfi_def_cfa_offset 4
 548 0104 C3       		ret
 549              	.LVL47:
 550              		.p2align 4,,10
 551 0105 8D7600   		.p2align 3
 552              	.L16:
 553              		.cfi_restore_state
 554              	.LBB45:
 555              		.loc 1 285 5 is_stmt 1 view .LVU181
 556              		.loc 1 286 5 view .LVU182
 557              		.loc 1 286 16 view .LVU183
 558 0108 39F9     		cmpl	%edi, %ecx
 559 010a 0F8548FF 		jne	.L21
 559      FFFF
 560 0110 E95AFFFF 		jmp	.L15
 560      FF
 561              	.LVL48:
 562              		.p2align 4,,10
GAS LISTING /tmp/ccgNg7u5.s 			page 12


 563 0115 8D7600   		.p2align 3
 564              	.L36:
 565              		.loc 1 293 14 is_stmt 0 view .LVU184
 566 0118 BA010000 		movl	$1, %edx
 566      00
 567 011d EBE0     		jmp	.L14
 568              	.LVL49:
 569 011f 90       		.p2align 4,,10
 570              		.p2align 3
 571              	.L23:
 572              		.loc 1 293 14 view .LVU185
 573              	.LBE45:
 574              	.LBB46:
 575              		.loc 1 310 5 is_stmt 1 view .LVU186
 576              		.loc 1 311 5 view .LVU187
 577              		.loc 1 311 16 view .LVU188
 578 0120 39F9     		cmpl	%edi, %ecx
 579 0122 0F8580FF 		jne	.L27
 579      FFFF
 580 0128 EB91     		jmp	.L22
 581              	.LBE46:
 582              		.cfi_endproc
 583              	.LFE207:
 584              		.size	chSysIntegrityCheckI, .-chSysIntegrityCheckI
 585              		.section	.text.chSysTimerHandlerI,"ax",@progbits
 586              		.p2align 4
 587              		.globl	chSysTimerHandlerI
 588              		.type	chSysTimerHandlerI, @function
 589              	chSysTimerHandlerI:
 590              	.LFB208:
 591              		.loc 1 372 31 view -0
 592              		.cfi_startproc
 593              		.loc 1 377 21 view .LVU190
 594              		.loc 1 389 3 view .LVU191
 595              		.loc 1 372 31 is_stmt 0 view .LVU192
 596 0000 53       		pushl	%ebx
 597              		.cfi_def_cfa_offset 8
 598              		.cfi_offset 3, -8
 599 0001 E8FCFFFF 		call	__x86.get_pc_thunk.bx
 599      FF
 600 0006 81C30200 		addl	$_GLOBAL_OFFSET_TABLE_, %ebx
 600      0000
 601 000c 83EC08   		subl	$8, %esp
 602              		.cfi_def_cfa_offset 16
 603              		.loc 1 389 3 view .LVU193
 604 000f E8FCFFFF 		call	chVTDoTickI@PLT
 604      FF
 605              	.LVL50:
 606              		.loc 1 390 3 is_stmt 1 view .LVU194
 607              		.loc 1 390 28 view .LVU195
 608              		.loc 1 391 1 is_stmt 0 view .LVU196
 609 0014 83C408   		addl	$8, %esp
 610              		.cfi_def_cfa_offset 8
 611 0017 5B       		popl	%ebx
 612              		.cfi_restore 3
 613              		.cfi_def_cfa_offset 4
 614 0018 C3       		ret
GAS LISTING /tmp/ccgNg7u5.s 			page 13


 615              		.cfi_endproc
 616              	.LFE208:
 617              		.size	chSysTimerHandlerI, .-chSysTimerHandlerI
 618              		.section	.text.chSysIsCounterWithinX,"ax",@progbits
 619              		.p2align 4
 620              		.globl	chSysIsCounterWithinX
 621              		.type	chSysIsCounterWithinX, @function
 622              	chSysIsCounterWithinX:
 623              	.LVL51:
 624              	.LFB209:
 625              		.loc 1 467 69 is_stmt 1 view -0
 626              		.cfi_startproc
 627              		.loc 1 469 3 view .LVU198
 628              		.loc 1 469 31 is_stmt 0 view .LVU199
 629 0000 8B542404 		movl	4(%esp), %edx
 630              		.loc 1 470 31 view .LVU200
 631 0004 8B44240C 		movl	12(%esp), %eax
 632              		.loc 1 469 31 view .LVU201
 633 0008 2B542408 		subl	8(%esp), %edx
 634              		.loc 1 470 31 view .LVU202
 635 000c 2B442408 		subl	8(%esp), %eax
 636              		.loc 1 469 10 view .LVU203
 637 0010 39C2     		cmpl	%eax, %edx
 638 0012 0F92C0   		setb	%al
 639              		.loc 1 471 1 view .LVU204
 640 0015 C3       		ret
 641              		.cfi_endproc
 642              	.LFE209:
 643              		.size	chSysIsCounterWithinX, .-chSysIsCounterWithinX
 644              		.section	.text.chSysPolledDelayX,"ax",@progbits
 645              		.p2align 4
 646              		.globl	chSysPolledDelayX
 647              		.type	chSysPolledDelayX, @function
 648              	chSysPolledDelayX:
 649              	.LVL52:
 650              	.LFB210:
 651              		.loc 1 484 40 is_stmt 1 view -0
 652              		.cfi_startproc
 653              		.loc 1 485 3 view .LVU206
 654              		.loc 1 484 40 is_stmt 0 view .LVU207
 655 0000 57       		pushl	%edi
 656              		.cfi_def_cfa_offset 8
 657              		.cfi_offset 7, -8
 658 0001 56       		pushl	%esi
 659              		.cfi_def_cfa_offset 12
 660              		.cfi_offset 6, -12
 661 0002 53       		pushl	%ebx
 662              		.cfi_def_cfa_offset 16
 663              		.cfi_offset 3, -16
 664              		.loc 1 484 40 view .LVU208
 665 0003 8B7C2410 		movl	16(%esp), %edi
 666 0007 E8FCFFFF 		call	__x86.get_pc_thunk.bx
 666      FF
 667 000c 81C30200 		addl	$_GLOBAL_OFFSET_TABLE_, %ebx
 667      0000
 668              		.loc 1 485 19 view .LVU209
 669 0012 E8FCFFFF 		call	port_rt_get_counter_value@PLT
GAS LISTING /tmp/ccgNg7u5.s 			page 14


 669      FF
 670              	.LVL53:
 671 0017 89C6     		movl	%eax, %esi
 672              	.LVL54:
 673              		.loc 1 486 3 is_stmt 1 view .LVU210
 674              		.loc 1 488 3 view .LVU211
 675 0019 8DB42600 		.p2align 4,,10
 675      000000
 676              		.p2align 3
 677              	.L60:
 678              		.loc 1 489 3 discriminator 1 view .LVU212
 679              		.loc 1 488 10 discriminator 1 view .LVU213
 680              		.loc 1 488 32 is_stmt 0 discriminator 1 view .LVU214
 681 0020 E8FCFFFF 		call	port_rt_get_counter_value@PLT
 681      FF
 682              	.LVL55:
 683              	.LBB47:
 684              	.LBI47:
 685              		.loc 1 467 6 is_stmt 1 discriminator 1 view .LVU215
 686              	.LBB48:
 687              		.loc 1 469 3 discriminator 1 view .LVU216
 688              		.loc 1 469 31 is_stmt 0 discriminator 1 view .LVU217
 689 0025 29F0     		subl	%esi, %eax
 690              	.LBE48:
 691              	.LBE47:
 692              		.loc 1 488 10 discriminator 1 view .LVU218
 693 0027 39C7     		cmpl	%eax, %edi
 694 0029 77F5     		ja	.L60
 695              		.loc 1 490 1 view .LVU219
 696 002b 5B       		popl	%ebx
 697              		.cfi_restore 3
 698              		.cfi_def_cfa_offset 12
 699 002c 5E       		popl	%esi
 700              		.cfi_restore 6
 701              		.cfi_def_cfa_offset 8
 702              	.LVL56:
 703              		.loc 1 490 1 view .LVU220
 704 002d 5F       		popl	%edi
 705              		.cfi_restore 7
 706              		.cfi_def_cfa_offset 4
 707 002e C3       		ret
 708              		.cfi_endproc
 709              	.LFE210:
 710              		.size	chSysPolledDelayX, .-chSysPolledDelayX
 711              		.globl	ch_core0_cfg
 712              		.section	.rodata.str1.1,"aMS",@progbits,1
 713              	.LC0:
 714 0000 633000   		.string	"c0"
 715              		.section	.data.rel.ro.ch_core0_cfg,"aw"
 716              		.align 4
 717              		.type	ch_core0_cfg, @object
 718              		.size	ch_core0_cfg, 20
 719              	ch_core0_cfg:
 720 0000 00000000 		.long	.LC0
 721 0004 00000000 		.long	__main_thread_stack_base__
 722 0008 00000000 		.long	__main_thread_stack_end__
 723 000c 00000000 		.long	ch_c0_idle_thread_wa
GAS LISTING /tmp/ccgNg7u5.s 			page 15


 724 0010 30410000 		.long	ch_c0_idle_thread_wa+16688
 725              		.section	.bss.ch_c0_idle_thread_wa,"aw",@nobits
 726              		.align 16
 727              		.type	ch_c0_idle_thread_wa, @object
 728              		.size	ch_c0_idle_thread_wa, 16688
 729              	ch_c0_idle_thread_wa:
 730 0000 00000000 		.zero	16688
 730      00000000 
 730      00000000 
 730      00000000 
 730      00000000 
 731              		.globl	ch0
 732              		.section	.bss.ch0,"aw",@nobits
 733              		.align 32
 734              		.type	ch0, @object
 735              		.size	ch0, 224
 736              	ch0:
 737 0000 00000000 		.zero	224
 737      00000000 
 737      00000000 
 737      00000000 
 737      00000000 
 738              		.globl	ch_system
 739              		.section	.bss.ch_system,"aw",@nobits
 740              		.align 4
 741              		.type	ch_system, @object
 742              		.size	ch_system, 12
 743              	ch_system:
 744 0000 00000000 		.zero	12
 744      00000000 
 744      00000000 
 745              		.section	.text.__x86.get_pc_thunk.ax,"axG",@progbits,__x86.get_pc_thunk.ax,comdat
 746              		.globl	__x86.get_pc_thunk.ax
 747              		.hidden	__x86.get_pc_thunk.ax
 748              		.type	__x86.get_pc_thunk.ax, @function
 749              	__x86.get_pc_thunk.ax:
 750              	.LFB212:
 751              		.cfi_startproc
 752 0000 8B0424   		movl	(%esp), %eax
 753 0003 C3       		ret
 754              		.cfi_endproc
 755              	.LFE212:
 756              		.section	.text.__x86.get_pc_thunk.bx,"axG",@progbits,__x86.get_pc_thunk.bx,comdat
 757              		.globl	__x86.get_pc_thunk.bx
 758              		.hidden	__x86.get_pc_thunk.bx
 759              		.type	__x86.get_pc_thunk.bx, @function
 760              	__x86.get_pc_thunk.bx:
 761              	.LFB213:
 762              		.cfi_startproc
 763 0000 8B1C24   		movl	(%esp), %ebx
 764 0003 C3       		ret
 765              		.cfi_endproc
 766              	.LFE213:
 767              		.text
 768              	.Letext0:
 769              		.file 6 "/usr/lib/gcc/x86_64-linux-gnu/11/include/stddef.h"
 770              		.file 7 "/usr/include/bits/types.h"
GAS LISTING /tmp/ccgNg7u5.s 			page 16


 771              		.file 8 "/usr/include/bits/stdint-intn.h"
 772              		.file 9 "/usr/include/bits/stdint-uintn.h"
 773              		.file 10 "../../../os/common/ports/SIMIA32/compilers/GCC/chtypes.h"
 774              		.file 11 "../../../os/rt/include/chearly.h"
 775              		.file 12 "../../../os/rt/include/chobjects.h"
 776              		.file 13 "../../../os/rt/include/chrfcu.h"
 777              		.file 14 "../../../os/rt/include/chdebug.h"
 778              		.file 15 "../../../os/rt/include/chtime.h"
 779              		.file 16 "../../../os/rt/include/chlists.h"
 780              		.file 17 "../../../os/rt/include/chsem.h"
 781              		.file 18 "../../../os/rt/include/chmtx.h"
 782              		.file 19 "../../../os/rt/include/chvt.h"
 783              		.file 20 "../../../os/oslib/include/chfactory.h"
 784              		.file 21 "../../../os/oslib/include/chmemheaps.h"
 785              		.file 22 "../../../os/oslib/include/chmemcore.h"
 786              		.file 23 "../../../os/rt/include/chinstances.h"
 787              		.section	.debug_info,"",@progbits
 788              	.Ldebug_info0:
 789 0000 800D0000 		.long	0xd80
 790 0004 0500     		.value	0x5
 791 0006 01       		.byte	0x1
 792 0007 04       		.byte	0x4
 793 0008 00000000 		.long	.Ldebug_abbrev0
 794 000c 28       		.uleb128 0x28
 795 000d 0D050000 		.long	.LASF163
 796 0011 1D       		.byte	0x1d
 797 0012 00000000 		.long	.LASF0
 798 0016 1B000000 		.long	.LASF1
 799 001a 57000000 		.long	.LLRL20
 800 001e 00000000 		.long	0
 801 0022 00000000 		.long	.Ldebug_line0
 802 0026 29       		.uleb128 0x29
 803 0027 04       		.byte	0x4
 804 0028 05       		.byte	0x5
 805 0029 696E7400 		.string	"int"
 806 002d 01       		.uleb128 0x1
 807 002e 9D020000 		.long	.LASF11
 808 0032 06       		.byte	0x6
 809 0033 D1       		.byte	0xd1
 810 0034 17       		.byte	0x17
 811 0035 39000000 		.long	0x39
 812 0039 05       		.uleb128 0x5
 813 003a 04       		.byte	0x4
 814 003b 07       		.byte	0x7
 815 003c D7000000 		.long	.LASF2
 816 0040 05       		.uleb128 0x5
 817 0041 04       		.byte	0x4
 818 0042 05       		.byte	0x5
 819 0043 EE040000 		.long	.LASF3
 820 0047 05       		.uleb128 0x5
 821 0048 08       		.byte	0x8
 822 0049 05       		.byte	0x5
 823 004a D7030000 		.long	.LASF4
 824 004e 05       		.uleb128 0x5
 825 004f 0C       		.byte	0xc
 826 0050 04       		.byte	0x4
 827 0051 9B040000 		.long	.LASF5
GAS LISTING /tmp/ccgNg7u5.s 			page 17


 828 0055 05       		.uleb128 0x5
 829 0056 10       		.byte	0x10
 830 0057 04       		.byte	0x4
 831 0058 E9000000 		.long	.LASF6
 832 005c 05       		.uleb128 0x5
 833 005d 01       		.byte	0x1
 834 005e 08       		.byte	0x8
 835 005f BE060000 		.long	.LASF7
 836 0063 05       		.uleb128 0x5
 837 0064 02       		.byte	0x2
 838 0065 07       		.byte	0x7
 839 0066 79070000 		.long	.LASF8
 840 006a 05       		.uleb128 0x5
 841 006b 04       		.byte	0x4
 842 006c 07       		.byte	0x7
 843 006d 41060000 		.long	.LASF9
 844 0071 05       		.uleb128 0x5
 845 0072 01       		.byte	0x1
 846 0073 06       		.byte	0x6
 847 0074 67070000 		.long	.LASF10
 848 0078 01       		.uleb128 0x1
 849 0079 24060000 		.long	.LASF12
 850 007d 07       		.byte	0x7
 851 007e 26       		.byte	0x26
 852 007f 17       		.byte	0x17
 853 0080 5C000000 		.long	0x5c
 854 0084 05       		.uleb128 0x5
 855 0085 02       		.byte	0x2
 856 0086 05       		.byte	0x5
 857 0087 E4040000 		.long	.LASF13
 858 008b 01       		.uleb128 0x1
 859 008c 0F010000 		.long	.LASF14
 860 0090 07       		.byte	0x7
 861 0091 29       		.byte	0x29
 862 0092 14       		.byte	0x14
 863 0093 26000000 		.long	0x26
 864 0097 01       		.uleb128 0x1
 865 0098 E0060000 		.long	.LASF15
 866 009c 07       		.byte	0x7
 867 009d 2A       		.byte	0x2a
 868 009e 16       		.byte	0x16
 869 009f 39000000 		.long	0x39
 870 00a3 01       		.uleb128 0x1
 871 00a4 FD020000 		.long	.LASF16
 872 00a8 07       		.byte	0x7
 873 00a9 30       		.byte	0x30
 874 00aa 2E       		.byte	0x2e
 875 00ab AF000000 		.long	0xaf
 876 00af 05       		.uleb128 0x5
 877 00b0 08       		.byte	0x8
 878 00b1 07       		.byte	0x7
 879 00b2 F0010000 		.long	.LASF17
 880 00b6 2A       		.uleb128 0x2a
 881 00b7 04       		.byte	0x4
 882 00b8 05       		.uleb128 0x5
 883 00b9 01       		.byte	0x1
 884 00ba 06       		.byte	0x6
GAS LISTING /tmp/ccgNg7u5.s 			page 18


 885 00bb 3B030000 		.long	.LASF18
 886 00bf 0C       		.uleb128 0xc
 887 00c0 B8000000 		.long	0xb8
 888 00c4 01       		.uleb128 0x1
 889 00c5 66060000 		.long	.LASF19
 890 00c9 08       		.byte	0x8
 891 00ca 1A       		.byte	0x1a
 892 00cb 13       		.byte	0x13
 893 00cc 8B000000 		.long	0x8b
 894 00d0 01       		.uleb128 0x1
 895 00d1 86030000 		.long	.LASF20
 896 00d5 09       		.byte	0x9
 897 00d6 18       		.byte	0x18
 898 00d7 13       		.byte	0x13
 899 00d8 78000000 		.long	0x78
 900 00dc 01       		.uleb128 0x1
 901 00dd 9B010000 		.long	.LASF21
 902 00e1 09       		.byte	0x9
 903 00e2 1A       		.byte	0x1a
 904 00e3 14       		.byte	0x14
 905 00e4 97000000 		.long	0x97
 906 00e8 01       		.uleb128 0x1
 907 00e9 F2050000 		.long	.LASF22
 908 00ed 09       		.byte	0x9
 909 00ee 1B       		.byte	0x1b
 910 00ef 14       		.byte	0x14
 911 00f0 A3000000 		.long	0xa3
 912 00f4 13       		.uleb128 0x13
 913 00f5 E8000000 		.long	0xe8
 914 00f9 01       		.uleb128 0x1
 915 00fa C0040000 		.long	.LASF23
 916 00fe 0A       		.byte	0xa
 917 00ff 35       		.byte	0x35
 918 0100 1D       		.byte	0x1d
 919 0101 DC000000 		.long	0xdc
 920 0105 01       		.uleb128 0x1
 921 0106 66030000 		.long	.LASF24
 922 010a 0A       		.byte	0xa
 923 010b 36       		.byte	0x36
 924 010c 1D       		.byte	0x1d
 925 010d E8000000 		.long	0xe8
 926 0111 01       		.uleb128 0x1
 927 0112 F3000000 		.long	.LASF25
 928 0116 0A       		.byte	0xa
 929 0117 37       		.byte	0x37
 930 0118 1D       		.byte	0x1d
 931 0119 DC000000 		.long	0xdc
 932 011d 01       		.uleb128 0x1
 933 011e 81040000 		.long	.LASF26
 934 0122 0A       		.byte	0xa
 935 0123 38       		.byte	0x38
 936 0124 1D       		.byte	0x1d
 937 0125 D0000000 		.long	0xd0
 938 0129 01       		.uleb128 0x1
 939 012a 76030000 		.long	.LASF27
 940 012e 0A       		.byte	0xa
 941 012f 39       		.byte	0x39
GAS LISTING /tmp/ccgNg7u5.s 			page 19


 942 0130 1D       		.byte	0x1d
 943 0131 D0000000 		.long	0xd0
 944 0135 01       		.uleb128 0x1
 945 0136 39060000 		.long	.LASF28
 946 013a 0A       		.byte	0xa
 947 013b 3A       		.byte	0x3a
 948 013c 1D       		.byte	0x1d
 949 013d D0000000 		.long	0xd0
 950 0141 01       		.uleb128 0x1
 951 0142 D3010000 		.long	.LASF29
 952 0146 0A       		.byte	0xa
 953 0147 3C       		.byte	0x3c
 954 0148 1D       		.byte	0x1d
 955 0149 DC000000 		.long	0xdc
 956 014d 01       		.uleb128 0x1
 957 014e E5030000 		.long	.LASF30
 958 0152 0A       		.byte	0xa
 959 0153 3D       		.byte	0x3d
 960 0154 1D       		.byte	0x1d
 961 0155 C4000000 		.long	0xc4
 962 0159 01       		.uleb128 0x1
 963 015a AC010000 		.long	.LASF31
 964 015e 0A       		.byte	0xa
 965 015f 3F       		.byte	0x3f
 966 0160 1D       		.byte	0x1d
 967 0161 DC000000 		.long	0xdc
 968 0165 01       		.uleb128 0x1
 969 0166 3C020000 		.long	.LASF32
 970 016a 0A       		.byte	0xa
 971 016b 41       		.byte	0x41
 972 016c 1D       		.byte	0x1d
 973 016d C4000000 		.long	0xc4
 974 0171 01       		.uleb128 0x1
 975 0172 89040000 		.long	.LASF33
 976 0176 0A       		.byte	0xa
 977 0177 42       		.byte	0x42
 978 0178 1D       		.byte	0x1d
 979 0179 DC000000 		.long	0xdc
 980 017d 01       		.uleb128 0x1
 981 017e 26080000 		.long	.LASF34
 982 0182 0B       		.byte	0xb
 983 0183 80       		.byte	0x80
 984 0184 12       		.byte	0x12
 985 0185 39000000 		.long	0x39
 986 0189 01       		.uleb128 0x1
 987 018a 88020000 		.long	.LASF35
 988 018e 0B       		.byte	0xb
 989 018f 85       		.byte	0x85
 990 0190 1A       		.byte	0x1a
 991 0191 95010000 		.long	0x195
 992 0195 06       		.uleb128 0x6
 993 0196 B2030000 		.long	.LASF52
 994 019a 50       		.byte	0x50
 995 019b 0C       		.byte	0xc
 996 019c A9       		.byte	0xa9
 997 019d 08       		.byte	0x8
 998 019e 8A020000 		.long	0x28a
GAS LISTING /tmp/ccgNg7u5.s 			page 20


 999 01a2 07       		.uleb128 0x7
 1000 01a3 68647200 		.string	"hdr"
 1001 01a7 0C       		.byte	0xc
 1002 01a8 BA       		.byte	0xba
 1003 01a9 05       		.byte	0x5
 1004 01aa 87060000 		.long	0x687
 1005 01ae 00       		.byte	0
 1006 01af 07       		.uleb128 0x7
 1007 01b0 63747800 		.string	"ctx"
 1008 01b4 0C       		.byte	0xc
 1009 01b5 BE       		.byte	0xbe
 1010 01b6 21       		.byte	0x21
 1011 01b7 16050000 		.long	0x516
 1012 01bb 0C       		.byte	0xc
 1013 01bc 02       		.uleb128 0x2
 1014 01bd 5E020000 		.long	.LASF36
 1015 01c1 0C       		.byte	0xc
 1016 01c2 C2       		.byte	0xc2
 1017 01c3 22       		.byte	0x22
 1018 01c4 86070000 		.long	0x786
 1019 01c8 10       		.byte	0x10
 1020 01c9 02       		.uleb128 0x2
 1021 01ca 6F030000 		.long	.LASF37
 1022 01ce 0C       		.byte	0xc
 1023 01cf C8       		.byte	0xc8
 1024 01d0 22       		.byte	0x22
 1025 01d1 8B070000 		.long	0x78b
 1026 01d5 14       		.byte	0x14
 1027 01d6 02       		.uleb128 0x2
 1028 01d7 C5050000 		.long	.LASF38
 1029 01db 0C       		.byte	0xc
 1030 01dc CD       		.byte	0xcd
 1031 01dd 21       		.byte	0x21
 1032 01de 8B070000 		.long	0x78b
 1033 01e2 18       		.byte	0x18
 1034 01e3 02       		.uleb128 0x2
 1035 01e4 14070000 		.long	.LASF39
 1036 01e8 0C       		.byte	0xc
 1037 01e9 D1       		.byte	0xd1
 1038 01ea 21       		.byte	0x21
 1039 01eb 29010000 		.long	0x129
 1040 01ef 1C       		.byte	0x1c
 1041 01f0 02       		.uleb128 0x2
 1042 01f1 96000000 		.long	.LASF40
 1043 01f5 0C       		.byte	0xc
 1044 01f6 D5       		.byte	0xd5
 1045 01f7 21       		.byte	0x21
 1046 01f8 1D010000 		.long	0x11d
 1047 01fc 1D       		.byte	0x1d
 1048 01fd 02       		.uleb128 0x2
 1049 01fe 19010000 		.long	.LASF41
 1050 0202 0C       		.byte	0xc
 1051 0203 DA       		.byte	0xda
 1052 0204 21       		.byte	0x21
 1053 0205 35010000 		.long	0x135
 1054 0209 1E       		.byte	0x1e
 1055 020a 02       		.uleb128 0x2
GAS LISTING /tmp/ccgNg7u5.s 			page 21


 1056 020b 2E060000 		.long	.LASF42
 1057 020f 0C       		.byte	0xc
 1058 0210 DE       		.byte	0xde
 1059 0211 22       		.byte	0x22
 1060 0212 66030000 		.long	0x366
 1061 0216 20       		.byte	0x20
 1062 0217 02       		.uleb128 0x2
 1063 0218 7F030000 		.long	.LASF43
 1064 021c 0C       		.byte	0xc
 1065 021d E2       		.byte	0xe2
 1066 021e 21       		.byte	0x21
 1067 021f C5030000 		.long	0x3c5
 1068 0223 24       		.byte	0x24
 1069 0224 02       		.uleb128 0x2
 1070 0225 6B000000 		.long	.LASF44
 1071 0229 0C       		.byte	0xc
 1072 022a E8       		.byte	0xe8
 1073 022b 21       		.byte	0x21
 1074 022c 6B060000 		.long	0x66b
 1075 0230 2C       		.byte	0x2c
 1076 0231 02       		.uleb128 0x2
 1077 0232 EE020000 		.long	.LASF45
 1078 0236 0C       		.byte	0xc
 1079 0237 EE       		.byte	0xee
 1080 0238 22       		.byte	0x22
 1081 0239 B6000000 		.long	0xb6
 1082 023d 30       		.byte	0x30
 1083 023e 14       		.uleb128 0x14
 1084 023f 7500     		.string	"u"
 1085 0241 3F01     		.value	0x13f
 1086 0243 AF060000 		.long	0x6af
 1087 0247 34       		.byte	0x34
 1088 0248 03       		.uleb128 0x3
 1089 0249 EB060000 		.long	.LASF46
 1090 024d 4401     		.value	0x144
 1091 024f 21       		.byte	0x21
 1092 0250 99030000 		.long	0x399
 1093 0254 38       		.byte	0x38
 1094 0255 03       		.uleb128 0x3
 1095 0256 8E030000 		.long	.LASF47
 1096 025a 4A01     		.value	0x14a
 1097 025c 21       		.byte	0x21
 1098 025d C5030000 		.long	0x3c5
 1099 0261 3C       		.byte	0x3c
 1100 0262 03       		.uleb128 0x3
 1101 0263 CE000000 		.long	.LASF48
 1102 0267 5001     		.value	0x150
 1103 0269 21       		.byte	0x21
 1104 026a 59010000 		.long	0x159
 1105 026e 44       		.byte	0x44
 1106 026f 03       		.uleb128 0x3
 1107 0270 64020000 		.long	.LASF49
 1108 0274 5701     		.value	0x157
 1109 0276 22       		.byte	0x22
 1110 0277 81070000 		.long	0x781
 1111 027b 48       		.byte	0x48
 1112 027c 03       		.uleb128 0x3
GAS LISTING /tmp/ccgNg7u5.s 			page 22


 1113 027d AF000000 		.long	.LASF50
 1114 0281 5B01     		.value	0x15b
 1115 0283 21       		.byte	0x21
 1116 0284 41010000 		.long	0x141
 1117 0288 4C       		.byte	0x4c
 1118 0289 00       		.byte	0
 1119 028a 01       		.uleb128 0x1
 1120 028b 24070000 		.long	.LASF51
 1121 028f 0B       		.byte	0xb
 1122 0290 8A       		.byte	0x8a
 1123 0291 1F       		.byte	0x1f
 1124 0292 96020000 		.long	0x296
 1125 0296 0D       		.uleb128 0xd
 1126 0297 08030000 		.long	.LASF53
 1127 029b E0       		.byte	0xe0
 1128 029c 9701     		.value	0x197
 1129 029e 08       		.byte	0x8
 1130 029f 18030000 		.long	0x318
 1131 02a3 03       		.uleb128 0x3
 1132 02a4 FB050000 		.long	.LASF54
 1133 02a8 9B01     		.value	0x19b
 1134 02aa 21       		.byte	0x21
 1135 02ab B8070000 		.long	0x7b8
 1136 02af 00       		.byte	0
 1137 02b0 03       		.uleb128 0x3
 1138 02b1 25010000 		.long	.LASF55
 1139 02b5 9F01     		.value	0x19f
 1140 02b7 21       		.byte	0x21
 1141 02b8 27060000 		.long	0x627
 1142 02bc 10       		.byte	0x10
 1143 02bd 03       		.uleb128 0x3
 1144 02be 39070000 		.long	.LASF56
 1145 02c2 A601     		.value	0x1a6
 1146 02c4 21       		.byte	0x21
 1147 02c5 4E060000 		.long	0x64e
 1148 02c9 28       		.byte	0x28
 1149 02ca 03       		.uleb128 0x3
 1150 02cb FC000000 		.long	.LASF57
 1151 02cf AB01     		.value	0x1ab
 1152 02d1 21       		.byte	0x21
 1153 02d2 7D010000 		.long	0x17d
 1154 02d6 30       		.byte	0x30
 1155 02d7 03       		.uleb128 0x3
 1156 02d8 83020000 		.long	.LASF58
 1157 02dc B101     		.value	0x1b1
 1158 02de 21       		.byte	0x21
 1159 02df 3F030000 		.long	0x33f
 1160 02e3 34       		.byte	0x34
 1161 02e4 03       		.uleb128 0x3
 1162 02e5 C8040000 		.long	.LASF59
 1163 02e9 B601     		.value	0x1b6
 1164 02eb 22       		.byte	0x22
 1165 02ec 22080000 		.long	0x822
 1166 02f0 38       		.byte	0x38
 1167 02f1 03       		.uleb128 0x3
 1168 02f2 90040000 		.long	.LASF60
 1169 02f6 BA01     		.value	0x1ba
GAS LISTING /tmp/ccgNg7u5.s 			page 23


 1170 02f8 21       		.byte	0x21
 1171 02f9 89010000 		.long	0x189
 1172 02fd 3C       		.byte	0x3c
 1173 02fe 03       		.uleb128 0x3
 1174 02ff 09070000 		.long	.LASF61
 1175 0303 BF01     		.value	0x1bf
 1176 0305 21       		.byte	0x21
 1177 0306 89010000 		.long	0x189
 1178 030a 8C       		.byte	0x8c
 1179 030b 14       		.uleb128 0x14
 1180 030c 64626700 		.string	"dbg"
 1181 0310 C401     		.value	0x1c4
 1182 0312 70030000 		.long	0x370
 1183 0316 DC       		.byte	0xdc
 1184 0317 00       		.byte	0
 1185 0318 01       		.uleb128 0x1
 1186 0319 5A030000 		.long	.LASF62
 1187 031d 0D       		.byte	0xd
 1188 031e 3F       		.byte	0x3f
 1189 031f 12       		.byte	0x12
 1190 0320 DC000000 		.long	0xdc
 1191 0324 06       		.uleb128 0x6
 1192 0325 F5020000 		.long	.LASF63
 1193 0329 04       		.byte	0x4
 1194 032a 0D       		.byte	0xd
 1195 032b 44       		.byte	0x44
 1196 032c 10       		.byte	0x10
 1197 032d 3F030000 		.long	0x33f
 1198 0331 02       		.uleb128 0x2
 1199 0332 39040000 		.long	.LASF64
 1200 0336 0D       		.byte	0xd
 1201 0337 48       		.byte	0x48
 1202 0338 21       		.byte	0x21
 1203 0339 18030000 		.long	0x318
 1204 033d 00       		.byte	0
 1205 033e 00       		.byte	0
 1206 033f 01       		.uleb128 0x1
 1207 0340 6E060000 		.long	.LASF65
 1208 0344 0D       		.byte	0xd
 1209 0345 49       		.byte	0x49
 1210 0346 03       		.byte	0x3
 1211 0347 24030000 		.long	0x324
 1212 034b 06       		.uleb128 0x6
 1213 034c 78010000 		.long	.LASF66
 1214 0350 04       		.byte	0x4
 1215 0351 0E       		.byte	0xe
 1216 0352 3E       		.byte	0x3e
 1217 0353 10       		.byte	0x10
 1218 0354 66030000 		.long	0x366
 1219 0358 02       		.uleb128 0x2
 1220 0359 68040000 		.long	.LASF67
 1221 035d 0E       		.byte	0xe
 1222 035e 46       		.byte	0x46
 1223 035f 24       		.byte	0x24
 1224 0360 6B030000 		.long	0x36b
 1225 0364 00       		.byte	0
 1226 0365 00       		.byte	0
GAS LISTING /tmp/ccgNg7u5.s 			page 24


 1227 0366 04       		.uleb128 0x4
 1228 0367 BF000000 		.long	0xbf
 1229 036b 13       		.uleb128 0x13
 1230 036c 66030000 		.long	0x366
 1231 0370 01       		.uleb128 0x1
 1232 0371 C8030000 		.long	.LASF68
 1233 0375 0E       		.byte	0xe
 1234 0376 51       		.byte	0x51
 1235 0377 03       		.byte	0x3
 1236 0378 4B030000 		.long	0x34b
 1237 037c 01       		.uleb128 0x1
 1238 037d 9C000000 		.long	.LASF69
 1239 0381 0F       		.byte	0xf
 1240 0382 6D       		.byte	0x6d
 1241 0383 12       		.byte	0x12
 1242 0384 DC000000 		.long	0xdc
 1243 0388 13       		.uleb128 0x13
 1244 0389 7C030000 		.long	0x37c
 1245 038d 01       		.uleb128 0x1
 1246 038e 4F040000 		.long	.LASF70
 1247 0392 0F       		.byte	0xf
 1248 0393 79       		.byte	0x79
 1249 0394 12       		.byte	0x12
 1250 0395 DC000000 		.long	0xdc
 1251 0399 01       		.uleb128 0x1
 1252 039a A7040000 		.long	.LASF71
 1253 039e 10       		.byte	0x10
 1254 039f 32       		.byte	0x32
 1255 03a0 18       		.byte	0x18
 1256 03a1 A5030000 		.long	0x3a5
 1257 03a5 06       		.uleb128 0x6
 1258 03a6 47010000 		.long	.LASF72
 1259 03aa 04       		.byte	0x4
 1260 03ab 10       		.byte	0x10
 1261 03ac 38       		.byte	0x38
 1262 03ad 08       		.byte	0x8
 1263 03ae C0030000 		.long	0x3c0
 1264 03b2 02       		.uleb128 0x2
 1265 03b3 E4000000 		.long	.LASF73
 1266 03b7 10       		.byte	0x10
 1267 03b8 39       		.byte	0x39
 1268 03b9 1A       		.byte	0x1a
 1269 03ba C0030000 		.long	0x3c0
 1270 03be 00       		.byte	0
 1271 03bf 00       		.byte	0
 1272 03c0 04       		.uleb128 0x4
 1273 03c1 99030000 		.long	0x399
 1274 03c5 01       		.uleb128 0x1
 1275 03c6 5D040000 		.long	.LASF74
 1276 03ca 10       		.byte	0x10
 1277 03cb 3F       		.byte	0x3f
 1278 03cc 19       		.byte	0x19
 1279 03cd D1030000 		.long	0x3d1
 1280 03d1 06       		.uleb128 0x6
 1281 03d2 A8060000 		.long	.LASF75
 1282 03d6 08       		.byte	0x8
 1283 03d7 10       		.byte	0x10
GAS LISTING /tmp/ccgNg7u5.s 			page 25


 1284 03d8 45       		.byte	0x45
 1285 03d9 08       		.byte	0x8
 1286 03da F9030000 		.long	0x3f9
 1287 03de 02       		.uleb128 0x2
 1288 03df E4000000 		.long	.LASF73
 1289 03e3 10       		.byte	0x10
 1290 03e4 46       		.byte	0x46
 1291 03e5 1A       		.byte	0x1a
 1292 03e6 F9030000 		.long	0x3f9
 1293 03ea 00       		.byte	0
 1294 03eb 02       		.uleb128 0x2
 1295 03ec 73010000 		.long	.LASF76
 1296 03f0 10       		.byte	0x10
 1297 03f1 47       		.byte	0x47
 1298 03f2 1A       		.byte	0x1a
 1299 03f3 F9030000 		.long	0x3f9
 1300 03f7 04       		.byte	0x4
 1301 03f8 00       		.byte	0
 1302 03f9 04       		.uleb128 0x4
 1303 03fa C5030000 		.long	0x3c5
 1304 03fe 01       		.uleb128 0x1
 1305 03ff C7020000 		.long	.LASF77
 1306 0403 10       		.byte	0x10
 1307 0404 4E       		.byte	0x4e
 1308 0405 22       		.byte	0x22
 1309 0406 0A040000 		.long	0x40a
 1310 040a 06       		.uleb128 0x6
 1311 040b 7C060000 		.long	.LASF78
 1312 040f 0C       		.byte	0xc
 1313 0410 10       		.byte	0x10
 1314 0411 55       		.byte	0x55
 1315 0412 08       		.byte	0x8
 1316 0413 3F040000 		.long	0x43f
 1317 0417 02       		.uleb128 0x2
 1318 0418 E4000000 		.long	.LASF73
 1319 041c 10       		.byte	0x10
 1320 041d 56       		.byte	0x56
 1321 041e 1A       		.byte	0x1a
 1322 041f 3F040000 		.long	0x43f
 1323 0423 00       		.byte	0
 1324 0424 02       		.uleb128 0x2
 1325 0425 73010000 		.long	.LASF76
 1326 0429 10       		.byte	0x10
 1327 042a 57       		.byte	0x57
 1328 042b 1A       		.byte	0x1a
 1329 042c 3F040000 		.long	0x43f
 1330 0430 04       		.byte	0x4
 1331 0431 02       		.uleb128 0x2
 1332 0432 36030000 		.long	.LASF79
 1333 0436 10       		.byte	0x10
 1334 0437 58       		.byte	0x58
 1335 0438 19       		.byte	0x19
 1336 0439 41010000 		.long	0x141
 1337 043d 08       		.byte	0x8
 1338 043e 00       		.byte	0
 1339 043f 04       		.uleb128 0x4
 1340 0440 FE030000 		.long	0x3fe
GAS LISTING /tmp/ccgNg7u5.s 			page 26


 1341 0444 01       		.uleb128 0x1
 1342 0445 4A030000 		.long	.LASF80
 1343 0449 10       		.byte	0x10
 1344 044a 5F       		.byte	0x5f
 1345 044b 1E       		.byte	0x1e
 1346 044c 50040000 		.long	0x450
 1347 0450 06       		.uleb128 0x6
 1348 0451 8D010000 		.long	.LASF81
 1349 0455 0C       		.byte	0xc
 1350 0456 10       		.byte	0x10
 1351 0457 64       		.byte	0x64
 1352 0458 08       		.byte	0x8
 1353 0459 85040000 		.long	0x485
 1354 045d 02       		.uleb128 0x2
 1355 045e E4000000 		.long	.LASF73
 1356 0462 10       		.byte	0x10
 1357 0463 65       		.byte	0x65
 1358 0464 1A       		.byte	0x1a
 1359 0465 85040000 		.long	0x485
 1360 0469 00       		.byte	0
 1361 046a 02       		.uleb128 0x2
 1362 046b 73010000 		.long	.LASF76
 1363 046f 10       		.byte	0x10
 1364 0470 66       		.byte	0x66
 1365 0471 1A       		.byte	0x1a
 1366 0472 85040000 		.long	0x485
 1367 0476 04       		.byte	0x4
 1368 0477 02       		.uleb128 0x2
 1369 0478 73070000 		.long	.LASF82
 1370 047c 10       		.byte	0x10
 1371 047d 67       		.byte	0x67
 1372 047e 19       		.byte	0x19
 1373 047f 8D030000 		.long	0x38d
 1374 0483 08       		.byte	0x8
 1375 0484 00       		.byte	0
 1376 0485 04       		.uleb128 0x4
 1377 0486 44040000 		.long	0x444
 1378 048a 15       		.uleb128 0x15
 1379 048b 10       		.byte	0x10
 1380 048c 04       		.byte	0x4
 1381 048d 87       		.byte	0x87
 1382 048e 9E040000 		.long	0x49e
 1383 0492 07       		.uleb128 0x7
 1384 0493 6100     		.string	"a"
 1385 0495 04       		.byte	0x4
 1386 0496 88       		.byte	0x88
 1387 0497 0B       		.byte	0xb
 1388 0498 9E040000 		.long	0x49e
 1389 049c 00       		.byte	0
 1390 049d 00       		.byte	0
 1391 049e 0E       		.uleb128 0xe
 1392 049f D0000000 		.long	0xd0
 1393 04a3 AE040000 		.long	0x4ae
 1394 04a7 0F       		.uleb128 0xf
 1395 04a8 39000000 		.long	0x39
 1396 04ac 0F       		.byte	0xf
 1397 04ad 00       		.byte	0
GAS LISTING /tmp/ccgNg7u5.s 			page 27


 1398 04ae 2B       		.uleb128 0x2b
 1399 04af 42020000 		.long	.LASF164
 1400 04b3 04       		.byte	0x4
 1401 04b4 89       		.byte	0x89
 1402 04b5 03       		.byte	0x3
 1403 04b6 8A040000 		.long	0x48a
 1404 04ba 10       		.byte	0x10
 1405 04bb 01       		.uleb128 0x1
 1406 04bc 32070000 		.long	.LASF83
 1407 04c0 04       		.byte	0x4
 1408 04c1 8E       		.byte	0x8e
 1409 04c2 0F       		.byte	0xf
 1410 04c3 B6000000 		.long	0xb6
 1411 04c7 06       		.uleb128 0x6
 1412 04c8 F7040000 		.long	.LASF84
 1413 04cc 14       		.byte	0x14
 1414 04cd 04       		.byte	0x4
 1415 04ce 9D       		.byte	0x9d
 1416 04cf 08       		.byte	0x8
 1417 04d0 16050000 		.long	0x516
 1418 04d4 07       		.uleb128 0x7
 1419 04d5 65627800 		.string	"ebx"
 1420 04d9 04       		.byte	0x4
 1421 04da 9E       		.byte	0x9e
 1422 04db 0B       		.byte	0xb
 1423 04dc BB040000 		.long	0x4bb
 1424 04e0 00       		.byte	0
 1425 04e1 07       		.uleb128 0x7
 1426 04e2 65646900 		.string	"edi"
 1427 04e6 04       		.byte	0x4
 1428 04e7 9F       		.byte	0x9f
 1429 04e8 0B       		.byte	0xb
 1430 04e9 BB040000 		.long	0x4bb
 1431 04ed 04       		.byte	0x4
 1432 04ee 07       		.uleb128 0x7
 1433 04ef 65736900 		.string	"esi"
 1434 04f3 04       		.byte	0x4
 1435 04f4 A0       		.byte	0xa0
 1436 04f5 0B       		.byte	0xb
 1437 04f6 BB040000 		.long	0x4bb
 1438 04fa 08       		.byte	0x8
 1439 04fb 07       		.uleb128 0x7
 1440 04fc 65627000 		.string	"ebp"
 1441 0500 04       		.byte	0x4
 1442 0501 A1       		.byte	0xa1
 1443 0502 0B       		.byte	0xb
 1444 0503 BB040000 		.long	0x4bb
 1445 0507 0C       		.byte	0xc
 1446 0508 07       		.uleb128 0x7
 1447 0509 65697000 		.string	"eip"
 1448 050d 04       		.byte	0x4
 1449 050e A2       		.byte	0xa2
 1450 050f 0B       		.byte	0xb
 1451 0510 BB040000 		.long	0x4bb
 1452 0514 10       		.byte	0x10
 1453 0515 00       		.byte	0
 1454 0516 06       		.uleb128 0x6
GAS LISTING /tmp/ccgNg7u5.s 			page 28


 1455 0517 2C010000 		.long	.LASF85
 1456 051b 04       		.byte	0x4
 1457 051c 04       		.byte	0x4
 1458 051d AA       		.byte	0xaa
 1459 051e 08       		.byte	0x8
 1460 051f 30050000 		.long	0x530
 1461 0523 07       		.uleb128 0x7
 1462 0524 737000   		.string	"sp"
 1463 0527 04       		.byte	0x4
 1464 0528 AB       		.byte	0xab
 1465 0529 17       		.byte	0x17
 1466 052a 30050000 		.long	0x530
 1467 052e 00       		.byte	0
 1468 052f 00       		.byte	0
 1469 0530 04       		.uleb128 0x4
 1470 0531 C7040000 		.long	0x4c7
 1471 0535 05       		.uleb128 0x5
 1472 0536 01       		.byte	0x1
 1473 0537 02       		.byte	0x2
 1474 0538 DB020000 		.long	.LASF86
 1475 053c 16       		.uleb128 0x16
 1476 053d E1020000 		.long	.LASF133
 1477 0541 04       		.byte	0x4
 1478 0542 1C01     		.value	0x11c
 1479 0544 11       		.byte	0x11
 1480 0545 11010000 		.long	0x111
 1481 0549 15       		.uleb128 0x15
 1482 054a 04       		.byte	0x4
 1483 054b 02       		.byte	0x2
 1484 054c 3F       		.byte	0x3f
 1485 054d 5F050000 		.long	0x55f
 1486 0551 02       		.uleb128 0x2
 1487 0552 C0020000 		.long	.LASF87
 1488 0556 02       		.byte	0x2
 1489 0557 43       		.byte	0x43
 1490 0558 19       		.byte	0x19
 1491 0559 F9000000 		.long	0xf9
 1492 055d 00       		.byte	0
 1493 055e 00       		.byte	0
 1494 055f 01       		.uleb128 0x1
 1495 0560 25000000 		.long	.LASF88
 1496 0564 02       		.byte	0x2
 1497 0565 44       		.byte	0x44
 1498 0566 03       		.byte	0x3
 1499 0567 49050000 		.long	0x549
 1500 056b 15       		.uleb128 0x15
 1501 056c 18       		.byte	0x18
 1502 056d 02       		.byte	0x2
 1503 056e 4F       		.byte	0x4f
 1504 056f B3050000 		.long	0x5b3
 1505 0573 02       		.uleb128 0x2
 1506 0574 B9060000 		.long	.LASF89
 1507 0578 02       		.byte	0x2
 1508 0579 50       		.byte	0x50
 1509 057a 19       		.byte	0x19
 1510 057b F9000000 		.long	0xf9
 1511 057f 00       		.byte	0
GAS LISTING /tmp/ccgNg7u5.s 			page 29


 1512 0580 02       		.uleb128 0x2
 1513 0581 58020000 		.long	.LASF90
 1514 0585 02       		.byte	0x2
 1515 0586 51       		.byte	0x51
 1516 0587 19       		.byte	0x19
 1517 0588 F9000000 		.long	0xf9
 1518 058c 04       		.byte	0x4
 1519 058d 02       		.uleb128 0x2
 1520 058e 00000000 		.long	.LASF91
 1521 0592 02       		.byte	0x2
 1522 0593 52       		.byte	0x52
 1523 0594 19       		.byte	0x19
 1524 0595 F9000000 		.long	0xf9
 1525 0599 08       		.byte	0x8
 1526 059a 07       		.uleb128 0x7
 1527 059b 6E00     		.string	"n"
 1528 059d 02       		.byte	0x2
 1529 059e 53       		.byte	0x53
 1530 059f 19       		.byte	0x19
 1531 05a0 71010000 		.long	0x171
 1532 05a4 0C       		.byte	0xc
 1533 05a5 02       		.uleb128 0x2
 1534 05a6 04010000 		.long	.LASF92
 1535 05aa 02       		.byte	0x2
 1536 05ab 54       		.byte	0x54
 1537 05ac 19       		.byte	0x19
 1538 05ad 05010000 		.long	0x105
 1539 05b1 10       		.byte	0x10
 1540 05b2 00       		.byte	0
 1541 05b3 01       		.uleb128 0x1
 1542 05b4 17030000 		.long	.LASF93
 1543 05b8 02       		.byte	0x2
 1544 05b9 55       		.byte	0x55
 1545 05ba 03       		.byte	0x3
 1546 05bb 6B050000 		.long	0x56b
 1547 05bf 2C       		.uleb128 0x2c
 1548 05c0 07       		.byte	0x7
 1549 05c1 04       		.byte	0x4
 1550 05c2 39000000 		.long	0x39
 1551 05c6 0C       		.byte	0xc
 1552 05c7 32       		.byte	0x32
 1553 05c8 0E       		.byte	0xe
 1554 05c9 E6050000 		.long	0x5e6
 1555 05cd 10       		.uleb128 0x10
 1556 05ce 01060000 		.long	.LASF94
 1557 05d2 00       		.byte	0
 1558 05d3 10       		.uleb128 0x10
 1559 05d4 53070000 		.long	.LASF95
 1560 05d8 01       		.byte	0x1
 1561 05d9 10       		.uleb128 0x10
 1562 05da 49000000 		.long	.LASF96
 1563 05de 02       		.byte	0x2
 1564 05df 10       		.uleb128 0x10
 1565 05e0 B8010000 		.long	.LASF97
 1566 05e4 03       		.byte	0x3
 1567 05e5 00       		.byte	0
 1568 05e6 01       		.uleb128 0x1
GAS LISTING /tmp/ccgNg7u5.s 			page 30


 1569 05e7 F7070000 		.long	.LASF98
 1570 05eb 0C       		.byte	0xc
 1571 05ec 37       		.byte	0x37
 1572 05ed 03       		.byte	0x3
 1573 05ee BF050000 		.long	0x5bf
 1574 05f2 06       		.uleb128 0x6
 1575 05f3 6C020000 		.long	.LASF99
 1576 05f7 18       		.byte	0x18
 1577 05f8 0C       		.byte	0xc
 1578 05f9 64       		.byte	0x64
 1579 05fa 10       		.byte	0x10
 1580 05fb 27060000 		.long	0x627
 1581 05ff 02       		.uleb128 0x2
 1582 0600 EC050000 		.long	.LASF100
 1583 0604 0C       		.byte	0xc
 1584 0605 68       		.byte	0x68
 1585 0606 21       		.byte	0x21
 1586 0607 44040000 		.long	0x444
 1587 060b 00       		.byte	0
 1588 060c 02       		.uleb128 0x2
 1589 060d 8E000000 		.long	.LASF101
 1590 0611 0C       		.byte	0xc
 1591 0612 6D       		.byte	0x6d
 1592 0613 21       		.byte	0x21
 1593 0614 88030000 		.long	0x388
 1594 0618 0C       		.byte	0xc
 1595 0619 02       		.uleb128 0x2
 1596 061a 62010000 		.long	.LASF102
 1597 061e 0C       		.byte	0xc
 1598 061f 81       		.byte	0x81
 1599 0620 21       		.byte	0x21
 1600 0621 F4000000 		.long	0xf4
 1601 0625 10       		.byte	0x10
 1602 0626 00       		.byte	0
 1603 0627 01       		.uleb128 0x1
 1604 0628 F3060000 		.long	.LASF103
 1605 062c 0C       		.byte	0xc
 1606 062d 83       		.byte	0x83
 1607 062e 03       		.byte	0x3
 1608 062f F2050000 		.long	0x5f2
 1609 0633 06       		.uleb128 0x6
 1610 0634 73000000 		.long	.LASF104
 1611 0638 08       		.byte	0x8
 1612 0639 0C       		.byte	0xc
 1613 063a 88       		.byte	0x88
 1614 063b 10       		.byte	0x10
 1615 063c 4E060000 		.long	0x64e
 1616 0640 02       		.uleb128 0x2
 1617 0641 60060000 		.long	.LASF105
 1618 0645 0C       		.byte	0xc
 1619 0646 8C       		.byte	0x8c
 1620 0647 21       		.byte	0x21
 1621 0648 C5030000 		.long	0x3c5
 1622 064c 00       		.byte	0
 1623 064d 00       		.byte	0
 1624 064e 01       		.uleb128 0x1
 1625 064f 01040000 		.long	.LASF106
GAS LISTING /tmp/ccgNg7u5.s 			page 31


 1626 0653 0C       		.byte	0xc
 1627 0654 8D       		.byte	0x8d
 1628 0655 03       		.byte	0x3
 1629 0656 33060000 		.long	0x633
 1630 065a 01       		.uleb128 0x1
 1631 065b 36000000 		.long	.LASF107
 1632 065f 0C       		.byte	0xc
 1633 0660 92       		.byte	0x92
 1634 0661 14       		.byte	0x14
 1635 0662 66060000 		.long	0x666
 1636 0666 04       		.uleb128 0x4
 1637 0667 89010000 		.long	0x189
 1638 066b 01       		.uleb128 0x1
 1639 066c 3E040000 		.long	.LASF108
 1640 0670 0C       		.byte	0xc
 1641 0671 A1       		.byte	0xa1
 1642 0672 10       		.byte	0x10
 1643 0673 77060000 		.long	0x677
 1644 0677 04       		.uleb128 0x4
 1645 0678 7C060000 		.long	0x67c
 1646 067c 2D       		.uleb128 0x2d
 1647 067d 87060000 		.long	0x687
 1648 0681 0A       		.uleb128 0xa
 1649 0682 66060000 		.long	0x666
 1650 0686 00       		.byte	0
 1651 0687 2E       		.uleb128 0x2e
 1652 0688 0C       		.byte	0xc
 1653 0689 0C       		.byte	0xc
 1654 068a AD       		.byte	0xad
 1655 068b 03       		.byte	0x3
 1656 068c AF060000 		.long	0x6af
 1657 0690 17       		.uleb128 0x17
 1658 0691 88010000 		.long	.LASF109
 1659 0695 B1       		.byte	0xb1
 1660 0696 99030000 		.long	0x399
 1661 069a 17       		.uleb128 0x17
 1662 069b 60060000 		.long	.LASF105
 1663 069f B5       		.byte	0xb5
 1664 06a0 C5030000 		.long	0x3c5
 1665 06a4 17       		.uleb128 0x17
 1666 06a5 35020000 		.long	.LASF110
 1667 06a9 B9       		.byte	0xb9
 1668 06aa FE030000 		.long	0x3fe
 1669 06ae 00       		.byte	0
 1670 06af 2F       		.uleb128 0x2f
 1671 06b0 04       		.byte	0x4
 1672 06b1 0C       		.byte	0xc
 1673 06b2 0201     		.value	0x102
 1674 06b4 03       		.byte	0x3
 1675 06b5 1A070000 		.long	0x71a
 1676 06b9 09       		.uleb128 0x9
 1677 06ba A4020000 		.long	.LASF111
 1678 06be 0901     		.value	0x109
 1679 06c0 21       		.byte	0x21
 1680 06c1 4D010000 		.long	0x14d
 1681 06c5 09       		.uleb128 0x9
 1682 06c6 1D080000 		.long	.LASF112
GAS LISTING /tmp/ccgNg7u5.s 			page 32


 1683 06ca 1001     		.value	0x110
 1684 06cc 21       		.byte	0x21
 1685 06cd 4D010000 		.long	0x14d
 1686 06d1 09       		.uleb128 0x9
 1687 06d2 1E010000 		.long	.LASF113
 1688 06d6 1701     		.value	0x117
 1689 06d8 22       		.byte	0x22
 1690 06d9 B6000000 		.long	0xb6
 1691 06dd 09       		.uleb128 0x9
 1692 06de 4D070000 		.long	.LASF114
 1693 06e2 1E01     		.value	0x11e
 1694 06e4 22       		.byte	0x22
 1695 06e5 1A070000 		.long	0x71a
 1696 06e9 09       		.uleb128 0x9
 1697 06ea A4010000 		.long	.LASF115
 1698 06ee 2301     		.value	0x123
 1699 06f0 21       		.byte	0x21
 1700 06f1 4D010000 		.long	0x14d
 1701 06f5 09       		.uleb128 0x9
 1702 06f6 75060000 		.long	.LASF116
 1703 06fa 2C01     		.value	0x12c
 1704 06fc 22       		.byte	0x22
 1705 06fd 47070000 		.long	0x747
 1706 0701 09       		.uleb128 0x9
 1707 0702 1E000000 		.long	.LASF117
 1708 0706 3501     		.value	0x135
 1709 0708 22       		.byte	0x22
 1710 0709 81070000 		.long	0x781
 1711 070d 09       		.uleb128 0x9
 1712 070e 6C010000 		.long	.LASF118
 1713 0712 3D01     		.value	0x13d
 1714 0714 21       		.byte	0x21
 1715 0715 59010000 		.long	0x159
 1716 0719 00       		.byte	0
 1717 071a 04       		.uleb128 0x4
 1718 071b 5A060000 		.long	0x65a
 1719 071f 06       		.uleb128 0x6
 1720 0720 C6010000 		.long	.LASF119
 1721 0724 0C       		.byte	0xc
 1722 0725 11       		.byte	0x11
 1723 0726 34       		.byte	0x34
 1724 0727 10       		.byte	0x10
 1725 0728 47070000 		.long	0x747
 1726 072c 02       		.uleb128 0x2
 1727 072d 60060000 		.long	.LASF105
 1728 0731 11       		.byte	0x11
 1729 0732 35       		.byte	0x35
 1730 0733 19       		.byte	0x19
 1731 0734 C5030000 		.long	0x3c5
 1732 0738 00       		.byte	0
 1733 0739 07       		.uleb128 0x7
 1734 073a 636E7400 		.string	"cnt"
 1735 073e 11       		.byte	0x11
 1736 073f 37       		.byte	0x37
 1737 0740 19       		.byte	0x19
 1738 0741 65010000 		.long	0x165
 1739 0745 08       		.byte	0x8
GAS LISTING /tmp/ccgNg7u5.s 			page 33


 1740 0746 00       		.byte	0
 1741 0747 04       		.uleb128 0x4
 1742 0748 1F070000 		.long	0x71f
 1743 074c 06       		.uleb128 0x6
 1744 074d 59010000 		.long	.LASF120
 1745 0751 10       		.byte	0x10
 1746 0752 12       		.byte	0x12
 1747 0753 39       		.byte	0x39
 1748 0754 08       		.byte	0x8
 1749 0755 81070000 		.long	0x781
 1750 0759 02       		.uleb128 0x2
 1751 075a 60060000 		.long	.LASF105
 1752 075e 12       		.byte	0x12
 1753 075f 3A       		.byte	0x3a
 1754 0760 19       		.byte	0x19
 1755 0761 C5030000 		.long	0x3c5
 1756 0765 00       		.byte	0
 1757 0766 02       		.uleb128 0x2
 1758 0767 5E020000 		.long	.LASF36
 1759 076b 12       		.byte	0x12
 1760 076c 3C       		.byte	0x3c
 1761 076d 1A       		.byte	0x1a
 1762 076e 66060000 		.long	0x666
 1763 0772 08       		.byte	0x8
 1764 0773 02       		.uleb128 0x2
 1765 0774 E4000000 		.long	.LASF73
 1766 0778 12       		.byte	0x12
 1767 0779 3E       		.byte	0x3e
 1768 077a 1A       		.byte	0x1a
 1769 077b A9080000 		.long	0x8a9
 1770 077f 0C       		.byte	0xc
 1771 0780 00       		.byte	0
 1772 0781 04       		.uleb128 0x4
 1773 0782 4C070000 		.long	0x74c
 1774 0786 04       		.uleb128 0x4
 1775 0787 8A020000 		.long	0x28a
 1776 078b 04       		.uleb128 0x4
 1777 078c AE040000 		.long	0x4ae
 1778 0790 0D       		.uleb128 0xd
 1779 0791 39010000 		.long	.LASF121
 1780 0795 10       		.byte	0x10
 1781 0796 6C01     		.value	0x16c
 1782 0798 10       		.byte	0x10
 1783 0799 B8070000 		.long	0x7b8
 1784 079d 03       		.uleb128 0x3
 1785 079e 35020000 		.long	.LASF110
 1786 07a2 7101     		.value	0x171
 1787 07a4 21       		.byte	0x21
 1788 07a5 FE030000 		.long	0x3fe
 1789 07a9 00       		.byte	0
 1790 07aa 03       		.uleb128 0x3
 1791 07ab B6070000 		.long	.LASF122
 1792 07af 7501     		.value	0x175
 1793 07b1 22       		.byte	0x22
 1794 07b2 66060000 		.long	0x666
 1795 07b6 0C       		.byte	0xc
 1796 07b7 00       		.byte	0
GAS LISTING /tmp/ccgNg7u5.s 			page 34


 1797 07b8 18       		.uleb128 0x18
 1798 07b9 53060000 		.long	.LASF123
 1799 07bd 7601     		.value	0x176
 1800 07bf 90070000 		.long	0x790
 1801 07c3 0D       		.uleb128 0xd
 1802 07c4 D6050000 		.long	.LASF124
 1803 07c8 14       		.byte	0x14
 1804 07c9 7B01     		.value	0x17b
 1805 07cb 10       		.byte	0x10
 1806 07cc 12080000 		.long	0x812
 1807 07d0 03       		.uleb128 0x3
 1808 07d1 2E060000 		.long	.LASF42
 1809 07d5 7F01     		.value	0x17f
 1810 07d7 22       		.byte	0x22
 1811 07d8 66030000 		.long	0x366
 1812 07dc 00       		.byte	0
 1813 07dd 03       		.uleb128 0x3
 1814 07de 05000000 		.long	.LASF125
 1815 07e2 8301     		.value	0x183
 1816 07e4 22       		.byte	0x22
 1817 07e5 8B070000 		.long	0x78b
 1818 07e9 04       		.byte	0x4
 1819 07ea 03       		.uleb128 0x3
 1820 07eb CB050000 		.long	.LASF126
 1821 07ef 8701     		.value	0x187
 1822 07f1 22       		.byte	0x22
 1823 07f2 8B070000 		.long	0x78b
 1824 07f6 08       		.byte	0x8
 1825 07f7 03       		.uleb128 0x3
 1826 07f8 72040000 		.long	.LASF127
 1827 07fc 8C01     		.value	0x18c
 1828 07fe 22       		.byte	0x22
 1829 07ff 8B070000 		.long	0x78b
 1830 0803 0C       		.byte	0xc
 1831 0804 03       		.uleb128 0x3
 1832 0805 2B040000 		.long	.LASF128
 1833 0809 9001     		.value	0x190
 1834 080b 22       		.byte	0x22
 1835 080c 8B070000 		.long	0x78b
 1836 0810 10       		.byte	0x10
 1837 0811 00       		.byte	0
 1838 0812 18       		.uleb128 0x18
 1839 0813 DB010000 		.long	.LASF129
 1840 0817 9201     		.value	0x192
 1841 0819 C3070000 		.long	0x7c3
 1842 081d 0C       		.uleb128 0xc
 1843 081e 12080000 		.long	0x812
 1844 0822 04       		.uleb128 0x4
 1845 0823 1D080000 		.long	0x81d
 1846 0827 0D       		.uleb128 0xd
 1847 0828 03050000 		.long	.LASF130
 1848 082c 0C       		.byte	0xc
 1849 082d DC01     		.value	0x1dc
 1850 082f 10       		.byte	0x10
 1851 0830 5B080000 		.long	0x85b
 1852 0834 03       		.uleb128 0x3
 1853 0835 14070000 		.long	.LASF39
GAS LISTING /tmp/ccgNg7u5.s 			page 35


 1854 0839 E001     		.value	0x1e0
 1855 083b 21       		.byte	0x21
 1856 083c E6050000 		.long	0x5e6
 1857 0840 00       		.byte	0
 1858 0841 03       		.uleb128 0x3
 1859 0842 4F010000 		.long	.LASF131
 1860 0846 E401     		.value	0x1e4
 1861 0848 22       		.byte	0x22
 1862 0849 5B080000 		.long	0x85b
 1863 084d 04       		.byte	0x4
 1864 084e 14       		.uleb128 0x14
 1865 084f 746D6300 		.string	"tmc"
 1866 0853 E901     		.value	0x1e9
 1867 0855 5F050000 		.long	0x55f
 1868 0859 08       		.byte	0x8
 1869 085a 00       		.byte	0
 1870 085b 0E       		.uleb128 0xe
 1871 085c 86070000 		.long	0x786
 1872 0860 6B080000 		.long	0x86b
 1873 0864 0F       		.uleb128 0xf
 1874 0865 39000000 		.long	0x39
 1875 0869 00       		.byte	0
 1876 086a 00       		.byte	0
 1877 086b 18       		.uleb128 0x18
 1878 086c 41070000 		.long	.LASF132
 1879 0870 0002     		.value	0x200
 1880 0872 27080000 		.long	0x827
 1881 0876 16       		.uleb128 0x16
 1882 0877 03050000 		.long	.LASF130
 1883 087b 05       		.byte	0x5
 1884 087c 3E01     		.value	0x13e
 1885 087e 14       		.byte	0x14
 1886 087f 6B080000 		.long	0x86b
 1887 0883 16       		.uleb128 0x16
 1888 0884 11000000 		.long	.LASF134
 1889 0888 05       		.byte	0x5
 1890 0889 4001     		.value	0x140
 1891 088b 23       		.byte	0x23
 1892 088c 1D080000 		.long	0x81d
 1893 0890 30       		.uleb128 0x30
 1894 0891 63683000 		.string	"ch0"
 1895 0895 05       		.byte	0x5
 1896 0896 4101     		.value	0x141
 1897 0898 16       		.byte	0x16
 1898 0899 8A020000 		.long	0x28a
 1899 089d 01       		.uleb128 0x1
 1900 089e B1060000 		.long	.LASF135
 1901 08a2 12       		.byte	0x12
 1902 08a3 34       		.byte	0x34
 1903 08a4 19       		.byte	0x19
 1904 08a5 4C070000 		.long	0x74c
 1905 08a9 04       		.uleb128 0x4
 1906 08aa 9D080000 		.long	0x89d
 1907 08ae 19       		.uleb128 0x19
 1908 08af 76080000 		.long	0x876
 1909 08b3 2D       		.byte	0x2d
 1910 08b4 0D       		.byte	0xd
GAS LISTING /tmp/ccgNg7u5.s 			page 36


 1911 08b5 05       		.uleb128 0x5
 1912 08b6 03       		.byte	0x3
 1913 08b7 00000000 		.long	ch_system
 1914 08bb 19       		.uleb128 0x19
 1915 08bc 90080000 		.long	0x890
 1916 08c0 32       		.byte	0x32
 1917 08c1 23       		.byte	0x23
 1918 08c2 05       		.uleb128 0x5
 1919 08c3 03       		.byte	0x3
 1920 08c4 00000000 		.long	ch0
 1921 08c8 31       		.uleb128 0x31
 1922 08c9 AE040000 		.long	0x4ae
 1923 08cd 10       		.byte	0x10
 1924 08ce DA080000 		.long	0x8da
 1925 08d2 32       		.uleb128 0x32
 1926 08d3 39000000 		.long	0x39
 1927 08d7 1204     		.value	0x412
 1928 08d9 00       		.byte	0
 1929 08da 33       		.uleb128 0x33
 1930 08db 0F060000 		.long	.LASF136
 1931 08df 01       		.byte	0x1
 1932 08e0 38       		.byte	0x38
 1933 08e1 1C       		.byte	0x1c
 1934 08e2 C8080000 		.long	0x8c8
 1935 08e6 10       		.byte	0x10
 1936 08e7 05       		.uleb128 0x5
 1937 08e8 03       		.byte	0x3
 1938 08e9 00000000 		.long	ch_c0_idle_thread_wa
 1939 08ed 1E       		.uleb128 0x1e
 1940 08ee 97030000 		.long	.LASF137
 1941 08f2 12       		.byte	0x12
 1942 08f3 AE040000 		.long	0x4ae
 1943 08f7 1E       		.uleb128 0x1e
 1944 08f8 8E060000 		.long	.LASF138
 1945 08fc 2E       		.byte	0x2e
 1946 08fd AE040000 		.long	0x4ae
 1947 0901 19       		.uleb128 0x19
 1948 0902 83080000 		.long	0x883
 1949 0906 41       		.byte	0x41
 1950 0907 1C       		.byte	0x1c
 1951 0908 05       		.uleb128 0x5
 1952 0909 03       		.byte	0x3
 1953 090a 00000000 		.long	ch_core0_cfg
 1954 090e 34       		.uleb128 0x34
 1955 090f 07020000 		.long	.LASF165
 1956 0913 04       		.byte	0x4
 1957 0914 2601     		.value	0x126
 1958 0916 0B       		.byte	0xb
 1959 0917 F9000000 		.long	0xf9
 1960 091b 1A       		.uleb128 0x1a
 1961 091c 91020000 		.long	.LASF139
 1962 0920 13       		.byte	0x13
 1963 0921 6D       		.byte	0x6d
 1964 0922 35       		.uleb128 0x35
 1965 0923 B1040000 		.long	.LASF140
 1966 0927 14       		.byte	0x14
 1967 0928 6401     		.value	0x164
GAS LISTING /tmp/ccgNg7u5.s 			page 37


 1968 092a 08       		.byte	0x8
 1969 092b 1A       		.uleb128 0x1a
 1970 092c 2A030000 		.long	.LASF141
 1971 0930 15       		.byte	0x15
 1972 0931 9E       		.byte	0x9e
 1973 0932 1A       		.uleb128 0x1a
 1974 0933 BC030000 		.long	.LASF142
 1975 0937 16       		.byte	0x16
 1976 0938 7B       		.byte	0x7b
 1977 0939 11       		.uleb128 0x11
 1978 093a CF040000 		.long	.LASF143
 1979 093e 02       		.byte	0x2
 1980 093f 65       		.byte	0x65
 1981 0940 11       		.byte	0x11
 1982 0941 4B090000 		.long	0x94b
 1983 0945 0A       		.uleb128 0xa
 1984 0946 4B090000 		.long	0x94b
 1985 094a 00       		.byte	0
 1986 094b 04       		.uleb128 0x4
 1987 094c B3050000 		.long	0x5b3
 1988 0950 11       		.uleb128 0x11
 1989 0951 B8000000 		.long	.LASF144
 1990 0955 02       		.byte	0x2
 1991 0956 64       		.byte	0x64
 1992 0957 11       		.byte	0x11
 1993 0958 62090000 		.long	0x962
 1994 095c 0A       		.uleb128 0xa
 1995 095d 4B090000 		.long	0x94b
 1996 0961 00       		.byte	0
 1997 0962 11       		.uleb128 0x11
 1998 0963 7F000000 		.long	.LASF145
 1999 0967 02       		.byte	0x2
 2000 0968 62       		.byte	0x62
 2001 0969 08       		.byte	0x8
 2002 096a 74090000 		.long	0x974
 2003 096e 0A       		.uleb128 0xa
 2004 096f 4B090000 		.long	0x94b
 2005 0973 00       		.byte	0
 2006 0974 11       		.uleb128 0x11
 2007 0975 8C070000 		.long	.LASF146
 2008 0979 17       		.byte	0x17
 2009 097a 49       		.byte	0x49
 2010 097b 08       		.byte	0x8
 2011 097c 8B090000 		.long	0x98b
 2012 0980 0A       		.uleb128 0xa
 2013 0981 86070000 		.long	0x786
 2014 0985 0A       		.uleb128 0xa
 2015 0986 22080000 		.long	0x822
 2016 098a 00       		.byte	0
 2017 098b 1F       		.uleb128 0x1f
 2018 098c 0C040000 		.long	.LASF148
 2019 0990 E401     		.value	0x1e4
 2020 0992 00000000 		.long	.LFB210
 2021 0996 2F000000 		.long	.LFE210-.LFB210
 2022 099a 01       		.uleb128 0x1
 2023 099b 9C       		.byte	0x9c
 2024 099c 2E0A0000 		.long	0xa2e
GAS LISTING /tmp/ccgNg7u5.s 			page 38


 2025 09a0 36       		.uleb128 0x36
 2026 09a1 F0070000 		.long	.LASF153
 2027 09a5 01       		.byte	0x1
 2028 09a6 E401     		.value	0x1e4
 2029 09a8 20       		.byte	0x20
 2030 09a9 F9000000 		.long	0xf9
 2031 09ad 02       		.uleb128 0x2
 2032 09ae 91       		.byte	0x91
 2033 09af 00       		.sleb128 0
 2034 09b0 37       		.uleb128 0x37
 2035 09b1 33060000 		.long	.LASF147
 2036 09b5 01       		.byte	0x1
 2037 09b6 E501     		.value	0x1e5
 2038 09b8 0B       		.byte	0xb
 2039 09b9 F9000000 		.long	0xf9
 2040 09bd 10000000 		.long	.LLST15
 2041 09c1 0C000000 		.long	.LVUS15
 2042 09c5 0B       		.uleb128 0xb
 2043 09c6 656E6400 		.string	"end"
 2044 09ca E601     		.value	0x1e6
 2045 09cc 0B       		.byte	0xb
 2046 09cd F9000000 		.long	0xf9
 2047 09d1 24000000 		.long	.LLST16
 2048 09d5 20000000 		.long	.LVUS16
 2049 09d9 38       		.uleb128 0x38
 2050 09da 2E0A0000 		.long	0xa2e
 2051 09de 25000000 		.long	.LBI47
 2052 09e2 00       		.byte	.LVU215
 2053 09e3 25000000 		.long	.LBB47
 2054 09e7 02000000 		.long	.LBE47-.LBB47
 2055 09eb 01       		.byte	0x1
 2056 09ec E801     		.value	0x1e8
 2057 09ee 0A       		.byte	0xa
 2058 09ef 1B0A0000 		.long	0xa1b
 2059 09f3 12       		.uleb128 0x12
 2060 09f4 570A0000 		.long	0xa57
 2061 09f8 42000000 		.long	.LLST17
 2062 09fc 40000000 		.long	.LVUS17
 2063 0a00 12       		.uleb128 0x12
 2064 0a01 4A0A0000 		.long	0xa4a
 2065 0a05 53000000 		.long	.LLST18
 2066 0a09 51000000 		.long	.LVUS18
 2067 0a0d 12       		.uleb128 0x12
 2068 0a0e 400A0000 		.long	0xa40
 2069 0a12 5E000000 		.long	.LLST19
 2070 0a16 5C000000 		.long	.LVUS19
 2071 0a1a 00       		.byte	0
 2072 0a1b 08       		.uleb128 0x8
 2073 0a1c 17000000 		.long	.LVL53
 2074 0a20 0E090000 		.long	0x90e
 2075 0a24 08       		.uleb128 0x8
 2076 0a25 25000000 		.long	.LVL55
 2077 0a29 0E090000 		.long	0x90e
 2078 0a2d 00       		.byte	0
 2079 0a2e 39       		.uleb128 0x39
 2080 0a2f EB030000 		.long	.LASF166
 2081 0a33 01       		.byte	0x1
GAS LISTING /tmp/ccgNg7u5.s 			page 39


 2082 0a34 D301     		.value	0x1d3
 2083 0a36 06       		.byte	0x6
 2084 0a37 35050000 		.long	0x535
 2085 0a3b 01       		.byte	0x1
 2086 0a3c 620A0000 		.long	0xa62
 2087 0a40 20       		.uleb128 0x20
 2088 0a41 636E7400 		.string	"cnt"
 2089 0a45 24       		.byte	0x24
 2090 0a46 F9000000 		.long	0xf9
 2091 0a4a 3A       		.uleb128 0x3a
 2092 0a4b 33060000 		.long	.LASF147
 2093 0a4f 01       		.byte	0x1
 2094 0a50 D301     		.value	0x1d3
 2095 0a52 31       		.byte	0x31
 2096 0a53 F9000000 		.long	0xf9
 2097 0a57 20       		.uleb128 0x20
 2098 0a58 656E6400 		.string	"end"
 2099 0a5c 40       		.byte	0x40
 2100 0a5d F9000000 		.long	0xf9
 2101 0a61 00       		.byte	0
 2102 0a62 1F       		.uleb128 0x1f
 2103 0a63 58000000 		.long	.LASF149
 2104 0a67 7401     		.value	0x174
 2105 0a69 00000000 		.long	.LFB208
 2106 0a6d 19000000 		.long	.LFE208-.LFB208
 2107 0a71 01       		.uleb128 0x1
 2108 0a72 9C       		.byte	0x9c
 2109 0a73 810A0000 		.long	0xa81
 2110 0a77 08       		.uleb128 0x8
 2111 0a78 14000000 		.long	.LVL50
 2112 0a7c 1B090000 		.long	0x91b
 2113 0a80 00       		.byte	0
 2114 0a81 3B       		.uleb128 0x3b
 2115 0a82 A1070000 		.long	.LASF150
 2116 0a86 01       		.byte	0x1
 2117 0a87 0A01     		.value	0x10a
 2118 0a89 06       		.byte	0x6
 2119 0a8a 35050000 		.long	0x535
 2120 0a8e 00000000 		.long	.LFB207
 2121 0a92 2A010000 		.long	.LFE207-.LFB207
 2122 0a96 01       		.uleb128 0x1
 2123 0a97 9C       		.byte	0x9c
 2124 0a98 450B0000 		.long	0xb45
 2125 0a9c 3C       		.uleb128 0x3c
 2126 0a9d A6000000 		.long	.LASF167
 2127 0aa1 01       		.byte	0x1
 2128 0aa2 0A01     		.value	0x10a
 2129 0aa4 24       		.byte	0x24
 2130 0aa5 39000000 		.long	0x39
 2131 0aa9 6B000000 		.long	.LLST7
 2132 0aad 67000000 		.long	.LVUS7
 2133 0ab1 3D       		.uleb128 0x3d
 2134 0ab2 6F697000 		.string	"oip"
 2135 0ab6 01       		.byte	0x1
 2136 0ab7 0B01     		.value	0x10b
 2137 0ab9 12       		.byte	0x12
 2138 0aba 86070000 		.long	0x786
GAS LISTING /tmp/ccgNg7u5.s 			page 40


 2139 0abe 06       		.uleb128 0x6
 2140 0abf 03       		.byte	0x3
 2141 0ac0 00000000 		.long	ch0
 2142 0ac4 9F       		.byte	0x9f
 2143 0ac5 0B       		.uleb128 0xb
 2144 0ac6 6E00     		.string	"n"
 2145 0ac8 0C01     		.value	0x10c
 2146 0aca 09       		.byte	0x9
 2147 0acb 65010000 		.long	0x165
 2148 0acf 93000000 		.long	.LLST8
 2149 0ad3 7F000000 		.long	.LVUS8
 2150 0ad7 21       		.uleb128 0x21
 2151 0ad8 33000000 		.long	.LLRL9
 2152 0adc F50A0000 		.long	0xaf5
 2153 0ae0 0B       		.uleb128 0xb
 2154 0ae1 70717000 		.string	"pqp"
 2155 0ae5 1201     		.value	0x112
 2156 0ae7 1A       		.byte	0x1a
 2157 0ae8 3F040000 		.long	0x43f
 2158 0aec EB000000 		.long	.LLST10
 2159 0af0 DD000000 		.long	.LVUS10
 2160 0af4 00       		.byte	0
 2161 0af5 21       		.uleb128 0x21
 2162 0af6 46000000 		.long	.LLRL11
 2163 0afa 130B0000 		.long	0xb13
 2164 0afe 0B       		.uleb128 0xb
 2165 0aff 646C7000 		.string	"dlp"
 2166 0b03 2B01     		.value	0x12b
 2167 0b05 16       		.byte	0x16
 2168 0b06 85040000 		.long	0x485
 2169 0b0a 2E010000 		.long	.LLST12
 2170 0b0e 20010000 		.long	.LVUS12
 2171 0b12 00       		.byte	0
 2172 0b13 3E       		.uleb128 0x3e
 2173 0b14 C2000000 		.long	.LBB44
 2174 0b18 3D000000 		.long	.LBE44-.LBB44
 2175 0b1c 0B       		.uleb128 0xb
 2176 0b1d 717000   		.string	"qp"
 2177 0b20 4401     		.value	0x144
 2178 0b22 11       		.byte	0x11
 2179 0b23 F9030000 		.long	0x3f9
 2180 0b27 69010000 		.long	.LLST13
 2181 0b2b 63010000 		.long	.LVUS13
 2182 0b2f 0B       		.uleb128 0xb
 2183 0b30 72717000 		.string	"rqp"
 2184 0b34 4401     		.value	0x144
 2185 0b36 16       		.byte	0x16
 2186 0b37 F9030000 		.long	0x3f9
 2187 0b3b 80010000 		.long	.LLST14
 2188 0b3f 7E010000 		.long	.LVUS14
 2189 0b43 00       		.byte	0
 2190 0b44 00       		.byte	0
 2191 0b45 3F       		.uleb128 0x3f
 2192 0b46 CC060000 		.long	.LASF151
 2193 0b4a 01       		.byte	0x1
 2194 0b4b EA       		.byte	0xea
 2195 0b4c 0B       		.byte	0xb
GAS LISTING /tmp/ccgNg7u5.s 			page 41


 2196 0b4d 66060000 		.long	0x666
 2197 0b51 00000000 		.long	.LFB206
 2198 0b55 11000000 		.long	.LFE206-.LFB206
 2199 0b59 01       		.uleb128 0x1
 2200 0b5a 9C       		.byte	0x9c
 2201 0b5b 7B0B0000 		.long	0xb7b
 2202 0b5f 22       		.uleb128 0x22
 2203 0b60 747000   		.string	"tp"
 2204 0b63 EB       		.byte	0xeb
 2205 0b64 0D       		.byte	0xd
 2206 0b65 66060000 		.long	0x666
 2207 0b69 90010000 		.long	.LLST6
 2208 0b6d 8E010000 		.long	.LVUS6
 2209 0b71 23       		.uleb128 0x23
 2210 0b72 BE070000 		.long	.LASF157
 2211 0b76 8B0B0000 		.long	0xb8b
 2212 0b7a 00       		.byte	0
 2213 0b7b 0E       		.uleb128 0xe
 2214 0b7c BF000000 		.long	0xbf
 2215 0b80 8B0B0000 		.long	0xb8b
 2216 0b84 0F       		.uleb128 0xf
 2217 0b85 39000000 		.long	0x39
 2218 0b89 13       		.byte	0x13
 2219 0b8a 00       		.byte	0
 2220 0b8b 0C       		.uleb128 0xc
 2221 0b8c 7B0B0000 		.long	0xb7b
 2222 0b90 1B       		.uleb128 0x1b
 2223 0b91 1A070000 		.long	.LASF152
 2224 0b95 C3       		.byte	0xc3
 2225 0b96 00000000 		.long	.LFB205
 2226 0b9a 2C000000 		.long	.LFE205-.LFB205
 2227 0b9e 01       		.uleb128 0x1
 2228 0b9f 9C       		.byte	0x9c
 2229 0ba0 C40B0000 		.long	0xbc4
 2230 0ba4 24       		.uleb128 0x24
 2231 0ba5 21020000 		.long	.LASF154
 2232 0ba9 C3       		.byte	0xc3
 2233 0baa 1C       		.byte	0x1c
 2234 0bab 66030000 		.long	0x366
 2235 0baf 02       		.uleb128 0x2
 2236 0bb0 91       		.byte	0x91
 2237 0bb1 00       		.sleb128 0
 2238 0bb2 40       		.uleb128 0x40
 2239 0bb3 3E0D0000 		.long	0xd3e
 2240 0bb7 00000000 		.long	.LBI36
 2241 0bbb 02       		.byte	.LVU65
 2242 0bbc 27000000 		.long	.LLRL5
 2243 0bc0 01       		.byte	0x1
 2244 0bc1 C5       		.byte	0xc5
 2245 0bc2 03       		.byte	0x3
 2246 0bc3 00       		.byte	0
 2247 0bc4 1B       		.uleb128 0x1b
 2248 0bc5 40030000 		.long	.LASF155
 2249 0bc9 91       		.byte	0x91
 2250 0bca 00000000 		.long	.LFB204
 2251 0bce C7000000 		.long	.LFE204-.LFB204
 2252 0bd2 01       		.uleb128 0x1
GAS LISTING /tmp/ccgNg7u5.s 			page 42


 2253 0bd3 9C       		.byte	0x9c
 2254 0bd4 B40C0000 		.long	0xcb4
 2255 0bd8 22       		.uleb128 0x22
 2256 0bd9 6900     		.string	"i"
 2257 0bdb 92       		.byte	0x92
 2258 0bdc 0C       		.byte	0xc
 2259 0bdd 39000000 		.long	0x39
 2260 0be1 A1010000 		.long	.LLST0
 2261 0be5 9D010000 		.long	.LVUS0
 2262 0be9 25       		.uleb128 0x25
 2263 0bea 0C0D0000 		.long	0xd0c
 2264 0bee 3B000000 		.long	.LBI20
 2265 0bf2 03       		.byte	.LVU22
 2266 0bf3 0C000000 		.long	.LLRL1
 2267 0bf7 9C       		.byte	0x9c
 2268 0bf8 400C0000 		.long	0xc40
 2269 0bfc 12       		.uleb128 0x12
 2270 0bfd 190D0000 		.long	0xd19
 2271 0c01 B6010000 		.long	.LLST2
 2272 0c05 B4010000 		.long	.LVUS2
 2273 0c09 26       		.uleb128 0x26
 2274 0c0a 0C000000 		.long	.LLRL1
 2275 0c0e 41       		.uleb128 0x41
 2276 0c0f 250D0000 		.long	0xd25
 2277 0c13 CC010000 		.long	.LLST3
 2278 0c17 C4010000 		.long	.LVUS3
 2279 0c1b 42       		.uleb128 0x42
 2280 0c1c 2E0D0000 		.long	0xd2e
 2281 0c20 02       		.uleb128 0x2
 2282 0c21 91       		.byte	0x91
 2283 0c22 54       		.sleb128 -44
 2284 0c23 08       		.uleb128 0x8
 2285 0c24 4A000000 		.long	.LVL3
 2286 0c28 62090000 		.long	0x962
 2287 0c2c 08       		.uleb128 0x8
 2288 0c2d 56000000 		.long	.LVL5
 2289 0c31 50090000 		.long	0x950
 2290 0c35 08       		.uleb128 0x8
 2291 0c36 5E000000 		.long	.LVL6
 2292 0c3a 39090000 		.long	0x939
 2293 0c3e 00       		.byte	0
 2294 0c3f 00       		.byte	0
 2295 0c40 43       		.uleb128 0x43
 2296 0c41 D70C0000 		.long	0xcd7
 2297 0c45 70000000 		.long	.LBI26
 2298 0c49 04       		.byte	.LVU42
 2299 0c4a 70000000 		.long	.LBB26
 2300 0c4e 0F000000 		.long	.LBE26-.LBB26
 2301 0c52 01       		.byte	0x1
 2302 0c53 AD       		.byte	0xad
 2303 0c54 03       		.byte	0x3
 2304 0c55 750C0000 		.long	0xc75
 2305 0c59 08       		.uleb128 0x8
 2306 0c5a 75000000 		.long	.LVL9
 2307 0c5e 32090000 		.long	0x932
 2308 0c62 08       		.uleb128 0x8
 2309 0c63 7A000000 		.long	.LVL10
GAS LISTING /tmp/ccgNg7u5.s 			page 43


 2310 0c67 2B090000 		.long	0x92b
 2311 0c6b 08       		.uleb128 0x8
 2312 0c6c 7F000000 		.long	.LVL11
 2313 0c70 22090000 		.long	0x922
 2314 0c74 00       		.byte	0
 2315 0c75 25       		.uleb128 0x25
 2316 0c76 DF0C0000 		.long	0xcdf
 2317 0c7a A8000000 		.long	.LBI28
 2318 0c7e 01       		.byte	.LVU52
 2319 0c7f 1B000000 		.long	.LLRL4
 2320 0c83 B4       		.byte	0xb4
 2321 0c84 A10C0000 		.long	0xca1
 2322 0c88 26       		.uleb128 0x26
 2323 0c89 1B000000 		.long	.LLRL4
 2324 0c8d 44       		.uleb128 0x44
 2325 0c8e 460D0000 		.long	0xd46
 2326 0c92 A8000000 		.long	.LBI30
 2327 0c96 08       		.byte	.LVU59
 2328 0c97 1B000000 		.long	.LLRL4
 2329 0c9b 05       		.byte	0x5
 2330 0c9c B201     		.value	0x1b2
 2331 0c9e 03       		.byte	0x3
 2332 0c9f 00       		.byte	0
 2333 0ca0 00       		.byte	0
 2334 0ca1 08       		.uleb128 0x8
 2335 0ca2 95000000 		.long	.LVL12
 2336 0ca6 74090000 		.long	0x974
 2337 0caa 08       		.uleb128 0x8
 2338 0cab C7000000 		.long	.LVL13
 2339 0caf 7A0D0000 		.long	0xd7a
 2340 0cb3 00       		.byte	0
 2341 0cb4 1B       		.uleb128 0x1b
 2342 0cb5 AB020000 		.long	.LASF156
 2343 0cb9 80       		.byte	0x80
 2344 0cba 00000000 		.long	.LFB203
 2345 0cbe 1D000000 		.long	.LFE203-.LFB203
 2346 0cc2 01       		.uleb128 0x1
 2347 0cc3 9C       		.byte	0x9c
 2348 0cc4 D70C0000 		.long	0xcd7
 2349 0cc8 24       		.uleb128 0x24
 2350 0cc9 14070000 		.long	.LASF39
 2351 0ccd 80       		.byte	0x80
 2352 0cce 2A       		.byte	0x2a
 2353 0ccf E6050000 		.long	0x5e6
 2354 0cd3 02       		.uleb128 0x2
 2355 0cd4 91       		.byte	0x91
 2356 0cd5 00       		.sleb128 0
 2357 0cd6 00       		.byte	0
 2358 0cd7 1C       		.uleb128 0x1c
 2359 0cd8 1E040000 		.long	.LASF160
 2360 0cdc 03       		.byte	0x3
 2361 0cdd 0001     		.value	0x100
 2362 0cdf 45       		.uleb128 0x45
 2363 0ce0 4C020000 		.long	.LASF158
 2364 0ce4 05       		.byte	0x5
 2365 0ce5 A501     		.value	0x1a5
 2366 0ce7 14       		.byte	0x14
GAS LISTING /tmp/ccgNg7u5.s 			page 44


 2367 0ce8 03       		.byte	0x3
 2368 0ce9 F70C0000 		.long	0xcf7
 2369 0ced 23       		.uleb128 0x23
 2370 0cee BE070000 		.long	.LASF157
 2371 0cf2 070D0000 		.long	0xd07
 2372 0cf6 00       		.byte	0
 2373 0cf7 0E       		.uleb128 0xe
 2374 0cf8 BF000000 		.long	0xbf
 2375 0cfc 070D0000 		.long	0xd07
 2376 0d00 0F       		.uleb128 0xf
 2377 0d01 39000000 		.long	0x39
 2378 0d05 0B       		.byte	0xb
 2379 0d06 00       		.byte	0
 2380 0d07 0C       		.uleb128 0xc
 2381 0d08 F70C0000 		.long	0xcf7
 2382 0d0c 46       		.uleb128 0x46
 2383 0d0d D3070000 		.long	.LASF159
 2384 0d11 02       		.byte	0x2
 2385 0d12 78       		.byte	0x78
 2386 0d13 14       		.byte	0x14
 2387 0d14 03       		.byte	0x3
 2388 0d15 390D0000 		.long	0xd39
 2389 0d19 47       		.uleb128 0x47
 2390 0d1a 74637000 		.string	"tcp"
 2391 0d1e 02       		.byte	0x2
 2392 0d1f 78       		.byte	0x78
 2393 0d20 43       		.byte	0x43
 2394 0d21 390D0000 		.long	0xd39
 2395 0d25 27       		.uleb128 0x27
 2396 0d26 6900     		.string	"i"
 2397 0d28 79       		.byte	0x79
 2398 0d29 0C       		.byte	0xc
 2399 0d2a 39000000 		.long	0x39
 2400 0d2e 27       		.uleb128 0x27
 2401 0d2f 746D00   		.string	"tm"
 2402 0d32 7A       		.byte	0x7a
 2403 0d33 16       		.byte	0x16
 2404 0d34 B3050000 		.long	0x5b3
 2405 0d38 00       		.byte	0
 2406 0d39 04       		.uleb128 0x4
 2407 0d3a 5F050000 		.long	0x55f
 2408 0d3e 1C       		.uleb128 0x1c
 2409 0d3f 28020000 		.long	.LASF161
 2410 0d43 04       		.byte	0x4
 2411 0d44 8E01     		.value	0x18e
 2412 0d46 1C       		.uleb128 0x1c
 2413 0d47 C7070000 		.long	.LASF162
 2414 0d4b 04       		.byte	0x4
 2415 0d4c 7201     		.value	0x172
 2416 0d4e 48       		.uleb128 0x48
 2417 0d4f 2E0A0000 		.long	0xa2e
 2418 0d53 00000000 		.long	.LFB209
 2419 0d57 16000000 		.long	.LFE209-.LFB209
 2420 0d5b 01       		.uleb128 0x1
 2421 0d5c 9C       		.byte	0x9c
 2422 0d5d 7A0D0000 		.long	0xd7a
 2423 0d61 1D       		.uleb128 0x1d
GAS LISTING /tmp/ccgNg7u5.s 			page 45


 2424 0d62 400A0000 		.long	0xa40
 2425 0d66 02       		.uleb128 0x2
 2426 0d67 91       		.byte	0x91
 2427 0d68 00       		.sleb128 0
 2428 0d69 1D       		.uleb128 0x1d
 2429 0d6a 4A0A0000 		.long	0xa4a
 2430 0d6e 02       		.uleb128 0x2
 2431 0d6f 91       		.byte	0x91
 2432 0d70 04       		.sleb128 4
 2433 0d71 1D       		.uleb128 0x1d
 2434 0d72 570A0000 		.long	0xa57
 2435 0d76 02       		.uleb128 0x2
 2436 0d77 91       		.byte	0x91
 2437 0d78 08       		.sleb128 8
 2438 0d79 00       		.byte	0
 2439 0d7a 49       		.uleb128 0x49
 2440 0d7b 06080000 		.long	.LASF168
 2441 0d7f 06080000 		.long	.LASF168
 2442 0d83 00       		.byte	0
 2443              		.section	.debug_abbrev,"",@progbits
 2444              	.Ldebug_abbrev0:
 2445 0000 01       		.uleb128 0x1
 2446 0001 16       		.uleb128 0x16
 2447 0002 00       		.byte	0
 2448 0003 03       		.uleb128 0x3
 2449 0004 0E       		.uleb128 0xe
 2450 0005 3A       		.uleb128 0x3a
 2451 0006 0B       		.uleb128 0xb
 2452 0007 3B       		.uleb128 0x3b
 2453 0008 0B       		.uleb128 0xb
 2454 0009 39       		.uleb128 0x39
 2455 000a 0B       		.uleb128 0xb
 2456 000b 49       		.uleb128 0x49
 2457 000c 13       		.uleb128 0x13
 2458 000d 00       		.byte	0
 2459 000e 00       		.byte	0
 2460 000f 02       		.uleb128 0x2
 2461 0010 0D       		.uleb128 0xd
 2462 0011 00       		.byte	0
 2463 0012 03       		.uleb128 0x3
 2464 0013 0E       		.uleb128 0xe
 2465 0014 3A       		.uleb128 0x3a
 2466 0015 0B       		.uleb128 0xb
 2467 0016 3B       		.uleb128 0x3b
 2468 0017 0B       		.uleb128 0xb
 2469 0018 39       		.uleb128 0x39
 2470 0019 0B       		.uleb128 0xb
 2471 001a 49       		.uleb128 0x49
 2472 001b 13       		.uleb128 0x13
 2473 001c 38       		.uleb128 0x38
 2474 001d 0B       		.uleb128 0xb
 2475 001e 00       		.byte	0
 2476 001f 00       		.byte	0
 2477 0020 03       		.uleb128 0x3
 2478 0021 0D       		.uleb128 0xd
 2479 0022 00       		.byte	0
 2480 0023 03       		.uleb128 0x3
GAS LISTING /tmp/ccgNg7u5.s 			page 46


 2481 0024 0E       		.uleb128 0xe
 2482 0025 3A       		.uleb128 0x3a
 2483 0026 21       		.uleb128 0x21
 2484 0027 0C       		.sleb128 12
 2485 0028 3B       		.uleb128 0x3b
 2486 0029 05       		.uleb128 0x5
 2487 002a 39       		.uleb128 0x39
 2488 002b 0B       		.uleb128 0xb
 2489 002c 49       		.uleb128 0x49
 2490 002d 13       		.uleb128 0x13
 2491 002e 38       		.uleb128 0x38
 2492 002f 0B       		.uleb128 0xb
 2493 0030 00       		.byte	0
 2494 0031 00       		.byte	0
 2495 0032 04       		.uleb128 0x4
 2496 0033 0F       		.uleb128 0xf
 2497 0034 00       		.byte	0
 2498 0035 0B       		.uleb128 0xb
 2499 0036 21       		.uleb128 0x21
 2500 0037 04       		.sleb128 4
 2501 0038 49       		.uleb128 0x49
 2502 0039 13       		.uleb128 0x13
 2503 003a 00       		.byte	0
 2504 003b 00       		.byte	0
 2505 003c 05       		.uleb128 0x5
 2506 003d 24       		.uleb128 0x24
 2507 003e 00       		.byte	0
 2508 003f 0B       		.uleb128 0xb
 2509 0040 0B       		.uleb128 0xb
 2510 0041 3E       		.uleb128 0x3e
 2511 0042 0B       		.uleb128 0xb
 2512 0043 03       		.uleb128 0x3
 2513 0044 0E       		.uleb128 0xe
 2514 0045 00       		.byte	0
 2515 0046 00       		.byte	0
 2516 0047 06       		.uleb128 0x6
 2517 0048 13       		.uleb128 0x13
 2518 0049 01       		.byte	0x1
 2519 004a 03       		.uleb128 0x3
 2520 004b 0E       		.uleb128 0xe
 2521 004c 0B       		.uleb128 0xb
 2522 004d 0B       		.uleb128 0xb
 2523 004e 3A       		.uleb128 0x3a
 2524 004f 0B       		.uleb128 0xb
 2525 0050 3B       		.uleb128 0x3b
 2526 0051 0B       		.uleb128 0xb
 2527 0052 39       		.uleb128 0x39
 2528 0053 0B       		.uleb128 0xb
 2529 0054 01       		.uleb128 0x1
 2530 0055 13       		.uleb128 0x13
 2531 0056 00       		.byte	0
 2532 0057 00       		.byte	0
 2533 0058 07       		.uleb128 0x7
 2534 0059 0D       		.uleb128 0xd
 2535 005a 00       		.byte	0
 2536 005b 03       		.uleb128 0x3
 2537 005c 08       		.uleb128 0x8
GAS LISTING /tmp/ccgNg7u5.s 			page 47


 2538 005d 3A       		.uleb128 0x3a
 2539 005e 0B       		.uleb128 0xb
 2540 005f 3B       		.uleb128 0x3b
 2541 0060 0B       		.uleb128 0xb
 2542 0061 39       		.uleb128 0x39
 2543 0062 0B       		.uleb128 0xb
 2544 0063 49       		.uleb128 0x49
 2545 0064 13       		.uleb128 0x13
 2546 0065 38       		.uleb128 0x38
 2547 0066 0B       		.uleb128 0xb
 2548 0067 00       		.byte	0
 2549 0068 00       		.byte	0
 2550 0069 08       		.uleb128 0x8
 2551 006a 48       		.uleb128 0x48
 2552 006b 00       		.byte	0
 2553 006c 7D       		.uleb128 0x7d
 2554 006d 01       		.uleb128 0x1
 2555 006e 7F       		.uleb128 0x7f
 2556 006f 13       		.uleb128 0x13
 2557 0070 00       		.byte	0
 2558 0071 00       		.byte	0
 2559 0072 09       		.uleb128 0x9
 2560 0073 0D       		.uleb128 0xd
 2561 0074 00       		.byte	0
 2562 0075 03       		.uleb128 0x3
 2563 0076 0E       		.uleb128 0xe
 2564 0077 3A       		.uleb128 0x3a
 2565 0078 21       		.uleb128 0x21
 2566 0079 0C       		.sleb128 12
 2567 007a 3B       		.uleb128 0x3b
 2568 007b 05       		.uleb128 0x5
 2569 007c 39       		.uleb128 0x39
 2570 007d 0B       		.uleb128 0xb
 2571 007e 49       		.uleb128 0x49
 2572 007f 13       		.uleb128 0x13
 2573 0080 00       		.byte	0
 2574 0081 00       		.byte	0
 2575 0082 0A       		.uleb128 0xa
 2576 0083 05       		.uleb128 0x5
 2577 0084 00       		.byte	0
 2578 0085 49       		.uleb128 0x49
 2579 0086 13       		.uleb128 0x13
 2580 0087 00       		.byte	0
 2581 0088 00       		.byte	0
 2582 0089 0B       		.uleb128 0xb
 2583 008a 34       		.uleb128 0x34
 2584 008b 00       		.byte	0
 2585 008c 03       		.uleb128 0x3
 2586 008d 08       		.uleb128 0x8
 2587 008e 3A       		.uleb128 0x3a
 2588 008f 21       		.uleb128 0x21
 2589 0090 01       		.sleb128 1
 2590 0091 3B       		.uleb128 0x3b
 2591 0092 05       		.uleb128 0x5
 2592 0093 39       		.uleb128 0x39
 2593 0094 0B       		.uleb128 0xb
 2594 0095 49       		.uleb128 0x49
GAS LISTING /tmp/ccgNg7u5.s 			page 48


 2595 0096 13       		.uleb128 0x13
 2596 0097 02       		.uleb128 0x2
 2597 0098 17       		.uleb128 0x17
 2598 0099 B742     		.uleb128 0x2137
 2599 009b 17       		.uleb128 0x17
 2600 009c 00       		.byte	0
 2601 009d 00       		.byte	0
 2602 009e 0C       		.uleb128 0xc
 2603 009f 26       		.uleb128 0x26
 2604 00a0 00       		.byte	0
 2605 00a1 49       		.uleb128 0x49
 2606 00a2 13       		.uleb128 0x13
 2607 00a3 00       		.byte	0
 2608 00a4 00       		.byte	0
 2609 00a5 0D       		.uleb128 0xd
 2610 00a6 13       		.uleb128 0x13
 2611 00a7 01       		.byte	0x1
 2612 00a8 03       		.uleb128 0x3
 2613 00a9 0E       		.uleb128 0xe
 2614 00aa 0B       		.uleb128 0xb
 2615 00ab 0B       		.uleb128 0xb
 2616 00ac 3A       		.uleb128 0x3a
 2617 00ad 21       		.uleb128 0x21
 2618 00ae 0C       		.sleb128 12
 2619 00af 3B       		.uleb128 0x3b
 2620 00b0 05       		.uleb128 0x5
 2621 00b1 39       		.uleb128 0x39
 2622 00b2 0B       		.uleb128 0xb
 2623 00b3 01       		.uleb128 0x1
 2624 00b4 13       		.uleb128 0x13
 2625 00b5 00       		.byte	0
 2626 00b6 00       		.byte	0
 2627 00b7 0E       		.uleb128 0xe
 2628 00b8 01       		.uleb128 0x1
 2629 00b9 01       		.byte	0x1
 2630 00ba 49       		.uleb128 0x49
 2631 00bb 13       		.uleb128 0x13
 2632 00bc 01       		.uleb128 0x1
 2633 00bd 13       		.uleb128 0x13
 2634 00be 00       		.byte	0
 2635 00bf 00       		.byte	0
 2636 00c0 0F       		.uleb128 0xf
 2637 00c1 21       		.uleb128 0x21
 2638 00c2 00       		.byte	0
 2639 00c3 49       		.uleb128 0x49
 2640 00c4 13       		.uleb128 0x13
 2641 00c5 2F       		.uleb128 0x2f
 2642 00c6 0B       		.uleb128 0xb
 2643 00c7 00       		.byte	0
 2644 00c8 00       		.byte	0
 2645 00c9 10       		.uleb128 0x10
 2646 00ca 28       		.uleb128 0x28
 2647 00cb 00       		.byte	0
 2648 00cc 03       		.uleb128 0x3
 2649 00cd 0E       		.uleb128 0xe
 2650 00ce 1C       		.uleb128 0x1c
 2651 00cf 0B       		.uleb128 0xb
GAS LISTING /tmp/ccgNg7u5.s 			page 49


 2652 00d0 00       		.byte	0
 2653 00d1 00       		.byte	0
 2654 00d2 11       		.uleb128 0x11
 2655 00d3 2E       		.uleb128 0x2e
 2656 00d4 01       		.byte	0x1
 2657 00d5 3F       		.uleb128 0x3f
 2658 00d6 19       		.uleb128 0x19
 2659 00d7 03       		.uleb128 0x3
 2660 00d8 0E       		.uleb128 0xe
 2661 00d9 3A       		.uleb128 0x3a
 2662 00da 0B       		.uleb128 0xb
 2663 00db 3B       		.uleb128 0x3b
 2664 00dc 0B       		.uleb128 0xb
 2665 00dd 39       		.uleb128 0x39
 2666 00de 0B       		.uleb128 0xb
 2667 00df 27       		.uleb128 0x27
 2668 00e0 19       		.uleb128 0x19
 2669 00e1 3C       		.uleb128 0x3c
 2670 00e2 19       		.uleb128 0x19
 2671 00e3 01       		.uleb128 0x1
 2672 00e4 13       		.uleb128 0x13
 2673 00e5 00       		.byte	0
 2674 00e6 00       		.byte	0
 2675 00e7 12       		.uleb128 0x12
 2676 00e8 05       		.uleb128 0x5
 2677 00e9 00       		.byte	0
 2678 00ea 31       		.uleb128 0x31
 2679 00eb 13       		.uleb128 0x13
 2680 00ec 02       		.uleb128 0x2
 2681 00ed 17       		.uleb128 0x17
 2682 00ee B742     		.uleb128 0x2137
 2683 00f0 17       		.uleb128 0x17
 2684 00f1 00       		.byte	0
 2685 00f2 00       		.byte	0
 2686 00f3 13       		.uleb128 0x13
 2687 00f4 35       		.uleb128 0x35
 2688 00f5 00       		.byte	0
 2689 00f6 49       		.uleb128 0x49
 2690 00f7 13       		.uleb128 0x13
 2691 00f8 00       		.byte	0
 2692 00f9 00       		.byte	0
 2693 00fa 14       		.uleb128 0x14
 2694 00fb 0D       		.uleb128 0xd
 2695 00fc 00       		.byte	0
 2696 00fd 03       		.uleb128 0x3
 2697 00fe 08       		.uleb128 0x8
 2698 00ff 3A       		.uleb128 0x3a
 2699 0100 21       		.uleb128 0x21
 2700 0101 0C       		.sleb128 12
 2701 0102 3B       		.uleb128 0x3b
 2702 0103 05       		.uleb128 0x5
 2703 0104 39       		.uleb128 0x39
 2704 0105 21       		.uleb128 0x21
 2705 0106 21       		.sleb128 33
 2706 0107 49       		.uleb128 0x49
 2707 0108 13       		.uleb128 0x13
 2708 0109 38       		.uleb128 0x38
GAS LISTING /tmp/ccgNg7u5.s 			page 50


 2709 010a 0B       		.uleb128 0xb
 2710 010b 00       		.byte	0
 2711 010c 00       		.byte	0
 2712 010d 15       		.uleb128 0x15
 2713 010e 13       		.uleb128 0x13
 2714 010f 01       		.byte	0x1
 2715 0110 0B       		.uleb128 0xb
 2716 0111 0B       		.uleb128 0xb
 2717 0112 3A       		.uleb128 0x3a
 2718 0113 0B       		.uleb128 0xb
 2719 0114 3B       		.uleb128 0x3b
 2720 0115 0B       		.uleb128 0xb
 2721 0116 39       		.uleb128 0x39
 2722 0117 21       		.uleb128 0x21
 2723 0118 09       		.sleb128 9
 2724 0119 01       		.uleb128 0x1
 2725 011a 13       		.uleb128 0x13
 2726 011b 00       		.byte	0
 2727 011c 00       		.byte	0
 2728 011d 16       		.uleb128 0x16
 2729 011e 34       		.uleb128 0x34
 2730 011f 00       		.byte	0
 2731 0120 03       		.uleb128 0x3
 2732 0121 0E       		.uleb128 0xe
 2733 0122 3A       		.uleb128 0x3a
 2734 0123 0B       		.uleb128 0xb
 2735 0124 3B       		.uleb128 0x3b
 2736 0125 05       		.uleb128 0x5
 2737 0126 39       		.uleb128 0x39
 2738 0127 0B       		.uleb128 0xb
 2739 0128 49       		.uleb128 0x49
 2740 0129 13       		.uleb128 0x13
 2741 012a 3F       		.uleb128 0x3f
 2742 012b 19       		.uleb128 0x19
 2743 012c 3C       		.uleb128 0x3c
 2744 012d 19       		.uleb128 0x19
 2745 012e 00       		.byte	0
 2746 012f 00       		.byte	0
 2747 0130 17       		.uleb128 0x17
 2748 0131 0D       		.uleb128 0xd
 2749 0132 00       		.byte	0
 2750 0133 03       		.uleb128 0x3
 2751 0134 0E       		.uleb128 0xe
 2752 0135 3A       		.uleb128 0x3a
 2753 0136 21       		.uleb128 0x21
 2754 0137 0C       		.sleb128 12
 2755 0138 3B       		.uleb128 0x3b
 2756 0139 0B       		.uleb128 0xb
 2757 013a 39       		.uleb128 0x39
 2758 013b 21       		.uleb128 0x21
 2759 013c 21       		.sleb128 33
 2760 013d 49       		.uleb128 0x49
 2761 013e 13       		.uleb128 0x13
 2762 013f 00       		.byte	0
 2763 0140 00       		.byte	0
 2764 0141 18       		.uleb128 0x18
 2765 0142 16       		.uleb128 0x16
GAS LISTING /tmp/ccgNg7u5.s 			page 51


 2766 0143 00       		.byte	0
 2767 0144 03       		.uleb128 0x3
 2768 0145 0E       		.uleb128 0xe
 2769 0146 3A       		.uleb128 0x3a
 2770 0147 21       		.uleb128 0x21
 2771 0148 0C       		.sleb128 12
 2772 0149 3B       		.uleb128 0x3b
 2773 014a 05       		.uleb128 0x5
 2774 014b 39       		.uleb128 0x39
 2775 014c 21       		.uleb128 0x21
 2776 014d 03       		.sleb128 3
 2777 014e 49       		.uleb128 0x49
 2778 014f 13       		.uleb128 0x13
 2779 0150 00       		.byte	0
 2780 0151 00       		.byte	0
 2781 0152 19       		.uleb128 0x19
 2782 0153 34       		.uleb128 0x34
 2783 0154 00       		.byte	0
 2784 0155 47       		.uleb128 0x47
 2785 0156 13       		.uleb128 0x13
 2786 0157 3A       		.uleb128 0x3a
 2787 0158 21       		.uleb128 0x21
 2788 0159 01       		.sleb128 1
 2789 015a 3B       		.uleb128 0x3b
 2790 015b 0B       		.uleb128 0xb
 2791 015c 39       		.uleb128 0x39
 2792 015d 0B       		.uleb128 0xb
 2793 015e 02       		.uleb128 0x2
 2794 015f 18       		.uleb128 0x18
 2795 0160 00       		.byte	0
 2796 0161 00       		.byte	0
 2797 0162 1A       		.uleb128 0x1a
 2798 0163 2E       		.uleb128 0x2e
 2799 0164 00       		.byte	0
 2800 0165 3F       		.uleb128 0x3f
 2801 0166 19       		.uleb128 0x19
 2802 0167 03       		.uleb128 0x3
 2803 0168 0E       		.uleb128 0xe
 2804 0169 3A       		.uleb128 0x3a
 2805 016a 0B       		.uleb128 0xb
 2806 016b 3B       		.uleb128 0x3b
 2807 016c 0B       		.uleb128 0xb
 2808 016d 39       		.uleb128 0x39
 2809 016e 21       		.uleb128 0x21
 2810 016f 08       		.sleb128 8
 2811 0170 27       		.uleb128 0x27
 2812 0171 19       		.uleb128 0x19
 2813 0172 3C       		.uleb128 0x3c
 2814 0173 19       		.uleb128 0x19
 2815 0174 00       		.byte	0
 2816 0175 00       		.byte	0
 2817 0176 1B       		.uleb128 0x1b
 2818 0177 2E       		.uleb128 0x2e
 2819 0178 01       		.byte	0x1
 2820 0179 3F       		.uleb128 0x3f
 2821 017a 19       		.uleb128 0x19
 2822 017b 03       		.uleb128 0x3
GAS LISTING /tmp/ccgNg7u5.s 			page 52


 2823 017c 0E       		.uleb128 0xe
 2824 017d 3A       		.uleb128 0x3a
 2825 017e 21       		.uleb128 0x21
 2826 017f 01       		.sleb128 1
 2827 0180 3B       		.uleb128 0x3b
 2828 0181 0B       		.uleb128 0xb
 2829 0182 39       		.uleb128 0x39
 2830 0183 21       		.uleb128 0x21
 2831 0184 06       		.sleb128 6
 2832 0185 27       		.uleb128 0x27
 2833 0186 19       		.uleb128 0x19
 2834 0187 11       		.uleb128 0x11
 2835 0188 01       		.uleb128 0x1
 2836 0189 12       		.uleb128 0x12
 2837 018a 06       		.uleb128 0x6
 2838 018b 40       		.uleb128 0x40
 2839 018c 18       		.uleb128 0x18
 2840 018d 7A       		.uleb128 0x7a
 2841 018e 19       		.uleb128 0x19
 2842 018f 01       		.uleb128 0x1
 2843 0190 13       		.uleb128 0x13
 2844 0191 00       		.byte	0
 2845 0192 00       		.byte	0
 2846 0193 1C       		.uleb128 0x1c
 2847 0194 2E       		.uleb128 0x2e
 2848 0195 00       		.byte	0
 2849 0196 03       		.uleb128 0x3
 2850 0197 0E       		.uleb128 0xe
 2851 0198 3A       		.uleb128 0x3a
 2852 0199 0B       		.uleb128 0xb
 2853 019a 3B       		.uleb128 0x3b
 2854 019b 05       		.uleb128 0x5
 2855 019c 39       		.uleb128 0x39
 2856 019d 21       		.uleb128 0x21
 2857 019e 14       		.sleb128 20
 2858 019f 27       		.uleb128 0x27
 2859 01a0 19       		.uleb128 0x19
 2860 01a1 20       		.uleb128 0x20
 2861 01a2 21       		.uleb128 0x21
 2862 01a3 03       		.sleb128 3
 2863 01a4 00       		.byte	0
 2864 01a5 00       		.byte	0
 2865 01a6 1D       		.uleb128 0x1d
 2866 01a7 05       		.uleb128 0x5
 2867 01a8 00       		.byte	0
 2868 01a9 31       		.uleb128 0x31
 2869 01aa 13       		.uleb128 0x13
 2870 01ab 02       		.uleb128 0x2
 2871 01ac 18       		.uleb128 0x18
 2872 01ad 00       		.byte	0
 2873 01ae 00       		.byte	0
 2874 01af 1E       		.uleb128 0x1e
 2875 01b0 34       		.uleb128 0x34
 2876 01b1 00       		.byte	0
 2877 01b2 03       		.uleb128 0x3
 2878 01b3 0E       		.uleb128 0xe
 2879 01b4 3A       		.uleb128 0x3a
GAS LISTING /tmp/ccgNg7u5.s 			page 53


 2880 01b5 21       		.uleb128 0x21
 2881 01b6 01       		.sleb128 1
 2882 01b7 3B       		.uleb128 0x3b
 2883 01b8 21       		.uleb128 0x21
 2884 01b9 3C       		.sleb128 60
 2885 01ba 39       		.uleb128 0x39
 2886 01bb 0B       		.uleb128 0xb
 2887 01bc 49       		.uleb128 0x49
 2888 01bd 13       		.uleb128 0x13
 2889 01be 3F       		.uleb128 0x3f
 2890 01bf 19       		.uleb128 0x19
 2891 01c0 3C       		.uleb128 0x3c
 2892 01c1 19       		.uleb128 0x19
 2893 01c2 00       		.byte	0
 2894 01c3 00       		.byte	0
 2895 01c4 1F       		.uleb128 0x1f
 2896 01c5 2E       		.uleb128 0x2e
 2897 01c6 01       		.byte	0x1
 2898 01c7 3F       		.uleb128 0x3f
 2899 01c8 19       		.uleb128 0x19
 2900 01c9 03       		.uleb128 0x3
 2901 01ca 0E       		.uleb128 0xe
 2902 01cb 3A       		.uleb128 0x3a
 2903 01cc 21       		.uleb128 0x21
 2904 01cd 01       		.sleb128 1
 2905 01ce 3B       		.uleb128 0x3b
 2906 01cf 05       		.uleb128 0x5
 2907 01d0 39       		.uleb128 0x39
 2908 01d1 21       		.uleb128 0x21
 2909 01d2 06       		.sleb128 6
 2910 01d3 27       		.uleb128 0x27
 2911 01d4 19       		.uleb128 0x19
 2912 01d5 11       		.uleb128 0x11
 2913 01d6 01       		.uleb128 0x1
 2914 01d7 12       		.uleb128 0x12
 2915 01d8 06       		.uleb128 0x6
 2916 01d9 40       		.uleb128 0x40
 2917 01da 18       		.uleb128 0x18
 2918 01db 7A       		.uleb128 0x7a
 2919 01dc 19       		.uleb128 0x19
 2920 01dd 01       		.uleb128 0x1
 2921 01de 13       		.uleb128 0x13
 2922 01df 00       		.byte	0
 2923 01e0 00       		.byte	0
 2924 01e1 20       		.uleb128 0x20
 2925 01e2 05       		.uleb128 0x5
 2926 01e3 00       		.byte	0
 2927 01e4 03       		.uleb128 0x3
 2928 01e5 08       		.uleb128 0x8
 2929 01e6 3A       		.uleb128 0x3a
 2930 01e7 21       		.uleb128 0x21
 2931 01e8 01       		.sleb128 1
 2932 01e9 3B       		.uleb128 0x3b
 2933 01ea 21       		.uleb128 0x21
 2934 01eb D303     		.sleb128 467
 2935 01ed 39       		.uleb128 0x39
 2936 01ee 0B       		.uleb128 0xb
GAS LISTING /tmp/ccgNg7u5.s 			page 54


 2937 01ef 49       		.uleb128 0x49
 2938 01f0 13       		.uleb128 0x13
 2939 01f1 00       		.byte	0
 2940 01f2 00       		.byte	0
 2941 01f3 21       		.uleb128 0x21
 2942 01f4 0B       		.uleb128 0xb
 2943 01f5 01       		.byte	0x1
 2944 01f6 55       		.uleb128 0x55
 2945 01f7 17       		.uleb128 0x17
 2946 01f8 01       		.uleb128 0x1
 2947 01f9 13       		.uleb128 0x13
 2948 01fa 00       		.byte	0
 2949 01fb 00       		.byte	0
 2950 01fc 22       		.uleb128 0x22
 2951 01fd 34       		.uleb128 0x34
 2952 01fe 00       		.byte	0
 2953 01ff 03       		.uleb128 0x3
 2954 0200 08       		.uleb128 0x8
 2955 0201 3A       		.uleb128 0x3a
 2956 0202 21       		.uleb128 0x21
 2957 0203 01       		.sleb128 1
 2958 0204 3B       		.uleb128 0x3b
 2959 0205 0B       		.uleb128 0xb
 2960 0206 39       		.uleb128 0x39
 2961 0207 0B       		.uleb128 0xb
 2962 0208 49       		.uleb128 0x49
 2963 0209 13       		.uleb128 0x13
 2964 020a 02       		.uleb128 0x2
 2965 020b 17       		.uleb128 0x17
 2966 020c B742     		.uleb128 0x2137
 2967 020e 17       		.uleb128 0x17
 2968 020f 00       		.byte	0
 2969 0210 00       		.byte	0
 2970 0211 23       		.uleb128 0x23
 2971 0212 34       		.uleb128 0x34
 2972 0213 00       		.byte	0
 2973 0214 03       		.uleb128 0x3
 2974 0215 0E       		.uleb128 0xe
 2975 0216 49       		.uleb128 0x49
 2976 0217 13       		.uleb128 0x13
 2977 0218 34       		.uleb128 0x34
 2978 0219 19       		.uleb128 0x19
 2979 021a 00       		.byte	0
 2980 021b 00       		.byte	0
 2981 021c 24       		.uleb128 0x24
 2982 021d 05       		.uleb128 0x5
 2983 021e 00       		.byte	0
 2984 021f 03       		.uleb128 0x3
 2985 0220 0E       		.uleb128 0xe
 2986 0221 3A       		.uleb128 0x3a
 2987 0222 21       		.uleb128 0x21
 2988 0223 01       		.sleb128 1
 2989 0224 3B       		.uleb128 0x3b
 2990 0225 0B       		.uleb128 0xb
 2991 0226 39       		.uleb128 0x39
 2992 0227 0B       		.uleb128 0xb
 2993 0228 49       		.uleb128 0x49
GAS LISTING /tmp/ccgNg7u5.s 			page 55


 2994 0229 13       		.uleb128 0x13
 2995 022a 02       		.uleb128 0x2
 2996 022b 18       		.uleb128 0x18
 2997 022c 00       		.byte	0
 2998 022d 00       		.byte	0
 2999 022e 25       		.uleb128 0x25
 3000 022f 1D       		.uleb128 0x1d
 3001 0230 01       		.byte	0x1
 3002 0231 31       		.uleb128 0x31
 3003 0232 13       		.uleb128 0x13
 3004 0233 52       		.uleb128 0x52
 3005 0234 01       		.uleb128 0x1
 3006 0235 B842     		.uleb128 0x2138
 3007 0237 0B       		.uleb128 0xb
 3008 0238 55       		.uleb128 0x55
 3009 0239 17       		.uleb128 0x17
 3010 023a 58       		.uleb128 0x58
 3011 023b 21       		.uleb128 0x21
 3012 023c 01       		.sleb128 1
 3013 023d 59       		.uleb128 0x59
 3014 023e 0B       		.uleb128 0xb
 3015 023f 57       		.uleb128 0x57
 3016 0240 21       		.uleb128 0x21
 3017 0241 03       		.sleb128 3
 3018 0242 01       		.uleb128 0x1
 3019 0243 13       		.uleb128 0x13
 3020 0244 00       		.byte	0
 3021 0245 00       		.byte	0
 3022 0246 26       		.uleb128 0x26
 3023 0247 0B       		.uleb128 0xb
 3024 0248 01       		.byte	0x1
 3025 0249 55       		.uleb128 0x55
 3026 024a 17       		.uleb128 0x17
 3027 024b 00       		.byte	0
 3028 024c 00       		.byte	0
 3029 024d 27       		.uleb128 0x27
 3030 024e 34       		.uleb128 0x34
 3031 024f 00       		.byte	0
 3032 0250 03       		.uleb128 0x3
 3033 0251 08       		.uleb128 0x8
 3034 0252 3A       		.uleb128 0x3a
 3035 0253 21       		.uleb128 0x21
 3036 0254 02       		.sleb128 2
 3037 0255 3B       		.uleb128 0x3b
 3038 0256 0B       		.uleb128 0xb
 3039 0257 39       		.uleb128 0x39
 3040 0258 0B       		.uleb128 0xb
 3041 0259 49       		.uleb128 0x49
 3042 025a 13       		.uleb128 0x13
 3043 025b 00       		.byte	0
 3044 025c 00       		.byte	0
 3045 025d 28       		.uleb128 0x28
 3046 025e 11       		.uleb128 0x11
 3047 025f 01       		.byte	0x1
 3048 0260 25       		.uleb128 0x25
 3049 0261 0E       		.uleb128 0xe
 3050 0262 13       		.uleb128 0x13
GAS LISTING /tmp/ccgNg7u5.s 			page 56


 3051 0263 0B       		.uleb128 0xb
 3052 0264 03       		.uleb128 0x3
 3053 0265 1F       		.uleb128 0x1f
 3054 0266 1B       		.uleb128 0x1b
 3055 0267 1F       		.uleb128 0x1f
 3056 0268 55       		.uleb128 0x55
 3057 0269 17       		.uleb128 0x17
 3058 026a 11       		.uleb128 0x11
 3059 026b 01       		.uleb128 0x1
 3060 026c 10       		.uleb128 0x10
 3061 026d 17       		.uleb128 0x17
 3062 026e 00       		.byte	0
 3063 026f 00       		.byte	0
 3064 0270 29       		.uleb128 0x29
 3065 0271 24       		.uleb128 0x24
 3066 0272 00       		.byte	0
 3067 0273 0B       		.uleb128 0xb
 3068 0274 0B       		.uleb128 0xb
 3069 0275 3E       		.uleb128 0x3e
 3070 0276 0B       		.uleb128 0xb
 3071 0277 03       		.uleb128 0x3
 3072 0278 08       		.uleb128 0x8
 3073 0279 00       		.byte	0
 3074 027a 00       		.byte	0
 3075 027b 2A       		.uleb128 0x2a
 3076 027c 0F       		.uleb128 0xf
 3077 027d 00       		.byte	0
 3078 027e 0B       		.uleb128 0xb
 3079 027f 0B       		.uleb128 0xb
 3080 0280 00       		.byte	0
 3081 0281 00       		.byte	0
 3082 0282 2B       		.uleb128 0x2b
 3083 0283 16       		.uleb128 0x16
 3084 0284 00       		.byte	0
 3085 0285 03       		.uleb128 0x3
 3086 0286 0E       		.uleb128 0xe
 3087 0287 3A       		.uleb128 0x3a
 3088 0288 0B       		.uleb128 0xb
 3089 0289 3B       		.uleb128 0x3b
 3090 028a 0B       		.uleb128 0xb
 3091 028b 39       		.uleb128 0x39
 3092 028c 0B       		.uleb128 0xb
 3093 028d 49       		.uleb128 0x49
 3094 028e 13       		.uleb128 0x13
 3095 028f 8801     		.uleb128 0x88
 3096 0291 0B       		.uleb128 0xb
 3097 0292 00       		.byte	0
 3098 0293 00       		.byte	0
 3099 0294 2C       		.uleb128 0x2c
 3100 0295 04       		.uleb128 0x4
 3101 0296 01       		.byte	0x1
 3102 0297 3E       		.uleb128 0x3e
 3103 0298 0B       		.uleb128 0xb
 3104 0299 0B       		.uleb128 0xb
 3105 029a 0B       		.uleb128 0xb
 3106 029b 49       		.uleb128 0x49
 3107 029c 13       		.uleb128 0x13
GAS LISTING /tmp/ccgNg7u5.s 			page 57


 3108 029d 3A       		.uleb128 0x3a
 3109 029e 0B       		.uleb128 0xb
 3110 029f 3B       		.uleb128 0x3b
 3111 02a0 0B       		.uleb128 0xb
 3112 02a1 39       		.uleb128 0x39
 3113 02a2 0B       		.uleb128 0xb
 3114 02a3 01       		.uleb128 0x1
 3115 02a4 13       		.uleb128 0x13
 3116 02a5 00       		.byte	0
 3117 02a6 00       		.byte	0
 3118 02a7 2D       		.uleb128 0x2d
 3119 02a8 15       		.uleb128 0x15
 3120 02a9 01       		.byte	0x1
 3121 02aa 27       		.uleb128 0x27
 3122 02ab 19       		.uleb128 0x19
 3123 02ac 01       		.uleb128 0x1
 3124 02ad 13       		.uleb128 0x13
 3125 02ae 00       		.byte	0
 3126 02af 00       		.byte	0
 3127 02b0 2E       		.uleb128 0x2e
 3128 02b1 17       		.uleb128 0x17
 3129 02b2 01       		.byte	0x1
 3130 02b3 0B       		.uleb128 0xb
 3131 02b4 0B       		.uleb128 0xb
 3132 02b5 3A       		.uleb128 0x3a
 3133 02b6 0B       		.uleb128 0xb
 3134 02b7 3B       		.uleb128 0x3b
 3135 02b8 0B       		.uleb128 0xb
 3136 02b9 39       		.uleb128 0x39
 3137 02ba 0B       		.uleb128 0xb
 3138 02bb 01       		.uleb128 0x1
 3139 02bc 13       		.uleb128 0x13
 3140 02bd 00       		.byte	0
 3141 02be 00       		.byte	0
 3142 02bf 2F       		.uleb128 0x2f
 3143 02c0 17       		.uleb128 0x17
 3144 02c1 01       		.byte	0x1
 3145 02c2 0B       		.uleb128 0xb
 3146 02c3 0B       		.uleb128 0xb
 3147 02c4 3A       		.uleb128 0x3a
 3148 02c5 0B       		.uleb128 0xb
 3149 02c6 3B       		.uleb128 0x3b
 3150 02c7 05       		.uleb128 0x5
 3151 02c8 39       		.uleb128 0x39
 3152 02c9 0B       		.uleb128 0xb
 3153 02ca 01       		.uleb128 0x1
 3154 02cb 13       		.uleb128 0x13
 3155 02cc 00       		.byte	0
 3156 02cd 00       		.byte	0
 3157 02ce 30       		.uleb128 0x30
 3158 02cf 34       		.uleb128 0x34
 3159 02d0 00       		.byte	0
 3160 02d1 03       		.uleb128 0x3
 3161 02d2 08       		.uleb128 0x8
 3162 02d3 3A       		.uleb128 0x3a
 3163 02d4 0B       		.uleb128 0xb
 3164 02d5 3B       		.uleb128 0x3b
GAS LISTING /tmp/ccgNg7u5.s 			page 58


 3165 02d6 05       		.uleb128 0x5
 3166 02d7 39       		.uleb128 0x39
 3167 02d8 0B       		.uleb128 0xb
 3168 02d9 49       		.uleb128 0x49
 3169 02da 13       		.uleb128 0x13
 3170 02db 3F       		.uleb128 0x3f
 3171 02dc 19       		.uleb128 0x19
 3172 02dd 3C       		.uleb128 0x3c
 3173 02de 19       		.uleb128 0x19
 3174 02df 00       		.byte	0
 3175 02e0 00       		.byte	0
 3176 02e1 31       		.uleb128 0x31
 3177 02e2 01       		.uleb128 0x1
 3178 02e3 01       		.byte	0x1
 3179 02e4 49       		.uleb128 0x49
 3180 02e5 13       		.uleb128 0x13
 3181 02e6 8801     		.uleb128 0x88
 3182 02e8 0B       		.uleb128 0xb
 3183 02e9 01       		.uleb128 0x1
 3184 02ea 13       		.uleb128 0x13
 3185 02eb 00       		.byte	0
 3186 02ec 00       		.byte	0
 3187 02ed 32       		.uleb128 0x32
 3188 02ee 21       		.uleb128 0x21
 3189 02ef 00       		.byte	0
 3190 02f0 49       		.uleb128 0x49
 3191 02f1 13       		.uleb128 0x13
 3192 02f2 2F       		.uleb128 0x2f
 3193 02f3 05       		.uleb128 0x5
 3194 02f4 00       		.byte	0
 3195 02f5 00       		.byte	0
 3196 02f6 33       		.uleb128 0x33
 3197 02f7 34       		.uleb128 0x34
 3198 02f8 00       		.byte	0
 3199 02f9 03       		.uleb128 0x3
 3200 02fa 0E       		.uleb128 0xe
 3201 02fb 3A       		.uleb128 0x3a
 3202 02fc 0B       		.uleb128 0xb
 3203 02fd 3B       		.uleb128 0x3b
 3204 02fe 0B       		.uleb128 0xb
 3205 02ff 39       		.uleb128 0x39
 3206 0300 0B       		.uleb128 0xb
 3207 0301 49       		.uleb128 0x49
 3208 0302 13       		.uleb128 0x13
 3209 0303 8801     		.uleb128 0x88
 3210 0305 0B       		.uleb128 0xb
 3211 0306 02       		.uleb128 0x2
 3212 0307 18       		.uleb128 0x18
 3213 0308 00       		.byte	0
 3214 0309 00       		.byte	0
 3215 030a 34       		.uleb128 0x34
 3216 030b 2E       		.uleb128 0x2e
 3217 030c 00       		.byte	0
 3218 030d 3F       		.uleb128 0x3f
 3219 030e 19       		.uleb128 0x19
 3220 030f 03       		.uleb128 0x3
 3221 0310 0E       		.uleb128 0xe
GAS LISTING /tmp/ccgNg7u5.s 			page 59


 3222 0311 3A       		.uleb128 0x3a
 3223 0312 0B       		.uleb128 0xb
 3224 0313 3B       		.uleb128 0x3b
 3225 0314 05       		.uleb128 0x5
 3226 0315 39       		.uleb128 0x39
 3227 0316 0B       		.uleb128 0xb
 3228 0317 27       		.uleb128 0x27
 3229 0318 19       		.uleb128 0x19
 3230 0319 49       		.uleb128 0x49
 3231 031a 13       		.uleb128 0x13
 3232 031b 3C       		.uleb128 0x3c
 3233 031c 19       		.uleb128 0x19
 3234 031d 00       		.byte	0
 3235 031e 00       		.byte	0
 3236 031f 35       		.uleb128 0x35
 3237 0320 2E       		.uleb128 0x2e
 3238 0321 00       		.byte	0
 3239 0322 3F       		.uleb128 0x3f
 3240 0323 19       		.uleb128 0x19
 3241 0324 03       		.uleb128 0x3
 3242 0325 0E       		.uleb128 0xe
 3243 0326 3A       		.uleb128 0x3a
 3244 0327 0B       		.uleb128 0xb
 3245 0328 3B       		.uleb128 0x3b
 3246 0329 05       		.uleb128 0x5
 3247 032a 39       		.uleb128 0x39
 3248 032b 0B       		.uleb128 0xb
 3249 032c 27       		.uleb128 0x27
 3250 032d 19       		.uleb128 0x19
 3251 032e 3C       		.uleb128 0x3c
 3252 032f 19       		.uleb128 0x19
 3253 0330 00       		.byte	0
 3254 0331 00       		.byte	0
 3255 0332 36       		.uleb128 0x36
 3256 0333 05       		.uleb128 0x5
 3257 0334 00       		.byte	0
 3258 0335 03       		.uleb128 0x3
 3259 0336 0E       		.uleb128 0xe
 3260 0337 3A       		.uleb128 0x3a
 3261 0338 0B       		.uleb128 0xb
 3262 0339 3B       		.uleb128 0x3b
 3263 033a 05       		.uleb128 0x5
 3264 033b 39       		.uleb128 0x39
 3265 033c 0B       		.uleb128 0xb
 3266 033d 49       		.uleb128 0x49
 3267 033e 13       		.uleb128 0x13
 3268 033f 02       		.uleb128 0x2
 3269 0340 18       		.uleb128 0x18
 3270 0341 00       		.byte	0
 3271 0342 00       		.byte	0
 3272 0343 37       		.uleb128 0x37
 3273 0344 34       		.uleb128 0x34
 3274 0345 00       		.byte	0
 3275 0346 03       		.uleb128 0x3
 3276 0347 0E       		.uleb128 0xe
 3277 0348 3A       		.uleb128 0x3a
 3278 0349 0B       		.uleb128 0xb
GAS LISTING /tmp/ccgNg7u5.s 			page 60


 3279 034a 3B       		.uleb128 0x3b
 3280 034b 05       		.uleb128 0x5
 3281 034c 39       		.uleb128 0x39
 3282 034d 0B       		.uleb128 0xb
 3283 034e 49       		.uleb128 0x49
 3284 034f 13       		.uleb128 0x13
 3285 0350 02       		.uleb128 0x2
 3286 0351 17       		.uleb128 0x17
 3287 0352 B742     		.uleb128 0x2137
 3288 0354 17       		.uleb128 0x17
 3289 0355 00       		.byte	0
 3290 0356 00       		.byte	0
 3291 0357 38       		.uleb128 0x38
 3292 0358 1D       		.uleb128 0x1d
 3293 0359 01       		.byte	0x1
 3294 035a 31       		.uleb128 0x31
 3295 035b 13       		.uleb128 0x13
 3296 035c 52       		.uleb128 0x52
 3297 035d 01       		.uleb128 0x1
 3298 035e B842     		.uleb128 0x2138
 3299 0360 0B       		.uleb128 0xb
 3300 0361 11       		.uleb128 0x11
 3301 0362 01       		.uleb128 0x1
 3302 0363 12       		.uleb128 0x12
 3303 0364 06       		.uleb128 0x6
 3304 0365 58       		.uleb128 0x58
 3305 0366 0B       		.uleb128 0xb
 3306 0367 59       		.uleb128 0x59
 3307 0368 05       		.uleb128 0x5
 3308 0369 57       		.uleb128 0x57
 3309 036a 0B       		.uleb128 0xb
 3310 036b 01       		.uleb128 0x1
 3311 036c 13       		.uleb128 0x13
 3312 036d 00       		.byte	0
 3313 036e 00       		.byte	0
 3314 036f 39       		.uleb128 0x39
 3315 0370 2E       		.uleb128 0x2e
 3316 0371 01       		.byte	0x1
 3317 0372 3F       		.uleb128 0x3f
 3318 0373 19       		.uleb128 0x19
 3319 0374 03       		.uleb128 0x3
 3320 0375 0E       		.uleb128 0xe
 3321 0376 3A       		.uleb128 0x3a
 3322 0377 0B       		.uleb128 0xb
 3323 0378 3B       		.uleb128 0x3b
 3324 0379 05       		.uleb128 0x5
 3325 037a 39       		.uleb128 0x39
 3326 037b 0B       		.uleb128 0xb
 3327 037c 27       		.uleb128 0x27
 3328 037d 19       		.uleb128 0x19
 3329 037e 49       		.uleb128 0x49
 3330 037f 13       		.uleb128 0x13
 3331 0380 20       		.uleb128 0x20
 3332 0381 0B       		.uleb128 0xb
 3333 0382 01       		.uleb128 0x1
 3334 0383 13       		.uleb128 0x13
 3335 0384 00       		.byte	0
GAS LISTING /tmp/ccgNg7u5.s 			page 61


 3336 0385 00       		.byte	0
 3337 0386 3A       		.uleb128 0x3a
 3338 0387 05       		.uleb128 0x5
 3339 0388 00       		.byte	0
 3340 0389 03       		.uleb128 0x3
 3341 038a 0E       		.uleb128 0xe
 3342 038b 3A       		.uleb128 0x3a
 3343 038c 0B       		.uleb128 0xb
 3344 038d 3B       		.uleb128 0x3b
 3345 038e 05       		.uleb128 0x5
 3346 038f 39       		.uleb128 0x39
 3347 0390 0B       		.uleb128 0xb
 3348 0391 49       		.uleb128 0x49
 3349 0392 13       		.uleb128 0x13
 3350 0393 00       		.byte	0
 3351 0394 00       		.byte	0
 3352 0395 3B       		.uleb128 0x3b
 3353 0396 2E       		.uleb128 0x2e
 3354 0397 01       		.byte	0x1
 3355 0398 3F       		.uleb128 0x3f
 3356 0399 19       		.uleb128 0x19
 3357 039a 03       		.uleb128 0x3
 3358 039b 0E       		.uleb128 0xe
 3359 039c 3A       		.uleb128 0x3a
 3360 039d 0B       		.uleb128 0xb
 3361 039e 3B       		.uleb128 0x3b
 3362 039f 05       		.uleb128 0x5
 3363 03a0 39       		.uleb128 0x39
 3364 03a1 0B       		.uleb128 0xb
 3365 03a2 27       		.uleb128 0x27
 3366 03a3 19       		.uleb128 0x19
 3367 03a4 49       		.uleb128 0x49
 3368 03a5 13       		.uleb128 0x13
 3369 03a6 11       		.uleb128 0x11
 3370 03a7 01       		.uleb128 0x1
 3371 03a8 12       		.uleb128 0x12
 3372 03a9 06       		.uleb128 0x6
 3373 03aa 40       		.uleb128 0x40
 3374 03ab 18       		.uleb128 0x18
 3375 03ac 7A       		.uleb128 0x7a
 3376 03ad 19       		.uleb128 0x19
 3377 03ae 01       		.uleb128 0x1
 3378 03af 13       		.uleb128 0x13
 3379 03b0 00       		.byte	0
 3380 03b1 00       		.byte	0
 3381 03b2 3C       		.uleb128 0x3c
 3382 03b3 05       		.uleb128 0x5
 3383 03b4 00       		.byte	0
 3384 03b5 03       		.uleb128 0x3
 3385 03b6 0E       		.uleb128 0xe
 3386 03b7 3A       		.uleb128 0x3a
 3387 03b8 0B       		.uleb128 0xb
 3388 03b9 3B       		.uleb128 0x3b
 3389 03ba 05       		.uleb128 0x5
 3390 03bb 39       		.uleb128 0x39
 3391 03bc 0B       		.uleb128 0xb
 3392 03bd 49       		.uleb128 0x49
GAS LISTING /tmp/ccgNg7u5.s 			page 62


 3393 03be 13       		.uleb128 0x13
 3394 03bf 02       		.uleb128 0x2
 3395 03c0 17       		.uleb128 0x17
 3396 03c1 B742     		.uleb128 0x2137
 3397 03c3 17       		.uleb128 0x17
 3398 03c4 00       		.byte	0
 3399 03c5 00       		.byte	0
 3400 03c6 3D       		.uleb128 0x3d
 3401 03c7 34       		.uleb128 0x34
 3402 03c8 00       		.byte	0
 3403 03c9 03       		.uleb128 0x3
 3404 03ca 08       		.uleb128 0x8
 3405 03cb 3A       		.uleb128 0x3a
 3406 03cc 0B       		.uleb128 0xb
 3407 03cd 3B       		.uleb128 0x3b
 3408 03ce 05       		.uleb128 0x5
 3409 03cf 39       		.uleb128 0x39
 3410 03d0 0B       		.uleb128 0xb
 3411 03d1 49       		.uleb128 0x49
 3412 03d2 13       		.uleb128 0x13
 3413 03d3 02       		.uleb128 0x2
 3414 03d4 18       		.uleb128 0x18
 3415 03d5 00       		.byte	0
 3416 03d6 00       		.byte	0
 3417 03d7 3E       		.uleb128 0x3e
 3418 03d8 0B       		.uleb128 0xb
 3419 03d9 01       		.byte	0x1
 3420 03da 11       		.uleb128 0x11
 3421 03db 01       		.uleb128 0x1
 3422 03dc 12       		.uleb128 0x12
 3423 03dd 06       		.uleb128 0x6
 3424 03de 00       		.byte	0
 3425 03df 00       		.byte	0
 3426 03e0 3F       		.uleb128 0x3f
 3427 03e1 2E       		.uleb128 0x2e
 3428 03e2 01       		.byte	0x1
 3429 03e3 3F       		.uleb128 0x3f
 3430 03e4 19       		.uleb128 0x19
 3431 03e5 03       		.uleb128 0x3
 3432 03e6 0E       		.uleb128 0xe
 3433 03e7 3A       		.uleb128 0x3a
 3434 03e8 0B       		.uleb128 0xb
 3435 03e9 3B       		.uleb128 0x3b
 3436 03ea 0B       		.uleb128 0xb
 3437 03eb 39       		.uleb128 0x39
 3438 03ec 0B       		.uleb128 0xb
 3439 03ed 27       		.uleb128 0x27
 3440 03ee 19       		.uleb128 0x19
 3441 03ef 49       		.uleb128 0x49
 3442 03f0 13       		.uleb128 0x13
 3443 03f1 11       		.uleb128 0x11
 3444 03f2 01       		.uleb128 0x1
 3445 03f3 12       		.uleb128 0x12
 3446 03f4 06       		.uleb128 0x6
 3447 03f5 40       		.uleb128 0x40
 3448 03f6 18       		.uleb128 0x18
 3449 03f7 7A       		.uleb128 0x7a
GAS LISTING /tmp/ccgNg7u5.s 			page 63


 3450 03f8 19       		.uleb128 0x19
 3451 03f9 01       		.uleb128 0x1
 3452 03fa 13       		.uleb128 0x13
 3453 03fb 00       		.byte	0
 3454 03fc 00       		.byte	0
 3455 03fd 40       		.uleb128 0x40
 3456 03fe 1D       		.uleb128 0x1d
 3457 03ff 00       		.byte	0
 3458 0400 31       		.uleb128 0x31
 3459 0401 13       		.uleb128 0x13
 3460 0402 52       		.uleb128 0x52
 3461 0403 01       		.uleb128 0x1
 3462 0404 B842     		.uleb128 0x2138
 3463 0406 0B       		.uleb128 0xb
 3464 0407 55       		.uleb128 0x55
 3465 0408 17       		.uleb128 0x17
 3466 0409 58       		.uleb128 0x58
 3467 040a 0B       		.uleb128 0xb
 3468 040b 59       		.uleb128 0x59
 3469 040c 0B       		.uleb128 0xb
 3470 040d 57       		.uleb128 0x57
 3471 040e 0B       		.uleb128 0xb
 3472 040f 00       		.byte	0
 3473 0410 00       		.byte	0
 3474 0411 41       		.uleb128 0x41
 3475 0412 34       		.uleb128 0x34
 3476 0413 00       		.byte	0
 3477 0414 31       		.uleb128 0x31
 3478 0415 13       		.uleb128 0x13
 3479 0416 02       		.uleb128 0x2
 3480 0417 17       		.uleb128 0x17
 3481 0418 B742     		.uleb128 0x2137
 3482 041a 17       		.uleb128 0x17
 3483 041b 00       		.byte	0
 3484 041c 00       		.byte	0
 3485 041d 42       		.uleb128 0x42
 3486 041e 34       		.uleb128 0x34
 3487 041f 00       		.byte	0
 3488 0420 31       		.uleb128 0x31
 3489 0421 13       		.uleb128 0x13
 3490 0422 02       		.uleb128 0x2
 3491 0423 18       		.uleb128 0x18
 3492 0424 00       		.byte	0
 3493 0425 00       		.byte	0
 3494 0426 43       		.uleb128 0x43
 3495 0427 1D       		.uleb128 0x1d
 3496 0428 01       		.byte	0x1
 3497 0429 31       		.uleb128 0x31
 3498 042a 13       		.uleb128 0x13
 3499 042b 52       		.uleb128 0x52
 3500 042c 01       		.uleb128 0x1
 3501 042d B842     		.uleb128 0x2138
 3502 042f 0B       		.uleb128 0xb
 3503 0430 11       		.uleb128 0x11
 3504 0431 01       		.uleb128 0x1
 3505 0432 12       		.uleb128 0x12
 3506 0433 06       		.uleb128 0x6
GAS LISTING /tmp/ccgNg7u5.s 			page 64


 3507 0434 58       		.uleb128 0x58
 3508 0435 0B       		.uleb128 0xb
 3509 0436 59       		.uleb128 0x59
 3510 0437 0B       		.uleb128 0xb
 3511 0438 57       		.uleb128 0x57
 3512 0439 0B       		.uleb128 0xb
 3513 043a 01       		.uleb128 0x1
 3514 043b 13       		.uleb128 0x13
 3515 043c 00       		.byte	0
 3516 043d 00       		.byte	0
 3517 043e 44       		.uleb128 0x44
 3518 043f 1D       		.uleb128 0x1d
 3519 0440 00       		.byte	0
 3520 0441 31       		.uleb128 0x31
 3521 0442 13       		.uleb128 0x13
 3522 0443 52       		.uleb128 0x52
 3523 0444 01       		.uleb128 0x1
 3524 0445 B842     		.uleb128 0x2138
 3525 0447 0B       		.uleb128 0xb
 3526 0448 55       		.uleb128 0x55
 3527 0449 17       		.uleb128 0x17
 3528 044a 58       		.uleb128 0x58
 3529 044b 0B       		.uleb128 0xb
 3530 044c 59       		.uleb128 0x59
 3531 044d 05       		.uleb128 0x5
 3532 044e 57       		.uleb128 0x57
 3533 044f 0B       		.uleb128 0xb
 3534 0450 00       		.byte	0
 3535 0451 00       		.byte	0
 3536 0452 45       		.uleb128 0x45
 3537 0453 2E       		.uleb128 0x2e
 3538 0454 01       		.byte	0x1
 3539 0455 03       		.uleb128 0x3
 3540 0456 0E       		.uleb128 0xe
 3541 0457 3A       		.uleb128 0x3a
 3542 0458 0B       		.uleb128 0xb
 3543 0459 3B       		.uleb128 0x3b
 3544 045a 05       		.uleb128 0x5
 3545 045b 39       		.uleb128 0x39
 3546 045c 0B       		.uleb128 0xb
 3547 045d 27       		.uleb128 0x27
 3548 045e 19       		.uleb128 0x19
 3549 045f 20       		.uleb128 0x20
 3550 0460 0B       		.uleb128 0xb
 3551 0461 01       		.uleb128 0x1
 3552 0462 13       		.uleb128 0x13
 3553 0463 00       		.byte	0
 3554 0464 00       		.byte	0
 3555 0465 46       		.uleb128 0x46
 3556 0466 2E       		.uleb128 0x2e
 3557 0467 01       		.byte	0x1
 3558 0468 03       		.uleb128 0x3
 3559 0469 0E       		.uleb128 0xe
 3560 046a 3A       		.uleb128 0x3a
 3561 046b 0B       		.uleb128 0xb
 3562 046c 3B       		.uleb128 0x3b
 3563 046d 0B       		.uleb128 0xb
GAS LISTING /tmp/ccgNg7u5.s 			page 65


 3564 046e 39       		.uleb128 0x39
 3565 046f 0B       		.uleb128 0xb
 3566 0470 27       		.uleb128 0x27
 3567 0471 19       		.uleb128 0x19
 3568 0472 20       		.uleb128 0x20
 3569 0473 0B       		.uleb128 0xb
 3570 0474 01       		.uleb128 0x1
 3571 0475 13       		.uleb128 0x13
 3572 0476 00       		.byte	0
 3573 0477 00       		.byte	0
 3574 0478 47       		.uleb128 0x47
 3575 0479 05       		.uleb128 0x5
 3576 047a 00       		.byte	0
 3577 047b 03       		.uleb128 0x3
 3578 047c 08       		.uleb128 0x8
 3579 047d 3A       		.uleb128 0x3a
 3580 047e 0B       		.uleb128 0xb
 3581 047f 3B       		.uleb128 0x3b
 3582 0480 0B       		.uleb128 0xb
 3583 0481 39       		.uleb128 0x39
 3584 0482 0B       		.uleb128 0xb
 3585 0483 49       		.uleb128 0x49
 3586 0484 13       		.uleb128 0x13
 3587 0485 00       		.byte	0
 3588 0486 00       		.byte	0
 3589 0487 48       		.uleb128 0x48
 3590 0488 2E       		.uleb128 0x2e
 3591 0489 01       		.byte	0x1
 3592 048a 31       		.uleb128 0x31
 3593 048b 13       		.uleb128 0x13
 3594 048c 11       		.uleb128 0x11
 3595 048d 01       		.uleb128 0x1
 3596 048e 12       		.uleb128 0x12
 3597 048f 06       		.uleb128 0x6
 3598 0490 40       		.uleb128 0x40
 3599 0491 18       		.uleb128 0x18
 3600 0492 7A       		.uleb128 0x7a
 3601 0493 19       		.uleb128 0x19
 3602 0494 01       		.uleb128 0x1
 3603 0495 13       		.uleb128 0x13
 3604 0496 00       		.byte	0
 3605 0497 00       		.byte	0
 3606 0498 49       		.uleb128 0x49
 3607 0499 2E       		.uleb128 0x2e
 3608 049a 00       		.byte	0
 3609 049b 3F       		.uleb128 0x3f
 3610 049c 19       		.uleb128 0x19
 3611 049d 3C       		.uleb128 0x3c
 3612 049e 19       		.uleb128 0x19
 3613 049f 6E       		.uleb128 0x6e
 3614 04a0 0E       		.uleb128 0xe
 3615 04a1 03       		.uleb128 0x3
 3616 04a2 0E       		.uleb128 0xe
 3617 04a3 00       		.byte	0
 3618 04a4 00       		.byte	0
 3619 04a5 00       		.byte	0
 3620              		.section	.debug_loclists,"",@progbits
GAS LISTING /tmp/ccgNg7u5.s 			page 66


 3621 0000 E5010000 		.long	.Ldebug_loc3-.Ldebug_loc2
 3622              	.Ldebug_loc2:
 3623 0004 0500     		.value	0x5
 3624 0006 04       		.byte	0x4
 3625 0007 00       		.byte	0
 3626 0008 00000000 		.long	0
 3627              	.Ldebug_loc0:
 3628              	.LVUS15:
 3629 000c 00       		.uleb128 .LVU210
 3630 000d 00       		.uleb128 .LVU212
 3631 000e 00       		.uleb128 .LVU212
 3632 000f 00       		.uleb128 .LVU220
 3633              	.LLST15:
 3634 0010 06       		.byte	0x6
 3635 0011 19000000 		.long	.LVL54
 3636 0015 04       		.byte	0x4
 3637 0016 00       		.uleb128 .LVL54-.LVL54
 3638 0017 00       		.uleb128 .LVL54-.LVL54
 3639 0018 01       		.uleb128 0x1
 3640 0019 50       		.byte	0x50
 3641 001a 04       		.byte	0x4
 3642 001b 00       		.uleb128 .LVL54-.LVL54
 3643 001c 14       		.uleb128 .LVL56-.LVL54
 3644 001d 01       		.uleb128 0x1
 3645 001e 56       		.byte	0x56
 3646 001f 00       		.byte	0
 3647              	.LVUS16:
 3648 0020 01       		.uleb128 .LVU211
 3649 0021 00       		.uleb128 .LVU212
 3650 0022 00       		.uleb128 .LVU212
 3651 0023 00       		.uleb128 .LVU220
 3652              	.LLST16:
 3653 0024 06       		.byte	0x6
 3654 0025 19000000 		.long	.LVL54
 3655 0029 04       		.byte	0x4
 3656 002a 00       		.uleb128 .LVL54-.LVL54
 3657 002b 00       		.uleb128 .LVL54-.LVL54
 3658 002c 07       		.uleb128 0x7
 3659 002d 70       		.byte	0x70
 3660 002e 00       		.sleb128 0
 3661 002f 91       		.byte	0x91
 3662 0030 00       		.sleb128 0
 3663 0031 06       		.byte	0x6
 3664 0032 22       		.byte	0x22
 3665 0033 9F       		.byte	0x9f
 3666 0034 04       		.byte	0x4
 3667 0035 00       		.uleb128 .LVL54-.LVL54
 3668 0036 14       		.uleb128 .LVL56-.LVL54
 3669 0037 07       		.uleb128 0x7
 3670 0038 76       		.byte	0x76
 3671 0039 00       		.sleb128 0
 3672 003a 91       		.byte	0x91
 3673 003b 00       		.sleb128 0
 3674 003c 06       		.byte	0x6
 3675 003d 22       		.byte	0x22
 3676 003e 9F       		.byte	0x9f
 3677 003f 00       		.byte	0
GAS LISTING /tmp/ccgNg7u5.s 			page 67


 3678              	.LVUS17:
 3679 0040 00       		.uleb128 .LVU215
 3680 0041 02       		.uleb128 .LVU217
 3681              	.LLST17:
 3682 0042 08       		.byte	0x8
 3683 0043 25000000 		.long	.LVL55
 3684 0047 00       		.uleb128 .LVL55-.LVL55
 3685 0048 07       		.uleb128 0x7
 3686 0049 76       		.byte	0x76
 3687 004a 00       		.sleb128 0
 3688 004b 91       		.byte	0x91
 3689 004c 00       		.sleb128 0
 3690 004d 06       		.byte	0x6
 3691 004e 22       		.byte	0x22
 3692 004f 9F       		.byte	0x9f
 3693 0050 00       		.byte	0
 3694              	.LVUS18:
 3695 0051 00       		.uleb128 .LVU215
 3696 0052 02       		.uleb128 .LVU217
 3697              	.LLST18:
 3698 0053 08       		.byte	0x8
 3699 0054 25000000 		.long	.LVL55
 3700 0058 00       		.uleb128 .LVL55-.LVL55
 3701 0059 01       		.uleb128 0x1
 3702 005a 56       		.byte	0x56
 3703 005b 00       		.byte	0
 3704              	.LVUS19:
 3705 005c 00       		.uleb128 .LVU215
 3706 005d 02       		.uleb128 .LVU217
 3707              	.LLST19:
 3708 005e 08       		.byte	0x8
 3709 005f 25000000 		.long	.LVL55
 3710 0063 00       		.uleb128 .LVL55-.LVL55
 3711 0064 01       		.uleb128 0x1
 3712 0065 50       		.byte	0x50
 3713 0066 00       		.byte	0
 3714              	.LVUS7:
 3715 0067 00       		.uleb128 0
 3716 0068 00       		.uleb128 .LVU181
 3717 0069 00       		.uleb128 .LVU181
 3718 006a 00       		.uleb128 0
 3719              	.LLST7:
 3720 006b 06       		.byte	0x6
 3721 006c 00000000 		.long	.LVL16
 3722 0070 04       		.byte	0x4
 3723 0071 00       		.uleb128 .LVL16-.LVL16
 3724 0072 8502     		.uleb128 .LVL47-.LVL16
 3725 0074 02       		.uleb128 0x2
 3726 0075 91       		.byte	0x91
 3727 0076 00       		.sleb128 0
 3728 0077 04       		.byte	0x4
 3729 0078 8502     		.uleb128 .LVL47-.LVL16
 3730 007a AA02     		.uleb128 .LFE207-.LVL16
 3731 007c 01       		.uleb128 0x1
 3732 007d 56       		.byte	0x56
 3733 007e 00       		.byte	0
 3734              	.LVUS8:
GAS LISTING /tmp/ccgNg7u5.s 			page 68


 3735 007f 02       		.uleb128 .LVU99
 3736 0080 00       		.uleb128 .LVU106
 3737 0081 00       		.uleb128 .LVU106
 3738 0082 00       		.uleb128 .LVU122
 3739 0083 02       		.uleb128 .LVU127
 3740 0084 00       		.uleb128 .LVU134
 3741 0085 00       		.uleb128 .LVU134
 3742 0086 00       		.uleb128 .LVU150
 3743 0087 03       		.uleb128 .LVU157
 3744 0088 00       		.uleb128 .LVU163
 3745 0089 00       		.uleb128 .LVU163
 3746 008a 00       		.uleb128 .LVU168
 3747 008b 01       		.uleb128 .LVU171
 3748 008c 00       		.uleb128 .LVU179
 3749 008d 00       		.uleb128 .LVU181
 3750 008e 00       		.uleb128 .LVU184
 3751 008f 00       		.uleb128 .LVU184
 3752 0090 00       		.uleb128 .LVU185
 3753 0091 00       		.uleb128 .LVU185
 3754 0092 00       		.uleb128 0
 3755              	.LLST8:
 3756 0093 06       		.byte	0x6
 3757 0094 1A000000 		.long	.LVL17
 3758 0098 04       		.byte	0x4
 3759 0099 00       		.uleb128 .LVL17-.LVL17
 3760 009a 1C       		.uleb128 .LVL19-.LVL17
 3761 009b 02       		.uleb128 0x2
 3762 009c 30       		.byte	0x30
 3763 009d 9F       		.byte	0x9f
 3764 009e 04       		.byte	0x4
 3765 009f 1C       		.uleb128 .LVL19-.LVL17
 3766 00a0 55       		.uleb128 .LVL26-.LVL17
 3767 00a1 01       		.uleb128 0x1
 3768 00a2 50       		.byte	0x50
 3769 00a3 04       		.byte	0x4
 3770 00a4 5D       		.uleb128 .LVL27-.LVL17
 3771 00a5 79       		.uleb128 .LVL29-.LVL17
 3772 00a6 02       		.uleb128 0x2
 3773 00a7 30       		.byte	0x30
 3774 00a8 9F       		.byte	0x9f
 3775 00a9 04       		.byte	0x4
 3776 00aa 79       		.uleb128 .LVL29-.LVL17
 3777 00ab A101     		.uleb128 .LVL36-.LVL17
 3778 00ad 01       		.uleb128 0x1
 3779 00ae 50       		.byte	0x50
 3780 00af 04       		.byte	0x4
 3781 00b0 A801     		.uleb128 .LVL37-.LVL17
 3782 00b2 BA01     		.uleb128 .LVL39-.LVL17
 3783 00b4 02       		.uleb128 0x2
 3784 00b5 30       		.byte	0x30
 3785 00b6 9F       		.byte	0x9f
 3786 00b7 04       		.byte	0x4
 3787 00b8 BA01     		.uleb128 .LVL39-.LVL17
 3788 00ba C701     		.uleb128 .LVL42-.LVL17
 3789 00bc 01       		.uleb128 0x1
 3790 00bd 50       		.byte	0x50
 3791 00be 04       		.byte	0x4
GAS LISTING /tmp/ccgNg7u5.s 			page 69


 3792 00bf CD01     		.uleb128 .LVL43-.LVL17
 3793 00c1 E501     		.uleb128 .LVL46-.LVL17
 3794 00c3 01       		.uleb128 0x1
 3795 00c4 50       		.byte	0x50
 3796 00c5 04       		.byte	0x4
 3797 00c6 EB01     		.uleb128 .LVL47-.LVL17
 3798 00c8 FB01     		.uleb128 .LVL48-.LVL17
 3799 00ca 02       		.uleb128 0x2
 3800 00cb 30       		.byte	0x30
 3801 00cc 9F       		.byte	0x9f
 3802 00cd 04       		.byte	0x4
 3803 00ce FB01     		.uleb128 .LVL48-.LVL17
 3804 00d0 8502     		.uleb128 .LVL49-.LVL17
 3805 00d2 01       		.uleb128 0x1
 3806 00d3 50       		.byte	0x50
 3807 00d4 04       		.byte	0x4
 3808 00d5 8502     		.uleb128 .LVL49-.LVL17
 3809 00d7 9002     		.uleb128 .LFE207-.LVL17
 3810 00d9 02       		.uleb128 0x2
 3811 00da 30       		.byte	0x30
 3812 00db 9F       		.byte	0x9f
 3813 00dc 00       		.byte	0
 3814              	.LVUS10:
 3815 00dd 00       		.uleb128 .LVU101
 3816 00de 00       		.uleb128 .LVU108
 3817 00df 01       		.uleb128 .LVU110
 3818 00e0 01       		.uleb128 .LVU112
 3819 00e1 01       		.uleb128 .LVU112
 3820 00e2 00       		.uleb128 .LVU114
 3821 00e3 00       		.uleb128 .LVU114
 3822 00e4 00       		.uleb128 .LVU116
 3823 00e5 01       		.uleb128 .LVU118
 3824 00e6 00       		.uleb128 .LVU122
 3825 00e7 00       		.uleb128 .LVU181
 3826 00e8 01       		.uleb128 .LVU182
 3827 00e9 01       		.uleb128 .LVU182
 3828 00ea 00       		.uleb128 .LVU184
 3829              	.LLST10:
 3830 00eb 06       		.byte	0x6
 3831 00ec 20000000 		.long	.LVL18
 3832 00f0 04       		.byte	0x4
 3833 00f1 00       		.uleb128 .LVL18-.LVL18
 3834 00f2 22       		.uleb128 .LVL20-.LVL18
 3835 00f3 01       		.uleb128 0x1
 3836 00f4 52       		.byte	0x52
 3837 00f5 04       		.byte	0x4
 3838 00f6 25       		.uleb128 .LVL21-.LVL18
 3839 00f7 29       		.uleb128 .LVL22-.LVL18
 3840 00f8 01       		.uleb128 0x1
 3841 00f9 52       		.byte	0x52
 3842 00fa 04       		.byte	0x4
 3843 00fb 29       		.uleb128 .LVL22-.LVL18
 3844 00fc 31       		.uleb128 .LVL23-.LVL18
 3845 00fd 05       		.uleb128 0x5
 3846 00fe 03       		.byte	0x3
 3847 00ff 04000000 		.long	ch0+4
 3848 0103 04       		.byte	0x4
GAS LISTING /tmp/ccgNg7u5.s 			page 70


 3849 0104 31       		.uleb128 .LVL23-.LVL18
 3850 0105 3B       		.uleb128 .LVL24-.LVL18
 3851 0106 01       		.uleb128 0x1
 3852 0107 51       		.byte	0x51
 3853 0108 04       		.byte	0x4
 3854 0109 3E       		.uleb128 .LVL25-.LVL18
 3855 010a 4F       		.uleb128 .LVL26-.LVL18
 3856 010b 01       		.uleb128 0x1
 3857 010c 51       		.byte	0x51
 3858 010d 04       		.byte	0x4
 3859 010e E501     		.uleb128 .LVL47-.LVL18
 3860 0110 E501     		.uleb128 .LVL47-.LVL18
 3861 0112 01       		.uleb128 0x1
 3862 0113 52       		.byte	0x52
 3863 0114 04       		.byte	0x4
 3864 0115 E501     		.uleb128 .LVL47-.LVL18
 3865 0117 F501     		.uleb128 .LVL48-.LVL18
 3866 0119 05       		.uleb128 0x5
 3867 011a 03       		.byte	0x3
 3868 011b 04000000 		.long	ch0+4
 3869 011f 00       		.byte	0
 3870              	.LVUS12:
 3871 0120 00       		.uleb128 .LVU129
 3872 0121 00       		.uleb128 .LVU136
 3873 0122 01       		.uleb128 .LVU138
 3874 0123 01       		.uleb128 .LVU140
 3875 0124 01       		.uleb128 .LVU140
 3876 0125 00       		.uleb128 .LVU142
 3877 0126 00       		.uleb128 .LVU142
 3878 0127 00       		.uleb128 .LVU144
 3879 0128 01       		.uleb128 .LVU146
 3880 0129 00       		.uleb128 .LVU150
 3881 012a 00       		.uleb128 .LVU185
 3882 012b 02       		.uleb128 .LVU187
 3883 012c 02       		.uleb128 .LVU187
 3884 012d 00       		.uleb128 0
 3885              	.LLST12:
 3886 012e 06       		.byte	0x6
 3887 012f 7D000000 		.long	.LVL28
 3888 0133 04       		.byte	0x4
 3889 0134 00       		.uleb128 .LVL28-.LVL28
 3890 0135 1D       		.uleb128 .LVL30-.LVL28
 3891 0136 01       		.uleb128 0x1
 3892 0137 52       		.byte	0x52
 3893 0138 04       		.byte	0x4
 3894 0139 20       		.uleb128 .LVL31-.LVL28
 3895 013a 24       		.uleb128 .LVL32-.LVL28
 3896 013b 01       		.uleb128 0x1
 3897 013c 52       		.byte	0x52
 3898 013d 04       		.byte	0x4
 3899 013e 24       		.uleb128 .LVL32-.LVL28
 3900 013f 28       		.uleb128 .LVL33-.LVL28
 3901 0140 05       		.uleb128 0x5
 3902 0141 03       		.byte	0x3
 3903 0142 14000000 		.long	ch0+20
 3904 0146 04       		.byte	0x4
 3905 0147 28       		.uleb128 .LVL33-.LVL28
GAS LISTING /tmp/ccgNg7u5.s 			page 71


 3906 0148 2E       		.uleb128 .LVL34-.LVL28
 3907 0149 01       		.uleb128 0x1
 3908 014a 51       		.byte	0x51
 3909 014b 04       		.byte	0x4
 3910 014c 31       		.uleb128 .LVL35-.LVL28
 3911 014d 3E       		.uleb128 .LVL36-.LVL28
 3912 014e 01       		.uleb128 0x1
 3913 014f 51       		.byte	0x51
 3914 0150 04       		.byte	0x4
 3915 0151 A201     		.uleb128 .LVL49-.LVL28
 3916 0153 A201     		.uleb128 .LVL49-.LVL28
 3917 0155 01       		.uleb128 0x1
 3918 0156 52       		.byte	0x52
 3919 0157 04       		.byte	0x4
 3920 0158 A201     		.uleb128 .LVL49-.LVL28
 3921 015a AD01     		.uleb128 .LFE207-.LVL28
 3922 015c 05       		.uleb128 0x5
 3923 015d 03       		.byte	0x3
 3924 015e 14000000 		.long	ch0+20
 3925 0162 00       		.byte	0
 3926              	.LVUS13:
 3927 0163 00       		.uleb128 .LVU159
 3928 0164 00       		.uleb128 .LVU165
 3929 0165 01       		.uleb128 .LVU167
 3930 0166 00       		.uleb128 .LVU174
 3931 0167 01       		.uleb128 .LVU176
 3932 0168 00       		.uleb128 .LVU179
 3933              	.LLST13:
 3934 0169 06       		.byte	0x6
 3935 016a C8000000 		.long	.LVL38
 3936 016e 04       		.byte	0x4
 3937 016f 00       		.uleb128 .LVL38-.LVL38
 3938 0170 12       		.uleb128 .LVL40-.LVL38
 3939 0171 01       		.uleb128 0x1
 3940 0172 52       		.byte	0x52
 3941 0173 04       		.byte	0x4
 3942 0174 15       		.uleb128 .LVL41-.LVL38
 3943 0175 2B       		.uleb128 .LVL44-.LVL38
 3944 0176 01       		.uleb128 0x1
 3945 0177 52       		.byte	0x52
 3946 0178 04       		.byte	0x4
 3947 0179 2E       		.uleb128 .LVL45-.LVL38
 3948 017a 37       		.uleb128 .LVL46-.LVL38
 3949 017b 01       		.uleb128 0x1
 3950 017c 52       		.byte	0x52
 3951 017d 00       		.byte	0
 3952              	.LVUS14:
 3953 017e 02       		.uleb128 .LVU156
 3954 017f 00       		.uleb128 .LVU179
 3955              	.LLST14:
 3956 0180 08       		.byte	0x8
 3957 0181 C2000000 		.long	.LVL37
 3958 0185 3D       		.uleb128 .LVL46-.LVL37
 3959 0186 06       		.uleb128 0x6
 3960 0187 03       		.byte	0x3
 3961 0188 28000000 		.long	ch0+40
 3962 018c 9F       		.byte	0x9f
GAS LISTING /tmp/ccgNg7u5.s 			page 72


 3963 018d 00       		.byte	0
 3964              	.LVUS6:
 3965 018e 02       		.uleb128 .LVU83
 3966 018f 00       		.uleb128 0
 3967              	.LLST6:
 3968 0190 08       		.byte	0x8
 3969 0191 00000000 		.long	.LVL15
 3970 0195 11       		.uleb128 .LFE206-.LVL15
 3971 0196 05       		.uleb128 0x5
 3972 0197 03       		.byte	0x3
 3973 0198 04000000 		.long	ch0+4
 3974 019c 00       		.byte	0
 3975              	.LVUS0:
 3976 019d 01       		.uleb128 .LVU16
 3977 019e 01       		.uleb128 .LVU20
 3978 019f 01       		.uleb128 .LVU20
 3979 01a0 00       		.uleb128 0
 3980              	.LLST0:
 3981 01a1 06       		.byte	0x6
 3982 01a2 31000000 		.long	.LVL1
 3983 01a6 04       		.byte	0x4
 3984 01a7 00       		.uleb128 .LVL1-.LVL1
 3985 01a8 0A       		.uleb128 .LVL2-.LVL1
 3986 01a9 02       		.uleb128 0x2
 3987 01aa 30       		.byte	0x30
 3988 01ab 9F       		.byte	0x9f
 3989 01ac 04       		.byte	0x4
 3990 01ad 0A       		.uleb128 .LVL2-.LVL1
 3991 01ae 9601     		.uleb128 .LFE204-.LVL1
 3992 01b0 02       		.uleb128 0x2
 3993 01b1 31       		.byte	0x31
 3994 01b2 9F       		.byte	0x9f
 3995 01b3 00       		.byte	0
 3996              	.LVUS2:
 3997 01b4 04       		.uleb128 .LVU23
 3998 01b5 00       		.uleb128 .LVU38
 3999              	.LLST2:
 4000 01b6 08       		.byte	0x8
 4001 01b7 3B000000 		.long	.LVL2
 4002 01bb 35       		.uleb128 .LVL8-.LVL2
 4003 01bc 06       		.uleb128 0x6
 4004 01bd 03       		.byte	0x3
 4005 01be 08000000 		.long	ch_system+8
 4006 01c2 9F       		.byte	0x9f
 4007 01c3 00       		.byte	0
 4008              	.LVUS3:
 4009 01c4 01       		.uleb128 .LVU29
 4010 01c5 00       		.uleb128 .LVU30
 4011 01c6 00       		.uleb128 .LVU30
 4012 01c7 01       		.uleb128 .LVU34
 4013 01c8 01       		.uleb128 .LVU34
 4014 01c9 00       		.uleb128 .LVU35
 4015 01ca 00       		.uleb128 .LVU35
 4016 01cb 00       		.uleb128 .LVU38
 4017              	.LLST3:
 4018 01cc 06       		.byte	0x6
 4019 01cd 4A000000 		.long	.LVL3
GAS LISTING /tmp/ccgNg7u5.s 			page 73


 4020 01d1 04       		.byte	0x4
 4021 01d2 00       		.uleb128 .LVL3-.LVL3
 4022 01d3 03       		.uleb128 .LVL4-.LVL3
 4023 01d4 02       		.uleb128 0x2
 4024 01d5 34       		.byte	0x34
 4025 01d6 9F       		.byte	0x9f
 4026 01d7 04       		.byte	0x4
 4027 01d8 03       		.uleb128 .LVL4-.LVL3
 4028 01d9 14       		.uleb128 .LVL6-.LVL3
 4029 01da 01       		.uleb128 0x1
 4030 01db 56       		.byte	0x56
 4031 01dc 04       		.byte	0x4
 4032 01dd 14       		.uleb128 .LVL6-.LVL3
 4033 01de 1A       		.uleb128 .LVL7-.LVL3
 4034 01df 03       		.uleb128 0x3
 4035 01e0 76       		.byte	0x76
 4036 01e1 7F       		.sleb128 -1
 4037 01e2 9F       		.byte	0x9f
 4038 01e3 04       		.byte	0x4
 4039 01e4 1A       		.uleb128 .LVL7-.LVL3
 4040 01e5 26       		.uleb128 .LVL8-.LVL3
 4041 01e6 01       		.uleb128 0x1
 4042 01e7 56       		.byte	0x56
 4043 01e8 00       		.byte	0
 4044              	.Ldebug_loc3:
 4045              		.section	.debug_aranges,"",@progbits
 4046 0000 54000000 		.long	0x54
 4047 0004 0200     		.value	0x2
 4048 0006 00000000 		.long	.Ldebug_info0
 4049 000a 04       		.byte	0x4
 4050 000b 00       		.byte	0
 4051 000c 0000     		.value	0
 4052 000e 0000     		.value	0
 4053 0010 00000000 		.long	.LFB203
 4054 0014 1D000000 		.long	.LFE203-.LFB203
 4055 0018 00000000 		.long	.LFB204
 4056 001c C7000000 		.long	.LFE204-.LFB204
 4057 0020 00000000 		.long	.LFB205
 4058 0024 2C000000 		.long	.LFE205-.LFB205
 4059 0028 00000000 		.long	.LFB206
 4060 002c 11000000 		.long	.LFE206-.LFB206
 4061 0030 00000000 		.long	.LFB207
 4062 0034 2A010000 		.long	.LFE207-.LFB207
 4063 0038 00000000 		.long	.LFB208
 4064 003c 19000000 		.long	.LFE208-.LFB208
 4065 0040 00000000 		.long	.LFB209
 4066 0044 16000000 		.long	.LFE209-.LFB209
 4067 0048 00000000 		.long	.LFB210
 4068 004c 2F000000 		.long	.LFE210-.LFB210
 4069 0050 00000000 		.long	0
 4070 0054 00000000 		.long	0
 4071              		.section	.debug_rnglists,"",@progbits
 4072              	.Ldebug_ranges0:
 4073 0000 86000000 		.long	.Ldebug_ranges3-.Ldebug_ranges2
 4074              	.Ldebug_ranges2:
 4075 0004 0500     		.value	0x5
 4076 0006 04       		.byte	0x4
GAS LISTING /tmp/ccgNg7u5.s 			page 74


 4077 0007 00       		.byte	0
 4078 0008 00000000 		.long	0
 4079              	.LLRL1:
 4080 000c 05       		.byte	0x5
 4081 000d 02000000 		.long	.LBB20
 4082 0011 04       		.byte	0x4
 4083 0012 00       		.uleb128 .LBB20-.LBB20
 4084 0013 05       		.uleb128 .LBE20-.LBB20
 4085 0014 04       		.byte	0x4
 4086 0015 20       		.uleb128 .LBB24-.LBB20
 4087 0016 25       		.uleb128 .LBE24-.LBB20
 4088 0017 04       		.byte	0x4
 4089 0018 39       		.uleb128 .LBB25-.LBB20
 4090 0019 6E       		.uleb128 .LBE25-.LBB20
 4091 001a 00       		.byte	0
 4092              	.LLRL4:
 4093 001b 05       		.byte	0x5
 4094 001c 95000000 		.long	.LBB28
 4095 0020 04       		.byte	0x4
 4096 0021 00       		.uleb128 .LBB28-.LBB28
 4097 0022 06       		.uleb128 .LBE28-.LBB28
 4098 0023 04       		.byte	0x4
 4099 0024 13       		.uleb128 .LBB35-.LBB28
 4100 0025 19       		.uleb128 .LBE35-.LBB28
 4101 0026 00       		.byte	0
 4102              	.LLRL5:
 4103 0027 05       		.byte	0x5
 4104 0028 00000000 		.long	.LBB36
 4105 002c 04       		.byte	0x4
 4106 002d 00       		.uleb128 .LBB36-.LBB36
 4107 002e 0A       		.uleb128 .LBE36-.LBB36
 4108 002f 04       		.byte	0x4
 4109 0030 14       		.uleb128 .LBB39-.LBB36
 4110 0031 20       		.uleb128 .LBE39-.LBB36
 4111 0032 00       		.byte	0
 4112              	.LLRL9:
 4113 0033 05       		.byte	0x5
 4114 0034 1A000000 		.long	.LBB40
 4115 0038 04       		.byte	0x4
 4116 0039 00       		.uleb128 .LBB40-.LBB40
 4117 003a 55       		.uleb128 .LBE40-.LBB40
 4118 003b 04       		.byte	0x4
 4119 003c 9801     		.uleb128 .LBB42-.LBB40
 4120 003e 9D01     		.uleb128 .LBE42-.LBB40
 4121 0040 04       		.byte	0x4
 4122 0041 EE01     		.uleb128 .LBB45-.LBB40
 4123 0043 8602     		.uleb128 .LBE45-.LBB40
 4124 0045 00       		.byte	0
 4125              	.LLRL11:
 4126 0046 05       		.byte	0x5
 4127 0047 77000000 		.long	.LBB41
 4128 004b 04       		.byte	0x4
 4129 004c 00       		.uleb128 .LBB41-.LBB41
 4130 004d 3B       		.uleb128 .LBE41-.LBB41
 4131 004e 04       		.byte	0x4
 4132 004f 40       		.uleb128 .LBB43-.LBB41
 4133 0050 44       		.uleb128 .LBE43-.LBB41
GAS LISTING /tmp/ccgNg7u5.s 			page 75


 4134 0051 04       		.byte	0x4
 4135 0052 A901     		.uleb128 .LBB46-.LBB41
 4136 0054 B301     		.uleb128 .LBE46-.LBB41
 4137 0056 00       		.byte	0
 4138              	.LLRL20:
 4139 0057 07       		.byte	0x7
 4140 0058 00000000 		.long	.LFB203
 4141 005c 1D       		.uleb128 .LFE203-.LFB203
 4142 005d 07       		.byte	0x7
 4143 005e 00000000 		.long	.LFB204
 4144 0062 C701     		.uleb128 .LFE204-.LFB204
 4145 0064 07       		.byte	0x7
 4146 0065 00000000 		.long	.LFB205
 4147 0069 2C       		.uleb128 .LFE205-.LFB205
 4148 006a 07       		.byte	0x7
 4149 006b 00000000 		.long	.LFB206
 4150 006f 11       		.uleb128 .LFE206-.LFB206
 4151 0070 07       		.byte	0x7
 4152 0071 00000000 		.long	.LFB207
 4153 0075 AA02     		.uleb128 .LFE207-.LFB207
 4154 0077 07       		.byte	0x7
 4155 0078 00000000 		.long	.LFB208
 4156 007c 19       		.uleb128 .LFE208-.LFB208
 4157 007d 07       		.byte	0x7
 4158 007e 00000000 		.long	.LFB209
 4159 0082 16       		.uleb128 .LFE209-.LFB209
 4160 0083 07       		.byte	0x7
 4161 0084 00000000 		.long	.LFB210
 4162 0088 2F       		.uleb128 .LFE210-.LFB210
 4163 0089 00       		.byte	0
 4164              	.Ldebug_ranges3:
 4165              		.section	.debug_line,"",@progbits
 4166              	.Ldebug_line0:
 4167 0000 5C040000 		.section	.debug_str,"MS",@progbits,1
 4167      05000400 
 4167      B4000000 
 4167      010101FB 
 4167      0E0D0001 
 4168              	.LASF91:
 4169 0000 6C617374 		.string	"last"
 4169      00
 4170              	.LASF125:
 4171 0005 63737461 		.string	"cstack_base"
 4171      636B5F62 
 4171      61736500 
 4172              	.LASF134:
 4173 0011 63685F63 		.string	"ch_core0_cfg"
 4173      6F726530 
 4173      5F636667 
 4173      00
 4174              	.LASF117:
 4175 001e 77746D74 		.string	"wtmtxp"
 4175      787000
 4176              	.LASF88:
 4177 0025 746D5F63 		.string	"tm_calibration_t"
 4177      616C6962 
 4177      72617469 
GAS LISTING /tmp/ccgNg7u5.s 			page 76


 4177      6F6E5F74 
 4177      00
 4178              	.LASF107:
 4179 0036 74687265 		.string	"thread_reference_t"
 4179      61645F72 
 4179      65666572 
 4179      656E6365 
 4179      5F7400
 4180              	.LASF96:
 4181 0049 63685F73 		.string	"ch_sys_running"
 4181      79735F72 
 4181      756E6E69 
 4181      6E6700
 4182              	.LASF149:
 4183 0058 63685379 		.string	"chSysTimerHandlerI"
 4183      7354696D 
 4183      65724861 
 4183      6E646C65 
 4183      724900
 4184              	.LASF44:
 4185 006b 64697370 		.string	"dispose"
 4185      6F736500 
 4186              	.LASF104:
 4187 0073 63685F72 		.string	"ch_registry"
 4187      65676973 
 4187      74727900 
 4188              	.LASF145:
 4189 007f 6368544D 		.string	"chTMObjectInit"
 4189      4F626A65 
 4189      6374496E 
 4189      697400
 4190              	.LASF101:
 4191 008e 73797374 		.string	"systime"
 4191      696D6500 
 4192              	.LASF40:
 4193 0096 666C6167 		.string	"flags"
 4193      7300
 4194              	.LASF69:
 4195 009c 73797374 		.string	"systime_t"
 4195      696D655F 
 4195      7400
 4196              	.LASF167:
 4197 00a6 74657374 		.string	"testmask"
 4197      6D61736B 
 4197      00
 4198              	.LASF50:
 4199 00af 7265616C 		.string	"realprio"
 4199      7072696F 
 4199      00
 4200              	.LASF144:
 4201 00b8 6368544D 		.string	"chTMStartMeasurementX"
 4201      53746172 
 4201      744D6561 
 4201      73757265 
 4201      6D656E74 
 4202              	.LASF48:
 4203 00ce 6570656E 		.string	"epending"
GAS LISTING /tmp/ccgNg7u5.s 			page 77


 4203      64696E67 
 4203      00
 4204              	.LASF2:
 4205 00d7 756E7369 		.string	"unsigned int"
 4205      676E6564 
 4205      20696E74 
 4205      00
 4206              	.LASF73:
 4207 00e4 6E657874 		.string	"next"
 4207      00
 4208              	.LASF6:
 4209 00e9 5F466C6F 		.string	"_Float128"
 4209      61743132 
 4209      3800
 4210              	.LASF25:
 4211 00f3 73797373 		.string	"syssts_t"
 4211      74735F74 
 4211      00
 4212              	.LASF57:
 4213 00fc 636F7265 		.string	"core_id"
 4213      5F696400 
 4214              	.LASF92:
 4215 0104 63756D75 		.string	"cumulative"
 4215      6C617469 
 4215      766500
 4216              	.LASF14:
 4217 010f 5F5F696E 		.string	"__int32_t"
 4217      7433325F 
 4217      7400
 4218              	.LASF41:
 4219 0119 72656673 		.string	"refs"
 4219      00
 4220              	.LASF113:
 4221 011e 77746F62 		.string	"wtobjp"
 4221      6A7000
 4222              	.LASF55:
 4223 0125 76746C69 		.string	"vtlist"
 4223      737400
 4224              	.LASF85:
 4225 012c 706F7274 		.string	"port_context"
 4225      5F636F6E 
 4225      74657874 
 4225      00
 4226              	.LASF121:
 4227 0139 63685F72 		.string	"ch_ready_list"
 4227      65616479 
 4227      5F6C6973 
 4227      7400
 4228              	.LASF72:
 4229 0147 63685F6C 		.string	"ch_list"
 4229      69737400 
 4230              	.LASF131:
 4231 014f 696E7374 		.string	"instances"
 4231      616E6365 
 4231      7300
 4232              	.LASF120:
 4233 0159 63685F6D 		.string	"ch_mutex"
GAS LISTING /tmp/ccgNg7u5.s 			page 78


 4233      75746578 
 4233      00
 4234              	.LASF102:
 4235 0162 6C617374 		.string	"laststamp"
 4235      7374616D 
 4235      7000
 4236              	.LASF118:
 4237 016c 65776D61 		.string	"ewmask"
 4237      736B00
 4238              	.LASF76:
 4239 0173 70726576 		.string	"prev"
 4239      00
 4240              	.LASF66:
 4241 0178 63685F73 		.string	"ch_system_debug"
 4241      79737465 
 4241      6D5F6465 
 4241      62756700 
 4242              	.LASF109:
 4243 0188 6C697374 		.string	"list"
 4243      00
 4244              	.LASF81:
 4245 018d 63685F64 		.string	"ch_delta_list"
 4245      656C7461 
 4245      5F6C6973 
 4245      7400
 4246              	.LASF21:
 4247 019b 75696E74 		.string	"uint32_t"
 4247      33325F74 
 4247      00
 4248              	.LASF115:
 4249 01a4 73656E74 		.string	"sentmsg"
 4249      6D736700 
 4250              	.LASF31:
 4251 01ac 6576656E 		.string	"eventmask_t"
 4251      746D6173 
 4251      6B5F7400 
 4252              	.LASF97:
 4253 01b8 63685F73 		.string	"ch_sys_halted"
 4253      79735F68 
 4253      616C7465 
 4253      6400
 4254              	.LASF119:
 4255 01c6 63685F73 		.string	"ch_semaphore"
 4255      656D6170 
 4255      686F7265 
 4255      00
 4256              	.LASF29:
 4257 01d3 74707269 		.string	"tprio_t"
 4257      6F5F7400 
 4258              	.LASF129:
 4259 01db 6F735F69 		.string	"os_instance_config_t"
 4259      6E737461 
 4259      6E63655F 
 4259      636F6E66 
 4259      69675F74 
 4260              	.LASF17:
 4261 01f0 6C6F6E67 		.string	"long long unsigned int"
GAS LISTING /tmp/ccgNg7u5.s 			page 79


 4261      206C6F6E 
 4261      6720756E 
 4261      7369676E 
 4261      65642069 
 4262              	.LASF165:
 4263 0207 706F7274 		.string	"port_rt_get_counter_value"
 4263      5F72745F 
 4263      6765745F 
 4263      636F756E 
 4263      7465725F 
 4264              	.LASF154:
 4265 0221 72656173 		.string	"reason"
 4265      6F6E00
 4266              	.LASF161:
 4267 0228 706F7274 		.string	"port_disable"
 4267      5F646973 
 4267      61626C65 
 4267      00
 4268              	.LASF110:
 4269 0235 70717565 		.string	"pqueue"
 4269      756500
 4270              	.LASF32:
 4271 023c 636E745F 		.string	"cnt_t"
 4271      7400
 4272              	.LASF164:
 4273 0242 73746B6C 		.string	"stkline_t"
 4273      696E655F 
 4273      7400
 4274              	.LASF158:
 4275 024c 63685379 		.string	"chSysUnlock"
 4275      73556E6C 
 4275      6F636B00 
 4276              	.LASF90:
 4277 0258 776F7273 		.string	"worst"
 4277      7400
 4278              	.LASF36:
 4279 025e 6F776E65 		.string	"owner"
 4279      7200
 4280              	.LASF49:
 4281 0264 6D74786C 		.string	"mtxlist"
 4281      69737400 
 4282              	.LASF99:
 4283 026c 63685F76 		.string	"ch_virtual_timers_list"
 4283      69727475 
 4283      616C5F74 
 4283      696D6572 
 4283      735F6C69 
 4284              	.LASF58:
 4285 0283 72666375 		.string	"rfcu"
 4285      00
 4286              	.LASF35:
 4287 0288 74687265 		.string	"thread_t"
 4287      61645F74 
 4287      00
 4288              	.LASF139:
 4289 0291 63685654 		.string	"chVTDoTickI"
 4289      446F5469 
GAS LISTING /tmp/ccgNg7u5.s 			page 80


 4289      636B4900 
 4290              	.LASF11:
 4291 029d 73697A65 		.string	"size_t"
 4291      5F7400
 4292              	.LASF111:
 4293 02a4 7264796D 		.string	"rdymsg"
 4293      736700
 4294              	.LASF156:
 4295 02ab 63685379 		.string	"chSysWaitSystemState"
 4295      73576169 
 4295      74537973 
 4295      74656D53 
 4295      74617465 
 4296              	.LASF87:
 4297 02c0 6F666673 		.string	"offset"
 4297      657400
 4298              	.LASF77:
 4299 02c7 63685F70 		.string	"ch_priority_queue_t"
 4299      72696F72 
 4299      6974795F 
 4299      71756575 
 4299      655F7400 
 4300              	.LASF86:
 4301 02db 5F426F6F 		.string	"_Bool"
 4301      6C00
 4302              	.LASF133:
 4303 02e1 706F7274 		.string	"port_irq_sts"
 4303      5F697271 
 4303      5F737473 
 4303      00
 4304              	.LASF45:
 4305 02ee 6F626A65 		.string	"object"
 4305      637400
 4306              	.LASF63:
 4307 02f5 63685F72 		.string	"ch_rfcu"
 4307      66637500 
 4308              	.LASF16:
 4309 02fd 5F5F7569 		.string	"__uint64_t"
 4309      6E743634 
 4309      5F7400
 4310              	.LASF53:
 4311 0308 63685F6F 		.string	"ch_os_instance"
 4311      735F696E 
 4311      7374616E 
 4311      636500
 4312              	.LASF93:
 4313 0317 74696D65 		.string	"time_measurement_t"
 4313      5F6D6561 
 4313      73757265 
 4313      6D656E74 
 4313      5F7400
 4314              	.LASF141:
 4315 032a 5F5F6865 		.string	"__heap_init"
 4315      61705F69 
 4315      6E697400 
 4316              	.LASF79:
 4317 0336 7072696F 		.string	"prio"
GAS LISTING /tmp/ccgNg7u5.s 			page 81


 4317      00
 4318              	.LASF18:
 4319 033b 63686172 		.string	"char"
 4319      00
 4320              	.LASF155:
 4321 0340 63685379 		.string	"chSysInit"
 4321      73496E69 
 4321      7400
 4322              	.LASF80:
 4323 034a 63685F64 		.string	"ch_delta_list_t"
 4323      656C7461 
 4323      5F6C6973 
 4323      745F7400 
 4324              	.LASF62:
 4325 035a 72666375 		.string	"rfcu_mask_t"
 4325      5F6D6173 
 4325      6B5F7400 
 4326              	.LASF24:
 4327 0366 72747469 		.string	"rttime_t"
 4327      6D655F74 
 4327      00
 4328              	.LASF37:
 4329 036f 77616261 		.string	"wabase"
 4329      736500
 4330              	.LASF27:
 4331 0376 74737461 		.string	"tstate_t"
 4331      74655F74 
 4331      00
 4332              	.LASF43:
 4333 037f 72717565 		.string	"rqueue"
 4333      756500
 4334              	.LASF20:
 4335 0386 75696E74 		.string	"uint8_t"
 4335      385F7400 
 4336              	.LASF47:
 4337 038e 6D736771 		.string	"msgqueue"
 4337      75657565 
 4337      00
 4338              	.LASF137:
 4339 0397 5F5F6D61 		.string	"__main_thread_stack_base__"
 4339      696E5F74 
 4339      68726561 
 4339      645F7374 
 4339      61636B5F 
 4340              	.LASF52:
 4341 03b2 63685F74 		.string	"ch_thread"
 4341      68726561 
 4341      6400
 4342              	.LASF142:
 4343 03bc 5F5F636F 		.string	"__core_init"
 4343      72655F69 
 4343      6E697400 
 4344              	.LASF68:
 4345 03c8 73797374 		.string	"system_debug_t"
 4345      656D5F64 
 4345      65627567 
 4345      5F7400
GAS LISTING /tmp/ccgNg7u5.s 			page 82


 4346              	.LASF4:
 4347 03d7 6C6F6E67 		.string	"long long int"
 4347      206C6F6E 
 4347      6720696E 
 4347      7400
 4348              	.LASF30:
 4349 03e5 6D73675F 		.string	"msg_t"
 4349      7400
 4350              	.LASF166:
 4351 03eb 63685379 		.string	"chSysIsCounterWithinX"
 4351      73497343 
 4351      6F756E74 
 4351      65725769 
 4351      7468696E 
 4352              	.LASF106:
 4353 0401 72656769 		.string	"registry_t"
 4353      73747279 
 4353      5F7400
 4354              	.LASF148:
 4355 040c 63685379 		.string	"chSysPolledDelayX"
 4355      73506F6C 
 4355      6C656444 
 4355      656C6179 
 4355      5800
 4356              	.LASF160:
 4357 041e 5F5F6F73 		.string	"__oslib_init"
 4357      6C69625F 
 4357      696E6974 
 4357      00
 4358              	.LASF128:
 4359 042b 69646C65 		.string	"idlestack_end"
 4359      73746163 
 4359      6B5F656E 
 4359      6400
 4360              	.LASF64:
 4361 0439 6D61736B 		.string	"mask"
 4361      00
 4362              	.LASF108:
 4363 043e 74687265 		.string	"thread_dispose_t"
 4363      61645F64 
 4363      6973706F 
 4363      73655F74 
 4363      00
 4364              	.LASF70:
 4365 044f 73797369 		.string	"sysinterval_t"
 4365      6E746572 
 4365      76616C5F 
 4365      7400
 4366              	.LASF74:
 4367 045d 63685F71 		.string	"ch_queue_t"
 4367      75657565 
 4367      5F7400
 4368              	.LASF67:
 4369 0468 70616E69 		.string	"panic_msg"
 4369      635F6D73 
 4369      6700
 4370              	.LASF127:
GAS LISTING /tmp/ccgNg7u5.s 			page 83


 4371 0472 69646C65 		.string	"idlestack_base"
 4371      73746163 
 4371      6B5F6261 
 4371      736500
 4372              	.LASF26:
 4373 0481 746D6F64 		.string	"tmode_t"
 4373      655F7400 
 4374              	.LASF33:
 4375 0489 75636E74 		.string	"ucnt_t"
 4375      5F7400
 4376              	.LASF60:
 4377 0490 69646C65 		.string	"idlethread"
 4377      74687265 
 4377      616400
 4378              	.LASF5:
 4379 049b 6C6F6E67 		.string	"long double"
 4379      20646F75 
 4379      626C6500 
 4380              	.LASF71:
 4381 04a7 63685F6C 		.string	"ch_list_t"
 4381      6973745F 
 4381      7400
 4382              	.LASF140:
 4383 04b1 5F5F6661 		.string	"__factory_init"
 4383      63746F72 
 4383      795F696E 
 4383      697400
 4384              	.LASF23:
 4385 04c0 7274636E 		.string	"rtcnt_t"
 4385      745F7400 
 4386              	.LASF59:
 4387 04c8 636F6E66 		.string	"config"
 4387      696700
 4388              	.LASF143:
 4389 04cf 6368544D 		.string	"chTMStopMeasurementX"
 4389      53746F70 
 4389      4D656173 
 4389      7572656D 
 4389      656E7458 
 4390              	.LASF13:
 4391 04e4 73686F72 		.string	"short int"
 4391      7420696E 
 4391      7400
 4392              	.LASF3:
 4393 04ee 6C6F6E67 		.string	"long int"
 4393      20696E74 
 4393      00
 4394              	.LASF84:
 4395 04f7 706F7274 		.string	"port_intctx"
 4395      5F696E74 
 4395      63747800 
 4396              	.LASF130:
 4397 0503 63685F73 		.string	"ch_system"
 4397      79737465 
 4397      6D00
 4398              	.LASF163:
 4399 050d 474E5520 		.string	"GNU C17 11.4.0 -m32 -mtune=generic -march=i686 -ggdb -O2 -ffunction-sections -fdata-secti
GAS LISTING /tmp/ccgNg7u5.s 			page 84


 4399      43313720 
 4399      31312E34 
 4399      2E30202D 
 4399      6D333220 
 4400              	.LASF38:
 4401 05c5 7761656E 		.string	"waend"
 4401      6400
 4402              	.LASF126:
 4403 05cb 63737461 		.string	"cstack_end"
 4403      636B5F65 
 4403      6E6400
 4404              	.LASF124:
 4405 05d6 63685F6F 		.string	"ch_os_instance_config"
 4405      735F696E 
 4405      7374616E 
 4405      63655F63 
 4405      6F6E6669 
 4406              	.LASF100:
 4407 05ec 646C6973 		.string	"dlist"
 4407      7400
 4408              	.LASF22:
 4409 05f2 75696E74 		.string	"uint64_t"
 4409      36345F74 
 4409      00
 4410              	.LASF54:
 4411 05fb 726C6973 		.string	"rlist"
 4411      7400
 4412              	.LASF94:
 4413 0601 63685F73 		.string	"ch_sys_uninit"
 4413      79735F75 
 4413      6E696E69 
 4413      7400
 4414              	.LASF136:
 4415 060f 63685F63 		.string	"ch_c0_idle_thread_wa"
 4415      305F6964 
 4415      6C655F74 
 4415      68726561 
 4415      645F7761 
 4416              	.LASF12:
 4417 0624 5F5F7569 		.string	"__uint8_t"
 4417      6E74385F 
 4417      7400
 4418              	.LASF42:
 4419 062e 6E616D65 		.string	"name"
 4419      00
 4420              	.LASF147:
 4421 0633 73746172 		.string	"start"
 4421      7400
 4422              	.LASF28:
 4423 0639 74726566 		.string	"trefs_t"
 4423      735F7400 
 4424              	.LASF9:
 4425 0641 6C6F6E67 		.string	"long unsigned int"
 4425      20756E73 
 4425      69676E65 
 4425      6420696E 
 4425      7400
GAS LISTING /tmp/ccgNg7u5.s 			page 85


 4426              	.LASF123:
 4427 0653 72656164 		.string	"ready_list_t"
 4427      795F6C69 
 4427      73745F74 
 4427      00
 4428              	.LASF105:
 4429 0660 71756575 		.string	"queue"
 4429      6500
 4430              	.LASF19:
 4431 0666 696E7433 		.string	"int32_t"
 4431      325F7400 
 4432              	.LASF65:
 4433 066e 72666375 		.string	"rfcu_t"
 4433      5F7400
 4434              	.LASF116:
 4435 0675 77747365 		.string	"wtsemp"
 4435      6D7000
 4436              	.LASF78:
 4437 067c 63685F70 		.string	"ch_priority_queue"
 4437      72696F72 
 4437      6974795F 
 4437      71756575 
 4437      6500
 4438              	.LASF138:
 4439 068e 5F5F6D61 		.string	"__main_thread_stack_end__"
 4439      696E5F74 
 4439      68726561 
 4439      645F7374 
 4439      61636B5F 
 4440              	.LASF75:
 4441 06a8 63685F71 		.string	"ch_queue"
 4441      75657565 
 4441      00
 4442              	.LASF135:
 4443 06b1 6D757465 		.string	"mutex_t"
 4443      785F7400 
 4444              	.LASF89:
 4445 06b9 62657374 		.string	"best"
 4445      00
 4446              	.LASF7:
 4447 06be 756E7369 		.string	"unsigned char"
 4447      676E6564 
 4447      20636861 
 4447      7200
 4448              	.LASF151:
 4449 06cc 63685379 		.string	"chSysGetIdleThreadX"
 4449      73476574 
 4449      49646C65 
 4449      54687265 
 4449      61645800 
 4450              	.LASF15:
 4451 06e0 5F5F7569 		.string	"__uint32_t"
 4451      6E743332 
 4451      5F7400
 4452              	.LASF46:
 4453 06eb 77616974 		.string	"waiting"
 4453      696E6700 
GAS LISTING /tmp/ccgNg7u5.s 			page 86


 4454              	.LASF103:
 4455 06f3 76697274 		.string	"virtual_timers_list_t"
 4455      75616C5F 
 4455      74696D65 
 4455      72735F6C 
 4455      6973745F 
 4456              	.LASF61:
 4457 0709 6D61696E 		.string	"mainthread"
 4457      74687265 
 4457      616400
 4458              	.LASF39:
 4459 0714 73746174 		.string	"state"
 4459      6500
 4460              	.LASF152:
 4461 071a 63685379 		.string	"chSysHalt"
 4461      7348616C 
 4461      7400
 4462              	.LASF51:
 4463 0724 6F735F69 		.string	"os_instance_t"
 4463      6E737461 
 4463      6E63655F 
 4463      7400
 4464              	.LASF83:
 4465 0732 72656778 		.string	"regx86"
 4465      383600
 4466              	.LASF56:
 4467 0739 7265676C 		.string	"reglist"
 4467      69737400 
 4468              	.LASF132:
 4469 0741 63685F73 		.string	"ch_system_t"
 4469      79737465 
 4469      6D5F7400 
 4470              	.LASF114:
 4471 074d 77747472 		.string	"wttrp"
 4471      7000
 4472              	.LASF95:
 4473 0753 63685F73 		.string	"ch_sys_initializing"
 4473      79735F69 
 4473      6E697469 
 4473      616C697A 
 4473      696E6700 
 4474              	.LASF10:
 4475 0767 7369676E 		.string	"signed char"
 4475      65642063 
 4475      68617200 
 4476              	.LASF82:
 4477 0773 64656C74 		.string	"delta"
 4477      6100
 4478              	.LASF8:
 4479 0779 73686F72 		.string	"short unsigned int"
 4479      7420756E 
 4479      7369676E 
 4479      65642069 
 4479      6E7400
 4480              	.LASF146:
 4481 078c 6368496E 		.string	"chInstanceObjectInit"
 4481      7374616E 
GAS LISTING /tmp/ccgNg7u5.s 			page 87


 4481      63654F62 
 4481      6A656374 
 4481      496E6974 
 4482              	.LASF150:
 4483 07a1 63685379 		.string	"chSysIntegrityCheckI"
 4483      73496E74 
 4483      65677269 
 4483      74794368 
 4483      65636B49 
 4484              	.LASF122:
 4485 07b6 63757272 		.string	"current"
 4485      656E7400 
 4486              	.LASF157:
 4487 07be 5F5F6675 		.string	"__func__"
 4487      6E635F5F 
 4487      00
 4488              	.LASF162:
 4489 07c7 706F7274 		.string	"port_unlock"
 4489      5F756E6C 
 4489      6F636B00 
 4490              	.LASF159:
 4491 07d3 5F5F746D 		.string	"__tm_calibration_object_init"
 4491      5F63616C 
 4491      69627261 
 4491      74696F6E 
 4491      5F6F626A 
 4492              	.LASF153:
 4493 07f0 6379636C 		.string	"cycles"
 4493      657300
 4494              	.LASF98:
 4495 07f7 73797374 		.string	"system_state_t"
 4495      656D5F73 
 4495      74617465 
 4495      5F7400
 4496              	.LASF168:
 4497 0806 5F5F7374 		.string	"__stack_chk_fail_local"
 4497      61636B5F 
 4497      63686B5F 
 4497      6661696C 
 4497      5F6C6F63 
 4498              	.LASF112:
 4499 081d 65786974 		.string	"exitcode"
 4499      636F6465 
 4499      00
 4500              	.LASF34:
 4501 0826 636F7265 		.string	"core_id_t"
 4501      5F69645F 
 4501      7400
 4502              		.section	.debug_line_str,"MS",@progbits,1
 4503              	.LASF0:
 4504 0000 2E2E2F2E 		.string	"../../../os/rt/src/chsys.c"
 4504      2E2F2E2E 
 4504      2F6F732F 
 4504      72742F73 
 4504      72632F63 
 4505              	.LASF1:
 4506 001b 2F686F6D 		.string	"/home/alex/ChibiOS/demos/various/LAB3"
GAS LISTING /tmp/ccgNg7u5.s 			page 88


 4506      652F616C 
 4506      65782F43 
 4506      68696269 
 4506      4F532F64 
 4507              		.hidden	__stack_chk_fail_local
 4508              		.ident	"GCC: (Ubuntu 11.4.0-1ubuntu1~22.04) 11.4.0"
 4509 0041 2F686F6D 		.section	.note.GNU-stack,"",@progbits
 4509      652F616C 
 4509      65782F43 
 4509      68696269 
 4509      4F532F64 
GAS LISTING /tmp/ccgNg7u5.s 			page 89


DEFINED SYMBOLS
                            *ABS*:0000000000000000 chsys.c
     /tmp/ccgNg7u5.s:9      .text.chSysWaitSystemState:0000000000000000 chSysWaitSystemState
     /tmp/ccgNg7u5.s:749    .text.__x86.get_pc_thunk.ax:0000000000000000 __x86.get_pc_thunk.ax
     /tmp/ccgNg7u5.s:743    .bss.ch_system:0000000000000000 ch_system
     /tmp/ccgNg7u5.s:38     .text.chSysInit:0000000000000000 chSysInit
     /tmp/ccgNg7u5.s:760    .text.__x86.get_pc_thunk.bx:0000000000000000 __x86.get_pc_thunk.bx
     /tmp/ccgNg7u5.s:719    .data.rel.ro.ch_core0_cfg:0000000000000000 ch_core0_cfg
     /tmp/ccgNg7u5.s:736    .bss.ch0:0000000000000000 ch0
     /tmp/ccgNg7u5.s:233    .text.chSysHalt:0000000000000000 chSysHalt
     /tmp/ccgNg7u5.s:280    .text.chSysGetIdleThreadX:0000000000000000 chSysGetIdleThreadX
     /tmp/ccgNg7u5.s:303    .text.chSysIntegrityCheckI:0000000000000000 chSysIntegrityCheckI
     /tmp/ccgNg7u5.s:589    .text.chSysTimerHandlerI:0000000000000000 chSysTimerHandlerI
     /tmp/ccgNg7u5.s:622    .text.chSysIsCounterWithinX:0000000000000000 chSysIsCounterWithinX
     /tmp/ccgNg7u5.s:648    .text.chSysPolledDelayX:0000000000000000 chSysPolledDelayX
     /tmp/ccgNg7u5.s:729    .bss.ch_c0_idle_thread_wa:0000000000000000 ch_c0_idle_thread_wa

UNDEFINED SYMBOLS
_GLOBAL_OFFSET_TABLE_
chTMObjectInit
chTMStartMeasurementX
chTMStopMeasurementX
__core_init
__heap_init
__factory_init
chInstanceObjectInit
port_irq_sts
__stack_chk_fail_local
chVTDoTickI
port_rt_get_counter_value
__main_thread_stack_base__
__main_thread_stack_end__
