GAS LISTING /tmp/cc5gHZXe.s 			page 1


   1              		.file	"hal_pal.c"
   2              		.text
   3              	.Ltext0:
   4              		.file 0 "/home/alex/ChibiOS/demos/various/LAB2" "../../../os/hal/src/hal_pal.c"
   5              		.section	.text.palReadBus,"ax",@progbits
   6              		.p2align 4
   7              		.globl	palReadBus
   8              		.type	palReadBus, @function
   9              	palReadBus:
  10              	.LVL0:
  11              	.LFB299:
  12              		.file 1 "../../../os/hal/src/hal_pal.c"
  13              		.loc 1 65 43 view -0
  14              		.cfi_startproc
  15              		.loc 1 67 3 view .LVU1
  16              		.loc 1 67 3 view .LVU2
  17              		.loc 1 67 3 view .LVU3
  18              		.loc 1 69 3 view .LVU4
  19              		.loc 1 65 43 is_stmt 0 view .LVU5
  20 0000 8B542404 		movl	4(%esp), %edx
  21              		.loc 1 69 10 view .LVU6
  22 0004 8B02     		movl	(%edx), %eax
  23 0006 0FB64A08 		movzbl	8(%edx), %ecx
  24 000a 8B4004   		movl	4(%eax), %eax
  25 000d D3E8     		shrl	%cl, %eax
  26 000f 234204   		andl	4(%edx), %eax
  27              		.loc 1 70 1 view .LVU7
  28 0012 C3       		ret
  29              		.cfi_endproc
  30              	.LFE299:
  31              		.size	palReadBus, .-palReadBus
  32              		.section	.text.palWriteBus,"ax",@progbits
  33              		.p2align 4
  34              		.globl	palWriteBus
  35              		.type	palWriteBus, @function
  36              	palWriteBus:
  37              	.LVL1:
  38              	.LFB300:
  39              		.loc 1 90 55 is_stmt 1 view -0
  40              		.cfi_startproc
  41              		.loc 1 92 3 view .LVU9
  42              		.loc 1 92 3 view .LVU10
  43              		.loc 1 92 3 view .LVU11
  44              		.loc 1 94 3 view .LVU12
  45              		.loc 1 90 55 is_stmt 0 view .LVU13
  46 0000 53       		pushl	%ebx
  47              		.cfi_def_cfa_offset 8
  48              		.cfi_offset 3, -8
  49              		.loc 1 90 55 view .LVU14
  50 0001 8B442408 		movl	8(%esp), %eax
  51              		.loc 1 94 3 view .LVU15
  52 0005 8B5004   		movl	4(%eax), %edx
  53 0008 0FB64808 		movzbl	8(%eax), %ecx
  54 000c 8B18     		movl	(%eax), %ebx
  55 000e 89D0     		movl	%edx, %eax
  56 0010 2354240C 		andl	12(%esp), %edx
  57 0014 D3E0     		sall	%cl, %eax
GAS LISTING /tmp/cc5gHZXe.s 			page 2


  58 0016 D3E2     		sall	%cl, %edx
  59 0018 F7D0     		notl	%eax
  60 001a 2303     		andl	(%ebx), %eax
  61 001c 09D0     		orl	%edx, %eax
  62 001e 8903     		movl	%eax, (%ebx)
  63              		.loc 1 95 1 view .LVU16
  64 0020 5B       		popl	%ebx
  65              		.cfi_restore 3
  66              		.cfi_def_cfa_offset 4
  67 0021 C3       		ret
  68              		.cfi_endproc
  69              	.LFE300:
  70              		.size	palWriteBus, .-palWriteBus
  71              		.section	.text.palSetBusMode,"ax",@progbits
  72              		.p2align 4
  73              		.globl	palSetBusMode
  74              		.type	palSetBusMode, @function
  75              	palSetBusMode:
  76              	.LVL2:
  77              	.LFB301:
  78              		.loc 1 113 53 is_stmt 1 view -0
  79              		.cfi_startproc
  80              		.loc 1 115 3 view .LVU18
  81              		.loc 1 115 3 view .LVU19
  82              		.loc 1 115 3 view .LVU20
  83              		.loc 1 117 3 view .LVU21
  84              		.loc 1 113 53 is_stmt 0 view .LVU22
  85 0000 53       		pushl	%ebx
  86              		.cfi_def_cfa_offset 8
  87              		.cfi_offset 3, -8
  88 0001 E8FCFFFF 		call	__x86.get_pc_thunk.bx
  88      FF
  89 0006 81C30200 		addl	$_GLOBAL_OFFSET_TABLE_, %ebx
  89      0000
  90 000c 83EC0C   		subl	$12, %esp
  91              		.cfi_def_cfa_offset 20
  92              		.loc 1 113 53 view .LVU23
  93 000f 8B442414 		movl	20(%esp), %eax
  94              		.loc 1 117 3 view .LVU24
  95 0013 FF742418 		pushl	24(%esp)
  96              		.cfi_def_cfa_offset 24
  97 0017 0FB64808 		movzbl	8(%eax), %ecx
  98 001b 8B5004   		movl	4(%eax), %edx
  99 001e D3E2     		sall	%cl, %edx
 100 0020 52       		pushl	%edx
 101              		.cfi_def_cfa_offset 28
 102 0021 FF30     		pushl	(%eax)
 103              		.cfi_def_cfa_offset 32
 104 0023 E8FCFFFF 		call	_pal_lld_setgroupmode@PLT
 104      FF
 105              	.LVL3:
 106              		.loc 1 118 1 view .LVU25
 107 0028 83C418   		addl	$24, %esp
 108              		.cfi_def_cfa_offset 8
 109 002b 5B       		popl	%ebx
 110              		.cfi_restore 3
 111              		.cfi_def_cfa_offset 4
GAS LISTING /tmp/cc5gHZXe.s 			page 3


 112 002c C3       		ret
 113              		.cfi_endproc
 114              	.LFE301:
 115              		.size	palSetBusMode, .-palSetBusMode
 116              		.section	.text.__x86.get_pc_thunk.bx,"axG",@progbits,__x86.get_pc_thunk.bx,comdat
 117              		.globl	__x86.get_pc_thunk.bx
 118              		.hidden	__x86.get_pc_thunk.bx
 119              		.type	__x86.get_pc_thunk.bx, @function
 120              	__x86.get_pc_thunk.bx:
 121              	.LFB302:
 122              		.cfi_startproc
 123 0000 8B1C24   		movl	(%esp), %ebx
 124 0003 C3       		ret
 125              		.cfi_endproc
 126              	.LFE302:
 127              		.text
 128              	.Letext0:
 129              		.file 2 "/usr/include/bits/types.h"
 130              		.file 3 "/usr/include/bits/stdint-uintn.h"
 131              		.file 4 "/usr/include/stdint.h"
 132              		.file 5 "../../../os/hal/ports/simulator/hal_pal_lld.h"
 133              		.file 6 "../../../os/hal/include/hal_pal.h"
 832 0044 2F686F6D 		.section	.note.GNU-stack,"",@progbits
 832      652F616C 
 832      65782F43 
 832      68696269 
 832      4F532F64 
GAS LISTING /tmp/cc5gHZXe.s 			page 18

