GAS LISTING /tmp/ccQWQiEw.s 			page 1


   1              		.file	"hal_queues.c"
   2              		.text
   3              	.Ltext0:
   4              		.file 0 "/home/alex/ChibiOS/demos/various/LAB3" "../../../os/hal/src/hal_queues.c"
   5              		.section	.text.iq_read,"ax",@progbits
   6              		.p2align 4
   7              		.type	iq_read, @function
   8              	iq_read:
   9              	.LVL0:
  10              	.LFB311:
  11              		.file 1 "../../../os/hal/src/hal_queues.c"
  12              		.loc 1 60 66 view -0
  13              		.cfi_startproc
  14              		.loc 1 61 3 view .LVU1
  15              		.loc 1 63 3 view .LVU2
  16              		.loc 1 63 3 view .LVU3
  17              		.loc 1 63 3 view .LVU4
  18              		.loc 1 66 3 view .LVU5
  19              		.loc 1 60 66 is_stmt 0 view .LVU6
  20 0000 55       		pushl	%ebp
  21              		.cfi_def_cfa_offset 8
  22              		.cfi_offset 5, -8
  23 0001 57       		pushl	%edi
  24              		.cfi_def_cfa_offset 12
  25              		.cfi_offset 7, -12
  26 0002 89CF     		movl	%ecx, %edi
  27 0004 56       		pushl	%esi
  28              		.cfi_def_cfa_offset 16
  29              		.cfi_offset 6, -16
  30 0005 89C6     		movl	%eax, %esi
  31 0007 53       		pushl	%ebx
  32              		.cfi_def_cfa_offset 20
  33              		.cfi_offset 3, -20
  34 0008 E8FCFFFF 		call	__x86.get_pc_thunk.bx
  34      FF
  35 000d 81C30200 		addl	$_GLOBAL_OFFSET_TABLE_, %ebx
  35      0000
  36 0013 83EC1C   		subl	$28, %esp
  37              		.cfi_def_cfa_offset 48
  38              		.loc 1 66 11 view .LVU7
  39 0016 8B4008   		movl	8(%eax), %eax
  40              	.LVL1:
  41              		.loc 1 66 6 view .LVU8
  42 0019 39C8     		cmpl	%ecx, %eax
  43 001b 7303     		jnb	.L2
  44              		.loc 1 67 5 is_stmt 1 view .LVU9
  45              		.loc 1 67 7 is_stmt 0 view .LVU10
  46 001d 8B7E08   		movl	8(%esi), %edi
  47              	.LVL2:
  48              	.L2:
  49              		.loc 1 72 3 is_stmt 1 view .LVU11
  50              		.loc 1 72 33 is_stmt 0 view .LVU12
  51 0020 8B4618   		movl	24(%esi), %eax
  52              		.loc 1 72 28 view .LVU13
  53 0023 8B6E10   		movl	16(%esi), %ebp
  54 0026 29C5     		subl	%eax, %ebp
  55              	.LVL3:
GAS LISTING /tmp/ccQWQiEw.s 			page 2


  56              		.loc 1 74 3 is_stmt 1 view .LVU14
  57              		.loc 1 74 6 is_stmt 0 view .LVU15
  58 0028 39EF     		cmpl	%ebp, %edi
  59 002a 7264     		jb	.L9
  60              		.loc 1 78 8 is_stmt 1 view .LVU16
  61              		.loc 1 78 11 is_stmt 0 view .LVU17
  62 002c 772A     		ja	.L10
  63              		.loc 1 86 5 is_stmt 1 view .LVU18
  64              	.LVL4:
  65              	.LBB135:
  66              	.LBI135:
  67              		.file 2 "/usr/include/bits/string_fortified.h"
  68              		.loc 2 26 1 view .LVU19
  69              	.LBB136:
  70              		.loc 2 29 3 view .LVU20
  71              		.loc 2 29 10 is_stmt 0 view .LVU21
  72 002e 83EC04   		subl	$4, %esp
  73              		.cfi_def_cfa_offset 52
  74 0031 57       		pushl	%edi
  75              		.cfi_def_cfa_offset 56
  76 0032 50       		pushl	%eax
  77              		.cfi_def_cfa_offset 60
  78 0033 52       		pushl	%edx
  79              		.cfi_def_cfa_offset 64
  80 0034 E8FCFFFF 		call	memcpy@PLT
  80      FF
  81              	.LVL5:
  82              		.loc 2 29 10 view .LVU22
  83              	.LBE136:
  84              	.LBE135:
  85              		.loc 1 87 5 is_stmt 1 view .LVU23
  86              		.loc 1 87 23 is_stmt 0 view .LVU24
  87 0039 8B4E0C   		movl	12(%esi), %ecx
  88 003c 83C410   		addl	$16, %esp
  89              		.cfi_def_cfa_offset 48
  90              	.LVL6:
  91              	.L4:
  92              		.loc 1 90 18 view .LVU25
  93 003f 8B4608   		movl	8(%esi), %eax
  94              		.loc 1 76 18 view .LVU26
  95 0042 894E18   		movl	%ecx, 24(%esi)
  96              		.loc 1 90 3 is_stmt 1 view .LVU27
  97              		.loc 1 90 18 is_stmt 0 view .LVU28
  98 0045 29F8     		subl	%edi, %eax
  99 0047 894608   		movl	%eax, 8(%esi)
 100              		.loc 1 91 3 is_stmt 1 view .LVU29
 101              		.loc 1 92 1 is_stmt 0 view .LVU30
 102 004a 83C41C   		addl	$28, %esp
 103              		.cfi_remember_state
 104              		.cfi_def_cfa_offset 20
 105 004d 89F8     		movl	%edi, %eax
 106 004f 5B       		popl	%ebx
 107              		.cfi_restore 3
 108              		.cfi_def_cfa_offset 16
 109 0050 5E       		popl	%esi
 110              		.cfi_restore 6
 111              		.cfi_def_cfa_offset 12
GAS LISTING /tmp/ccQWQiEw.s 			page 3


 112              	.LVL7:
 113              		.loc 1 92 1 view .LVU31
 114 0051 5F       		popl	%edi
 115              		.cfi_restore 7
 116              		.cfi_def_cfa_offset 8
 117              	.LVL8:
 118              		.loc 1 92 1 view .LVU32
 119 0052 5D       		popl	%ebp
 120              		.cfi_restore 5
 121              		.cfi_def_cfa_offset 4
 122 0053 C3       		ret
 123              	.LVL9:
 124              		.p2align 4,,10
 125 0054 8D742600 		.p2align 3
 126              	.L10:
 127              		.cfi_restore_state
 128              		.loc 1 79 5 is_stmt 1 view .LVU33
 129              	.LBB137:
 130              	.LBI137:
 131              		.loc 2 26 1 view .LVU34
 132              	.LBB138:
 133              		.loc 2 29 3 view .LVU35
 134              		.loc 2 29 10 is_stmt 0 view .LVU36
 135 0058 83EC04   		subl	$4, %esp
 136              		.cfi_def_cfa_offset 52
 137 005b 55       		pushl	%ebp
 138              		.cfi_def_cfa_offset 56
 139 005c 50       		pushl	%eax
 140              		.cfi_def_cfa_offset 60
 141 005d 52       		pushl	%edx
 142              		.cfi_def_cfa_offset 64
 143 005e 8954241C 		movl	%edx, 28(%esp)
 144 0062 E8FCFFFF 		call	memcpy@PLT
 144      FF
 145              	.LVL10:
 146              		.loc 2 29 10 view .LVU37
 147              	.LBE138:
 148              	.LBE137:
 149              		.loc 1 80 5 is_stmt 1 view .LVU38
 150              		.loc 1 81 5 view .LVU39
 151              		.loc 1 81 8 is_stmt 0 view .LVU40
 152 0067 89F9     		movl	%edi, %ecx
 153              		.loc 1 80 8 view .LVU41
 154 0069 8B54241C 		movl	28(%esp), %edx
 155              	.LBB139:
 156              	.LBB140:
 157              		.loc 2 29 10 view .LVU42
 158 006d 83C40C   		addl	$12, %esp
 159              		.cfi_def_cfa_offset 52
 160              	.LBE140:
 161              	.LBE139:
 162              		.loc 1 81 8 view .LVU43
 163 0070 29E9     		subl	%ebp, %ecx
 164              	.LVL11:
 165              		.loc 1 82 5 is_stmt 1 view .LVU44
 166              	.LBB143:
 167              	.LBI139:
GAS LISTING /tmp/ccQWQiEw.s 			page 4


 168              		.loc 2 26 1 view .LVU45
 169              	.LBB141:
 170              		.loc 2 29 3 view .LVU46
 171              		.loc 2 29 10 is_stmt 0 view .LVU47
 172 0072 51       		pushl	%ecx
 173              		.cfi_def_cfa_offset 56
 174              	.LBE141:
 175              	.LBE143:
 176              		.loc 1 80 8 view .LVU48
 177 0073 01D5     		addl	%edx, %ebp
 178              	.LVL12:
 179              	.LBB144:
 180              	.LBB142:
 181              		.loc 2 29 10 view .LVU49
 182 0075 894C2414 		movl	%ecx, 20(%esp)
 183 0079 FF760C   		pushl	12(%esi)
 184              		.cfi_def_cfa_offset 60
 185              	.LVL13:
 186              		.loc 2 29 10 view .LVU50
 187 007c 55       		pushl	%ebp
 188              		.cfi_def_cfa_offset 64
 189 007d E8FCFFFF 		call	memcpy@PLT
 189      FF
 190              	.LVL14:
 191              		.loc 2 29 10 view .LVU51
 192              	.LBE142:
 193              	.LBE144:
 194              		.loc 1 83 5 is_stmt 1 view .LVU52
 195              		.loc 1 83 34 is_stmt 0 view .LVU53
 196 0082 8B4C241C 		movl	28(%esp), %ecx
 197 0086 83C410   		addl	$16, %esp
 198              		.cfi_def_cfa_offset 48
 199 0089 034E0C   		addl	12(%esi), %ecx
 200 008c EBB1     		jmp	.L4
 201              	.LVL15:
 202 008e 6690     		.p2align 4,,10
 203              		.p2align 3
 204              	.L9:
 205              		.loc 1 75 5 is_stmt 1 view .LVU54
 206              	.LBB145:
 207              	.LBI145:
 208              		.loc 2 26 1 view .LVU55
 209              	.LBB146:
 210              		.loc 2 29 3 view .LVU56
 211              		.loc 2 29 10 is_stmt 0 view .LVU57
 212 0090 83EC04   		subl	$4, %esp
 213              		.cfi_def_cfa_offset 52
 214 0093 57       		pushl	%edi
 215              		.cfi_def_cfa_offset 56
 216 0094 50       		pushl	%eax
 217              		.cfi_def_cfa_offset 60
 218 0095 52       		pushl	%edx
 219              		.cfi_def_cfa_offset 64
 220 0096 E8FCFFFF 		call	memcpy@PLT
 220      FF
 221              	.LVL16:
 222              		.loc 2 29 10 view .LVU58
GAS LISTING /tmp/ccQWQiEw.s 			page 5


 223              	.LBE146:
 224              	.LBE145:
 225              		.loc 1 76 5 is_stmt 1 view .LVU59
 226              		.loc 1 76 18 is_stmt 0 view .LVU60
 227 009b 8B4E18   		movl	24(%esi), %ecx
 228 009e 83C410   		addl	$16, %esp
 229              		.cfi_def_cfa_offset 48
 230 00a1 01F9     		addl	%edi, %ecx
 231 00a3 EB9A     		jmp	.L4
 232              		.cfi_endproc
 233              	.LFE311:
 234              		.size	iq_read, .-iq_read
 235              		.section	.text.oq_write,"ax",@progbits
 236              		.p2align 4
 237              		.type	oq_write, @function
 238              	oq_write:
 239              	.LVL17:
 240              	.LFB312:
 241              		.loc 1 108 74 is_stmt 1 view -0
 242              		.cfi_startproc
 243              		.loc 1 109 3 view .LVU62
 244              		.loc 1 111 3 view .LVU63
 245              		.loc 1 111 3 view .LVU64
 246              		.loc 1 111 3 view .LVU65
 247              		.loc 1 114 3 view .LVU66
 248              		.loc 1 108 74 is_stmt 0 view .LVU67
 249 0000 55       		pushl	%ebp
 250              		.cfi_def_cfa_offset 8
 251              		.cfi_offset 5, -8
 252 0001 57       		pushl	%edi
 253              		.cfi_def_cfa_offset 12
 254              		.cfi_offset 7, -12
 255 0002 89CF     		movl	%ecx, %edi
 256 0004 56       		pushl	%esi
 257              		.cfi_def_cfa_offset 16
 258              		.cfi_offset 6, -16
 259 0005 89C6     		movl	%eax, %esi
 260 0007 53       		pushl	%ebx
 261              		.cfi_def_cfa_offset 20
 262              		.cfi_offset 3, -20
 263 0008 E8FCFFFF 		call	__x86.get_pc_thunk.bx
 263      FF
 264 000d 81C30200 		addl	$_GLOBAL_OFFSET_TABLE_, %ebx
 264      0000
 265 0013 83EC1C   		subl	$28, %esp
 266              		.cfi_def_cfa_offset 48
 267              		.loc 1 114 11 view .LVU68
 268 0016 8B4008   		movl	8(%eax), %eax
 269              	.LVL18:
 270              		.loc 1 114 6 view .LVU69
 271 0019 39C8     		cmpl	%ecx, %eax
 272 001b 7303     		jnb	.L12
 273              		.loc 1 115 5 is_stmt 1 view .LVU70
 274              		.loc 1 115 7 is_stmt 0 view .LVU71
 275 001d 8B7E08   		movl	8(%esi), %edi
 276              	.LVL19:
 277              	.L12:
GAS LISTING /tmp/ccQWQiEw.s 			page 6


 278              		.loc 1 120 3 is_stmt 1 view .LVU72
 279              		.loc 1 120 33 is_stmt 0 view .LVU73
 280 0020 8B4614   		movl	20(%esi), %eax
 281              		.loc 1 120 28 view .LVU74
 282 0023 8B6E10   		movl	16(%esi), %ebp
 283 0026 29C5     		subl	%eax, %ebp
 284              	.LVL20:
 285              		.loc 1 122 3 is_stmt 1 view .LVU75
 286              		.loc 1 122 6 is_stmt 0 view .LVU76
 287 0028 39EF     		cmpl	%ebp, %edi
 288 002a 7264     		jb	.L18
 289              		.loc 1 126 8 is_stmt 1 view .LVU77
 290              		.loc 1 126 11 is_stmt 0 view .LVU78
 291 002c 772A     		ja	.L19
 292              		.loc 1 134 5 is_stmt 1 view .LVU79
 293              	.LVL21:
 294              	.LBB147:
 295              	.LBI147:
 296              		.loc 2 26 1 view .LVU80
 297              	.LBB148:
 298              		.loc 2 29 3 view .LVU81
 299              		.loc 2 29 10 is_stmt 0 view .LVU82
 300 002e 83EC04   		subl	$4, %esp
 301              		.cfi_def_cfa_offset 52
 302 0031 57       		pushl	%edi
 303              		.cfi_def_cfa_offset 56
 304 0032 52       		pushl	%edx
 305              		.cfi_def_cfa_offset 60
 306 0033 50       		pushl	%eax
 307              		.cfi_def_cfa_offset 64
 308 0034 E8FCFFFF 		call	memcpy@PLT
 308      FF
 309              	.LVL22:
 310              		.loc 2 29 10 view .LVU83
 311              	.LBE148:
 312              	.LBE147:
 313              		.loc 1 135 5 is_stmt 1 view .LVU84
 314              		.loc 1 135 23 is_stmt 0 view .LVU85
 315 0039 8B4E0C   		movl	12(%esi), %ecx
 316 003c 83C410   		addl	$16, %esp
 317              		.cfi_def_cfa_offset 48
 318              	.LVL23:
 319              	.L14:
 320              		.loc 1 138 18 view .LVU86
 321 003f 8B4608   		movl	8(%esi), %eax
 322              		.loc 1 124 18 view .LVU87
 323 0042 894E14   		movl	%ecx, 20(%esi)
 324              		.loc 1 138 3 is_stmt 1 view .LVU88
 325              		.loc 1 138 18 is_stmt 0 view .LVU89
 326 0045 29F8     		subl	%edi, %eax
 327 0047 894608   		movl	%eax, 8(%esi)
 328              		.loc 1 139 3 is_stmt 1 view .LVU90
 329              		.loc 1 140 1 is_stmt 0 view .LVU91
 330 004a 83C41C   		addl	$28, %esp
 331              		.cfi_remember_state
 332              		.cfi_def_cfa_offset 20
 333 004d 89F8     		movl	%edi, %eax
GAS LISTING /tmp/ccQWQiEw.s 			page 7


 334 004f 5B       		popl	%ebx
 335              		.cfi_restore 3
 336              		.cfi_def_cfa_offset 16
 337 0050 5E       		popl	%esi
 338              		.cfi_restore 6
 339              		.cfi_def_cfa_offset 12
 340              	.LVL24:
 341              		.loc 1 140 1 view .LVU92
 342 0051 5F       		popl	%edi
 343              		.cfi_restore 7
 344              		.cfi_def_cfa_offset 8
 345              	.LVL25:
 346              		.loc 1 140 1 view .LVU93
 347 0052 5D       		popl	%ebp
 348              		.cfi_restore 5
 349              		.cfi_def_cfa_offset 4
 350 0053 C3       		ret
 351              	.LVL26:
 352              		.p2align 4,,10
 353 0054 8D742600 		.p2align 3
 354              	.L19:
 355              		.cfi_restore_state
 356              		.loc 1 127 5 is_stmt 1 view .LVU94
 357              	.LBB149:
 358              	.LBI149:
 359              		.loc 2 26 1 view .LVU95
 360              	.LBB150:
 361              		.loc 2 29 3 view .LVU96
 362              		.loc 2 29 10 is_stmt 0 view .LVU97
 363 0058 83EC04   		subl	$4, %esp
 364              		.cfi_def_cfa_offset 52
 365 005b 55       		pushl	%ebp
 366              		.cfi_def_cfa_offset 56
 367 005c 52       		pushl	%edx
 368              		.cfi_def_cfa_offset 60
 369 005d 89542418 		movl	%edx, 24(%esp)
 370 0061 50       		pushl	%eax
 371              		.cfi_def_cfa_offset 64
 372 0062 E8FCFFFF 		call	memcpy@PLT
 372      FF
 373              	.LVL27:
 374              		.loc 2 29 10 view .LVU98
 375              	.LBE150:
 376              	.LBE149:
 377              		.loc 1 128 5 is_stmt 1 view .LVU99
 378              		.loc 1 129 5 view .LVU100
 379              		.loc 1 129 8 is_stmt 0 view .LVU101
 380 0067 89F9     		movl	%edi, %ecx
 381              		.loc 1 128 8 view .LVU102
 382 0069 8B54241C 		movl	28(%esp), %edx
 383              	.LBB151:
 384              	.LBB152:
 385              		.loc 2 29 10 view .LVU103
 386 006d 83C40C   		addl	$12, %esp
 387              		.cfi_def_cfa_offset 52
 388              	.LBE152:
 389              	.LBE151:
GAS LISTING /tmp/ccQWQiEw.s 			page 8


 390              		.loc 1 129 8 view .LVU104
 391 0070 29E9     		subl	%ebp, %ecx
 392              	.LVL28:
 393              		.loc 1 130 5 is_stmt 1 view .LVU105
 394              	.LBB155:
 395              	.LBI151:
 396              		.loc 2 26 1 view .LVU106
 397              	.LBB153:
 398              		.loc 2 29 3 view .LVU107
 399              		.loc 2 29 10 is_stmt 0 view .LVU108
 400 0072 51       		pushl	%ecx
 401              		.cfi_def_cfa_offset 56
 402              	.LBE153:
 403              	.LBE155:
 404              		.loc 1 128 8 view .LVU109
 405 0073 01D5     		addl	%edx, %ebp
 406              	.LVL29:
 407              	.LBB156:
 408              	.LBB154:
 409              		.loc 2 29 10 view .LVU110
 410 0075 894C2414 		movl	%ecx, 20(%esp)
 411 0079 55       		pushl	%ebp
 412              		.cfi_def_cfa_offset 60
 413              	.LVL30:
 414              		.loc 2 29 10 view .LVU111
 415 007a FF760C   		pushl	12(%esi)
 416              		.cfi_def_cfa_offset 64
 417 007d E8FCFFFF 		call	memcpy@PLT
 417      FF
 418              	.LVL31:
 419              		.loc 2 29 10 view .LVU112
 420              	.LBE154:
 421              	.LBE156:
 422              		.loc 1 131 5 is_stmt 1 view .LVU113
 423              		.loc 1 131 34 is_stmt 0 view .LVU114
 424 0082 8B4C241C 		movl	28(%esp), %ecx
 425 0086 83C410   		addl	$16, %esp
 426              		.cfi_def_cfa_offset 48
 427 0089 034E0C   		addl	12(%esi), %ecx
 428 008c EBB1     		jmp	.L14
 429              	.LVL32:
 430 008e 6690     		.p2align 4,,10
 431              		.p2align 3
 432              	.L18:
 433              		.loc 1 123 5 is_stmt 1 view .LVU115
 434              	.LBB157:
 435              	.LBI157:
 436              		.loc 2 26 1 view .LVU116
 437              	.LBB158:
 438              		.loc 2 29 3 view .LVU117
 439              		.loc 2 29 10 is_stmt 0 view .LVU118
 440 0090 83EC04   		subl	$4, %esp
 441              		.cfi_def_cfa_offset 52
 442 0093 57       		pushl	%edi
 443              		.cfi_def_cfa_offset 56
 444 0094 52       		pushl	%edx
 445              		.cfi_def_cfa_offset 60
GAS LISTING /tmp/ccQWQiEw.s 			page 9


 446 0095 50       		pushl	%eax
 447              		.cfi_def_cfa_offset 64
 448 0096 E8FCFFFF 		call	memcpy@PLT
 448      FF
 449              	.LVL33:
 450              		.loc 2 29 10 view .LVU119
 451              	.LBE158:
 452              	.LBE157:
 453              		.loc 1 124 5 is_stmt 1 view .LVU120
 454              		.loc 1 124 18 is_stmt 0 view .LVU121
 455 009b 8B4E14   		movl	20(%esi), %ecx
 456 009e 83C410   		addl	$16, %esp
 457              		.cfi_def_cfa_offset 48
 458 00a1 01F9     		addl	%edi, %ecx
 459 00a3 EB9A     		jmp	.L14
 460              		.cfi_endproc
 461              	.LFE312:
 462              		.size	oq_write, .-oq_write
 463              		.section	.text.iqObjectInit,"ax",@progbits
 464              		.p2align 4
 465              		.globl	iqObjectInit
 466              		.type	iqObjectInit, @function
 467              	iqObjectInit:
 468              	.LVL34:
 469              	.LFB313:
 470              		.loc 1 178 47 is_stmt 1 view -0
 471              		.cfi_startproc
 472              		.loc 1 180 3 view .LVU123
 473              		.loc 1 178 47 is_stmt 0 view .LVU124
 474 0000 57       		pushl	%edi
 475              		.cfi_def_cfa_offset 8
 476              		.cfi_offset 7, -8
 477 0001 56       		pushl	%esi
 478              		.cfi_def_cfa_offset 12
 479              		.cfi_offset 6, -12
 480 0002 53       		pushl	%ebx
 481              		.cfi_def_cfa_offset 16
 482              		.cfi_offset 3, -16
 483              		.loc 1 178 47 view .LVU125
 484 0003 8B742410 		movl	16(%esp), %esi
 485              	.LVL35:
 486              	.LBB159:
 487              	.LBI159:
 488              		.file 3 "../../../os/hal/osal/rt-nil/osal.h"
 489              		.loc 3 864 20 is_stmt 1 view .LVU126
 490              	.LBB160:
 491              		.loc 3 866 3 view .LVU127
 492 0007 E8FCFFFF 		call	__x86.get_pc_thunk.bx
 492      FF
 493 000c 81C30200 		addl	$_GLOBAL_OFFSET_TABLE_, %ebx
 493      0000
 494              	.LBE160:
 495              	.LBE159:
 496              		.loc 1 178 47 is_stmt 0 view .LVU128
 497 0012 8B7C2414 		movl	20(%esp), %edi
 498              	.LBB162:
 499              	.LBB161:
GAS LISTING /tmp/ccQWQiEw.s 			page 10


 500              		.loc 3 866 3 view .LVU129
 501 0016 83EC0C   		subl	$12, %esp
 502              		.cfi_def_cfa_offset 28
 503 0019 56       		pushl	%esi
 504              		.cfi_def_cfa_offset 32
 505 001a E8FCFFFF 		call	chThdQueueObjectInit@PLT
 505      FF
 506              	.LVL36:
 507              		.loc 3 866 3 view .LVU130
 508              	.LBE161:
 509              	.LBE162:
 510              		.loc 1 181 3 is_stmt 1 view .LVU131
 511              		.loc 1 186 18 is_stmt 0 view .LVU132
 512 001f 8B44242C 		movl	44(%esp), %eax
 513              		.loc 1 182 18 view .LVU133
 514 0023 897E0C   		movl	%edi, 12(%esi)
 515              		.loc 1 183 18 view .LVU134
 516 0026 897E18   		movl	%edi, 24(%esi)
 517              		.loc 1 186 18 view .LVU135
 518 0029 89461C   		movl	%eax, 28(%esi)
 519              		.loc 1 187 18 view .LVU136
 520 002c 8B442430 		movl	48(%esp), %eax
 521              		.loc 1 184 18 view .LVU137
 522 0030 897E14   		movl	%edi, 20(%esi)
 523              		.loc 1 185 23 view .LVU138
 524 0033 037C2428 		addl	40(%esp), %edi
 525              		.loc 1 188 1 view .LVU139
 526 0037 83C410   		addl	$16, %esp
 527              		.cfi_def_cfa_offset 16
 528              		.loc 1 181 18 view .LVU140
 529 003a C7460800 		movl	$0, 8(%esi)
 529      000000
 530              		.loc 1 182 3 is_stmt 1 view .LVU141
 531              		.loc 1 183 3 view .LVU142
 532              		.loc 1 184 3 view .LVU143
 533              		.loc 1 185 3 view .LVU144
 534              		.loc 1 185 23 is_stmt 0 view .LVU145
 535 0041 897E10   		movl	%edi, 16(%esi)
 536              		.loc 1 186 3 is_stmt 1 view .LVU146
 537              		.loc 1 187 3 view .LVU147
 538              		.loc 1 187 18 is_stmt 0 view .LVU148
 539 0044 894620   		movl	%eax, 32(%esi)
 540              		.loc 1 188 1 view .LVU149
 541 0047 5B       		popl	%ebx
 542              		.cfi_restore 3
 543              		.cfi_def_cfa_offset 12
 544 0048 5E       		popl	%esi
 545              		.cfi_restore 6
 546              		.cfi_def_cfa_offset 8
 547 0049 5F       		popl	%edi
 548              		.cfi_restore 7
 549              		.cfi_def_cfa_offset 4
 550 004a C3       		ret
 551              		.cfi_endproc
 552              	.LFE313:
 553              		.size	iqObjectInit, .-iqObjectInit
 554              		.section	.text.iqResetI,"ax",@progbits
GAS LISTING /tmp/ccQWQiEw.s 			page 11


 555              		.p2align 4
 556              		.globl	iqResetI
 557              		.type	iqResetI, @function
 558              	iqResetI:
 559              	.LVL37:
 560              	.LFB314:
 561              		.loc 1 201 35 is_stmt 1 view -0
 562              		.cfi_startproc
 563              		.loc 1 203 23 view .LVU151
 564              		.loc 1 205 3 view .LVU152
 565              		.loc 1 201 35 is_stmt 0 view .LVU153
 566 0000 53       		pushl	%ebx
 567              		.cfi_def_cfa_offset 8
 568              		.cfi_offset 3, -8
 569 0001 E8FCFFFF 		call	__x86.get_pc_thunk.bx
 569      FF
 570 0006 81C30200 		addl	$_GLOBAL_OFFSET_TABLE_, %ebx
 570      0000
 571 000c 83EC10   		subl	$16, %esp
 572              		.cfi_def_cfa_offset 24
 573              		.loc 1 201 35 view .LVU154
 574 000f 8B442418 		movl	24(%esp), %eax
 575              		.loc 1 205 21 view .LVU155
 576 0013 8B500C   		movl	12(%eax), %edx
 577              		.loc 1 207 18 view .LVU156
 578 0016 C7400800 		movl	$0, 8(%eax)
 578      000000
 579              		.loc 1 205 16 view .LVU157
 580 001d 895018   		movl	%edx, 24(%eax)
 581              		.loc 1 206 3 is_stmt 1 view .LVU158
 582              		.loc 1 206 16 is_stmt 0 view .LVU159
 583 0020 895014   		movl	%edx, 20(%eax)
 584              		.loc 1 207 3 is_stmt 1 view .LVU160
 585              		.loc 1 208 3 view .LVU161
 586              	.LVL38:
 587              	.LBB163:
 588              	.LBI163:
 589              		.loc 3 919 20 view .LVU162
 590              	.LBB164:
 591              		.loc 3 921 3 view .LVU163
 592 0023 6AFE     		pushl	$-2
 593              		.cfi_def_cfa_offset 28
 594 0025 50       		pushl	%eax
 595              		.cfi_def_cfa_offset 32
 596 0026 E8FCFFFF 		call	chThdDequeueAllI@PLT
 596      FF
 597              	.LVL39:
 598              		.loc 3 921 3 is_stmt 0 view .LVU164
 599              	.LBE164:
 600              	.LBE163:
 601              		.loc 1 209 1 view .LVU165
 602 002b 83C418   		addl	$24, %esp
 603              		.cfi_def_cfa_offset 8
 604 002e 5B       		popl	%ebx
 605              		.cfi_restore 3
 606              		.cfi_def_cfa_offset 4
 607 002f C3       		ret
GAS LISTING /tmp/ccQWQiEw.s 			page 12


 608              		.cfi_endproc
 609              	.LFE314:
 610              		.size	iqResetI, .-iqResetI
 611              		.section	.text.iqPutI,"ax",@progbits
 612              		.p2align 4
 613              		.globl	iqPutI
 614              		.type	iqPutI, @function
 615              	iqPutI:
 616              	.LVL40:
 617              	.LFB315:
 618              		.loc 1 224 45 is_stmt 1 view -0
 619              		.cfi_startproc
 620              		.loc 1 226 23 view .LVU167
 621              		.loc 1 229 3 view .LVU168
 622              		.loc 1 224 45 is_stmt 0 view .LVU169
 623 0000 57       		pushl	%edi
 624              		.cfi_def_cfa_offset 8
 625              		.cfi_offset 7, -8
 626 0001 56       		pushl	%esi
 627              		.cfi_def_cfa_offset 12
 628              		.cfi_offset 6, -12
 629 0002 53       		pushl	%ebx
 630              		.cfi_def_cfa_offset 16
 631              		.cfi_offset 3, -16
 632              		.loc 1 224 45 view .LVU170
 633 0003 8B442410 		movl	16(%esp), %eax
 634 0007 E8FCFFFF 		call	__x86.get_pc_thunk.bx
 634      FF
 635 000c 81C30200 		addl	$_GLOBAL_OFFSET_TABLE_, %ebx
 635      0000
 636 0012 8B742414 		movl	20(%esp), %esi
 637              		.loc 1 229 8 view .LVU171
 638 0016 8B5014   		movl	20(%eax), %edx
 639 0019 3B5018   		cmpl	24(%eax), %edx
 640 001c 7442     		je	.L32
 641              	.L25:
 642              		.loc 1 230 5 is_stmt 1 view .LVU172
 643              		.loc 1 230 8 is_stmt 0 view .LVU173
 644 001e 8B4808   		movl	8(%eax), %ecx
 645              		.loc 1 230 19 view .LVU174
 646 0021 83C101   		addl	$1, %ecx
 647 0024 894808   		movl	%ecx, 8(%eax)
 648              		.loc 1 231 5 is_stmt 1 view .LVU175
 649              		.loc 1 231 18 is_stmt 0 view .LVU176
 650 0027 8D4A01   		leal	1(%edx), %ecx
 651 002a 894814   		movl	%ecx, 20(%eax)
 652              		.loc 1 231 21 view .LVU177
 653 002d 89F1     		movl	%esi, %ecx
 654 002f 880A     		movb	%cl, (%edx)
 655              		.loc 1 232 5 is_stmt 1 view .LVU178
 656              		.loc 1 232 8 is_stmt 0 view .LVU179
 657 0031 8B7810   		movl	16(%eax), %edi
 658 0034 397814   		cmpl	%edi, 20(%eax)
 659 0037 7317     		jnb	.L27
 660              	.L28:
 661              		.loc 1 236 5 is_stmt 1 view .LVU180
 662              	.LVL41:
GAS LISTING /tmp/ccQWQiEw.s 			page 13


 663              	.LBB165:
 664              	.LBI165:
 665              		.loc 3 906 20 view .LVU181
 666              	.LBB166:
 667              		.loc 3 908 3 view .LVU182
 668 0039 83EC08   		subl	$8, %esp
 669              		.cfi_def_cfa_offset 24
 670 003c 6A00     		pushl	$0
 671              		.cfi_def_cfa_offset 28
 672 003e 50       		pushl	%eax
 673              		.cfi_def_cfa_offset 32
 674 003f E8FCFFFF 		call	chThdDequeueNextI@PLT
 674      FF
 675              	.LVL42:
 676              		.loc 3 908 3 is_stmt 0 view .LVU183
 677              	.LBE166:
 678              	.LBE165:
 679              		.loc 1 238 5 is_stmt 1 view .LVU184
 680              		.loc 1 238 12 is_stmt 0 view .LVU185
 681 0044 83C410   		addl	$16, %esp
 682              		.cfi_def_cfa_offset 16
 683 0047 31C9     		xorl	%ecx, %ecx
 684              		.loc 1 242 1 view .LVU186
 685 0049 5B       		popl	%ebx
 686              		.cfi_remember_state
 687              		.cfi_restore 3
 688              		.cfi_def_cfa_offset 12
 689 004a 89C8     		movl	%ecx, %eax
 690 004c 5E       		popl	%esi
 691              		.cfi_restore 6
 692              		.cfi_def_cfa_offset 8
 693 004d 5F       		popl	%edi
 694              		.cfi_restore 7
 695              		.cfi_def_cfa_offset 4
 696 004e C3       		ret
 697              	.LVL43:
 698 004f 90       		.p2align 4,,10
 699              		.p2align 3
 700              	.L27:
 701              		.cfi_restore_state
 702              		.loc 1 233 7 is_stmt 1 view .LVU187
 703              		.loc 1 233 20 is_stmt 0 view .LVU188
 704 0050 8B500C   		movl	12(%eax), %edx
 705 0053 895014   		movl	%edx, 20(%eax)
 706 0056 EBE1     		jmp	.L28
 707 0058 8DB42600 		.p2align 4,,10
 707      00000090 
 708              		.p2align 3
 709              	.L32:
 710              		.loc 1 229 8 discriminator 1 view .LVU189
 711 0060 8B7808   		movl	8(%eax), %edi
 712              		.loc 1 241 10 discriminator 1 view .LVU190
 713 0063 B9FFFFFF 		movl	$-1, %ecx
 713      FF
 714              		.loc 1 229 8 discriminator 1 view .LVU191
 715 0068 85FF     		testl	%edi, %edi
 716 006a 74B2     		je	.L25
GAS LISTING /tmp/ccQWQiEw.s 			page 14


 717              		.loc 1 242 1 view .LVU192
 718 006c 5B       		popl	%ebx
 719              		.cfi_restore 3
 720              		.cfi_def_cfa_offset 12
 721 006d 89C8     		movl	%ecx, %eax
 722              	.LVL44:
 723              		.loc 1 242 1 view .LVU193
 724 006f 5E       		popl	%esi
 725              		.cfi_restore 6
 726              		.cfi_def_cfa_offset 8
 727 0070 5F       		popl	%edi
 728              		.cfi_restore 7
 729              		.cfi_def_cfa_offset 4
 730 0071 C3       		ret
 731              		.cfi_endproc
 732              	.LFE315:
 733              		.size	iqPutI, .-iqPutI
 734              		.section	.text.iqGetI,"ax",@progbits
 735              		.p2align 4
 736              		.globl	iqGetI
 737              		.type	iqGetI, @function
 738              	iqGetI:
 739              	.LVL45:
 740              	.LFB316:
 741              		.loc 1 257 34 is_stmt 1 view -0
 742              		.cfi_startproc
 743              		.loc 1 259 23 view .LVU195
 744              		.loc 1 262 3 view .LVU196
 745              		.loc 1 257 34 is_stmt 0 view .LVU197
 746 0000 53       		pushl	%ebx
 747              		.cfi_def_cfa_offset 8
 748              		.cfi_offset 3, -8
 749 0001 83EC08   		subl	$8, %esp
 750              		.cfi_def_cfa_offset 16
 751              		.loc 1 257 34 view .LVU198
 752 0004 8B542410 		movl	16(%esp), %edx
 753              		.loc 1 262 8 view .LVU199
 754 0008 8B4208   		movl	8(%edx), %eax
 755              		.loc 1 262 6 view .LVU200
 756 000b 85C0     		testl	%eax, %eax
 757 000d 7441     		je	.L37
 758              	.LBB167:
 759              		.loc 1 263 5 is_stmt 1 view .LVU201
 760              		.loc 1 266 5 view .LVU202
 761              		.loc 1 266 8 is_stmt 0 view .LVU203
 762 000f 8B4208   		movl	8(%edx), %eax
 763              		.loc 1 267 13 view .LVU204
 764 0012 8B4A18   		movl	24(%edx), %ecx
 765              		.loc 1 266 19 view .LVU205
 766 0015 83E801   		subl	$1, %eax
 767 0018 894208   		movl	%eax, 8(%edx)
 768              		.loc 1 267 5 is_stmt 1 view .LVU206
 769              		.loc 1 267 22 is_stmt 0 view .LVU207
 770 001b 8D4101   		leal	1(%ecx), %eax
 771 001e 894218   		movl	%eax, 24(%edx)
 772              		.loc 1 267 7 view .LVU208
 773 0021 0FB619   		movzbl	(%ecx), %ebx
GAS LISTING /tmp/ccQWQiEw.s 			page 15


 774              	.LVL46:
 775              		.loc 1 268 5 is_stmt 1 view .LVU209
 776              		.loc 1 268 8 is_stmt 0 view .LVU210
 777 0024 3B4210   		cmpl	16(%edx), %eax
 778 0027 731F     		jnb	.L42
 779              	.L35:
 780              		.loc 1 273 5 is_stmt 1 view .LVU211
 781              		.loc 1 273 12 is_stmt 0 view .LVU212
 782 0029 8B421C   		movl	28(%edx), %eax
 783              		.loc 1 273 8 view .LVU213
 784 002c 85C0     		testl	%eax, %eax
 785 002e 7409     		je	.L36
 786              		.loc 1 274 7 is_stmt 1 view .LVU214
 787 0030 83EC0C   		subl	$12, %esp
 788              		.cfi_def_cfa_offset 28
 789 0033 52       		pushl	%edx
 790              		.cfi_def_cfa_offset 32
 791 0034 FFD0     		call	*%eax
 792              	.LVL47:
 793 0036 83C410   		addl	$16, %esp
 794              		.cfi_def_cfa_offset 16
 795              	.L36:
 796              		.loc 1 277 5 view .LVU215
 797              		.loc 1 277 12 is_stmt 0 view .LVU216
 798 0039 0FB6C3   		movzbl	%bl, %eax
 799              	.LVL48:
 800              	.L33:
 801              		.loc 1 277 12 view .LVU217
 802              	.LBE167:
 803              		.loc 1 281 1 view .LVU218
 804 003c 83C408   		addl	$8, %esp
 805              		.cfi_remember_state
 806              		.cfi_def_cfa_offset 8
 807 003f 5B       		popl	%ebx
 808              		.cfi_restore 3
 809              		.cfi_def_cfa_offset 4
 810 0040 C3       		ret
 811              	.LVL49:
 812              		.p2align 4,,10
 813 0041 8DB42600 		.p2align 3
 813      000000
 814              	.L42:
 815              		.cfi_restore_state
 816              	.LBB168:
 817              		.loc 1 269 7 is_stmt 1 view .LVU219
 818              		.loc 1 269 20 is_stmt 0 view .LVU220
 819 0048 8B420C   		movl	12(%edx), %eax
 820 004b 894218   		movl	%eax, 24(%edx)
 821 004e EBD9     		jmp	.L35
 822              	.LVL50:
 823              		.p2align 4,,10
 824              		.p2align 3
 825              	.L37:
 826              		.loc 1 269 20 view .LVU221
 827              	.LBE168:
 828              		.loc 1 280 10 view .LVU222
 829 0050 B8FFFFFF 		movl	$-1, %eax
GAS LISTING /tmp/ccQWQiEw.s 			page 16


 829      FF
 830 0055 EBE5     		jmp	.L33
 831              		.cfi_endproc
 832              	.LFE316:
 833              		.size	iqGetI, .-iqGetI
 834              		.section	.text.iqGetTimeout,"ax",@progbits
 835              		.p2align 4
 836              		.globl	iqGetTimeout
 837              		.type	iqGetTimeout, @function
 838              	iqGetTimeout:
 839              	.LVL51:
 840              	.LFB317:
 841              		.loc 1 302 63 is_stmt 1 view -0
 842              		.cfi_startproc
 843              		.loc 1 303 3 view .LVU224
 844              		.loc 1 305 3 view .LVU225
 845              	.LBB169:
 846              	.LBI169:
 847              		.loc 3 573 20 view .LVU226
 848              	.LBB170:
 849              		.loc 3 575 3 view .LVU227
 850              	.LBB171:
 851              	.LBI171:
 852              		.file 4 "../../../os/rt/include/chsys.h"
 853              		.loc 4 407 20 view .LVU228
 854              		.loc 4 409 3 view .LVU229
 855              	.LBB172:
 856              	.LBI172:
 857              		.file 5 "../../../os/common/ports/SIMIA32/chcore.h"
 858              		.loc 5 361 20 view .LVU230
 859              	.LBB173:
 860              		.loc 5 363 3 view .LVU231
 861              	.LBE173:
 862              	.LBE172:
 863              	.LBE171:
 864              	.LBE170:
 865              	.LBE169:
 866              		.loc 1 302 63 is_stmt 0 view .LVU232
 867 0000 55       		pushl	%ebp
 868              		.cfi_def_cfa_offset 8
 869              		.cfi_offset 5, -8
 870 0001 57       		pushl	%edi
 871              		.cfi_def_cfa_offset 12
 872              		.cfi_offset 7, -12
 873 0002 56       		pushl	%esi
 874              		.cfi_def_cfa_offset 16
 875              		.cfi_offset 6, -16
 876 0003 53       		pushl	%ebx
 877              		.cfi_def_cfa_offset 20
 878              		.cfi_offset 3, -20
 879 0004 E8FCFFFF 		call	__x86.get_pc_thunk.bx
 879      FF
 880 0009 81C30200 		addl	$_GLOBAL_OFFSET_TABLE_, %ebx
 880      0000
 881 000f 83EC0C   		subl	$12, %esp
 882              		.cfi_def_cfa_offset 32
 883              		.loc 1 302 63 view .LVU233
GAS LISTING /tmp/ccQWQiEw.s 			page 17


 884 0012 8B6C2420 		movl	32(%esp), %ebp
 885 0016 8B742424 		movl	36(%esp), %esi
 886              	.LBB178:
 887              	.LBB177:
 888              	.LBB176:
 889              	.LBB175:
 890              	.LBB174:
 891              		.loc 5 363 16 view .LVU234
 892 001a 8BBB0000 		movl	port_irq_sts@GOT(%ebx), %edi
 892      0000
 893 0020 C7070100 		movl	$1, (%edi)
 893      0000
 894              	.LBE174:
 895              	.LBE175:
 896              		.loc 4 410 35 is_stmt 1 view .LVU235
 897              		.loc 4 411 21 view .LVU236
 898              	.LBE176:
 899              		.loc 3 576 1 is_stmt 0 view .LVU237
 900 0026 EB19     		jmp	.L44
 901 0028 8DB42600 		.p2align 4,,10
 901      00000090 
 902              		.p2align 3
 903              	.L46:
 904              		.loc 3 576 1 view .LVU238
 905              	.LBE177:
 906              	.LBE178:
 907              	.LBB179:
 908              		.loc 1 309 5 is_stmt 1 view .LVU239
 909              	.LVL52:
 910              	.LBB180:
 911              	.LBI180:
 912              		.loc 3 892 21 view .LVU240
 913              	.LBB181:
 914              		.loc 3 895 3 view .LVU241
 915              		.loc 3 895 10 is_stmt 0 view .LVU242
 916 0030 83EC08   		subl	$8, %esp
 917              		.cfi_def_cfa_offset 40
 918 0033 56       		pushl	%esi
 919              		.cfi_def_cfa_offset 44
 920 0034 55       		pushl	%ebp
 921              		.cfi_def_cfa_offset 48
 922 0035 E8FCFFFF 		call	chThdEnqueueTimeoutS@PLT
 922      FF
 923              	.LVL53:
 924              		.loc 3 895 10 view .LVU243
 925              	.LBE181:
 926              	.LBE180:
 927              		.loc 1 310 5 is_stmt 1 view .LVU244
 928              		.loc 1 310 8 is_stmt 0 view .LVU245
 929 003a 83C410   		addl	$16, %esp
 930              		.cfi_def_cfa_offset 32
 931 003d 85C0     		testl	%eax, %eax
 932 003f 783A     		js	.L45
 933              	.LVL54:
 934              	.L44:
 935              		.loc 1 310 8 view .LVU246
 936              	.LBE179:
GAS LISTING /tmp/ccQWQiEw.s 			page 18


 937              		.loc 1 308 10 is_stmt 1 view .LVU247
 938 0041 8B4508   		movl	8(%ebp), %eax
 939 0044 85C0     		testl	%eax, %eax
 940 0046 74E8     		je	.L46
 941              		.loc 1 317 3 view .LVU248
 942              		.loc 1 317 6 is_stmt 0 view .LVU249
 943 0048 8B4508   		movl	8(%ebp), %eax
 944              		.loc 1 318 11 view .LVU250
 945 004b 8B5518   		movl	24(%ebp), %edx
 946              		.loc 1 317 17 view .LVU251
 947 004e 83E801   		subl	$1, %eax
 948 0051 894508   		movl	%eax, 8(%ebp)
 949              		.loc 1 318 3 is_stmt 1 view .LVU252
 950              		.loc 1 318 20 is_stmt 0 view .LVU253
 951 0054 8D4201   		leal	1(%edx), %eax
 952 0057 894518   		movl	%eax, 24(%ebp)
 953              		.loc 1 318 5 view .LVU254
 954 005a 0FB61A   		movzbl	(%edx), %ebx
 955              	.LVL55:
 956              		.loc 1 319 3 is_stmt 1 view .LVU255
 957              		.loc 1 319 6 is_stmt 0 view .LVU256
 958 005d 3B4510   		cmpl	16(%ebp), %eax
 959 0060 7206     		jb	.L47
 960              		.loc 1 320 5 is_stmt 1 view .LVU257
 961              		.loc 1 320 18 is_stmt 0 view .LVU258
 962 0062 8B450C   		movl	12(%ebp), %eax
 963 0065 894518   		movl	%eax, 24(%ebp)
 964              	.L47:
 965              		.loc 1 324 3 is_stmt 1 view .LVU259
 966              		.loc 1 324 10 is_stmt 0 view .LVU260
 967 0068 8B451C   		movl	28(%ebp), %eax
 968              		.loc 1 324 6 view .LVU261
 969 006b 85C0     		testl	%eax, %eax
 970 006d 7409     		je	.L48
 971              		.loc 1 325 5 is_stmt 1 view .LVU262
 972 006f 83EC0C   		subl	$12, %esp
 973              		.cfi_def_cfa_offset 44
 974 0072 55       		pushl	%ebp
 975              		.cfi_def_cfa_offset 48
 976 0073 FFD0     		call	*%eax
 977              	.LVL56:
 978 0075 83C410   		addl	$16, %esp
 979              		.cfi_def_cfa_offset 32
 980              	.L48:
 981              		.loc 1 328 3 view .LVU263
 982              		.loc 1 330 3 view .LVU264
 983              		.loc 1 330 10 is_stmt 0 view .LVU265
 984 0078 0FB6C3   		movzbl	%bl, %eax
 985              	.LVL57:
 986              	.L45:
 987              	.LBB187:
 988              	.LBB182:
 989              	.LBB183:
 990              	.LBB184:
 991              	.LBB185:
 992              	.LBB186:
 993              		.loc 5 372 16 view .LVU266
GAS LISTING /tmp/ccQWQiEw.s 			page 19


 994 007b C7070000 		movl	$0, (%edi)
 994      0000
 995              	.LBE186:
 996              	.LBE185:
 997              	.LBE184:
 998              	.LBE183:
 999              	.LBE182:
 1000              	.LBE187:
 1001              		.loc 1 331 1 view .LVU267
 1002 0081 83C40C   		addl	$12, %esp
 1003              		.cfi_def_cfa_offset 20
 1004 0084 5B       		popl	%ebx
 1005              		.cfi_restore 3
 1006              		.cfi_def_cfa_offset 16
 1007 0085 5E       		popl	%esi
 1008              		.cfi_restore 6
 1009              		.cfi_def_cfa_offset 12
 1010 0086 5F       		popl	%edi
 1011              		.cfi_restore 7
 1012              		.cfi_def_cfa_offset 8
 1013 0087 5D       		popl	%ebp
 1014              		.cfi_restore 5
 1015              		.cfi_def_cfa_offset 4
 1016 0088 C3       		ret
 1017              		.cfi_endproc
 1018              	.LFE317:
 1019              		.size	iqGetTimeout, .-iqGetTimeout
 1020              		.section	.text.iqReadI,"ax",@progbits
 1021              		.p2align 4
 1022              		.globl	iqReadI
 1023              		.type	iqReadI, @function
 1024              	iqReadI:
 1025              	.LVL58:
 1026              	.LFB318:
 1027              		.loc 1 346 59 is_stmt 1 view -0
 1028              		.cfi_startproc
 1029              		.loc 1 347 3 view .LVU269
 1030              		.loc 1 346 59 is_stmt 0 view .LVU270
 1031 0000 57       		pushl	%edi
 1032              		.cfi_def_cfa_offset 8
 1033              		.cfi_offset 7, -8
 1034 0001 56       		pushl	%esi
 1035              		.cfi_def_cfa_offset 12
 1036              		.cfi_offset 6, -12
 1037 0002 83EC14   		subl	$20, %esp
 1038              		.cfi_def_cfa_offset 32
 1039              		.loc 1 346 59 view .LVU271
 1040 0005 8B742420 		movl	32(%esp), %esi
 1041              		.loc 1 352 8 view .LVU272
 1042 0009 8B4C2428 		movl	40(%esp), %ecx
 1043 000d 8B542424 		movl	36(%esp), %edx
 1044 0011 89F0     		movl	%esi, %eax
 1045              		.loc 1 347 13 view .LVU273
 1046 0013 8B7E1C   		movl	28(%esi), %edi
 1047              	.LVL59:
 1048              		.loc 1 348 3 is_stmt 1 view .LVU274
 1049              		.loc 1 350 23 view .LVU275
GAS LISTING /tmp/ccQWQiEw.s 			page 20


 1050              		.loc 1 352 3 view .LVU276
 1051              		.loc 1 352 8 is_stmt 0 view .LVU277
 1052 0016 E8FCFFFF 		call	iq_read
 1052      FF
 1053              	.LVL60:
 1054              		.loc 1 356 3 is_stmt 1 view .LVU278
 1055              		.loc 1 356 6 is_stmt 0 view .LVU279
 1056 001b 85C0     		testl	%eax, %eax
 1057 001d 7415     		je	.L53
 1058 001f 85FF     		testl	%edi, %edi
 1059 0021 7411     		je	.L53
 1060 0023 8944240C 		movl	%eax, 12(%esp)
 1061              		.loc 1 357 5 is_stmt 1 view .LVU280
 1062 0027 83EC0C   		subl	$12, %esp
 1063              		.cfi_def_cfa_offset 44
 1064 002a 56       		pushl	%esi
 1065              		.cfi_def_cfa_offset 48
 1066 002b FFD7     		call	*%edi
 1067              	.LVL61:
 1068              		.loc 1 357 5 is_stmt 0 view .LVU281
 1069 002d 8B44241C 		movl	28(%esp), %eax
 1070              		.loc 1 360 3 is_stmt 1 view .LVU282
 1071              		.loc 1 357 5 is_stmt 0 view .LVU283
 1072 0031 83C410   		addl	$16, %esp
 1073              		.cfi_def_cfa_offset 32
 1074              	.LVL62:
 1075              	.L53:
 1076              		.loc 1 361 1 view .LVU284
 1077 0034 83C414   		addl	$20, %esp
 1078              		.cfi_def_cfa_offset 12
 1079 0037 5E       		popl	%esi
 1080              		.cfi_restore 6
 1081              		.cfi_def_cfa_offset 8
 1082 0038 5F       		popl	%edi
 1083              		.cfi_restore 7
 1084              		.cfi_def_cfa_offset 4
 1085              	.LVL63:
 1086              		.loc 1 361 1 view .LVU285
 1087 0039 C3       		ret
 1088              		.cfi_endproc
 1089              	.LFE318:
 1090              		.size	iqReadI, .-iqReadI
 1091              		.section	.text.iqReadTimeout,"ax",@progbits
 1092              		.p2align 4
 1093              		.globl	iqReadTimeout
 1094              		.type	iqReadTimeout, @function
 1095              	iqReadTimeout:
 1096              	.LVL64:
 1097              	.LFB319:
 1098              		.loc 1 387 55 is_stmt 1 view -0
 1099              		.cfi_startproc
 1100              		.loc 1 388 3 view .LVU287
 1101              		.loc 1 387 55 is_stmt 0 view .LVU288
 1102 0000 55       		pushl	%ebp
 1103              		.cfi_def_cfa_offset 8
 1104              		.cfi_offset 5, -8
 1105 0001 57       		pushl	%edi
GAS LISTING /tmp/ccQWQiEw.s 			page 21


 1106              		.cfi_def_cfa_offset 12
 1107              		.cfi_offset 7, -12
 1108 0002 56       		pushl	%esi
 1109              		.cfi_def_cfa_offset 16
 1110              		.cfi_offset 6, -16
 1111 0003 53       		pushl	%ebx
 1112              		.cfi_def_cfa_offset 20
 1113              		.cfi_offset 3, -20
 1114 0004 E8FCFFFF 		call	__x86.get_pc_thunk.bx
 1114      FF
 1115 0009 81C30200 		addl	$_GLOBAL_OFFSET_TABLE_, %ebx
 1115      0000
 1116 000f 83EC1C   		subl	$28, %esp
 1117              		.cfi_def_cfa_offset 48
 1118              		.loc 1 387 55 view .LVU289
 1119 0012 8B6C2430 		movl	48(%esp), %ebp
 1120              		.loc 1 395 12 view .LVU290
 1121 0016 8B742438 		movl	56(%esp), %esi
 1122              		.loc 1 387 55 view .LVU291
 1123 001a 8B7C2434 		movl	52(%esp), %edi
 1124              		.loc 1 388 13 view .LVU292
 1125 001e 8B451C   		movl	28(%ebp), %eax
 1126 0021 8944240C 		movl	%eax, 12(%esp)
 1127              	.LVL65:
 1128              		.loc 1 389 3 is_stmt 1 view .LVU293
 1129              		.loc 1 391 3 view .LVU294
 1130              		.loc 1 391 3 view .LVU295
 1131              		.loc 1 391 3 view .LVU296
 1132              		.loc 1 393 3 view .LVU297
 1133              	.LBB188:
 1134              	.LBI188:
 1135              		.loc 3 573 20 view .LVU298
 1136              		.loc 3 575 3 view .LVU299
 1137              	.LBB189:
 1138              	.LBI189:
 1139              		.loc 4 407 20 view .LVU300
 1140              		.loc 4 409 3 view .LVU301
 1141              	.LBB190:
 1142              	.LBI190:
 1143              		.loc 5 361 20 view .LVU302
 1144              	.LBB191:
 1145              		.loc 5 363 3 view .LVU303
 1146              		.loc 5 363 16 is_stmt 0 view .LVU304
 1147 0025 8B830000 		movl	port_irq_sts@GOT(%ebx), %eax
 1147      0000
 1148              	.LVL66:
 1149              		.loc 5 363 16 view .LVU305
 1150 002b 89442408 		movl	%eax, 8(%esp)
 1151 002f C7000100 		movl	$1, (%eax)
 1151      0000
 1152              	.LBE191:
 1153              	.LBE190:
 1154              		.loc 4 410 35 is_stmt 1 view .LVU306
 1155              		.loc 4 411 21 view .LVU307
 1156              	.LVL67:
 1157              		.loc 4 411 21 is_stmt 0 view .LVU308
 1158              	.LBE189:
GAS LISTING /tmp/ccQWQiEw.s 			page 22


 1159              	.LBE188:
 1160              		.loc 1 395 12 is_stmt 1 view .LVU309
 1161 0035 85F6     		testl	%esi, %esi
 1162 0037 743F     		je	.L68
 1163              	.LVL68:
 1164 0039 8DB42600 		.p2align 4,,10
 1164      000000
 1165              		.p2align 3
 1166              	.L63:
 1167              	.LBB192:
 1168              		.loc 1 396 5 view .LVU310
 1169              		.loc 1 398 5 view .LVU311
 1170              		.loc 1 398 12 is_stmt 0 view .LVU312
 1171 0040 89F1     		movl	%esi, %ecx
 1172 0042 89FA     		movl	%edi, %edx
 1173 0044 89E8     		movl	%ebp, %eax
 1174 0046 E8FCFFFF 		call	iq_read
 1174      FF
 1175              	.LVL69:
 1176              		.loc 1 399 5 is_stmt 1 view .LVU313
 1177              		.loc 1 399 8 is_stmt 0 view .LVU314
 1178 004b 85C0     		testl	%eax, %eax
 1179 004d 7441     		je	.L82
 1180              		.loc 1 410 7 is_stmt 1 view .LVU315
 1181              		.loc 1 410 10 is_stmt 0 view .LVU316
 1182 004f 8B54240C 		movl	12(%esp), %edx
 1183 0053 85D2     		testl	%edx, %edx
 1184 0055 7411     		je	.L67
 1185 0057 89442404 		movl	%eax, 4(%esp)
 1186              		.loc 1 411 9 is_stmt 1 view .LVU317
 1187 005b 83EC0C   		subl	$12, %esp
 1188              		.cfi_def_cfa_offset 60
 1189 005e 55       		pushl	%ebp
 1190              		.cfi_def_cfa_offset 64
 1191 005f FFD2     		call	*%edx
 1192              	.LVL70:
 1193              		.loc 1 411 9 is_stmt 0 view .LVU318
 1194 0061 8B442414 		movl	20(%esp), %eax
 1195 0065 83C410   		addl	$16, %esp
 1196              		.cfi_def_cfa_offset 48
 1197              	.LVL71:
 1198              	.L67:
 1199              		.loc 1 415 7 is_stmt 1 view .LVU319
 1200              		.loc 1 417 7 view .LVU320
 1201              		.loc 1 418 7 view .LVU321
 1202              	.LBB193:
 1203              	.LBB194:
 1204              	.LBB195:
 1205              	.LBB196:
 1206              		.loc 5 363 16 is_stmt 0 view .LVU322
 1207 0068 8B4C2408 		movl	8(%esp), %ecx
 1208              	.LBE196:
 1209              	.LBE195:
 1210              	.LBE194:
 1211              	.LBE193:
 1212              		.loc 1 418 10 view .LVU323
 1213 006c 01C7     		addl	%eax, %edi
GAS LISTING /tmp/ccQWQiEw.s 			page 23


 1214              	.LVL72:
 1215              		.loc 1 420 7 is_stmt 1 view .LVU324
 1216              	.LBB200:
 1217              	.LBI193:
 1218              		.loc 3 573 20 view .LVU325
 1219              		.loc 3 575 3 view .LVU326
 1220              	.LBB199:
 1221              	.LBI194:
 1222              		.loc 4 407 20 view .LVU327
 1223              		.loc 4 409 3 view .LVU328
 1224              	.LBB198:
 1225              	.LBI195:
 1226              		.loc 5 361 20 view .LVU329
 1227              	.LBB197:
 1228              		.loc 5 363 3 view .LVU330
 1229              		.loc 5 363 16 is_stmt 0 view .LVU331
 1230 006e C7010100 		movl	$1, (%ecx)
 1230      0000
 1231              	.LBE197:
 1232              	.LBE198:
 1233              		.loc 4 410 35 is_stmt 1 view .LVU332
 1234              		.loc 4 411 21 view .LVU333
 1235              		.loc 4 411 21 is_stmt 0 view .LVU334
 1236              	.LBE199:
 1237              	.LBE200:
 1238              	.LBE192:
 1239              		.loc 1 395 12 is_stmt 1 view .LVU335
 1240 0074 29C6     		subl	%eax, %esi
 1241              	.LVL73:
 1242              		.loc 1 395 12 is_stmt 0 view .LVU336
 1243 0076 75C8     		jne	.L63
 1244              	.LVL74:
 1245              	.L68:
 1246              		.loc 1 395 12 view .LVU337
 1247 0078 8B442438 		movl	56(%esp), %eax
 1248              	.L64:
 1249              		.loc 1 424 3 is_stmt 1 view .LVU338
 1250              	.LBB204:
 1251              	.LBI204:
 1252              		.loc 3 584 20 view .LVU339
 1253              		.loc 3 586 3 view .LVU340
 1254              	.LBB205:
 1255              	.LBI205:
 1256              		.loc 4 421 20 view .LVU341
 1257              	.LBB206:
 1258              		.loc 4 423 23 view .LVU342
 1259              		.loc 4 424 34 view .LVU343
 1260              		.loc 4 430 3 view .LVU344
 1261              		.loc 4 430 3 view .LVU345
 1262              		.loc 4 430 3 view .LVU346
 1263              		.loc 4 434 3 view .LVU347
 1264              	.LBB207:
 1265              	.LBI207:
 1266              		.loc 5 370 20 view .LVU348
 1267              	.LBB208:
 1268              		.loc 5 372 3 view .LVU349
 1269              		.loc 5 372 16 is_stmt 0 view .LVU350
GAS LISTING /tmp/ccQWQiEw.s 			page 24


 1270 007c 8B5C2408 		movl	8(%esp), %ebx
 1271 0080 C7030000 		movl	$0, (%ebx)
 1271      0000
 1272              	.LBE208:
 1273              	.LBE207:
 1274              	.LBE206:
 1275              	.LBE205:
 1276              	.LBE204:
 1277              		.loc 1 425 3 is_stmt 1 view .LVU351
 1278              		.loc 1 426 1 is_stmt 0 view .LVU352
 1279 0086 83C41C   		addl	$28, %esp
 1280              		.cfi_remember_state
 1281              		.cfi_def_cfa_offset 20
 1282 0089 5B       		popl	%ebx
 1283              		.cfi_restore 3
 1284              		.cfi_def_cfa_offset 16
 1285 008a 5E       		popl	%esi
 1286              		.cfi_restore 6
 1287              		.cfi_def_cfa_offset 12
 1288 008b 5F       		popl	%edi
 1289              		.cfi_restore 7
 1290              		.cfi_def_cfa_offset 8
 1291              	.LVL75:
 1292              		.loc 1 426 1 view .LVU353
 1293 008c 5D       		popl	%ebp
 1294              		.cfi_restore 5
 1295              		.cfi_def_cfa_offset 4
 1296 008d C3       		ret
 1297              	.LVL76:
 1298 008e 6690     		.p2align 4,,10
 1299              		.p2align 3
 1300              	.L82:
 1301              		.cfi_restore_state
 1302              	.LBB209:
 1303              	.LBB201:
 1304              		.loc 1 400 7 is_stmt 1 view .LVU354
 1305              	.LBB202:
 1306              	.LBI202:
 1307              		.loc 3 892 21 view .LVU355
 1308              	.LBB203:
 1309              		.loc 3 895 3 view .LVU356
 1310              		.loc 3 895 10 is_stmt 0 view .LVU357
 1311 0090 83EC08   		subl	$8, %esp
 1312              		.cfi_def_cfa_offset 56
 1313 0093 FF742444 		pushl	68(%esp)
 1314              		.cfi_def_cfa_offset 60
 1315 0097 55       		pushl	%ebp
 1316              		.cfi_def_cfa_offset 64
 1317 0098 E8FCFFFF 		call	chThdEnqueueTimeoutS@PLT
 1317      FF
 1318              	.LVL77:
 1319              		.loc 3 895 10 view .LVU358
 1320              	.LBE203:
 1321              	.LBE202:
 1322              		.loc 1 403 7 is_stmt 1 view .LVU359
 1323              		.loc 1 403 10 is_stmt 0 view .LVU360
 1324 009d 83C410   		addl	$16, %esp
GAS LISTING /tmp/ccQWQiEw.s 			page 25


 1325              		.cfi_def_cfa_offset 48
 1326 00a0 85C0     		testl	%eax, %eax
 1327 00a2 749C     		je	.L63
 1328              	.LBE201:
 1329              	.LBE209:
 1330              		.loc 1 425 14 view .LVU361
 1331 00a4 8B442438 		movl	56(%esp), %eax
 1332              	.LVL78:
 1333              		.loc 1 425 14 view .LVU362
 1334 00a8 29F0     		subl	%esi, %eax
 1335 00aa EBD0     		jmp	.L64
 1336              		.cfi_endproc
 1337              	.LFE319:
 1338              		.size	iqReadTimeout, .-iqReadTimeout
 1339              		.section	.text.oqObjectInit,"ax",@progbits
 1340              		.p2align 4
 1341              		.globl	oqObjectInit
 1342              		.type	oqObjectInit, @function
 1343              	oqObjectInit:
 1344              	.LVL79:
 1345              	.LFB320:
 1346              		.loc 1 444 47 is_stmt 1 view -0
 1347              		.cfi_startproc
 1348              		.loc 1 446 3 view .LVU364
 1349              		.loc 1 444 47 is_stmt 0 view .LVU365
 1350 0000 55       		pushl	%ebp
 1351              		.cfi_def_cfa_offset 8
 1352              		.cfi_offset 5, -8
 1353 0001 57       		pushl	%edi
 1354              		.cfi_def_cfa_offset 12
 1355              		.cfi_offset 7, -12
 1356 0002 56       		pushl	%esi
 1357              		.cfi_def_cfa_offset 16
 1358              		.cfi_offset 6, -16
 1359 0003 53       		pushl	%ebx
 1360              		.cfi_def_cfa_offset 20
 1361              		.cfi_offset 3, -20
 1362 0004 E8FCFFFF 		call	__x86.get_pc_thunk.bx
 1362      FF
 1363 0009 81C30200 		addl	$_GLOBAL_OFFSET_TABLE_, %ebx
 1363      0000
 1364 000f 83EC18   		subl	$24, %esp
 1365              		.cfi_def_cfa_offset 44
 1366              		.loc 1 444 47 view .LVU366
 1367 0012 8B74242C 		movl	44(%esp), %esi
 1368              	.LVL80:
 1369              	.LBB210:
 1370              	.LBI210:
 1371              		.loc 3 864 20 is_stmt 1 view .LVU367
 1372              	.LBB211:
 1373              		.loc 3 866 3 view .LVU368
 1374              	.LBE211:
 1375              	.LBE210:
 1376              		.loc 1 444 47 is_stmt 0 view .LVU369
 1377 0016 8B7C2430 		movl	48(%esp), %edi
 1378 001a 8B6C2434 		movl	52(%esp), %ebp
 1379              	.LBB213:
GAS LISTING /tmp/ccQWQiEw.s 			page 26


 1380              	.LBB212:
 1381              		.loc 3 866 3 view .LVU370
 1382 001e 56       		pushl	%esi
 1383              		.cfi_def_cfa_offset 48
 1384 001f E8FCFFFF 		call	chThdQueueObjectInit@PLT
 1384      FF
 1385              	.LVL81:
 1386              		.loc 3 866 3 view .LVU371
 1387              	.LBE212:
 1388              	.LBE213:
 1389              		.loc 1 447 3 is_stmt 1 view .LVU372
 1390              		.loc 1 452 18 is_stmt 0 view .LVU373
 1391 0024 8B44243C 		movl	60(%esp), %eax
 1392              		.loc 1 448 18 view .LVU374
 1393 0028 897E0C   		movl	%edi, 12(%esi)
 1394              		.loc 1 449 18 view .LVU375
 1395 002b 897E18   		movl	%edi, 24(%esi)
 1396              		.loc 1 452 18 view .LVU376
 1397 002e 89461C   		movl	%eax, 28(%esi)
 1398              		.loc 1 453 18 view .LVU377
 1399 0031 8B442440 		movl	64(%esp), %eax
 1400              		.loc 1 450 18 view .LVU378
 1401 0035 897E14   		movl	%edi, 20(%esi)
 1402              		.loc 1 451 23 view .LVU379
 1403 0038 01EF     		addl	%ebp, %edi
 1404              		.loc 1 447 18 view .LVU380
 1405 003a 896E08   		movl	%ebp, 8(%esi)
 1406              		.loc 1 448 3 is_stmt 1 view .LVU381
 1407              		.loc 1 449 3 view .LVU382
 1408              		.loc 1 450 3 view .LVU383
 1409              		.loc 1 451 3 view .LVU384
 1410              		.loc 1 451 23 is_stmt 0 view .LVU385
 1411 003d 897E10   		movl	%edi, 16(%esi)
 1412              		.loc 1 452 3 is_stmt 1 view .LVU386
 1413              		.loc 1 453 3 view .LVU387
 1414              		.loc 1 453 18 is_stmt 0 view .LVU388
 1415 0040 894620   		movl	%eax, 32(%esi)
 1416              		.loc 1 454 1 view .LVU389
 1417 0043 83C41C   		addl	$28, %esp
 1418              		.cfi_def_cfa_offset 20
 1419 0046 5B       		popl	%ebx
 1420              		.cfi_restore 3
 1421              		.cfi_def_cfa_offset 16
 1422 0047 5E       		popl	%esi
 1423              		.cfi_restore 6
 1424              		.cfi_def_cfa_offset 12
 1425 0048 5F       		popl	%edi
 1426              		.cfi_restore 7
 1427              		.cfi_def_cfa_offset 8
 1428 0049 5D       		popl	%ebp
 1429              		.cfi_restore 5
 1430              		.cfi_def_cfa_offset 4
 1431 004a C3       		ret
 1432              		.cfi_endproc
 1433              	.LFE320:
 1434              		.size	oqObjectInit, .-oqObjectInit
 1435              		.section	.text.oqResetI,"ax",@progbits
GAS LISTING /tmp/ccQWQiEw.s 			page 27


 1436              		.p2align 4
 1437              		.globl	oqResetI
 1438              		.type	oqResetI, @function
 1439              	oqResetI:
 1440              	.LVL82:
 1441              	.LFB321:
 1442              		.loc 1 467 36 is_stmt 1 view -0
 1443              		.cfi_startproc
 1444              		.loc 1 469 23 view .LVU391
 1445              		.loc 1 471 3 view .LVU392
 1446              		.loc 1 467 36 is_stmt 0 view .LVU393
 1447 0000 53       		pushl	%ebx
 1448              		.cfi_def_cfa_offset 8
 1449              		.cfi_offset 3, -8
 1450 0001 E8FCFFFF 		call	__x86.get_pc_thunk.bx
 1450      FF
 1451 0006 81C30200 		addl	$_GLOBAL_OFFSET_TABLE_, %ebx
 1451      0000
 1452 000c 83EC10   		subl	$16, %esp
 1453              		.cfi_def_cfa_offset 24
 1454              		.loc 1 467 36 view .LVU394
 1455 000f 8B442418 		movl	24(%esp), %eax
 1456              		.loc 1 471 21 view .LVU395
 1457 0013 8B480C   		movl	12(%eax), %ecx
 1458              		.loc 1 473 20 view .LVU396
 1459 0016 8B5010   		movl	16(%eax), %edx
 1460 0019 29CA     		subl	%ecx, %edx
 1461              		.loc 1 471 16 view .LVU397
 1462 001b 894818   		movl	%ecx, 24(%eax)
 1463              		.loc 1 472 3 is_stmt 1 view .LVU398
 1464              		.loc 1 472 16 is_stmt 0 view .LVU399
 1465 001e 894814   		movl	%ecx, 20(%eax)
 1466              		.loc 1 473 3 is_stmt 1 view .LVU400
 1467              		.loc 1 473 18 is_stmt 0 view .LVU401
 1468 0021 895008   		movl	%edx, 8(%eax)
 1469              		.loc 1 474 3 is_stmt 1 view .LVU402
 1470              	.LVL83:
 1471              	.LBB214:
 1472              	.LBI214:
 1473              		.loc 3 919 20 view .LVU403
 1474              	.LBB215:
 1475              		.loc 3 921 3 view .LVU404
 1476 0024 6AFE     		pushl	$-2
 1477              		.cfi_def_cfa_offset 28
 1478 0026 50       		pushl	%eax
 1479              		.cfi_def_cfa_offset 32
 1480 0027 E8FCFFFF 		call	chThdDequeueAllI@PLT
 1480      FF
 1481              	.LVL84:
 1482              		.loc 3 921 3 is_stmt 0 view .LVU405
 1483              	.LBE215:
 1484              	.LBE214:
 1485              		.loc 1 475 1 view .LVU406
 1486 002c 83C418   		addl	$24, %esp
 1487              		.cfi_def_cfa_offset 8
 1488 002f 5B       		popl	%ebx
 1489              		.cfi_restore 3
GAS LISTING /tmp/ccQWQiEw.s 			page 28


 1490              		.cfi_def_cfa_offset 4
 1491 0030 C3       		ret
 1492              		.cfi_endproc
 1493              	.LFE321:
 1494              		.size	oqResetI, .-oqResetI
 1495              		.section	.text.oqPutI,"ax",@progbits
 1496              		.p2align 4
 1497              		.globl	oqPutI
 1498              		.type	oqPutI, @function
 1499              	oqPutI:
 1500              	.LVL85:
 1501              	.LFB322:
 1502              		.loc 1 490 46 is_stmt 1 view -0
 1503              		.cfi_startproc
 1504              		.loc 1 492 23 view .LVU408
 1505              		.loc 1 495 3 view .LVU409
 1506              		.loc 1 495 10 view .LVU410
 1507              		.loc 1 490 46 is_stmt 0 view .LVU411
 1508 0000 53       		pushl	%ebx
 1509              		.cfi_def_cfa_offset 8
 1510              		.cfi_offset 3, -8
 1511 0001 83EC08   		subl	$8, %esp
 1512              		.cfi_def_cfa_offset 16
 1513              		.loc 1 490 46 view .LVU412
 1514 0004 8B442410 		movl	16(%esp), %eax
 1515 0008 8B4C2414 		movl	20(%esp), %ecx
 1516              		.loc 1 495 11 view .LVU413
 1517 000c 8B5008   		movl	8(%eax), %edx
 1518              		.loc 1 495 10 view .LVU414
 1519 000f 85D2     		testl	%edx, %edx
 1520 0011 744D     		je	.L90
 1521              		.loc 1 497 5 is_stmt 1 view .LVU415
 1522              		.loc 1 497 8 is_stmt 0 view .LVU416
 1523 0013 8B5008   		movl	8(%eax), %edx
 1524              		.loc 1 497 19 view .LVU417
 1525 0016 83EA01   		subl	$1, %edx
 1526 0019 895008   		movl	%edx, 8(%eax)
 1527              		.loc 1 498 5 is_stmt 1 view .LVU418
 1528              		.loc 1 498 9 is_stmt 0 view .LVU419
 1529 001c 8B5014   		movl	20(%eax), %edx
 1530              		.loc 1 498 18 view .LVU420
 1531 001f 8D5A01   		leal	1(%edx), %ebx
 1532 0022 895814   		movl	%ebx, 20(%eax)
 1533              		.loc 1 498 21 view .LVU421
 1534 0025 880A     		movb	%cl, (%edx)
 1535              		.loc 1 499 5 is_stmt 1 view .LVU422
 1536              		.loc 1 499 8 is_stmt 0 view .LVU423
 1537 0027 8B4810   		movl	16(%eax), %ecx
 1538 002a 394814   		cmpl	%ecx, 20(%eax)
 1539 002d 7321     		jnb	.L94
 1540              	.L89:
 1541              		.loc 1 504 5 is_stmt 1 view .LVU424
 1542              		.loc 1 504 12 is_stmt 0 view .LVU425
 1543 002f 8B501C   		movl	28(%eax), %edx
 1544              		.loc 1 508 12 view .LVU426
 1545 0032 31DB     		xorl	%ebx, %ebx
 1546              		.loc 1 504 8 view .LVU427
GAS LISTING /tmp/ccQWQiEw.s 			page 29


 1547 0034 85D2     		testl	%edx, %edx
 1548 0036 7409     		je	.L87
 1549              		.loc 1 505 7 is_stmt 1 view .LVU428
 1550 0038 83EC0C   		subl	$12, %esp
 1551              		.cfi_def_cfa_offset 28
 1552 003b 50       		pushl	%eax
 1553              		.cfi_def_cfa_offset 32
 1554 003c FFD2     		call	*%edx
 1555              	.LVL86:
 1556 003e 83C410   		addl	$16, %esp
 1557              		.cfi_def_cfa_offset 16
 1558              	.L87:
 1559              		.loc 1 512 1 is_stmt 0 view .LVU429
 1560 0041 83C408   		addl	$8, %esp
 1561              		.cfi_remember_state
 1562              		.cfi_def_cfa_offset 8
 1563 0044 89D8     		movl	%ebx, %eax
 1564 0046 5B       		popl	%ebx
 1565              		.cfi_restore 3
 1566              		.cfi_def_cfa_offset 4
 1567 0047 C3       		ret
 1568 0048 8DB42600 		.p2align 4,,10
 1568      00000090 
 1569              		.p2align 3
 1570              	.L94:
 1571              		.cfi_restore_state
 1572              		.loc 1 500 7 is_stmt 1 view .LVU430
 1573              		.loc 1 500 20 is_stmt 0 view .LVU431
 1574 0050 8B500C   		movl	12(%eax), %edx
 1575 0053 895014   		movl	%edx, 20(%eax)
 1576 0056 EBD7     		jmp	.L89
 1577 0058 8DB42600 		.p2align 4,,10
 1577      00000090 
 1578              		.p2align 3
 1579              	.L90:
 1580              		.loc 1 511 10 view .LVU432
 1581 0060 BBFFFFFF 		movl	$-1, %ebx
 1581      FF
 1582 0065 EBDA     		jmp	.L87
 1583              		.cfi_endproc
 1584              	.LFE322:
 1585              		.size	oqPutI, .-oqPutI
 1586              		.section	.text.oqPutTimeout,"ax",@progbits
 1587              		.p2align 4
 1588              		.globl	oqPutTimeout
 1589              		.type	oqPutTimeout, @function
 1590              	oqPutTimeout:
 1591              	.LVL87:
 1592              	.LFB323:
 1593              		.loc 1 535 75 is_stmt 1 view -0
 1594              		.cfi_startproc
 1595              		.loc 1 537 3 view .LVU434
 1596              	.LBB216:
 1597              	.LBI216:
 1598              		.loc 3 573 20 view .LVU435
 1599              	.LBB217:
 1600              		.loc 3 575 3 view .LVU436
GAS LISTING /tmp/ccQWQiEw.s 			page 30


 1601              	.LBB218:
 1602              	.LBI218:
 1603              		.loc 4 407 20 view .LVU437
 1604              		.loc 4 409 3 view .LVU438
 1605              	.LBB219:
 1606              	.LBI219:
 1607              		.loc 5 361 20 view .LVU439
 1608              	.LBB220:
 1609              		.loc 5 363 3 view .LVU440
 1610              	.LBE220:
 1611              	.LBE219:
 1612              	.LBE218:
 1613              	.LBE217:
 1614              	.LBE216:
 1615              		.loc 1 535 75 is_stmt 0 view .LVU441
 1616 0000 55       		pushl	%ebp
 1617              		.cfi_def_cfa_offset 8
 1618              		.cfi_offset 5, -8
 1619 0001 57       		pushl	%edi
 1620              		.cfi_def_cfa_offset 12
 1621              		.cfi_offset 7, -12
 1622 0002 56       		pushl	%esi
 1623              		.cfi_def_cfa_offset 16
 1624              		.cfi_offset 6, -16
 1625 0003 53       		pushl	%ebx
 1626              		.cfi_def_cfa_offset 20
 1627              		.cfi_offset 3, -20
 1628 0004 E8FCFFFF 		call	__x86.get_pc_thunk.bx
 1628      FF
 1629 0009 81C30200 		addl	$_GLOBAL_OFFSET_TABLE_, %ebx
 1629      0000
 1630 000f 83EC1C   		subl	$28, %esp
 1631              		.cfi_def_cfa_offset 48
 1632              		.loc 1 535 75 view .LVU442
 1633 0012 8B442434 		movl	52(%esp), %eax
 1634 0016 8B6C2430 		movl	48(%esp), %ebp
 1635 001a 8B742438 		movl	56(%esp), %esi
 1636 001e 8944240C 		movl	%eax, 12(%esp)
 1637              	.LBB225:
 1638              	.LBB224:
 1639              	.LBB223:
 1640              	.LBB222:
 1641              	.LBB221:
 1642              		.loc 5 363 16 view .LVU443
 1643 0022 8BBB0000 		movl	port_irq_sts@GOT(%ebx), %edi
 1643      0000
 1644 0028 C7070100 		movl	$1, (%edi)
 1644      0000
 1645              	.LBE221:
 1646              	.LBE222:
 1647              		.loc 4 410 35 is_stmt 1 view .LVU444
 1648              		.loc 4 411 21 view .LVU445
 1649              	.LBE223:
 1650              		.loc 3 576 1 is_stmt 0 view .LVU446
 1651 002e EB11     		jmp	.L96
 1652              		.p2align 4,,10
 1653              		.p2align 3
GAS LISTING /tmp/ccQWQiEw.s 			page 31


 1654              	.L98:
 1655              		.loc 3 576 1 view .LVU447
 1656              	.LBE224:
 1657              	.LBE225:
 1658              	.LBB226:
 1659              		.loc 1 541 5 is_stmt 1 view .LVU448
 1660              	.LVL88:
 1661              	.LBB227:
 1662              	.LBI227:
 1663              		.loc 3 892 21 view .LVU449
 1664              	.LBB228:
 1665              		.loc 3 895 3 view .LVU450
 1666              		.loc 3 895 10 is_stmt 0 view .LVU451
 1667 0030 83EC08   		subl	$8, %esp
 1668              		.cfi_def_cfa_offset 56
 1669 0033 56       		pushl	%esi
 1670              		.cfi_def_cfa_offset 60
 1671 0034 55       		pushl	%ebp
 1672              		.cfi_def_cfa_offset 64
 1673 0035 E8FCFFFF 		call	chThdEnqueueTimeoutS@PLT
 1673      FF
 1674              	.LVL89:
 1675              		.loc 3 895 10 view .LVU452
 1676              	.LBE228:
 1677              	.LBE227:
 1678              		.loc 1 542 5 is_stmt 1 view .LVU453
 1679              		.loc 1 542 8 is_stmt 0 view .LVU454
 1680 003a 83C410   		addl	$16, %esp
 1681              		.cfi_def_cfa_offset 48
 1682 003d 85C0     		testl	%eax, %eax
 1683 003f 7840     		js	.L97
 1684              	.LVL90:
 1685              	.L96:
 1686              		.loc 1 542 8 view .LVU455
 1687              	.LBE226:
 1688              		.loc 1 540 10 is_stmt 1 view .LVU456
 1689 0041 8B4508   		movl	8(%ebp), %eax
 1690 0044 85C0     		testl	%eax, %eax
 1691 0046 74E8     		je	.L98
 1692              		.loc 1 549 3 view .LVU457
 1693              		.loc 1 549 6 is_stmt 0 view .LVU458
 1694 0048 8B4508   		movl	8(%ebp), %eax
 1695              		.loc 1 550 19 view .LVU459
 1696 004b 0FB65424 		movzbl	12(%esp), %edx
 1696      0C
 1697              		.loc 1 549 17 view .LVU460
 1698 0050 83E801   		subl	$1, %eax
 1699 0053 894508   		movl	%eax, 8(%ebp)
 1700              		.loc 1 550 3 is_stmt 1 view .LVU461
 1701              		.loc 1 550 7 is_stmt 0 view .LVU462
 1702 0056 8B4514   		movl	20(%ebp), %eax
 1703              		.loc 1 550 16 view .LVU463
 1704 0059 8D4801   		leal	1(%eax), %ecx
 1705 005c 894D14   		movl	%ecx, 20(%ebp)
 1706              		.loc 1 550 19 view .LVU464
 1707 005f 8810     		movb	%dl, (%eax)
 1708              		.loc 1 551 3 is_stmt 1 view .LVU465
GAS LISTING /tmp/ccQWQiEw.s 			page 32


 1709              		.loc 1 551 6 is_stmt 0 view .LVU466
 1710 0061 8B4510   		movl	16(%ebp), %eax
 1711 0064 394514   		cmpl	%eax, 20(%ebp)
 1712 0067 7206     		jb	.L99
 1713              		.loc 1 552 5 is_stmt 1 view .LVU467
 1714              		.loc 1 552 18 is_stmt 0 view .LVU468
 1715 0069 8B450C   		movl	12(%ebp), %eax
 1716 006c 894514   		movl	%eax, 20(%ebp)
 1717              	.L99:
 1718              		.loc 1 556 3 is_stmt 1 view .LVU469
 1719              		.loc 1 556 10 is_stmt 0 view .LVU470
 1720 006f 8B451C   		movl	28(%ebp), %eax
 1721              		.loc 1 556 6 view .LVU471
 1722 0072 85C0     		testl	%eax, %eax
 1723 0074 7409     		je	.L100
 1724              		.loc 1 557 5 is_stmt 1 view .LVU472
 1725 0076 83EC0C   		subl	$12, %esp
 1726              		.cfi_def_cfa_offset 60
 1727 0079 55       		pushl	%ebp
 1728              		.cfi_def_cfa_offset 64
 1729 007a FFD0     		call	*%eax
 1730              	.LVL91:
 1731 007c 83C410   		addl	$16, %esp
 1732              		.cfi_def_cfa_offset 48
 1733              	.L100:
 1734              		.loc 1 560 3 view .LVU473
 1735              		.loc 1 562 3 view .LVU474
 1736              		.loc 1 562 10 is_stmt 0 view .LVU475
 1737 007f 31C0     		xorl	%eax, %eax
 1738              	.L97:
 1739              	.LBB234:
 1740              	.LBB229:
 1741              	.LBB230:
 1742              	.LBB231:
 1743              	.LBB232:
 1744              	.LBB233:
 1745              		.loc 5 372 16 view .LVU476
 1746 0081 C7070000 		movl	$0, (%edi)
 1746      0000
 1747              	.LBE233:
 1748              	.LBE232:
 1749              	.LBE231:
 1750              	.LBE230:
 1751              	.LBE229:
 1752              	.LBE234:
 1753              		.loc 1 563 1 view .LVU477
 1754 0087 83C41C   		addl	$28, %esp
 1755              		.cfi_def_cfa_offset 20
 1756 008a 5B       		popl	%ebx
 1757              		.cfi_restore 3
 1758              		.cfi_def_cfa_offset 16
 1759 008b 5E       		popl	%esi
 1760              		.cfi_restore 6
 1761              		.cfi_def_cfa_offset 12
 1762 008c 5F       		popl	%edi
 1763              		.cfi_restore 7
 1764              		.cfi_def_cfa_offset 8
GAS LISTING /tmp/ccQWQiEw.s 			page 33


 1765 008d 5D       		popl	%ebp
 1766              		.cfi_restore 5
 1767              		.cfi_def_cfa_offset 4
 1768 008e C3       		ret
 1769              		.cfi_endproc
 1770              	.LFE323:
 1771              		.size	oqPutTimeout, .-oqPutTimeout
 1772              		.section	.text.oqGetI,"ax",@progbits
 1773              		.p2align 4
 1774              		.globl	oqGetI
 1775              		.type	oqGetI, @function
 1776              	oqGetI:
 1777              	.LVL92:
 1778              	.LFB324:
 1779              		.loc 1 576 35 is_stmt 1 view -0
 1780              		.cfi_startproc
 1781              		.loc 1 578 23 view .LVU479
 1782              		.loc 1 581 3 view .LVU480
 1783              		.loc 1 576 35 is_stmt 0 view .LVU481
 1784 0000 56       		pushl	%esi
 1785              		.cfi_def_cfa_offset 8
 1786              		.cfi_offset 6, -8
 1787 0001 53       		pushl	%ebx
 1788              		.cfi_def_cfa_offset 12
 1789              		.cfi_offset 3, -12
 1790 0002 E8FCFFFF 		call	__x86.get_pc_thunk.bx
 1790      FF
 1791 0007 81C30200 		addl	$_GLOBAL_OFFSET_TABLE_, %ebx
 1791      0000
 1792 000d 83EC04   		subl	$4, %esp
 1793              		.cfi_def_cfa_offset 16
 1794              		.loc 1 576 35 view .LVU482
 1795 0010 8B442410 		movl	16(%esp), %eax
 1796              		.loc 1 581 8 view .LVU483
 1797 0014 8B4818   		movl	24(%eax), %ecx
 1798 0017 394814   		cmpl	%ecx, 20(%eax)
 1799 001a 7444     		je	.L113
 1800              	.L106:
 1801              	.LBB235:
 1802              		.loc 1 582 5 is_stmt 1 view .LVU484
 1803              		.loc 1 584 5 view .LVU485
 1804              		.loc 1 584 8 is_stmt 0 view .LVU486
 1805 001c 8B5008   		movl	8(%eax), %edx
 1806              		.loc 1 584 19 view .LVU487
 1807 001f 83C201   		addl	$1, %edx
 1808 0022 895008   		movl	%edx, 8(%eax)
 1809              		.loc 1 585 5 is_stmt 1 view .LVU488
 1810              		.loc 1 585 22 is_stmt 0 view .LVU489
 1811 0025 8D5101   		leal	1(%ecx), %edx
 1812 0028 895018   		movl	%edx, 24(%eax)
 1813              		.loc 1 585 7 view .LVU490
 1814 002b 0FB631   		movzbl	(%ecx), %esi
 1815              	.LVL93:
 1816              		.loc 1 586 5 is_stmt 1 view .LVU491
 1817              		.loc 1 586 8 is_stmt 0 view .LVU492
 1818 002e 3B5010   		cmpl	16(%eax), %edx
 1819 0031 731D     		jnb	.L108
GAS LISTING /tmp/ccQWQiEw.s 			page 34


 1820              	.L109:
 1821              		.loc 1 590 5 is_stmt 1 view .LVU493
 1822              	.LVL94:
 1823              	.LBB236:
 1824              	.LBI236:
 1825              		.loc 3 906 20 view .LVU494
 1826              	.LBB237:
 1827              		.loc 3 908 3 view .LVU495
 1828 0033 83EC08   		subl	$8, %esp
 1829              		.cfi_def_cfa_offset 24
 1830 0036 6A00     		pushl	$0
 1831              		.cfi_def_cfa_offset 28
 1832 0038 50       		pushl	%eax
 1833              		.cfi_def_cfa_offset 32
 1834 0039 E8FCFFFF 		call	chThdDequeueNextI@PLT
 1834      FF
 1835              	.LVL95:
 1836              		.loc 3 908 3 is_stmt 0 view .LVU496
 1837              	.LBE237:
 1838              	.LBE236:
 1839              		.loc 1 592 5 is_stmt 1 view .LVU497
 1840              		.loc 1 592 12 is_stmt 0 view .LVU498
 1841 003e 89F0     		movl	%esi, %eax
 1842 0040 83C410   		addl	$16, %esp
 1843              		.cfi_def_cfa_offset 16
 1844              	.LBE235:
 1845              		.loc 1 596 1 view .LVU499
 1846 0043 83C404   		addl	$4, %esp
 1847              		.cfi_remember_state
 1848              		.cfi_def_cfa_offset 12
 1849              	.LBB238:
 1850              		.loc 1 592 12 view .LVU500
 1851 0046 0FB6D0   		movzbl	%al, %edx
 1852              	.LBE238:
 1853              		.loc 1 596 1 view .LVU501
 1854 0049 89D0     		movl	%edx, %eax
 1855 004b 5B       		popl	%ebx
 1856              		.cfi_restore 3
 1857              		.cfi_def_cfa_offset 8
 1858 004c 5E       		popl	%esi
 1859              		.cfi_restore 6
 1860              		.cfi_def_cfa_offset 4
 1861              	.LVL96:
 1862              		.loc 1 596 1 view .LVU502
 1863 004d C3       		ret
 1864              	.LVL97:
 1865 004e 6690     		.p2align 4,,10
 1866              		.p2align 3
 1867              	.L108:
 1868              		.cfi_restore_state
 1869              	.LBB239:
 1870              		.loc 1 587 7 is_stmt 1 view .LVU503
 1871              		.loc 1 587 20 is_stmt 0 view .LVU504
 1872 0050 8B500C   		movl	12(%eax), %edx
 1873 0053 895018   		movl	%edx, 24(%eax)
 1874 0056 EBDB     		jmp	.L109
 1875              	.LVL98:
GAS LISTING /tmp/ccQWQiEw.s 			page 35


 1876 0058 8DB42600 		.p2align 4,,10
 1876      00000090 
 1877              		.p2align 3
 1878              	.L113:
 1879              		.loc 1 587 20 view .LVU505
 1880              	.LBE239:
 1881              		.loc 1 581 8 discriminator 1 view .LVU506
 1882 0060 8B7008   		movl	8(%eax), %esi
 1883              		.loc 1 595 10 discriminator 1 view .LVU507
 1884 0063 BAFFFFFF 		movl	$-1, %edx
 1884      FF
 1885              		.loc 1 581 8 discriminator 1 view .LVU508
 1886 0068 85F6     		testl	%esi, %esi
 1887 006a 74B0     		je	.L106
 1888              		.loc 1 596 1 view .LVU509
 1889 006c 83C404   		addl	$4, %esp
 1890              		.cfi_def_cfa_offset 12
 1891 006f 89D0     		movl	%edx, %eax
 1892 0071 5B       		popl	%ebx
 1893              		.cfi_restore 3
 1894              		.cfi_def_cfa_offset 8
 1895 0072 5E       		popl	%esi
 1896              		.cfi_restore 6
 1897              		.cfi_def_cfa_offset 4
 1898 0073 C3       		ret
 1899              		.cfi_endproc
 1900              	.LFE324:
 1901              		.size	oqGetI, .-oqGetI
 1902              		.section	.text.oqWriteI,"ax",@progbits
 1903              		.p2align 4
 1904              		.globl	oqWriteI
 1905              		.type	oqWriteI, @function
 1906              	oqWriteI:
 1907              	.LVL99:
 1908              	.LFB325:
 1909              		.loc 1 611 67 is_stmt 1 view -0
 1910              		.cfi_startproc
 1911              		.loc 1 612 3 view .LVU511
 1912              		.loc 1 611 67 is_stmt 0 view .LVU512
 1913 0000 57       		pushl	%edi
 1914              		.cfi_def_cfa_offset 8
 1915              		.cfi_offset 7, -8
 1916 0001 56       		pushl	%esi
 1917              		.cfi_def_cfa_offset 12
 1918              		.cfi_offset 6, -12
 1919 0002 83EC14   		subl	$20, %esp
 1920              		.cfi_def_cfa_offset 32
 1921              		.loc 1 611 67 view .LVU513
 1922 0005 8B742420 		movl	32(%esp), %esi
 1923              		.loc 1 617 8 view .LVU514
 1924 0009 8B4C2428 		movl	40(%esp), %ecx
 1925 000d 8B542424 		movl	36(%esp), %edx
 1926 0011 89F0     		movl	%esi, %eax
 1927              		.loc 1 612 13 view .LVU515
 1928 0013 8B7E1C   		movl	28(%esi), %edi
 1929              	.LVL100:
 1930              		.loc 1 613 3 is_stmt 1 view .LVU516
GAS LISTING /tmp/ccQWQiEw.s 			page 36


 1931              		.loc 1 615 23 view .LVU517
 1932              		.loc 1 617 3 view .LVU518
 1933              		.loc 1 617 8 is_stmt 0 view .LVU519
 1934 0016 E8FCFFFF 		call	oq_write
 1934      FF
 1935              	.LVL101:
 1936              		.loc 1 621 3 is_stmt 1 view .LVU520
 1937              		.loc 1 621 6 is_stmt 0 view .LVU521
 1938 001b 85C0     		testl	%eax, %eax
 1939 001d 7415     		je	.L114
 1940 001f 85FF     		testl	%edi, %edi
 1941 0021 7411     		je	.L114
 1942 0023 8944240C 		movl	%eax, 12(%esp)
 1943              		.loc 1 622 5 is_stmt 1 view .LVU522
 1944 0027 83EC0C   		subl	$12, %esp
 1945              		.cfi_def_cfa_offset 44
 1946 002a 56       		pushl	%esi
 1947              		.cfi_def_cfa_offset 48
 1948 002b FFD7     		call	*%edi
 1949              	.LVL102:
 1950              		.loc 1 622 5 is_stmt 0 view .LVU523
 1951 002d 8B44241C 		movl	28(%esp), %eax
 1952              		.loc 1 625 3 is_stmt 1 view .LVU524
 1953              		.loc 1 622 5 is_stmt 0 view .LVU525
 1954 0031 83C410   		addl	$16, %esp
 1955              		.cfi_def_cfa_offset 32
 1956              	.LVL103:
 1957              	.L114:
 1958              		.loc 1 626 1 view .LVU526
 1959 0034 83C414   		addl	$20, %esp
 1960              		.cfi_def_cfa_offset 12
 1961 0037 5E       		popl	%esi
 1962              		.cfi_restore 6
 1963              		.cfi_def_cfa_offset 8
 1964 0038 5F       		popl	%edi
 1965              		.cfi_restore 7
 1966              		.cfi_def_cfa_offset 4
 1967              	.LVL104:
 1968              		.loc 1 626 1 view .LVU527
 1969 0039 C3       		ret
 1970              		.cfi_endproc
 1971              	.LFE325:
 1972              		.size	oqWriteI, .-oqWriteI
 1973              		.section	.text.oqWriteTimeout,"ax",@progbits
 1974              		.p2align 4
 1975              		.globl	oqWriteTimeout
 1976              		.type	oqWriteTimeout, @function
 1977              	oqWriteTimeout:
 1978              	.LVL105:
 1979              	.LFB326:
 1980              		.loc 1 652 56 is_stmt 1 view -0
 1981              		.cfi_startproc
 1982              		.loc 1 653 3 view .LVU529
 1983              		.loc 1 652 56 is_stmt 0 view .LVU530
 1984 0000 55       		pushl	%ebp
 1985              		.cfi_def_cfa_offset 8
 1986              		.cfi_offset 5, -8
GAS LISTING /tmp/ccQWQiEw.s 			page 37


 1987 0001 57       		pushl	%edi
 1988              		.cfi_def_cfa_offset 12
 1989              		.cfi_offset 7, -12
 1990 0002 56       		pushl	%esi
 1991              		.cfi_def_cfa_offset 16
 1992              		.cfi_offset 6, -16
 1993 0003 53       		pushl	%ebx
 1994              		.cfi_def_cfa_offset 20
 1995              		.cfi_offset 3, -20
 1996 0004 E8FCFFFF 		call	__x86.get_pc_thunk.bx
 1996      FF
 1997 0009 81C30200 		addl	$_GLOBAL_OFFSET_TABLE_, %ebx
 1997      0000
 1998 000f 83EC1C   		subl	$28, %esp
 1999              		.cfi_def_cfa_offset 48
 2000              		.loc 1 652 56 view .LVU531
 2001 0012 8B6C2430 		movl	48(%esp), %ebp
 2002              		.loc 1 660 12 view .LVU532
 2003 0016 8B742438 		movl	56(%esp), %esi
 2004              		.loc 1 652 56 view .LVU533
 2005 001a 8B7C2434 		movl	52(%esp), %edi
 2006              		.loc 1 653 13 view .LVU534
 2007 001e 8B451C   		movl	28(%ebp), %eax
 2008 0021 8944240C 		movl	%eax, 12(%esp)
 2009              	.LVL106:
 2010              		.loc 1 654 3 is_stmt 1 view .LVU535
 2011              		.loc 1 656 3 view .LVU536
 2012              		.loc 1 656 3 view .LVU537
 2013              		.loc 1 656 3 view .LVU538
 2014              		.loc 1 658 3 view .LVU539
 2015              	.LBB240:
 2016              	.LBI240:
 2017              		.loc 3 573 20 view .LVU540
 2018              		.loc 3 575 3 view .LVU541
 2019              	.LBB241:
 2020              	.LBI241:
 2021              		.loc 4 407 20 view .LVU542
 2022              		.loc 4 409 3 view .LVU543
 2023              	.LBB242:
 2024              	.LBI242:
 2025              		.loc 5 361 20 view .LVU544
 2026              	.LBB243:
 2027              		.loc 5 363 3 view .LVU545
 2028              		.loc 5 363 16 is_stmt 0 view .LVU546
 2029 0025 8B830000 		movl	port_irq_sts@GOT(%ebx), %eax
 2029      0000
 2030              	.LVL107:
 2031              		.loc 5 363 16 view .LVU547
 2032 002b 89442408 		movl	%eax, 8(%esp)
 2033 002f C7000100 		movl	$1, (%eax)
 2033      0000
 2034              	.LBE243:
 2035              	.LBE242:
 2036              		.loc 4 410 35 is_stmt 1 view .LVU548
 2037              		.loc 4 411 21 view .LVU549
 2038              	.LVL108:
 2039              		.loc 4 411 21 is_stmt 0 view .LVU550
GAS LISTING /tmp/ccQWQiEw.s 			page 38


 2040              	.LBE241:
 2041              	.LBE240:
 2042              		.loc 1 660 12 is_stmt 1 view .LVU551
 2043 0035 85F6     		testl	%esi, %esi
 2044 0037 743F     		je	.L129
 2045              	.LVL109:
 2046 0039 8DB42600 		.p2align 4,,10
 2046      000000
 2047              		.p2align 3
 2048              	.L124:
 2049              	.LBB244:
 2050              		.loc 1 661 5 view .LVU552
 2051              		.loc 1 663 5 view .LVU553
 2052              		.loc 1 663 12 is_stmt 0 view .LVU554
 2053 0040 89F1     		movl	%esi, %ecx
 2054 0042 89FA     		movl	%edi, %edx
 2055 0044 89E8     		movl	%ebp, %eax
 2056 0046 E8FCFFFF 		call	oq_write
 2056      FF
 2057              	.LVL110:
 2058              		.loc 1 664 5 is_stmt 1 view .LVU555
 2059              		.loc 1 664 8 is_stmt 0 view .LVU556
 2060 004b 85C0     		testl	%eax, %eax
 2061 004d 7441     		je	.L143
 2062              		.loc 1 675 7 is_stmt 1 view .LVU557
 2063              		.loc 1 675 10 is_stmt 0 view .LVU558
 2064 004f 8B54240C 		movl	12(%esp), %edx
 2065 0053 85D2     		testl	%edx, %edx
 2066 0055 7411     		je	.L128
 2067 0057 89442404 		movl	%eax, 4(%esp)
 2068              		.loc 1 676 9 is_stmt 1 view .LVU559
 2069 005b 83EC0C   		subl	$12, %esp
 2070              		.cfi_def_cfa_offset 60
 2071 005e 55       		pushl	%ebp
 2072              		.cfi_def_cfa_offset 64
 2073 005f FFD2     		call	*%edx
 2074              	.LVL111:
 2075              		.loc 1 676 9 is_stmt 0 view .LVU560
 2076 0061 8B442414 		movl	20(%esp), %eax
 2077 0065 83C410   		addl	$16, %esp
 2078              		.cfi_def_cfa_offset 48
 2079              	.LVL112:
 2080              	.L128:
 2081              		.loc 1 680 7 is_stmt 1 view .LVU561
 2082              		.loc 1 682 7 view .LVU562
 2083              		.loc 1 683 7 view .LVU563
 2084              	.LBB245:
 2085              	.LBB246:
 2086              	.LBB247:
 2087              	.LBB248:
 2088              		.loc 5 363 16 is_stmt 0 view .LVU564
 2089 0068 8B4C2408 		movl	8(%esp), %ecx
 2090              	.LBE248:
 2091              	.LBE247:
 2092              	.LBE246:
 2093              	.LBE245:
 2094              		.loc 1 683 10 view .LVU565
GAS LISTING /tmp/ccQWQiEw.s 			page 39


 2095 006c 01C7     		addl	%eax, %edi
 2096              	.LVL113:
 2097              		.loc 1 685 7 is_stmt 1 view .LVU566
 2098              	.LBB252:
 2099              	.LBI245:
 2100              		.loc 3 573 20 view .LVU567
 2101              		.loc 3 575 3 view .LVU568
 2102              	.LBB251:
 2103              	.LBI246:
 2104              		.loc 4 407 20 view .LVU569
 2105              		.loc 4 409 3 view .LVU570
 2106              	.LBB250:
 2107              	.LBI247:
 2108              		.loc 5 361 20 view .LVU571
 2109              	.LBB249:
 2110              		.loc 5 363 3 view .LVU572
 2111              		.loc 5 363 16 is_stmt 0 view .LVU573
 2112 006e C7010100 		movl	$1, (%ecx)
 2112      0000
 2113              	.LBE249:
 2114              	.LBE250:
 2115              		.loc 4 410 35 is_stmt 1 view .LVU574
 2116              		.loc 4 411 21 view .LVU575
 2117              		.loc 4 411 21 is_stmt 0 view .LVU576
 2118              	.LBE251:
 2119              	.LBE252:
 2120              	.LBE244:
 2121              		.loc 1 660 12 is_stmt 1 view .LVU577
 2122 0074 29C6     		subl	%eax, %esi
 2123              	.LVL114:
 2124              		.loc 1 660 12 is_stmt 0 view .LVU578
 2125 0076 75C8     		jne	.L124
 2126              	.LVL115:
 2127              	.L129:
 2128              		.loc 1 660 12 view .LVU579
 2129 0078 8B442438 		movl	56(%esp), %eax
 2130              	.L125:
 2131              		.loc 1 689 3 is_stmt 1 view .LVU580
 2132              	.LBB256:
 2133              	.LBI256:
 2134              		.loc 3 584 20 view .LVU581
 2135              		.loc 3 586 3 view .LVU582
 2136              	.LBB257:
 2137              	.LBI257:
 2138              		.loc 4 421 20 view .LVU583
 2139              	.LBB258:
 2140              		.loc 4 423 23 view .LVU584
 2141              		.loc 4 424 34 view .LVU585
 2142              		.loc 4 430 3 view .LVU586
 2143              		.loc 4 430 3 view .LVU587
 2144              		.loc 4 430 3 view .LVU588
 2145              		.loc 4 434 3 view .LVU589
 2146              	.LBB259:
 2147              	.LBI259:
 2148              		.loc 5 370 20 view .LVU590
 2149              	.LBB260:
 2150              		.loc 5 372 3 view .LVU591
GAS LISTING /tmp/ccQWQiEw.s 			page 40


 2151              		.loc 5 372 16 is_stmt 0 view .LVU592
 2152 007c 8B5C2408 		movl	8(%esp), %ebx
 2153 0080 C7030000 		movl	$0, (%ebx)
 2153      0000
 2154              	.LBE260:
 2155              	.LBE259:
 2156              	.LBE258:
 2157              	.LBE257:
 2158              	.LBE256:
 2159              		.loc 1 690 3 is_stmt 1 view .LVU593
 2160              		.loc 1 691 1 is_stmt 0 view .LVU594
 2161 0086 83C41C   		addl	$28, %esp
 2162              		.cfi_remember_state
 2163              		.cfi_def_cfa_offset 20
 2164 0089 5B       		popl	%ebx
 2165              		.cfi_restore 3
 2166              		.cfi_def_cfa_offset 16
 2167 008a 5E       		popl	%esi
 2168              		.cfi_restore 6
 2169              		.cfi_def_cfa_offset 12
 2170 008b 5F       		popl	%edi
 2171              		.cfi_restore 7
 2172              		.cfi_def_cfa_offset 8
 2173              	.LVL116:
 2174              		.loc 1 691 1 view .LVU595
 2175 008c 5D       		popl	%ebp
 2176              		.cfi_restore 5
 2177              		.cfi_def_cfa_offset 4
 2178 008d C3       		ret
 2179              	.LVL117:
 2180 008e 6690     		.p2align 4,,10
 2181              		.p2align 3
 2182              	.L143:
 2183              		.cfi_restore_state
 2184              	.LBB261:
 2185              	.LBB253:
 2186              		.loc 1 665 7 is_stmt 1 view .LVU596
 2187              	.LBB254:
 2188              	.LBI254:
 2189              		.loc 3 892 21 view .LVU597
 2190              	.LBB255:
 2191              		.loc 3 895 3 view .LVU598
 2192              		.loc 3 895 10 is_stmt 0 view .LVU599
 2193 0090 83EC08   		subl	$8, %esp
 2194              		.cfi_def_cfa_offset 56
 2195 0093 FF742444 		pushl	68(%esp)
 2196              		.cfi_def_cfa_offset 60
 2197 0097 55       		pushl	%ebp
 2198              		.cfi_def_cfa_offset 64
 2199 0098 E8FCFFFF 		call	chThdEnqueueTimeoutS@PLT
 2199      FF
 2200              	.LVL118:
 2201              		.loc 3 895 10 view .LVU600
 2202              	.LBE255:
 2203              	.LBE254:
 2204              		.loc 1 668 7 is_stmt 1 view .LVU601
 2205              		.loc 1 668 10 is_stmt 0 view .LVU602
GAS LISTING /tmp/ccQWQiEw.s 			page 41


 2206 009d 83C410   		addl	$16, %esp
 2207              		.cfi_def_cfa_offset 48
 2208 00a0 85C0     		testl	%eax, %eax
 2209 00a2 749C     		je	.L124
 2210              	.LBE253:
 2211              	.LBE261:
 2212              		.loc 1 690 14 view .LVU603
 2213 00a4 8B442438 		movl	56(%esp), %eax
 2214              	.LVL119:
 2215              		.loc 1 690 14 view .LVU604
 2216 00a8 29F0     		subl	%esi, %eax
 2217 00aa EBD0     		jmp	.L125
 2218              		.cfi_endproc
 2219              	.LFE326:
 2220              		.size	oqWriteTimeout, .-oqWriteTimeout
 2221              		.section	.text.__x86.get_pc_thunk.bx,"axG",@progbits,__x86.get_pc_thunk.bx,comdat
 2222              		.globl	__x86.get_pc_thunk.bx
 2223              		.hidden	__x86.get_pc_thunk.bx
 2224              		.type	__x86.get_pc_thunk.bx, @function
 2225              	__x86.get_pc_thunk.bx:
 2226              	.LFB327:
 2227              		.cfi_startproc
 2228 0000 8B1C24   		movl	(%esp), %ebx
 2229 0003 C3       		ret
 2230              		.cfi_endproc
 2231              	.LFE327:
 2232              		.text
 2233              	.Letext0:
 2234              		.file 6 "/usr/lib/gcc/x86_64-linux-gnu/11/include/stddef.h"
 2235              		.file 7 "/usr/include/bits/types.h"
 2236              		.file 8 "/usr/include/bits/stdint-intn.h"
 2237              		.file 9 "/usr/include/bits/stdint-uintn.h"
 2238              		.file 10 "../../../os/common/ports/SIMIA32/compilers/GCC/chtypes.h"
 2239              		.file 11 "../../../os/rt/include/chtime.h"
 2240              		.file 12 "../../../os/rt/include/chlists.h"
 2241              		.file 13 "../../../os/rt/include/chobjects.h"
 2242              		.file 14 "../../../os/hal/include/hal_queues.h"
 2243              		.file 15 "../../../os/rt/include/chthreads.h"
 2244              		.file 16 "<built-in>"
 7110 0047 2F686F6D 		.section	.note.GNU-stack,"",@progbits
 7110      652F616C 
 7110      65782F43 
 7110      68696269 
 7110      4F532F64 
GAS LISTING /tmp/ccQWQiEw.s 			page 131

