GAS LISTING /tmp/ccNgdVMZ.s 			page 1


   1              		.file	"hal_buffers.c"
   2              		.text
   3              	.Ltext0:
   4              		.file 0 "/home/alex/ChibiOS/demos/various/LAB2" "../../../os/hal/src/hal_buffers.c"
   5              		.section	.text.ibqObjectInit,"ax",@progbits
   6              		.p2align 4
   7              		.globl	ibqObjectInit
   8              		.type	ibqObjectInit, @function
   9              	ibqObjectInit:
  10              	.LVL0:
  11              	.LFB311:
  12              		.file 1 "../../../os/hal/src/hal_buffers.c"
  13              		.loc 1 77 72 view -0
  14              		.cfi_startproc
  15              		.loc 1 79 3 view .LVU1
  16              		.loc 1 79 3 view .LVU2
  17              		.loc 1 79 3 view .LVU3
  18              		.loc 1 81 3 view .LVU4
  19              		.loc 1 77 72 is_stmt 0 view .LVU5
  20 0000 55       		pushl	%ebp
  21              		.cfi_def_cfa_offset 8
  22              		.cfi_offset 5, -8
  23 0001 57       		pushl	%edi
  24              		.cfi_def_cfa_offset 12
  25              		.cfi_offset 7, -12
  26 0002 56       		pushl	%esi
  27              		.cfi_def_cfa_offset 16
  28              		.cfi_offset 6, -16
  29 0003 53       		pushl	%ebx
  30              		.cfi_def_cfa_offset 20
  31              		.cfi_offset 3, -20
  32 0004 E8FCFFFF 		call	__x86.get_pc_thunk.bx
  32      FF
  33 0009 81C30200 		addl	$_GLOBAL_OFFSET_TABLE_, %ebx
  33      0000
  34 000f 83EC18   		subl	$24, %esp
  35              		.cfi_def_cfa_offset 44
  36              		.loc 1 77 72 view .LVU6
  37 0012 8B74242C 		movl	44(%esp), %esi
  38              	.LVL1:
  39              	.LBB196:
  40              	.LBI196:
  41              		.file 2 "../../../os/hal/osal/rt-nil/osal.h"
  42              		.loc 2 864 20 is_stmt 1 view .LVU7
  43              	.LBB197:
  44              		.loc 2 866 3 view .LVU8
  45              	.LBE197:
  46              	.LBE196:
  47              		.loc 1 77 72 is_stmt 0 view .LVU9
  48 0016 8B7C2434 		movl	52(%esp), %edi
  49 001a 8B6C2430 		movl	48(%esp), %ebp
  50              	.LBB199:
  51              	.LBB198:
  52              		.loc 2 866 3 view .LVU10
  53 001e 56       		pushl	%esi
  54              		.cfi_def_cfa_offset 48
  55 001f E8FCFFFF 		call	chThdQueueObjectInit@PLT
GAS LISTING /tmp/ccNgdVMZ.s 			page 2


  55      FF
  56              	.LVL2:
  57              		.loc 2 866 3 view .LVU11
  58              	.LBE198:
  59              	.LBE199:
  60              		.loc 1 82 3 is_stmt 1 view .LVU12
  61              		.loc 1 82 19 is_stmt 0 view .LVU13
  62 0024 89E8     		movl	%ebp, %eax
  63              		.loc 1 86 52 view .LVU14
  64 0026 8B542440 		movl	64(%esp), %edx
  65              		.loc 1 84 19 view .LVU15
  66 002a 897E14   		movl	%edi, 20(%esi)
  67              		.loc 1 82 19 view .LVU16
  68 002d 884608   		movb	%al, 8(%esi)
  69              		.loc 1 83 3 is_stmt 1 view .LVU17
  70              		.loc 1 86 33 is_stmt 0 view .LVU18
  71 0030 8B44243C 		movl	60(%esp), %eax
  72              		.loc 1 83 19 view .LVU19
  73 0034 C7460C00 		movl	$0, 12(%esi)
  73      000000
  74              		.loc 1 84 3 is_stmt 1 view .LVU20
  75              		.loc 1 85 3 view .LVU21
  76              		.loc 1 86 33 is_stmt 0 view .LVU22
  77 003b 83C004   		addl	$4, %eax
  78              		.loc 1 85 19 view .LVU23
  79 003e 897E10   		movl	%edi, 16(%esi)
  80              		.loc 1 86 3 is_stmt 1 view .LVU24
  81              		.loc 1 87 19 is_stmt 0 view .LVU25
  82 0041 89461C   		movl	%eax, 28(%esi)
  83              		.loc 1 86 52 view .LVU26
  84 0044 0FAFD0   		imull	%eax, %edx
  85              		.loc 1 88 19 view .LVU27
  86 0047 8B442440 		movl	64(%esp), %eax
  87              		.loc 1 89 19 view .LVU28
  88 004b 897E24   		movl	%edi, 36(%esi)
  89              		.loc 1 88 19 view .LVU29
  90 004e 894620   		movl	%eax, 32(%esi)
  91              		.loc 1 92 19 view .LVU30
  92 0051 8B442444 		movl	68(%esp), %eax
  93              		.loc 1 86 24 view .LVU31
  94 0055 01FA     		addl	%edi, %edx
  95              		.loc 1 90 19 view .LVU32
  96 0057 C7462800 		movl	$0, 40(%esi)
  96      000000
  97              		.loc 1 92 19 view .LVU33
  98 005e 894630   		movl	%eax, 48(%esi)
  99              		.loc 1 93 19 view .LVU34
 100 0061 8B442448 		movl	72(%esp), %eax
 101              		.loc 1 86 24 view .LVU35
 102 0065 895618   		movl	%edx, 24(%esi)
 103              		.loc 1 87 3 is_stmt 1 view .LVU36
 104              		.loc 1 88 3 view .LVU37
 105              		.loc 1 89 3 view .LVU38
 106              		.loc 1 90 3 view .LVU39
 107              		.loc 1 91 3 view .LVU40
 108              		.loc 1 91 19 is_stmt 0 view .LVU41
 109 0068 C7462C00 		movl	$0, 44(%esi)
GAS LISTING /tmp/ccNgdVMZ.s 			page 3


 109      000000
 110              		.loc 1 92 3 is_stmt 1 view .LVU42
 111              		.loc 1 93 3 view .LVU43
 112              		.loc 1 93 19 is_stmt 0 view .LVU44
 113 006f 894634   		movl	%eax, 52(%esi)
 114              		.loc 1 94 1 view .LVU45
 115 0072 83C41C   		addl	$28, %esp
 116              		.cfi_def_cfa_offset 20
 117 0075 5B       		popl	%ebx
 118              		.cfi_restore 3
 119              		.cfi_def_cfa_offset 16
 120 0076 5E       		popl	%esi
 121              		.cfi_restore 6
 122              		.cfi_def_cfa_offset 12
 123 0077 5F       		popl	%edi
 124              		.cfi_restore 7
 125              		.cfi_def_cfa_offset 8
 126 0078 5D       		popl	%ebp
 127              		.cfi_restore 5
 128              		.cfi_def_cfa_offset 4
 129 0079 C3       		ret
 130              		.cfi_endproc
 131              	.LFE311:
 132              		.size	ibqObjectInit, .-ibqObjectInit
 133              		.section	.text.ibqResetI,"ax",@progbits
 134              		.p2align 4
 135              		.globl	ibqResetI
 136              		.type	ibqResetI, @function
 137              	ibqResetI:
 138              	.LVL3:
 139              	.LFB312:
 140              		.loc 1 107 45 is_stmt 1 view -0
 141              		.cfi_startproc
 142              		.loc 1 109 23 view .LVU47
 143              		.loc 1 111 3 view .LVU48
 144              		.loc 1 107 45 is_stmt 0 view .LVU49
 145 0000 53       		pushl	%ebx
 146              		.cfi_def_cfa_offset 8
 147              		.cfi_offset 3, -8
 148 0001 E8FCFFFF 		call	__x86.get_pc_thunk.bx
 148      FF
 149 0006 81C30200 		addl	$_GLOBAL_OFFSET_TABLE_, %ebx
 149      0000
 150 000c 83EC10   		subl	$16, %esp
 151              		.cfi_def_cfa_offset 24
 152              		.loc 1 107 45 view .LVU50
 153 000f 8B442418 		movl	24(%esp), %eax
 154              		.loc 1 112 25 view .LVU51
 155 0013 8B5024   		movl	36(%eax), %edx
 156              		.loc 1 111 19 view .LVU52
 157 0016 C7400C00 		movl	$0, 12(%eax)
 157      000000
 158              		.loc 1 112 3 is_stmt 1 view .LVU53
 159              		.loc 1 114 19 is_stmt 0 view .LVU54
 160 001d C7402800 		movl	$0, 40(%eax)
 160      000000
 161              		.loc 1 112 19 view .LVU55
GAS LISTING /tmp/ccNgdVMZ.s 			page 4


 162 0024 895014   		movl	%edx, 20(%eax)
 163              		.loc 1 113 3 is_stmt 1 view .LVU56
 164              		.loc 1 113 19 is_stmt 0 view .LVU57
 165 0027 895010   		movl	%edx, 16(%eax)
 166              		.loc 1 114 3 is_stmt 1 view .LVU58
 167              		.loc 1 115 3 view .LVU59
 168              		.loc 1 115 19 is_stmt 0 view .LVU60
 169 002a C7402C00 		movl	$0, 44(%eax)
 169      000000
 170              		.loc 1 116 3 is_stmt 1 view .LVU61
 171              	.LVL4:
 172              	.LBB200:
 173              	.LBI200:
 174              		.loc 2 919 20 view .LVU62
 175              	.LBB201:
 176              		.loc 2 921 3 view .LVU63
 177 0031 6AFE     		pushl	$-2
 178              		.cfi_def_cfa_offset 28
 179 0033 50       		pushl	%eax
 180              		.cfi_def_cfa_offset 32
 181 0034 E8FCFFFF 		call	chThdDequeueAllI@PLT
 181      FF
 182              	.LVL5:
 183              		.loc 2 921 3 is_stmt 0 view .LVU64
 184              	.LBE201:
 185              	.LBE200:
 186              		.loc 1 117 1 view .LVU65
 187 0039 83C418   		addl	$24, %esp
 188              		.cfi_def_cfa_offset 8
 189 003c 5B       		popl	%ebx
 190              		.cfi_restore 3
 191              		.cfi_def_cfa_offset 4
 192 003d C3       		ret
 193              		.cfi_endproc
 194              	.LFE312:
 195              		.size	ibqResetI, .-ibqResetI
 196              		.section	.text.ibqGetEmptyBufferI,"ax",@progbits
 197              		.p2align 4
 198              		.globl	ibqGetEmptyBufferI
 199              		.type	ibqGetEmptyBufferI, @function
 200              	ibqGetEmptyBufferI:
 201              	.LVL6:
 202              	.LFB313:
 203              		.loc 1 129 58 is_stmt 1 view -0
 204              		.cfi_startproc
 205              		.loc 1 131 23 view .LVU67
 206              		.loc 1 133 3 view .LVU68
 207              		.loc 1 129 58 is_stmt 0 view .LVU69
 208 0000 8B542404 		movl	4(%esp), %edx
 209              		.loc 1 133 7 view .LVU70
 210 0004 8B4210   		movl	16(%edx), %eax
 211 0007 3B4214   		cmpl	20(%edx), %eax
 212 000a 7404     		je	.L12
 213              	.L7:
 214              		.loc 1 137 3 is_stmt 1 view .LVU71
 215              		.loc 1 137 23 is_stmt 0 view .LVU72
 216 000c 83C004   		addl	$4, %eax
GAS LISTING /tmp/ccNgdVMZ.s 			page 5


 217              		.loc 1 138 1 view .LVU73
 218 000f C3       		ret
 219              	.LVL7:
 220              		.p2align 4,,10
 221              		.p2align 3
 222              	.L12:
 223              		.loc 1 133 7 discriminator 1 view .LVU74
 224 0010 8B520C   		movl	12(%edx), %edx
 225              	.LVL8:
 226              		.loc 1 133 7 discriminator 1 view .LVU75
 227 0013 85D2     		testl	%edx, %edx
 228 0015 74F5     		je	.L7
 229              		.loc 1 134 12 view .LVU76
 230 0017 31C0     		xorl	%eax, %eax
 231 0019 C3       		ret
 232              		.cfi_endproc
 233              	.LFE313:
 234              		.size	ibqGetEmptyBufferI, .-ibqGetEmptyBufferI
 235              		.section	.text.ibqPostFullBufferI,"ax",@progbits
 236              		.p2align 4
 237              		.globl	ibqPostFullBufferI
 238              		.type	ibqPostFullBufferI, @function
 239              	ibqPostFullBufferI:
 240              	.LVL9:
 241              	.LFB314:
 242              		.loc 1 148 67 is_stmt 1 view -0
 243              		.cfi_startproc
 244              		.loc 1 150 23 view .LVU78
 245              		.loc 1 152 3 view .LVU79
 246              		.loc 1 152 3 view .LVU80
 247              		.loc 1 152 3 view .LVU81
 248              		.loc 1 153 3 view .LVU82
 249              		.loc 1 153 3 view .LVU83
 250              		.loc 1 153 3 view .LVU84
 251              		.loc 1 156 3 view .LVU85
 252              		.loc 1 148 67 is_stmt 0 view .LVU86
 253 0000 53       		pushl	%ebx
 254              		.cfi_def_cfa_offset 8
 255              		.cfi_offset 3, -8
 256 0001 E8FCFFFF 		call	__x86.get_pc_thunk.bx
 256      FF
 257 0006 81C30200 		addl	$_GLOBAL_OFFSET_TABLE_, %ebx
 257      0000
 258 000c 83EC08   		subl	$8, %esp
 259              		.cfi_def_cfa_offset 16
 260              		.loc 1 148 67 view .LVU87
 261 000f 8B442410 		movl	16(%esp), %eax
 262              		.loc 1 156 37 view .LVU88
 263 0013 8B4C2414 		movl	20(%esp), %ecx
 264              		.loc 1 156 27 view .LVU89
 265 0017 8B5010   		movl	16(%eax), %edx
 266              		.loc 1 156 37 view .LVU90
 267 001a 890A     		movl	%ecx, (%edx)
 268              		.loc 1 159 3 is_stmt 1 view .LVU91
 269              		.loc 1 159 7 is_stmt 0 view .LVU92
 270 001c 8B480C   		movl	12(%eax), %ecx
 271              		.loc 1 160 16 view .LVU93
GAS LISTING /tmp/ccNgdVMZ.s 			page 6


 272 001f 03501C   		addl	28(%eax), %edx
 273              		.loc 1 159 17 view .LVU94
 274 0022 83C101   		addl	$1, %ecx
 275              		.loc 1 160 16 view .LVU95
 276 0025 895010   		movl	%edx, 16(%eax)
 277              		.loc 1 159 17 view .LVU96
 278 0028 89480C   		movl	%ecx, 12(%eax)
 279              		.loc 1 160 3 is_stmt 1 view .LVU97
 280              		.loc 1 161 3 view .LVU98
 281              		.loc 1 161 6 is_stmt 0 view .LVU99
 282 002b 3B5018   		cmpl	24(%eax), %edx
 283 002e 7206     		jb	.L14
 284              		.loc 1 162 5 is_stmt 1 view .LVU100
 285              		.loc 1 162 18 is_stmt 0 view .LVU101
 286 0030 8B5024   		movl	36(%eax), %edx
 287 0033 895010   		movl	%edx, 16(%eax)
 288              	.L14:
 289              		.loc 1 166 3 is_stmt 1 view .LVU102
 290              	.LVL10:
 291              	.LBB202:
 292              	.LBI202:
 293              		.loc 2 906 20 view .LVU103
 294              	.LBB203:
 295              		.loc 2 908 3 view .LVU104
 296 0036 83EC08   		subl	$8, %esp
 297              		.cfi_def_cfa_offset 24
 298 0039 6A00     		pushl	$0
 299              		.cfi_def_cfa_offset 28
 300 003b 50       		pushl	%eax
 301              		.cfi_def_cfa_offset 32
 302 003c E8FCFFFF 		call	chThdDequeueNextI@PLT
 302      FF
 303              	.LVL11:
 304              		.loc 2 908 3 is_stmt 0 view .LVU105
 305              	.LBE203:
 306              	.LBE202:
 307              		.loc 1 167 1 view .LVU106
 308 0041 83C418   		addl	$24, %esp
 309              		.cfi_def_cfa_offset 8
 310 0044 5B       		popl	%ebx
 311              		.cfi_restore 3
 312              		.cfi_def_cfa_offset 4
 313 0045 C3       		ret
 314              		.cfi_endproc
 315              	.LFE314:
 316              		.size	ibqPostFullBufferI, .-ibqPostFullBufferI
 317              		.section	.text.ibqGetFullBufferTimeout,"ax",@progbits
 318              		.p2align 4
 319              		.globl	ibqGetFullBufferTimeout
 320              		.type	ibqGetFullBufferTimeout, @function
 321              	ibqGetFullBufferTimeout:
 322              	.LVL12:
 323              	.LFB315:
 324              		.loc 1 190 54 is_stmt 1 view -0
 325              		.cfi_startproc
 326              		.loc 1 190 54 is_stmt 0 view .LVU108
 327 0000 55       		pushl	%ebp
GAS LISTING /tmp/ccNgdVMZ.s 			page 7


 328              		.cfi_def_cfa_offset 8
 329              		.cfi_offset 5, -8
 330 0001 57       		pushl	%edi
 331              		.cfi_def_cfa_offset 12
 332              		.cfi_offset 7, -12
 333 0002 56       		pushl	%esi
 334              		.cfi_def_cfa_offset 16
 335              		.cfi_offset 6, -16
 336 0003 53       		pushl	%ebx
 337              		.cfi_def_cfa_offset 20
 338              		.cfi_offset 3, -20
 339 0004 E8FCFFFF 		call	__x86.get_pc_thunk.bx
 339      FF
 340 0009 81C30200 		addl	$_GLOBAL_OFFSET_TABLE_, %ebx
 340      0000
 341 000f 83EC0C   		subl	$12, %esp
 342              		.cfi_def_cfa_offset 32
 343              		.loc 1 190 54 view .LVU109
 344 0012 8B6C2420 		movl	32(%esp), %ebp
 345              		.loc 1 191 3 is_stmt 1 view .LVU110
 346              		.loc 1 193 3 view .LVU111
 347              	.LBB223:
 348              	.LBI223:
 349              		.loc 2 573 20 view .LVU112
 350              		.loc 2 575 3 view .LVU113
 351              	.LBB224:
 352              	.LBI224:
 353              		.file 3 "../../../os/rt/include/chsys.h"
 354              		.loc 3 407 20 view .LVU114
 355              		.loc 3 409 3 view .LVU115
 356              	.LBB225:
 357              	.LBI225:
 358              		.file 4 "../../../os/common/ports/SIMIA32/chcore.h"
 359              		.loc 4 361 20 view .LVU116
 360              	.LBB226:
 361              		.loc 4 363 3 view .LVU117
 362              	.LBE226:
 363              	.LBE225:
 364              	.LBE224:
 365              	.LBE223:
 366              		.loc 1 190 54 is_stmt 0 view .LVU118
 367 0016 8B742424 		movl	36(%esp), %esi
 368              	.LBB230:
 369              	.LBB229:
 370              	.LBB228:
 371              	.LBB227:
 372              		.loc 4 363 16 view .LVU119
 373 001a 8BBB0000 		movl	port_irq_sts@GOT(%ebx), %edi
 373      0000
 374 0020 C7070100 		movl	$1, (%edi)
 374      0000
 375              	.LBE227:
 376              	.LBE228:
 377              		.loc 3 410 35 is_stmt 1 view .LVU120
 378              		.loc 3 411 21 view .LVU121
 379              	.LBE229:
 380              	.LBE230:
GAS LISTING /tmp/ccNgdVMZ.s 			page 8


 381              		.loc 1 194 3 view .LVU122
 382              	.LVL13:
 383              	.LBB231:
 384              	.LBI231:
 385              		.loc 1 220 9 view .LVU123
 386              	.LBB232:
 387              		.loc 1 223 23 view .LVU124
 388              		.loc 1 225 3 view .LVU125
 389              		.loc 1 225 9 is_stmt 0 view .LVU126
 390 0026 EB1F     		jmp	.L17
 391 0028 8DB42600 		.p2align 4,,10
 391      00000090 
 392              		.p2align 3
 393              	.L19:
 394              	.LBB233:
 395              		.loc 1 226 5 is_stmt 1 view .LVU127
 396              		.loc 1 226 8 is_stmt 0 view .LVU128
 397 0030 807D0800 		cmpb	$0, 8(%ebp)
 398 0034 753A     		jne	.L20
 399              		.loc 1 229 5 is_stmt 1 view .LVU129
 400              	.LVL14:
 401              	.LBB234:
 402              	.LBI234:
 403              		.loc 2 892 21 view .LVU130
 404              	.LBB235:
 405              		.loc 2 895 3 view .LVU131
 406              		.loc 2 895 10 is_stmt 0 view .LVU132
 407 0036 83EC08   		subl	$8, %esp
 408              		.cfi_def_cfa_offset 40
 409 0039 56       		pushl	%esi
 410              		.cfi_def_cfa_offset 44
 411 003a 55       		pushl	%ebp
 412              		.cfi_def_cfa_offset 48
 413 003b E8FCFFFF 		call	chThdEnqueueTimeoutS@PLT
 413      FF
 414              	.LVL15:
 415              		.loc 2 895 10 view .LVU133
 416              	.LBE235:
 417              	.LBE234:
 418              		.loc 1 230 5 is_stmt 1 view .LVU134
 419              		.loc 1 230 8 is_stmt 0 view .LVU135
 420 0040 83C410   		addl	$16, %esp
 421              		.cfi_def_cfa_offset 32
 422 0043 85C0     		testl	%eax, %eax
 423 0045 7817     		js	.L18
 424              	.LVL16:
 425              	.L17:
 426              		.loc 1 230 8 view .LVU136
 427              	.LBE233:
 428              		.loc 1 225 10 is_stmt 1 view .LVU137
 429 0047 8B450C   		movl	12(%ebp), %eax
 430 004a 85C0     		testl	%eax, %eax
 431 004c 74E2     		je	.L19
 432              	.LVL17:
 433              	.LBB236:
 434              	.LBI236:
 435              		.loc 1 220 9 view .LVU138
GAS LISTING /tmp/ccNgdVMZ.s 			page 9


 436              	.LBB237:
 437              		.loc 1 235 3 view .LVU139
 438              		.loc 1 235 3 view .LVU140
 439              		.loc 1 235 3 view .LVU141
 440              		.loc 1 238 3 view .LVU142
 441              		.loc 1 238 19 is_stmt 0 view .LVU143
 442 004e 8B5514   		movl	20(%ebp), %edx
 443              		.loc 1 238 28 view .LVU144
 444 0051 8D4204   		leal	4(%edx), %eax
 445              		.loc 1 238 13 view .LVU145
 446 0054 894528   		movl	%eax, 40(%ebp)
 447              		.loc 1 239 3 is_stmt 1 view .LVU146
 448              		.loc 1 239 25 is_stmt 0 view .LVU147
 449 0057 0302     		addl	(%edx), %eax
 450              		.loc 1 239 13 view .LVU148
 451 0059 89452C   		movl	%eax, 44(%ebp)
 452              		.loc 1 241 3 is_stmt 1 view .LVU149
 453              	.LVL18:
 454              		.loc 1 239 13 is_stmt 0 view .LVU150
 455 005c 31C0     		xorl	%eax, %eax
 456              	.L18:
 457              	.LVL19:
 458              		.loc 1 239 13 view .LVU151
 459              	.LBE237:
 460              	.LBE236:
 461              	.LBE232:
 462              	.LBE231:
 463              		.loc 1 195 3 is_stmt 1 view .LVU152
 464              	.LBB240:
 465              	.LBI240:
 466              		.loc 2 584 20 view .LVU153
 467              		.loc 2 586 3 view .LVU154
 468              	.LBB241:
 469              	.LBI241:
 470              		.loc 3 421 20 view .LVU155
 471              	.LBB242:
 472              		.loc 3 423 23 view .LVU156
 473              		.loc 3 424 34 view .LVU157
 474              		.loc 3 430 3 view .LVU158
 475              		.loc 3 430 3 view .LVU159
 476              		.loc 3 430 3 view .LVU160
 477              		.loc 3 434 3 view .LVU161
 478              	.LBB243:
 479              	.LBI243:
 480              		.loc 4 370 20 view .LVU162
 481              	.LBB244:
 482              		.loc 4 372 3 view .LVU163
 483              		.loc 4 372 16 is_stmt 0 view .LVU164
 484 005e C7070000 		movl	$0, (%edi)
 484      0000
 485              	.LBE244:
 486              	.LBE243:
 487              	.LBE242:
 488              	.LBE241:
 489              	.LBE240:
 490              		.loc 1 197 3 is_stmt 1 view .LVU165
 491              		.loc 1 198 1 is_stmt 0 view .LVU166
GAS LISTING /tmp/ccNgdVMZ.s 			page 10


 492 0064 83C40C   		addl	$12, %esp
 493              		.cfi_remember_state
 494              		.cfi_def_cfa_offset 20
 495 0067 5B       		popl	%ebx
 496              		.cfi_restore 3
 497              		.cfi_def_cfa_offset 16
 498 0068 5E       		popl	%esi
 499              		.cfi_restore 6
 500              		.cfi_def_cfa_offset 12
 501 0069 5F       		popl	%edi
 502              		.cfi_restore 7
 503              		.cfi_def_cfa_offset 8
 504 006a 5D       		popl	%ebp
 505              		.cfi_restore 5
 506              		.cfi_def_cfa_offset 4
 507 006b C3       		ret
 508              	.LVL20:
 509 006c 8D742600 		.p2align 4,,10
 510              		.p2align 3
 511              	.L20:
 512              		.cfi_restore_state
 513              	.LBB253:
 514              	.LBB251:
 515              	.LBB249:
 516              	.LBB247:
 517              	.LBB245:
 518              		.loc 4 372 16 view .LVU167
 519 0070 C7070000 		movl	$0, (%edi)
 519      0000
 520              	.LBE245:
 521              	.LBE247:
 522              	.LBE249:
 523              	.LBE251:
 524              	.LBE253:
 525              		.loc 1 198 1 view .LVU168
 526 0076 83C40C   		addl	$12, %esp
 527              		.cfi_def_cfa_offset 20
 528              	.LBB254:
 529              	.LBB239:
 530              	.LBB238:
 531              		.loc 1 227 14 view .LVU169
 532 0079 B8FEFFFF 		movl	$-2, %eax
 532      FF
 533              	.LVL21:
 534              		.loc 1 227 14 view .LVU170
 535              	.LBE238:
 536              	.LBE239:
 537              	.LBE254:
 538              		.loc 1 195 3 is_stmt 1 view .LVU171
 539              	.LBB255:
 540              		.loc 2 584 20 view .LVU172
 541              		.loc 2 586 3 view .LVU173
 542              	.LBB252:
 543              		.loc 3 421 20 view .LVU174
 544              	.LBB250:
 545              		.loc 3 423 23 view .LVU175
 546              		.loc 3 424 34 view .LVU176
GAS LISTING /tmp/ccNgdVMZ.s 			page 11


 547              		.loc 3 430 3 view .LVU177
 548              		.loc 3 430 3 view .LVU178
 549              		.loc 3 430 3 view .LVU179
 550              		.loc 3 434 3 view .LVU180
 551              	.LBB248:
 552              		.loc 4 370 20 view .LVU181
 553              	.LBB246:
 554              		.loc 4 372 3 view .LVU182
 555              	.LBE246:
 556              	.LBE248:
 557              	.LBE250:
 558              	.LBE252:
 559              	.LBE255:
 560              		.loc 1 197 3 view .LVU183
 561              		.loc 1 198 1 is_stmt 0 view .LVU184
 562 007e 5B       		popl	%ebx
 563              		.cfi_restore 3
 564              		.cfi_def_cfa_offset 16
 565 007f 5E       		popl	%esi
 566              		.cfi_restore 6
 567              		.cfi_def_cfa_offset 12
 568 0080 5F       		popl	%edi
 569              		.cfi_restore 7
 570              		.cfi_def_cfa_offset 8
 571 0081 5D       		popl	%ebp
 572              		.cfi_restore 5
 573              		.cfi_def_cfa_offset 4
 574 0082 C3       		ret
 575              		.cfi_endproc
 576              	.LFE315:
 577              		.size	ibqGetFullBufferTimeout, .-ibqGetFullBufferTimeout
 578              		.section	.text.ibqGetFullBufferTimeoutS,"ax",@progbits
 579              		.p2align 4
 580              		.globl	ibqGetFullBufferTimeoutS
 581              		.type	ibqGetFullBufferTimeoutS, @function
 582              	ibqGetFullBufferTimeoutS:
 583              	.LVL22:
 584              	.LFB316:
 585              		.loc 1 221 57 is_stmt 1 view -0
 586              		.cfi_startproc
 587              		.loc 1 221 57 is_stmt 0 view .LVU186
 588 0000 57       		pushl	%edi
 589              		.cfi_def_cfa_offset 8
 590              		.cfi_offset 7, -8
 591 0001 56       		pushl	%esi
 592              		.cfi_def_cfa_offset 12
 593              		.cfi_offset 6, -12
 594 0002 53       		pushl	%ebx
 595              		.cfi_def_cfa_offset 16
 596              		.cfi_offset 3, -16
 597              		.loc 1 221 57 view .LVU187
 598 0003 8B7C2410 		movl	16(%esp), %edi
 599              		.loc 1 223 23 is_stmt 1 view .LVU188
 600              		.loc 1 225 3 view .LVU189
 601 0007 E8FCFFFF 		call	__x86.get_pc_thunk.bx
 601      FF
 602 000c 81C30200 		addl	$_GLOBAL_OFFSET_TABLE_, %ebx
GAS LISTING /tmp/ccNgdVMZ.s 			page 12


 602      0000
 603              		.loc 1 221 57 is_stmt 0 view .LVU190
 604 0012 8B742414 		movl	20(%esp), %esi
 605              		.loc 1 225 9 view .LVU191
 606 0016 EB1F     		jmp	.L23
 607 0018 8DB42600 		.p2align 4,,10
 607      00000090 
 608              		.p2align 3
 609              	.L25:
 610              	.LBB267:
 611              		.loc 1 226 5 is_stmt 1 view .LVU192
 612              		.loc 1 226 8 is_stmt 0 view .LVU193
 613 0020 807F0800 		cmpb	$0, 8(%edi)
 614 0024 7532     		jne	.L26
 615              		.loc 1 229 5 is_stmt 1 view .LVU194
 616              	.LVL23:
 617              	.LBB268:
 618              	.LBI268:
 619              		.loc 2 892 21 view .LVU195
 620              	.LBB269:
 621              		.loc 2 895 3 view .LVU196
 622              		.loc 2 895 10 is_stmt 0 view .LVU197
 623 0026 83EC08   		subl	$8, %esp
 624              		.cfi_def_cfa_offset 24
 625 0029 56       		pushl	%esi
 626              		.cfi_def_cfa_offset 28
 627 002a 57       		pushl	%edi
 628              		.cfi_def_cfa_offset 32
 629 002b E8FCFFFF 		call	chThdEnqueueTimeoutS@PLT
 629      FF
 630              	.LVL24:
 631              		.loc 2 895 10 view .LVU198
 632              	.LBE269:
 633              	.LBE268:
 634              		.loc 1 230 5 is_stmt 1 view .LVU199
 635              		.loc 1 230 8 is_stmt 0 view .LVU200
 636 0030 83C410   		addl	$16, %esp
 637              		.cfi_def_cfa_offset 16
 638 0033 85C0     		testl	%eax, %eax
 639 0035 7817     		js	.L22
 640              	.LVL25:
 641              	.L23:
 642              		.loc 1 230 8 view .LVU201
 643              	.LBE267:
 644              		.loc 1 225 10 is_stmt 1 view .LVU202
 645 0037 8B470C   		movl	12(%edi), %eax
 646 003a 85C0     		testl	%eax, %eax
 647 003c 74E2     		je	.L25
 648              	.LVL26:
 649              	.LBB270:
 650              	.LBI270:
 651              		.loc 1 220 9 view .LVU203
 652              	.LBB271:
 653              		.loc 1 235 3 view .LVU204
 654              		.loc 1 235 3 view .LVU205
 655              		.loc 1 235 3 view .LVU206
 656              		.loc 1 238 3 view .LVU207
GAS LISTING /tmp/ccNgdVMZ.s 			page 13


 657              		.loc 1 238 19 is_stmt 0 view .LVU208
 658 003e 8B5714   		movl	20(%edi), %edx
 659              		.loc 1 238 28 view .LVU209
 660 0041 8D4204   		leal	4(%edx), %eax
 661              		.loc 1 238 13 view .LVU210
 662 0044 894728   		movl	%eax, 40(%edi)
 663              		.loc 1 239 3 is_stmt 1 view .LVU211
 664              		.loc 1 239 25 is_stmt 0 view .LVU212
 665 0047 0302     		addl	(%edx), %eax
 666              		.loc 1 239 13 view .LVU213
 667 0049 89472C   		movl	%eax, 44(%edi)
 668              		.loc 1 241 3 is_stmt 1 view .LVU214
 669              	.LVL27:
 670              		.loc 1 239 13 is_stmt 0 view .LVU215
 671 004c 31C0     		xorl	%eax, %eax
 672              	.L22:
 673              	.LBE271:
 674              	.LBE270:
 675              		.loc 1 242 1 view .LVU216
 676 004e 5B       		popl	%ebx
 677              		.cfi_remember_state
 678              		.cfi_restore 3
 679              		.cfi_def_cfa_offset 12
 680 004f 5E       		popl	%esi
 681              		.cfi_restore 6
 682              		.cfi_def_cfa_offset 8
 683 0050 5F       		popl	%edi
 684              		.cfi_restore 7
 685              		.cfi_def_cfa_offset 4
 686 0051 C3       		ret
 687              		.p2align 4,,10
 688 0052 8DB60000 		.p2align 3
 688      0000
 689              	.L26:
 690              		.cfi_restore_state
 691 0058 5B       		popl	%ebx
 692              		.cfi_restore 3
 693              		.cfi_def_cfa_offset 12
 694              	.LBB272:
 695              		.loc 1 227 14 view .LVU217
 696 0059 B8FEFFFF 		movl	$-2, %eax
 696      FF
 697              	.LBE272:
 698              		.loc 1 242 1 view .LVU218
 699 005e 5E       		popl	%esi
 700              		.cfi_restore 6
 701              		.cfi_def_cfa_offset 8
 702 005f 5F       		popl	%edi
 703              		.cfi_restore 7
 704              		.cfi_def_cfa_offset 4
 705 0060 C3       		ret
 706              		.cfi_endproc
 707              	.LFE316:
 708              		.size	ibqGetFullBufferTimeoutS, .-ibqGetFullBufferTimeoutS
 709              		.section	.text.ibqReleaseEmptyBuffer,"ax",@progbits
 710              		.p2align 4
 711              		.globl	ibqReleaseEmptyBuffer
GAS LISTING /tmp/ccNgdVMZ.s 			page 14


 712              		.type	ibqReleaseEmptyBuffer, @function
 713              	ibqReleaseEmptyBuffer:
 714              	.LVL28:
 715              	.LFB317:
 716              		.loc 1 252 57 is_stmt 1 view -0
 717              		.cfi_startproc
 718              		.loc 1 254 3 view .LVU220
 719              	.LBB284:
 720              	.LBI284:
 721              		.loc 2 573 20 view .LVU221
 722              		.loc 2 575 3 view .LVU222
 723              	.LBB285:
 724              	.LBI285:
 725              		.loc 3 407 20 view .LVU223
 726              		.loc 3 409 3 view .LVU224
 727              	.LBB286:
 728              	.LBI286:
 729              		.loc 4 361 20 view .LVU225
 730              	.LBB287:
 731              		.loc 4 363 3 view .LVU226
 732 0000 E8FCFFFF 		call	__x86.get_pc_thunk.dx
 732      FF
 733 0005 81C20200 		addl	$_GLOBAL_OFFSET_TABLE_, %edx
 733      0000
 734              	.LBE287:
 735              	.LBE286:
 736              	.LBE285:
 737              	.LBE284:
 738              		.loc 1 252 57 is_stmt 0 view .LVU227
 739 000b 53       		pushl	%ebx
 740              		.cfi_def_cfa_offset 8
 741              		.cfi_offset 3, -8
 742 000c 83EC08   		subl	$8, %esp
 743              		.cfi_def_cfa_offset 16
 744              		.loc 1 252 57 view .LVU228
 745 000f 8B442410 		movl	16(%esp), %eax
 746              	.LBB294:
 747              	.LBB292:
 748              	.LBB290:
 749              	.LBB288:
 750              		.loc 4 363 16 view .LVU229
 751 0013 8B9A0000 		movl	port_irq_sts@GOT(%edx), %ebx
 751      0000
 752              	.LBE288:
 753              	.LBE290:
 754              	.LBE292:
 755              	.LBE294:
 756              	.LBB295:
 757              	.LBB296:
 758              		.loc 1 273 7 view .LVU230
 759 0019 8B500C   		movl	12(%eax), %edx
 760              		.loc 1 273 17 view .LVU231
 761 001c 83EA01   		subl	$1, %edx
 762              	.LBE296:
 763              	.LBE295:
 764              	.LBB298:
 765              	.LBB293:
GAS LISTING /tmp/ccNgdVMZ.s 			page 15


 766              	.LBB291:
 767              	.LBB289:
 768              		.loc 4 363 16 view .LVU232
 769 001f C7030100 		movl	$1, (%ebx)
 769      0000
 770              	.LBE289:
 771              	.LBE291:
 772              		.loc 3 410 35 is_stmt 1 view .LVU233
 773              		.loc 3 411 21 view .LVU234
 774              	.LBE293:
 775              	.LBE298:
 776              		.loc 1 255 3 view .LVU235
 777              	.LVL29:
 778              	.LBB299:
 779              	.LBI295:
 780              		.loc 1 267 8 view .LVU236
 781              	.LBB297:
 782              		.loc 1 269 23 view .LVU237
 783              		.loc 1 270 3 view .LVU238
 784              		.loc 1 270 3 view .LVU239
 785              		.loc 1 270 3 view .LVU240
 786              		.loc 1 273 3 view .LVU241
 787              		.loc 1 273 17 is_stmt 0 view .LVU242
 788 0025 89500C   		movl	%edx, 12(%eax)
 789              		.loc 1 274 3 is_stmt 1 view .LVU243
 790              		.loc 1 274 16 is_stmt 0 view .LVU244
 791 0028 8B501C   		movl	28(%eax), %edx
 792 002b 035014   		addl	20(%eax), %edx
 793 002e 895014   		movl	%edx, 20(%eax)
 794              		.loc 1 275 3 is_stmt 1 view .LVU245
 795              		.loc 1 275 6 is_stmt 0 view .LVU246
 796 0031 3B5018   		cmpl	24(%eax), %edx
 797 0034 7206     		jb	.L29
 798              		.loc 1 276 5 is_stmt 1 view .LVU247
 799              		.loc 1 276 18 is_stmt 0 view .LVU248
 800 0036 8B5024   		movl	36(%eax), %edx
 801 0039 895014   		movl	%edx, 20(%eax)
 802              	.L29:
 803              		.loc 1 280 3 is_stmt 1 view .LVU249
 804              		.loc 1 283 11 is_stmt 0 view .LVU250
 805 003c 8B5030   		movl	48(%eax), %edx
 806              		.loc 1 280 13 view .LVU251
 807 003f C7402800 		movl	$0, 40(%eax)
 807      000000
 808              		.loc 1 283 3 is_stmt 1 view .LVU252
 809              		.loc 1 283 6 is_stmt 0 view .LVU253
 810 0046 85D2     		testl	%edx, %edx
 811 0048 7409     		je	.L30
 812              		.loc 1 284 5 is_stmt 1 view .LVU254
 813 004a 83EC0C   		subl	$12, %esp
 814              		.cfi_def_cfa_offset 28
 815 004d 50       		pushl	%eax
 816              		.cfi_def_cfa_offset 32
 817 004e FFD2     		call	*%edx
 818              	.LVL30:
 819              		.loc 1 284 5 is_stmt 0 view .LVU255
 820 0050 83C410   		addl	$16, %esp
GAS LISTING /tmp/ccNgdVMZ.s 			page 16


 821              		.cfi_def_cfa_offset 16
 822              	.L30:
 823              	.LVL31:
 824              		.loc 1 284 5 view .LVU256
 825              	.LBE297:
 826              	.LBE299:
 827              		.loc 1 256 3 is_stmt 1 view .LVU257
 828              	.LBB300:
 829              	.LBI300:
 830              		.loc 2 584 20 view .LVU258
 831              		.loc 2 586 3 view .LVU259
 832              	.LBB301:
 833              	.LBI301:
 834              		.loc 3 421 20 view .LVU260
 835              	.LBB302:
 836              		.loc 3 423 23 view .LVU261
 837              		.loc 3 424 34 view .LVU262
 838              		.loc 3 430 3 view .LVU263
 839              		.loc 3 430 3 view .LVU264
 840              		.loc 3 430 3 view .LVU265
 841              		.loc 3 434 3 view .LVU266
 842              	.LBB303:
 843              	.LBI303:
 844              		.loc 4 370 20 view .LVU267
 845              	.LBB304:
 846              		.loc 4 372 3 view .LVU268
 847              		.loc 4 372 16 is_stmt 0 view .LVU269
 848 0053 C7030000 		movl	$0, (%ebx)
 848      0000
 849              	.LBE304:
 850              	.LBE303:
 851              	.LBE302:
 852              	.LBE301:
 853              	.LBE300:
 854              		.loc 1 257 1 view .LVU270
 855 0059 83C408   		addl	$8, %esp
 856              		.cfi_def_cfa_offset 8
 857 005c 5B       		popl	%ebx
 858              		.cfi_restore 3
 859              		.cfi_def_cfa_offset 4
 860 005d C3       		ret
 861              		.cfi_endproc
 862              	.LFE317:
 863              		.size	ibqReleaseEmptyBuffer, .-ibqReleaseEmptyBuffer
 864              		.section	.text.ibqReleaseEmptyBufferS,"ax",@progbits
 865              		.p2align 4
 866              		.globl	ibqReleaseEmptyBufferS
 867              		.type	ibqReleaseEmptyBufferS, @function
 868              	ibqReleaseEmptyBufferS:
 869              	.LVL32:
 870              	.LFB318:
 871              		.loc 1 267 60 is_stmt 1 view -0
 872              		.cfi_startproc
 873              		.loc 1 269 23 view .LVU272
 874              		.loc 1 270 3 view .LVU273
 875              		.loc 1 270 3 view .LVU274
 876              		.loc 1 270 3 view .LVU275
GAS LISTING /tmp/ccNgdVMZ.s 			page 17


 877              		.loc 1 273 3 view .LVU276
 878              		.loc 1 267 60 is_stmt 0 view .LVU277
 879 0000 8B442404 		movl	4(%esp), %eax
 880              		.loc 1 273 7 view .LVU278
 881 0004 8B500C   		movl	12(%eax), %edx
 882              		.loc 1 273 17 view .LVU279
 883 0007 83EA01   		subl	$1, %edx
 884 000a 89500C   		movl	%edx, 12(%eax)
 885              		.loc 1 274 3 is_stmt 1 view .LVU280
 886              		.loc 1 274 16 is_stmt 0 view .LVU281
 887 000d 8B501C   		movl	28(%eax), %edx
 888 0010 035014   		addl	20(%eax), %edx
 889 0013 895014   		movl	%edx, 20(%eax)
 890              		.loc 1 275 3 is_stmt 1 view .LVU282
 891              		.loc 1 275 6 is_stmt 0 view .LVU283
 892 0016 3B5018   		cmpl	24(%eax), %edx
 893 0019 7206     		jb	.L36
 894              		.loc 1 276 5 is_stmt 1 view .LVU284
 895              		.loc 1 276 18 is_stmt 0 view .LVU285
 896 001b 8B5024   		movl	36(%eax), %edx
 897 001e 895014   		movl	%edx, 20(%eax)
 898              	.L36:
 899              		.loc 1 280 3 is_stmt 1 view .LVU286
 900              		.loc 1 283 11 is_stmt 0 view .LVU287
 901 0021 8B5030   		movl	48(%eax), %edx
 902              		.loc 1 280 13 view .LVU288
 903 0024 C7402800 		movl	$0, 40(%eax)
 903      000000
 904              		.loc 1 283 3 is_stmt 1 view .LVU289
 905              		.loc 1 283 6 is_stmt 0 view .LVU290
 906 002b 85D2     		testl	%edx, %edx
 907 002d 7409     		je	.L35
 908              		.loc 1 284 5 is_stmt 1 view .LVU291
 909 002f 89442404 		movl	%eax, 4(%esp)
 910              	.LVL33:
 911              		.loc 1 284 5 is_stmt 0 view .LVU292
 912 0033 FFE2     		jmp	*%edx
 913              	.LVL34:
 914              		.p2align 4,,10
 915 0035 8D7600   		.p2align 3
 916              	.L35:
 917              		.loc 1 286 1 view .LVU293
 918 0038 C3       		ret
 919              		.cfi_endproc
 920              	.LFE318:
 921              		.size	ibqReleaseEmptyBufferS, .-ibqReleaseEmptyBufferS
 922              		.section	.text.ibqGetTimeout,"ax",@progbits
 923              		.p2align 4
 924              		.globl	ibqGetTimeout
 925              		.type	ibqGetTimeout, @function
 926              	ibqGetTimeout:
 927              	.LVL35:
 928              	.LFB319:
 929              		.loc 1 306 73 is_stmt 1 view -0
 930              		.cfi_startproc
 931              		.loc 1 306 73 is_stmt 0 view .LVU295
 932 0000 55       		pushl	%ebp
GAS LISTING /tmp/ccNgdVMZ.s 			page 18


 933              		.cfi_def_cfa_offset 8
 934              		.cfi_offset 5, -8
 935 0001 57       		pushl	%edi
 936              		.cfi_def_cfa_offset 12
 937              		.cfi_offset 7, -12
 938 0002 56       		pushl	%esi
 939              		.cfi_def_cfa_offset 16
 940              		.cfi_offset 6, -16
 941 0003 53       		pushl	%ebx
 942              		.cfi_def_cfa_offset 20
 943              		.cfi_offset 3, -20
 944 0004 E8FCFFFF 		call	__x86.get_pc_thunk.bx
 944      FF
 945 0009 81C30200 		addl	$_GLOBAL_OFFSET_TABLE_, %ebx
 945      0000
 946 000f 83EC1C   		subl	$28, %esp
 947              		.cfi_def_cfa_offset 48
 948              		.loc 1 306 73 view .LVU296
 949 0012 8B742430 		movl	48(%esp), %esi
 950              		.loc 1 307 3 is_stmt 1 view .LVU297
 951              		.loc 1 309 3 view .LVU298
 952              	.LBB331:
 953              	.LBI331:
 954              		.loc 2 573 20 view .LVU299
 955              		.loc 2 575 3 view .LVU300
 956              	.LBB332:
 957              	.LBI332:
 958              		.loc 3 407 20 view .LVU301
 959              		.loc 3 409 3 view .LVU302
 960              	.LBB333:
 961              	.LBI333:
 962              		.loc 4 361 20 view .LVU303
 963              	.LBB334:
 964              		.loc 4 363 3 view .LVU304
 965              	.LBE334:
 966              	.LBE333:
 967              	.LBE332:
 968              	.LBE331:
 969              		.loc 1 306 73 is_stmt 0 view .LVU305
 970 0016 8B6C2434 		movl	52(%esp), %ebp
 971              		.loc 1 312 11 view .LVU306
 972 001a 8B5628   		movl	40(%esi), %edx
 973              	.LBB338:
 974              	.LBB337:
 975              	.LBB336:
 976              	.LBB335:
 977              		.loc 4 363 16 view .LVU307
 978 001d 8BBB0000 		movl	port_irq_sts@GOT(%ebx), %edi
 978      0000
 979 0023 C7070100 		movl	$1, (%edi)
 979      0000
 980              	.LBE335:
 981              	.LBE336:
 982              		.loc 3 410 35 is_stmt 1 view .LVU308
 983              		.loc 3 411 21 view .LVU309
 984              	.LBE337:
 985              	.LBE338:
GAS LISTING /tmp/ccNgdVMZ.s 			page 19


 986              		.loc 1 312 3 view .LVU310
 987              		.loc 1 312 6 is_stmt 0 view .LVU311
 988 0029 85D2     		testl	%edx, %edx
 989 002b 743A     		je	.L39
 990              		.loc 1 326 24 view .LVU312
 991 002d 8B4E2C   		movl	44(%esi), %ecx
 992              	.L40:
 993              		.loc 1 321 3 is_stmt 1 view .LVU313
 994              		.loc 1 321 7 is_stmt 0 view .LVU314
 995 0030 0FB602   		movzbl	(%edx), %eax
 996              	.LVL36:
 997              		.loc 1 322 3 is_stmt 1 view .LVU315
 998              		.loc 1 322 12 is_stmt 0 view .LVU316
 999 0033 83C201   		addl	$1, %edx
 1000 0036 895628   		movl	%edx, 40(%esi)
 1001              		.loc 1 326 3 is_stmt 1 view .LVU317
 1002              		.loc 1 326 6 is_stmt 0 view .LVU318
 1003 0039 39CA     		cmpl	%ecx, %edx
 1004 003b 7343     		jnb	.L56
 1005              	.LVL37:
 1006              	.L47:
 1007              	.LBB339:
 1008              	.LBB340:
 1009              	.LBB341:
 1010              	.LBB342:
 1011              	.LBB343:
 1012              		.loc 4 372 16 view .LVU319
 1013 003d C7070000 		movl	$0, (%edi)
 1013      0000
 1014              	.LBE343:
 1015              	.LBE342:
 1016              	.LBE341:
 1017              	.LBE340:
 1018              	.LBE339:
 1019              		.loc 1 332 1 view .LVU320
 1020 0043 83C41C   		addl	$28, %esp
 1021              		.cfi_remember_state
 1022              		.cfi_def_cfa_offset 20
 1023 0046 5B       		popl	%ebx
 1024              		.cfi_restore 3
 1025              		.cfi_def_cfa_offset 16
 1026 0047 5E       		popl	%esi
 1027              		.cfi_restore 6
 1028              		.cfi_def_cfa_offset 12
 1029 0048 5F       		popl	%edi
 1030              		.cfi_restore 7
 1031              		.cfi_def_cfa_offset 8
 1032 0049 5D       		popl	%ebp
 1033              		.cfi_restore 5
 1034              		.cfi_def_cfa_offset 4
 1035 004a C3       		ret
 1036 004b 8D742600 		.p2align 4,,10
 1036      90
 1037              		.p2align 3
 1038              	.L42:
 1039              		.cfi_restore_state
 1040              	.LBB352:
GAS LISTING /tmp/ccNgdVMZ.s 			page 20


 1041              	.LBB353:
 1042              	.LBB354:
 1043              		.loc 1 226 5 is_stmt 1 view .LVU321
 1044              		.loc 1 226 8 is_stmt 0 view .LVU322
 1045 0050 807E0800 		cmpb	$0, 8(%esi)
 1046 0054 757A     		jne	.L48
 1047              		.loc 1 229 5 is_stmt 1 view .LVU323
 1048              	.LVL38:
 1049              	.LBB355:
 1050              	.LBI355:
 1051              		.loc 2 892 21 view .LVU324
 1052              	.LBB356:
 1053              		.loc 2 895 3 view .LVU325
 1054              		.loc 2 895 10 is_stmt 0 view .LVU326
 1055 0056 83EC08   		subl	$8, %esp
 1056              		.cfi_def_cfa_offset 56
 1057 0059 55       		pushl	%ebp
 1058              		.cfi_def_cfa_offset 60
 1059 005a 56       		pushl	%esi
 1060              		.cfi_def_cfa_offset 64
 1061 005b E8FCFFFF 		call	chThdEnqueueTimeoutS@PLT
 1061      FF
 1062              	.LVL39:
 1063              		.loc 2 895 10 view .LVU327
 1064              	.LBE356:
 1065              	.LBE355:
 1066              		.loc 1 230 5 is_stmt 1 view .LVU328
 1067              		.loc 1 230 8 is_stmt 0 view .LVU329
 1068 0060 83C410   		addl	$16, %esp
 1069              		.cfi_def_cfa_offset 48
 1070 0063 85C0     		testl	%eax, %eax
 1071 0065 78D6     		js	.L47
 1072              	.LVL40:
 1073              	.L39:
 1074              		.loc 1 230 8 view .LVU330
 1075              	.LBE354:
 1076              		.loc 1 225 10 is_stmt 1 view .LVU331
 1077 0067 8B460C   		movl	12(%esi), %eax
 1078 006a 85C0     		testl	%eax, %eax
 1079 006c 74E2     		je	.L42
 1080              	.LVL41:
 1081              	.LBB357:
 1082              	.LBI357:
 1083              		.loc 1 220 9 view .LVU332
 1084              	.LBB358:
 1085              		.loc 1 235 3 view .LVU333
 1086              		.loc 1 235 3 view .LVU334
 1087              		.loc 1 235 3 view .LVU335
 1088              		.loc 1 238 3 view .LVU336
 1089              		.loc 1 238 19 is_stmt 0 view .LVU337
 1090 006e 8B4614   		movl	20(%esi), %eax
 1091              		.loc 1 239 25 view .LVU338
 1092 0071 8B08     		movl	(%eax), %ecx
 1093              		.loc 1 238 28 view .LVU339
 1094 0073 8D5004   		leal	4(%eax), %edx
 1095              		.loc 1 238 13 view .LVU340
 1096 0076 895628   		movl	%edx, 40(%esi)
GAS LISTING /tmp/ccNgdVMZ.s 			page 21


 1097              		.loc 1 239 3 is_stmt 1 view .LVU341
 1098              		.loc 1 239 25 is_stmt 0 view .LVU342
 1099 0079 01D1     		addl	%edx, %ecx
 1100              		.loc 1 239 13 view .LVU343
 1101 007b 894E2C   		movl	%ecx, 44(%esi)
 1102              		.loc 1 241 3 is_stmt 1 view .LVU344
 1103              	.LVL42:
 1104              		.loc 1 241 3 is_stmt 0 view .LVU345
 1105              	.LBE358:
 1106              	.LBE357:
 1107              	.LBE353:
 1108              	.LBE352:
 1109              		.loc 1 314 5 is_stmt 1 view .LVU346
 1110 007e EBB0     		jmp	.L40
 1111              	.LVL43:
 1112              		.p2align 4,,10
 1113              		.p2align 3
 1114              	.L56:
 1115              		.loc 1 327 5 view .LVU347
 1116              	.LBB361:
 1117              	.LBI361:
 1118              		.loc 1 267 8 view .LVU348
 1119              	.LBB362:
 1120              		.loc 1 269 23 view .LVU349
 1121              		.loc 1 270 3 view .LVU350
 1122              		.loc 1 270 3 view .LVU351
 1123              		.loc 1 270 3 view .LVU352
 1124              		.loc 1 273 3 view .LVU353
 1125              		.loc 1 273 7 is_stmt 0 view .LVU354
 1126 0080 8B560C   		movl	12(%esi), %edx
 1127              		.loc 1 273 17 view .LVU355
 1128 0083 83EA01   		subl	$1, %edx
 1129 0086 89560C   		movl	%edx, 12(%esi)
 1130              		.loc 1 274 3 is_stmt 1 view .LVU356
 1131              		.loc 1 274 16 is_stmt 0 view .LVU357
 1132 0089 8B561C   		movl	28(%esi), %edx
 1133 008c 035614   		addl	20(%esi), %edx
 1134 008f 895614   		movl	%edx, 20(%esi)
 1135              		.loc 1 275 3 is_stmt 1 view .LVU358
 1136              		.loc 1 275 6 is_stmt 0 view .LVU359
 1137 0092 3B5618   		cmpl	24(%esi), %edx
 1138 0095 7331     		jnb	.L57
 1139              	.L45:
 1140              		.loc 1 280 3 is_stmt 1 view .LVU360
 1141              		.loc 1 283 11 is_stmt 0 view .LVU361
 1142 0097 8B5630   		movl	48(%esi), %edx
 1143              		.loc 1 280 13 view .LVU362
 1144 009a C7462800 		movl	$0, 40(%esi)
 1144      000000
 1145              		.loc 1 283 3 is_stmt 1 view .LVU363
 1146              		.loc 1 283 6 is_stmt 0 view .LVU364
 1147 00a1 85D2     		testl	%edx, %edx
 1148 00a3 7498     		je	.L47
 1149 00a5 8944240C 		movl	%eax, 12(%esp)
 1150              		.loc 1 284 5 is_stmt 1 view .LVU365
 1151 00a9 83EC0C   		subl	$12, %esp
 1152              		.cfi_def_cfa_offset 60
GAS LISTING /tmp/ccNgdVMZ.s 			page 22


 1153 00ac 56       		pushl	%esi
 1154              		.cfi_def_cfa_offset 64
 1155 00ad FFD2     		call	*%edx
 1156              	.LVL44:
 1157              		.loc 1 284 5 is_stmt 0 view .LVU366
 1158              	.LBE362:
 1159              	.LBE361:
 1160              	.LBB366:
 1161              	.LBB350:
 1162              	.LBB348:
 1163              	.LBB346:
 1164              	.LBB344:
 1165              		.loc 4 372 16 view .LVU367
 1166 00af C7070000 		movl	$0, (%edi)
 1166      0000
 1167              	.LBE344:
 1168              	.LBE346:
 1169              	.LBE348:
 1170              	.LBE350:
 1171              	.LBE366:
 1172              	.LBB367:
 1173              	.LBB363:
 1174              		.loc 1 284 5 view .LVU368
 1175 00b5 8B44241C 		movl	28(%esp), %eax
 1176              	.LVL45:
 1177              		.loc 1 284 5 view .LVU369
 1178              	.LBE363:
 1179              	.LBE367:
 1180              		.loc 1 330 3 is_stmt 1 view .LVU370
 1181              		.loc 1 331 3 view .LVU371
 1182              	.LBB368:
 1183              	.LBB364:
 1184              		.loc 1 284 5 is_stmt 0 view .LVU372
 1185 00b9 83C410   		addl	$16, %esp
 1186              		.cfi_def_cfa_offset 48
 1187              	.LBE364:
 1188              	.LBE368:
 1189              		.loc 1 332 1 view .LVU373
 1190 00bc 83C41C   		addl	$28, %esp
 1191              		.cfi_remember_state
 1192              		.cfi_def_cfa_offset 20
 1193 00bf 5B       		popl	%ebx
 1194              		.cfi_restore 3
 1195              		.cfi_def_cfa_offset 16
 1196 00c0 5E       		popl	%esi
 1197              		.cfi_restore 6
 1198              		.cfi_def_cfa_offset 12
 1199 00c1 5F       		popl	%edi
 1200              		.cfi_restore 7
 1201              		.cfi_def_cfa_offset 8
 1202 00c2 5D       		popl	%ebp
 1203              		.cfi_restore 5
 1204              		.cfi_def_cfa_offset 4
 1205 00c3 C3       		ret
 1206              	.LVL46:
 1207              		.p2align 4,,10
 1208 00c4 8D742600 		.p2align 3
GAS LISTING /tmp/ccNgdVMZ.s 			page 23


 1209              	.L57:
 1210              		.cfi_restore_state
 1211              	.LBB369:
 1212              	.LBB365:
 1213              		.loc 1 276 5 is_stmt 1 view .LVU374
 1214              		.loc 1 276 18 is_stmt 0 view .LVU375
 1215 00c8 8B5624   		movl	36(%esi), %edx
 1216 00cb 895614   		movl	%edx, 20(%esi)
 1217 00ce EBC7     		jmp	.L45
 1218              	.LVL47:
 1219              		.p2align 4,,10
 1220              		.p2align 3
 1221              	.L48:
 1222              		.loc 1 276 18 view .LVU376
 1223              	.LBE365:
 1224              	.LBE369:
 1225              	.LBB370:
 1226              	.LBB360:
 1227              	.LBB359:
 1228              		.loc 1 227 14 view .LVU377
 1229 00d0 B8FEFFFF 		movl	$-2, %eax
 1229      FF
 1230              	.LVL48:
 1231              		.loc 1 227 14 view .LVU378
 1232              	.LBE359:
 1233              	.LBE360:
 1234              	.LBE370:
 1235              		.loc 1 314 5 is_stmt 1 view .LVU379
 1236              		.loc 1 315 7 view .LVU380
 1237              	.LBB371:
 1238              	.LBI339:
 1239              		.loc 2 584 20 view .LVU381
 1240              		.loc 2 586 3 view .LVU382
 1241              	.LBB351:
 1242              	.LBI340:
 1243              		.loc 3 421 20 view .LVU383
 1244              	.LBB349:
 1245              		.loc 3 423 23 view .LVU384
 1246              		.loc 3 424 34 view .LVU385
 1247              		.loc 3 430 3 view .LVU386
 1248              		.loc 3 430 3 view .LVU387
 1249              		.loc 3 430 3 view .LVU388
 1250              		.loc 3 434 3 view .LVU389
 1251              	.LBB347:
 1252              	.LBI342:
 1253              		.loc 4 370 20 view .LVU390
 1254              	.LBB345:
 1255              		.loc 4 372 3 view .LVU391
 1256              	.LBE345:
 1257              	.LBE347:
 1258              	.LBE349:
 1259              	.LBE351:
 1260              	.LBE371:
 1261              		.loc 1 316 7 view .LVU392
 1262              		.loc 1 316 14 is_stmt 0 view .LVU393
 1263 00d5 E963FFFF 		jmp	.L47
 1263      FF
GAS LISTING /tmp/ccNgdVMZ.s 			page 24


 1264              		.cfi_endproc
 1265              	.LFE319:
 1266              		.size	ibqGetTimeout, .-ibqGetTimeout
 1267              		.section	.text.ibqReadTimeout,"ax",@progbits
 1268              		.p2align 4
 1269              		.globl	ibqReadTimeout
 1270              		.type	ibqReadTimeout, @function
 1271              	ibqReadTimeout:
 1272              	.LVL49:
 1273              	.LFB320:
 1274              		.loc 1 355 56 is_stmt 1 view -0
 1275              		.cfi_startproc
 1276              		.loc 1 356 3 view .LVU395
 1277              		.loc 1 358 3 view .LVU396
 1278              		.loc 1 358 3 view .LVU397
 1279              		.loc 1 358 3 view .LVU398
 1280              		.loc 1 360 3 view .LVU399
 1281              	.LBB410:
 1282              	.LBI410:
 1283              		.loc 2 573 20 view .LVU400
 1284              	.LBB411:
 1285              		.loc 2 575 3 view .LVU401
 1286              	.LBB412:
 1287              	.LBI412:
 1288              		.loc 3 407 20 view .LVU402
 1289              		.loc 3 409 3 view .LVU403
 1290              	.LBB413:
 1291              	.LBI413:
 1292              		.loc 4 361 20 view .LVU404
 1293              	.LBB414:
 1294              		.loc 4 363 3 view .LVU405
 1295              	.LBE414:
 1296              	.LBE413:
 1297              		.loc 3 410 35 view .LVU406
 1298              		.loc 3 411 21 view .LVU407
 1299              	.LBE412:
 1300              	.LBE411:
 1301              	.LBE410:
 1302              		.loc 1 355 56 is_stmt 0 view .LVU408
 1303 0000 55       		pushl	%ebp
 1304              		.cfi_def_cfa_offset 8
 1305              		.cfi_offset 5, -8
 1306              		.loc 1 356 10 view .LVU409
 1307 0001 31ED     		xorl	%ebp, %ebp
 1308              		.loc 1 355 56 view .LVU410
 1309 0003 57       		pushl	%edi
 1310              		.cfi_def_cfa_offset 12
 1311              		.cfi_offset 7, -12
 1312 0004 56       		pushl	%esi
 1313              		.cfi_def_cfa_offset 16
 1314              		.cfi_offset 6, -16
 1315 0005 53       		pushl	%ebx
 1316              		.cfi_def_cfa_offset 20
 1317              		.cfi_offset 3, -20
 1318 0006 E8FCFFFF 		call	__x86.get_pc_thunk.bx
 1318      FF
 1319 000b 81C30200 		addl	$_GLOBAL_OFFSET_TABLE_, %ebx
GAS LISTING /tmp/ccNgdVMZ.s 			page 25


 1319      0000
 1320 0011 83EC1C   		subl	$28, %esp
 1321              		.cfi_def_cfa_offset 48
 1322              		.loc 1 355 56 view .LVU411
 1323 0014 8B742430 		movl	48(%esp), %esi
 1324 0018 8B7C2434 		movl	52(%esp), %edi
 1325 001c 8B830000 		movl	port_irq_sts@GOT(%ebx), %eax
 1325      0000
 1326 0022 89442408 		movl	%eax, 8(%esp)
 1327              	.LBB420:
 1328              	.LBB418:
 1329              		.loc 2 576 1 view .LVU412
 1330 0026 E9820000 		jmp	.L69
 1330      00
 1331              	.LVL50:
 1332 002b 8D742600 		.p2align 4,,10
 1332      90
 1333              		.p2align 3
 1334              	.L80:
 1335              		.loc 2 576 1 view .LVU413
 1336              	.LBE418:
 1337              	.LBE420:
 1338              	.LBB421:
 1339              		.loc 1 389 7 is_stmt 1 view .LVU414
 1340              	.LBB422:
 1341              	.LBI422:
 1342              		.file 5 "/usr/include/bits/string_fortified.h"
 1343              		.loc 5 26 1 view .LVU415
 1344              	.LBB423:
 1345              		.loc 5 29 3 view .LVU416
 1346              		.loc 5 29 10 is_stmt 0 view .LVU417
 1347 0030 8B10     		movl	(%eax), %edx
 1348              	.LVL51:
 1349              		.loc 5 29 10 view .LVU418
 1350              	.LBE423:
 1351              	.LBE422:
 1352              		.loc 1 390 17 view .LVU419
 1353 0032 83C740   		addl	$64, %edi
 1354              	.LVL52:
 1355              		.loc 1 392 17 view .LVU420
 1356 0035 83C540   		addl	$64, %ebp
 1357              	.LVL53:
 1358              	.LBB425:
 1359              	.LBB424:
 1360              		.loc 5 29 10 view .LVU421
 1361 0038 8957C0   		movl	%edx, -64(%edi)
 1362              	.LVL54:
 1363              		.loc 5 29 10 view .LVU422
 1364 003b 8B5004   		movl	4(%eax), %edx
 1365 003e 8957C4   		movl	%edx, -60(%edi)
 1366 0041 8B5008   		movl	8(%eax), %edx
 1367 0044 8957C8   		movl	%edx, -56(%edi)
 1368 0047 8B500C   		movl	12(%eax), %edx
 1369 004a 8957CC   		movl	%edx, -52(%edi)
 1370 004d 8B5010   		movl	16(%eax), %edx
 1371 0050 8957D0   		movl	%edx, -48(%edi)
 1372 0053 8B5014   		movl	20(%eax), %edx
GAS LISTING /tmp/ccNgdVMZ.s 			page 26


 1373 0056 8957D4   		movl	%edx, -44(%edi)
 1374 0059 8B5018   		movl	24(%eax), %edx
 1375 005c 8957D8   		movl	%edx, -40(%edi)
 1376 005f 8B501C   		movl	28(%eax), %edx
 1377 0062 8957DC   		movl	%edx, -36(%edi)
 1378 0065 8B5020   		movl	32(%eax), %edx
 1379 0068 8957E0   		movl	%edx, -32(%edi)
 1380 006b 8B5024   		movl	36(%eax), %edx
 1381 006e 8957E4   		movl	%edx, -28(%edi)
 1382 0071 8B5028   		movl	40(%eax), %edx
 1383 0074 8957E8   		movl	%edx, -24(%edi)
 1384 0077 8B502C   		movl	44(%eax), %edx
 1385 007a 8957EC   		movl	%edx, -20(%edi)
 1386 007d 8B5030   		movl	48(%eax), %edx
 1387 0080 8957F0   		movl	%edx, -16(%edi)
 1388 0083 8B5034   		movl	52(%eax), %edx
 1389 0086 8957F4   		movl	%edx, -12(%edi)
 1390 0089 8B5038   		movl	56(%eax), %edx
 1391 008c 8957F8   		movl	%edx, -8(%edi)
 1392 008f 8B403C   		movl	60(%eax), %eax
 1393 0092 8947FC   		movl	%eax, -4(%edi)
 1394              	.LVL55:
 1395              		.loc 5 29 10 view .LVU423
 1396              	.LBE424:
 1397              	.LBE425:
 1398              		.loc 1 390 7 is_stmt 1 view .LVU424
 1399              		.loc 1 391 7 view .LVU425
 1400              		.loc 1 391 17 is_stmt 0 view .LVU426
 1401 0095 8B4628   		movl	40(%esi), %eax
 1402 0098 83C040   		addl	$64, %eax
 1403              		.loc 1 392 7 is_stmt 1 view .LVU427
 1404              	.LVL56:
 1405              		.loc 1 391 17 is_stmt 0 view .LVU428
 1406 009b 894628   		movl	%eax, 40(%esi)
 1407              		.loc 1 402 5 is_stmt 1 view .LVU429
 1408              		.loc 1 402 8 is_stmt 0 view .LVU430
 1409 009e 39462C   		cmpl	%eax, 44(%esi)
 1410 00a1 765F     		jbe	.L79
 1411              	.L66:
 1412              		.loc 1 407 5 is_stmt 1 view .LVU431
 1413              	.LBB426:
 1414              	.LBI426:
 1415              		.loc 2 584 20 view .LVU432
 1416              		.loc 2 586 3 view .LVU433
 1417              	.LBB427:
 1418              	.LBI427:
 1419              		.loc 3 421 20 view .LVU434
 1420              	.LBB428:
 1421              		.loc 3 423 23 view .LVU435
 1422              		.loc 3 424 34 view .LVU436
 1423              		.loc 3 430 3 view .LVU437
 1424              		.loc 3 430 3 view .LVU438
 1425              		.loc 3 430 3 view .LVU439
 1426              		.loc 3 434 3 view .LVU440
 1427              	.LBB429:
 1428              	.LBI429:
 1429              		.loc 4 370 20 view .LVU441
GAS LISTING /tmp/ccNgdVMZ.s 			page 27


 1430              	.LBB430:
 1431              		.loc 4 372 3 view .LVU442
 1432              	.LBE430:
 1433              	.LBE429:
 1434              	.LBE428:
 1435              	.LBE427:
 1436              	.LBE426:
 1437              		.loc 1 408 5 view .LVU443
 1438              		.loc 1 408 8 is_stmt 0 view .LVU444
 1439 00a3 3B6C2438 		cmpl	56(%esp), %ebp
 1440 00a7 0F839700 		jnb	.L61
 1440      0000
 1441              	.LVL57:
 1442              	.L69:
 1443              		.loc 1 408 8 view .LVU445
 1444              	.LBE421:
 1445              	.LBB459:
 1446              	.LBB419:
 1447              	.LBB417:
 1448              	.LBB416:
 1449              	.LBB415:
 1450              		.loc 4 363 16 view .LVU446
 1451 00ad 8B442408 		movl	8(%esp), %eax
 1452 00b1 C7000100 		movl	$1, (%eax)
 1452      0000
 1453              	.LVL58:
 1454              		.loc 4 363 16 view .LVU447
 1455              	.LBE415:
 1456              	.LBE416:
 1457              	.LBE417:
 1458              	.LBE419:
 1459              	.LBE459:
 1460              		.loc 1 362 3 is_stmt 1 view .LVU448
 1461              	.LBB460:
 1462              		.loc 1 363 5 view .LVU449
 1463              		.loc 1 366 5 view .LVU450
 1464              		.loc 1 366 13 is_stmt 0 view .LVU451
 1465 00b7 8B4628   		movl	40(%esi), %eax
 1466              		.loc 1 366 8 view .LVU452
 1467 00ba 85C0     		testl	%eax, %eax
 1468 00bc 0F849E00 		je	.L77
 1468      0000
 1469              		.loc 1 380 24 view .LVU453
 1470 00c2 8B562C   		movl	44(%esi), %edx
 1471              	.LVL59:
 1472              	.L60:
 1473              		.loc 1 380 5 is_stmt 1 view .LVU454
 1474              		.loc 1 381 5 view .LVU455
 1475              		.loc 1 381 19 is_stmt 0 view .LVU456
 1476 00c5 8B4C2438 		movl	56(%esp), %ecx
 1477              		.loc 1 380 10 view .LVU457
 1478 00c9 29C2     		subl	%eax, %edx
 1479              	.LVL60:
 1480              		.loc 1 381 19 view .LVU458
 1481 00cb 29E9     		subl	%ebp, %ecx
 1482 00cd 39D1     		cmpl	%edx, %ecx
 1483 00cf 0F46D1   		cmovbe	%ecx, %edx
GAS LISTING /tmp/ccNgdVMZ.s 			page 28


 1484              	.LVL61:
 1485              		.loc 1 387 5 is_stmt 1 view .LVU459
 1486              		.loc 1 387 8 is_stmt 0 view .LVU460
 1487 00d2 83FA40   		cmpl	$64, %edx
 1488 00d5 0F8755FF 		ja	.L80
 1488      FFFF
 1489              		.loc 1 395 7 is_stmt 1 view .LVU461
 1490              	.LVL62:
 1491              	.LBB435:
 1492              	.LBI435:
 1493              		.loc 5 26 1 view .LVU462
 1494              	.LBB436:
 1495              		.loc 5 29 3 view .LVU463
 1496              		.loc 5 29 10 is_stmt 0 view .LVU464
 1497 00db 83EC04   		subl	$4, %esp
 1498              		.cfi_def_cfa_offset 52
 1499 00de 52       		pushl	%edx
 1500              		.cfi_def_cfa_offset 56
 1501 00df 89542414 		movl	%edx, 20(%esp)
 1502 00e3 50       		pushl	%eax
 1503              		.cfi_def_cfa_offset 60
 1504              	.LVL63:
 1505              		.loc 5 29 10 view .LVU465
 1506 00e4 57       		pushl	%edi
 1507              		.cfi_def_cfa_offset 64
 1508 00e5 E8FCFFFF 		call	memcpy@PLT
 1508      FF
 1509              	.LVL64:
 1510              		.loc 5 29 10 view .LVU466
 1511              	.LBE436:
 1512              	.LBE435:
 1513              		.loc 1 396 7 is_stmt 1 view .LVU467
 1514              		.loc 1 396 17 is_stmt 0 view .LVU468
 1515 00ea 8B54241C 		movl	28(%esp), %edx
 1516              		.loc 1 397 17 view .LVU469
 1517 00ee 8B4628   		movl	40(%esi), %eax
 1518              		.loc 1 398 17 view .LVU470
 1519 00f1 83C410   		addl	$16, %esp
 1520              		.cfi_def_cfa_offset 48
 1521              		.loc 1 397 17 view .LVU471
 1522 00f4 01D0     		addl	%edx, %eax
 1523              		.loc 1 396 17 view .LVU472
 1524 00f6 01D7     		addl	%edx, %edi
 1525              	.LVL65:
 1526              		.loc 1 397 7 is_stmt 1 view .LVU473
 1527              		.loc 1 398 7 view .LVU474
 1528              		.loc 1 398 17 is_stmt 0 view .LVU475
 1529 00f8 01D5     		addl	%edx, %ebp
 1530              	.LVL66:
 1531              		.loc 1 391 17 view .LVU476
 1532 00fa 894628   		movl	%eax, 40(%esi)
 1533              		.loc 1 402 5 is_stmt 1 view .LVU477
 1534              		.loc 1 402 8 is_stmt 0 view .LVU478
 1535 00fd 39462C   		cmpl	%eax, 44(%esi)
 1536 0100 77A1     		ja	.L66
 1537              	.LVL67:
 1538              	.L79:
GAS LISTING /tmp/ccNgdVMZ.s 			page 29


 1539              		.loc 1 403 7 is_stmt 1 view .LVU479
 1540              	.LBB437:
 1541              	.LBI437:
 1542              		.loc 1 267 8 view .LVU480
 1543              	.LBB438:
 1544              		.loc 1 269 23 view .LVU481
 1545              		.loc 1 270 3 view .LVU482
 1546              		.loc 1 270 3 view .LVU483
 1547              		.loc 1 270 3 view .LVU484
 1548              		.loc 1 273 3 view .LVU485
 1549              		.loc 1 273 7 is_stmt 0 view .LVU486
 1550 0102 8B460C   		movl	12(%esi), %eax
 1551              		.loc 1 273 17 view .LVU487
 1552 0105 83E801   		subl	$1, %eax
 1553 0108 89460C   		movl	%eax, 12(%esi)
 1554              		.loc 1 274 3 is_stmt 1 view .LVU488
 1555              		.loc 1 274 16 is_stmt 0 view .LVU489
 1556 010b 8B461C   		movl	28(%esi), %eax
 1557 010e 034614   		addl	20(%esi), %eax
 1558 0111 894614   		movl	%eax, 20(%esi)
 1559              		.loc 1 275 3 is_stmt 1 view .LVU490
 1560              		.loc 1 275 6 is_stmt 0 view .LVU491
 1561 0114 3B4618   		cmpl	24(%esi), %eax
 1562 0117 7206     		jb	.L67
 1563              		.loc 1 276 5 is_stmt 1 view .LVU492
 1564              		.loc 1 276 18 is_stmt 0 view .LVU493
 1565 0119 8B4624   		movl	36(%esi), %eax
 1566 011c 894614   		movl	%eax, 20(%esi)
 1567              	.L67:
 1568              		.loc 1 280 3 is_stmt 1 view .LVU494
 1569              		.loc 1 283 11 is_stmt 0 view .LVU495
 1570 011f 8B4630   		movl	48(%esi), %eax
 1571              		.loc 1 280 13 view .LVU496
 1572 0122 C7462800 		movl	$0, 40(%esi)
 1572      000000
 1573              		.loc 1 283 3 is_stmt 1 view .LVU497
 1574              		.loc 1 283 6 is_stmt 0 view .LVU498
 1575 0129 85C0     		testl	%eax, %eax
 1576 012b 0F8472FF 		je	.L66
 1576      FFFF
 1577              		.loc 1 284 5 is_stmt 1 view .LVU499
 1578 0131 83EC0C   		subl	$12, %esp
 1579              		.cfi_def_cfa_offset 60
 1580 0134 56       		pushl	%esi
 1581              		.cfi_def_cfa_offset 64
 1582 0135 FFD0     		call	*%eax
 1583              	.LVL68:
 1584 0137 83C410   		addl	$16, %esp
 1585              		.cfi_def_cfa_offset 48
 1586              	.LVL69:
 1587              		.loc 1 284 5 is_stmt 0 view .LVU500
 1588              	.LBE438:
 1589              	.LBE437:
 1590              		.loc 1 407 5 is_stmt 1 view .LVU501
 1591              	.LBB439:
 1592              		.loc 2 584 20 view .LVU502
 1593              		.loc 2 586 3 view .LVU503
GAS LISTING /tmp/ccNgdVMZ.s 			page 30


 1594              	.LBB434:
 1595              		.loc 3 421 20 view .LVU504
 1596              	.LBB433:
 1597              		.loc 3 423 23 view .LVU505
 1598              		.loc 3 424 34 view .LVU506
 1599              		.loc 3 430 3 view .LVU507
 1600              		.loc 3 430 3 view .LVU508
 1601              		.loc 3 430 3 view .LVU509
 1602              		.loc 3 434 3 view .LVU510
 1603              	.LBB432:
 1604              		.loc 4 370 20 view .LVU511
 1605              	.LBB431:
 1606              		.loc 4 372 3 view .LVU512
 1607              	.LBE431:
 1608              	.LBE432:
 1609              	.LBE433:
 1610              	.LBE434:
 1611              	.LBE439:
 1612              		.loc 1 408 5 view .LVU513
 1613              		.loc 1 408 8 is_stmt 0 view .LVU514
 1614 013a 3B6C2438 		cmpl	56(%esp), %ebp
 1615 013e 0F8269FF 		jb	.L69
 1615      FFFF
 1616              	.LVL70:
 1617              	.L61:
 1618              	.LBB440:
 1619              		.loc 1 373 7 is_stmt 1 view .LVU515
 1620              		.loc 1 374 9 view .LVU516
 1621              	.LBB441:
 1622              	.LBI441:
 1623              		.loc 2 584 20 view .LVU517
 1624              		.loc 2 586 3 view .LVU518
 1625              	.LBB442:
 1626              	.LBI442:
 1627              		.loc 3 421 20 view .LVU519
 1628              	.LBB443:
 1629              		.loc 3 423 23 view .LVU520
 1630              		.loc 3 424 34 view .LVU521
 1631              		.loc 3 430 3 view .LVU522
 1632              		.loc 3 430 3 view .LVU523
 1633              		.loc 3 430 3 view .LVU524
 1634              		.loc 3 434 3 view .LVU525
 1635              	.LBB444:
 1636              	.LBI444:
 1637              		.loc 4 370 20 view .LVU526
 1638              	.LBB445:
 1639              		.loc 4 372 3 view .LVU527
 1640              		.loc 4 372 16 is_stmt 0 view .LVU528
 1641 0144 8B442408 		movl	8(%esp), %eax
 1642 0148 C7000000 		movl	$0, (%eax)
 1642      0000
 1643              	.LBE445:
 1644              	.LBE444:
 1645              	.LBE443:
 1646              	.LBE442:
 1647              	.LBE441:
 1648              		.loc 1 375 9 is_stmt 1 view .LVU529
GAS LISTING /tmp/ccNgdVMZ.s 			page 31


 1649              	.LBE440:
 1650              	.LBE460:
 1651              		.loc 1 413 1 is_stmt 0 view .LVU530
 1652 014e 83C41C   		addl	$28, %esp
 1653              		.cfi_remember_state
 1654              		.cfi_def_cfa_offset 20
 1655 0151 89E8     		movl	%ebp, %eax
 1656 0153 5B       		popl	%ebx
 1657              		.cfi_restore 3
 1658              		.cfi_def_cfa_offset 16
 1659 0154 5E       		popl	%esi
 1660              		.cfi_restore 6
 1661              		.cfi_def_cfa_offset 12
 1662 0155 5F       		popl	%edi
 1663              		.cfi_restore 7
 1664              		.cfi_def_cfa_offset 8
 1665 0156 5D       		popl	%ebp
 1666              		.cfi_restore 5
 1667              		.cfi_def_cfa_offset 4
 1668              	.LVL71:
 1669              		.loc 1 413 1 view .LVU531
 1670 0157 C3       		ret
 1671              	.LVL72:
 1672 0158 8DB42600 		.p2align 4,,10
 1672      00000090 
 1673              		.p2align 3
 1674              	.L77:
 1675              		.cfi_restore_state
 1676              		.loc 1 413 1 view .LVU532
 1677 0160 897C2434 		movl	%edi, 52(%esp)
 1678 0164 89F7     		movl	%esi, %edi
 1679              	.LVL73:
 1680              		.loc 1 413 1 view .LVU533
 1681 0166 8B74243C 		movl	60(%esp), %esi
 1682 016a EB1B     		jmp	.L59
 1683 016c 8D742600 		.p2align 4,,10
 1684              		.p2align 3
 1685              	.L62:
 1686              	.LBB461:
 1687              	.LBB458:
 1688              	.LBB446:
 1689              	.LBB447:
 1690              	.LBB448:
 1691              		.loc 1 226 5 is_stmt 1 view .LVU534
 1692              		.loc 1 226 8 is_stmt 0 view .LVU535
 1693 0170 807F0800 		cmpb	$0, 8(%edi)
 1694 0174 75CE     		jne	.L61
 1695              		.loc 1 229 5 is_stmt 1 view .LVU536
 1696              	.LVL74:
 1697              	.LBB449:
 1698              	.LBI449:
 1699              		.loc 2 892 21 view .LVU537
 1700              	.LBB450:
 1701              		.loc 2 895 3 view .LVU538
 1702              		.loc 2 895 10 is_stmt 0 view .LVU539
 1703 0176 83EC08   		subl	$8, %esp
 1704              		.cfi_def_cfa_offset 56
GAS LISTING /tmp/ccNgdVMZ.s 			page 32


 1705 0179 56       		pushl	%esi
 1706              		.cfi_def_cfa_offset 60
 1707 017a 57       		pushl	%edi
 1708              		.cfi_def_cfa_offset 64
 1709 017b E8FCFFFF 		call	chThdEnqueueTimeoutS@PLT
 1709      FF
 1710              	.LVL75:
 1711              		.loc 2 895 10 view .LVU540
 1712              	.LBE450:
 1713              	.LBE449:
 1714              		.loc 1 230 5 is_stmt 1 view .LVU541
 1715              		.loc 1 230 8 is_stmt 0 view .LVU542
 1716 0180 83C410   		addl	$16, %esp
 1717              		.cfi_def_cfa_offset 48
 1718 0183 85C0     		testl	%eax, %eax
 1719 0185 78BD     		js	.L61
 1720              	.LVL76:
 1721              	.L59:
 1722              		.loc 1 230 8 view .LVU543
 1723              	.LBE448:
 1724              		.loc 1 225 10 is_stmt 1 view .LVU544
 1725 0187 8B470C   		movl	12(%edi), %eax
 1726 018a 85C0     		testl	%eax, %eax
 1727 018c 74E2     		je	.L62
 1728              	.LBB451:
 1729              	.LBB452:
 1730              		.loc 1 238 19 is_stmt 0 view .LVU545
 1731 018e 89FE     		movl	%edi, %esi
 1732 0190 8B7C2434 		movl	52(%esp), %edi
 1733              	.LVL77:
 1734              		.loc 1 238 19 view .LVU546
 1735              	.LBE452:
 1736              	.LBI451:
 1737              		.loc 1 220 9 is_stmt 1 view .LVU547
 1738              	.LBB453:
 1739              		.loc 1 235 3 view .LVU548
 1740              		.loc 1 235 3 view .LVU549
 1741              		.loc 1 235 3 view .LVU550
 1742              		.loc 1 238 3 view .LVU551
 1743              		.loc 1 238 19 is_stmt 0 view .LVU552
 1744 0194 8B5614   		movl	20(%esi), %edx
 1745              		.loc 1 239 25 view .LVU553
 1746 0197 8B0A     		movl	(%edx), %ecx
 1747              		.loc 1 238 28 view .LVU554
 1748 0199 8D4204   		leal	4(%edx), %eax
 1749              		.loc 1 238 13 view .LVU555
 1750 019c 894628   		movl	%eax, 40(%esi)
 1751              		.loc 1 239 3 is_stmt 1 view .LVU556
 1752              		.loc 1 239 25 is_stmt 0 view .LVU557
 1753 019f 01C1     		addl	%eax, %ecx
 1754              		.loc 1 239 13 view .LVU558
 1755 01a1 894E2C   		movl	%ecx, 44(%esi)
 1756              		.loc 1 241 3 is_stmt 1 view .LVU559
 1757              	.LVL78:
 1758              		.loc 1 241 3 is_stmt 0 view .LVU560
 1759              	.LBE453:
 1760              	.LBE451:
GAS LISTING /tmp/ccNgdVMZ.s 			page 33


 1761              	.LBE447:
 1762              	.LBE446:
 1763              		.loc 1 373 7 is_stmt 1 view .LVU561
 1764              	.LBB457:
 1765              	.LBB456:
 1766              	.LBB455:
 1767              	.LBB454:
 1768              		.loc 1 239 25 is_stmt 0 view .LVU562
 1769 01a4 89CA     		movl	%ecx, %edx
 1770 01a6 E91AFFFF 		jmp	.L60
 1770      FF
 1771              	.LBE454:
 1772              	.LBE455:
 1773              	.LBE456:
 1774              	.LBE457:
 1775              	.LBE458:
 1776              	.LBE461:
 1777              		.cfi_endproc
 1778              	.LFE320:
 1779              		.size	ibqReadTimeout, .-ibqReadTimeout
 1780              		.section	.text.obqObjectInit,"ax",@progbits
 1781              		.p2align 4
 1782              		.globl	obqObjectInit
 1783              		.type	obqObjectInit, @function
 1784              	obqObjectInit:
 1785              	.LVL79:
 1786              	.LFB321:
 1787              		.loc 1 429 72 is_stmt 1 view -0
 1788              		.cfi_startproc
 1789              		.loc 1 431 3 view .LVU564
 1790              		.loc 1 431 3 view .LVU565
 1791              		.loc 1 431 3 view .LVU566
 1792              		.loc 1 433 3 view .LVU567
 1793              		.loc 1 429 72 is_stmt 0 view .LVU568
 1794 0000 55       		pushl	%ebp
 1795              		.cfi_def_cfa_offset 8
 1796              		.cfi_offset 5, -8
 1797 0001 57       		pushl	%edi
 1798              		.cfi_def_cfa_offset 12
 1799              		.cfi_offset 7, -12
 1800 0002 56       		pushl	%esi
 1801              		.cfi_def_cfa_offset 16
 1802              		.cfi_offset 6, -16
 1803 0003 53       		pushl	%ebx
 1804              		.cfi_def_cfa_offset 20
 1805              		.cfi_offset 3, -20
 1806 0004 E8FCFFFF 		call	__x86.get_pc_thunk.bx
 1806      FF
 1807 0009 81C30200 		addl	$_GLOBAL_OFFSET_TABLE_, %ebx
 1807      0000
 1808 000f 83EC28   		subl	$40, %esp
 1809              		.cfi_def_cfa_offset 60
 1810              		.loc 1 429 72 view .LVU569
 1811 0012 8B74243C 		movl	60(%esp), %esi
 1812              	.LVL80:
 1813              	.LBB462:
 1814              	.LBI462:
GAS LISTING /tmp/ccNgdVMZ.s 			page 34


 1815              		.loc 2 864 20 is_stmt 1 view .LVU570
 1816              	.LBB463:
 1817              		.loc 2 866 3 view .LVU571
 1818              	.LBE463:
 1819              	.LBE462:
 1820              		.loc 1 429 72 is_stmt 0 view .LVU572
 1821 0016 8B442440 		movl	64(%esp), %eax
 1822 001a 8B7C2444 		movl	68(%esp), %edi
 1823 001e 8B6C244C 		movl	76(%esp), %ebp
 1824 0022 89442418 		movl	%eax, 24(%esp)
 1825              	.LBB465:
 1826              	.LBB464:
 1827              		.loc 2 866 3 view .LVU573
 1828 0026 56       		pushl	%esi
 1829              		.cfi_def_cfa_offset 64
 1830 0027 E8FCFFFF 		call	chThdQueueObjectInit@PLT
 1830      FF
 1831              	.LVL81:
 1832              		.loc 2 866 3 view .LVU574
 1833              	.LBE464:
 1834              	.LBE465:
 1835              		.loc 1 434 3 is_stmt 1 view .LVU575
 1836              		.loc 1 434 19 is_stmt 0 view .LVU576
 1837 002c 8B44241C 		movl	28(%esp), %eax
 1838              		.loc 1 435 19 view .LVU577
 1839 0030 896E0C   		movl	%ebp, 12(%esi)
 1840              		.loc 1 436 19 view .LVU578
 1841 0033 897E14   		movl	%edi, 20(%esi)
 1842              		.loc 1 434 19 view .LVU579
 1843 0036 884608   		movb	%al, 8(%esi)
 1844              		.loc 1 435 3 is_stmt 1 view .LVU580
 1845              		.loc 1 436 3 view .LVU581
 1846              		.loc 1 437 3 view .LVU582
 1847              		.loc 1 438 33 is_stmt 0 view .LVU583
 1848 0039 8B44244C 		movl	76(%esp), %eax
 1849              		.loc 1 437 19 view .LVU584
 1850 003d 897E10   		movl	%edi, 16(%esi)
 1851              		.loc 1 438 3 is_stmt 1 view .LVU585
 1852              		.loc 1 438 33 is_stmt 0 view .LVU586
 1853 0040 83C004   		addl	$4, %eax
 1854              		.loc 1 440 19 view .LVU587
 1855 0043 896E20   		movl	%ebp, 32(%esi)
 1856              		.loc 1 438 52 view .LVU588
 1857 0046 89C2     		movl	%eax, %edx
 1858              		.loc 1 439 19 view .LVU589
 1859 0048 89461C   		movl	%eax, 28(%esi)
 1860              		.loc 1 444 19 view .LVU590
 1861 004b 8B442454 		movl	84(%esp), %eax
 1862              		.loc 1 438 52 view .LVU591
 1863 004f 0FAFD5   		imull	%ebp, %edx
 1864              		.loc 1 441 19 view .LVU592
 1865 0052 897E24   		movl	%edi, 36(%esi)
 1866              		.loc 1 444 19 view .LVU593
 1867 0055 894630   		movl	%eax, 48(%esi)
 1868              		.loc 1 445 19 view .LVU594
 1869 0058 8B442458 		movl	88(%esp), %eax
 1870              		.loc 1 442 19 view .LVU595
GAS LISTING /tmp/ccNgdVMZ.s 			page 35


 1871 005c C7462800 		movl	$0, 40(%esi)
 1871      000000
 1872              		.loc 1 438 24 view .LVU596
 1873 0063 01FA     		addl	%edi, %edx
 1874              		.loc 1 443 19 view .LVU597
 1875 0065 C7462C00 		movl	$0, 44(%esi)
 1875      000000
 1876              		.loc 1 438 24 view .LVU598
 1877 006c 895618   		movl	%edx, 24(%esi)
 1878              		.loc 1 439 3 is_stmt 1 view .LVU599
 1879              		.loc 1 440 3 view .LVU600
 1880              		.loc 1 441 3 view .LVU601
 1881              		.loc 1 442 3 view .LVU602
 1882              		.loc 1 443 3 view .LVU603
 1883              		.loc 1 444 3 view .LVU604
 1884              		.loc 1 445 3 view .LVU605
 1885              		.loc 1 445 19 is_stmt 0 view .LVU606
 1886 006f 894634   		movl	%eax, 52(%esi)
 1887              		.loc 1 446 1 view .LVU607
 1888 0072 83C42C   		addl	$44, %esp
 1889              		.cfi_def_cfa_offset 20
 1890 0075 5B       		popl	%ebx
 1891              		.cfi_restore 3
 1892              		.cfi_def_cfa_offset 16
 1893 0076 5E       		popl	%esi
 1894              		.cfi_restore 6
 1895              		.cfi_def_cfa_offset 12
 1896 0077 5F       		popl	%edi
 1897              		.cfi_restore 7
 1898              		.cfi_def_cfa_offset 8
 1899 0078 5D       		popl	%ebp
 1900              		.cfi_restore 5
 1901              		.cfi_def_cfa_offset 4
 1902 0079 C3       		ret
 1903              		.cfi_endproc
 1904              	.LFE321:
 1905              		.size	obqObjectInit, .-obqObjectInit
 1906              		.section	.text.obqResetI,"ax",@progbits
 1907              		.p2align 4
 1908              		.globl	obqResetI
 1909              		.type	obqResetI, @function
 1910              	obqResetI:
 1911              	.LVL82:
 1912              	.LFB322:
 1913              		.loc 1 459 46 is_stmt 1 view -0
 1914              		.cfi_startproc
 1915              		.loc 1 461 23 view .LVU609
 1916              		.loc 1 463 3 view .LVU610
 1917              		.loc 1 459 46 is_stmt 0 view .LVU611
 1918 0000 53       		pushl	%ebx
 1919              		.cfi_def_cfa_offset 8
 1920              		.cfi_offset 3, -8
 1921 0001 E8FCFFFF 		call	__x86.get_pc_thunk.bx
 1921      FF
 1922 0006 81C30200 		addl	$_GLOBAL_OFFSET_TABLE_, %ebx
 1922      0000
 1923 000c 83EC10   		subl	$16, %esp
GAS LISTING /tmp/ccNgdVMZ.s 			page 36


 1924              		.cfi_def_cfa_offset 24
 1925              		.loc 1 459 46 view .LVU612
 1926 000f 8B442418 		movl	24(%esp), %eax
 1927              		.loc 1 463 21 view .LVU613
 1928 0013 8B5020   		movl	32(%eax), %edx
 1929              		.loc 1 466 19 view .LVU614
 1930 0016 C7402800 		movl	$0, 40(%eax)
 1930      000000
 1931              		.loc 1 467 19 view .LVU615
 1932 001d C7402C00 		movl	$0, 44(%eax)
 1932      000000
 1933              		.loc 1 463 19 view .LVU616
 1934 0024 89500C   		movl	%edx, 12(%eax)
 1935              		.loc 1 464 3 is_stmt 1 view .LVU617
 1936              		.loc 1 464 25 is_stmt 0 view .LVU618
 1937 0027 8B5024   		movl	36(%eax), %edx
 1938              		.loc 1 464 19 view .LVU619
 1939 002a 895014   		movl	%edx, 20(%eax)
 1940              		.loc 1 465 3 is_stmt 1 view .LVU620
 1941              		.loc 1 465 19 is_stmt 0 view .LVU621
 1942 002d 895010   		movl	%edx, 16(%eax)
 1943              		.loc 1 466 3 is_stmt 1 view .LVU622
 1944              		.loc 1 467 3 view .LVU623
 1945              		.loc 1 468 3 view .LVU624
 1946              	.LVL83:
 1947              	.LBB466:
 1948              	.LBI466:
 1949              		.loc 2 919 20 view .LVU625
 1950              	.LBB467:
 1951              		.loc 2 921 3 view .LVU626
 1952 0030 6AFE     		pushl	$-2
 1953              		.cfi_def_cfa_offset 28
 1954 0032 50       		pushl	%eax
 1955              		.cfi_def_cfa_offset 32
 1956 0033 E8FCFFFF 		call	chThdDequeueAllI@PLT
 1956      FF
 1957              	.LVL84:
 1958              		.loc 2 921 3 is_stmt 0 view .LVU627
 1959              	.LBE467:
 1960              	.LBE466:
 1961              		.loc 1 469 1 view .LVU628
 1962 0038 83C418   		addl	$24, %esp
 1963              		.cfi_def_cfa_offset 8
 1964 003b 5B       		popl	%ebx
 1965              		.cfi_restore 3
 1966              		.cfi_def_cfa_offset 4
 1967 003c C3       		ret
 1968              		.cfi_endproc
 1969              	.LFE322:
 1970              		.size	obqResetI, .-obqResetI
 1971              		.section	.text.obqGetFullBufferI,"ax",@progbits
 1972              		.p2align 4
 1973              		.globl	obqGetFullBufferI
 1974              		.type	obqGetFullBufferI, @function
 1975              	obqGetFullBufferI:
 1976              	.LVL85:
 1977              	.LFB323:
GAS LISTING /tmp/ccNgdVMZ.s 			page 37


 1978              		.loc 1 483 43 is_stmt 1 view -0
 1979              		.cfi_startproc
 1980              		.loc 1 485 23 view .LVU630
 1981              		.loc 1 487 3 view .LVU631
 1982              		.loc 1 483 43 is_stmt 0 view .LVU632
 1983 0000 8B542404 		movl	4(%esp), %edx
 1984              		.loc 1 487 7 view .LVU633
 1985 0004 8B4214   		movl	20(%edx), %eax
 1986 0007 394210   		cmpl	%eax, 16(%edx)
 1987 000a 7414     		je	.L92
 1988              	.L86:
 1989              		.loc 1 493 3 is_stmt 1 view .LVU634
 1990              		.loc 1 493 12 is_stmt 0 view .LVU635
 1991 000c 8B08     		movl	(%eax), %ecx
 1992              		.loc 1 495 3 is_stmt 1 view .LVU636
 1993 000e 8B542408 		movl	8(%esp), %edx
 1994              		.loc 1 495 23 is_stmt 0 view .LVU637
 1995 0012 83C004   		addl	$4, %eax
 1996 0015 890A     		movl	%ecx, (%edx)
 1997              		.loc 1 496 1 view .LVU638
 1998 0017 C3       		ret
 1999              	.LVL86:
 2000 0018 8DB42600 		.p2align 4,,10
 2000      00000090 
 2001              		.p2align 3
 2002              	.L92:
 2003              		.loc 1 487 7 discriminator 1 view .LVU639
 2004 0020 8B520C   		movl	12(%edx), %edx
 2005              	.LVL87:
 2006              		.loc 1 487 7 discriminator 1 view .LVU640
 2007 0023 85D2     		testl	%edx, %edx
 2008 0025 74E5     		je	.L86
 2009 0027 8B542408 		movl	8(%esp), %edx
 2010              		.loc 1 488 12 view .LVU641
 2011 002b 31C9     		xorl	%ecx, %ecx
 2012              		.loc 1 489 12 view .LVU642
 2013 002d 31C0     		xorl	%eax, %eax
 2014 002f 890A     		movl	%ecx, (%edx)
 2015              		.loc 1 496 1 view .LVU643
 2016 0031 C3       		ret
 2017              		.cfi_endproc
 2018              	.LFE323:
 2019              		.size	obqGetFullBufferI, .-obqGetFullBufferI
 2020              		.section	.text.obqReleaseEmptyBufferI,"ax",@progbits
 2021              		.p2align 4
 2022              		.globl	obqReleaseEmptyBufferI
 2023              		.type	obqReleaseEmptyBufferI, @function
 2024              	obqReleaseEmptyBufferI:
 2025              	.LVL88:
 2026              	.LFB324:
 2027              		.loc 1 505 59 is_stmt 1 view -0
 2028              		.cfi_startproc
 2029              		.loc 1 507 23 view .LVU645
 2030              		.loc 1 508 3 view .LVU646
 2031              		.loc 1 508 3 view .LVU647
 2032              		.loc 1 508 3 view .LVU648
 2033              		.loc 1 511 3 view .LVU649
GAS LISTING /tmp/ccNgdVMZ.s 			page 38


 2034              		.loc 1 505 59 is_stmt 0 view .LVU650
 2035 0000 53       		pushl	%ebx
 2036              		.cfi_def_cfa_offset 8
 2037              		.cfi_offset 3, -8
 2038 0001 E8FCFFFF 		call	__x86.get_pc_thunk.bx
 2038      FF
 2039 0006 81C30200 		addl	$_GLOBAL_OFFSET_TABLE_, %ebx
 2039      0000
 2040 000c 83EC08   		subl	$8, %esp
 2041              		.cfi_def_cfa_offset 16
 2042              		.loc 1 505 59 view .LVU651
 2043 000f 8B442410 		movl	16(%esp), %eax
 2044              		.loc 1 511 7 view .LVU652
 2045 0013 8B500C   		movl	12(%eax), %edx
 2046              		.loc 1 511 17 view .LVU653
 2047 0016 83C201   		addl	$1, %edx
 2048 0019 89500C   		movl	%edx, 12(%eax)
 2049              		.loc 1 512 3 is_stmt 1 view .LVU654
 2050              		.loc 1 512 16 is_stmt 0 view .LVU655
 2051 001c 8B501C   		movl	28(%eax), %edx
 2052 001f 035014   		addl	20(%eax), %edx
 2053 0022 895014   		movl	%edx, 20(%eax)
 2054              		.loc 1 513 3 is_stmt 1 view .LVU656
 2055              		.loc 1 513 6 is_stmt 0 view .LVU657
 2056 0025 3B5018   		cmpl	24(%eax), %edx
 2057 0028 7206     		jb	.L94
 2058              		.loc 1 514 5 is_stmt 1 view .LVU658
 2059              		.loc 1 514 18 is_stmt 0 view .LVU659
 2060 002a 8B5024   		movl	36(%eax), %edx
 2061 002d 895014   		movl	%edx, 20(%eax)
 2062              	.L94:
 2063              		.loc 1 518 3 is_stmt 1 view .LVU660
 2064              	.LVL89:
 2065              	.LBB468:
 2066              	.LBI468:
 2067              		.loc 2 906 20 view .LVU661
 2068              	.LBB469:
 2069              		.loc 2 908 3 view .LVU662
 2070 0030 83EC08   		subl	$8, %esp
 2071              		.cfi_def_cfa_offset 24
 2072 0033 6A00     		pushl	$0
 2073              		.cfi_def_cfa_offset 28
 2074 0035 50       		pushl	%eax
 2075              		.cfi_def_cfa_offset 32
 2076 0036 E8FCFFFF 		call	chThdDequeueNextI@PLT
 2076      FF
 2077              	.LVL90:
 2078              		.loc 2 908 3 is_stmt 0 view .LVU663
 2079              	.LBE469:
 2080              	.LBE468:
 2081              		.loc 1 519 1 view .LVU664
 2082 003b 83C418   		addl	$24, %esp
 2083              		.cfi_def_cfa_offset 8
 2084 003e 5B       		popl	%ebx
 2085              		.cfi_restore 3
 2086              		.cfi_def_cfa_offset 4
 2087 003f C3       		ret
GAS LISTING /tmp/ccNgdVMZ.s 			page 39


 2088              		.cfi_endproc
 2089              	.LFE324:
 2090              		.size	obqReleaseEmptyBufferI, .-obqReleaseEmptyBufferI
 2091              		.section	.text.obqGetEmptyBufferTimeout,"ax",@progbits
 2092              		.p2align 4
 2093              		.globl	obqGetEmptyBufferTimeout
 2094              		.type	obqGetEmptyBufferTimeout, @function
 2095              	obqGetEmptyBufferTimeout:
 2096              	.LVL91:
 2097              	.LFB325:
 2098              		.loc 1 542 55 is_stmt 1 view -0
 2099              		.cfi_startproc
 2100              		.loc 1 542 55 is_stmt 0 view .LVU666
 2101 0000 55       		pushl	%ebp
 2102              		.cfi_def_cfa_offset 8
 2103              		.cfi_offset 5, -8
 2104 0001 57       		pushl	%edi
 2105              		.cfi_def_cfa_offset 12
 2106              		.cfi_offset 7, -12
 2107 0002 56       		pushl	%esi
 2108              		.cfi_def_cfa_offset 16
 2109              		.cfi_offset 6, -16
 2110 0003 53       		pushl	%ebx
 2111              		.cfi_def_cfa_offset 20
 2112              		.cfi_offset 3, -20
 2113 0004 E8FCFFFF 		call	__x86.get_pc_thunk.bx
 2113      FF
 2114 0009 81C30200 		addl	$_GLOBAL_OFFSET_TABLE_, %ebx
 2114      0000
 2115 000f 83EC0C   		subl	$12, %esp
 2116              		.cfi_def_cfa_offset 32
 2117              		.loc 1 542 55 view .LVU667
 2118 0012 8B6C2420 		movl	32(%esp), %ebp
 2119              		.loc 1 543 3 is_stmt 1 view .LVU668
 2120              		.loc 1 545 3 view .LVU669
 2121              	.LBB489:
 2122              	.LBI489:
 2123              		.loc 2 573 20 view .LVU670
 2124              		.loc 2 575 3 view .LVU671
 2125              	.LBB490:
 2126              	.LBI490:
 2127              		.loc 3 407 20 view .LVU672
 2128              		.loc 3 409 3 view .LVU673
 2129              	.LBB491:
 2130              	.LBI491:
 2131              		.loc 4 361 20 view .LVU674
 2132              	.LBB492:
 2133              		.loc 4 363 3 view .LVU675
 2134              	.LBE492:
 2135              	.LBE491:
 2136              	.LBE490:
 2137              	.LBE489:
 2138              		.loc 1 542 55 is_stmt 0 view .LVU676
 2139 0016 8B742424 		movl	36(%esp), %esi
 2140              	.LBB496:
 2141              	.LBB495:
 2142              	.LBB494:
GAS LISTING /tmp/ccNgdVMZ.s 			page 40


 2143              	.LBB493:
 2144              		.loc 4 363 16 view .LVU677
 2145 001a 8BBB0000 		movl	port_irq_sts@GOT(%ebx), %edi
 2145      0000
 2146 0020 C7070100 		movl	$1, (%edi)
 2146      0000
 2147              	.LBE493:
 2148              	.LBE494:
 2149              		.loc 3 410 35 is_stmt 1 view .LVU678
 2150              		.loc 3 411 21 view .LVU679
 2151              	.LBE495:
 2152              	.LBE496:
 2153              		.loc 1 546 3 view .LVU680
 2154              	.LVL92:
 2155              	.LBB497:
 2156              	.LBI497:
 2157              		.loc 1 572 7 view .LVU681
 2158              	.LBB498:
 2159              		.loc 1 575 23 view .LVU682
 2160              		.loc 1 577 3 view .LVU683
 2161              		.loc 1 577 9 is_stmt 0 view .LVU684
 2162 0026 EB1F     		jmp	.L97
 2163 0028 8DB42600 		.p2align 4,,10
 2163      00000090 
 2164              		.p2align 3
 2165              	.L99:
 2166              	.LBB499:
 2167              		.loc 1 578 5 is_stmt 1 view .LVU685
 2168              		.loc 1 578 8 is_stmt 0 view .LVU686
 2169 0030 807D0800 		cmpb	$0, 8(%ebp)
 2170 0034 753A     		jne	.L100
 2171              		.loc 1 581 5 is_stmt 1 view .LVU687
 2172              	.LVL93:
 2173              	.LBB500:
 2174              	.LBI500:
 2175              		.loc 2 892 21 view .LVU688
 2176              	.LBB501:
 2177              		.loc 2 895 3 view .LVU689
 2178              		.loc 2 895 10 is_stmt 0 view .LVU690
 2179 0036 83EC08   		subl	$8, %esp
 2180              		.cfi_def_cfa_offset 40
 2181 0039 56       		pushl	%esi
 2182              		.cfi_def_cfa_offset 44
 2183 003a 55       		pushl	%ebp
 2184              		.cfi_def_cfa_offset 48
 2185 003b E8FCFFFF 		call	chThdEnqueueTimeoutS@PLT
 2185      FF
 2186              	.LVL94:
 2187              		.loc 2 895 10 view .LVU691
 2188              	.LBE501:
 2189              	.LBE500:
 2190              		.loc 1 582 5 is_stmt 1 view .LVU692
 2191              		.loc 1 582 8 is_stmt 0 view .LVU693
 2192 0040 83C410   		addl	$16, %esp
 2193              		.cfi_def_cfa_offset 32
 2194 0043 85C0     		testl	%eax, %eax
 2195 0045 7818     		js	.L98
GAS LISTING /tmp/ccNgdVMZ.s 			page 41


 2196              	.LVL95:
 2197              	.L97:
 2198              		.loc 1 582 8 view .LVU694
 2199              	.LBE499:
 2200              		.loc 1 577 10 is_stmt 1 view .LVU695
 2201 0047 8B450C   		movl	12(%ebp), %eax
 2202 004a 85C0     		testl	%eax, %eax
 2203 004c 74E2     		je	.L99
 2204              	.LVL96:
 2205              	.LBB502:
 2206              	.LBI502:
 2207              		.loc 1 572 7 view .LVU696
 2208              	.LBB503:
 2209              		.loc 1 587 3 view .LVU697
 2210              		.loc 1 587 3 view .LVU698
 2211              		.loc 1 587 3 view .LVU699
 2212              		.loc 1 590 3 view .LVU700
 2213              		.loc 1 590 19 is_stmt 0 view .LVU701
 2214 004e 8B4510   		movl	16(%ebp), %eax
 2215              		.loc 1 590 28 view .LVU702
 2216 0051 8D5004   		leal	4(%eax), %edx
 2217              		.loc 1 591 28 view .LVU703
 2218 0054 03451C   		addl	28(%ebp), %eax
 2219              		.loc 1 590 28 view .LVU704
 2220 0057 895528   		movl	%edx, 40(%ebp)
 2221              		.loc 1 591 3 is_stmt 1 view .LVU705
 2222              		.loc 1 591 13 is_stmt 0 view .LVU706
 2223 005a 89452C   		movl	%eax, 44(%ebp)
 2224              		.loc 1 593 3 is_stmt 1 view .LVU707
 2225              	.LVL97:
 2226              		.loc 1 591 13 is_stmt 0 view .LVU708
 2227 005d 31C0     		xorl	%eax, %eax
 2228              	.L98:
 2229              	.LVL98:
 2230              		.loc 1 591 13 view .LVU709
 2231              	.LBE503:
 2232              	.LBE502:
 2233              	.LBE498:
 2234              	.LBE497:
 2235              		.loc 1 547 3 is_stmt 1 view .LVU710
 2236              	.LBB506:
 2237              	.LBI506:
 2238              		.loc 2 584 20 view .LVU711
 2239              		.loc 2 586 3 view .LVU712
 2240              	.LBB507:
 2241              	.LBI507:
 2242              		.loc 3 421 20 view .LVU713
 2243              	.LBB508:
 2244              		.loc 3 423 23 view .LVU714
 2245              		.loc 3 424 34 view .LVU715
 2246              		.loc 3 430 3 view .LVU716
 2247              		.loc 3 430 3 view .LVU717
 2248              		.loc 3 430 3 view .LVU718
 2249              		.loc 3 434 3 view .LVU719
 2250              	.LBB509:
 2251              	.LBI509:
 2252              		.loc 4 370 20 view .LVU720
GAS LISTING /tmp/ccNgdVMZ.s 			page 42


 2253              	.LBB510:
 2254              		.loc 4 372 3 view .LVU721
 2255              		.loc 4 372 16 is_stmt 0 view .LVU722
 2256 005f C7070000 		movl	$0, (%edi)
 2256      0000
 2257              	.LBE510:
 2258              	.LBE509:
 2259              	.LBE508:
 2260              	.LBE507:
 2261              	.LBE506:
 2262              		.loc 1 549 3 is_stmt 1 view .LVU723
 2263              		.loc 1 550 1 is_stmt 0 view .LVU724
 2264 0065 83C40C   		addl	$12, %esp
 2265              		.cfi_remember_state
 2266              		.cfi_def_cfa_offset 20
 2267 0068 5B       		popl	%ebx
 2268              		.cfi_restore 3
 2269              		.cfi_def_cfa_offset 16
 2270 0069 5E       		popl	%esi
 2271              		.cfi_restore 6
 2272              		.cfi_def_cfa_offset 12
 2273 006a 5F       		popl	%edi
 2274              		.cfi_restore 7
 2275              		.cfi_def_cfa_offset 8
 2276 006b 5D       		popl	%ebp
 2277              		.cfi_restore 5
 2278              		.cfi_def_cfa_offset 4
 2279 006c C3       		ret
 2280              	.LVL99:
 2281 006d 8D7600   		.p2align 4,,10
 2282              		.p2align 3
 2283              	.L100:
 2284              		.cfi_restore_state
 2285              	.LBB519:
 2286              	.LBB517:
 2287              	.LBB515:
 2288              	.LBB513:
 2289              	.LBB511:
 2290              		.loc 4 372 16 view .LVU725
 2291 0070 C7070000 		movl	$0, (%edi)
 2291      0000
 2292              	.LBE511:
 2293              	.LBE513:
 2294              	.LBE515:
 2295              	.LBE517:
 2296              	.LBE519:
 2297              		.loc 1 550 1 view .LVU726
 2298 0076 83C40C   		addl	$12, %esp
 2299              		.cfi_def_cfa_offset 20
 2300              	.LBB520:
 2301              	.LBB505:
 2302              	.LBB504:
 2303              		.loc 1 579 14 view .LVU727
 2304 0079 B8FEFFFF 		movl	$-2, %eax
 2304      FF
 2305              	.LVL100:
 2306              		.loc 1 579 14 view .LVU728
GAS LISTING /tmp/ccNgdVMZ.s 			page 43


 2307              	.LBE504:
 2308              	.LBE505:
 2309              	.LBE520:
 2310              		.loc 1 547 3 is_stmt 1 view .LVU729
 2311              	.LBB521:
 2312              		.loc 2 584 20 view .LVU730
 2313              		.loc 2 586 3 view .LVU731
 2314              	.LBB518:
 2315              		.loc 3 421 20 view .LVU732
 2316              	.LBB516:
 2317              		.loc 3 423 23 view .LVU733
 2318              		.loc 3 424 34 view .LVU734
 2319              		.loc 3 430 3 view .LVU735
 2320              		.loc 3 430 3 view .LVU736
 2321              		.loc 3 430 3 view .LVU737
 2322              		.loc 3 434 3 view .LVU738
 2323              	.LBB514:
 2324              		.loc 4 370 20 view .LVU739
 2325              	.LBB512:
 2326              		.loc 4 372 3 view .LVU740
 2327              	.LBE512:
 2328              	.LBE514:
 2329              	.LBE516:
 2330              	.LBE518:
 2331              	.LBE521:
 2332              		.loc 1 549 3 view .LVU741
 2333              		.loc 1 550 1 is_stmt 0 view .LVU742
 2334 007e 5B       		popl	%ebx
 2335              		.cfi_restore 3
 2336              		.cfi_def_cfa_offset 16
 2337 007f 5E       		popl	%esi
 2338              		.cfi_restore 6
 2339              		.cfi_def_cfa_offset 12
 2340 0080 5F       		popl	%edi
 2341              		.cfi_restore 7
 2342              		.cfi_def_cfa_offset 8
 2343 0081 5D       		popl	%ebp
 2344              		.cfi_restore 5
 2345              		.cfi_def_cfa_offset 4
 2346 0082 C3       		ret
 2347              		.cfi_endproc
 2348              	.LFE325:
 2349              		.size	obqGetEmptyBufferTimeout, .-obqGetEmptyBufferTimeout
 2350              		.section	.text.obqGetEmptyBufferTimeoutS,"ax",@progbits
 2351              		.p2align 4
 2352              		.globl	obqGetEmptyBufferTimeoutS
 2353              		.type	obqGetEmptyBufferTimeoutS, @function
 2354              	obqGetEmptyBufferTimeoutS:
 2355              	.LVL101:
 2356              	.LFB326:
 2357              		.loc 1 573 56 is_stmt 1 view -0
 2358              		.cfi_startproc
 2359              		.loc 1 573 56 is_stmt 0 view .LVU744
 2360 0000 57       		pushl	%edi
 2361              		.cfi_def_cfa_offset 8
 2362              		.cfi_offset 7, -8
 2363 0001 56       		pushl	%esi
GAS LISTING /tmp/ccNgdVMZ.s 			page 44


 2364              		.cfi_def_cfa_offset 12
 2365              		.cfi_offset 6, -12
 2366 0002 53       		pushl	%ebx
 2367              		.cfi_def_cfa_offset 16
 2368              		.cfi_offset 3, -16
 2369              		.loc 1 573 56 view .LVU745
 2370 0003 8B7C2410 		movl	16(%esp), %edi
 2371              		.loc 1 575 23 is_stmt 1 view .LVU746
 2372              		.loc 1 577 3 view .LVU747
 2373 0007 E8FCFFFF 		call	__x86.get_pc_thunk.bx
 2373      FF
 2374 000c 81C30200 		addl	$_GLOBAL_OFFSET_TABLE_, %ebx
 2374      0000
 2375              		.loc 1 573 56 is_stmt 0 view .LVU748
 2376 0012 8B742414 		movl	20(%esp), %esi
 2377              		.loc 1 577 9 view .LVU749
 2378 0016 EB1F     		jmp	.L103
 2379 0018 8DB42600 		.p2align 4,,10
 2379      00000090 
 2380              		.p2align 3
 2381              	.L105:
 2382              	.LBB533:
 2383              		.loc 1 578 5 is_stmt 1 view .LVU750
 2384              		.loc 1 578 8 is_stmt 0 view .LVU751
 2385 0020 807F0800 		cmpb	$0, 8(%edi)
 2386 0024 7532     		jne	.L106
 2387              		.loc 1 581 5 is_stmt 1 view .LVU752
 2388              	.LVL102:
 2389              	.LBB534:
 2390              	.LBI534:
 2391              		.loc 2 892 21 view .LVU753
 2392              	.LBB535:
 2393              		.loc 2 895 3 view .LVU754
 2394              		.loc 2 895 10 is_stmt 0 view .LVU755
 2395 0026 83EC08   		subl	$8, %esp
 2396              		.cfi_def_cfa_offset 24
 2397 0029 56       		pushl	%esi
 2398              		.cfi_def_cfa_offset 28
 2399 002a 57       		pushl	%edi
 2400              		.cfi_def_cfa_offset 32
 2401 002b E8FCFFFF 		call	chThdEnqueueTimeoutS@PLT
 2401      FF
 2402              	.LVL103:
 2403              		.loc 2 895 10 view .LVU756
 2404              	.LBE535:
 2405              	.LBE534:
 2406              		.loc 1 582 5 is_stmt 1 view .LVU757
 2407              		.loc 1 582 8 is_stmt 0 view .LVU758
 2408 0030 83C410   		addl	$16, %esp
 2409              		.cfi_def_cfa_offset 16
 2410 0033 85C0     		testl	%eax, %eax
 2411 0035 7818     		js	.L102
 2412              	.LVL104:
 2413              	.L103:
 2414              		.loc 1 582 8 view .LVU759
 2415              	.LBE533:
 2416              		.loc 1 577 10 is_stmt 1 view .LVU760
GAS LISTING /tmp/ccNgdVMZ.s 			page 45


 2417 0037 8B470C   		movl	12(%edi), %eax
 2418 003a 85C0     		testl	%eax, %eax
 2419 003c 74E2     		je	.L105
 2420              	.LVL105:
 2421              	.LBB536:
 2422              	.LBI536:
 2423              		.loc 1 572 7 view .LVU761
 2424              	.LBB537:
 2425              		.loc 1 587 3 view .LVU762
 2426              		.loc 1 587 3 view .LVU763
 2427              		.loc 1 587 3 view .LVU764
 2428              		.loc 1 590 3 view .LVU765
 2429              		.loc 1 590 19 is_stmt 0 view .LVU766
 2430 003e 8B4710   		movl	16(%edi), %eax
 2431              		.loc 1 590 28 view .LVU767
 2432 0041 8D5004   		leal	4(%eax), %edx
 2433              		.loc 1 591 28 view .LVU768
 2434 0044 03471C   		addl	28(%edi), %eax
 2435              		.loc 1 590 28 view .LVU769
 2436 0047 895728   		movl	%edx, 40(%edi)
 2437              		.loc 1 591 3 is_stmt 1 view .LVU770
 2438              		.loc 1 591 13 is_stmt 0 view .LVU771
 2439 004a 89472C   		movl	%eax, 44(%edi)
 2440              		.loc 1 593 3 is_stmt 1 view .LVU772
 2441              	.LVL106:
 2442              		.loc 1 591 13 is_stmt 0 view .LVU773
 2443 004d 31C0     		xorl	%eax, %eax
 2444              	.L102:
 2445              	.LBE537:
 2446              	.LBE536:
 2447              		.loc 1 594 1 view .LVU774
 2448 004f 5B       		popl	%ebx
 2449              		.cfi_remember_state
 2450              		.cfi_restore 3
 2451              		.cfi_def_cfa_offset 12
 2452 0050 5E       		popl	%esi
 2453              		.cfi_restore 6
 2454              		.cfi_def_cfa_offset 8
 2455 0051 5F       		popl	%edi
 2456              		.cfi_restore 7
 2457              		.cfi_def_cfa_offset 4
 2458 0052 C3       		ret
 2459              		.p2align 4,,10
 2460 0053 8D742600 		.p2align 3
 2460      90
 2461              	.L106:
 2462              		.cfi_restore_state
 2463 0058 5B       		popl	%ebx
 2464              		.cfi_restore 3
 2465              		.cfi_def_cfa_offset 12
 2466              	.LBB538:
 2467              		.loc 1 579 14 view .LVU775
 2468 0059 B8FEFFFF 		movl	$-2, %eax
 2468      FF
 2469              	.LBE538:
 2470              		.loc 1 594 1 view .LVU776
 2471 005e 5E       		popl	%esi
GAS LISTING /tmp/ccNgdVMZ.s 			page 46


 2472              		.cfi_restore 6
 2473              		.cfi_def_cfa_offset 8
 2474 005f 5F       		popl	%edi
 2475              		.cfi_restore 7
 2476              		.cfi_def_cfa_offset 4
 2477 0060 C3       		ret
 2478              		.cfi_endproc
 2479              	.LFE326:
 2480              		.size	obqGetEmptyBufferTimeoutS, .-obqGetEmptyBufferTimeoutS
 2481              		.section	.text.obqPostFullBuffer,"ax",@progbits
 2482              		.p2align 4
 2483              		.globl	obqPostFullBuffer
 2484              		.type	obqPostFullBuffer, @function
 2485              	obqPostFullBuffer:
 2486              	.LVL107:
 2487              	.LFB327:
 2488              		.loc 1 605 67 is_stmt 1 view -0
 2489              		.cfi_startproc
 2490              		.loc 1 607 3 view .LVU778
 2491              	.LBB550:
 2492              	.LBI550:
 2493              		.loc 2 573 20 view .LVU779
 2494              		.loc 2 575 3 view .LVU780
 2495              	.LBB551:
 2496              	.LBI551:
 2497              		.loc 3 407 20 view .LVU781
 2498              		.loc 3 409 3 view .LVU782
 2499              	.LBB552:
 2500              	.LBI552:
 2501              		.loc 4 361 20 view .LVU783
 2502              	.LBB553:
 2503              		.loc 4 363 3 view .LVU784
 2504 0000 E8FCFFFF 		call	__x86.get_pc_thunk.dx
 2504      FF
 2505 0005 81C20200 		addl	$_GLOBAL_OFFSET_TABLE_, %edx
 2505      0000
 2506              	.LBE553:
 2507              	.LBE552:
 2508              	.LBE551:
 2509              	.LBE550:
 2510              		.loc 1 605 67 is_stmt 0 view .LVU785
 2511 000b 53       		pushl	%ebx
 2512              		.cfi_def_cfa_offset 8
 2513              		.cfi_offset 3, -8
 2514 000c 83EC08   		subl	$8, %esp
 2515              		.cfi_def_cfa_offset 16
 2516              		.loc 1 605 67 view .LVU786
 2517 000f 8B442410 		movl	16(%esp), %eax
 2518              	.LBB560:
 2519              	.LBB561:
 2520              		.loc 1 628 37 view .LVU787
 2521 0013 8B4C2414 		movl	20(%esp), %ecx
 2522              	.LBE561:
 2523              	.LBE560:
 2524              	.LBB564:
 2525              	.LBB558:
 2526              	.LBB556:
GAS LISTING /tmp/ccNgdVMZ.s 			page 47


 2527              	.LBB554:
 2528              		.loc 4 363 16 view .LVU788
 2529 0017 8B9A0000 		movl	port_irq_sts@GOT(%edx), %ebx
 2529      0000
 2530              	.LBE554:
 2531              	.LBE556:
 2532              	.LBE558:
 2533              	.LBE564:
 2534              	.LBB565:
 2535              	.LBB562:
 2536              		.loc 1 628 27 view .LVU789
 2537 001d 8B5010   		movl	16(%eax), %edx
 2538              	.LBE562:
 2539              	.LBE565:
 2540              	.LBB566:
 2541              	.LBB559:
 2542              	.LBB557:
 2543              	.LBB555:
 2544              		.loc 4 363 16 view .LVU790
 2545 0020 C7030100 		movl	$1, (%ebx)
 2545      0000
 2546              	.LBE555:
 2547              	.LBE557:
 2548              		.loc 3 410 35 is_stmt 1 view .LVU791
 2549              		.loc 3 411 21 view .LVU792
 2550              	.LBE559:
 2551              	.LBE566:
 2552              		.loc 1 608 3 view .LVU793
 2553              	.LVL108:
 2554              	.LBB567:
 2555              	.LBI560:
 2556              		.loc 1 621 6 view .LVU794
 2557              	.LBB563:
 2558              		.loc 1 623 23 view .LVU795
 2559              		.loc 1 624 3 view .LVU796
 2560              		.loc 1 624 3 view .LVU797
 2561              		.loc 1 624 3 view .LVU798
 2562              		.loc 1 625 3 view .LVU799
 2563              		.loc 1 625 3 view .LVU800
 2564              		.loc 1 625 3 view .LVU801
 2565              		.loc 1 628 3 view .LVU802
 2566              		.loc 1 628 37 is_stmt 0 view .LVU803
 2567 0026 890A     		movl	%ecx, (%edx)
 2568              		.loc 1 631 3 is_stmt 1 view .LVU804
 2569              		.loc 1 631 7 is_stmt 0 view .LVU805
 2570 0028 8B480C   		movl	12(%eax), %ecx
 2571              	.LVL109:
 2572              		.loc 1 632 16 view .LVU806
 2573 002b 03501C   		addl	28(%eax), %edx
 2574              		.loc 1 631 17 view .LVU807
 2575 002e 83E901   		subl	$1, %ecx
 2576              		.loc 1 632 16 view .LVU808
 2577 0031 895010   		movl	%edx, 16(%eax)
 2578              		.loc 1 631 17 view .LVU809
 2579 0034 89480C   		movl	%ecx, 12(%eax)
 2580              		.loc 1 632 3 is_stmt 1 view .LVU810
 2581              		.loc 1 633 3 view .LVU811
GAS LISTING /tmp/ccNgdVMZ.s 			page 48


 2582              		.loc 1 633 6 is_stmt 0 view .LVU812
 2583 0037 3B5018   		cmpl	24(%eax), %edx
 2584 003a 7206     		jb	.L109
 2585              		.loc 1 634 5 is_stmt 1 view .LVU813
 2586              		.loc 1 634 18 is_stmt 0 view .LVU814
 2587 003c 8B5024   		movl	36(%eax), %edx
 2588 003f 895010   		movl	%edx, 16(%eax)
 2589              	.L109:
 2590              		.loc 1 638 3 is_stmt 1 view .LVU815
 2591              		.loc 1 641 11 is_stmt 0 view .LVU816
 2592 0042 8B5030   		movl	48(%eax), %edx
 2593              		.loc 1 638 13 view .LVU817
 2594 0045 C7402800 		movl	$0, 40(%eax)
 2594      000000
 2595              		.loc 1 641 3 is_stmt 1 view .LVU818
 2596              		.loc 1 641 6 is_stmt 0 view .LVU819
 2597 004c 85D2     		testl	%edx, %edx
 2598 004e 7409     		je	.L110
 2599              		.loc 1 642 5 is_stmt 1 view .LVU820
 2600 0050 83EC0C   		subl	$12, %esp
 2601              		.cfi_def_cfa_offset 28
 2602 0053 50       		pushl	%eax
 2603              		.cfi_def_cfa_offset 32
 2604 0054 FFD2     		call	*%edx
 2605              	.LVL110:
 2606              		.loc 1 642 5 is_stmt 0 view .LVU821
 2607 0056 83C410   		addl	$16, %esp
 2608              		.cfi_def_cfa_offset 16
 2609              	.L110:
 2610              	.LVL111:
 2611              		.loc 1 642 5 view .LVU822
 2612              	.LBE563:
 2613              	.LBE567:
 2614              		.loc 1 609 3 is_stmt 1 view .LVU823
 2615              	.LBB568:
 2616              	.LBI568:
 2617              		.loc 2 584 20 view .LVU824
 2618              		.loc 2 586 3 view .LVU825
 2619              	.LBB569:
 2620              	.LBI569:
 2621              		.loc 3 421 20 view .LVU826
 2622              	.LBB570:
 2623              		.loc 3 423 23 view .LVU827
 2624              		.loc 3 424 34 view .LVU828
 2625              		.loc 3 430 3 view .LVU829
 2626              		.loc 3 430 3 view .LVU830
 2627              		.loc 3 430 3 view .LVU831
 2628              		.loc 3 434 3 view .LVU832
 2629              	.LBB571:
 2630              	.LBI571:
 2631              		.loc 4 370 20 view .LVU833
 2632              	.LBB572:
 2633              		.loc 4 372 3 view .LVU834
 2634              		.loc 4 372 16 is_stmt 0 view .LVU835
 2635 0059 C7030000 		movl	$0, (%ebx)
 2635      0000
 2636              	.LBE572:
GAS LISTING /tmp/ccNgdVMZ.s 			page 49


 2637              	.LBE571:
 2638              	.LBE570:
 2639              	.LBE569:
 2640              	.LBE568:
 2641              		.loc 1 610 1 view .LVU836
 2642 005f 83C408   		addl	$8, %esp
 2643              		.cfi_def_cfa_offset 8
 2644 0062 5B       		popl	%ebx
 2645              		.cfi_restore 3
 2646              		.cfi_def_cfa_offset 4
 2647 0063 C3       		ret
 2648              		.cfi_endproc
 2649              	.LFE327:
 2650              		.size	obqPostFullBuffer, .-obqPostFullBuffer
 2651              		.section	.text.obqPostFullBufferS,"ax",@progbits
 2652              		.p2align 4
 2653              		.globl	obqPostFullBufferS
 2654              		.type	obqPostFullBufferS, @function
 2655              	obqPostFullBufferS:
 2656              	.LVL112:
 2657              	.LFB328:
 2658              		.loc 1 621 68 is_stmt 1 view -0
 2659              		.cfi_startproc
 2660              		.loc 1 623 23 view .LVU838
 2661              		.loc 1 624 3 view .LVU839
 2662              		.loc 1 624 3 view .LVU840
 2663              		.loc 1 624 3 view .LVU841
 2664              		.loc 1 625 3 view .LVU842
 2665              		.loc 1 625 3 view .LVU843
 2666              		.loc 1 625 3 view .LVU844
 2667              		.loc 1 628 3 view .LVU845
 2668              		.loc 1 621 68 is_stmt 0 view .LVU846
 2669 0000 8B442404 		movl	4(%esp), %eax
 2670              		.loc 1 628 37 view .LVU847
 2671 0004 8B4C2408 		movl	8(%esp), %ecx
 2672              		.loc 1 628 27 view .LVU848
 2673 0008 8B5010   		movl	16(%eax), %edx
 2674              		.loc 1 628 37 view .LVU849
 2675 000b 890A     		movl	%ecx, (%edx)
 2676              		.loc 1 631 3 is_stmt 1 view .LVU850
 2677              		.loc 1 631 7 is_stmt 0 view .LVU851
 2678 000d 8B480C   		movl	12(%eax), %ecx
 2679              		.loc 1 632 16 view .LVU852
 2680 0010 03501C   		addl	28(%eax), %edx
 2681              		.loc 1 631 17 view .LVU853
 2682 0013 83E901   		subl	$1, %ecx
 2683              		.loc 1 632 16 view .LVU854
 2684 0016 895010   		movl	%edx, 16(%eax)
 2685              		.loc 1 631 17 view .LVU855
 2686 0019 89480C   		movl	%ecx, 12(%eax)
 2687              		.loc 1 632 3 is_stmt 1 view .LVU856
 2688              		.loc 1 633 3 view .LVU857
 2689              		.loc 1 633 6 is_stmt 0 view .LVU858
 2690 001c 3B5018   		cmpl	24(%eax), %edx
 2691 001f 7206     		jb	.L116
 2692              		.loc 1 634 5 is_stmt 1 view .LVU859
 2693              		.loc 1 634 18 is_stmt 0 view .LVU860
GAS LISTING /tmp/ccNgdVMZ.s 			page 50


 2694 0021 8B5024   		movl	36(%eax), %edx
 2695 0024 895010   		movl	%edx, 16(%eax)
 2696              	.L116:
 2697              		.loc 1 638 3 is_stmt 1 view .LVU861
 2698              		.loc 1 641 11 is_stmt 0 view .LVU862
 2699 0027 8B5030   		movl	48(%eax), %edx
 2700              		.loc 1 638 13 view .LVU863
 2701 002a C7402800 		movl	$0, 40(%eax)
 2701      000000
 2702              		.loc 1 641 3 is_stmt 1 view .LVU864
 2703              		.loc 1 641 6 is_stmt 0 view .LVU865
 2704 0031 85D2     		testl	%edx, %edx
 2705 0033 740B     		je	.L115
 2706              		.loc 1 642 5 is_stmt 1 view .LVU866
 2707 0035 89442404 		movl	%eax, 4(%esp)
 2708              	.LVL113:
 2709              		.loc 1 642 5 is_stmt 0 view .LVU867
 2710 0039 FFE2     		jmp	*%edx
 2711              	.LVL114:
 2712 003b 8D742600 		.p2align 4,,10
 2712      90
 2713              		.p2align 3
 2714              	.L115:
 2715              		.loc 1 644 1 view .LVU868
 2716 0040 C3       		ret
 2717              		.cfi_endproc
 2718              	.LFE328:
 2719              		.size	obqPostFullBufferS, .-obqPostFullBufferS
 2720              		.section	.text.obqPutTimeout,"ax",@progbits
 2721              		.p2align 4
 2722              		.globl	obqPutTimeout
 2723              		.type	obqPutTimeout, @function
 2724              	obqPutTimeout:
 2725              	.LVL115:
 2726              	.LFB329:
 2727              		.loc 1 666 44 is_stmt 1 view -0
 2728              		.cfi_startproc
 2729              		.loc 1 666 44 is_stmt 0 view .LVU870
 2730 0000 55       		pushl	%ebp
 2731              		.cfi_def_cfa_offset 8
 2732              		.cfi_offset 5, -8
 2733 0001 57       		pushl	%edi
 2734              		.cfi_def_cfa_offset 12
 2735              		.cfi_offset 7, -12
 2736 0002 56       		pushl	%esi
 2737              		.cfi_def_cfa_offset 16
 2738              		.cfi_offset 6, -16
 2739 0003 53       		pushl	%ebx
 2740              		.cfi_def_cfa_offset 20
 2741              		.cfi_offset 3, -20
 2742 0004 E8FCFFFF 		call	__x86.get_pc_thunk.bx
 2742      FF
 2743 0009 81C30200 		addl	$_GLOBAL_OFFSET_TABLE_, %ebx
 2743      0000
 2744 000f 83EC0C   		subl	$12, %esp
 2745              		.cfi_def_cfa_offset 32
 2746              		.loc 1 666 44 view .LVU871
GAS LISTING /tmp/ccNgdVMZ.s 			page 51


 2747 0012 8B7C2420 		movl	32(%esp), %edi
 2748 0016 8B6C2424 		movl	36(%esp), %ebp
 2749              		.loc 1 667 3 is_stmt 1 view .LVU872
 2750              		.loc 1 669 3 view .LVU873
 2751              	.LBB599:
 2752              	.LBI599:
 2753              		.loc 2 573 20 view .LVU874
 2754              		.loc 2 575 3 view .LVU875
 2755              	.LBB600:
 2756              	.LBI600:
 2757              		.loc 3 407 20 view .LVU876
 2758              		.loc 3 409 3 view .LVU877
 2759              	.LBB601:
 2760              	.LBI601:
 2761              		.loc 4 361 20 view .LVU878
 2762              	.LBB602:
 2763              		.loc 4 363 3 view .LVU879
 2764              	.LBE602:
 2765              	.LBE601:
 2766              	.LBE600:
 2767              	.LBE599:
 2768              		.loc 1 672 11 is_stmt 0 view .LVU880
 2769 001a 8B4728   		movl	40(%edi), %eax
 2770              	.LBB606:
 2771              	.LBB605:
 2772              	.LBB604:
 2773              	.LBB603:
 2774              		.loc 4 363 16 view .LVU881
 2775 001d 8BB30000 		movl	port_irq_sts@GOT(%ebx), %esi
 2775      0000
 2776 0023 C7060100 		movl	$1, (%esi)
 2776      0000
 2777              	.LBE603:
 2778              	.LBE604:
 2779              		.loc 3 410 35 is_stmt 1 view .LVU882
 2780              		.loc 3 411 21 view .LVU883
 2781              	.LBE605:
 2782              	.LBE606:
 2783              		.loc 1 672 3 view .LVU884
 2784              		.loc 1 672 6 is_stmt 0 view .LVU885
 2785 0029 85C0     		testl	%eax, %eax
 2786 002b 743D     		je	.L119
 2787              	.L120:
 2788              		.loc 1 681 3 is_stmt 1 view .LVU886
 2789              		.loc 1 681 14 is_stmt 0 view .LVU887
 2790 002d 89EA     		movl	%ebp, %edx
 2791 002f 8810     		movb	%dl, (%eax)
 2792              		.loc 1 682 3 is_stmt 1 view .LVU888
 2793              		.loc 1 682 12 is_stmt 0 view .LVU889
 2794 0031 8B4728   		movl	40(%edi), %eax
 2795 0034 83C001   		addl	$1, %eax
 2796 0037 894728   		movl	%eax, 40(%edi)
 2797              		.loc 1 686 3 is_stmt 1 view .LVU890
 2798              		.loc 1 686 6 is_stmt 0 view .LVU891
 2799 003a 3B472C   		cmpl	44(%edi), %eax
 2800 003d 7349     		jnb	.L136
 2801              	.L124:
GAS LISTING /tmp/ccNgdVMZ.s 			page 52


 2802              		.loc 1 690 3 is_stmt 1 view .LVU892
 2803              		.loc 1 691 3 view .LVU893
 2804              		.loc 1 691 10 is_stmt 0 view .LVU894
 2805 003f 31C0     		xorl	%eax, %eax
 2806              	.L127:
 2807              	.LBB607:
 2808              	.LBB608:
 2809              	.LBB609:
 2810              	.LBB610:
 2811              	.LBB611:
 2812              		.loc 4 372 16 view .LVU895
 2813 0041 C7060000 		movl	$0, (%esi)
 2813      0000
 2814              	.LBE611:
 2815              	.LBE610:
 2816              	.LBE609:
 2817              	.LBE608:
 2818              	.LBE607:
 2819              		.loc 1 692 1 view .LVU896
 2820 0047 83C40C   		addl	$12, %esp
 2821              		.cfi_remember_state
 2822              		.cfi_def_cfa_offset 20
 2823 004a 5B       		popl	%ebx
 2824              		.cfi_restore 3
 2825              		.cfi_def_cfa_offset 16
 2826 004b 5E       		popl	%esi
 2827              		.cfi_restore 6
 2828              		.cfi_def_cfa_offset 12
 2829 004c 5F       		popl	%edi
 2830              		.cfi_restore 7
 2831              		.cfi_def_cfa_offset 8
 2832 004d 5D       		popl	%ebp
 2833              		.cfi_restore 5
 2834              		.cfi_def_cfa_offset 4
 2835 004e C3       		ret
 2836 004f 90       		.p2align 4,,10
 2837              		.p2align 3
 2838              	.L122:
 2839              		.cfi_restore_state
 2840              	.LBB616:
 2841              	.LBB617:
 2842              	.LBB618:
 2843              		.loc 1 578 5 is_stmt 1 view .LVU897
 2844              		.loc 1 578 8 is_stmt 0 view .LVU898
 2845 0050 807F0800 		cmpb	$0, 8(%edi)
 2846 0054 757A     		jne	.L128
 2847              		.loc 1 581 5 is_stmt 1 view .LVU899
 2848              	.LVL116:
 2849              	.LBB619:
 2850              	.LBI619:
 2851              		.loc 2 892 21 view .LVU900
 2852              	.LBB620:
 2853              		.loc 2 895 3 view .LVU901
 2854              		.loc 2 895 10 is_stmt 0 view .LVU902
 2855 0056 83EC08   		subl	$8, %esp
 2856              		.cfi_def_cfa_offset 40
 2857 0059 FF742430 		pushl	48(%esp)
GAS LISTING /tmp/ccNgdVMZ.s 			page 53


 2858              		.cfi_def_cfa_offset 44
 2859 005d 57       		pushl	%edi
 2860              		.cfi_def_cfa_offset 48
 2861 005e E8FCFFFF 		call	chThdEnqueueTimeoutS@PLT
 2861      FF
 2862              	.LVL117:
 2863              		.loc 2 895 10 view .LVU903
 2864              	.LBE620:
 2865              	.LBE619:
 2866              		.loc 1 582 5 is_stmt 1 view .LVU904
 2867              		.loc 1 582 8 is_stmt 0 view .LVU905
 2868 0063 83C410   		addl	$16, %esp
 2869              		.cfi_def_cfa_offset 32
 2870 0066 85C0     		testl	%eax, %eax
 2871 0068 78D7     		js	.L127
 2872              	.LVL118:
 2873              	.L119:
 2874              		.loc 1 582 8 view .LVU906
 2875              	.LBE618:
 2876              		.loc 1 577 10 is_stmt 1 view .LVU907
 2877 006a 8B470C   		movl	12(%edi), %eax
 2878 006d 85C0     		testl	%eax, %eax
 2879 006f 74DF     		je	.L122
 2880              	.LVL119:
 2881              	.LBB621:
 2882              	.LBI621:
 2883              		.loc 1 572 7 view .LVU908
 2884              	.LBB622:
 2885              		.loc 1 587 3 view .LVU909
 2886              		.loc 1 587 3 view .LVU910
 2887              		.loc 1 587 3 view .LVU911
 2888              		.loc 1 590 3 view .LVU912
 2889              		.loc 1 590 19 is_stmt 0 view .LVU913
 2890 0071 8B4F10   		movl	16(%edi), %ecx
 2891              		.loc 1 590 28 view .LVU914
 2892 0074 8D4104   		leal	4(%ecx), %eax
 2893              		.loc 1 591 28 view .LVU915
 2894 0077 034F1C   		addl	28(%edi), %ecx
 2895              		.loc 1 590 13 view .LVU916
 2896 007a 894728   		movl	%eax, 40(%edi)
 2897              		.loc 1 591 3 is_stmt 1 view .LVU917
 2898              		.loc 1 591 13 is_stmt 0 view .LVU918
 2899 007d 894F2C   		movl	%ecx, 44(%edi)
 2900              		.loc 1 593 3 is_stmt 1 view .LVU919
 2901              	.LVL120:
 2902              		.loc 1 593 3 is_stmt 0 view .LVU920
 2903              	.LBE622:
 2904              	.LBE621:
 2905              	.LBE617:
 2906              	.LBE616:
 2907              		.loc 1 674 5 is_stmt 1 view .LVU921
 2908 0080 EBAB     		jmp	.L120
 2909              	.LVL121:
 2910              		.p2align 4,,10
 2911 0082 8DB60000 		.p2align 3
 2911      0000
 2912              	.L136:
GAS LISTING /tmp/ccNgdVMZ.s 			page 54


 2913              		.loc 1 687 5 view .LVU922
 2914              	.LBB625:
 2915              	.LBI625:
 2916              		.loc 1 621 6 view .LVU923
 2917              	.LBB626:
 2918              		.loc 1 623 23 view .LVU924
 2919              		.loc 1 624 3 view .LVU925
 2920              		.loc 1 624 3 view .LVU926
 2921              		.loc 1 624 3 view .LVU927
 2922              		.loc 1 625 3 view .LVU928
 2923              		.loc 1 625 3 view .LVU929
 2924              		.loc 1 625 3 view .LVU930
 2925              		.loc 1 628 3 view .LVU931
 2926              	.LBE626:
 2927              	.LBE625:
 2928              		.loc 1 687 5 is_stmt 0 view .LVU932
 2929 0088 8B571C   		movl	28(%edi), %edx
 2930              	.LBB629:
 2931              	.LBB627:
 2932              		.loc 1 628 27 view .LVU933
 2933 008b 8B4710   		movl	16(%edi), %eax
 2934              	.LBE627:
 2935              	.LBE629:
 2936              		.loc 1 687 5 view .LVU934
 2937 008e 8D4AFC   		leal	-4(%edx), %ecx
 2938              	.LVL122:
 2939              	.LBB630:
 2940              	.LBB628:
 2941              		.loc 1 628 37 view .LVU935
 2942 0091 8908     		movl	%ecx, (%eax)
 2943              		.loc 1 631 3 is_stmt 1 view .LVU936
 2944              		.loc 1 631 7 is_stmt 0 view .LVU937
 2945 0093 8B4F0C   		movl	12(%edi), %ecx
 2946              	.LVL123:
 2947              		.loc 1 632 16 view .LVU938
 2948 0096 03471C   		addl	28(%edi), %eax
 2949              	.LVL124:
 2950              		.loc 1 631 17 view .LVU939
 2951 0099 83E901   		subl	$1, %ecx
 2952              		.loc 1 632 16 view .LVU940
 2953 009c 894710   		movl	%eax, 16(%edi)
 2954              	.LVL125:
 2955              		.loc 1 631 17 view .LVU941
 2956 009f 894F0C   		movl	%ecx, 12(%edi)
 2957              		.loc 1 632 3 is_stmt 1 view .LVU942
 2958              		.loc 1 633 3 view .LVU943
 2959              		.loc 1 633 6 is_stmt 0 view .LVU944
 2960 00a2 3B4718   		cmpl	24(%edi), %eax
 2961 00a5 7321     		jnb	.L137
 2962              	.L125:
 2963              		.loc 1 638 3 is_stmt 1 view .LVU945
 2964              		.loc 1 641 11 is_stmt 0 view .LVU946
 2965 00a7 8B4730   		movl	48(%edi), %eax
 2966              		.loc 1 638 13 view .LVU947
 2967 00aa C7472800 		movl	$0, 40(%edi)
 2967      000000
 2968              		.loc 1 641 3 is_stmt 1 view .LVU948
GAS LISTING /tmp/ccNgdVMZ.s 			page 55


 2969              		.loc 1 641 6 is_stmt 0 view .LVU949
 2970 00b1 85C0     		testl	%eax, %eax
 2971 00b3 748A     		je	.L124
 2972              		.loc 1 642 5 is_stmt 1 view .LVU950
 2973 00b5 83EC0C   		subl	$12, %esp
 2974              		.cfi_def_cfa_offset 44
 2975 00b8 57       		pushl	%edi
 2976              		.cfi_def_cfa_offset 48
 2977 00b9 FFD0     		call	*%eax
 2978              	.LVL126:
 2979              		.loc 1 642 5 is_stmt 0 view .LVU951
 2980 00bb 83C410   		addl	$16, %esp
 2981              		.cfi_def_cfa_offset 32
 2982 00be E97CFFFF 		jmp	.L124
 2982      FF
 2983              	.LVL127:
 2984              		.p2align 4,,10
 2985 00c3 8D742600 		.p2align 3
 2985      90
 2986              	.L137:
 2987              		.loc 1 634 5 is_stmt 1 view .LVU952
 2988              		.loc 1 634 18 is_stmt 0 view .LVU953
 2989 00c8 8B4724   		movl	36(%edi), %eax
 2990 00cb 894710   		movl	%eax, 16(%edi)
 2991 00ce EBD7     		jmp	.L125
 2992              	.LVL128:
 2993              		.p2align 4,,10
 2994              		.p2align 3
 2995              	.L128:
 2996              		.loc 1 634 18 view .LVU954
 2997              	.LBE628:
 2998              	.LBE630:
 2999              	.LBB631:
 3000              	.LBB624:
 3001              	.LBB623:
 3002              		.loc 1 579 14 view .LVU955
 3003 00d0 B8FEFFFF 		movl	$-2, %eax
 3003      FF
 3004              	.LVL129:
 3005              		.loc 1 579 14 view .LVU956
 3006              	.LBE623:
 3007              	.LBE624:
 3008              	.LBE631:
 3009              		.loc 1 674 5 is_stmt 1 view .LVU957
 3010              		.loc 1 675 7 view .LVU958
 3011              	.LBB632:
 3012              	.LBI607:
 3013              		.loc 2 584 20 view .LVU959
 3014              		.loc 2 586 3 view .LVU960
 3015              	.LBB615:
 3016              	.LBI608:
 3017              		.loc 3 421 20 view .LVU961
 3018              	.LBB614:
 3019              		.loc 3 423 23 view .LVU962
 3020              		.loc 3 424 34 view .LVU963
 3021              		.loc 3 430 3 view .LVU964
 3022              		.loc 3 430 3 view .LVU965
GAS LISTING /tmp/ccNgdVMZ.s 			page 56


 3023              		.loc 3 430 3 view .LVU966
 3024              		.loc 3 434 3 view .LVU967
 3025              	.LBB613:
 3026              	.LBI610:
 3027              		.loc 4 370 20 view .LVU968
 3028              	.LBB612:
 3029              		.loc 4 372 3 view .LVU969
 3030              	.LBE612:
 3031              	.LBE613:
 3032              	.LBE614:
 3033              	.LBE615:
 3034              	.LBE632:
 3035              		.loc 1 676 7 view .LVU970
 3036              		.loc 1 676 14 is_stmt 0 view .LVU971
 3037 00d5 E967FFFF 		jmp	.L127
 3037      FF
 3038              		.cfi_endproc
 3039              	.LFE329:
 3040              		.size	obqPutTimeout, .-obqPutTimeout
 3041              		.section	.text.obqWriteTimeout,"ax",@progbits
 3042              		.p2align 4
 3043              		.globl	obqWriteTimeout
 3044              		.type	obqWriteTimeout, @function
 3045              	obqWriteTimeout:
 3046              	.LVL130:
 3047              	.LFB330:
 3048              		.loc 1 715 57 is_stmt 1 view -0
 3049              		.cfi_startproc
 3050              		.loc 1 716 3 view .LVU973
 3051              		.loc 1 718 3 view .LVU974
 3052              		.loc 1 718 3 view .LVU975
 3053              		.loc 1 718 3 view .LVU976
 3054              		.loc 1 720 3 view .LVU977
 3055              	.LBB671:
 3056              	.LBI671:
 3057              		.loc 2 573 20 view .LVU978
 3058              	.LBB672:
 3059              		.loc 2 575 3 view .LVU979
 3060              	.LBB673:
 3061              	.LBI673:
 3062              		.loc 3 407 20 view .LVU980
 3063              		.loc 3 409 3 view .LVU981
 3064              	.LBB674:
 3065              	.LBI674:
 3066              		.loc 4 361 20 view .LVU982
 3067              	.LBB675:
 3068              		.loc 4 363 3 view .LVU983
 3069              	.LBE675:
 3070              	.LBE674:
 3071              		.loc 3 410 35 view .LVU984
 3072              		.loc 3 411 21 view .LVU985
 3073              	.LBE673:
 3074              	.LBE672:
 3075              	.LBE671:
 3076              		.loc 1 715 57 is_stmt 0 view .LVU986
 3077 0000 55       		pushl	%ebp
 3078              		.cfi_def_cfa_offset 8
GAS LISTING /tmp/ccNgdVMZ.s 			page 57


 3079              		.cfi_offset 5, -8
 3080              		.loc 1 716 10 view .LVU987
 3081 0001 31ED     		xorl	%ebp, %ebp
 3082              		.loc 1 715 57 view .LVU988
 3083 0003 57       		pushl	%edi
 3084              		.cfi_def_cfa_offset 12
 3085              		.cfi_offset 7, -12
 3086 0004 56       		pushl	%esi
 3087              		.cfi_def_cfa_offset 16
 3088              		.cfi_offset 6, -16
 3089 0005 53       		pushl	%ebx
 3090              		.cfi_def_cfa_offset 20
 3091              		.cfi_offset 3, -20
 3092 0006 E8FCFFFF 		call	__x86.get_pc_thunk.bx
 3092      FF
 3093 000b 81C30200 		addl	$_GLOBAL_OFFSET_TABLE_, %ebx
 3093      0000
 3094 0011 83EC1C   		subl	$28, %esp
 3095              		.cfi_def_cfa_offset 48
 3096              		.loc 1 715 57 view .LVU989
 3097 0014 8B742430 		movl	48(%esp), %esi
 3098 0018 8B7C2434 		movl	52(%esp), %edi
 3099 001c 8B830000 		movl	port_irq_sts@GOT(%ebx), %eax
 3099      0000
 3100 0022 89442408 		movl	%eax, 8(%esp)
 3101              	.LBB681:
 3102              	.LBB679:
 3103              		.loc 2 576 1 view .LVU990
 3104 0026 E9810000 		jmp	.L149
 3104      00
 3105              	.LVL131:
 3106 002b 8D742600 		.p2align 4,,10
 3106      90
 3107              		.p2align 3
 3108              	.L160:
 3109              		.loc 2 576 1 view .LVU991
 3110              	.LBE679:
 3111              	.LBE681:
 3112              	.LBB682:
 3113              		.loc 1 749 7 is_stmt 1 view .LVU992
 3114              	.LBB683:
 3115              	.LBI683:
 3116              		.loc 5 26 1 view .LVU993
 3117              	.LBB684:
 3118              		.loc 5 29 3 view .LVU994
 3119              		.loc 5 29 10 is_stmt 0 view .LVU995
 3120 0030 8B17     		movl	(%edi), %edx
 3121              	.LVL132:
 3122              		.loc 5 29 10 view .LVU996
 3123              	.LBE684:
 3124              	.LBE683:
 3125              		.loc 1 752 17 view .LVU997
 3126 0032 83C540   		addl	$64, %ebp
 3127              	.LVL133:
 3128              		.loc 1 750 17 view .LVU998
 3129 0035 83C740   		addl	$64, %edi
 3130              	.LVL134:
GAS LISTING /tmp/ccNgdVMZ.s 			page 58


 3131              	.LBB686:
 3132              	.LBB685:
 3133              		.loc 5 29 10 view .LVU999
 3134 0038 8910     		movl	%edx, (%eax)
 3135              	.LVL135:
 3136              		.loc 5 29 10 view .LVU1000
 3137 003a 8B57C4   		movl	-60(%edi), %edx
 3138 003d 895004   		movl	%edx, 4(%eax)
 3139 0040 8B57C8   		movl	-56(%edi), %edx
 3140 0043 895008   		movl	%edx, 8(%eax)
 3141 0046 8B57CC   		movl	-52(%edi), %edx
 3142 0049 89500C   		movl	%edx, 12(%eax)
 3143 004c 8B57D0   		movl	-48(%edi), %edx
 3144 004f 895010   		movl	%edx, 16(%eax)
 3145 0052 8B57D4   		movl	-44(%edi), %edx
 3146 0055 895014   		movl	%edx, 20(%eax)
 3147 0058 8B57D8   		movl	-40(%edi), %edx
 3148 005b 895018   		movl	%edx, 24(%eax)
 3149 005e 8B57DC   		movl	-36(%edi), %edx
 3150 0061 89501C   		movl	%edx, 28(%eax)
 3151 0064 8B57E0   		movl	-32(%edi), %edx
 3152 0067 895020   		movl	%edx, 32(%eax)
 3153 006a 8B57E4   		movl	-28(%edi), %edx
 3154 006d 895024   		movl	%edx, 36(%eax)
 3155 0070 8B57E8   		movl	-24(%edi), %edx
 3156 0073 895028   		movl	%edx, 40(%eax)
 3157 0076 8B57EC   		movl	-20(%edi), %edx
 3158 0079 89502C   		movl	%edx, 44(%eax)
 3159 007c 8B57F0   		movl	-16(%edi), %edx
 3160 007f 895030   		movl	%edx, 48(%eax)
 3161 0082 8B57F4   		movl	-12(%edi), %edx
 3162 0085 895034   		movl	%edx, 52(%eax)
 3163 0088 8B57F8   		movl	-8(%edi), %edx
 3164 008b 895038   		movl	%edx, 56(%eax)
 3165 008e 8B57FC   		movl	-4(%edi), %edx
 3166 0091 89503C   		movl	%edx, 60(%eax)
 3167              	.LVL136:
 3168              		.loc 5 29 10 view .LVU1001
 3169              	.LBE685:
 3170              	.LBE686:
 3171              		.loc 1 750 7 is_stmt 1 view .LVU1002
 3172              		.loc 1 751 7 view .LVU1003
 3173              		.loc 1 751 17 is_stmt 0 view .LVU1004
 3174 0094 8B4628   		movl	40(%esi), %eax
 3175 0097 83C040   		addl	$64, %eax
 3176              		.loc 1 752 7 is_stmt 1 view .LVU1005
 3177              	.LVL137:
 3178              		.loc 1 751 17 is_stmt 0 view .LVU1006
 3179 009a 894628   		movl	%eax, 40(%esi)
 3180              		.loc 1 762 5 is_stmt 1 view .LVU1007
 3181              		.loc 1 762 8 is_stmt 0 view .LVU1008
 3182 009d 39462C   		cmpl	%eax, 44(%esi)
 3183 00a0 765F     		jbe	.L159
 3184              	.L146:
 3185              		.loc 1 767 5 is_stmt 1 view .LVU1009
 3186              	.LBB687:
 3187              	.LBI687:
GAS LISTING /tmp/ccNgdVMZ.s 			page 59


 3188              		.loc 2 584 20 view .LVU1010
 3189              		.loc 2 586 3 view .LVU1011
 3190              	.LBB688:
 3191              	.LBI688:
 3192              		.loc 3 421 20 view .LVU1012
 3193              	.LBB689:
 3194              		.loc 3 423 23 view .LVU1013
 3195              		.loc 3 424 34 view .LVU1014
 3196              		.loc 3 430 3 view .LVU1015
 3197              		.loc 3 430 3 view .LVU1016
 3198              		.loc 3 430 3 view .LVU1017
 3199              		.loc 3 434 3 view .LVU1018
 3200              	.LBB690:
 3201              	.LBI690:
 3202              		.loc 4 370 20 view .LVU1019
 3203              	.LBB691:
 3204              		.loc 4 372 3 view .LVU1020
 3205              	.LBE691:
 3206              	.LBE690:
 3207              	.LBE689:
 3208              	.LBE688:
 3209              	.LBE687:
 3210              		.loc 1 768 5 view .LVU1021
 3211              		.loc 1 768 8 is_stmt 0 view .LVU1022
 3212 00a2 3B6C2438 		cmpl	56(%esp), %ebp
 3213 00a6 0F839F00 		jnb	.L141
 3213      0000
 3214              	.LVL138:
 3215              	.L149:
 3216              		.loc 1 768 8 view .LVU1023
 3217              	.LBE682:
 3218              	.LBB720:
 3219              	.LBB680:
 3220              	.LBB678:
 3221              	.LBB677:
 3222              	.LBB676:
 3223              		.loc 4 363 16 view .LVU1024
 3224 00ac 8B442408 		movl	8(%esp), %eax
 3225 00b0 C7000100 		movl	$1, (%eax)
 3225      0000
 3226              	.LVL139:
 3227              		.loc 4 363 16 view .LVU1025
 3228              	.LBE676:
 3229              	.LBE677:
 3230              	.LBE678:
 3231              	.LBE680:
 3232              	.LBE720:
 3233              		.loc 1 722 3 is_stmt 1 view .LVU1026
 3234              	.LBB721:
 3235              		.loc 1 723 5 view .LVU1027
 3236              		.loc 1 726 5 view .LVU1028
 3237              		.loc 1 726 13 is_stmt 0 view .LVU1029
 3238 00b6 8B4628   		movl	40(%esi), %eax
 3239              		.loc 1 726 8 view .LVU1030
 3240 00b9 85C0     		testl	%eax, %eax
 3241 00bb 0F849F00 		je	.L157
 3241      0000
GAS LISTING /tmp/ccNgdVMZ.s 			page 60


 3242              		.loc 1 740 24 view .LVU1031
 3243 00c1 8B562C   		movl	44(%esi), %edx
 3244              	.LVL140:
 3245              	.L140:
 3246              		.loc 1 740 5 is_stmt 1 view .LVU1032
 3247              		.loc 1 741 5 view .LVU1033
 3248              		.loc 1 741 19 is_stmt 0 view .LVU1034
 3249 00c4 8B4C2438 		movl	56(%esp), %ecx
 3250              		.loc 1 740 10 view .LVU1035
 3251 00c8 29C2     		subl	%eax, %edx
 3252              	.LVL141:
 3253              		.loc 1 741 19 view .LVU1036
 3254 00ca 29E9     		subl	%ebp, %ecx
 3255 00cc 39D1     		cmpl	%edx, %ecx
 3256 00ce 0F46D1   		cmovbe	%ecx, %edx
 3257              	.LVL142:
 3258              		.loc 1 747 5 is_stmt 1 view .LVU1037
 3259              		.loc 1 747 8 is_stmt 0 view .LVU1038
 3260 00d1 83FA40   		cmpl	$64, %edx
 3261 00d4 0F8756FF 		ja	.L160
 3261      FFFF
 3262              		.loc 1 755 7 is_stmt 1 view .LVU1039
 3263              	.LVL143:
 3264              	.LBB696:
 3265              	.LBI696:
 3266              		.loc 5 26 1 view .LVU1040
 3267              	.LBB697:
 3268              		.loc 5 29 3 view .LVU1041
 3269              		.loc 5 29 10 is_stmt 0 view .LVU1042
 3270 00da 83EC04   		subl	$4, %esp
 3271              		.cfi_def_cfa_offset 52
 3272 00dd 52       		pushl	%edx
 3273              		.cfi_def_cfa_offset 56
 3274 00de 89542414 		movl	%edx, 20(%esp)
 3275 00e2 57       		pushl	%edi
 3276              		.cfi_def_cfa_offset 60
 3277              	.LVL144:
 3278              		.loc 5 29 10 view .LVU1043
 3279 00e3 50       		pushl	%eax
 3280              		.cfi_def_cfa_offset 64
 3281 00e4 E8FCFFFF 		call	memcpy@PLT
 3281      FF
 3282              	.LVL145:
 3283              		.loc 5 29 10 view .LVU1044
 3284              	.LBE697:
 3285              	.LBE696:
 3286              		.loc 1 756 7 is_stmt 1 view .LVU1045
 3287              		.loc 1 756 17 is_stmt 0 view .LVU1046
 3288 00e9 8B54241C 		movl	28(%esp), %edx
 3289              		.loc 1 757 17 view .LVU1047
 3290 00ed 8B4628   		movl	40(%esi), %eax
 3291              		.loc 1 758 17 view .LVU1048
 3292 00f0 83C410   		addl	$16, %esp
 3293              		.cfi_def_cfa_offset 48
 3294              		.loc 1 757 17 view .LVU1049
 3295 00f3 01D0     		addl	%edx, %eax
 3296              		.loc 1 756 17 view .LVU1050
GAS LISTING /tmp/ccNgdVMZ.s 			page 61


 3297 00f5 01D7     		addl	%edx, %edi
 3298              	.LVL146:
 3299              		.loc 1 757 7 is_stmt 1 view .LVU1051
 3300              		.loc 1 758 7 view .LVU1052
 3301              		.loc 1 758 17 is_stmt 0 view .LVU1053
 3302 00f7 01D5     		addl	%edx, %ebp
 3303              	.LVL147:
 3304              		.loc 1 751 17 view .LVU1054
 3305 00f9 894628   		movl	%eax, 40(%esi)
 3306              		.loc 1 762 5 is_stmt 1 view .LVU1055
 3307              		.loc 1 762 8 is_stmt 0 view .LVU1056
 3308 00fc 39462C   		cmpl	%eax, 44(%esi)
 3309 00ff 77A1     		ja	.L146
 3310              	.LVL148:
 3311              	.L159:
 3312              		.loc 1 763 7 is_stmt 1 view .LVU1057
 3313              	.LBB698:
 3314              	.LBI698:
 3315              		.loc 1 621 6 view .LVU1058
 3316              	.LBB699:
 3317              		.loc 1 623 23 view .LVU1059
 3318              		.loc 1 624 3 view .LVU1060
 3319              		.loc 1 624 3 view .LVU1061
 3320              		.loc 1 624 3 view .LVU1062
 3321              		.loc 1 625 3 view .LVU1063
 3322              		.loc 1 625 3 view .LVU1064
 3323              		.loc 1 625 3 view .LVU1065
 3324              		.loc 1 628 3 view .LVU1066
 3325              	.LBE699:
 3326              	.LBE698:
 3327              		.loc 1 763 7 is_stmt 0 view .LVU1067
 3328 0101 8B4E1C   		movl	28(%esi), %ecx
 3329              	.LBB702:
 3330              	.LBB700:
 3331              		.loc 1 628 27 view .LVU1068
 3332 0104 8B4610   		movl	16(%esi), %eax
 3333              	.LBE700:
 3334              	.LBE702:
 3335              		.loc 1 763 7 view .LVU1069
 3336 0107 8D51FC   		leal	-4(%ecx), %edx
 3337              	.LVL149:
 3338              	.LBB703:
 3339              	.LBB701:
 3340              		.loc 1 628 37 view .LVU1070
 3341 010a 8910     		movl	%edx, (%eax)
 3342              		.loc 1 631 3 is_stmt 1 view .LVU1071
 3343              		.loc 1 631 7 is_stmt 0 view .LVU1072
 3344 010c 8B560C   		movl	12(%esi), %edx
 3345              	.LVL150:
 3346              		.loc 1 632 16 view .LVU1073
 3347 010f 03461C   		addl	28(%esi), %eax
 3348              	.LVL151:
 3349              		.loc 1 631 17 view .LVU1074
 3350 0112 83EA01   		subl	$1, %edx
 3351              		.loc 1 632 16 view .LVU1075
 3352 0115 894610   		movl	%eax, 16(%esi)
 3353              	.LVL152:
GAS LISTING /tmp/ccNgdVMZ.s 			page 62


 3354              		.loc 1 631 17 view .LVU1076
 3355 0118 89560C   		movl	%edx, 12(%esi)
 3356              		.loc 1 632 3 is_stmt 1 view .LVU1077
 3357              		.loc 1 633 3 view .LVU1078
 3358              		.loc 1 633 6 is_stmt 0 view .LVU1079
 3359 011b 3B4618   		cmpl	24(%esi), %eax
 3360 011e 7206     		jb	.L147
 3361              		.loc 1 634 5 is_stmt 1 view .LVU1080
 3362              		.loc 1 634 18 is_stmt 0 view .LVU1081
 3363 0120 8B4624   		movl	36(%esi), %eax
 3364 0123 894610   		movl	%eax, 16(%esi)
 3365              	.L147:
 3366              		.loc 1 638 3 is_stmt 1 view .LVU1082
 3367              		.loc 1 641 11 is_stmt 0 view .LVU1083
 3368 0126 8B4630   		movl	48(%esi), %eax
 3369              		.loc 1 638 13 view .LVU1084
 3370 0129 C7462800 		movl	$0, 40(%esi)
 3370      000000
 3371              		.loc 1 641 3 is_stmt 1 view .LVU1085
 3372              		.loc 1 641 6 is_stmt 0 view .LVU1086
 3373 0130 85C0     		testl	%eax, %eax
 3374 0132 0F846AFF 		je	.L146
 3374      FFFF
 3375              		.loc 1 642 5 is_stmt 1 view .LVU1087
 3376 0138 83EC0C   		subl	$12, %esp
 3377              		.cfi_def_cfa_offset 60
 3378 013b 56       		pushl	%esi
 3379              		.cfi_def_cfa_offset 64
 3380 013c FFD0     		call	*%eax
 3381              	.LVL153:
 3382              		.loc 1 642 5 is_stmt 0 view .LVU1088
 3383 013e 83C410   		addl	$16, %esp
 3384              		.cfi_def_cfa_offset 48
 3385              	.LVL154:
 3386              		.loc 1 642 5 view .LVU1089
 3387              	.LBE701:
 3388              	.LBE703:
 3389              		.loc 1 767 5 is_stmt 1 view .LVU1090
 3390              	.LBB704:
 3391              		.loc 2 584 20 view .LVU1091
 3392              		.loc 2 586 3 view .LVU1092
 3393              	.LBB695:
 3394              		.loc 3 421 20 view .LVU1093
 3395              	.LBB694:
 3396              		.loc 3 423 23 view .LVU1094
 3397              		.loc 3 424 34 view .LVU1095
 3398              		.loc 3 430 3 view .LVU1096
 3399              		.loc 3 430 3 view .LVU1097
 3400              		.loc 3 430 3 view .LVU1098
 3401              		.loc 3 434 3 view .LVU1099
 3402              	.LBB693:
 3403              		.loc 4 370 20 view .LVU1100
 3404              	.LBB692:
 3405              		.loc 4 372 3 view .LVU1101
 3406              	.LBE692:
 3407              	.LBE693:
 3408              	.LBE694:
GAS LISTING /tmp/ccNgdVMZ.s 			page 63


 3409              	.LBE695:
 3410              	.LBE704:
 3411              		.loc 1 768 5 view .LVU1102
 3412              		.loc 1 768 8 is_stmt 0 view .LVU1103
 3413 0141 3B6C2438 		cmpl	56(%esp), %ebp
 3414 0145 0F8261FF 		jb	.L149
 3414      FFFF
 3415              	.LVL155:
 3416              	.L141:
 3417              	.LBB705:
 3418              		.loc 1 733 7 is_stmt 1 view .LVU1104
 3419              		.loc 1 734 9 view .LVU1105
 3420              	.LBB706:
 3421              	.LBI706:
 3422              		.loc 2 584 20 view .LVU1106
 3423              		.loc 2 586 3 view .LVU1107
 3424              	.LBB707:
 3425              	.LBI707:
 3426              		.loc 3 421 20 view .LVU1108
 3427              	.LBB708:
 3428              		.loc 3 423 23 view .LVU1109
 3429              		.loc 3 424 34 view .LVU1110
 3430              		.loc 3 430 3 view .LVU1111
 3431              		.loc 3 430 3 view .LVU1112
 3432              		.loc 3 430 3 view .LVU1113
 3433              		.loc 3 434 3 view .LVU1114
 3434              	.LBB709:
 3435              	.LBI709:
 3436              		.loc 4 370 20 view .LVU1115
 3437              	.LBB710:
 3438              		.loc 4 372 3 view .LVU1116
 3439              		.loc 4 372 16 is_stmt 0 view .LVU1117
 3440 014b 8B442408 		movl	8(%esp), %eax
 3441 014f C7000000 		movl	$0, (%eax)
 3441      0000
 3442              	.LBE710:
 3443              	.LBE709:
 3444              	.LBE708:
 3445              	.LBE707:
 3446              	.LBE706:
 3447              		.loc 1 735 9 is_stmt 1 view .LVU1118
 3448              	.LBE705:
 3449              	.LBE721:
 3450              		.loc 1 773 1 is_stmt 0 view .LVU1119
 3451 0155 83C41C   		addl	$28, %esp
 3452              		.cfi_remember_state
 3453              		.cfi_def_cfa_offset 20
 3454 0158 89E8     		movl	%ebp, %eax
 3455 015a 5B       		popl	%ebx
 3456              		.cfi_restore 3
 3457              		.cfi_def_cfa_offset 16
 3458 015b 5E       		popl	%esi
 3459              		.cfi_restore 6
 3460              		.cfi_def_cfa_offset 12
 3461 015c 5F       		popl	%edi
 3462              		.cfi_restore 7
 3463              		.cfi_def_cfa_offset 8
GAS LISTING /tmp/ccNgdVMZ.s 			page 64


 3464 015d 5D       		popl	%ebp
 3465              		.cfi_restore 5
 3466              		.cfi_def_cfa_offset 4
 3467              	.LVL156:
 3468              		.loc 1 773 1 view .LVU1120
 3469 015e C3       		ret
 3470              	.LVL157:
 3471 015f 90       		.p2align 4,,10
 3472              		.p2align 3
 3473              	.L157:
 3474              		.cfi_restore_state
 3475              		.loc 1 773 1 view .LVU1121
 3476 0160 897C2434 		movl	%edi, 52(%esp)
 3477 0164 89F7     		movl	%esi, %edi
 3478              	.LVL158:
 3479              		.loc 1 773 1 view .LVU1122
 3480 0166 8B74243C 		movl	60(%esp), %esi
 3481 016a EB1B     		jmp	.L139
 3482 016c 8D742600 		.p2align 4,,10
 3483              		.p2align 3
 3484              	.L142:
 3485              	.LBB722:
 3486              	.LBB719:
 3487              	.LBB711:
 3488              	.LBB712:
 3489              	.LBB713:
 3490              		.loc 1 578 5 is_stmt 1 view .LVU1123
 3491              		.loc 1 578 8 is_stmt 0 view .LVU1124
 3492 0170 807F0800 		cmpb	$0, 8(%edi)
 3493 0174 75D5     		jne	.L141
 3494              		.loc 1 581 5 is_stmt 1 view .LVU1125
 3495              	.LVL159:
 3496              	.LBB714:
 3497              	.LBI714:
 3498              		.loc 2 892 21 view .LVU1126
 3499              	.LBB715:
 3500              		.loc 2 895 3 view .LVU1127
 3501              		.loc 2 895 10 is_stmt 0 view .LVU1128
 3502 0176 83EC08   		subl	$8, %esp
 3503              		.cfi_def_cfa_offset 56
 3504 0179 56       		pushl	%esi
 3505              		.cfi_def_cfa_offset 60
 3506 017a 57       		pushl	%edi
 3507              		.cfi_def_cfa_offset 64
 3508 017b E8FCFFFF 		call	chThdEnqueueTimeoutS@PLT
 3508      FF
 3509              	.LVL160:
 3510              		.loc 2 895 10 view .LVU1129
 3511              	.LBE715:
 3512              	.LBE714:
 3513              		.loc 1 582 5 is_stmt 1 view .LVU1130
 3514              		.loc 1 582 8 is_stmt 0 view .LVU1131
 3515 0180 83C410   		addl	$16, %esp
 3516              		.cfi_def_cfa_offset 48
 3517 0183 85C0     		testl	%eax, %eax
 3518 0185 78C4     		js	.L141
 3519              	.LVL161:
GAS LISTING /tmp/ccNgdVMZ.s 			page 65


 3520              	.L139:
 3521              		.loc 1 582 8 view .LVU1132
 3522              	.LBE713:
 3523              		.loc 1 577 10 is_stmt 1 view .LVU1133
 3524 0187 8B470C   		movl	12(%edi), %eax
 3525 018a 85C0     		testl	%eax, %eax
 3526 018c 74E2     		je	.L142
 3527              	.LBB716:
 3528              	.LBB717:
 3529              		.loc 1 590 19 is_stmt 0 view .LVU1134
 3530 018e 89FE     		movl	%edi, %esi
 3531 0190 8B7C2434 		movl	52(%esp), %edi
 3532              	.LVL162:
 3533              		.loc 1 590 19 view .LVU1135
 3534              	.LBE717:
 3535              	.LBI716:
 3536              		.loc 1 572 7 is_stmt 1 view .LVU1136
 3537              	.LBB718:
 3538              		.loc 1 587 3 view .LVU1137
 3539              		.loc 1 587 3 view .LVU1138
 3540              		.loc 1 587 3 view .LVU1139
 3541              		.loc 1 590 3 view .LVU1140
 3542              		.loc 1 590 19 is_stmt 0 view .LVU1141
 3543 0194 8B5610   		movl	16(%esi), %edx
 3544              		.loc 1 590 28 view .LVU1142
 3545 0197 8D4204   		leal	4(%edx), %eax
 3546              		.loc 1 591 28 view .LVU1143
 3547 019a 03561C   		addl	28(%esi), %edx
 3548              		.loc 1 590 13 view .LVU1144
 3549 019d 894628   		movl	%eax, 40(%esi)
 3550              		.loc 1 591 3 is_stmt 1 view .LVU1145
 3551              		.loc 1 591 13 is_stmt 0 view .LVU1146
 3552 01a0 89562C   		movl	%edx, 44(%esi)
 3553              		.loc 1 593 3 is_stmt 1 view .LVU1147
 3554              	.LVL163:
 3555              		.loc 1 593 3 is_stmt 0 view .LVU1148
 3556              	.LBE718:
 3557              	.LBE716:
 3558              	.LBE712:
 3559              	.LBE711:
 3560              		.loc 1 733 7 is_stmt 1 view .LVU1149
 3561 01a3 E91CFFFF 		jmp	.L140
 3561      FF
 3562              	.LBE719:
 3563              	.LBE722:
 3564              		.cfi_endproc
 3565              	.LFE330:
 3566              		.size	obqWriteTimeout, .-obqWriteTimeout
 3567              		.section	.text.obqTryFlushI,"ax",@progbits
 3568              		.p2align 4
 3569              		.globl	obqTryFlushI
 3570              		.type	obqTryFlushI, @function
 3571              	obqTryFlushI:
 3572              	.LVL164:
 3573              	.LFB331:
 3574              		.loc 1 788 49 view -0
 3575              		.cfi_startproc
GAS LISTING /tmp/ccNgdVMZ.s 			page 66


 3576              		.loc 1 790 23 view .LVU1151
 3577              		.loc 1 794 3 view .LVU1152
 3578              		.loc 1 788 49 is_stmt 0 view .LVU1153
 3579 0000 53       		pushl	%ebx
 3580              		.cfi_def_cfa_offset 8
 3581              		.cfi_offset 3, -8
 3582              		.loc 1 788 49 view .LVU1154
 3583 0001 8B442408 		movl	8(%esp), %eax
 3584              		.loc 1 815 10 view .LVU1155
 3585 0005 31DB     		xorl	%ebx, %ebx
 3586              		.loc 1 794 7 view .LVU1156
 3587 0007 8B5010   		movl	16(%eax), %edx
 3588 000a 3B5014   		cmpl	20(%eax), %edx
 3589 000d 7409     		je	.L170
 3590              	.L161:
 3591              		.loc 1 816 1 view .LVU1157
 3592 000f 89D8     		movl	%ebx, %eax
 3593 0011 5B       		popl	%ebx
 3594              		.cfi_remember_state
 3595              		.cfi_restore 3
 3596              		.cfi_def_cfa_offset 4
 3597 0012 C3       		ret
 3598              	.LVL165:
 3599              		.p2align 4,,10
 3600 0013 8D742600 		.p2align 3
 3600      90
 3601              	.L170:
 3602              		.cfi_restore_state
 3603              		.loc 1 794 7 discriminator 1 view .LVU1158
 3604 0018 8B480C   		movl	12(%eax), %ecx
 3605 001b 85C9     		testl	%ecx, %ecx
 3606 001d 74F0     		je	.L161
 3607              		.loc 1 794 33 view .LVU1159
 3608 001f 8B4828   		movl	40(%eax), %ecx
 3609              		.loc 1 794 25 view .LVU1160
 3610 0022 85C9     		testl	%ecx, %ecx
 3611 0024 74E9     		je	.L161
 3612              	.LBB723:
 3613              		.loc 1 795 5 is_stmt 1 view .LVU1161
 3614              		.loc 1 795 12 is_stmt 0 view .LVU1162
 3615 0026 83E904   		subl	$4, %ecx
 3616              	.LVL166:
 3617              		.loc 1 797 5 is_stmt 1 view .LVU1163
 3618              		.loc 1 797 8 is_stmt 0 view .LVU1164
 3619 0029 29D1     		subl	%edx, %ecx
 3620              	.LVL167:
 3621              		.loc 1 797 8 view .LVU1165
 3622 002b 74E2     		je	.L161
 3623              		.loc 1 800 7 is_stmt 1 view .LVU1166
 3624              		.loc 1 800 41 is_stmt 0 view .LVU1167
 3625 002d 890A     		movl	%ecx, (%edx)
 3626              		.loc 1 803 7 is_stmt 1 view .LVU1168
 3627              		.loc 1 803 11 is_stmt 0 view .LVU1169
 3628 002f 8B480C   		movl	12(%eax), %ecx
 3629              	.LVL168:
 3630              		.loc 1 804 20 view .LVU1170
 3631 0032 03501C   		addl	28(%eax), %edx
GAS LISTING /tmp/ccNgdVMZ.s 			page 67


 3632              	.LVL169:
 3633              		.loc 1 803 21 view .LVU1171
 3634 0035 83E901   		subl	$1, %ecx
 3635              		.loc 1 804 20 view .LVU1172
 3636 0038 895010   		movl	%edx, 16(%eax)
 3637              	.LVL170:
 3638              		.loc 1 803 21 view .LVU1173
 3639 003b 89480C   		movl	%ecx, 12(%eax)
 3640              		.loc 1 804 7 is_stmt 1 view .LVU1174
 3641              		.loc 1 805 7 view .LVU1175
 3642              		.loc 1 805 10 is_stmt 0 view .LVU1176
 3643 003e 3B5018   		cmpl	24(%eax), %edx
 3644 0041 7206     		jb	.L164
 3645              		.loc 1 806 9 is_stmt 1 view .LVU1177
 3646              		.loc 1 806 22 is_stmt 0 view .LVU1178
 3647 0043 8B5024   		movl	36(%eax), %edx
 3648 0046 895010   		movl	%edx, 16(%eax)
 3649              	.L164:
 3650              		.loc 1 810 7 is_stmt 1 view .LVU1179
 3651              		.loc 1 812 14 is_stmt 0 view .LVU1180
 3652 0049 BB010000 		movl	$1, %ebx
 3652      00
 3653              		.loc 1 810 17 view .LVU1181
 3654 004e C7402800 		movl	$0, 40(%eax)
 3654      000000
 3655              		.loc 1 812 7 is_stmt 1 view .LVU1182
 3656              	.LBE723:
 3657              		.loc 1 816 1 is_stmt 0 view .LVU1183
 3658 0055 89D8     		movl	%ebx, %eax
 3659              	.LVL171:
 3660              		.loc 1 816 1 view .LVU1184
 3661 0057 5B       		popl	%ebx
 3662              		.cfi_restore 3
 3663              		.cfi_def_cfa_offset 4
 3664 0058 C3       		ret
 3665              		.cfi_endproc
 3666              	.LFE331:
 3667              		.size	obqTryFlushI, .-obqTryFlushI
 3668              		.section	.text.obqFlush,"ax",@progbits
 3669              		.p2align 4
 3670              		.globl	obqFlush
 3671              		.type	obqFlush, @function
 3672              	obqFlush:
 3673              	.LVL172:
 3674              	.LFB332:
 3675              		.loc 1 825 45 is_stmt 1 view -0
 3676              		.cfi_startproc
 3677              		.loc 1 827 3 view .LVU1186
 3678              	.LBB736:
 3679              	.LBI736:
 3680              		.loc 2 573 20 view .LVU1187
 3681              		.loc 2 575 3 view .LVU1188
 3682              	.LBB737:
 3683              	.LBI737:
 3684              		.loc 3 407 20 view .LVU1189
 3685              		.loc 3 409 3 view .LVU1190
 3686              	.LBB738:
GAS LISTING /tmp/ccNgdVMZ.s 			page 68


 3687              	.LBI738:
 3688              		.loc 4 361 20 view .LVU1191
 3689              	.LBB739:
 3690              		.loc 4 363 3 view .LVU1192
 3691 0000 E8FCFFFF 		call	__x86.get_pc_thunk.ax
 3691      FF
 3692 0005 05010000 		addl	$_GLOBAL_OFFSET_TABLE_, %eax
 3692      00
 3693              	.LBE739:
 3694              	.LBE738:
 3695              	.LBE737:
 3696              	.LBE736:
 3697              		.loc 1 825 45 is_stmt 0 view .LVU1193
 3698 000a 53       		pushl	%ebx
 3699              		.cfi_def_cfa_offset 8
 3700              		.cfi_offset 3, -8
 3701 000b 83EC08   		subl	$8, %esp
 3702              		.cfi_def_cfa_offset 16
 3703              		.loc 1 825 45 view .LVU1194
 3704 000e 8B542410 		movl	16(%esp), %edx
 3705              	.LBB746:
 3706              	.LBB744:
 3707              	.LBB742:
 3708              	.LBB740:
 3709              		.loc 4 363 16 view .LVU1195
 3710 0012 8B980000 		movl	port_irq_sts@GOT(%eax), %ebx
 3710      0000
 3711              	.LBE740:
 3712              	.LBE742:
 3713              	.LBE744:
 3714              	.LBE746:
 3715              		.loc 1 830 11 view .LVU1196
 3716 0018 8B4228   		movl	40(%edx), %eax
 3717              	.LBB747:
 3718              	.LBB745:
 3719              	.LBB743:
 3720              	.LBB741:
 3721              		.loc 4 363 16 view .LVU1197
 3722 001b C7030100 		movl	$1, (%ebx)
 3722      0000
 3723              	.LBE741:
 3724              	.LBE743:
 3725              		.loc 3 410 35 is_stmt 1 view .LVU1198
 3726              		.loc 3 411 21 view .LVU1199
 3727              	.LBE745:
 3728              	.LBE747:
 3729              		.loc 1 830 3 view .LVU1200
 3730              		.loc 1 830 6 is_stmt 0 view .LVU1201
 3731 0021 85C0     		testl	%eax, %eax
 3732 0023 740A     		je	.L173
 3733              	.LBB748:
 3734              		.loc 1 831 5 is_stmt 1 view .LVU1202
 3735              		.loc 1 831 52 is_stmt 0 view .LVU1203
 3736 0025 8B4A10   		movl	16(%edx), %ecx
 3737              		.loc 1 831 12 view .LVU1204
 3738 0028 83E804   		subl	$4, %eax
 3739              	.LVL173:
GAS LISTING /tmp/ccNgdVMZ.s 			page 69


 3740              		.loc 1 833 5 is_stmt 1 view .LVU1205
 3741              		.loc 1 833 8 is_stmt 0 view .LVU1206
 3742 002b 29C8     		subl	%ecx, %eax
 3743              	.LVL174:
 3744              		.loc 1 833 8 view .LVU1207
 3745 002d 7511     		jne	.L183
 3746              	.LVL175:
 3747              	.L173:
 3748              		.loc 1 833 8 view .LVU1208
 3749              	.LBE748:
 3750              		.loc 1 838 3 is_stmt 1 view .LVU1209
 3751              	.LBB753:
 3752              	.LBI753:
 3753              		.loc 2 584 20 view .LVU1210
 3754              		.loc 2 586 3 view .LVU1211
 3755              	.LBB754:
 3756              	.LBI754:
 3757              		.loc 3 421 20 view .LVU1212
 3758              	.LBB755:
 3759              		.loc 3 423 23 view .LVU1213
 3760              		.loc 3 424 34 view .LVU1214
 3761              		.loc 3 430 3 view .LVU1215
 3762              		.loc 3 430 3 view .LVU1216
 3763              		.loc 3 430 3 view .LVU1217
 3764              		.loc 3 434 3 view .LVU1218
 3765              	.LBB756:
 3766              	.LBI756:
 3767              		.loc 4 370 20 view .LVU1219
 3768              	.LBB757:
 3769              		.loc 4 372 3 view .LVU1220
 3770              		.loc 4 372 16 is_stmt 0 view .LVU1221
 3771 002f C7030000 		movl	$0, (%ebx)
 3771      0000
 3772              	.LBE757:
 3773              	.LBE756:
 3774              	.LBE755:
 3775              	.LBE754:
 3776              	.LBE753:
 3777              		.loc 1 839 1 view .LVU1222
 3778 0035 83C408   		addl	$8, %esp
 3779              		.cfi_remember_state
 3780              		.cfi_def_cfa_offset 8
 3781 0038 5B       		popl	%ebx
 3782              		.cfi_restore 3
 3783              		.cfi_def_cfa_offset 4
 3784 0039 C3       		ret
 3785              	.LVL176:
 3786 003a 8DB60000 		.p2align 4,,10
 3786      0000
 3787              		.p2align 3
 3788              	.L183:
 3789              		.cfi_restore_state
 3790              	.LBB766:
 3791              		.loc 1 834 7 is_stmt 1 view .LVU1223
 3792              	.LBB749:
 3793              	.LBI749:
 3794              		.loc 1 621 6 view .LVU1224
GAS LISTING /tmp/ccNgdVMZ.s 			page 70


 3795              	.LBB750:
 3796              		.loc 1 623 23 view .LVU1225
 3797              		.loc 1 624 3 view .LVU1226
 3798              		.loc 1 624 3 view .LVU1227
 3799              		.loc 1 624 3 view .LVU1228
 3800              		.loc 1 625 3 view .LVU1229
 3801              		.loc 1 625 3 view .LVU1230
 3802              		.loc 1 625 3 view .LVU1231
 3803              		.loc 1 628 3 view .LVU1232
 3804              		.loc 1 628 37 is_stmt 0 view .LVU1233
 3805 0040 8901     		movl	%eax, (%ecx)
 3806              		.loc 1 631 3 is_stmt 1 view .LVU1234
 3807              		.loc 1 631 7 is_stmt 0 view .LVU1235
 3808 0042 8B420C   		movl	12(%edx), %eax
 3809              	.LVL177:
 3810              		.loc 1 632 16 view .LVU1236
 3811 0045 034A1C   		addl	28(%edx), %ecx
 3812              	.LVL178:
 3813              		.loc 1 631 17 view .LVU1237
 3814 0048 83E801   		subl	$1, %eax
 3815              		.loc 1 632 16 view .LVU1238
 3816 004b 894A10   		movl	%ecx, 16(%edx)
 3817              	.LVL179:
 3818              		.loc 1 631 17 view .LVU1239
 3819 004e 89420C   		movl	%eax, 12(%edx)
 3820              		.loc 1 632 3 is_stmt 1 view .LVU1240
 3821              		.loc 1 633 3 view .LVU1241
 3822              		.loc 1 633 6 is_stmt 0 view .LVU1242
 3823 0051 3B4A18   		cmpl	24(%edx), %ecx
 3824 0054 7206     		jb	.L175
 3825              		.loc 1 634 5 is_stmt 1 view .LVU1243
 3826              		.loc 1 634 18 is_stmt 0 view .LVU1244
 3827 0056 8B4224   		movl	36(%edx), %eax
 3828 0059 894210   		movl	%eax, 16(%edx)
 3829              	.L175:
 3830              		.loc 1 638 3 is_stmt 1 view .LVU1245
 3831              		.loc 1 641 11 is_stmt 0 view .LVU1246
 3832 005c 8B4230   		movl	48(%edx), %eax
 3833              		.loc 1 638 13 view .LVU1247
 3834 005f C7422800 		movl	$0, 40(%edx)
 3834      000000
 3835              		.loc 1 641 3 is_stmt 1 view .LVU1248
 3836              		.loc 1 641 6 is_stmt 0 view .LVU1249
 3837 0066 85C0     		testl	%eax, %eax
 3838 0068 74C5     		je	.L173
 3839              		.loc 1 642 5 is_stmt 1 view .LVU1250
 3840 006a 83EC0C   		subl	$12, %esp
 3841              		.cfi_def_cfa_offset 28
 3842 006d 52       		pushl	%edx
 3843              		.cfi_def_cfa_offset 32
 3844 006e FFD0     		call	*%eax
 3845              	.LVL180:
 3846              		.loc 1 642 5 is_stmt 0 view .LVU1251
 3847              	.LBE750:
 3848              	.LBE749:
 3849              	.LBE766:
 3850              	.LBB767:
GAS LISTING /tmp/ccNgdVMZ.s 			page 71


 3851              	.LBB764:
 3852              	.LBB762:
 3853              	.LBB760:
 3854              	.LBB758:
 3855              		.loc 4 372 16 view .LVU1252
 3856 0070 C7030000 		movl	$0, (%ebx)
 3856      0000
 3857              	.LBE758:
 3858              	.LBE760:
 3859              	.LBE762:
 3860              	.LBE764:
 3861              	.LBE767:
 3862              	.LBB768:
 3863              	.LBB752:
 3864              	.LBB751:
 3865              		.loc 1 642 5 view .LVU1253
 3866 0076 83C410   		addl	$16, %esp
 3867              		.cfi_def_cfa_offset 16
 3868              	.LVL181:
 3869              		.loc 1 642 5 view .LVU1254
 3870              	.LBE751:
 3871              	.LBE752:
 3872              	.LBE768:
 3873              		.loc 1 838 3 is_stmt 1 view .LVU1255
 3874              	.LBB769:
 3875              		.loc 2 584 20 view .LVU1256
 3876              		.loc 2 586 3 view .LVU1257
 3877              	.LBB765:
 3878              		.loc 3 421 20 view .LVU1258
 3879              	.LBB763:
 3880              		.loc 3 423 23 view .LVU1259
 3881              		.loc 3 424 34 view .LVU1260
 3882              		.loc 3 430 3 view .LVU1261
 3883              		.loc 3 430 3 view .LVU1262
 3884              		.loc 3 430 3 view .LVU1263
 3885              		.loc 3 434 3 view .LVU1264
 3886              	.LBB761:
 3887              		.loc 4 370 20 view .LVU1265
 3888              	.LBB759:
 3889              		.loc 4 372 3 view .LVU1266
 3890              	.LBE759:
 3891              	.LBE761:
 3892              	.LBE763:
 3893              	.LBE765:
 3894              	.LBE769:
 3895              		.loc 1 839 1 is_stmt 0 view .LVU1267
 3896 0079 83C408   		addl	$8, %esp
 3897              		.cfi_def_cfa_offset 8
 3898 007c 5B       		popl	%ebx
 3899              		.cfi_restore 3
 3900              		.cfi_def_cfa_offset 4
 3901 007d C3       		ret
 3902              		.cfi_endproc
 3903              	.LFE332:
 3904              		.size	obqFlush, .-obqFlush
 3905              		.section	.text.__x86.get_pc_thunk.ax,"axG",@progbits,__x86.get_pc_thunk.ax,comdat
 3906              		.globl	__x86.get_pc_thunk.ax
GAS LISTING /tmp/ccNgdVMZ.s 			page 72


 3907              		.hidden	__x86.get_pc_thunk.ax
 3908              		.type	__x86.get_pc_thunk.ax, @function
 3909              	__x86.get_pc_thunk.ax:
 3910              	.LFB339:
 3911              		.cfi_startproc
 3912 0000 8B0424   		movl	(%esp), %eax
 3913 0003 C3       		ret
 3914              		.cfi_endproc
 3915              	.LFE339:
 3916              		.section	.text.__x86.get_pc_thunk.dx,"axG",@progbits,__x86.get_pc_thunk.dx,comdat
 3917              		.globl	__x86.get_pc_thunk.dx
 3918              		.hidden	__x86.get_pc_thunk.dx
 3919              		.type	__x86.get_pc_thunk.dx, @function
 3920              	__x86.get_pc_thunk.dx:
 3921              	.LFB340:
 3922              		.cfi_startproc
 3923 0000 8B1424   		movl	(%esp), %edx
 3924 0003 C3       		ret
 3925              		.cfi_endproc
 3926              	.LFE340:
 3927              		.section	.text.__x86.get_pc_thunk.bx,"axG",@progbits,__x86.get_pc_thunk.bx,comdat
 3928              		.globl	__x86.get_pc_thunk.bx
 3929              		.hidden	__x86.get_pc_thunk.bx
 3930              		.type	__x86.get_pc_thunk.bx, @function
 3931              	__x86.get_pc_thunk.bx:
 3932              	.LFB341:
 3933              		.cfi_startproc
 3934 0000 8B1C24   		movl	(%esp), %ebx
 3935 0003 C3       		ret
 3936              		.cfi_endproc
 3937              	.LFE341:
 3938              		.text
 3939              	.Letext0:
 3940              		.file 6 "/usr/lib/gcc/x86_64-linux-gnu/11/include/stddef.h"
 3941              		.file 7 "/usr/include/bits/types.h"
 3942              		.file 8 "/usr/include/bits/stdint-intn.h"
 3943              		.file 9 "/usr/include/bits/stdint-uintn.h"
 3944              		.file 10 "../../../os/common/ports/SIMIA32/compilers/GCC/chtypes.h"
 3945              		.file 11 "../../../os/rt/include/chtime.h"
 3946              		.file 12 "../../../os/rt/include/chlists.h"
 3947              		.file 13 "../../../os/rt/include/chobjects.h"
 3948              		.file 14 "../../../os/hal/include/hal_buffers.h"
 3949              		.file 15 "../../../os/rt/include/chthreads.h"
 3950              		.file 16 "<built-in>"
 10511 0048 2F686F6D 		.section	.note.GNU-stack,"",@progbits
 10511      652F616C 
 10511      65782F43 
 10511      68696269 
 10511      4F532F64 
GAS LISTING /tmp/ccNgdVMZ.s 			page 193

