GAS LISTING /tmp/ccNgdVMZ.s 			page 1


   1              		.file	"hal_buffers.c"
   2              		.text
   3              	.Ltext0:
   4              		.file 0 "/home/alex/ChibiOS/demos/various/LAB2" "../../../os/hal/src/hal_buffers.c"
   5              		.section	.text.ibqObjectInit,"ax",@progbits
   6              		.p2align 4
   7              		.globl	ibqObjectInit
   8              		.type	ibqObjectInit, @function
   9              	ibqObjectInit:
  10              	.LVL0:
  11              	.LFB311:
  12              		.file 1 "../../../os/hal/src/hal_buffers.c"
  13              		.loc 1 77 72 view -0
  14              		.cfi_startproc
  15              		.loc 1 79 3 view .LVU1
  16              		.loc 1 79 3 view .LVU2
  17              		.loc 1 79 3 view .LVU3
  18              		.loc 1 81 3 view .LVU4
  19              		.loc 1 77 72 is_stmt 0 view .LVU5
  20 0000 55       		pushl	%ebp
  21              		.cfi_def_cfa_offset 8
  22              		.cfi_offset 5, -8
  23 0001 57       		pushl	%edi
  24              		.cfi_def_cfa_offset 12
  25              		.cfi_offset 7, -12
  26 0002 56       		pushl	%esi
  27              		.cfi_def_cfa_offset 16
  28              		.cfi_offset 6, -16
  29 0003 53       		pushl	%ebx
  30              		.cfi_def_cfa_offset 20
  31              		.cfi_offset 3, -20
  32 0004 E8FCFFFF 		call	__x86.get_pc_thunk.bx
  32      FF
  33 0009 81C30200 		addl	$_GLOBAL_OFFSET_TABLE_, %ebx
  33      0000
  34 000f 83EC18   		subl	$24, %esp
  35              		.cfi_def_cfa_offset 44
  36              		.loc 1 77 72 view .LVU6
  37 0012 8B74242C 		movl	44(%esp), %esi
  38              	.LVL1:
  39              	.LBB196:
  40              	.LBI196:
  41              		.file 2 "../../../os/hal/osal/rt-nil/osal.h"
  42              		.loc 2 864 20 is_stmt 1 view .LVU7
  43              	.LBB197:
  44              		.loc 2 866 3 view .LVU8
  45              	.LBE197:
  46              	.LBE196:
  47              		.loc 1 77 72 is_stmt 0 view .LVU9
  48 0016 8B7C2434 		movl	52(%esp), %edi
  49 001a 8B6C2430 		movl	48(%esp), %ebp
  50              	.LBB199:
  51              	.LBB198:
  52              		.loc 2 866 3 view .LVU10
  53 001e 56       		pushl	%esi
  54              		.cfi_def_cfa_offset 48
  55 001f E8FCFFFF 		call	chThdQueueObjectInit@PLT
GAS LISTING /tmp/ccNgdVMZ.s 			page 2


  55      FF
  56              	.LVL2:
  57              		.loc 2 866 3 view .LVU11
  58              	.LBE198:
  59              	.LBE199:
  60              		.loc 1 82 3 is_stmt 1 view .LVU12
  61              		.loc 1 82 19 is_stmt 0 view .LVU13
  62 0024 89E8     		movl	%ebp, %eax
  63              		.loc 1 86 52 view .LVU14
  64 0026 8B542440 		movl	64(%esp), %edx
  65              		.loc 1 84 19 view .LVU15
  66 002a 897E14   		movl	%edi, 20(%esi)
  67              		.loc 1 82 19 view .LVU16
  68 002d 884608   		movb	%al, 8(%esi)
  69              		.loc 1 83 3 is_stmt 1 view .LVU17
  70              		.loc 1 86 33 is_stmt 0 view .LVU18
  71 0030 8B44243C 		movl	60(%esp), %eax
  72              		.loc 1 83 19 view .LVU19
  73 0034 C7460C00 		movl	$0, 12(%esi)
  73      000000
  74              		.loc 1 84 3 is_stmt 1 view .LVU20
  75              		.loc 1 85 3 view .LVU21
  76              		.loc 1 86 33 is_stmt 0 view .LVU22
  77 003b 83C004   		addl	$4, %eax
  78              		.loc 1 85 19 view .LVU23
  79 003e 897E10   		movl	%edi, 16(%esi)
  80              		.loc 1 86 3 is_stmt 1 view .LVU24
  81              		.loc 1 87 19 is_stmt 0 view .LVU25
  82 0041 89461C   		movl	%eax, 28(%esi)
  83              		.loc 1 86 52 view .LVU26
  84 0044 0FAFD0   		imull	%eax, %edx
  85              		.loc 1 88 19 view .LVU27
  86 0047 8B442440 		movl	64(%esp), %eax
  87              		.loc 1 89 19 view .LVU28
  88 004b 897E24   		movl	%edi, 36(%esi)
  89              		.loc 1 88 19 view .LVU29
  90 004e 894620   		movl	%eax, 32(%esi)
  91              		.loc 1 92 19 view .LVU30
  92 0051 8B442444 		movl	68(%esp), %eax
  93              		.loc 1 86 24 view .LVU31
  94 0055 01FA     		addl	%edi, %edx
  95              		.loc 1 90 19 view .LVU32
  96 0057 C7462800 		movl	$0, 40(%esi)
  96      000000
  97              		.loc 1 92 19 view .LVU33
  98 005e 894630   		movl	%eax, 48(%esi)
  99              		.loc 1 93 19 view .LVU34
 100 0061 8B442448 		movl	72(%esp), %eax
 101              		.loc 1 86 24 view .LVU35
 102 0065 895618   		movl	%edx, 24(%esi)
 103              		.loc 1 87 3 is_stmt 1 view .LVU36
 104              		.loc 1 88 3 view .LVU37
 105              		.loc 1 89 3 view .LVU38
 106              		.loc 1 90 3 view .LVU39
 107              		.loc 1 91 3 view .LVU40
 108              		.loc 1 91 19 is_stmt 0 view .LVU41
 109 0068 C7462C00 		movl	$0, 44(%esi)
GAS LISTING /tmp/ccNgdVMZ.s 			page 3


 109      000000
 110              		.loc 1 92 3 is_stmt 1 view .LVU42
 111              		.loc 1 93 3 view .LVU43
 112              		.loc 1 93 19 is_stmt 0 view .LVU44
 113 006f 894634   		movl	%eax, 52(%esi)
 114              		.loc 1 94 1 view .LVU45
 115 0072 83C41C   		addl	$28, %esp
 116              		.cfi_def_cfa_offset 20
 117 0075 5B       		popl	%ebx
 118              		.cfi_restore 3
 119              		.cfi_def_cfa_offset 16
 120 0076 5E       		popl	%esi
 121              		.cfi_restore 6
 122              		.cfi_def_cfa_offset 12
 123 0077 5F       		popl	%edi
 124              		.cfi_restore 7
 125              		.cfi_def_cfa_offset 8
 126 0078 5D       		popl	%ebp
 127              		.cfi_restore 5
 128              		.cfi_def_cfa_offset 4
 129 0079 C3       		ret
 130              		.cfi_endproc
 131              	.LFE311:
 132              		.size	ibqObjectInit, .-ibqObjectInit
 133              		.section	.text.ibqResetI,"ax",@progbits
 134              		.p2align 4
 135              		.globl	ibqResetI
 136              		.type	ibqResetI, @function
 137              	ibqResetI:
 138              	.LVL3:
 139              	.LFB312:
 140              		.loc 1 107 45 is_stmt 1 view -0
 141              		.cfi_startproc
 142              		.loc 1 109 23 view .LVU47
 143              		.loc 1 111 3 view .LVU48
 144              		.loc 1 107 45 is_stmt 0 view .LVU49
 145 0000 53       		pushl	%ebx
 146              		.cfi_def_cfa_offset 8
 147              		.cfi_offset 3, -8
 148 0001 E8FCFFFF 		call	__x86.get_pc_thunk.bx
 148      FF
 149 0006 81C30200 		addl	$_GLOBAL_OFFSET_TABLE_, %ebx
 149      0000
 150 000c 83EC10   		subl	$16, %esp
 151              		.cfi_def_cfa_offset 24
 152              		.loc 1 107 45 view .LVU50
 153 000f 8B442418 		movl	24(%esp), %eax
 154              		.loc 1 112 25 view .LVU51
 155 0013 8B5024   		movl	36(%eax), %edx
 156              		.loc 1 111 19 view .LVU52
 157 0016 C7400C00 		movl	$0, 12(%eax)
 157      000000
 158              		.loc 1 112 3 is_stmt 1 view .LVU53
 159              		.loc 1 114 19 is_stmt 0 view .LVU54
 160 001d C7402800 		movl	$0, 40(%eax)
 160      000000
 161              		.loc 1 112 19 view .LVU55
GAS LISTING /tmp/ccNgdVMZ.s 			page 4


 162 0024 895014   		movl	%edx, 20(%eax)
 163              		.loc 1 113 3 is_stmt 1 view .LVU56
 164              		.loc 1 113 19 is_stmt 0 view .LVU57
 165 0027 895010   		movl	%edx, 16(%eax)
 166              		.loc 1 114 3 is_stmt 1 view .LVU58
 167              		.loc 1 115 3 view .LVU59
 168              		.loc 1 115 19 is_stmt 0 view .LVU60
 169 002a C7402C00 		movl	$0, 44(%eax)
 169      000000
 170              		.loc 1 116 3 is_stmt 1 view .LVU61
 171              	.LVL4:
 172              	.LBB200:
 173              	.LBI200:
 174              		.loc 2 919 20 view .LVU62
 175              	.LBB201:
 176              		.loc 2 921 3 view .LVU63
 177 0031 6AFE     		pushl	$-2
 178              		.cfi_def_cfa_offset 28
 179 0033 50       		pushl	%eax
 180              		.cfi_def_cfa_offset 32
 181 0034 E8FCFFFF 		call	chThdDequeueAllI@PLT
 181      FF
 182              	.LVL5:
 183              		.loc 2 921 3 is_stmt 0 view .LVU64
 184              	.LBE201:
 185              	.LBE200:
 186              		.loc 1 117 1 view .LVU65
 187 0039 83C418   		addl	$24, %esp
 188              		.cfi_def_cfa_offset 8
 189 003c 5B       		popl	%ebx
 190              		.cfi_restore 3
 191              		.cfi_def_cfa_offset 4
 192 003d C3       		ret
 193              		.cfi_endproc
 194              	.LFE312:
 195              		.size	ibqResetI, .-ibqResetI
 196              		.section	.text.ibqGetEmptyBufferI,"ax",@progbits
 197              		.p2align 4
 198              		.globl	ibqGetEmptyBufferI
 199              		.type	ibqGetEmptyBufferI, @function
 200              	ibqGetEmptyBufferI:
 201              	.LVL6:
 202              	.LFB313:
 203              		.loc 1 129 58 is_stmt 1 view -0
 204              		.cfi_startproc
 205              		.loc 1 131 23 view .LVU67
 206              		.loc 1 133 3 view .LVU68
 207              		.loc 1 129 58 is_stmt 0 view .LVU69
 208 0000 8B542404 		movl	4(%esp), %edx
 209              		.loc 1 133 7 view .LVU70
 210 0004 8B4210   		movl	16(%edx), %eax
 211 0007 3B4214   		cmpl	20(%edx), %eax
 212 000a 7404     		je	.L12
 213              	.L7:
 214              		.loc 1 137 3 is_stmt 1 view .LVU71
 215              		.loc 1 137 23 is_stmt 0 view .LVU72
 216 000c 83C004   		addl	$4, %eax
GAS LISTING /tmp/ccNgdVMZ.s 			page 5


 217              		.loc 1 138 1 view .LVU73
 218 000f C3       		ret
 219              	.LVL7:
 220              		.p2align 4,,10
 221              		.p2align 3
 222              	.L12:
 223              		.loc 1 133 7 discriminator 1 view .LVU74
 224 0010 8B520C   		movl	12(%edx), %edx
 225              	.LVL8:
 226              		.loc 1 133 7 discriminator 1 view .LVU75
 227 0013 85D2     		testl	%edx, %edx
 228 0015 74F5     		je	.L7
 229              		.loc 1 134 12 view .LVU76
 230 0017 31C0     		xorl	%eax, %eax
 231 0019 C3       		ret
 232              		.cfi_endproc
 233              	.LFE313:
 234              		.size	ibqGetEmptyBufferI, .-ibqGetEmptyBufferI
 235              		.section	.text.ibqPostFullBufferI,"ax",@progbits
 236              		.p2align 4
 237              		.globl	ibqPostFullBufferI
 238              		.type	ibqPostFullBufferI, @function
 239              	ibqPostFullBufferI:
 240              	.LVL9:
 241              	.LFB314:
 242              		.loc 1 148 67 is_stmt 1 view -0
 243              		.cfi_startproc
 244              		.loc 1 150 23 view .LVU78
 245              		.loc 1 152 3 view .LVU79
 246              		.loc 1 152 3 view .LVU80
 247              		.loc 1 152 3 view .LVU81
 248              		.loc 1 153 3 view .LVU82
 249              		.loc 1 153 3 view .LVU83
 250              		.loc 1 153 3 view .LVU84
 251              		.loc 1 156 3 view .LVU85
 252              		.loc 1 148 67 is_stmt 0 view .LVU86
 253 0000 53       		pushl	%ebx
 254              		.cfi_def_cfa_offset 8
 255              		.cfi_offset 3, -8
 256 0001 E8FCFFFF 		call	__x86.get_pc_thunk.bx
 256      FF
 257 0006 81C30200 		addl	$_GLOBAL_OFFSET_TABLE_, %ebx
 257      0000
 258 000c 83EC08   		subl	$8, %esp
 259              		.cfi_def_cfa_offset 16
 260              		.loc 1 148 67 view .LVU87
 261 000f 8B442410 		movl	16(%esp), %eax
 262              		.loc 1 156 37 view .LVU88
 263 0013 8B4C2414 		movl	20(%esp), %ecx
 264              		.loc 1 156 27 view .LVU89
 265 0017 8B5010   		movl	16(%eax), %edx
 266              		.loc 1 156 37 view .LVU90
 267 001a 890A     		movl	%ecx, (%edx)
 268              		.loc 1 159 3 is_stmt 1 view .LVU91
 269              		.loc 1 159 7 is_stmt 0 view .LVU92
 270 001c 8B480C   		movl	12(%eax), %ecx
 271              		.loc 1 160 16 view .LVU93
GAS LISTING /tmp/ccNgdVMZ.s 			page 6


 272 001f 03501C   		addl	28(%eax), %edx
 273              		.loc 1 159 17 view .LVU94
 274 0022 83C101   		addl	$1, %ecx
 275              		.loc 1 160 16 view .LVU95
 276 0025 895010   		movl	%edx, 16(%eax)
 277              		.loc 1 159 17 view .LVU96
 278 0028 89480C   		movl	%ecx, 12(%eax)
 279              		.loc 1 160 3 is_stmt 1 view .LVU97
 280              		.loc 1 161 3 view .LVU98
 281              		.loc 1 161 6 is_stmt 0 view .LVU99
 282 002b 3B5018   		cmpl	24(%eax), %edx
 283 002e 7206     		jb	.L14
 284              		.loc 1 162 5 is_stmt 1 view .LVU100
 285              		.loc 1 162 18 is_stmt 0 view .LVU101
 286 0030 8B5024   		movl	36(%eax), %edx
 287 0033 895010   		movl	%edx, 16(%eax)
 288              	.L14:
 289              		.loc 1 166 3 is_stmt 1 view .LVU102
 290              	.LVL10:
 291              	.LBB202:
 292              	.LBI202:
 293              		.loc 2 906 20 view .LVU103
 294              	.LBB203:
 295              		.loc 2 908 3 view .LVU104
 296 0036 83EC08   		subl	$8, %esp
 297              		.cfi_def_cfa_offset 24
 298 0039 6A00     		pushl	$0
 299              		.cfi_def_cfa_offset 28
 300 003b 50       		pushl	%eax
 301              		.cfi_def_cfa_offset 32
 302 003c E8FCFFFF 		call	chThdDequeueNextI@PLT
 302      FF
 303              	.LVL11:
 304              		.loc 2 908 3 is_stmt 0 view .LVU105
 305              	.LBE203:
 306              	.LBE202:
 307              		.loc 1 167 1 view .LVU106
 308 0041 83C418   		addl	$24, %esp
 309              		.cfi_def_cfa_offset 8
 310 0044 5B       		popl	%ebx
 311              		.cfi_restore 3
 312              		.cfi_def_cfa_offset 4
 313 0045 C3       		ret
 314              		.cfi_endproc
 315              	.LFE314:
 316              		.size	ibqPostFullBufferI, .-ibqPostFullBufferI
 317              		.section	.text.ibqGetFullBufferTimeout,"ax",@progbits
 318              		.p2align 4
 319              		.globl	ibqGetFullBufferTimeout
 320              		.type	ibqGetFullBufferTimeout, @function
 321              	ibqGetFullBufferTimeout:
 322              	.LVL12:
 323              	.LFB315:
 324              		.loc 1 190 54 is_stmt 1 view -0
 325              		.cfi_startproc
 326              		.loc 1 190 54 is_stmt 0 view .LVU108
 327 0000 55       		pushl	%ebp
GAS LISTING /tmp/ccNgdVMZ.s 			page 7


 328              		.cfi_def_cfa_offset 8
 329              		.cfi_offset 5, -8
 330 0001 57       		pushl	%edi
 331              		.cfi_def_cfa_offset 12
 332              		.cfi_offset 7, -12
 333 0002 56       		pushl	%esi
 334              		.cfi_def_cfa_offset 16
 335              		.cfi_offset 6, -16
 336 0003 53       		pushl	%ebx
 337              		.cfi_def_cfa_offset 20
 338              		.cfi_offset 3, -20
 339 0004 E8FCFFFF 		call	__x86.get_pc_thunk.bx
 339      FF
 340 0009 81C30200 		addl	$_GLOBAL_OFFSET_TABLE_, %ebx
 340      0000
 341 000f 83EC0C   		subl	$12, %esp
 342              		.cfi_def_cfa_offset 32
 343              		.loc 1 190 54 view .LVU109
 344 0012 8B6C2420 		movl	32(%esp), %ebp
 345              		.loc 1 191 3 is_stmt 1 view .LVU110
 346              		.loc 1 193 3 view .LVU111
 347              	.LBB223:
 348              	.LBI223:
 349              		.loc 2 573 20 view .LVU112
 350              		.loc 2 575 3 view .LVU113
 351              	.LBB224:
 352              	.LBI224:
 353              		.file 3 "../../../os/rt/include/chsys.h"
 354              		.loc 3 407 20 view .LVU114
 355              		.loc 3 409 3 view .LVU115
 356              	.LBB225:
 357              	.LBI225:
 358              		.file 4 "../../../os/common/ports/SIMIA32/chcore.h"
 359              		.loc 4 361 20 view .LVU116
 360              	.LBB226:
 361              		.loc 4 363 3 view .LVU117
 362              	.LBE226:
 363              	.LBE225:
 364              	.LBE224:
 365              	.LBE223:
 366              		.loc 1 190 54 is_stmt 0 view .LVU118
 367 0016 8B742424 		movl	36(%esp), %esi
 368              	.LBB230:
 369              	.LBB229:
 370              	.LBB228:
 371              	.LBB227:
 372              		.loc 4 363 16 view .LVU119
 373 001a 8BBB0000 		movl	port_irq_sts@GOT(%ebx), %edi
 373      0000
 374 0020 C7070100 		movl	$1, (%edi)
 374      0000
 375              	.LBE227:
 376              	.LBE228:
 377              		.loc 3 410 35 is_stmt 1 view .LVU120
 378              		.loc 3 411 21 view .LVU121
 379              	.LBE229:
 380              	.LBE230:
GAS LISTING /tmp/ccNgdVMZ.s 			page 8


 381              		.loc 1 194 3 view .LVU122
 382              	.LVL13:
 383              	.LBB231:
 384              	.LBI231:
 385              		.loc 1 220 9 view .LVU123
 386              	.LBB232:
 387              		.loc 1 223 23 view .LVU124
 388              		.loc 1 225 3 view .LVU125
 389              		.loc 1 225 9 is_stmt 0 view .LVU126
 390 0026 EB1F     		jmp	.L17
 391 0028 8DB42600 		.p2align 4,,10
 391      00000090 
 392              		.p2align 3
 393              	.L19:
 394              	.LBB233:
 395              		.loc 1 226 5 is_stmt 1 view .LVU127
 396              		.loc 1 226 8 is_stmt 0 view .LVU128
 397 0030 807D0800 		cmpb	$0, 8(%ebp)
 398 0034 753A     		jne	.L20
 399              		.loc 1 229 5 is_stmt 1 view .LVU129
 400              	.LVL14:
 401              	.LBB234:
 402              	.LBI234:
 403              		.loc 2 892 21 view .LVU130
 404              	.LBB235:
 405              		.loc 2 895 3 view .LVU131
 406              		.loc 2 895 10 is_stmt 0 view .LVU132
 407 0036 83EC08   		subl	$8, %esp
 408              		.cfi_def_cfa_offset 40
 409 0039 56       		pushl	%esi
 410              		.cfi_def_cfa_offset 44
 411 003a 55       		pushl	%ebp
 412              		.cfi_def_cfa_offset 48
 413 003b E8FCFFFF 		call	chThdEnqueueTimeoutS@PLT
 413      FF
 414              	.LVL15:
 415              		.loc 2 895 10 view .LVU133
 416              	.LBE235:
 417              	.LBE234:
 418              		.loc 1 230 5 is_stmt 1 view .LVU134
 419              		.loc 1 230 8 is_stmt 0 view .LVU135
 420 0040 83C410   		addl	$16, %esp
 421              		.cfi_def_cfa_offset 32
 422 0043 85C0     		testl	%eax, %eax
 423 0045 7817     		js	.L18
 424              	.LVL16:
 425              	.L17:
 426              		.loc 1 230 8 view .LVU136
 427              	.LBE233:
 428              		.loc 1 225 10 is_stmt 1 view .LVU137
 429 0047 8B450C   		movl	12(%ebp), %eax
 430 004a 85C0     		testl	%eax, %eax
 431 004c 74E2     		je	.L19
 432              	.LVL17:
 433              	.LBB236:
 434              	.LBI236:
 435              		.loc 1 220 9 view .LVU138
GAS LISTING /tmp/ccNgdVMZ.s 			page 9


 436              	.LBB237:
 437              		.loc 1 235 3 view .LVU139
 438              		.loc 1 235 3 view .LVU140
 439              		.loc 1 235 3 view .LVU141
 440              		.loc 1 238 3 view .LVU142
 441              		.loc 1 238 19 is_stmt 0 view .LVU143
 442 004e 8B5514   		movl	20(%ebp), %edx
 443              		.loc 1 238 28 view .LVU144
 444 0051 8D4204   		leal	4(%edx), %eax
 445              		.loc 1 238 13 view .LVU145
 446 0054 894528   		movl	%eax, 40(%ebp)
 447              		.loc 1 239 3 is_stmt 1 view .LVU146
 448              		.loc 1 239 25 is_stmt 0 view .LVU147
 449 0057 0302     		addl	(%edx), %eax
 450              		.loc 1 239 13 view .LVU148
 451 0059 89452C   		movl	%eax, 44(%ebp)
 452              		.loc 1 241 3 is_stmt 1 view .LVU149
 453              	.LVL18:
 454              		.loc 1 239 13 is_stmt 0 view .LVU150
 455 005c 31C0     		xorl	%eax, %eax
 456              	.L18:
 457              	.LVL19:
 458              		.loc 1 239 13 view .LVU151
 459              	.LBE237:
 460              	.LBE236:
 461              	.LBE232:
 462              	.LBE231:
 463              		.loc 1 195 3 is_stmt 1 view .LVU152
 464              	.LBB240:
 465              	.LBI240:
 466              		.loc 2 584 20 view .LVU153
 467              		.loc 2 586 3 view .LVU154
 468              	.LBB241:
 469              	.LBI241:
 470              		.loc 3 421 20 view .LVU155
 471              	.LBB242:
 472              		.loc 3 423 23 view .LVU156
 473              		.loc 3 424 34 view .LVU157
 474              		.loc 3 430 3 view .LVU158
 475              		.loc 3 430 3 view .LVU159
 476              		.loc 3 430 3 view .LVU160
 477              		.loc 3 434 3 view .LVU161
 478              	.LBB243:
 479              	.LBI243:
 480              		.loc 4 370 20 view .LVU162
 481              	.LBB244:
 482              		.loc 4 372 3 view .LVU163
 483              		.loc 4 372 16 is_stmt 0 view .LVU164
 484 005e C7070000 		movl	$0, (%edi)
 484      0000
 485              	.LBE244:
 486              	.LBE243:
 487              	.LBE242:
 488              	.LBE241:
 489              	.LBE240:
 490              		.loc 1 197 3 is_stmt 1 view .LVU165
 491              		.loc 1 198 1 is_stmt 0 view .LVU166
GAS LISTING /tmp/ccNgdVMZ.s 			page 10


 492 0064 83C40C   		addl	$12, %esp
 493              		.cfi_remember_state
 494              		.cfi_def_cfa_offset 20
 495 0067 5B       		popl	%ebx
 496              		.cfi_restore 3
 497              		.cfi_def_cfa_offset 16
 498 0068 5E       		popl	%esi
 499              		.cfi_restore 6
 500              		.cfi_def_cfa_offset 12
 501 0069 5F       		popl	%edi
 502              		.cfi_restore 7
 503              		.cfi_def_cfa_offset 8
 504 006a 5D       		popl	%ebp
 505              		.cfi_restore 5
 506              		.cfi_def_cfa_offset 4
 507 006b C3       		ret
 508              	.LVL20:
 509 006c 8D742600 		.p2align 4,,10
 510              		.p2align 3
 511              	.L20:
 512              		.cfi_restore_state
 513              	.LBB253:
 514              	.LBB251:
 515              	.LBB249:
 516              	.LBB247:
 517              	.LBB245:
 518              		.loc 4 372 16 view .LVU167
 519 0070 C7070000 		movl	$0, (%edi)
 519      0000
 520              	.LBE245:
 521              	.LBE247:
 522              	.LBE249:
 523              	.LBE251:
 524              	.LBE253:
 525              		.loc 1 198 1 view .LVU168
 526 0076 83C40C   		addl	$12, %esp
 527              		.cfi_def_cfa_offset 20
 528              	.LBB254:
 529              	.LBB239:
 530              	.LBB238:
 531              		.loc 1 227 14 view .LVU169
 532 0079 B8FEFFFF 		movl	$-2, %eax
 532      FF
 533              	.LVL21:
 534              		.loc 1 227 14 view .LVU170
 535              	.LBE238:
 536              	.LBE239:
 537              	.LBE254:
 538              		.loc 1 195 3 is_stmt 1 view .LVU171
 539              	.LBB255:
 540              		.loc 2 584 20 view .LVU172
 541              		.loc 2 586 3 view .LVU173
 542              	.LBB252:
 543              		.loc 3 421 20 view .LVU174
 544              	.LBB250:
 545              		.loc 3 423 23 view .LVU175
 546              		.loc 3 424 34 view .LVU176
GAS LISTING /tmp/ccNgdVMZ.s 			page 11


 547              		.loc 3 430 3 view .LVU177
 548              		.loc 3 430 3 view .LVU178
 549              		.loc 3 430 3 view .LVU179
 550              		.loc 3 434 3 view .LVU180
 551              	.LBB248:
 552              		.loc 4 370 20 view .LVU181
 553              	.LBB246:
 554              		.loc 4 372 3 view .LVU182
 555              	.LBE246:
 556              	.LBE248:
 557              	.LBE250:
 558              	.LBE252:
 559              	.LBE255:
 560              		.loc 1 197 3 view .LVU183
 561              		.loc 1 198 1 is_stmt 0 view .LVU184
 562 007e 5B       		popl	%ebx
 563              		.cfi_restore 3
 564              		.cfi_def_cfa_offset 16
 565 007f 5E       		popl	%esi
 566              		.cfi_restore 6
 567              		.cfi_def_cfa_offset 12
 568 0080 5F       		popl	%edi
 569              		.cfi_restore 7
 570              		.cfi_def_cfa_offset 8
 571 0081 5D       		popl	%ebp
 572              		.cfi_restore 5
 573              		.cfi_def_cfa_offset 4
 574 0082 C3       		ret
 575              		.cfi_endproc
 576              	.LFE315:
 577              		.size	ibqGetFullBufferTimeout, .-ibqGetFullBufferTimeout
 578              		.section	.text.ibqGetFullBufferTimeoutS,"ax",@progbits
 579              		.p2align 4
 580              		.globl	ibqGetFullBufferTimeoutS
 581              		.type	ibqGetFullBufferTimeoutS, @function
 582              	ibqGetFullBufferTimeoutS:
 583              	.LVL22:
 584              	.LFB316:
 585              		.loc 1 221 57 is_stmt 1 view -0
 586              		.cfi_startproc
 587              		.loc 1 221 57 is_stmt 0 view .LVU186
 588 0000 57       		pushl	%edi
 589              		.cfi_def_cfa_offset 8
 590              		.cfi_offset 7, -8
 591 0001 56       		pushl	%esi
 592              		.cfi_def_cfa_offset 12
 593              		.cfi_offset 6, -12
 594 0002 53       		pushl	%ebx
 595              		.cfi_def_cfa_offset 16
 596              		.cfi_offset 3, -16
 597              		.loc 1 221 57 view .LVU187
 598 0003 8B7C2410 		movl	16(%esp), %edi
 599              		.loc 1 223 23 is_stmt 1 view .LVU188
 600              		.loc 1 225 3 view .LVU189
 601 0007 E8FCFFFF 		call	__x86.get_pc_thunk.bx
 601      FF
 602 000c 81C30200 		addl	$_GLOBAL_OFFSET_TABLE_, %ebx
GAS LISTING /tmp/ccNgdVMZ.s 			page 12


 602      0000
 603              		.loc 1 221 57 is_stmt 0 view .LVU190
 604 0012 8B742414 		movl	20(%esp), %esi
 605              		.loc 1 225 9 view .LVU191
 606 0016 EB1F     		jmp	.L23
 607 0018 8DB42600 		.p2align 4,,10
 607      00000090 
 608              		.p2align 3
 609              	.L25:
 610              	.LBB267:
 611              		.loc 1 226 5 is_stmt 1 view .LVU192
 612              		.loc 1 226 8 is_stmt 0 view .LVU193
 613 0020 807F0800 		cmpb	$0, 8(%edi)
 614 0024 7532     		jne	.L26
 615              		.loc 1 229 5 is_stmt 1 view .LVU194
 616              	.LVL23:
 617              	.LBB268:
 618              	.LBI268:
 619              		.loc 2 892 21 view .LVU195
 620              	.LBB269:
 621              		.loc 2 895 3 view .LVU196
 622              		.loc 2 895 10 is_stmt 0 view .LVU197
 623 0026 83EC08   		subl	$8, %esp
 624              		.cfi_def_cfa_offset 24
 625 0029 56       		pushl	%esi
 626              		.cfi_def_cfa_offset 28
 627 002a 57       		pushl	%edi
 628              		.cfi_def_cfa_offset 32
 629 002b E8FCFFFF 		call	chThdEnqueueTimeoutS@PLT
 629      FF
 630              	.LVL24:
 631              		.loc 2 895 10 view .LVU198
 632              	.LBE269:
 633              	.LBE268:
 634              		.loc 1 230 5 is_stmt 1 view .LVU199
 635              		.loc 1 230 8 is_stmt 0 view .LVU200
 636 0030 83C410   		addl	$16, %esp
 637              		.cfi_def_cfa_offset 16
 638 0033 85C0     		testl	%eax, %eax
 639 0035 7817     		js	.L22
 640              	.LVL25:
 641              	.L23:
 642              		.loc 1 230 8 view .LVU201
 643              	.LBE267:
 644              		.loc 1 225 10 is_stmt 1 view .LVU202
 645 0037 8B470C   		movl	12(%edi), %eax
 646 003a 85C0     		testl	%eax, %eax
 647 003c 74E2     		je	.L25
 648              	.LVL26:
 649              	.LBB270:
 650              	.LBI270:
 651              		.loc 1 220 9 view .LVU203
 652              	.LBB271:
 653              		.loc 1 235 3 view .LVU204
 654              		.loc 1 235 3 view .LVU205
 655              		.loc 1 235 3 view .LVU206
 656              		.loc 1 238 3 view .LVU207
GAS LISTING /tmp/ccNgdVMZ.s 			page 13


 657              		.loc 1 238 19 is_stmt 0 view .LVU208
 658 003e 8B5714   		movl	20(%edi), %edx
 659              		.loc 1 238 28 view .LVU209
 660 0041 8D4204   		leal	4(%edx), %eax
 661              		.loc 1 238 13 view .LVU210
 662 0044 894728   		movl	%eax, 40(%edi)
 663              		.loc 1 239 3 is_stmt 1 view .LVU211
 664              		.loc 1 239 25 is_stmt 0 view .LVU212
 665 0047 0302     		addl	(%edx), %eax
 666              		.loc 1 239 13 view .LVU213
 667 0049 89472C   		movl	%eax, 44(%edi)
 668              		.loc 1 241 3 is_stmt 1 view .LVU214
 669              	.LVL27:
 670              		.loc 1 239 13 is_stmt 0 view .LVU215
 671 004c 31C0     		xorl	%eax, %eax
 672              	.L22:
 673              	.LBE271:
 674              	.LBE270:
 675              		.loc 1 242 1 view .LVU216
 676 004e 5B       		popl	%ebx
 677              		.cfi_remember_state
 678              		.cfi_restore 3
 679              		.cfi_def_cfa_offset 12
 680 004f 5E       		popl	%esi
 681              		.cfi_restore 6
 682              		.cfi_def_cfa_offset 8
 683 0050 5F       		popl	%edi
 684              		.cfi_restore 7
 685              		.cfi_def_cfa_offset 4
 686 0051 C3       		ret
 687              		.p2align 4,,10
 688 0052 8DB60000 		.p2align 3
 688      0000
 689              	.L26:
 690              		.cfi_restore_state
 691 0058 5B       		popl	%ebx
 692              		.cfi_restore 3
 693              		.cfi_def_cfa_offset 12
 694              	.LBB272:
 695              		.loc 1 227 14 view .LVU217
 696 0059 B8FEFFFF 		movl	$-2, %eax
 696      FF
 697              	.LBE272:
 698              		.loc 1 242 1 view .LVU218
 699 005e 5E       		popl	%esi
 700              		.cfi_restore 6
 701              		.cfi_def_cfa_offset 8
 702 005f 5F       		popl	%edi
 703              		.cfi_restore 7
 704              		.cfi_def_cfa_offset 4
 705 0060 C3       		ret
 706              		.cfi_endproc
 707              	.LFE316:
 708              		.size	ibqGetFullBufferTimeoutS, .-ibqGetFullBufferTimeoutS
 709              		.section	.text.ibqReleaseEmptyBuffer,"ax",@progbits
 710              		.p2align 4
 711              		.globl	ibqReleaseEmptyBuffer
GAS LISTING /tmp/ccNgdVMZ.s 			page 14


 712              		.type	ibqReleaseEmptyBuffer, @function
 713              	ibqReleaseEmptyBuffer:
 714              	.LVL28:
 715              	.LFB317:
 716              		.loc 1 252 57 is_stmt 1 view -0
 717              		.cfi_startproc
 718              		.loc 1 254 3 view .LVU220
 719              	.LBB284:
 720              	.LBI284:
 721              		.loc 2 573 20 view .LVU221
 722              		.loc 2 575 3 view .LVU222
 723              	.LBB285:
 724              	.LBI285:
 725              		.loc 3 407 20 view .LVU223
 726              		.loc 3 409 3 view .LVU224
 727              	.LBB286:
 728              	.LBI286:
 729              		.loc 4 361 20 view .LVU225
 730              	.LBB287:
 731              		.loc 4 363 3 view .LVU226
 732 0000 E8FCFFFF 		call	__x86.get_pc_thunk.dx
 732      FF
 733 0005 81C20200 		addl	$_GLOBAL_OFFSET_TABLE_, %edx
 733      0000
 734              	.LBE287:
 735              	.LBE286:
 736              	.LBE285:
 737              	.LBE284:
 738              		.loc 1 252 57 is_stmt 0 view .LVU227
 739 000b 53       		pushl	%ebx
 740              		.cfi_def_cfa_offset 8
 741              		.cfi_offset 3, -8
 742 000c 83EC08   		subl	$8, %esp
 743              		.cfi_def_cfa_offset 16
 744              		.loc 1 252 57 view .LVU228
 745 000f 8B442410 		movl	16(%esp), %eax
 746              	.LBB294:
 747              	.LBB292:
 748              	.LBB290:
 749              	.LBB288:
 750              		.loc 4 363 16 view .LVU229
 751 0013 8B9A0000 		movl	port_irq_sts@GOT(%edx), %ebx
 751      0000
 752              	.LBE288:
 753              	.LBE290:
 754              	.LBE292:
 755              	.LBE294:
 756              	.LBB295:
 757              	.LBB296:
 758              		.loc 1 273 7 view .LVU230
 759 0019 8B500C   		movl	12(%eax), %edx
 760              		.loc 1 273 17 view .LVU231
 761 001c 83EA01   		subl	$1, %edx
 762              	.LBE296:
 763              	.LBE295:
 764              	.LBB298:
 765              	.LBB293:
GAS LISTING /tmp/ccNgdVMZ.s 			page 15


 766              	.LBB291:
 767              	.LBB289:
 768              		.loc 4 363 16 view .LVU232
 769 001f C7030100 		movl	$1, (%ebx)
 769      0000
 770              	.LBE289:
 771              	.LBE291:
 772              		.loc 3 410 35 is_stmt 1 view .LVU233
 773              		.loc 3 411 21 view .LVU234
 774              	.LBE293:
 775              	.LBE298:
 776              		.loc 1 255 3 view .LVU235
 777              	.LVL29:
 778              	.LBB299:
 779              	.LBI295:
 780              		.loc 1 267 8 view .LVU236
 781              	.LBB297:
 782              		.loc 1 269 23 view .LVU237
 783              		.loc 1 270 3 view .LVU238
 784              		.loc 1 270 3 view .LVU239
 785              		.loc 1 270 3 view .LVU240
 786              		.loc 1 273 3 view .LVU241
 787              		.loc 1 273 17 is_stmt 0 view .LVU242
 788 0025 89500C   		movl	%edx, 12(%eax)
 789              		.loc 1 274 3 is_stmt 1 view .LVU243
 790              		.loc 1 274 16 is_stmt 0 view .LVU244
 791 0028 8B501C   		movl	28(%eax), %edx
 792 002b 035014   		addl	20(%eax), %edx
 793 002e 895014   		movl	%edx, 20(%eax)
 794              		.loc 1 275 3 is_stmt 1 view .LVU245
 795              		.loc 1 275 6 is_stmt 0 view .LVU246
 796 0031 3B5018   		cmpl	24(%eax), %edx
 797 0034 7206     		jb	.L29
 798              		.loc 1 276 5 is_stmt 1 view .LVU247
 799              		.loc 1 276 18 is_stmt 0 view .LVU248
 800 0036 8B5024   		movl	36(%eax), %edx
 801 0039 895014   		movl	%edx, 20(%eax)
 802              	.L29:
 803              		.loc 1 280 3 is_stmt 1 view .LVU249
 804              		.loc 1 283 11 is_stmt 0 view .LVU250
 805 003c 8B5030   		movl	48(%eax), %edx
 806              		.loc 1 280 13 view .LVU251
 807 003f C7402800 		movl	$0, 40(%eax)
 807      000000
 808              		.loc 1 283 3 is_stmt 1 view .LVU252
 809              		.loc 1 283 6 is_stmt 0 view .LVU253
 810 0046 85D2     		testl	%edx, %edx
 811 0048 7409     		je	.L30
 812              		.loc 1 284 5 is_stmt 1 view .LVU254
 813 004a 83EC0C   		subl	$12, %esp
 814              		.cfi_def_cfa_offset 28
 815 004d 50       		pushl	%eax
 816              		.cfi_def_cfa_offset 32
 817 004e FFD2     		call	*%edx
 818              	.LVL30:
 819              		.loc 1 284 5 is_stmt 0 view .LVU255
 820 0050 83C410   		addl	$16, %esp
GAS LISTING /tmp/ccNgdVMZ.s 			page 16


 821              		.cfi_def_cfa_offset 16
 822              	.L30:
 823              	.LVL31:
 824              		.loc 1 284 5 view .LVU256
 825              	.LBE297:
 826              	.LBE299:
 827              		.loc 1 256 3 is_stmt 1 view .LVU257
 828              	.LBB300:
 829              	.LBI300:
 830              		.loc 2 584 20 view .LVU258
 831              		.loc 2 586 3 view .LVU259
 832              	.LBB301:
 833              	.LBI301:
 834              		.loc 3 421 20 view .LVU260
 835              	.LBB302:
 836              		.loc 3 423 23 view .LVU261
 837              		.loc 3 424 34 view .LVU262
 838              		.loc 3 430 3 view .LVU263
 839              		.loc 3 430 3 view .LVU264
 840              		.loc 3 430 3 view .LVU265
 841              		.loc 3 434 3 view .LVU266
 842              	.LBB303:
 843              	.LBI303:
 844              		.loc 4 370 20 view .LVU267
 845              	.LBB304:
 846              		.loc 4 372 3 view .LVU268
 847              		.loc 4 372 16 is_stmt 0 view .LVU269
 848 0053 C7030000 		movl	$0, (%ebx)
 848      0000
 849              	.LBE304:
 850              	.LBE303:
 851              	.LBE302:
 852              	.LBE301:
 853              	.LBE300:
 854              		.loc 1 257 1 view .LVU270
 855 0059 83C408   		addl	$8, %esp
 856              		.cfi_def_cfa_offset 8
 857 005c 5B       		popl	%ebx
 858              		.cfi_restore 3
 859              		.cfi_def_cfa_offset 4
 860 005d C3       		ret
 861              		.cfi_endproc
 862              	.LFE317:
 863              		.size	ibqReleaseEmptyBuffer, .-ibqReleaseEmptyBuffer
 864              		.section	.text.ibqReleaseEmptyBufferS,"ax",@progbits
 865              		.p2align 4
 866              		.globl	ibqReleaseEmptyBufferS
 867              		.type	ibqReleaseEmptyBufferS, @function
 868              	ibqReleaseEmptyBufferS:
 869              	.LVL32:
 870              	.LFB318:
 871              		.loc 1 267 60 is_stmt 1 view -0
 872              		.cfi_startproc
 873              		.loc 1 269 23 view .LVU272
 874              		.loc 1 270 3 view .LVU273
 875              		.loc 1 270 3 view .LVU274
 876              		.loc 1 270 3 view .LVU275
GAS LISTING /tmp/ccNgdVMZ.s 			page 17


 877              		.loc 1 273 3 view .LVU276
 878              		.loc 1 267 60 is_stmt 0 view .LVU277
 879 0000 8B442404 		movl	4(%esp), %eax
 880              		.loc 1 273 7 view .LVU278
 881 0004 8B500C   		movl	12(%eax), %edx
 882              		.loc 1 273 17 view .LVU279
 883 0007 83EA01   		subl	$1, %edx
 884 000a 89500C   		movl	%edx, 12(%eax)
 885              		.loc 1 274 3 is_stmt 1 view .LVU280
 886              		.loc 1 274 16 is_stmt 0 view .LVU281
 887 000d 8B501C   		movl	28(%eax), %edx
 888 0010 035014   		addl	20(%eax), %edx
 889 0013 895014   		movl	%edx, 20(%eax)
 890              		.loc 1 275 3 is_stmt 1 view .LVU282
 891              		.loc 1 275 6 is_stmt 0 view .LVU283
 892 0016 3B5018   		cmpl	24(%eax), %edx
 893 0019 7206     		jb	.L36
 894              		.loc 1 276 5 is_stmt 1 view .LVU284
 895              		.loc 1 276 18 is_stmt 0 view .LVU285
 896 001b 8B5024   		movl	36(%eax), %edx
 897 001e 895014   		movl	%edx, 20(%eax)
 898              	.L36:
 899              		.loc 1 280 3 is_stmt 1 view .LVU286
 900              		.loc 1 283 11 is_stmt 0 view .LVU287
 901 0021 8B5030   		movl	48(%eax), %edx
 902              		.loc 1 280 13 view .LVU288
 903 0024 C7402800 		movl	$0, 40(%eax)
 903      000000
 904              		.loc 1 283 3 is_stmt 1 view .LVU289
 905              		.loc 1 283 6 is_stmt 0 view .LVU290
 906 002b 85D2     		testl	%edx, %edx
 907 002d 7409     		je	.L35
 908              		.loc 1 284 5 is_stmt 1 view .LVU291
 909 002f 89442404 		movl	%eax, 4(%esp)
 910              	.LVL33:
 911              		.loc 1 284 5 is_stmt 0 view .LVU292
 912 0033 FFE2     		jmp	*%edx
 913              	.LVL34:
 914              		.p2align 4,,10
 915 0035 8D7600   		.p2align 3
 916              	.L35:
 917              		.loc 1 286 1 view .LVU293
 918 0038 C3       		ret
 919              		.cfi_endproc
 920              	.LFE318:
 921              		.size	ibqReleaseEmptyBufferS, .-ibqReleaseEmptyBufferS
 922              		.section	.text.ibqGetTimeout,"ax",@progbits
 923              		.p2align 4
 924              		.globl	ibqGetTimeout
 925              		.type	ibqGetTimeout, @function
 926              	ibqGetTimeout:
 927              	.LVL35:
 928              	.LFB319:
 929              		.loc 1 306 73 is_stmt 1 view -0
 930              		.cfi_startproc
 931              		.loc 1 306 73 is_stmt 0 view .LVU295
 932 0000 55       		pushl	%ebp
GAS LISTING /tmp/ccNgdVMZ.s 			page 18


 933              		.cfi_def_cfa_offset 8
 934              		.cfi_offset 5, -8
 935 0001 57       		pushl	%edi
 936              		.cfi_def_cfa_offset 12
 937              		.cfi_offset 7, -12
 938 0002 56       		pushl	%esi
 939              		.cfi_def_cfa_offset 16
 940              		.cfi_offset 6, -16
 941 0003 53       		pushl	%ebx
 942              		.cfi_def_cfa_offset 20
 943              		.cfi_offset 3, -20
 944 0004 E8FCFFFF 		call	__x86.get_pc_thunk.bx
 944      FF
 945 0009 81C30200 		addl	$_GLOBAL_OFFSET_TABLE_, %ebx
 945      0000
 946 000f 83EC1C   		subl	$28, %esp
 947              		.cfi_def_cfa_offset 48
 948              		.loc 1 306 73 view .LVU296
 949 0012 8B742430 		movl	48(%esp), %esi
 950              		.loc 1 307 3 is_stmt 1 view .LVU297
 951              		.loc 1 309 3 view .LVU298
 952              	.LBB331:
 953              	.LBI331:
 954              		.loc 2 573 20 view .LVU299
 955              		.loc 2 575 3 view .LVU300
 956              	.LBB332:
 957              	.LBI332:
 958              		.loc 3 407 20 view .LVU301
 959              		.loc 3 409 3 view .LVU302
 960              	.LBB333:
 961              	.LBI333:
 962              		.loc 4 361 20 view .LVU303
 963              	.LBB334:
 964              		.loc 4 363 3 view .LVU304
 965              	.LBE334:
 966              	.LBE333:
 967              	.LBE332:
 968              	.LBE331:
 969              		.loc 1 306 73 is_stmt 0 view .LVU305
 970 0016 8B6C2434 		movl	52(%esp), %ebp
 971              		.loc 1 312 11 view .LVU306
 972 001a 8B5628   		movl	40(%esi), %edx
 973              	.LBB338:
 974              	.LBB337:
 975              	.LBB336:
 976              	.LBB335:
 977              		.loc 4 363 16 view .LVU307
 978 001d 8BBB0000 		movl	port_irq_sts@GOT(%ebx), %edi
 978      0000
 979 0023 C7070100 		movl	$1, (%edi)
 979      0000
 980              	.LBE335:
 981              	.LBE336:
 982              		.loc 3 410 35 is_stmt 1 view .LVU308
 983              		.loc 3 411 21 view .LVU309
 984              	.LBE337:
 985              	.LBE338:
GAS LISTING /tmp/ccNgdVMZ.s 			page 19


 986              		.loc 1 312 3 view .LVU310
 987              		.loc 1 312 6 is_stmt 0 view .LVU311
 988 0029 85D2     		testl	%edx, %edx
 989 002b 743A     		je	.L39
 990              		.loc 1 326 24 view .LVU312
 991 002d 8B4E2C   		movl	44(%esi), %ecx
 992              	.L40:
 993              		.loc 1 321 3 is_stmt 1 view .LVU313
 994              		.loc 1 321 7 is_stmt 0 view .LVU314
 995 0030 0FB602   		movzbl	(%edx), %eax
 996              	.LVL36:
 997              		.loc 1 322 3 is_stmt 1 view .LVU315
 998              		.loc 1 322 12 is_stmt 0 view .LVU316
 999 0033 83C201   		addl	$1, %edx
 1000 0036 895628   		movl	%edx, 40(%esi)
 1001              		.loc 1 326 3 is_stmt 1 view .LVU317
 1002              		.loc 1 326 6 is_stmt 0 view .LVU318
 1003 0039 39CA     		cmpl	%ecx, %edx
 1004 003b 7343     		jnb	.L56
 1005              	.LVL37:
 1006              	.L47:
 1007              	.LBB339:
 1008              	.LBB340:
 1009              	.LBB341:
 1010              	.LBB342:
 1011              	.LBB343:
 1012              		.loc 4 372 16 view .LVU319
 1013 003d C7070000 		movl	$0, (%edi)
 1013      0000
 1014              	.LBE343:
 1015              	.LBE342:
 1016              	.LBE341:
 1017              	.LBE340:
 1018              	.LBE339:
 1019              		.loc 1 332 1 view .LVU320
 1020 0043 83C41C   		addl	$28, %esp
 1021              		.cfi_remember_state
 1022              		.cfi_def_cfa_offset 20
 1023 0046 5B       		popl	%ebx
 1024              		.cfi_restore 3
 1025              		.cfi_def_cfa_offset 16
 1026 0047 5E       		popl	%esi
 1027              		.cfi_restore 6
 1028              		.cfi_def_cfa_offset 12
 1029 0048 5F       		popl	%edi
 1030              		.cfi_restore 7
 1031              		.cfi_def_cfa_offset 8
 1032 0049 5D       		popl	%ebp
 1033              		.cfi_restore 5
 1034              		.cfi_def_cfa_offset 4
 1035 004a C3       		ret
 1036 004b 8D742600 		.p2align 4,,10
 1036      90
 1037              		.p2align 3
 1038              	.L42:
 1039              		.cfi_restore_state
 1040              	.LBB352:
GAS LISTING /tmp/ccNgdVMZ.s 			page 20


 1041              	.LBB353:
 1042              	.LBB354:
 1043              		.loc 1 226 5 is_stmt 1 view .LVU321
 1044              		.loc 1 226 8 is_stmt 0 view .LVU322
 1045 0050 807E0800 		cmpb	$0, 8(%esi)
 1046 0054 757A     		jne	.L48
 1047              		.loc 1 229 5 is_stmt 1 view .LVU323
 1048              	.LVL38:
 1049              	.LBB355:
 1050              	.LBI355:
 1051              		.loc 2 892 21 view .LVU324
 1052              	.LBB356:
 1053              		.loc 2 895 3 view .LVU325
 1054              		.loc 2 895 10 is_stmt 0 view .LVU326
 1055 0056 83EC08   		subl	$8, %esp
 1056              		.cfi_def_cfa_offset 56
 1057 0059 55       		pushl	%ebp
 1058              		.cfi_def_cfa_offset 60
 1059 005a 56       		pushl	%esi
 1060              		.cfi_def_cfa_offset 64
 1061 005b E8FCFFFF 		call	chThdEnqueueTimeoutS@PLT
 1061      FF
 1062              	.LVL39:
 1063              		.loc 2 895 10 view .LVU327
 1064              	.LBE356:
 1065              	.LBE355:
 1066              		.loc 1 230 5 is_stmt 1 view .LVU328
 1067              		.loc 1 230 8 is_stmt 0 view .LVU329
 1068 0060 83C410   		addl	$16, %esp
 1069              		.cfi_def_cfa_offset 48
 1070 0063 85C0     		testl	%eax, %eax
 1071 0065 78D6     		js	.L47
 1072              	.LVL40:
 1073              	.L39:
 1074              		.loc 1 230 8 view .LVU330
 1075              	.LBE354:
 1076              		.loc 1 225 10 is_stmt 1 view .LVU331
 1077 0067 8B460C   		movl	12(%esi), %eax
 1078 006a 85C0     		testl	%eax, %eax
 1079 006c 74E2     		je	.L42
 1080              	.LVL41:
 1081              	.LBB357:
 1082              	.LBI357:
 1083              		.loc 1 220 9 view .LVU332
 1084              	.LBB358:
 1085              		.loc 1 235 3 view .LVU333
 1086              		.loc 1 235 3 view .LVU334
 1087              		.loc 1 235 3 view .LVU335
 1088              		.loc 1 238 3 view .LVU336
 1089              		.loc 1 238 19 is_stmt 0 view .LVU337
 1090 006e 8B4614   		movl	20(%esi), %eax
 1091              		.loc 1 239 25 view .LVU338
 1092 0071 8B08     		movl	(%eax), %ecx
 1093              		.loc 1 238 28 view .LVU339
 1094 0073 8D5004   		leal	4(%eax), %edx
 1095              		.loc 1 238 13 view .LVU340
 1096 0076 895628   		movl	%edx, 40(%esi)
GAS LISTING /tmp/ccNgdVMZ.s 			page 21


 1097              		.loc 1 239 3 is_stmt 1 view .LVU341
 1098              		.loc 1 239 25 is_stmt 0 view .LVU342
 1099 0079 01D1     		addl	%edx, %ecx
 1100              		.loc 1 239 13 view .LVU343
 1101 007b 894E2C   		movl	%ecx, 44(%esi)
 1102              		.loc 1 241 3 is_stmt 1 view .LVU344
 1103              	.LVL42:
 1104              		.loc 1 241 3 is_stmt 0 view .LVU345
 1105              	.LBE358:
 1106              	.LBE357:
 1107              	.LBE353:
 1108              	.LBE352:
 1109              		.loc 1 314 5 is_stmt 1 view .LVU346
 1110 007e EBB0     		jmp	.L40
 1111              	.LVL43:
 1112              		.p2align 4,,10
 1113              		.p2align 3
 1114              	.L56:
 1115              		.loc 1 327 5 view .LVU347
 1116              	.LBB361:
 1117              	.LBI361:
 1118              		.loc 1 267 8 view .LVU348
 1119              	.LBB362:
 1120              		.loc 1 269 23 view .LVU349
 1121              		.loc 1 270 3 view .LVU350
 1122              		.loc 1 270 3 view .LVU351
 1123              		.loc 1 270 3 view .LVU352
 1124              		.loc 1 273 3 view .LVU353
 1125              		.loc 1 273 7 is_stmt 0 view .LVU354
 1126 0080 8B560C   		movl	12(%esi), %edx
 1127              		.loc 1 273 17 view .LVU355
 1128 0083 83EA01   		subl	$1, %edx
 1129 0086 89560C   		movl	%edx, 12(%esi)
 1130              		.loc 1 274 3 is_stmt 1 view .LVU356
 1131              		.loc 1 274 16 is_stmt 0 view .LVU357
 1132 0089 8B561C   		movl	28(%esi), %edx
 1133 008c 035614   		addl	20(%esi), %edx
 1134 008f 895614   		movl	%edx, 20(%esi)
 1135              		.loc 1 275 3 is_stmt 1 view .LVU358
 1136              		.loc 1 275 6 is_stmt 0 view .LVU359
 1137 0092 3B5618   		cmpl	24(%esi), %edx
 1138 0095 7331     		jnb	.L57
 1139              	.L45:
 1140              		.loc 1 280 3 is_stmt 1 view .LVU360
 1141              		.loc 1 283 11 is_stmt 0 view .LVU361
 1142 0097 8B5630   		movl	48(%esi), %edx
 1143              		.loc 1 280 13 view .LVU362
 1144 009a C7462800 		movl	$0, 40(%esi)
 1144      000000
 1145              		.loc 1 283 3 is_stmt 1 view .LVU363
 1146              		.loc 1 283 6 is_stmt 0 view .LVU364
 1147 00a1 85D2     		testl	%edx, %edx
 1148 00a3 7498     		je	.L47
 1149 00a5 8944240C 		movl	%eax, 12(%esp)
 1150              		.loc 1 284 5 is_stmt 1 view .LVU365
 1151 00a9 83EC0C   		subl	$12, %esp
 1152              		.cfi_def_cfa_offset 60
GAS LISTING /tmp/ccNgdVMZ.s 			page 22


 1153 00ac 56       		pushl	%esi
 1154              		.cfi_def_cfa_offset 64
 1155 00ad FFD2     		call	*%edx
 1156              	.LVL44:
 1157              		.loc 1 284 5 is_stmt 0 view .LVU366
 1158              	.LBE362:
 1159              	.LBE361:
 1160              	.LBB366:
 1161              	.LBB350:
 1162              	.LBB348:
 1163              	.LBB346:
 1164              	.LBB344:
 1165              		.loc 4 372 16 view .LVU367
 1166 00af C7070000 		movl	$0, (%edi)
 1166      0000
 1167              	.LBE344:
 1168              	.LBE346:
 1169              	.LBE348:
 1170              	.LBE350:
 1171              	.LBE366:
 1172              	.LBB367:
 1173              	.LBB363:
 1174              		.loc 1 284 5 view .LVU368
 1175 00b5 8B44241C 		movl	28(%esp), %eax
 1176              	.LVL45:
 1177              		.loc 1 284 5 view .LVU369
 1178              	.LBE363:
 1179              	.LBE367:
 1180              		.loc 1 330 3 is_stmt 1 view .LVU370
 1181              		.loc 1 331 3 view .LVU371
 1182              	.LBB368:
 1183              	.LBB364:
 1184              		.loc 1 284 5 is_stmt 0 view .LVU372
 1185 00b9 83C410   		addl	$16, %esp
 1186              		.cfi_def_cfa_offset 48
 1187              	.LBE364:
 1188              	.LBE368:
 1189              		.loc 1 332 1 view .LVU373
 1190 00bc 83C41C   		addl	$28, %esp
 1191              		.cfi_remember_state
 1192              		.cfi_def_cfa_offset 20
 1193 00bf 5B       		popl	%ebx
 1194              		.cfi_restore 3
 1195              		.cfi_def_cfa_offset 16
 1196 00c0 5E       		popl	%esi
 1197              		.cfi_restore 6
 1198              		.cfi_def_cfa_offset 12
 1199 00c1 5F       		popl	%edi
 1200              		.cfi_restore 7
 1201              		.cfi_def_cfa_offset 8
 1202 00c2 5D       		popl	%ebp
 1203              		.cfi_restore 5
 1204              		.cfi_def_cfa_offset 4
 1205 00c3 C3       		ret
 1206              	.LVL46:
 1207              		.p2align 4,,10
 1208 00c4 8D742600 		.p2align 3
GAS LISTING /tmp/ccNgdVMZ.s 			page 23


 1209              	.L57:
 1210              		.cfi_restore_state
 1211              	.LBB369:
 1212              	.LBB365:
 1213              		.loc 1 276 5 is_stmt 1 view .LVU374
 1214              		.loc 1 276 18 is_stmt 0 view .LVU375
 1215 00c8 8B5624   		movl	36(%esi), %edx
 1216 00cb 895614   		movl	%edx, 20(%esi)
 1217 00ce EBC7     		jmp	.L45
 1218              	.LVL47:
 1219              		.p2align 4,,10
 1220              		.p2align 3
 1221              	.L48:
 1222              		.loc 1 276 18 view .LVU376
 1223              	.LBE365:
 1224              	.LBE369:
 1225              	.LBB370:
 1226              	.LBB360:
 1227              	.LBB359:
 1228              		.loc 1 227 14 view .LVU377
 1229 00d0 B8FEFFFF 		movl	$-2, %eax
 1229      FF
 1230              	.LVL48:
 1231              		.loc 1 227 14 view .LVU378
 1232              	.LBE359:
 1233              	.LBE360:
 1234              	.LBE370:
 1235              		.loc 1 314 5 is_stmt 1 view .LVU379
 1236              		.loc 1 315 7 view .LVU380
 1237              	.LBB371:
 1238              	.LBI339:
 1239              		.loc 2 584 20 view .LVU381
 1240              		.loc 2 586 3 view .LVU382
 1241              	.LBB351:
 1242              	.LBI340:
 1243              		.loc 3 421 20 view .LVU383
 1244              	.LBB349:
 1245              		.loc 3 423 23 view .LVU384
 1246              		.loc 3 424 34 view .LVU385
 1247              		.loc 3 430 3 view .LVU386
 1248              		.loc 3 430 3 view .LVU387
 1249              		.loc 3 430 3 view .LVU388
 1250              		.loc 3 434 3 view .LVU389
 1251              	.LBB347:
 1252              	.LBI342:
 1253              		.loc 4 370 20 view .LVU390
 1254              	.LBB345:
 1255              		.loc 4 372 3 view .LVU391
 1256              	.LBE345:
 1257              	.LBE347:
 1258              	.LBE349:
 1259              	.LBE351:
 1260              	.LBE371:
 1261              		.loc 1 316 7 view .LVU392
 1262              		.loc 1 316 14 is_stmt 0 view .LVU393
 1263 00d5 E963FFFF 		jmp	.L47
 1263      FF
GAS LISTING /tmp/ccNgdVMZ.s 			page 24


 1264              		.cfi_endproc
 1265              	.LFE319:
 1266              		.size	ibqGetTimeout, .-ibqGetTimeout
 1267              		.section	.text.ibqReadTimeout,"ax",@progbits
 1268              		.p2align 4
 1269              		.globl	ibqReadTimeout
 1270              		.type	ibqReadTimeout, @function
 1271              	ibqReadTimeout:
 1272              	.LVL49:
 1273              	.LFB320:
 1274              		.loc 1 355 56 is_stmt 1 view -0
 1275              		.cfi_startproc
 1276              		.loc 1 356 3 view .LVU395
 1277              		.loc 1 358 3 view .LVU396
 1278              		.loc 1 358 3 view .LVU397
 1279              		.loc 1 358 3 view .LVU398
 1280              		.loc 1 360 3 view .LVU399
 1281              	.LBB410:
 1282              	.LBI410:
 1283              		.loc 2 573 20 view .LVU400
 1284              	.LBB411:
 1285              		.loc 2 575 3 view .LVU401
 1286              	.LBB412:
 1287              	.LBI412:
 1288              		.loc 3 407 20 view .LVU402
 1289              		.loc 3 409 3 view .LVU403
 1290              	.LBB413:
 1291              	.LBI413:
 1292              		.loc 4 361 20 view .LVU404
 1293              	.LBB414:
 1294              		.loc 4 363 3 view .LVU405
 1295              	.LBE414:
 1296              	.LBE413:
 1297              		.loc 3 410 35 view .LVU406
 1298              		.loc 3 411 21 view .LVU407
 1299              	.LBE412:
 1300              	.LBE411:
 1301              	.LBE410:
 1302              		.loc 1 355 56 is_stmt 0 view .LVU408
 1303 0000 55       		pushl	%ebp
 1304              		.cfi_def_cfa_offset 8
 1305              		.cfi_offset 5, -8
 1306              		.loc 1 356 10 view .LVU409
 1307 0001 31ED     		xorl	%ebp, %ebp
 1308              		.loc 1 355 56 view .LVU410
 1309 0003 57       		pushl	%edi
 1310              		.cfi_def_cfa_offset 12
 1311              		.cfi_offset 7, -12
 1312 0004 56       		pushl	%esi
 1313              		.cfi_def_cfa_offset 16
 1314              		.cfi_offset 6, -16
 1315 0005 53       		pushl	%ebx
 1316              		.cfi_def_cfa_offset 20
 1317              		.cfi_offset 3, -20
 1318 0006 E8FCFFFF 		call	__x86.get_pc_thunk.bx
 1318      FF
 1319 000b 81C30200 		addl	$_GLOBAL_OFFSET_TABLE_, %ebx
GAS LISTING /tmp/ccNgdVMZ.s 			page 25


 1319      0000
 1320 0011 83EC1C   		subl	$28, %esp
 1321              		.cfi_def_cfa_offset 48
 1322              		.loc 1 355 56 view .LVU411
 1323 0014 8B742430 		movl	48(%esp), %esi
 1324 0018 8B7C2434 		movl	52(%esp), %edi
 1325 001c 8B830000 		movl	port_irq_sts@GOT(%ebx), %eax
 1325      0000
 1326 0022 89442408 		movl	%eax, 8(%esp)
 1327              	.LBB420:
 1328              	.LBB418:
 1329              		.loc 2 576 1 view .LVU412
 1330 0026 E9820000 		jmp	.L69
 1330      00
 1331              	.LVL50:
 1332 002b 8D742600 		.p2align 4,,10
 1332      90
 1333              		.p2align 3
 1334              	.L80:
 1335              		.loc 2 576 1 view .LVU413
 1336              	.LBE418:
 1337              	.LBE420:
 1338              	.LBB421:
 1339              		.loc 1 389 7 is_stmt 1 view .LVU414
 1340              	.LBB422:
 1341              	.LBI422:
 1342              		.file 5 "/usr/include/bits/string_fortified.h"
 1343              		.loc 5 26 1 view .LVU415
 1344              	.LBB423:
 1345              		.loc 5 29 3 view .LVU416
 1346              		.loc 5 29 10 is_stmt 0 view .LVU417
 1347 0030 8B10     		movl	(%eax), %edx
 1348              	.LVL51:
 1349              		.loc 5 29 10 view .LVU418
 1350              	.LBE423:
 1351              	.LBE422:
 1352              		.loc 1 390 17 view .LVU419
 1353 0032 83C740   		addl	$64, %edi
 1354              	.LVL52:
 1355              		.loc 1 392 17 view .LVU420
 1356 0035 83C540   		addl	$64, %ebp
 1357              	.LVL53:
 1358              	.LBB425:
 1359              	.LBB424:
 1360              		.loc 5 29 10 view .LVU421
 1361 0038 8957C0   		movl	%edx, -64(%edi)
 1362              	.LVL54:
 1363              		.loc 5 29 10 view .LVU422
 1364 003b 8B5004   		movl	4(%eax), %edx
 1365 003e 8957C4   		movl	%edx, -60(%edi)
 1366 0041 8B5008   		movl	8(%eax), %edx
 1367 0044 8957C8   		movl	%edx, -56(%edi)
 1368 0047 8B500C   		movl	12(%eax), %edx
 1369 004a 8957CC   		movl	%edx, -52(%edi)
 1370 004d 8B5010   		movl	16(%eax), %edx
 1371 0050 8957D0   		movl	%edx, -48(%edi)
 1372 0053 8B5014   		movl	20(%eax), %edx
GAS LISTING /tmp/ccNgdVMZ.s 			page 26


 1373 0056 8957D4   		movl	%edx, -44(%edi)
 1374 0059 8B5018   		movl	24(%eax), %edx
 1375 005c 8957D8   		movl	%edx, -40(%edi)
 1376 005f 8B501C   		movl	28(%eax), %edx
 1377 0062 8957DC   		movl	%edx, -36(%edi)
 1378 0065 8B5020   		movl	32(%eax), %edx
 1379 0068 8957E0   		movl	%edx, -32(%edi)
 1380 006b 8B5024   		movl	36(%eax), %edx
 1381 006e 8957E4   		movl	%edx, -28(%edi)
 1382 0071 8B5028   		movl	40(%eax), %edx
 1383 0074 8957E8   		movl	%edx, -24(%edi)
 1384 0077 8B502C   		movl	44(%eax), %edx
 1385 007a 8957EC   		movl	%edx, -20(%edi)
 1386 007d 8B5030   		movl	48(%eax), %edx
 1387 0080 8957F0   		movl	%edx, -16(%edi)
 1388 0083 8B5034   		movl	52(%eax), %edx
 1389 0086 8957F4   		movl	%edx, -12(%edi)
 1390 0089 8B5038   		movl	56(%eax), %edx
 1391 008c 8957F8   		movl	%edx, -8(%edi)
 1392 008f 8B403C   		movl	60(%eax), %eax
 1393 0092 8947FC   		movl	%eax, -4(%edi)
 1394              	.LVL55:
 1395              		.loc 5 29 10 view .LVU423
 1396              	.LBE424:
 1397              	.LBE425:
 1398              		.loc 1 390 7 is_stmt 1 view .LVU424
 1399              		.loc 1 391 7 view .LVU425
 1400              		.loc 1 391 17 is_stmt 0 view .LVU426
 1401 0095 8B4628   		movl	40(%esi), %eax
 1402 0098 83C040   		addl	$64, %eax
 1403              		.loc 1 392 7 is_stmt 1 view .LVU427
 1404              	.LVL56:
 1405              		.loc 1 391 17 is_stmt 0 view .LVU428
 1406 009b 894628   		movl	%eax, 40(%esi)
 1407              		.loc 1 402 5 is_stmt 1 view .LVU429
 1408              		.loc 1 402 8 is_stmt 0 view .LVU430
 1409 009e 39462C   		cmpl	%eax, 44(%esi)
 1410 00a1 765F     		jbe	.L79
 1411              	.L66:
 1412              		.loc 1 407 5 is_stmt 1 view .LVU431
 1413              	.LBB426:
 1414              	.LBI426:
 1415              		.loc 2 584 20 view .LVU432
 1416              		.loc 2 586 3 view .LVU433
 1417              	.LBB427:
 1418              	.LBI427:
 1419              		.loc 3 421 20 view .LVU434
 1420              	.LBB428:
 1421              		.loc 3 423 23 view .LVU435
 1422              		.loc 3 424 34 view .LVU436
 1423              		.loc 3 430 3 view .LVU437
 1424              		.loc 3 430 3 view .LVU438
 1425              		.loc 3 430 3 view .LVU439
 1426              		.loc 3 434 3 view .LVU440
 1427              	.LBB429:
 1428              	.LBI429:
 1429              		.loc 4 370 20 view .LVU441
GAS LISTING /tmp/ccNgdVMZ.s 			page 27


 1430              	.LBB430:
 1431              		.loc 4 372 3 view .LVU442
 1432              	.LBE430:
 1433              	.LBE429:
 1434              	.LBE428:
 1435              	.LBE427:
 1436              	.LBE426:
 1437              		.loc 1 408 5 view .LVU443
 1438              		.loc 1 408 8 is_stmt 0 view .LVU444
 1439 00a3 3B6C2438 		cmpl	56(%esp), %ebp
 1440 00a7 0F839700 		jnb	.L61
 1440      0000
 1441              	.LVL57:
 1442              	.L69:
 1443              		.loc 1 408 8 view .LVU445
 1444              	.LBE421:
 1445              	.LBB459:
 1446              	.LBB419:
 1447              	.LBB417:
 1448              	.LBB416:
 1449              	.LBB415:
 1450              		.loc 4 363 16 view .LVU446
 1451 00ad 8B442408 		movl	8(%esp), %eax
 1452 00b1 C7000100 		movl	$1, (%eax)
 1452      0000
 1453              	.LVL58:
 1454              		.loc 4 363 16 view .LVU447
 1455              	.LBE415:
 1456              	.LBE416:
 1457              	.LBE417:
 1458              	.LBE419:
 1459              	.LBE459:
 1460              		.loc 1 362 3 is_stmt 1 view .LVU448
 1461              	.LBB460:
 1462              		.loc 1 363 5 view .LVU449
 1463              		.loc 1 366 5 view .LVU450
 1464              		.loc 1 366 13 is_stmt 0 view .LVU451
 1465 00b7 8B4628   		movl	40(%esi), %eax
 1466              		.loc 1 366 8 view .LVU452
 1467 00ba 85C0     		testl	%eax, %eax
 1468 00bc 0F849E00 		je	.L77
 1468      0000
 1469              		.loc 1 380 24 view .LVU453
 1470 00c2 8B562C   		movl	44(%esi), %edx
 1471              	.LVL59:
 1472              	.L60:
 1473              		.loc 1 380 5 is_stmt 1 view .LVU454
 1474              		.loc 1 381 5 view .LVU455
 1475              		.loc 1 381 19 is_stmt 0 view .LVU456
 1476 00c5 8B4C2438 		movl	56(%esp), %ecx
 1477              		.loc 1 380 10 view .LVU457
 1478 00c9 29C2     		subl	%eax, %edx
 1479              	.LVL60:
 1480              		.loc 1 381 19 view .LVU458
 1481 00cb 29E9     		subl	%ebp, %ecx
 1482 00cd 39D1     		cmpl	%edx, %ecx
 1483 00cf 0F46D1   		cmovbe	%ecx, %edx
GAS LISTING /tmp/ccNgdVMZ.s 			page 28


 1484              	.LVL61:
 1485              		.loc 1 387 5 is_stmt 1 view .LVU459
 1486              		.loc 1 387 8 is_stmt 0 view .LVU460
 1487 00d2 83FA40   		cmpl	$64, %edx
 1488 00d5 0F8755FF 		ja	.L80
 1488      FFFF
 1489              		.loc 1 395 7 is_stmt 1 view .LVU461
 1490              	.LVL62:
 1491              	.LBB435:
 1492              	.LBI435:
 1493              		.loc 5 26 1 view .LVU462
 1494              	.LBB436:
 1495              		.loc 5 29 3 view .LVU463
 1496              		.loc 5 29 10 is_stmt 0 view .LVU464
 1497 00db 83EC04   		subl	$4, %esp
 1498              		.cfi_def_cfa_offset 52
 1499 00de 52       		pushl	%edx
 1500              		.cfi_def_cfa_offset 56
 1501 00df 89542414 		movl	%edx, 20(%esp)
 1502 00e3 50       		pushl	%eax
 1503              		.cfi_def_cfa_offset 60
 1504              	.LVL63:
 1505              		.loc 5 29 10 view .LVU465
 1506 00e4 57       		pushl	%edi
 1507              		.cfi_def_cfa_offset 64
 1508 00e5 E8FCFFFF 		call	memcpy@PLT
 1508      FF
 1509              	.LVL64:
 1510              		.loc 5 29 10 view .LVU466
 1511              	.LBE436:
 1512              	.LBE435:
 1513              		.loc 1 396 7 is_stmt 1 view .LVU467
 1514              		.loc 1 396 17 is_stmt 0 view .LVU468
 1515 00ea 8B54241C 		movl	28(%esp), %edx
 1516              		.loc 1 397 17 view .LVU469
 1517 00ee 8B4628   		movl	40(%esi), %eax
 1518              		.loc 1 398 17 view .LVU470
 1519 00f1 83C410   		addl	$16, %esp
 1520              		.cfi_def_cfa_offset 48
 1521              		.loc 1 397 17 view .LVU471
 1522 00f4 01D0     		addl	%edx, %eax
 1523              		.loc 1 396 17 view .LVU472
 1524 00f6 01D7     		addl	%edx, %edi
 1525              	.LVL65:
 1526              		.loc 1 397 7 is_stmt 1 view .LVU473
 1527              		.loc 1 398 7 view .LVU474
 1528              		.loc 1 398 17 is_stmt 0 view .LVU475
 1529 00f8 01D5     		addl	%edx, %ebp
 1530              	.LVL66:
 1531              		.loc 1 391 17 view .LVU476
 1532 00fa 894628   		movl	%eax, 40(%esi)
 1533              		.loc 1 402 5 is_stmt 1 view .LVU477
 1534              		.loc 1 402 8 is_stmt 0 view .LVU478
 1535 00fd 39462C   		cmpl	%eax, 44(%esi)
 1536 0100 77A1     		ja	.L66
 1537              	.LVL67:
 1538              	.L79:
GAS LISTING /tmp/ccNgdVMZ.s 			page 29


 1539              		.loc 1 403 7 is_stmt 1 view .LVU479
 1540              	.LBB437:
 1541              	.LBI437:
 1542              		.loc 1 267 8 view .LVU480
 1543              	.LBB438:
 1544              		.loc 1 269 23 view .LVU481
 1545              		.loc 1 270 3 view .LVU482
 1546              		.loc 1 270 3 view .LVU483
 1547              		.loc 1 270 3 view .LVU484
 1548              		.loc 1 273 3 view .LVU485
 1549              		.loc 1 273 7 is_stmt 0 view .LVU486
 1550 0102 8B460C   		movl	12(%esi), %eax
 1551              		.loc 1 273 17 view .LVU487
 1552 0105 83E801   		subl	$1, %eax
 1553 0108 89460C   		movl	%eax, 12(%esi)
 1554              		.loc 1 274 3 is_stmt 1 view .LVU488
 1555              		.loc 1 274 16 is_stmt 0 view .LVU489
 1556 010b 8B461C   		movl	28(%esi), %eax
 1557 010e 034614   		addl	20(%esi), %eax
 1558 0111 894614   		movl	%eax, 20(%esi)
 1559              		.loc 1 275 3 is_stmt 1 view .LVU490
 1560              		.loc 1 275 6 is_stmt 0 view .LVU491
 1561 0114 3B4618   		cmpl	24(%esi), %eax
 1562 0117 7206     		jb	.L67
 1563              		.loc 1 276 5 is_stmt 1 view .LVU492
 1564              		.loc 1 276 18 is_stmt 0 view .LVU493
 1565 0119 8B4624   		movl	36(%esi), %eax
 1566 011c 894614   		movl	%eax, 20(%esi)
 1567              	.L67:
 1568              		.loc 1 280 3 is_stmt 1 view .LVU494
 1569              		.loc 1 283 11 is_stmt 0 view .LVU495
 1570 011f 8B4630   		movl	48(%esi), %eax
 1571              		.loc 1 280 13 view .LVU496
 1572 0122 C7462800 		movl	$0, 40(%esi)
 1572      000000
 1573              		.loc 1 283 3 is_stmt 1 view .LVU497
 1574              		.loc 1 283 6 is_stmt 0 view .LVU498
 1575 0129 85C0     		testl	%eax, %eax
 1576 012b 0F8472FF 		je	.L66
 1576      FFFF
 1577              		.loc 1 284 5 is_stmt 1 view .LVU499
 1578 0131 83EC0C   		subl	$12, %esp
 1579              		.cfi_def_cfa_offset 60
 1580 0134 56       		pushl	%esi
 1581              		.cfi_def_cfa_offset 64
 1582 0135 FFD0     		call	*%eax
 1583              	.LVL68:
 1584 0137 83C410   		addl	$16, %esp
 1585              		.cfi_def_cfa_offset 48
 1586              	.LVL69:
 1587              		.loc 1 284 5 is_stmt 0 view .LVU500
 1588              	.LBE438:
 1589              	.LBE437:
 1590              		.loc 1 407 5 is_stmt 1 view .LVU501
 1591              	.LBB439:
 1592              		.loc 2 584 20 view .LVU502
 1593              		.loc 2 586 3 view .LVU503
GAS LISTING /tmp/ccNgdVMZ.s 			page 30


 1594              	.LBB434:
 1595              		.loc 3 421 20 view .LVU504
 1596              	.LBB433:
 1597              		.loc 3 423 23 view .LVU505
 1598              		.loc 3 424 34 view .LVU506
 1599              		.loc 3 430 3 view .LVU507
 1600              		.loc 3 430 3 view .LVU508
 1601              		.loc 3 430 3 view .LVU509
 1602              		.loc 3 434 3 view .LVU510
 1603              	.LBB432:
 1604              		.loc 4 370 20 view .LVU511
 1605              	.LBB431:
 1606              		.loc 4 372 3 view .LVU512
 1607              	.LBE431:
 1608              	.LBE432:
 1609              	.LBE433:
 1610              	.LBE434:
 1611              	.LBE439:
 1612              		.loc 1 408 5 view .LVU513
 1613              		.loc 1 408 8 is_stmt 0 view .LVU514
 1614 013a 3B6C2438 		cmpl	56(%esp), %ebp
 1615 013e 0F8269FF 		jb	.L69
 1615      FFFF
 1616              	.LVL70:
 1617              	.L61:
 1618              	.LBB440:
 1619              		.loc 1 373 7 is_stmt 1 view .LVU515
 1620              		.loc 1 374 9 view .LVU516
 1621              	.LBB441:
 1622              	.LBI441:
 1623              		.loc 2 584 20 view .LVU517
 1624              		.loc 2 586 3 view .LVU518
 1625              	.LBB442:
 1626              	.LBI442:
 1627              		.loc 3 421 20 view .LVU519
 1628              	.LBB443:
 1629              		.loc 3 423 23 view .LVU520
 1630              		.loc 3 424 34 view .LVU521
 1631              		.loc 3 430 3 view .LVU522
 1632              		.loc 3 430 3 view .LVU523
 1633              		.loc 3 430 3 view .LVU524
 1634              		.loc 3 434 3 view .LVU525
 1635              	.LBB444:
 1636              	.LBI444:
 1637              		.loc 4 370 20 view .LVU526
 1638              	.LBB445:
 1639              		.loc 4 372 3 view .LVU527
 1640              		.loc 4 372 16 is_stmt 0 view .LVU528
 1641 0144 8B442408 		movl	8(%esp), %eax
 1642 0148 C7000000 		movl	$0, (%eax)
 1642      0000
 1643              	.LBE445:
 1644              	.LBE444:
 1645              	.LBE443:
 1646              	.LBE442:
 1647              	.LBE441:
 1648              		.loc 1 375 9 is_stmt 1 view .LVU529
GAS LISTING /tmp/ccNgdVMZ.s 			page 31


 1649              	.LBE440:
 1650              	.LBE460:
 1651              		.loc 1 413 1 is_stmt 0 view .LVU530
 1652 014e 83C41C   		addl	$28, %esp
 1653              		.cfi_remember_state
 1654              		.cfi_def_cfa_offset 20
 1655 0151 89E8     		movl	%ebp, %eax
 1656 0153 5B       		popl	%ebx
 1657              		.cfi_restore 3
 1658              		.cfi_def_cfa_offset 16
 1659 0154 5E       		popl	%esi
 1660              		.cfi_restore 6
 1661              		.cfi_def_cfa_offset 12
 1662 0155 5F       		popl	%edi
 1663              		.cfi_restore 7
 1664              		.cfi_def_cfa_offset 8
 1665 0156 5D       		popl	%ebp
 1666              		.cfi_restore 5
 1667              		.cfi_def_cfa_offset 4
 1668              	.LVL71:
 1669              		.loc 1 413 1 view .LVU531
 1670 0157 C3       		ret
 1671              	.LVL72:
 1672 0158 8DB42600 		.p2align 4,,10
 1672      00000090 
 1673              		.p2align 3
 1674              	.L77:
 1675              		.cfi_restore_state
 1676              		.loc 1 413 1 view .LVU532
 1677 0160 897C2434 		movl	%edi, 52(%esp)
 1678 0164 89F7     		movl	%esi, %edi
 1679              	.LVL73:
 1680              		.loc 1 413 1 view .LVU533
 1681 0166 8B74243C 		movl	60(%esp), %esi
 1682 016a EB1B     		jmp	.L59
 1683 016c 8D742600 		.p2align 4,,10
 1684              		.p2align 3
 1685              	.L62:
 1686              	.LBB461:
 1687              	.LBB458:
 1688              	.LBB446:
 1689              	.LBB447:
 1690              	.LBB448:
 1691              		.loc 1 226 5 is_stmt 1 view .LVU534
 1692              		.loc 1 226 8 is_stmt 0 view .LVU535
 1693 0170 807F0800 		cmpb	$0, 8(%edi)
 1694 0174 75CE     		jne	.L61
 1695              		.loc 1 229 5 is_stmt 1 view .LVU536
 1696              	.LVL74:
 1697              	.LBB449:
 1698              	.LBI449:
 1699              		.loc 2 892 21 view .LVU537
 1700              	.LBB450:
 1701              		.loc 2 895 3 view .LVU538
 1702              		.loc 2 895 10 is_stmt 0 view .LVU539
 1703 0176 83EC08   		subl	$8, %esp
 1704              		.cfi_def_cfa_offset 56
GAS LISTING /tmp/ccNgdVMZ.s 			page 32


 1705 0179 56       		pushl	%esi
 1706              		.cfi_def_cfa_offset 60
 1707 017a 57       		pushl	%edi
 1708              		.cfi_def_cfa_offset 64
 1709 017b E8FCFFFF 		call	chThdEnqueueTimeoutS@PLT
 1709      FF
 1710              	.LVL75:
 1711              		.loc 2 895 10 view .LVU540
 1712              	.LBE450:
 1713              	.LBE449:
 1714              		.loc 1 230 5 is_stmt 1 view .LVU541
 1715              		.loc 1 230 8 is_stmt 0 view .LVU542
 1716 0180 83C410   		addl	$16, %esp
 1717              		.cfi_def_cfa_offset 48
 1718 0183 85C0     		testl	%eax, %eax
 1719 0185 78BD     		js	.L61
 1720              	.LVL76:
 1721              	.L59:
 1722              		.loc 1 230 8 view .LVU543
 1723              	.LBE448:
 1724              		.loc 1 225 10 is_stmt 1 view .LVU544
 1725 0187 8B470C   		movl	12(%edi), %eax
 1726 018a 85C0     		testl	%eax, %eax
 1727 018c 74E2     		je	.L62
 1728              	.LBB451:
 1729              	.LBB452:
 1730              		.loc 1 238 19 is_stmt 0 view .LVU545
 1731 018e 89FE     		movl	%edi, %esi
 1732 0190 8B7C2434 		movl	52(%esp), %edi
 1733              	.LVL77:
 1734              		.loc 1 238 19 view .LVU546
 1735              	.LBE452:
 1736              	.LBI451:
 1737              		.loc 1 220 9 is_stmt 1 view .LVU547
 1738              	.LBB453:
 1739              		.loc 1 235 3 view .LVU548
 1740              		.loc 1 235 3 view .LVU549
 1741              		.loc 1 235 3 view .LVU550
 1742              		.loc 1 238 3 view .LVU551
 1743              		.loc 1 238 19 is_stmt 0 view .LVU552
 1744 0194 8B5614   		movl	20(%esi), %edx
 1745              		.loc 1 239 25 view .LVU553
 1746 0197 8B0A     		movl	(%edx), %ecx
 1747              		.loc 1 238 28 view .LVU554
 1748 0199 8D4204   		leal	4(%edx), %eax
 1749              		.loc 1 238 13 view .LVU555
 1750 019c 894628   		movl	%eax, 40(%esi)
 1751              		.loc 1 239 3 is_stmt 1 view .LVU556
 1752              		.loc 1 239 25 is_stmt 0 view .LVU557
 1753 019f 01C1     		addl	%eax, %ecx
 1754              		.loc 1 239 13 view .LVU558
 1755 01a1 894E2C   		movl	%ecx, 44(%esi)
 1756              		.loc 1 241 3 is_stmt 1 view .LVU559
 1757              	.LVL78:
 1758              		.loc 1 241 3 is_stmt 0 view .LVU560
 1759              	.LBE453:
 1760              	.LBE451:
GAS LISTING /tmp/ccNgdVMZ.s 			page 33


 1761              	.LBE447:
 1762              	.LBE446:
 1763              		.loc 1 373 7 is_stmt 1 view .LVU561
 1764              	.LBB457:
 1765              	.LBB456:
 1766              	.LBB455:
 1767              	.LBB454:
 1768              		.loc 1 239 25 is_stmt 0 view .LVU562
 1769 01a4 89CA     		movl	%ecx, %edx
 1770 01a6 E91AFFFF 		jmp	.L60
 1770      FF
 1771              	.LBE454:
 1772              	.LBE455:
 1773              	.LBE456:
 1774              	.LBE457:
 1775              	.LBE458:
 1776              	.LBE461:
 1777              		.cfi_endproc
 1778              	.LFE320:
 1779              		.size	ibqReadTimeout, .-ibqReadTimeout
 1780              		.section	.text.obqObjectInit,"ax",@progbits
 1781              		.p2align 4
 1782              		.globl	obqObjectInit
 1783              		.type	obqObjectInit, @function
 1784              	obqObjectInit:
 1785              	.LVL79:
 1786              	.LFB321:
 1787              		.loc 1 429 72 is_stmt 1 view -0
 1788              		.cfi_startproc
 1789              		.loc 1 431 3 view .LVU564
 1790              		.loc 1 431 3 view .LVU565
 1791              		.loc 1 431 3 view .LVU566
 1792              		.loc 1 433 3 view .LVU567
 1793              		.loc 1 429 72 is_stmt 0 view .LVU568
 1794 0000 55       		pushl	%ebp
 1795              		.cfi_def_cfa_offset 8
 1796              		.cfi_offset 5, -8
 1797 0001 57       		pushl	%edi
 1798              		.cfi_def_cfa_offset 12
 1799              		.cfi_offset 7, -12
 1800 0002 56       		pushl	%esi
 1801              		.cfi_def_cfa_offset 16
 1802              		.cfi_offset 6, -16
 1803 0003 53       		pushl	%ebx
 1804              		.cfi_def_cfa_offset 20
 1805              		.cfi_offset 3, -20
 1806 0004 E8FCFFFF 		call	__x86.get_pc_thunk.bx
 1806      FF
 1807 0009 81C30200 		addl	$_GLOBAL_OFFSET_TABLE_, %ebx
 1807      0000
 1808 000f 83EC28   		subl	$40, %esp
 1809              		.cfi_def_cfa_offset 60
 1810              		.loc 1 429 72 view .LVU569
 1811 0012 8B74243C 		movl	60(%esp), %esi
 1812              	.LVL80:
 1813              	.LBB462:
 1814              	.LBI462:
GAS LISTING /tmp/ccNgdVMZ.s 			page 34


 1815              		.loc 2 864 20 is_stmt 1 view .LVU570
 1816              	.LBB463:
 1817              		.loc 2 866 3 view .LVU571
 1818              	.LBE463:
 1819              	.LBE462:
 1820              		.loc 1 429 72 is_stmt 0 view .LVU572
 1821 0016 8B442440 		movl	64(%esp), %eax
 1822 001a 8B7C2444 		movl	68(%esp), %edi
 1823 001e 8B6C244C 		movl	76(%esp), %ebp
 1824 0022 89442418 		movl	%eax, 24(%esp)
 1825              	.LBB465:
 1826              	.LBB464:
 1827              		.loc 2 866 3 view .LVU573
 1828 0026 56       		pushl	%esi
 1829              		.cfi_def_cfa_offset 64
 1830 0027 E8FCFFFF 		call	chThdQueueObjectInit@PLT
 1830      FF
 1831              	.LVL81:
 1832              		.loc 2 866 3 view .LVU574
 1833              	.LBE464:
 1834              	.LBE465:
 1835              		.loc 1 434 3 is_stmt 1 view .LVU575
 1836              		.loc 1 434 19 is_stmt 0 view .LVU576
 1837 002c 8B44241C 		movl	28(%esp), %eax
 1838              		.loc 1 435 19 view .LVU577
 1839 0030 896E0C   		movl	%ebp, 12(%esi)
 1840              		.loc 1 436 19 view .LVU578
 1841 0033 897E14   		movl	%edi, 20(%esi)
 1842              		.loc 1 434 19 view .LVU579
 1843 0036 884608   		movb	%al, 8(%esi)
 1844              		.loc 1 435 3 is_stmt 1 view .LVU580
 1845              		.loc 1 436 3 view .LVU581
 1846              		.loc 1 437 3 view .LVU582
 1847              		.loc 1 438 33 is_stmt 0 view .LVU583
 1848 0039 8B44244C 		movl	76(%esp), %eax
 1849              		.loc 1 437 19 view .LVU584
 1850 003d 897E10   		movl	%edi, 16(%esi)
 1851              		.loc 1 438 3 is_stmt 1 view .LVU585
 1852              		.loc 1 438 33 is_stmt 0 view .LVU586
 1853 0040 83C004   		addl	$4, %eax
 1854              		.loc 1 440 19 view .LVU587
 1855 0043 896E20   		movl	%ebp, 32(%esi)
 1856              		.loc 1 438 52 view .LVU588
 1857 0046 89C2     		movl	%eax, %edx
 1858              		.loc 1 439 19 view .LVU589
 1859 0048 89461C   		movl	%eax, 28(%esi)
 1860              		.loc 1 444 19 view .LVU590
 1861 004b 8B442454 		movl	84(%esp), %eax
 1862              		.loc 1 438 52 view .LVU591
 1863 004f 0FAFD5   		imull	%ebp, %edx
 1864              		.loc 1 441 19 view .LVU592
 1865 0052 897E24   		movl	%edi, 36(%esi)
 1866              		.loc 1 444 19 view .LVU593
 1867 0055 894630   		movl	%eax, 48(%esi)
 1868              		.loc 1 445 19 view .LVU594
 1869 0058 8B442458 		movl	88(%esp), %eax
 1870              		.loc 1 442 19 view .LVU595
GAS LISTING /tmp/ccNgdVMZ.s 			page 35


 1871 005c C7462800 		movl	$0, 40(%esi)
 1871      000000
 1872              		.loc 1 438 24 view .LVU596
 1873 0063 01FA     		addl	%edi, %edx
 1874              		.loc 1 443 19 view .LVU597
 1875 0065 C7462C00 		movl	$0, 44(%esi)
 1875      000000
 1876              		.loc 1 438 24 view .LVU598
 1877 006c 895618   		movl	%edx, 24(%esi)
 1878              		.loc 1 439 3 is_stmt 1 view .LVU599
 1879              		.loc 1 440 3 view .LVU600
 1880              		.loc 1 441 3 view .LVU601
 1881              		.loc 1 442 3 view .LVU602
 1882              		.loc 1 443 3 view .LVU603
 1883              		.loc 1 444 3 view .LVU604
 1884              		.loc 1 445 3 view .LVU605
 1885              		.loc 1 445 19 is_stmt 0 view .LVU606
 1886 006f 894634   		movl	%eax, 52(%esi)
 1887              		.loc 1 446 1 view .LVU607
 1888 0072 83C42C   		addl	$44, %esp
 1889              		.cfi_def_cfa_offset 20
 1890 0075 5B       		popl	%ebx
 1891              		.cfi_restore 3
 1892              		.cfi_def_cfa_offset 16
 1893 0076 5E       		popl	%esi
 1894              		.cfi_restore 6
 1895              		.cfi_def_cfa_offset 12
 1896 0077 5F       		popl	%edi
 1897              		.cfi_restore 7
 1898              		.cfi_def_cfa_offset 8
 1899 0078 5D       		popl	%ebp
 1900              		.cfi_restore 5
 1901              		.cfi_def_cfa_offset 4
 1902 0079 C3       		ret
 1903              		.cfi_endproc
 1904              	.LFE321:
 1905              		.size	obqObjectInit, .-obqObjectInit
 1906              		.section	.text.obqResetI,"ax",@progbits
 1907              		.p2align 4
 1908              		.globl	obqResetI
 1909              		.type	obqResetI, @function
 1910              	obqResetI:
 1911              	.LVL82:
 1912              	.LFB322:
 1913              		.loc 1 459 46 is_stmt 1 view -0
 1914              		.cfi_startproc
 1915              		.loc 1 461 23 view .LVU609
 1916              		.loc 1 463 3 view .LVU610
 1917              		.loc 1 459 46 is_stmt 0 view .LVU611
 1918 0000 53       		pushl	%ebx
 1919              		.cfi_def_cfa_offset 8
 1920              		.cfi_offset 3, -8
 1921 0001 E8FCFFFF 		call	__x86.get_pc_thunk.bx
 1921      FF
 1922 0006 81C30200 		addl	$_GLOBAL_OFFSET_TABLE_, %ebx
 1922      0000
 1923 000c 83EC10   		subl	$16, %esp
GAS LISTING /tmp/ccNgdVMZ.s 			page 36


 1924              		.cfi_def_cfa_offset 24
 1925              		.loc 1 459 46 view .LVU612
 1926 000f 8B442418 		movl	24(%esp), %eax
 1927              		.loc 1 463 21 view .LVU613
 1928 0013 8B5020   		movl	32(%eax), %edx
 1929              		.loc 1 466 19 view .LVU614
 1930 0016 C7402800 		movl	$0, 40(%eax)
 1930      000000
 1931              		.loc 1 467 19 view .LVU615
 1932 001d C7402C00 		movl	$0, 44(%eax)
 1932      000000
 1933              		.loc 1 463 19 view .LVU616
 1934 0024 89500C   		movl	%edx, 12(%eax)
 1935              		.loc 1 464 3 is_stmt 1 view .LVU617
 1936              		.loc 1 464 25 is_stmt 0 view .LVU618
 1937 0027 8B5024   		movl	36(%eax), %edx
 1938              		.loc 1 464 19 view .LVU619
 1939 002a 895014   		movl	%edx, 20(%eax)
 1940              		.loc 1 465 3 is_stmt 1 view .LVU620
 1941              		.loc 1 465 19 is_stmt 0 view .LVU621
 1942 002d 895010   		movl	%edx, 16(%eax)
 1943              		.loc 1 466 3 is_stmt 1 view .LVU622
 1944              		.loc 1 467 3 view .LVU623
 1945              		.loc 1 468 3 view .LVU624
 1946              	.LVL83:
 1947              	.LBB466:
 1948              	.LBI466:
 1949              		.loc 2 919 20 view .LVU625
 1950              	.LBB467:
 1951              		.loc 2 921 3 view .LVU626
 1952 0030 6AFE     		pushl	$-2
 1953              		.cfi_def_cfa_offset 28
 1954 0032 50       		pushl	%eax
 1955              		.cfi_def_cfa_offset 32
 1956 0033 E8FCFFFF 		call	chThdDequeueAllI@PLT
 1956      FF
 1957              	.LVL84:
 1958              		.loc 2 921 3 is_stmt 0 view .LVU627
 1959              	.LBE467:
 1960              	.LBE466:
 1961              		.loc 1 469 1 view .LVU628
 1962 0038 83C418   		addl	$24, %esp
 1963              		.cfi_def_cfa_offset 8
 1964 003b 5B       		popl	%ebx
 1965              		.cfi_restore 3
 1966              		.cfi_def_cfa_offset 4
 1967 003c C3       		ret
 1968              		.cfi_endproc
 1969              	.LFE322:
 1970              		.size	obqResetI, .-obqResetI
 1971              		.section	.text.obqGetFullBufferI,"ax",@progbits
 1972              		.p2align 4
 1973              		.globl	obqGetFullBufferI
 1974              		.type	obqGetFullBufferI, @function
 1975              	obqGetFullBufferI:
 1976              	.LVL85:
 1977              	.LFB323:
GAS LISTING /tmp/ccNgdVMZ.s 			page 37


 1978              		.loc 1 483 43 is_stmt 1 view -0
 1979              		.cfi_startproc
 1980              		.loc 1 485 23 view .LVU630
 1981              		.loc 1 487 3 view .LVU631
 1982              		.loc 1 483 43 is_stmt 0 view .LVU632
 1983 0000 8B542404 		movl	4(%esp), %edx
 1984              		.loc 1 487 7 view .LVU633
 1985 0004 8B4214   		movl	20(%edx), %eax
 1986 0007 394210   		cmpl	%eax, 16(%edx)
 1987 000a 7414     		je	.L92
 1988              	.L86:
 1989              		.loc 1 493 3 is_stmt 1 view .LVU634
 1990              		.loc 1 493 12 is_stmt 0 view .LVU635
 1991 000c 8B08     		movl	(%eax), %ecx
 1992              		.loc 1 495 3 is_stmt 1 view .LVU636
 1993 000e 8B542408 		movl	8(%esp), %edx
 1994              		.loc 1 495 23 is_stmt 0 view .LVU637
 1995 0012 83C004   		addl	$4, %eax
 1996 0015 890A     		movl	%ecx, (%edx)
 1997              		.loc 1 496 1 view .LVU638
 1998 0017 C3       		ret
 1999              	.LVL86:
 2000 0018 8DB42600 		.p2align 4,,10
 2000      00000090 
 2001              		.p2align 3
 2002              	.L92:
 2003              		.loc 1 487 7 discriminator 1 view .LVU639
 2004 0020 8B520C   		movl	12(%edx), %edx
 2005              	.LVL87:
 2006              		.loc 1 487 7 discriminator 1 view .LVU640
 2007 0023 85D2     		testl	%edx, %edx
 2008 0025 74E5     		je	.L86
 2009 0027 8B542408 		movl	8(%esp), %edx
 2010              		.loc 1 488 12 view .LVU641
 2011 002b 31C9     		xorl	%ecx, %ecx
 2012              		.loc 1 489 12 view .LVU642
 2013 002d 31C0     		xorl	%eax, %eax
 2014 002f 890A     		movl	%ecx, (%edx)
 2015              		.loc 1 496 1 view .LVU643
 2016 0031 C3       		ret
 2017              		.cfi_endproc
 2018              	.LFE323:
 2019              		.size	obqGetFullBufferI, .-obqGetFullBufferI
 2020              		.section	.text.obqReleaseEmptyBufferI,"ax",@progbits
 2021              		.p2align 4
 2022              		.globl	obqReleaseEmptyBufferI
 2023              		.type	obqReleaseEmptyBufferI, @function
 2024              	obqReleaseEmptyBufferI:
 2025              	.LVL88:
 2026              	.LFB324:
 2027              		.loc 1 505 59 is_stmt 1 view -0
 2028              		.cfi_startproc
 2029              		.loc 1 507 23 view .LVU645
 2030              		.loc 1 508 3 view .LVU646
 2031              		.loc 1 508 3 view .LVU647
 2032              		.loc 1 508 3 view .LVU648
 2033              		.loc 1 511 3 view .LVU649
GAS LISTING /tmp/ccNgdVMZ.s 			page 38


 2034              		.loc 1 505 59 is_stmt 0 view .LVU650
 2035 0000 53       		pushl	%ebx
 2036              		.cfi_def_cfa_offset 8
 2037              		.cfi_offset 3, -8
 2038 0001 E8FCFFFF 		call	__x86.get_pc_thunk.bx
 2038      FF
 2039 0006 81C30200 		addl	$_GLOBAL_OFFSET_TABLE_, %ebx
 2039      0000
 2040 000c 83EC08   		subl	$8, %esp
 2041              		.cfi_def_cfa_offset 16
 2042              		.loc 1 505 59 view .LVU651
 2043 000f 8B442410 		movl	16(%esp), %eax
 2044              		.loc 1 511 7 view .LVU652
 2045 0013 8B500C   		movl	12(%eax), %edx
 2046              		.loc 1 511 17 view .LVU653
 2047 0016 83C201   		addl	$1, %edx
 2048 0019 89500C   		movl	%edx, 12(%eax)
 2049              		.loc 1 512 3 is_stmt 1 view .LVU654
 2050              		.loc 1 512 16 is_stmt 0 view .LVU655
 2051 001c 8B501C   		movl	28(%eax), %edx
 2052 001f 035014   		addl	20(%eax), %edx
 2053 0022 895014   		movl	%edx, 20(%eax)
 2054              		.loc 1 513 3 is_stmt 1 view .LVU656
 2055              		.loc 1 513 6 is_stmt 0 view .LVU657
 2056 0025 3B5018   		cmpl	24(%eax), %edx
 2057 0028 7206     		jb	.L94
 2058              		.loc 1 514 5 is_stmt 1 view .LVU658
 2059              		.loc 1 514 18 is_stmt 0 view .LVU659
 2060 002a 8B5024   		movl	36(%eax), %edx
 2061 002d 895014   		movl	%edx, 20(%eax)
 2062              	.L94:
 2063              		.loc 1 518 3 is_stmt 1 view .LVU660
 2064              	.LVL89:
 2065              	.LBB468:
 2066              	.LBI468:
 2067              		.loc 2 906 20 view .LVU661
 2068              	.LBB469:
 2069              		.loc 2 908 3 view .LVU662
 2070 0030 83EC08   		subl	$8, %esp
 2071              		.cfi_def_cfa_offset 24
 2072 0033 6A00     		pushl	$0
 2073              		.cfi_def_cfa_offset 28
 2074 0035 50       		pushl	%eax
 2075              		.cfi_def_cfa_offset 32
 2076 0036 E8FCFFFF 		call	chThdDequeueNextI@PLT
 2076      FF
 2077              	.LVL90:
 2078              		.loc 2 908 3 is_stmt 0 view .LVU663
 2079              	.LBE469:
 2080              	.LBE468:
 2081              		.loc 1 519 1 view .LVU664
 2082 003b 83C418   		addl	$24, %esp
 2083              		.cfi_def_cfa_offset 8
 2084 003e 5B       		popl	%ebx
 2085              		.cfi_restore 3
 2086              		.cfi_def_cfa_offset 4
 2087 003f C3       		ret
GAS LISTING /tmp/ccNgdVMZ.s 			page 39


 2088              		.cfi_endproc
 2089              	.LFE324:
 2090              		.size	obqReleaseEmptyBufferI, .-obqReleaseEmptyBufferI
 2091              		.section	.text.obqGetEmptyBufferTimeout,"ax",@progbits
 2092              		.p2align 4
 2093              		.globl	obqGetEmptyBufferTimeout
 2094              		.type	obqGetEmptyBufferTimeout, @function
 2095              	obqGetEmptyBufferTimeout:
 2096              	.LVL91:
 2097              	.LFB325:
 2098              		.loc 1 542 55 is_stmt 1 view -0
 2099              		.cfi_startproc
 2100              		.loc 1 542 55 is_stmt 0 view .LVU666
 2101 0000 55       		pushl	%ebp
 2102              		.cfi_def_cfa_offset 8
 2103              		.cfi_offset 5, -8
 2104 0001 57       		pushl	%edi
 2105              		.cfi_def_cfa_offset 12
 2106              		.cfi_offset 7, -12
 2107 0002 56       		pushl	%esi
 2108              		.cfi_def_cfa_offset 16
 2109              		.cfi_offset 6, -16
 2110 0003 53       		pushl	%ebx
 2111              		.cfi_def_cfa_offset 20
 2112              		.cfi_offset 3, -20
 2113 0004 E8FCFFFF 		call	__x86.get_pc_thunk.bx
 2113      FF
 2114 0009 81C30200 		addl	$_GLOBAL_OFFSET_TABLE_, %ebx
 2114      0000
 2115 000f 83EC0C   		subl	$12, %esp
 2116              		.cfi_def_cfa_offset 32
 2117              		.loc 1 542 55 view .LVU667
 2118 0012 8B6C2420 		movl	32(%esp), %ebp
 2119              		.loc 1 543 3 is_stmt 1 view .LVU668
 2120              		.loc 1 545 3 view .LVU669
 2121              	.LBB489:
 2122              	.LBI489:
 2123              		.loc 2 573 20 view .LVU670
 2124              		.loc 2 575 3 view .LVU671
 2125              	.LBB490:
 2126              	.LBI490:
 2127              		.loc 3 407 20 view .LVU672
 2128              		.loc 3 409 3 view .LVU673
 2129              	.LBB491:
 2130              	.LBI491:
 2131              		.loc 4 361 20 view .LVU674
 2132              	.LBB492:
 2133              		.loc 4 363 3 view .LVU675
 2134              	.LBE492:
 2135              	.LBE491:
 2136              	.LBE490:
 2137              	.LBE489:
 2138              		.loc 1 542 55 is_stmt 0 view .LVU676
 2139 0016 8B742424 		movl	36(%esp), %esi
 2140              	.LBB496:
 2141              	.LBB495:
 2142              	.LBB494:
GAS LISTING /tmp/ccNgdVMZ.s 			page 40


 2143              	.LBB493:
 2144              		.loc 4 363 16 view .LVU677
 2145 001a 8BBB0000 		movl	port_irq_sts@GOT(%ebx), %edi
 2145      0000
 2146 0020 C7070100 		movl	$1, (%edi)
 2146      0000
 2147              	.LBE493:
 2148              	.LBE494:
 2149              		.loc 3 410 35 is_stmt 1 view .LVU678
 2150              		.loc 3 411 21 view .LVU679
 2151              	.LBE495:
 2152              	.LBE496:
 2153              		.loc 1 546 3 view .LVU680
 2154              	.LVL92:
 2155              	.LBB497:
 2156              	.LBI497:
 2157              		.loc 1 572 7 view .LVU681
 2158              	.LBB498:
 2159              		.loc 1 575 23 view .LVU682
 2160              		.loc 1 577 3 view .LVU683
 2161              		.loc 1 577 9 is_stmt 0 view .LVU684
 2162 0026 EB1F     		jmp	.L97
 2163 0028 8DB42600 		.p2align 4,,10
 2163      00000090 
 2164              		.p2align 3
 2165              	.L99:
 2166              	.LBB499:
 2167              		.loc 1 578 5 is_stmt 1 view .LVU685
 2168              		.loc 1 578 8 is_stmt 0 view .LVU686
 2169 0030 807D0800 		cmpb	$0, 8(%ebp)
 2170 0034 753A     		jne	.L100
 2171              		.loc 1 581 5 is_stmt 1 view .LVU687
 2172              	.LVL93:
 2173              	.LBB500:
 2174              	.LBI500:
 2175              		.loc 2 892 21 view .LVU688
 2176              	.LBB501:
 2177              		.loc 2 895 3 view .LVU689
 2178              		.loc 2 895 10 is_stmt 0 view .LVU690
 2179 0036 83EC08   		subl	$8, %esp
 2180              		.cfi_def_cfa_offset 40
 2181 0039 56       		pushl	%esi
 2182              		.cfi_def_cfa_offset 44
 2183 003a 55       		pushl	%ebp
 2184              		.cfi_def_cfa_offset 48
 2185 003b E8FCFFFF 		call	chThdEnqueueTimeoutS@PLT
 2185      FF
 2186              	.LVL94:
 2187              		.loc 2 895 10 view .LVU691
 2188              	.LBE501:
 2189              	.LBE500:
 2190              		.loc 1 582 5 is_stmt 1 view .LVU692
 2191              		.loc 1 582 8 is_stmt 0 view .LVU693
 2192 0040 83C410   		addl	$16, %esp
 2193              		.cfi_def_cfa_offset 32
 2194 0043 85C0     		testl	%eax, %eax
 2195 0045 7818     		js	.L98
GAS LISTING /tmp/ccNgdVMZ.s 			page 41


 2196              	.LVL95:
 2197              	.L97:
 2198              		.loc 1 582 8 view .LVU694
 2199              	.LBE499:
 2200              		.loc 1 577 10 is_stmt 1 view .LVU695
 2201 0047 8B450C   		movl	12(%ebp), %eax
 2202 004a 85C0     		testl	%eax, %eax
 2203 004c 74E2     		je	.L99
 2204              	.LVL96:
 2205              	.LBB502:
 2206              	.LBI502:
 2207              		.loc 1 572 7 view .LVU696
 2208              	.LBB503:
 2209              		.loc 1 587 3 view .LVU697
 2210              		.loc 1 587 3 view .LVU698
 2211              		.loc 1 587 3 view .LVU699
 2212              		.loc 1 590 3 view .LVU700
 2213              		.loc 1 590 19 is_stmt 0 view .LVU701
 2214 004e 8B4510   		movl	16(%ebp), %eax
 2215              		.loc 1 590 28 view .LVU702
 2216 0051 8D5004   		leal	4(%eax), %edx
 2217              		.loc 1 591 28 view .LVU703
 2218 0054 03451C   		addl	28(%ebp), %eax
 2219              		.loc 1 590 28 view .LVU704
 2220 0057 895528   		movl	%edx, 40(%ebp)
 2221              		.loc 1 591 3 is_stmt 1 view .LVU705
 2222              		.loc 1 591 13 is_stmt 0 view .LVU706
 2223 005a 89452C   		movl	%eax, 44(%ebp)
 2224              		.loc 1 593 3 is_stmt 1 view .LVU707
 2225              	.LVL97:
 2226              		.loc 1 591 13 is_stmt 0 view .LVU708
 2227 005d 31C0     		xorl	%eax, %eax
 2228              	.L98:
 2229              	.LVL98:
 2230              		.loc 1 591 13 view .LVU709
 2231              	.LBE503:
 2232              	.LBE502:
 2233              	.LBE498:
 2234              	.LBE497:
 2235              		.loc 1 547 3 is_stmt 1 view .LVU710
 2236              	.LBB506:
 2237              	.LBI506:
 2238              		.loc 2 584 20 view .LVU711
 2239              		.loc 2 586 3 view .LVU712
 2240              	.LBB507:
 2241              	.LBI507:
 2242              		.loc 3 421 20 view .LVU713
 2243              	.LBB508:
 2244              		.loc 3 423 23 view .LVU714
 2245              		.loc 3 424 34 view .LVU715
 2246              		.loc 3 430 3 view .LVU716
 2247              		.loc 3 430 3 view .LVU717
 2248              		.loc 3 430 3 view .LVU718
 2249              		.loc 3 434 3 view .LVU719
 2250              	.LBB509:
 2251              	.LBI509:
 2252              		.loc 4 370 20 view .LVU720
GAS LISTING /tmp/ccNgdVMZ.s 			page 42


 2253              	.LBB510:
 2254              		.loc 4 372 3 view .LVU721
 2255              		.loc 4 372 16 is_stmt 0 view .LVU722
 2256 005f C7070000 		movl	$0, (%edi)
 2256      0000
 2257              	.LBE510:
 2258              	.LBE509:
 2259              	.LBE508:
 2260              	.LBE507:
 2261              	.LBE506:
 2262              		.loc 1 549 3 is_stmt 1 view .LVU723
 2263              		.loc 1 550 1 is_stmt 0 view .LVU724
 2264 0065 83C40C   		addl	$12, %esp
 2265              		.cfi_remember_state
 2266              		.cfi_def_cfa_offset 20
 2267 0068 5B       		popl	%ebx
 2268              		.cfi_restore 3
 2269              		.cfi_def_cfa_offset 16
 2270 0069 5E       		popl	%esi
 2271              		.cfi_restore 6
 2272              		.cfi_def_cfa_offset 12
 2273 006a 5F       		popl	%edi
 2274              		.cfi_restore 7
 2275              		.cfi_def_cfa_offset 8
 2276 006b 5D       		popl	%ebp
 2277              		.cfi_restore 5
 2278              		.cfi_def_cfa_offset 4
 2279 006c C3       		ret
 2280              	.LVL99:
 2281 006d 8D7600   		.p2align 4,,10
 2282              		.p2align 3
 2283              	.L100:
 2284              		.cfi_restore_state
 2285              	.LBB519:
 2286              	.LBB517:
 2287              	.LBB515:
 2288              	.LBB513:
 2289              	.LBB511:
 2290              		.loc 4 372 16 view .LVU725
 2291 0070 C7070000 		movl	$0, (%edi)
 2291      0000
 2292              	.LBE511:
 2293              	.LBE513:
 2294              	.LBE515:
 2295              	.LBE517:
 2296              	.LBE519:
 2297              		.loc 1 550 1 view .LVU726
 2298 0076 83C40C   		addl	$12, %esp
 2299              		.cfi_def_cfa_offset 20
 2300              	.LBB520:
 2301              	.LBB505:
 2302              	.LBB504:
 2303              		.loc 1 579 14 view .LVU727
 2304 0079 B8FEFFFF 		movl	$-2, %eax
 2304      FF
 2305              	.LVL100:
 2306              		.loc 1 579 14 view .LVU728
GAS LISTING /tmp/ccNgdVMZ.s 			page 43


 2307              	.LBE504:
 2308              	.LBE505:
 2309              	.LBE520:
 2310              		.loc 1 547 3 is_stmt 1 view .LVU729
 2311              	.LBB521:
 2312              		.loc 2 584 20 view .LVU730
 2313              		.loc 2 586 3 view .LVU731
 2314              	.LBB518:
 2315              		.loc 3 421 20 view .LVU732
 2316              	.LBB516:
 2317              		.loc 3 423 23 view .LVU733
 2318              		.loc 3 424 34 view .LVU734
 2319              		.loc 3 430 3 view .LVU735
 2320              		.loc 3 430 3 view .LVU736
 2321              		.loc 3 430 3 view .LVU737
 2322              		.loc 3 434 3 view .LVU738
 2323              	.LBB514:
 2324              		.loc 4 370 20 view .LVU739
 2325              	.LBB512:
 2326              		.loc 4 372 3 view .LVU740
 2327              	.LBE512:
 2328              	.LBE514:
 2329              	.LBE516:
 2330              	.LBE518:
 2331              	.LBE521:
 2332              		.loc 1 549 3 view .LVU741
 2333              		.loc 1 550 1 is_stmt 0 view .LVU742
 2334 007e 5B       		popl	%ebx
 2335              		.cfi_restore 3
 2336              		.cfi_def_cfa_offset 16
 2337 007f 5E       		popl	%esi
 2338              		.cfi_restore 6
 2339              		.cfi_def_cfa_offset 12
 2340 0080 5F       		popl	%edi
 2341              		.cfi_restore 7
 2342              		.cfi_def_cfa_offset 8
 2343 0081 5D       		popl	%ebp
 2344              		.cfi_restore 5
 2345              		.cfi_def_cfa_offset 4
 2346 0082 C3       		ret
 2347              		.cfi_endproc
 2348              	.LFE325:
 2349              		.size	obqGetEmptyBufferTimeout, .-obqGetEmptyBufferTimeout
 2350              		.section	.text.obqGetEmptyBufferTimeoutS,"ax",@progbits
 2351              		.p2align 4
 2352              		.globl	obqGetEmptyBufferTimeoutS
 2353              		.type	obqGetEmptyBufferTimeoutS, @function
 2354              	obqGetEmptyBufferTimeoutS:
 2355              	.LVL101:
 2356              	.LFB326:
 2357              		.loc 1 573 56 is_stmt 1 view -0
 2358              		.cfi_startproc
 2359              		.loc 1 573 56 is_stmt 0 view .LVU744
 2360 0000 57       		pushl	%edi
 2361              		.cfi_def_cfa_offset 8
 2362              		.cfi_offset 7, -8
 2363 0001 56       		pushl	%esi
GAS LISTING /tmp/ccNgdVMZ.s 			page 44


 2364              		.cfi_def_cfa_offset 12
 2365              		.cfi_offset 6, -12
 2366 0002 53       		pushl	%ebx
 2367              		.cfi_def_cfa_offset 16
 2368              		.cfi_offset 3, -16
 2369              		.loc 1 573 56 view .LVU745
 2370 0003 8B7C2410 		movl	16(%esp), %edi
 2371              		.loc 1 575 23 is_stmt 1 view .LVU746
 2372              		.loc 1 577 3 view .LVU747
 2373 0007 E8FCFFFF 		call	__x86.get_pc_thunk.bx
 2373      FF
 2374 000c 81C30200 		addl	$_GLOBAL_OFFSET_TABLE_, %ebx
 2374      0000
 2375              		.loc 1 573 56 is_stmt 0 view .LVU748
 2376 0012 8B742414 		movl	20(%esp), %esi
 2377              		.loc 1 577 9 view .LVU749
 2378 0016 EB1F     		jmp	.L103
 2379 0018 8DB42600 		.p2align 4,,10
 2379      00000090 
 2380              		.p2align 3
 2381              	.L105:
 2382              	.LBB533:
 2383              		.loc 1 578 5 is_stmt 1 view .LVU750
 2384              		.loc 1 578 8 is_stmt 0 view .LVU751
 2385 0020 807F0800 		cmpb	$0, 8(%edi)
 2386 0024 7532     		jne	.L106
 2387              		.loc 1 581 5 is_stmt 1 view .LVU752
 2388              	.LVL102:
 2389              	.LBB534:
 2390              	.LBI534:
 2391              		.loc 2 892 21 view .LVU753
 2392              	.LBB535:
 2393              		.loc 2 895 3 view .LVU754
 2394              		.loc 2 895 10 is_stmt 0 view .LVU755
 2395 0026 83EC08   		subl	$8, %esp
 2396              		.cfi_def_cfa_offset 24
 2397 0029 56       		pushl	%esi
 2398              		.cfi_def_cfa_offset 28
 2399 002a 57       		pushl	%edi
 2400              		.cfi_def_cfa_offset 32
 2401 002b E8FCFFFF 		call	chThdEnqueueTimeoutS@PLT
 2401      FF
 2402              	.LVL103:
 2403              		.loc 2 895 10 view .LVU756
 2404              	.LBE535:
 2405              	.LBE534:
 2406              		.loc 1 582 5 is_stmt 1 view .LVU757
 2407              		.loc 1 582 8 is_stmt 0 view .LVU758
 2408 0030 83C410   		addl	$16, %esp
 2409              		.cfi_def_cfa_offset 16
 2410 0033 85C0     		testl	%eax, %eax
 2411 0035 7818     		js	.L102
 2412              	.LVL104:
 2413              	.L103:
 2414              		.loc 1 582 8 view .LVU759
 2415              	.LBE533:
 2416              		.loc 1 577 10 is_stmt 1 view .LVU760
GAS LISTING /tmp/ccNgdVMZ.s 			page 45


 2417 0037 8B470C   		movl	12(%edi), %eax
 2418 003a 85C0     		testl	%eax, %eax
 2419 003c 74E2     		je	.L105
 2420              	.LVL105:
 2421              	.LBB536:
 2422              	.LBI536:
 2423              		.loc 1 572 7 view .LVU761
 2424              	.LBB537:
 2425              		.loc 1 587 3 view .LVU762
 2426              		.loc 1 587 3 view .LVU763
 2427              		.loc 1 587 3 view .LVU764
 2428              		.loc 1 590 3 view .LVU765
 2429              		.loc 1 590 19 is_stmt 0 view .LVU766
 2430 003e 8B4710   		movl	16(%edi), %eax
 2431              		.loc 1 590 28 view .LVU767
 2432 0041 8D5004   		leal	4(%eax), %edx
 2433              		.loc 1 591 28 view .LVU768
 2434 0044 03471C   		addl	28(%edi), %eax
 2435              		.loc 1 590 28 view .LVU769
 2436 0047 895728   		movl	%edx, 40(%edi)
 2437              		.loc 1 591 3 is_stmt 1 view .LVU770
 2438              		.loc 1 591 13 is_stmt 0 view .LVU771
 2439 004a 89472C   		movl	%eax, 44(%edi)
 2440              		.loc 1 593 3 is_stmt 1 view .LVU772
 2441              	.LVL106:
 2442              		.loc 1 591 13 is_stmt 0 view .LVU773
 2443 004d 31C0     		xorl	%eax, %eax
 2444              	.L102:
 2445              	.LBE537:
 2446              	.LBE536:
 2447              		.loc 1 594 1 view .LVU774
 2448 004f 5B       		popl	%ebx
 2449              		.cfi_remember_state
 2450              		.cfi_restore 3
 2451              		.cfi_def_cfa_offset 12
 2452 0050 5E       		popl	%esi
 2453              		.cfi_restore 6
 2454              		.cfi_def_cfa_offset 8
 2455 0051 5F       		popl	%edi
 2456              		.cfi_restore 7
 2457              		.cfi_def_cfa_offset 4
 2458 0052 C3       		ret
 2459              		.p2align 4,,10
 2460 0053 8D742600 		.p2align 3
 2460      90
 2461              	.L106:
 2462              		.cfi_restore_state
 2463 0058 5B       		popl	%ebx
 2464              		.cfi_restore 3
 2465              		.cfi_def_cfa_offset 12
 2466              	.LBB538:
 2467              		.loc 1 579 14 view .LVU775
 2468 0059 B8FEFFFF 		movl	$-2, %eax
 2468      FF
 2469              	.LBE538:
 2470              		.loc 1 594 1 view .LVU776
 2471 005e 5E       		popl	%esi
GAS LISTING /tmp/ccNgdVMZ.s 			page 46


 2472              		.cfi_restore 6
 2473              		.cfi_def_cfa_offset 8
 2474 005f 5F       		popl	%edi
 2475              		.cfi_restore 7
 2476              		.cfi_def_cfa_offset 4
 2477 0060 C3       		ret
 2478              		.cfi_endproc
 2479              	.LFE326:
 2480              		.size	obqGetEmptyBufferTimeoutS, .-obqGetEmptyBufferTimeoutS
 2481              		.section	.text.obqPostFullBuffer,"ax",@progbits
 2482              		.p2align 4
 2483              		.globl	obqPostFullBuffer
 2484              		.type	obqPostFullBuffer, @function
 2485              	obqPostFullBuffer:
 2486              	.LVL107:
 2487              	.LFB327:
 2488              		.loc 1 605 67 is_stmt 1 view -0
 2489              		.cfi_startproc
 2490              		.loc 1 607 3 view .LVU778
 2491              	.LBB550:
 2492              	.LBI550:
 2493              		.loc 2 573 20 view .LVU779
 2494              		.loc 2 575 3 view .LVU780
 2495              	.LBB551:
 2496              	.LBI551:
 2497              		.loc 3 407 20 view .LVU781
 2498              		.loc 3 409 3 view .LVU782
 2499              	.LBB552:
 2500              	.LBI552:
 2501              		.loc 4 361 20 view .LVU783
 2502              	.LBB553:
 2503              		.loc 4 363 3 view .LVU784
 2504 0000 E8FCFFFF 		call	__x86.get_pc_thunk.dx
 2504      FF
 2505 0005 81C20200 		addl	$_GLOBAL_OFFSET_TABLE_, %edx
 2505      0000
 2506              	.LBE553:
 2507              	.LBE552:
 2508              	.LBE551:
 2509              	.LBE550:
 2510              		.loc 1 605 67 is_stmt 0 view .LVU785
 2511 000b 53       		pushl	%ebx
 2512              		.cfi_def_cfa_offset 8
 2513              		.cfi_offset 3, -8
 2514 000c 83EC08   		subl	$8, %esp
 2515              		.cfi_def_cfa_offset 16
 2516              		.loc 1 605 67 view .LVU786
 2517 000f 8B442410 		movl	16(%esp), %eax
 2518              	.LBB560:
 2519              	.LBB561:
 2520              		.loc 1 628 37 view .LVU787
 2521 0013 8B4C2414 		movl	20(%esp), %ecx
 2522              	.LBE561:
 2523              	.LBE560:
 2524              	.LBB564:
 2525              	.LBB558:
 2526              	.LBB556:
GAS LISTING /tmp/ccNgdVMZ.s 			page 47


 2527              	.LBB554:
 2528              		.loc 4 363 16 view .LVU788
 2529 0017 8B9A0000 		movl	port_irq_sts@GOT(%edx), %ebx
 2529      0000
 2530              	.LBE554:
 2531              	.LBE556:
 2532              	.LBE558:
 2533              	.LBE564:
 2534              	.LBB565:
 2535              	.LBB562:
 2536              		.loc 1 628 27 view .LVU789
 2537 001d 8B5010   		movl	16(%eax), %edx
 2538              	.LBE562:
 2539              	.LBE565:
 2540              	.LBB566:
 2541              	.LBB559:
 2542              	.LBB557:
 2543              	.LBB555:
 2544              		.loc 4 363 16 view .LVU790
 2545 0020 C7030100 		movl	$1, (%ebx)
 2545      0000
 2546              	.LBE555:
 2547              	.LBE557:
 2548              		.loc 3 410 35 is_stmt 1 view .LVU791
 2549              		.loc 3 411 21 view .LVU792
 2550              	.LBE559:
 2551              	.LBE566:
 2552              		.loc 1 608 3 view .LVU793
 2553              	.LVL108:
 2554              	.LBB567:
 2555              	.LBI560:
 2556              		.loc 1 621 6 view .LVU794
 2557              	.LBB563:
 2558              		.loc 1 623 23 view .LVU795
 2559              		.loc 1 624 3 view .LVU796
 2560              		.loc 1 624 3 view .LVU797
 2561              		.loc 1 624 3 view .LVU798
 2562              		.loc 1 625 3 view .LVU799
 2563              		.loc 1 625 3 view .LVU800
 2564              		.loc 1 625 3 view .LVU801
 2565              		.loc 1 628 3 view .LVU802
 2566              		.loc 1 628 37 is_stmt 0 view .LVU803
 2567 0026 890A     		movl	%ecx, (%edx)
 2568              		.loc 1 631 3 is_stmt 1 view .LVU804
 2569              		.loc 1 631 7 is_stmt 0 view .LVU805
 2570 0028 8B480C   		movl	12(%eax), %ecx
 2571              	.LVL109:
 2572              		.loc 1 632 16 view .LVU806
 2573 002b 03501C   		addl	28(%eax), %edx
 2574              		.loc 1 631 17 view .LVU807
 2575 002e 83E901   		subl	$1, %ecx
 2576              		.loc 1 632 16 view .LVU808
 2577 0031 895010   		movl	%edx, 16(%eax)
 2578              		.loc 1 631 17 view .LVU809
 2579 0034 89480C   		movl	%ecx, 12(%eax)
 2580              		.loc 1 632 3 is_stmt 1 view .LVU810
 2581              		.loc 1 633 3 view .LVU811
GAS LISTING /tmp/ccNgdVMZ.s 			page 48


 2582              		.loc 1 633 6 is_stmt 0 view .LVU812
 2583 0037 3B5018   		cmpl	24(%eax), %edx
 2584 003a 7206     		jb	.L109
 2585              		.loc 1 634 5 is_stmt 1 view .LVU813
 2586              		.loc 1 634 18 is_stmt 0 view .LVU814
 2587 003c 8B5024   		movl	36(%eax), %edx
 2588 003f 895010   		movl	%edx, 16(%eax)
 2589              	.L109:
 2590              		.loc 1 638 3 is_stmt 1 view .LVU815
 2591              		.loc 1 641 11 is_stmt 0 view .LVU816
 2592 0042 8B5030   		movl	48(%eax), %edx
 2593              		.loc 1 638 13 view .LVU817
 2594 0045 C7402800 		movl	$0, 40(%eax)
 2594      000000
 2595              		.loc 1 641 3 is_stmt 1 view .LVU818
 2596              		.loc 1 641 6 is_stmt 0 view .LVU819
 2597 004c 85D2     		testl	%edx, %edx
 2598 004e 7409     		je	.L110
 2599              		.loc 1 642 5 is_stmt 1 view .LVU820
 2600 0050 83EC0C   		subl	$12, %esp
 2601              		.cfi_def_cfa_offset 28
 2602 0053 50       		pushl	%eax
 2603              		.cfi_def_cfa_offset 32
 2604 0054 FFD2     		call	*%edx
 2605              	.LVL110:
 2606              		.loc 1 642 5 is_stmt 0 view .LVU821
 2607 0056 83C410   		addl	$16, %esp
 2608              		.cfi_def_cfa_offset 16
 2609              	.L110:
 2610              	.LVL111:
 2611              		.loc 1 642 5 view .LVU822
 2612              	.LBE563:
 2613              	.LBE567:
 2614              		.loc 1 609 3 is_stmt 1 view .LVU823
 2615              	.LBB568:
 2616              	.LBI568:
 2617              		.loc 2 584 20 view .LVU824
 2618              		.loc 2 586 3 view .LVU825
 2619              	.LBB569:
 2620              	.LBI569:
 2621              		.loc 3 421 20 view .LVU826
 2622              	.LBB570:
 2623              		.loc 3 423 23 view .LVU827
 2624              		.loc 3 424 34 view .LVU828
 2625              		.loc 3 430 3 view .LVU829
 2626              		.loc 3 430 3 view .LVU830
 2627              		.loc 3 430 3 view .LVU831
 2628              		.loc 3 434 3 view .LVU832
 2629              	.LBB571:
 2630              	.LBI571:
 2631              		.loc 4 370 20 view .LVU833
 2632              	.LBB572:
 2633              		.loc 4 372 3 view .LVU834
 2634              		.loc 4 372 16 is_stmt 0 view .LVU835
 2635 0059 C7030000 		movl	$0, (%ebx)
 2635      0000
 2636              	.LBE572:
GAS LISTING /tmp/ccNgdVMZ.s 			page 49


 2637              	.LBE571:
 2638              	.LBE570:
 2639              	.LBE569:
 2640              	.LBE568:
 2641              		.loc 1 610 1 view .LVU836
 2642 005f 83C408   		addl	$8, %esp
 2643              		.cfi_def_cfa_offset 8
 2644 0062 5B       		popl	%ebx
 2645              		.cfi_restore 3
 2646              		.cfi_def_cfa_offset 4
 2647 0063 C3       		ret
 2648              		.cfi_endproc
 2649              	.LFE327:
 2650              		.size	obqPostFullBuffer, .-obqPostFullBuffer
 2651              		.section	.text.obqPostFullBufferS,"ax",@progbits
 2652              		.p2align 4
 2653              		.globl	obqPostFullBufferS
 2654              		.type	obqPostFullBufferS, @function
 2655              	obqPostFullBufferS:
 2656              	.LVL112:
 2657              	.LFB328:
 2658              		.loc 1 621 68 is_stmt 1 view -0
 2659              		.cfi_startproc
 2660              		.loc 1 623 23 view .LVU838
 2661              		.loc 1 624 3 view .LVU839
 2662              		.loc 1 624 3 view .LVU840
 2663              		.loc 1 624 3 view .LVU841
 2664              		.loc 1 625 3 view .LVU842
 2665              		.loc 1 625 3 view .LVU843
 2666              		.loc 1 625 3 view .LVU844
 2667              		.loc 1 628 3 view .LVU845
 2668              		.loc 1 621 68 is_stmt 0 view .LVU846
 2669 0000 8B442404 		movl	4(%esp), %eax
 2670              		.loc 1 628 37 view .LVU847
 2671 0004 8B4C2408 		movl	8(%esp), %ecx
 2672              		.loc 1 628 27 view .LVU848
 2673 0008 8B5010   		movl	16(%eax), %edx
 2674              		.loc 1 628 37 view .LVU849
 2675 000b 890A     		movl	%ecx, (%edx)
 2676              		.loc 1 631 3 is_stmt 1 view .LVU850
 2677              		.loc 1 631 7 is_stmt 0 view .LVU851
 2678 000d 8B480C   		movl	12(%eax), %ecx
 2679              		.loc 1 632 16 view .LVU852
 2680 0010 03501C   		addl	28(%eax), %edx
 2681              		.loc 1 631 17 view .LVU853
 2682 0013 83E901   		subl	$1, %ecx
 2683              		.loc 1 632 16 view .LVU854
 2684 0016 895010   		movl	%edx, 16(%eax)
 2685              		.loc 1 631 17 view .LVU855
 2686 0019 89480C   		movl	%ecx, 12(%eax)
 2687              		.loc 1 632 3 is_stmt 1 view .LVU856
 2688              		.loc 1 633 3 view .LVU857
 2689              		.loc 1 633 6 is_stmt 0 view .LVU858
 2690 001c 3B5018   		cmpl	24(%eax), %edx
 2691 001f 7206     		jb	.L116
 2692              		.loc 1 634 5 is_stmt 1 view .LVU859
 2693              		.loc 1 634 18 is_stmt 0 view .LVU860
GAS LISTING /tmp/ccNgdVMZ.s 			page 50


 2694 0021 8B5024   		movl	36(%eax), %edx
 2695 0024 895010   		movl	%edx, 16(%eax)
 2696              	.L116:
 2697              		.loc 1 638 3 is_stmt 1 view .LVU861
 2698              		.loc 1 641 11 is_stmt 0 view .LVU862
 2699 0027 8B5030   		movl	48(%eax), %edx
 2700              		.loc 1 638 13 view .LVU863
 2701 002a C7402800 		movl	$0, 40(%eax)
 2701      000000
 2702              		.loc 1 641 3 is_stmt 1 view .LVU864
 2703              		.loc 1 641 6 is_stmt 0 view .LVU865
 2704 0031 85D2     		testl	%edx, %edx
 2705 0033 740B     		je	.L115
 2706              		.loc 1 642 5 is_stmt 1 view .LVU866
 2707 0035 89442404 		movl	%eax, 4(%esp)
 2708              	.LVL113:
 2709              		.loc 1 642 5 is_stmt 0 view .LVU867
 2710 0039 FFE2     		jmp	*%edx
 2711              	.LVL114:
 2712 003b 8D742600 		.p2align 4,,10
 2712      90
 2713              		.p2align 3
 2714              	.L115:
 2715              		.loc 1 644 1 view .LVU868
 2716 0040 C3       		ret
 2717              		.cfi_endproc
 2718              	.LFE328:
 2719              		.size	obqPostFullBufferS, .-obqPostFullBufferS
 2720              		.section	.text.obqPutTimeout,"ax",@progbits
 2721              		.p2align 4
 2722              		.globl	obqPutTimeout
 2723              		.type	obqPutTimeout, @function
 2724              	obqPutTimeout:
 2725              	.LVL115:
 2726              	.LFB329:
 2727              		.loc 1 666 44 is_stmt 1 view -0
 2728              		.cfi_startproc
 2729              		.loc 1 666 44 is_stmt 0 view .LVU870
 2730 0000 55       		pushl	%ebp
 2731              		.cfi_def_cfa_offset 8
 2732              		.cfi_offset 5, -8
 2733 0001 57       		pushl	%edi
 2734              		.cfi_def_cfa_offset 12
 2735              		.cfi_offset 7, -12
 2736 0002 56       		pushl	%esi
 2737              		.cfi_def_cfa_offset 16
 2738              		.cfi_offset 6, -16
 2739 0003 53       		pushl	%ebx
 2740              		.cfi_def_cfa_offset 20
 2741              		.cfi_offset 3, -20
 2742 0004 E8FCFFFF 		call	__x86.get_pc_thunk.bx
 2742      FF
 2743 0009 81C30200 		addl	$_GLOBAL_OFFSET_TABLE_, %ebx
 2743      0000
 2744 000f 83EC0C   		subl	$12, %esp
 2745              		.cfi_def_cfa_offset 32
 2746              		.loc 1 666 44 view .LVU871
GAS LISTING /tmp/ccNgdVMZ.s 			page 51


 2747 0012 8B7C2420 		movl	32(%esp), %edi
 2748 0016 8B6C2424 		movl	36(%esp), %ebp
 2749              		.loc 1 667 3 is_stmt 1 view .LVU872
 2750              		.loc 1 669 3 view .LVU873
 2751              	.LBB599:
 2752              	.LBI599:
 2753              		.loc 2 573 20 view .LVU874
 2754              		.loc 2 575 3 view .LVU875
 2755              	.LBB600:
 2756              	.LBI600:
 2757              		.loc 3 407 20 view .LVU876
 2758              		.loc 3 409 3 view .LVU877
 2759              	.LBB601:
 2760              	.LBI601:
 2761              		.loc 4 361 20 view .LVU878
 2762              	.LBB602:
 2763              		.loc 4 363 3 view .LVU879
 2764              	.LBE602:
 2765              	.LBE601:
 2766              	.LBE600:
 2767              	.LBE599:
 2768              		.loc 1 672 11 is_stmt 0 view .LVU880
 2769 001a 8B4728   		movl	40(%edi), %eax
 2770              	.LBB606:
 2771              	.LBB605:
 2772              	.LBB604:
 2773              	.LBB603:
 2774              		.loc 4 363 16 view .LVU881
 2775 001d 8BB30000 		movl	port_irq_sts@GOT(%ebx), %esi
 2775      0000
 2776 0023 C7060100 		movl	$1, (%esi)
 2776      0000
 2777              	.LBE603:
 2778              	.LBE604:
 2779              		.loc 3 410 35 is_stmt 1 view .LVU882
 2780              		.loc 3 411 21 view .LVU883
 2781              	.LBE605:
 2782              	.LBE606:
 2783              		.loc 1 672 3 view .LVU884
 2784              		.loc 1 672 6 is_stmt 0 view .LVU885
 2785 0029 85C0     		testl	%eax, %eax
 2786 002b 743D     		je	.L119
 2787              	.L120:
 2788              		.loc 1 681 3 is_stmt 1 view .LVU886
 2789              		.loc 1 681 14 is_stmt 0 view .LVU887
 2790 002d 89EA     		movl	%ebp, %edx
 2791 002f 8810     		movb	%dl, (%eax)
 2792              		.loc 1 682 3 is_stmt 1 view .LVU888
 2793              		.loc 1 682 12 is_stmt 0 view .LVU889
 2794 0031 8B4728   		movl	40(%edi), %eax
 2795 0034 83C001   		addl	$1, %eax
 2796 0037 894728   		movl	%eax, 40(%edi)
 2797              		.loc 1 686 3 is_stmt 1 view .LVU890
 2798              		.loc 1 686 6 is_stmt 0 view .LVU891
 2799 003a 3B472C   		cmpl	44(%edi), %eax
 2800 003d 7349     		jnb	.L136
 2801              	.L124:
GAS LISTING /tmp/ccNgdVMZ.s 			page 52


 2802              		.loc 1 690 3 is_stmt 1 view .LVU892
 2803              		.loc 1 691 3 view .LVU893
 2804              		.loc 1 691 10 is_stmt 0 view .LVU894
 2805 003f 31C0     		xorl	%eax, %eax
 2806              	.L127:
 2807              	.LBB607:
 2808              	.LBB608:
 2809              	.LBB609:
 2810              	.LBB610:
 2811              	.LBB611:
 2812              		.loc 4 372 16 view .LVU895
 2813 0041 C7060000 		movl	$0, (%esi)
 2813      0000
 2814              	.LBE611:
 2815              	.LBE610:
 2816              	.LBE609:
 2817              	.LBE608:
 2818              	.LBE607:
 2819              		.loc 1 692 1 view .LVU896
 2820 0047 83C40C   		addl	$12, %esp
 2821              		.cfi_remember_state
 2822              		.cfi_def_cfa_offset 20
 2823 004a 5B       		popl	%ebx
 2824              		.cfi_restore 3
 2825              		.cfi_def_cfa_offset 16
 2826 004b 5E       		popl	%esi
 2827              		.cfi_restore 6
 2828              		.cfi_def_cfa_offset 12
 2829 004c 5F       		popl	%edi
 2830              		.cfi_restore 7
 2831              		.cfi_def_cfa_offset 8
 2832 004d 5D       		popl	%ebp
 2833              		.cfi_restore 5
 2834              		.cfi_def_cfa_offset 4
 2835 004e C3       		ret
 2836 004f 90       		.p2align 4,,10
 2837              		.p2align 3
 2838              	.L122:
 2839              		.cfi_restore_state
 2840              	.LBB616:
 2841              	.LBB617:
 2842              	.LBB618:
 2843              		.loc 1 578 5 is_stmt 1 view .LVU897
 2844              		.loc 1 578 8 is_stmt 0 view .LVU898
 2845 0050 807F0800 		cmpb	$0, 8(%edi)
 2846 0054 757A     		jne	.L128
 2847              		.loc 1 581 5 is_stmt 1 view .LVU899
 2848              	.LVL116:
 2849              	.LBB619:
 2850              	.LBI619:
 2851              		.loc 2 892 21 view .LVU900
 2852              	.LBB620:
 2853              		.loc 2 895 3 view .LVU901
 2854              		.loc 2 895 10 is_stmt 0 view .LVU902
 2855 0056 83EC08   		subl	$8, %esp
 2856              		.cfi_def_cfa_offset 40
 2857 0059 FF742430 		pushl	48(%esp)
GAS LISTING /tmp/ccNgdVMZ.s 			page 53


 2858              		.cfi_def_cfa_offset 44
 2859 005d 57       		pushl	%edi
 2860              		.cfi_def_cfa_offset 48
 2861 005e E8FCFFFF 		call	chThdEnqueueTimeoutS@PLT
 2861      FF
 2862              	.LVL117:
 2863              		.loc 2 895 10 view .LVU903
 2864              	.LBE620:
 2865              	.LBE619:
 2866              		.loc 1 582 5 is_stmt 1 view .LVU904
 2867              		.loc 1 582 8 is_stmt 0 view .LVU905
 2868 0063 83C410   		addl	$16, %esp
 2869              		.cfi_def_cfa_offset 32
 2870 0066 85C0     		testl	%eax, %eax
 2871 0068 78D7     		js	.L127
 2872              	.LVL118:
 2873              	.L119:
 2874              		.loc 1 582 8 view .LVU906
 2875              	.LBE618:
 2876              		.loc 1 577 10 is_stmt 1 view .LVU907
 2877 006a 8B470C   		movl	12(%edi), %eax
 2878 006d 85C0     		testl	%eax, %eax
 2879 006f 74DF     		je	.L122
 2880              	.LVL119:
 2881              	.LBB621:
 2882              	.LBI621:
 2883              		.loc 1 572 7 view .LVU908
 2884              	.LBB622:
 2885              		.loc 1 587 3 view .LVU909
 2886              		.loc 1 587 3 view .LVU910
 2887              		.loc 1 587 3 view .LVU911
 2888              		.loc 1 590 3 view .LVU912
 2889              		.loc 1 590 19 is_stmt 0 view .LVU913
 2890 0071 8B4F10   		movl	16(%edi), %ecx
 2891              		.loc 1 590 28 view .LVU914
 2892 0074 8D4104   		leal	4(%ecx), %eax
 2893              		.loc 1 591 28 view .LVU915
 2894 0077 034F1C   		addl	28(%edi), %ecx
 2895              		.loc 1 590 13 view .LVU916
 2896 007a 894728   		movl	%eax, 40(%edi)
 2897              		.loc 1 591 3 is_stmt 1 view .LVU917
 2898              		.loc 1 591 13 is_stmt 0 view .LVU918
 2899 007d 894F2C   		movl	%ecx, 44(%edi)
 2900              		.loc 1 593 3 is_stmt 1 view .LVU919
 2901              	.LVL120:
 2902              		.loc 1 593 3 is_stmt 0 view .LVU920
 2903              	.LBE622:
 2904              	.LBE621:
 2905              	.LBE617:
 2906              	.LBE616:
 2907              		.loc 1 674 5 is_stmt 1 view .LVU921
 2908 0080 EBAB     		jmp	.L120
 2909              	.LVL121:
 2910              		.p2align 4,,10
 2911 0082 8DB60000 		.p2align 3
 2911      0000
 2912              	.L136:
GAS LISTING /tmp/ccNgdVMZ.s 			page 54


 2913              		.loc 1 687 5 view .LVU922
 2914              	.LBB625:
 2915              	.LBI625:
 2916              		.loc 1 621 6 view .LVU923
 2917              	.LBB626:
 2918              		.loc 1 623 23 view .LVU924
 2919              		.loc 1 624 3 view .LVU925
 2920              		.loc 1 624 3 view .LVU926
 2921              		.loc 1 624 3 view .LVU927
 2922              		.loc 1 625 3 view .LVU928
 2923              		.loc 1 625 3 view .LVU929
 2924              		.loc 1 625 3 view .LVU930
 2925              		.loc 1 628 3 view .LVU931
 2926              	.LBE626:
 2927              	.LBE625:
 2928              		.loc 1 687 5 is_stmt 0 view .LVU932
 2929 0088 8B571C   		movl	28(%edi), %edx
 2930              	.LBB629:
 2931              	.LBB627:
 2932              		.loc 1 628 27 view .LVU933
 2933 008b 8B4710   		movl	16(%edi), %eax
 2934              	.LBE627:
 2935              	.LBE629:
 2936              		.loc 1 687 5 view .LVU934
 2937 008e 8D4AFC   		leal	-4(%edx), %ecx
 2938              	.LVL122:
 2939              	.LBB630:
 2940              	.LBB628:
 2941              		.loc 1 628 37 view .LVU935
 2942 0091 8908     		movl	%ecx, (%eax)
 2943              		.loc 1 631 3 is_stmt 1 view .LVU936
 2944              		.loc 1 631 7 is_stmt 0 view .LVU937
 2945 0093 8B4F0C   		movl	12(%edi), %ecx
 2946              	.LVL123:
 2947              		.loc 1 632 16 view .LVU938
 2948 0096 03471C   		addl	28(%edi), %eax
 2949              	.LVL124:
 2950              		.loc 1 631 17 view .LVU939
 2951 0099 83E901   		subl	$1, %ecx
 2952              		.loc 1 632 16 view .LVU940
 2953 009c 894710   		movl	%eax, 16(%edi)
 2954              	.LVL125:
 2955              		.loc 1 631 17 view .LVU941
 2956 009f 894F0C   		movl	%ecx, 12(%edi)
 2957              		.loc 1 632 3 is_stmt 1 view .LVU942
 2958              		.loc 1 633 3 view .LVU943
 2959              		.loc 1 633 6 is_stmt 0 view .LVU944
 2960 00a2 3B4718   		cmpl	24(%edi), %eax
 2961 00a5 7321     		jnb	.L137
 2962              	.L125:
 2963              		.loc 1 638 3 is_stmt 1 view .LVU945
 2964              		.loc 1 641 11 is_stmt 0 view .LVU946
 2965 00a7 8B4730   		movl	48(%edi), %eax
 2966              		.loc 1 638 13 view .LVU947
 2967 00aa C7472800 		movl	$0, 40(%edi)
 2967      000000
 2968              		.loc 1 641 3 is_stmt 1 view .LVU948
GAS LISTING /tmp/ccNgdVMZ.s 			page 55


 2969              		.loc 1 641 6 is_stmt 0 view .LVU949
 2970 00b1 85C0     		testl	%eax, %eax
 2971 00b3 748A     		je	.L124
 2972              		.loc 1 642 5 is_stmt 1 view .LVU950
 2973 00b5 83EC0C   		subl	$12, %esp
 2974              		.cfi_def_cfa_offset 44
 2975 00b8 57       		pushl	%edi
 2976              		.cfi_def_cfa_offset 48
 2977 00b9 FFD0     		call	*%eax
 2978              	.LVL126:
 2979              		.loc 1 642 5 is_stmt 0 view .LVU951
 2980 00bb 83C410   		addl	$16, %esp
 2981              		.cfi_def_cfa_offset 32
 2982 00be E97CFFFF 		jmp	.L124
 2982      FF
 2983              	.LVL127:
 2984              		.p2align 4,,10
 2985 00c3 8D742600 		.p2align 3
 2985      90
 2986              	.L137:
 2987              		.loc 1 634 5 is_stmt 1 view .LVU952
 2988              		.loc 1 634 18 is_stmt 0 view .LVU953
 2989 00c8 8B4724   		movl	36(%edi), %eax
 2990 00cb 894710   		movl	%eax, 16(%edi)
 2991 00ce EBD7     		jmp	.L125
 2992              	.LVL128:
 2993              		.p2align 4,,10
 2994              		.p2align 3
 2995              	.L128:
 2996              		.loc 1 634 18 view .LVU954
 2997              	.LBE628:
 2998              	.LBE630:
 2999              	.LBB631:
 3000              	.LBB624:
 3001              	.LBB623:
 3002              		.loc 1 579 14 view .LVU955
 3003 00d0 B8FEFFFF 		movl	$-2, %eax
 3003      FF
 3004              	.LVL129:
 3005              		.loc 1 579 14 view .LVU956
 3006              	.LBE623:
 3007              	.LBE624:
 3008              	.LBE631:
 3009              		.loc 1 674 5 is_stmt 1 view .LVU957
 3010              		.loc 1 675 7 view .LVU958
 3011              	.LBB632:
 3012              	.LBI607:
 3013              		.loc 2 584 20 view .LVU959
 3014              		.loc 2 586 3 view .LVU960
 3015              	.LBB615:
 3016              	.LBI608:
 3017              		.loc 3 421 20 view .LVU961
 3018              	.LBB614:
 3019              		.loc 3 423 23 view .LVU962
 3020              		.loc 3 424 34 view .LVU963
 3021              		.loc 3 430 3 view .LVU964
 3022              		.loc 3 430 3 view .LVU965
GAS LISTING /tmp/ccNgdVMZ.s 			page 56


 3023              		.loc 3 430 3 view .LVU966
 3024              		.loc 3 434 3 view .LVU967
 3025              	.LBB613:
 3026              	.LBI610:
 3027              		.loc 4 370 20 view .LVU968
 3028              	.LBB612:
 3029              		.loc 4 372 3 view .LVU969
 3030              	.LBE612:
 3031              	.LBE613:
 3032              	.LBE614:
 3033              	.LBE615:
 3034              	.LBE632:
 3035              		.loc 1 676 7 view .LVU970
 3036              		.loc 1 676 14 is_stmt 0 view .LVU971
 3037 00d5 E967FFFF 		jmp	.L127
 3037      FF
 3038              		.cfi_endproc
 3039              	.LFE329:
 3040              		.size	obqPutTimeout, .-obqPutTimeout
 3041              		.section	.text.obqWriteTimeout,"ax",@progbits
 3042              		.p2align 4
 3043              		.globl	obqWriteTimeout
 3044              		.type	obqWriteTimeout, @function
 3045              	obqWriteTimeout:
 3046              	.LVL130:
 3047              	.LFB330:
 3048              		.loc 1 715 57 is_stmt 1 view -0
 3049              		.cfi_startproc
 3050              		.loc 1 716 3 view .LVU973
 3051              		.loc 1 718 3 view .LVU974
 3052              		.loc 1 718 3 view .LVU975
 3053              		.loc 1 718 3 view .LVU976
 3054              		.loc 1 720 3 view .LVU977
 3055              	.LBB671:
 3056              	.LBI671:
 3057              		.loc 2 573 20 view .LVU978
 3058              	.LBB672:
 3059              		.loc 2 575 3 view .LVU979
 3060              	.LBB673:
 3061              	.LBI673:
 3062              		.loc 3 407 20 view .LVU980
 3063              		.loc 3 409 3 view .LVU981
 3064              	.LBB674:
 3065              	.LBI674:
 3066              		.loc 4 361 20 view .LVU982
 3067              	.LBB675:
 3068              		.loc 4 363 3 view .LVU983
 3069              	.LBE675:
 3070              	.LBE674:
 3071              		.loc 3 410 35 view .LVU984
 3072              		.loc 3 411 21 view .LVU985
 3073              	.LBE673:
 3074              	.LBE672:
 3075              	.LBE671:
 3076              		.loc 1 715 57 is_stmt 0 view .LVU986
 3077 0000 55       		pushl	%ebp
 3078              		.cfi_def_cfa_offset 8
GAS LISTING /tmp/ccNgdVMZ.s 			page 57


 3079              		.cfi_offset 5, -8
 3080              		.loc 1 716 10 view .LVU987
 3081 0001 31ED     		xorl	%ebp, %ebp
 3082              		.loc 1 715 57 view .LVU988
 3083 0003 57       		pushl	%edi
 3084              		.cfi_def_cfa_offset 12
 3085              		.cfi_offset 7, -12
 3086 0004 56       		pushl	%esi
 3087              		.cfi_def_cfa_offset 16
 3088              		.cfi_offset 6, -16
 3089 0005 53       		pushl	%ebx
 3090              		.cfi_def_cfa_offset 20
 3091              		.cfi_offset 3, -20
 3092 0006 E8FCFFFF 		call	__x86.get_pc_thunk.bx
 3092      FF
 3093 000b 81C30200 		addl	$_GLOBAL_OFFSET_TABLE_, %ebx
 3093      0000
 3094 0011 83EC1C   		subl	$28, %esp
 3095              		.cfi_def_cfa_offset 48
 3096              		.loc 1 715 57 view .LVU989
 3097 0014 8B742430 		movl	48(%esp), %esi
 3098 0018 8B7C2434 		movl	52(%esp), %edi
 3099 001c 8B830000 		movl	port_irq_sts@GOT(%ebx), %eax
 3099      0000
 3100 0022 89442408 		movl	%eax, 8(%esp)
 3101              	.LBB681:
 3102              	.LBB679:
 3103              		.loc 2 576 1 view .LVU990
 3104 0026 E9810000 		jmp	.L149
 3104      00
 3105              	.LVL131:
 3106 002b 8D742600 		.p2align 4,,10
 3106      90
 3107              		.p2align 3
 3108              	.L160:
 3109              		.loc 2 576 1 view .LVU991
 3110              	.LBE679:
 3111              	.LBE681:
 3112              	.LBB682:
 3113              		.loc 1 749 7 is_stmt 1 view .LVU992
 3114              	.LBB683:
 3115              	.LBI683:
 3116              		.loc 5 26 1 view .LVU993
 3117              	.LBB684:
 3118              		.loc 5 29 3 view .LVU994
 3119              		.loc 5 29 10 is_stmt 0 view .LVU995
 3120 0030 8B17     		movl	(%edi), %edx
 3121              	.LVL132:
 3122              		.loc 5 29 10 view .LVU996
 3123              	.LBE684:
 3124              	.LBE683:
 3125              		.loc 1 752 17 view .LVU997
 3126 0032 83C540   		addl	$64, %ebp
 3127              	.LVL133:
 3128              		.loc 1 750 17 view .LVU998
 3129 0035 83C740   		addl	$64, %edi
 3130              	.LVL134:
GAS LISTING /tmp/ccNgdVMZ.s 			page 58


 3131              	.LBB686:
 3132              	.LBB685:
 3133              		.loc 5 29 10 view .LVU999
 3134 0038 8910     		movl	%edx, (%eax)
 3135              	.LVL135:
 3136              		.loc 5 29 10 view .LVU1000
 3137 003a 8B57C4   		movl	-60(%edi), %edx
 3138 003d 895004   		movl	%edx, 4(%eax)
 3139 0040 8B57C8   		movl	-56(%edi), %edx
 3140 0043 895008   		movl	%edx, 8(%eax)
 3141 0046 8B57CC   		movl	-52(%edi), %edx
 3142 0049 89500C   		movl	%edx, 12(%eax)
 3143 004c 8B57D0   		movl	-48(%edi), %edx
 3144 004f 895010   		movl	%edx, 16(%eax)
 3145 0052 8B57D4   		movl	-44(%edi), %edx
 3146 0055 895014   		movl	%edx, 20(%eax)
 3147 0058 8B57D8   		movl	-40(%edi), %edx
 3148 005b 895018   		movl	%edx, 24(%eax)
 3149 005e 8B57DC   		movl	-36(%edi), %edx
 3150 0061 89501C   		movl	%edx, 28(%eax)
 3151 0064 8B57E0   		movl	-32(%edi), %edx
 3152 0067 895020   		movl	%edx, 32(%eax)
 3153 006a 8B57E4   		movl	-28(%edi), %edx
 3154 006d 895024   		movl	%edx, 36(%eax)
 3155 0070 8B57E8   		movl	-24(%edi), %edx
 3156 0073 895028   		movl	%edx, 40(%eax)
 3157 0076 8B57EC   		movl	-20(%edi), %edx
 3158 0079 89502C   		movl	%edx, 44(%eax)
 3159 007c 8B57F0   		movl	-16(%edi), %edx
 3160 007f 895030   		movl	%edx, 48(%eax)
 3161 0082 8B57F4   		movl	-12(%edi), %edx
 3162 0085 895034   		movl	%edx, 52(%eax)
 3163 0088 8B57F8   		movl	-8(%edi), %edx
 3164 008b 895038   		movl	%edx, 56(%eax)
 3165 008e 8B57FC   		movl	-4(%edi), %edx
 3166 0091 89503C   		movl	%edx, 60(%eax)
 3167              	.LVL136:
 3168              		.loc 5 29 10 view .LVU1001
 3169              	.LBE685:
 3170              	.LBE686:
 3171              		.loc 1 750 7 is_stmt 1 view .LVU1002
 3172              		.loc 1 751 7 view .LVU1003
 3173              		.loc 1 751 17 is_stmt 0 view .LVU1004
 3174 0094 8B4628   		movl	40(%esi), %eax
 3175 0097 83C040   		addl	$64, %eax
 3176              		.loc 1 752 7 is_stmt 1 view .LVU1005
 3177              	.LVL137:
 3178              		.loc 1 751 17 is_stmt 0 view .LVU1006
 3179 009a 894628   		movl	%eax, 40(%esi)
 3180              		.loc 1 762 5 is_stmt 1 view .LVU1007
 3181              		.loc 1 762 8 is_stmt 0 view .LVU1008
 3182 009d 39462C   		cmpl	%eax, 44(%esi)
 3183 00a0 765F     		jbe	.L159
 3184              	.L146:
 3185              		.loc 1 767 5 is_stmt 1 view .LVU1009
 3186              	.LBB687:
 3187              	.LBI687:
GAS LISTING /tmp/ccNgdVMZ.s 			page 59


 3188              		.loc 2 584 20 view .LVU1010
 3189              		.loc 2 586 3 view .LVU1011
 3190              	.LBB688:
 3191              	.LBI688:
 3192              		.loc 3 421 20 view .LVU1012
 3193              	.LBB689:
 3194              		.loc 3 423 23 view .LVU1013
 3195              		.loc 3 424 34 view .LVU1014
 3196              		.loc 3 430 3 view .LVU1015
 3197              		.loc 3 430 3 view .LVU1016
 3198              		.loc 3 430 3 view .LVU1017
 3199              		.loc 3 434 3 view .LVU1018
 3200              	.LBB690:
 3201              	.LBI690:
 3202              		.loc 4 370 20 view .LVU1019
 3203              	.LBB691:
 3204              		.loc 4 372 3 view .LVU1020
 3205              	.LBE691:
 3206              	.LBE690:
 3207              	.LBE689:
 3208              	.LBE688:
 3209              	.LBE687:
 3210              		.loc 1 768 5 view .LVU1021
 3211              		.loc 1 768 8 is_stmt 0 view .LVU1022
 3212 00a2 3B6C2438 		cmpl	56(%esp), %ebp
 3213 00a6 0F839F00 		jnb	.L141
 3213      0000
 3214              	.LVL138:
 3215              	.L149:
 3216              		.loc 1 768 8 view .LVU1023
 3217              	.LBE682:
 3218              	.LBB720:
 3219              	.LBB680:
 3220              	.LBB678:
 3221              	.LBB677:
 3222              	.LBB676:
 3223              		.loc 4 363 16 view .LVU1024
 3224 00ac 8B442408 		movl	8(%esp), %eax
 3225 00b0 C7000100 		movl	$1, (%eax)
 3225      0000
 3226              	.LVL139:
 3227              		.loc 4 363 16 view .LVU1025
 3228              	.LBE676:
 3229              	.LBE677:
 3230              	.LBE678:
 3231              	.LBE680:
 3232              	.LBE720:
 3233              		.loc 1 722 3 is_stmt 1 view .LVU1026
 3234              	.LBB721:
 3235              		.loc 1 723 5 view .LVU1027
 3236              		.loc 1 726 5 view .LVU1028
 3237              		.loc 1 726 13 is_stmt 0 view .LVU1029
 3238 00b6 8B4628   		movl	40(%esi), %eax
 3239              		.loc 1 726 8 view .LVU1030
 3240 00b9 85C0     		testl	%eax, %eax
 3241 00bb 0F849F00 		je	.L157
 3241      0000
GAS LISTING /tmp/ccNgdVMZ.s 			page 60


 3242              		.loc 1 740 24 view .LVU1031
 3243 00c1 8B562C   		movl	44(%esi), %edx
 3244              	.LVL140:
 3245              	.L140:
 3246              		.loc 1 740 5 is_stmt 1 view .LVU1032
 3247              		.loc 1 741 5 view .LVU1033
 3248              		.loc 1 741 19 is_stmt 0 view .LVU1034
 3249 00c4 8B4C2438 		movl	56(%esp), %ecx
 3250              		.loc 1 740 10 view .LVU1035
 3251 00c8 29C2     		subl	%eax, %edx
 3252              	.LVL141:
 3253              		.loc 1 741 19 view .LVU1036
 3254 00ca 29E9     		subl	%ebp, %ecx
 3255 00cc 39D1     		cmpl	%edx, %ecx
 3256 00ce 0F46D1   		cmovbe	%ecx, %edx
 3257              	.LVL142:
 3258              		.loc 1 747 5 is_stmt 1 view .LVU1037
 3259              		.loc 1 747 8 is_stmt 0 view .LVU1038
 3260 00d1 83FA40   		cmpl	$64, %edx
 3261 00d4 0F8756FF 		ja	.L160
 3261      FFFF
 3262              		.loc 1 755 7 is_stmt 1 view .LVU1039
 3263              	.LVL143:
 3264              	.LBB696:
 3265              	.LBI696:
 3266              		.loc 5 26 1 view .LVU1040
 3267              	.LBB697:
 3268              		.loc 5 29 3 view .LVU1041
 3269              		.loc 5 29 10 is_stmt 0 view .LVU1042
 3270 00da 83EC04   		subl	$4, %esp
 3271              		.cfi_def_cfa_offset 52
 3272 00dd 52       		pushl	%edx
 3273              		.cfi_def_cfa_offset 56
 3274 00de 89542414 		movl	%edx, 20(%esp)
 3275 00e2 57       		pushl	%edi
 3276              		.cfi_def_cfa_offset 60
 3277              	.LVL144:
 3278              		.loc 5 29 10 view .LVU1043
 3279 00e3 50       		pushl	%eax
 3280              		.cfi_def_cfa_offset 64
 3281 00e4 E8FCFFFF 		call	memcpy@PLT
 3281      FF
 3282              	.LVL145:
 3283              		.loc 5 29 10 view .LVU1044
 3284              	.LBE697:
 3285              	.LBE696:
 3286              		.loc 1 756 7 is_stmt 1 view .LVU1045
 3287              		.loc 1 756 17 is_stmt 0 view .LVU1046
 3288 00e9 8B54241C 		movl	28(%esp), %edx
 3289              		.loc 1 757 17 view .LVU1047
 3290 00ed 8B4628   		movl	40(%esi), %eax
 3291              		.loc 1 758 17 view .LVU1048
 3292 00f0 83C410   		addl	$16, %esp
 3293              		.cfi_def_cfa_offset 48
 3294              		.loc 1 757 17 view .LVU1049
 3295 00f3 01D0     		addl	%edx, %eax
 3296              		.loc 1 756 17 view .LVU1050
GAS LISTING /tmp/ccNgdVMZ.s 			page 61


 3297 00f5 01D7     		addl	%edx, %edi
 3298              	.LVL146:
 3299              		.loc 1 757 7 is_stmt 1 view .LVU1051
 3300              		.loc 1 758 7 view .LVU1052
 3301              		.loc 1 758 17 is_stmt 0 view .LVU1053
 3302 00f7 01D5     		addl	%edx, %ebp
 3303              	.LVL147:
 3304              		.loc 1 751 17 view .LVU1054
 3305 00f9 894628   		movl	%eax, 40(%esi)
 3306              		.loc 1 762 5 is_stmt 1 view .LVU1055
 3307              		.loc 1 762 8 is_stmt 0 view .LVU1056
 3308 00fc 39462C   		cmpl	%eax, 44(%esi)
 3309 00ff 77A1     		ja	.L146
 3310              	.LVL148:
 3311              	.L159:
 3312              		.loc 1 763 7 is_stmt 1 view .LVU1057
 3313              	.LBB698:
 3314              	.LBI698:
 3315              		.loc 1 621 6 view .LVU1058
 3316              	.LBB699:
 3317              		.loc 1 623 23 view .LVU1059
 3318              		.loc 1 624 3 view .LVU1060
 3319              		.loc 1 624 3 view .LVU1061
 3320              		.loc 1 624 3 view .LVU1062
 3321              		.loc 1 625 3 view .LVU1063
 3322              		.loc 1 625 3 view .LVU1064
 3323              		.loc 1 625 3 view .LVU1065
 3324              		.loc 1 628 3 view .LVU1066
 3325              	.LBE699:
 3326              	.LBE698:
 3327              		.loc 1 763 7 is_stmt 0 view .LVU1067
 3328 0101 8B4E1C   		movl	28(%esi), %ecx
 3329              	.LBB702:
 3330              	.LBB700:
 3331              		.loc 1 628 27 view .LVU1068
 3332 0104 8B4610   		movl	16(%esi), %eax
 3333              	.LBE700:
 3334              	.LBE702:
 3335              		.loc 1 763 7 view .LVU1069
 3336 0107 8D51FC   		leal	-4(%ecx), %edx
 3337              	.LVL149:
 3338              	.LBB703:
 3339              	.LBB701:
 3340              		.loc 1 628 37 view .LVU1070
 3341 010a 8910     		movl	%edx, (%eax)
 3342              		.loc 1 631 3 is_stmt 1 view .LVU1071
 3343              		.loc 1 631 7 is_stmt 0 view .LVU1072
 3344 010c 8B560C   		movl	12(%esi), %edx
 3345              	.LVL150:
 3346              		.loc 1 632 16 view .LVU1073
 3347 010f 03461C   		addl	28(%esi), %eax
 3348              	.LVL151:
 3349              		.loc 1 631 17 view .LVU1074
 3350 0112 83EA01   		subl	$1, %edx
 3351              		.loc 1 632 16 view .LVU1075
 3352 0115 894610   		movl	%eax, 16(%esi)
 3353              	.LVL152:
GAS LISTING /tmp/ccNgdVMZ.s 			page 62


 3354              		.loc 1 631 17 view .LVU1076
 3355 0118 89560C   		movl	%edx, 12(%esi)
 3356              		.loc 1 632 3 is_stmt 1 view .LVU1077
 3357              		.loc 1 633 3 view .LVU1078
 3358              		.loc 1 633 6 is_stmt 0 view .LVU1079
 3359 011b 3B4618   		cmpl	24(%esi), %eax
 3360 011e 7206     		jb	.L147
 3361              		.loc 1 634 5 is_stmt 1 view .LVU1080
 3362              		.loc 1 634 18 is_stmt 0 view .LVU1081
 3363 0120 8B4624   		movl	36(%esi), %eax
 3364 0123 894610   		movl	%eax, 16(%esi)
 3365              	.L147:
 3366              		.loc 1 638 3 is_stmt 1 view .LVU1082
 3367              		.loc 1 641 11 is_stmt 0 view .LVU1083
 3368 0126 8B4630   		movl	48(%esi), %eax
 3369              		.loc 1 638 13 view .LVU1084
 3370 0129 C7462800 		movl	$0, 40(%esi)
 3370      000000
 3371              		.loc 1 641 3 is_stmt 1 view .LVU1085
 3372              		.loc 1 641 6 is_stmt 0 view .LVU1086
 3373 0130 85C0     		testl	%eax, %eax
 3374 0132 0F846AFF 		je	.L146
 3374      FFFF
 3375              		.loc 1 642 5 is_stmt 1 view .LVU1087
 3376 0138 83EC0C   		subl	$12, %esp
 3377              		.cfi_def_cfa_offset 60
 3378 013b 56       		pushl	%esi
 3379              		.cfi_def_cfa_offset 64
 3380 013c FFD0     		call	*%eax
 3381              	.LVL153:
 3382              		.loc 1 642 5 is_stmt 0 view .LVU1088
 3383 013e 83C410   		addl	$16, %esp
 3384              		.cfi_def_cfa_offset 48
 3385              	.LVL154:
 3386              		.loc 1 642 5 view .LVU1089
 3387              	.LBE701:
 3388              	.LBE703:
 3389              		.loc 1 767 5 is_stmt 1 view .LVU1090
 3390              	.LBB704:
 3391              		.loc 2 584 20 view .LVU1091
 3392              		.loc 2 586 3 view .LVU1092
 3393              	.LBB695:
 3394              		.loc 3 421 20 view .LVU1093
 3395              	.LBB694:
 3396              		.loc 3 423 23 view .LVU1094
 3397              		.loc 3 424 34 view .LVU1095
 3398              		.loc 3 430 3 view .LVU1096
 3399              		.loc 3 430 3 view .LVU1097
 3400              		.loc 3 430 3 view .LVU1098
 3401              		.loc 3 434 3 view .LVU1099
 3402              	.LBB693:
 3403              		.loc 4 370 20 view .LVU1100
 3404              	.LBB692:
 3405              		.loc 4 372 3 view .LVU1101
 3406              	.LBE692:
 3407              	.LBE693:
 3408              	.LBE694:
GAS LISTING /tmp/ccNgdVMZ.s 			page 63


 3409              	.LBE695:
 3410              	.LBE704:
 3411              		.loc 1 768 5 view .LVU1102
 3412              		.loc 1 768 8 is_stmt 0 view .LVU1103
 3413 0141 3B6C2438 		cmpl	56(%esp), %ebp
 3414 0145 0F8261FF 		jb	.L149
 3414      FFFF
 3415              	.LVL155:
 3416              	.L141:
 3417              	.LBB705:
 3418              		.loc 1 733 7 is_stmt 1 view .LVU1104
 3419              		.loc 1 734 9 view .LVU1105
 3420              	.LBB706:
 3421              	.LBI706:
 3422              		.loc 2 584 20 view .LVU1106
 3423              		.loc 2 586 3 view .LVU1107
 3424              	.LBB707:
 3425              	.LBI707:
 3426              		.loc 3 421 20 view .LVU1108
 3427              	.LBB708:
 3428              		.loc 3 423 23 view .LVU1109
 3429              		.loc 3 424 34 view .LVU1110
 3430              		.loc 3 430 3 view .LVU1111
 3431              		.loc 3 430 3 view .LVU1112
 3432              		.loc 3 430 3 view .LVU1113
 3433              		.loc 3 434 3 view .LVU1114
 3434              	.LBB709:
 3435              	.LBI709:
 3436              		.loc 4 370 20 view .LVU1115
 3437              	.LBB710:
 3438              		.loc 4 372 3 view .LVU1116
 3439              		.loc 4 372 16 is_stmt 0 view .LVU1117
 3440 014b 8B442408 		movl	8(%esp), %eax
 3441 014f C7000000 		movl	$0, (%eax)
 3441      0000
 3442              	.LBE710:
 3443              	.LBE709:
 3444              	.LBE708:
 3445              	.LBE707:
 3446              	.LBE706:
 3447              		.loc 1 735 9 is_stmt 1 view .LVU1118
 3448              	.LBE705:
 3449              	.LBE721:
 3450              		.loc 1 773 1 is_stmt 0 view .LVU1119
 3451 0155 83C41C   		addl	$28, %esp
 3452              		.cfi_remember_state
 3453              		.cfi_def_cfa_offset 20
 3454 0158 89E8     		movl	%ebp, %eax
 3455 015a 5B       		popl	%ebx
 3456              		.cfi_restore 3
 3457              		.cfi_def_cfa_offset 16
 3458 015b 5E       		popl	%esi
 3459              		.cfi_restore 6
 3460              		.cfi_def_cfa_offset 12
 3461 015c 5F       		popl	%edi
 3462              		.cfi_restore 7
 3463              		.cfi_def_cfa_offset 8
GAS LISTING /tmp/ccNgdVMZ.s 			page 64


 3464 015d 5D       		popl	%ebp
 3465              		.cfi_restore 5
 3466              		.cfi_def_cfa_offset 4
 3467              	.LVL156:
 3468              		.loc 1 773 1 view .LVU1120
 3469 015e C3       		ret
 3470              	.LVL157:
 3471 015f 90       		.p2align 4,,10
 3472              		.p2align 3
 3473              	.L157:
 3474              		.cfi_restore_state
 3475              		.loc 1 773 1 view .LVU1121
 3476 0160 897C2434 		movl	%edi, 52(%esp)
 3477 0164 89F7     		movl	%esi, %edi
 3478              	.LVL158:
 3479              		.loc 1 773 1 view .LVU1122
 3480 0166 8B74243C 		movl	60(%esp), %esi
 3481 016a EB1B     		jmp	.L139
 3482 016c 8D742600 		.p2align 4,,10
 3483              		.p2align 3
 3484              	.L142:
 3485              	.LBB722:
 3486              	.LBB719:
 3487              	.LBB711:
 3488              	.LBB712:
 3489              	.LBB713:
 3490              		.loc 1 578 5 is_stmt 1 view .LVU1123
 3491              		.loc 1 578 8 is_stmt 0 view .LVU1124
 3492 0170 807F0800 		cmpb	$0, 8(%edi)
 3493 0174 75D5     		jne	.L141
 3494              		.loc 1 581 5 is_stmt 1 view .LVU1125
 3495              	.LVL159:
 3496              	.LBB714:
 3497              	.LBI714:
 3498              		.loc 2 892 21 view .LVU1126
 3499              	.LBB715:
 3500              		.loc 2 895 3 view .LVU1127
 3501              		.loc 2 895 10 is_stmt 0 view .LVU1128
 3502 0176 83EC08   		subl	$8, %esp
 3503              		.cfi_def_cfa_offset 56
 3504 0179 56       		pushl	%esi
 3505              		.cfi_def_cfa_offset 60
 3506 017a 57       		pushl	%edi
 3507              		.cfi_def_cfa_offset 64
 3508 017b E8FCFFFF 		call	chThdEnqueueTimeoutS@PLT
 3508      FF
 3509              	.LVL160:
 3510              		.loc 2 895 10 view .LVU1129
 3511              	.LBE715:
 3512              	.LBE714:
 3513              		.loc 1 582 5 is_stmt 1 view .LVU1130
 3514              		.loc 1 582 8 is_stmt 0 view .LVU1131
 3515 0180 83C410   		addl	$16, %esp
 3516              		.cfi_def_cfa_offset 48
 3517 0183 85C0     		testl	%eax, %eax
 3518 0185 78C4     		js	.L141
 3519              	.LVL161:
GAS LISTING /tmp/ccNgdVMZ.s 			page 65


 3520              	.L139:
 3521              		.loc 1 582 8 view .LVU1132
 3522              	.LBE713:
 3523              		.loc 1 577 10 is_stmt 1 view .LVU1133
 3524 0187 8B470C   		movl	12(%edi), %eax
 3525 018a 85C0     		testl	%eax, %eax
 3526 018c 74E2     		je	.L142
 3527              	.LBB716:
 3528              	.LBB717:
 3529              		.loc 1 590 19 is_stmt 0 view .LVU1134
 3530 018e 89FE     		movl	%edi, %esi
 3531 0190 8B7C2434 		movl	52(%esp), %edi
 3532              	.LVL162:
 3533              		.loc 1 590 19 view .LVU1135
 3534              	.LBE717:
 3535              	.LBI716:
 3536              		.loc 1 572 7 is_stmt 1 view .LVU1136
 3537              	.LBB718:
 3538              		.loc 1 587 3 view .LVU1137
 3539              		.loc 1 587 3 view .LVU1138
 3540              		.loc 1 587 3 view .LVU1139
 3541              		.loc 1 590 3 view .LVU1140
 3542              		.loc 1 590 19 is_stmt 0 view .LVU1141
 3543 0194 8B5610   		movl	16(%esi), %edx
 3544              		.loc 1 590 28 view .LVU1142
 3545 0197 8D4204   		leal	4(%edx), %eax
 3546              		.loc 1 591 28 view .LVU1143
 3547 019a 03561C   		addl	28(%esi), %edx
 3548              		.loc 1 590 13 view .LVU1144
 3549 019d 894628   		movl	%eax, 40(%esi)
 3550              		.loc 1 591 3 is_stmt 1 view .LVU1145
 3551              		.loc 1 591 13 is_stmt 0 view .LVU1146
 3552 01a0 89562C   		movl	%edx, 44(%esi)
 3553              		.loc 1 593 3 is_stmt 1 view .LVU1147
 3554              	.LVL163:
 3555              		.loc 1 593 3 is_stmt 0 view .LVU1148
 3556              	.LBE718:
 3557              	.LBE716:
 3558              	.LBE712:
 3559              	.LBE711:
 3560              		.loc 1 733 7 is_stmt 1 view .LVU1149
 3561 01a3 E91CFFFF 		jmp	.L140
 3561      FF
 3562              	.LBE719:
 3563              	.LBE722:
 3564              		.cfi_endproc
 3565              	.LFE330:
 3566              		.size	obqWriteTimeout, .-obqWriteTimeout
 3567              		.section	.text.obqTryFlushI,"ax",@progbits
 3568              		.p2align 4
 3569              		.globl	obqTryFlushI
 3570              		.type	obqTryFlushI, @function
 3571              	obqTryFlushI:
 3572              	.LVL164:
 3573              	.LFB331:
 3574              		.loc 1 788 49 view -0
 3575              		.cfi_startproc
GAS LISTING /tmp/ccNgdVMZ.s 			page 66


 3576              		.loc 1 790 23 view .LVU1151
 3577              		.loc 1 794 3 view .LVU1152
 3578              		.loc 1 788 49 is_stmt 0 view .LVU1153
 3579 0000 53       		pushl	%ebx
 3580              		.cfi_def_cfa_offset 8
 3581              		.cfi_offset 3, -8
 3582              		.loc 1 788 49 view .LVU1154
 3583 0001 8B442408 		movl	8(%esp), %eax
 3584              		.loc 1 815 10 view .LVU1155
 3585 0005 31DB     		xorl	%ebx, %ebx
 3586              		.loc 1 794 7 view .LVU1156
 3587 0007 8B5010   		movl	16(%eax), %edx
 3588 000a 3B5014   		cmpl	20(%eax), %edx
 3589 000d 7409     		je	.L170
 3590              	.L161:
 3591              		.loc 1 816 1 view .LVU1157
 3592 000f 89D8     		movl	%ebx, %eax
 3593 0011 5B       		popl	%ebx
 3594              		.cfi_remember_state
 3595              		.cfi_restore 3
 3596              		.cfi_def_cfa_offset 4
 3597 0012 C3       		ret
 3598              	.LVL165:
 3599              		.p2align 4,,10
 3600 0013 8D742600 		.p2align 3
 3600      90
 3601              	.L170:
 3602              		.cfi_restore_state
 3603              		.loc 1 794 7 discriminator 1 view .LVU1158
 3604 0018 8B480C   		movl	12(%eax), %ecx
 3605 001b 85C9     		testl	%ecx, %ecx
 3606 001d 74F0     		je	.L161
 3607              		.loc 1 794 33 view .LVU1159
 3608 001f 8B4828   		movl	40(%eax), %ecx
 3609              		.loc 1 794 25 view .LVU1160
 3610 0022 85C9     		testl	%ecx, %ecx
 3611 0024 74E9     		je	.L161
 3612              	.LBB723:
 3613              		.loc 1 795 5 is_stmt 1 view .LVU1161
 3614              		.loc 1 795 12 is_stmt 0 view .LVU1162
 3615 0026 83E904   		subl	$4, %ecx
 3616              	.LVL166:
 3617              		.loc 1 797 5 is_stmt 1 view .LVU1163
 3618              		.loc 1 797 8 is_stmt 0 view .LVU1164
 3619 0029 29D1     		subl	%edx, %ecx
 3620              	.LVL167:
 3621              		.loc 1 797 8 view .LVU1165
 3622 002b 74E2     		je	.L161
 3623              		.loc 1 800 7 is_stmt 1 view .LVU1166
 3624              		.loc 1 800 41 is_stmt 0 view .LVU1167
 3625 002d 890A     		movl	%ecx, (%edx)
 3626              		.loc 1 803 7 is_stmt 1 view .LVU1168
 3627              		.loc 1 803 11 is_stmt 0 view .LVU1169
 3628 002f 8B480C   		movl	12(%eax), %ecx
 3629              	.LVL168:
 3630              		.loc 1 804 20 view .LVU1170
 3631 0032 03501C   		addl	28(%eax), %edx
GAS LISTING /tmp/ccNgdVMZ.s 			page 67


 3632              	.LVL169:
 3633              		.loc 1 803 21 view .LVU1171
 3634 0035 83E901   		subl	$1, %ecx
 3635              		.loc 1 804 20 view .LVU1172
 3636 0038 895010   		movl	%edx, 16(%eax)
 3637              	.LVL170:
 3638              		.loc 1 803 21 view .LVU1173
 3639 003b 89480C   		movl	%ecx, 12(%eax)
 3640              		.loc 1 804 7 is_stmt 1 view .LVU1174
 3641              		.loc 1 805 7 view .LVU1175
 3642              		.loc 1 805 10 is_stmt 0 view .LVU1176
 3643 003e 3B5018   		cmpl	24(%eax), %edx
 3644 0041 7206     		jb	.L164
 3645              		.loc 1 806 9 is_stmt 1 view .LVU1177
 3646              		.loc 1 806 22 is_stmt 0 view .LVU1178
 3647 0043 8B5024   		movl	36(%eax), %edx
 3648 0046 895010   		movl	%edx, 16(%eax)
 3649              	.L164:
 3650              		.loc 1 810 7 is_stmt 1 view .LVU1179
 3651              		.loc 1 812 14 is_stmt 0 view .LVU1180
 3652 0049 BB010000 		movl	$1, %ebx
 3652      00
 3653              		.loc 1 810 17 view .LVU1181
 3654 004e C7402800 		movl	$0, 40(%eax)
 3654      000000
 3655              		.loc 1 812 7 is_stmt 1 view .LVU1182
 3656              	.LBE723:
 3657              		.loc 1 816 1 is_stmt 0 view .LVU1183
 3658 0055 89D8     		movl	%ebx, %eax
 3659              	.LVL171:
 3660              		.loc 1 816 1 view .LVU1184
 3661 0057 5B       		popl	%ebx
 3662              		.cfi_restore 3
 3663              		.cfi_def_cfa_offset 4
 3664 0058 C3       		ret
 3665              		.cfi_endproc
 3666              	.LFE331:
 3667              		.size	obqTryFlushI, .-obqTryFlushI
 3668              		.section	.text.obqFlush,"ax",@progbits
 3669              		.p2align 4
 3670              		.globl	obqFlush
 3671              		.type	obqFlush, @function
 3672              	obqFlush:
 3673              	.LVL172:
 3674              	.LFB332:
 3675              		.loc 1 825 45 is_stmt 1 view -0
 3676              		.cfi_startproc
 3677              		.loc 1 827 3 view .LVU1186
 3678              	.LBB736:
 3679              	.LBI736:
 3680              		.loc 2 573 20 view .LVU1187
 3681              		.loc 2 575 3 view .LVU1188
 3682              	.LBB737:
 3683              	.LBI737:
 3684              		.loc 3 407 20 view .LVU1189
 3685              		.loc 3 409 3 view .LVU1190
 3686              	.LBB738:
GAS LISTING /tmp/ccNgdVMZ.s 			page 68


 3687              	.LBI738:
 3688              		.loc 4 361 20 view .LVU1191
 3689              	.LBB739:
 3690              		.loc 4 363 3 view .LVU1192
 3691 0000 E8FCFFFF 		call	__x86.get_pc_thunk.ax
 3691      FF
 3692 0005 05010000 		addl	$_GLOBAL_OFFSET_TABLE_, %eax
 3692      00
 3693              	.LBE739:
 3694              	.LBE738:
 3695              	.LBE737:
 3696              	.LBE736:
 3697              		.loc 1 825 45 is_stmt 0 view .LVU1193
 3698 000a 53       		pushl	%ebx
 3699              		.cfi_def_cfa_offset 8
 3700              		.cfi_offset 3, -8
 3701 000b 83EC08   		subl	$8, %esp
 3702              		.cfi_def_cfa_offset 16
 3703              		.loc 1 825 45 view .LVU1194
 3704 000e 8B542410 		movl	16(%esp), %edx
 3705              	.LBB746:
 3706              	.LBB744:
 3707              	.LBB742:
 3708              	.LBB740:
 3709              		.loc 4 363 16 view .LVU1195
 3710 0012 8B980000 		movl	port_irq_sts@GOT(%eax), %ebx
 3710      0000
 3711              	.LBE740:
 3712              	.LBE742:
 3713              	.LBE744:
 3714              	.LBE746:
 3715              		.loc 1 830 11 view .LVU1196
 3716 0018 8B4228   		movl	40(%edx), %eax
 3717              	.LBB747:
 3718              	.LBB745:
 3719              	.LBB743:
 3720              	.LBB741:
 3721              		.loc 4 363 16 view .LVU1197
 3722 001b C7030100 		movl	$1, (%ebx)
 3722      0000
 3723              	.LBE741:
 3724              	.LBE743:
 3725              		.loc 3 410 35 is_stmt 1 view .LVU1198
 3726              		.loc 3 411 21 view .LVU1199
 3727              	.LBE745:
 3728              	.LBE747:
 3729              		.loc 1 830 3 view .LVU1200
 3730              		.loc 1 830 6 is_stmt 0 view .LVU1201
 3731 0021 85C0     		testl	%eax, %eax
 3732 0023 740A     		je	.L173
 3733              	.LBB748:
 3734              		.loc 1 831 5 is_stmt 1 view .LVU1202
 3735              		.loc 1 831 52 is_stmt 0 view .LVU1203
 3736 0025 8B4A10   		movl	16(%edx), %ecx
 3737              		.loc 1 831 12 view .LVU1204
 3738 0028 83E804   		subl	$4, %eax
 3739              	.LVL173:
GAS LISTING /tmp/ccNgdVMZ.s 			page 69


 3740              		.loc 1 833 5 is_stmt 1 view .LVU1205
 3741              		.loc 1 833 8 is_stmt 0 view .LVU1206
 3742 002b 29C8     		subl	%ecx, %eax
 3743              	.LVL174:
 3744              		.loc 1 833 8 view .LVU1207
 3745 002d 7511     		jne	.L183
 3746              	.LVL175:
 3747              	.L173:
 3748              		.loc 1 833 8 view .LVU1208
 3749              	.LBE748:
 3750              		.loc 1 838 3 is_stmt 1 view .LVU1209
 3751              	.LBB753:
 3752              	.LBI753:
 3753              		.loc 2 584 20 view .LVU1210
 3754              		.loc 2 586 3 view .LVU1211
 3755              	.LBB754:
 3756              	.LBI754:
 3757              		.loc 3 421 20 view .LVU1212
 3758              	.LBB755:
 3759              		.loc 3 423 23 view .LVU1213
 3760              		.loc 3 424 34 view .LVU1214
 3761              		.loc 3 430 3 view .LVU1215
 3762              		.loc 3 430 3 view .LVU1216
 3763              		.loc 3 430 3 view .LVU1217
 3764              		.loc 3 434 3 view .LVU1218
 3765              	.LBB756:
 3766              	.LBI756:
 3767              		.loc 4 370 20 view .LVU1219
 3768              	.LBB757:
 3769              		.loc 4 372 3 view .LVU1220
 3770              		.loc 4 372 16 is_stmt 0 view .LVU1221
 3771 002f C7030000 		movl	$0, (%ebx)
 3771      0000
 3772              	.LBE757:
 3773              	.LBE756:
 3774              	.LBE755:
 3775              	.LBE754:
 3776              	.LBE753:
 3777              		.loc 1 839 1 view .LVU1222
 3778 0035 83C408   		addl	$8, %esp
 3779              		.cfi_remember_state
 3780              		.cfi_def_cfa_offset 8
 3781 0038 5B       		popl	%ebx
 3782              		.cfi_restore 3
 3783              		.cfi_def_cfa_offset 4
 3784 0039 C3       		ret
 3785              	.LVL176:
 3786 003a 8DB60000 		.p2align 4,,10
 3786      0000
 3787              		.p2align 3
 3788              	.L183:
 3789              		.cfi_restore_state
 3790              	.LBB766:
 3791              		.loc 1 834 7 is_stmt 1 view .LVU1223
 3792              	.LBB749:
 3793              	.LBI749:
 3794              		.loc 1 621 6 view .LVU1224
GAS LISTING /tmp/ccNgdVMZ.s 			page 70


 3795              	.LBB750:
 3796              		.loc 1 623 23 view .LVU1225
 3797              		.loc 1 624 3 view .LVU1226
 3798              		.loc 1 624 3 view .LVU1227
 3799              		.loc 1 624 3 view .LVU1228
 3800              		.loc 1 625 3 view .LVU1229
 3801              		.loc 1 625 3 view .LVU1230
 3802              		.loc 1 625 3 view .LVU1231
 3803              		.loc 1 628 3 view .LVU1232
 3804              		.loc 1 628 37 is_stmt 0 view .LVU1233
 3805 0040 8901     		movl	%eax, (%ecx)
 3806              		.loc 1 631 3 is_stmt 1 view .LVU1234
 3807              		.loc 1 631 7 is_stmt 0 view .LVU1235
 3808 0042 8B420C   		movl	12(%edx), %eax
 3809              	.LVL177:
 3810              		.loc 1 632 16 view .LVU1236
 3811 0045 034A1C   		addl	28(%edx), %ecx
 3812              	.LVL178:
 3813              		.loc 1 631 17 view .LVU1237
 3814 0048 83E801   		subl	$1, %eax
 3815              		.loc 1 632 16 view .LVU1238
 3816 004b 894A10   		movl	%ecx, 16(%edx)
 3817              	.LVL179:
 3818              		.loc 1 631 17 view .LVU1239
 3819 004e 89420C   		movl	%eax, 12(%edx)
 3820              		.loc 1 632 3 is_stmt 1 view .LVU1240
 3821              		.loc 1 633 3 view .LVU1241
 3822              		.loc 1 633 6 is_stmt 0 view .LVU1242
 3823 0051 3B4A18   		cmpl	24(%edx), %ecx
 3824 0054 7206     		jb	.L175
 3825              		.loc 1 634 5 is_stmt 1 view .LVU1243
 3826              		.loc 1 634 18 is_stmt 0 view .LVU1244
 3827 0056 8B4224   		movl	36(%edx), %eax
 3828 0059 894210   		movl	%eax, 16(%edx)
 3829              	.L175:
 3830              		.loc 1 638 3 is_stmt 1 view .LVU1245
 3831              		.loc 1 641 11 is_stmt 0 view .LVU1246
 3832 005c 8B4230   		movl	48(%edx), %eax
 3833              		.loc 1 638 13 view .LVU1247
 3834 005f C7422800 		movl	$0, 40(%edx)
 3834      000000
 3835              		.loc 1 641 3 is_stmt 1 view .LVU1248
 3836              		.loc 1 641 6 is_stmt 0 view .LVU1249
 3837 0066 85C0     		testl	%eax, %eax
 3838 0068 74C5     		je	.L173
 3839              		.loc 1 642 5 is_stmt 1 view .LVU1250
 3840 006a 83EC0C   		subl	$12, %esp
 3841              		.cfi_def_cfa_offset 28
 3842 006d 52       		pushl	%edx
 3843              		.cfi_def_cfa_offset 32
 3844 006e FFD0     		call	*%eax
 3845              	.LVL180:
 3846              		.loc 1 642 5 is_stmt 0 view .LVU1251
 3847              	.LBE750:
 3848              	.LBE749:
 3849              	.LBE766:
 3850              	.LBB767:
GAS LISTING /tmp/ccNgdVMZ.s 			page 71


 3851              	.LBB764:
 3852              	.LBB762:
 3853              	.LBB760:
 3854              	.LBB758:
 3855              		.loc 4 372 16 view .LVU1252
 3856 0070 C7030000 		movl	$0, (%ebx)
 3856      0000
 3857              	.LBE758:
 3858              	.LBE760:
 3859              	.LBE762:
 3860              	.LBE764:
 3861              	.LBE767:
 3862              	.LBB768:
 3863              	.LBB752:
 3864              	.LBB751:
 3865              		.loc 1 642 5 view .LVU1253
 3866 0076 83C410   		addl	$16, %esp
 3867              		.cfi_def_cfa_offset 16
 3868              	.LVL181:
 3869              		.loc 1 642 5 view .LVU1254
 3870              	.LBE751:
 3871              	.LBE752:
 3872              	.LBE768:
 3873              		.loc 1 838 3 is_stmt 1 view .LVU1255
 3874              	.LBB769:
 3875              		.loc 2 584 20 view .LVU1256
 3876              		.loc 2 586 3 view .LVU1257
 3877              	.LBB765:
 3878              		.loc 3 421 20 view .LVU1258
 3879              	.LBB763:
 3880              		.loc 3 423 23 view .LVU1259
 3881              		.loc 3 424 34 view .LVU1260
 3882              		.loc 3 430 3 view .LVU1261
 3883              		.loc 3 430 3 view .LVU1262
 3884              		.loc 3 430 3 view .LVU1263
 3885              		.loc 3 434 3 view .LVU1264
 3886              	.LBB761:
 3887              		.loc 4 370 20 view .LVU1265
 3888              	.LBB759:
 3889              		.loc 4 372 3 view .LVU1266
 3890              	.LBE759:
 3891              	.LBE761:
 3892              	.LBE763:
 3893              	.LBE765:
 3894              	.LBE769:
 3895              		.loc 1 839 1 is_stmt 0 view .LVU1267
 3896 0079 83C408   		addl	$8, %esp
 3897              		.cfi_def_cfa_offset 8
 3898 007c 5B       		popl	%ebx
 3899              		.cfi_restore 3
 3900              		.cfi_def_cfa_offset 4
 3901 007d C3       		ret
 3902              		.cfi_endproc
 3903              	.LFE332:
 3904              		.size	obqFlush, .-obqFlush
 3905              		.section	.text.__x86.get_pc_thunk.ax,"axG",@progbits,__x86.get_pc_thunk.ax,comdat
 3906              		.globl	__x86.get_pc_thunk.ax
GAS LISTING /tmp/ccNgdVMZ.s 			page 72


 3907              		.hidden	__x86.get_pc_thunk.ax
 3908              		.type	__x86.get_pc_thunk.ax, @function
 3909              	__x86.get_pc_thunk.ax:
 3910              	.LFB339:
 3911              		.cfi_startproc
 3912 0000 8B0424   		movl	(%esp), %eax
 3913 0003 C3       		ret
 3914              		.cfi_endproc
 3915              	.LFE339:
 3916              		.section	.text.__x86.get_pc_thunk.dx,"axG",@progbits,__x86.get_pc_thunk.dx,comdat
 3917              		.globl	__x86.get_pc_thunk.dx
 3918              		.hidden	__x86.get_pc_thunk.dx
 3919              		.type	__x86.get_pc_thunk.dx, @function
 3920              	__x86.get_pc_thunk.dx:
 3921              	.LFB340:
 3922              		.cfi_startproc
 3923 0000 8B1424   		movl	(%esp), %edx
 3924 0003 C3       		ret
 3925              		.cfi_endproc
 3926              	.LFE340:
 3927              		.section	.text.__x86.get_pc_thunk.bx,"axG",@progbits,__x86.get_pc_thunk.bx,comdat
 3928              		.globl	__x86.get_pc_thunk.bx
 3929              		.hidden	__x86.get_pc_thunk.bx
 3930              		.type	__x86.get_pc_thunk.bx, @function
 3931              	__x86.get_pc_thunk.bx:
 3932              	.LFB341:
 3933              		.cfi_startproc
 3934 0000 8B1C24   		movl	(%esp), %ebx
 3935 0003 C3       		ret
 3936              		.cfi_endproc
 3937              	.LFE341:
 3938              		.text
 3939              	.Letext0:
 3940              		.file 6 "/usr/lib/gcc/x86_64-linux-gnu/11/include/stddef.h"
 3941              		.file 7 "/usr/include/bits/types.h"
 3942              		.file 8 "/usr/include/bits/stdint-intn.h"
 3943              		.file 9 "/usr/include/bits/stdint-uintn.h"
 3944              		.file 10 "../../../os/common/ports/SIMIA32/compilers/GCC/chtypes.h"
 3945              		.file 11 "../../../os/rt/include/chtime.h"
 3946              		.file 12 "../../../os/rt/include/chlists.h"
 3947              		.file 13 "../../../os/rt/include/chobjects.h"
 3948              		.file 14 "../../../os/hal/include/hal_buffers.h"
 3949              		.file 15 "../../../os/rt/include/chthreads.h"
 3950              		.file 16 "<built-in>"
 3951              		.section	.debug_info,"",@progbits
 3952              	.Ldebug_info0:
 3953 0000 E7180000 		.long	0x18e7
 3954 0004 0500     		.value	0x5
 3955 0006 01       		.byte	0x1
 3956 0007 04       		.byte	0x4
 3957 0008 00000000 		.long	.Ldebug_abbrev0
 3958 000c 3A       		.uleb128 0x3a
 3959 000d 5F010000 		.long	.LASF94
 3960 0011 1D       		.byte	0x1d
 3961 0012 26000000 		.long	.LASF0
 3962 0016 00000000 		.long	.LASF1
 3963 001a 8D020000 		.long	.LLRL141
GAS LISTING /tmp/ccNgdVMZ.s 			page 73


 3964 001e 00000000 		.long	0
 3965 0022 00000000 		.long	.Ldebug_line0
 3966 0026 05       		.uleb128 0x5
 3967 0027 59000000 		.long	.LASF12
 3968 002b 06       		.byte	0x6
 3969 002c D1       		.byte	0xd1
 3970 002d 17       		.byte	0x17
 3971 002e 37000000 		.long	0x37
 3972 0032 3B       		.uleb128 0x3b
 3973 0033 26000000 		.long	0x26
 3974 0037 08       		.uleb128 0x8
 3975 0038 04       		.byte	0x4
 3976 0039 07       		.byte	0x7
 3977 003a 69030000 		.long	.LASF2
 3978 003e 08       		.uleb128 0x8
 3979 003f 02       		.byte	0x2
 3980 0040 07       		.byte	0x7
 3981 0041 3F040000 		.long	.LASF3
 3982 0045 3C       		.uleb128 0x3c
 3983 0046 04       		.byte	0x4
 3984 0047 05       		.byte	0x5
 3985 0048 696E7400 		.string	"int"
 3986 004c 08       		.uleb128 0x8
 3987 004d 01       		.byte	0x1
 3988 004e 06       		.byte	0x6
 3989 004f BF030000 		.long	.LASF4
 3990 0053 0E       		.uleb128 0xe
 3991 0054 4C000000 		.long	0x4c
 3992 0058 08       		.uleb128 0x8
 3993 0059 04       		.byte	0x4
 3994 005a 05       		.byte	0x5
 3995 005b 6B020000 		.long	.LASF5
 3996 005f 08       		.uleb128 0x8
 3997 0060 08       		.byte	0x8
 3998 0061 05       		.byte	0x5
 3999 0062 17020000 		.long	.LASF6
 4000 0066 08       		.uleb128 0x8
 4001 0067 0C       		.byte	0xc
 4002 0068 04       		.byte	0x4
 4003 0069 53010000 		.long	.LASF7
 4004 006d 08       		.uleb128 0x8
 4005 006e 10       		.byte	0x10
 4006 006f 04       		.byte	0x4
 4007 0070 0C050000 		.long	.LASF8
 4008 0074 08       		.uleb128 0x8
 4009 0075 01       		.byte	0x1
 4010 0076 08       		.byte	0x8
 4011 0077 12030000 		.long	.LASF9
 4012 007b 08       		.uleb128 0x8
 4013 007c 04       		.byte	0x4
 4014 007d 07       		.byte	0x7
 4015 007e 76030000 		.long	.LASF10
 4016 0082 08       		.uleb128 0x8
 4017 0083 01       		.byte	0x1
 4018 0084 06       		.byte	0x6
 4019 0085 3D030000 		.long	.LASF11
 4020 0089 05       		.uleb128 0x5
GAS LISTING /tmp/ccNgdVMZ.s 			page 74


 4021 008a B0020000 		.long	.LASF13
 4022 008e 07       		.byte	0x7
 4023 008f 26       		.byte	0x26
 4024 0090 17       		.byte	0x17
 4025 0091 74000000 		.long	0x74
 4026 0095 08       		.uleb128 0x8
 4027 0096 02       		.byte	0x2
 4028 0097 05       		.byte	0x5
 4029 0098 4F000000 		.long	.LASF14
 4030 009c 05       		.uleb128 0x5
 4031 009d CB040000 		.long	.LASF15
 4032 00a1 07       		.byte	0x7
 4033 00a2 29       		.byte	0x29
 4034 00a3 14       		.byte	0x14
 4035 00a4 45000000 		.long	0x45
 4036 00a8 05       		.uleb128 0x5
 4037 00a9 92040000 		.long	.LASF16
 4038 00ad 07       		.byte	0x7
 4039 00ae 2A       		.byte	0x2a
 4040 00af 16       		.byte	0x16
 4041 00b0 37000000 		.long	0x37
 4042 00b4 08       		.uleb128 0x8
 4043 00b5 08       		.byte	0x8
 4044 00b6 07       		.byte	0x7
 4045 00b7 49030000 		.long	.LASF17
 4046 00bb 3D       		.uleb128 0x3d
 4047 00bc 04       		.byte	0x4
 4048 00bd 2D       		.uleb128 0x2d
 4049 00be BB000000 		.long	0xbb
 4050 00c2 05       		.uleb128 0x5
 4051 00c3 D7030000 		.long	.LASF18
 4052 00c7 08       		.byte	0x8
 4053 00c8 1A       		.byte	0x1a
 4054 00c9 13       		.byte	0x13
 4055 00ca 9C000000 		.long	0x9c
 4056 00ce 05       		.uleb128 0x5
 4057 00cf 12010000 		.long	.LASF19
 4058 00d3 09       		.byte	0x9
 4059 00d4 18       		.byte	0x18
 4060 00d5 13       		.byte	0x13
 4061 00d6 89000000 		.long	0x89
 4062 00da 0E       		.uleb128 0xe
 4063 00db CE000000 		.long	0xce
 4064 00df 05       		.uleb128 0x5
 4065 00e0 60030000 		.long	.LASF20
 4066 00e4 09       		.byte	0x9
 4067 00e5 1A       		.byte	0x1a
 4068 00e6 14       		.byte	0x14
 4069 00e7 A8000000 		.long	0xa8
 4070 00eb 05       		.uleb128 0x5
 4071 00ec 56050000 		.long	.LASF21
 4072 00f0 0A       		.byte	0xa
 4073 00f1 37       		.byte	0x37
 4074 00f2 1D       		.byte	0x1d
 4075 00f3 DF000000 		.long	0xdf
 4076 00f7 05       		.uleb128 0x5
 4077 00f8 5F050000 		.long	.LASF22
GAS LISTING /tmp/ccNgdVMZ.s 			page 75


 4078 00fc 0A       		.byte	0xa
 4079 00fd 3D       		.byte	0x3d
 4080 00fe 1D       		.byte	0x1d
 4081 00ff C2000000 		.long	0xc2
 4082 0103 05       		.uleb128 0x5
 4083 0104 04040000 		.long	.LASF23
 4084 0108 0B       		.byte	0xb
 4085 0109 79       		.byte	0x79
 4086 010a 12       		.byte	0x12
 4087 010b DF000000 		.long	0xdf
 4088 010f 05       		.uleb128 0x5
 4089 0110 2B010000 		.long	.LASF24
 4090 0114 0C       		.byte	0xc
 4091 0115 3F       		.byte	0x3f
 4092 0116 19       		.byte	0x19
 4093 0117 1B010000 		.long	0x11b
 4094 011b 26       		.uleb128 0x26
 4095 011c E1000000 		.long	.LASF28
 4096 0120 08       		.byte	0x8
 4097 0121 0C       		.byte	0xc
 4098 0122 45       		.byte	0x45
 4099 0123 08       		.byte	0x8
 4100 0124 43010000 		.long	0x143
 4101 0128 09       		.uleb128 0x9
 4102 0129 6D050000 		.long	.LASF25
 4103 012d 0C       		.byte	0xc
 4104 012e 46       		.byte	0x46
 4105 012f 1A       		.byte	0x1a
 4106 0130 43010000 		.long	0x143
 4107 0134 00       		.byte	0
 4108 0135 09       		.uleb128 0x9
 4109 0136 4A050000 		.long	.LASF26
 4110 013a 0C       		.byte	0xc
 4111 013b 47       		.byte	0x47
 4112 013c 1A       		.byte	0x1a
 4113 013d 43010000 		.long	0x143
 4114 0141 04       		.byte	0x4
 4115 0142 00       		.byte	0
 4116 0143 0F       		.uleb128 0xf
 4117 0144 0F010000 		.long	0x10f
 4118 0148 0F       		.uleb128 0xf
 4119 0149 CE000000 		.long	0xce
 4120 014d 08       		.uleb128 0x8
 4121 014e 01       		.byte	0x1
 4122 014f 02       		.byte	0x2
 4123 0150 EC030000 		.long	.LASF27
 4124 0154 3E       		.uleb128 0x3e
 4125 0155 42000000 		.long	.LASF50
 4126 0159 04       		.byte	0x4
 4127 015a 1C01     		.value	0x11c
 4128 015c 11       		.byte	0x11
 4129 015d EB000000 		.long	0xeb
 4130 0161 26       		.uleb128 0x26
 4131 0162 1A010000 		.long	.LASF29
 4132 0166 08       		.byte	0x8
 4133 0167 0D       		.byte	0xd
 4134 0168 97       		.byte	0x97
GAS LISTING /tmp/ccNgdVMZ.s 			page 76


 4135 0169 10       		.byte	0x10
 4136 016a 7C010000 		.long	0x17c
 4137 016e 09       		.uleb128 0x9
 4138 016f DF030000 		.long	.LASF30
 4139 0173 0D       		.byte	0xd
 4140 0174 9B       		.byte	0x9b
 4141 0175 21       		.byte	0x21
 4142 0176 0F010000 		.long	0x10f
 4143 017a 00       		.byte	0
 4144 017b 00       		.byte	0
 4145 017c 05       		.uleb128 0x5
 4146 017d 32000000 		.long	.LASF31
 4147 0181 0D       		.byte	0xd
 4148 0182 9C       		.byte	0x9c
 4149 0183 03       		.byte	0x3
 4150 0184 61010000 		.long	0x161
 4151 0188 0F       		.uleb128 0xf
 4152 0189 DA000000 		.long	0xda
 4153 018d 05       		.uleb128 0x5
 4154 018e AE040000 		.long	.LASF32
 4155 0192 0E       		.byte	0xe
 4156 0193 3F       		.byte	0x3f
 4157 0194 21       		.byte	0x21
 4158 0195 99010000 		.long	0x199
 4159 0199 26       		.uleb128 0x26
 4160 019a 01010000 		.long	.LASF33
 4161 019e 38       		.byte	0x38
 4162 019f 0E       		.byte	0xe
 4163 01a0 4B       		.byte	0x4b
 4164 01a1 08       		.byte	0x8
 4165 01a2 4C020000 		.long	0x24c
 4166 01a6 09       		.uleb128 0x9
 4167 01a7 42050000 		.long	.LASF34
 4168 01ab 0E       		.byte	0xe
 4169 01ac 4F       		.byte	0x4f
 4170 01ad 19       		.byte	0x19
 4171 01ae 7C010000 		.long	0x17c
 4172 01b2 00       		.byte	0
 4173 01b3 09       		.uleb128 0x9
 4174 01b4 B5030000 		.long	.LASF35
 4175 01b8 0E       		.byte	0xe
 4176 01b9 53       		.byte	0x53
 4177 01ba 19       		.byte	0x19
 4178 01bb 4D010000 		.long	0x14d
 4179 01bf 08       		.byte	0x8
 4180 01c0 09       		.uleb128 0x9
 4181 01c1 25020000 		.long	.LASF36
 4182 01c5 0E       		.byte	0xe
 4183 01c6 57       		.byte	0x57
 4184 01c7 19       		.byte	0x19
 4185 01c8 32000000 		.long	0x32
 4186 01cc 0C       		.byte	0xc
 4187 01cd 09       		.uleb128 0x9
 4188 01ce E5030000 		.long	.LASF37
 4189 01d2 0E       		.byte	0xe
 4190 01d3 5B       		.byte	0x5b
 4191 01d4 1A       		.byte	0x1a
GAS LISTING /tmp/ccNgdVMZ.s 			page 77


 4192 01d5 48010000 		.long	0x148
 4193 01d9 10       		.byte	0x10
 4194 01da 09       		.uleb128 0x9
 4195 01db 4F050000 		.long	.LASF38
 4196 01df 0E       		.byte	0xe
 4197 01e0 5F       		.byte	0x5f
 4198 01e1 1A       		.byte	0x1a
 4199 01e2 48010000 		.long	0x148
 4200 01e6 14       		.byte	0x14
 4201 01e7 09       		.uleb128 0x9
 4202 01e8 3A040000 		.long	.LASF39
 4203 01ec 0E       		.byte	0xe
 4204 01ed 63       		.byte	0x63
 4205 01ee 1A       		.byte	0x1a
 4206 01ef 48010000 		.long	0x148
 4207 01f3 18       		.byte	0x18
 4208 01f4 09       		.uleb128 0x9
 4209 01f5 2C000000 		.long	.LASF40
 4210 01f9 0E       		.byte	0xe
 4211 01fa 6A       		.byte	0x6a
 4212 01fb 19       		.byte	0x19
 4213 01fc 26000000 		.long	0x26
 4214 0200 1C       		.byte	0x1c
 4215 0201 27       		.uleb128 0x27
 4216 0202 626E00   		.string	"bn"
 4217 0205 6E       		.byte	0x6e
 4218 0206 19       		.byte	0x19
 4219 0207 26000000 		.long	0x26
 4220 020b 20       		.byte	0x20
 4221 020c 09       		.uleb128 0x9
 4222 020d 8A040000 		.long	.LASF41
 4223 0211 0E       		.byte	0xe
 4224 0212 72       		.byte	0x72
 4225 0213 1A       		.byte	0x1a
 4226 0214 48010000 		.long	0x148
 4227 0218 24       		.byte	0x24
 4228 0219 27       		.uleb128 0x27
 4229 021a 70747200 		.string	"ptr"
 4230 021e 77       		.byte	0x77
 4231 021f 1A       		.byte	0x1a
 4232 0220 48010000 		.long	0x148
 4233 0224 28       		.byte	0x28
 4234 0225 27       		.uleb128 0x27
 4235 0226 746F7000 		.string	"top"
 4236 022a 7B       		.byte	0x7b
 4237 022b 1A       		.byte	0x1a
 4238 022c 48010000 		.long	0x148
 4239 0230 2C       		.byte	0x2c
 4240 0231 09       		.uleb128 0x9
 4241 0232 2C050000 		.long	.LASF42
 4242 0236 0E       		.byte	0xe
 4243 0237 7F       		.byte	0x7f
 4244 0238 19       		.byte	0x19
 4245 0239 4C020000 		.long	0x24c
 4246 023d 30       		.byte	0x30
 4247 023e 09       		.uleb128 0x9
 4248 023f 36010000 		.long	.LASF43
GAS LISTING /tmp/ccNgdVMZ.s 			page 78


 4249 0243 0E       		.byte	0xe
 4250 0244 83       		.byte	0x83
 4251 0245 1A       		.byte	0x1a
 4252 0246 BB000000 		.long	0xbb
 4253 024a 34       		.byte	0x34
 4254 024b 00       		.byte	0
 4255 024c 05       		.uleb128 0x5
 4256 024d 48010000 		.long	.LASF44
 4257 0251 0E       		.byte	0xe
 4258 0252 46       		.byte	0x46
 4259 0253 10       		.byte	0x10
 4260 0254 58020000 		.long	0x258
 4261 0258 0F       		.uleb128 0xf
 4262 0259 5D020000 		.long	0x25d
 4263 025d 3F       		.uleb128 0x3f
 4264 025e 68020000 		.long	0x268
 4265 0262 11       		.uleb128 0x11
 4266 0263 68020000 		.long	0x268
 4267 0267 00       		.byte	0
 4268 0268 0F       		.uleb128 0xf
 4269 0269 8D010000 		.long	0x18d
 4270 026d 05       		.uleb128 0x5
 4271 026e 16050000 		.long	.LASF45
 4272 0272 0E       		.byte	0xe
 4273 0273 89       		.byte	0x89
 4274 0274 1C       		.byte	0x1c
 4275 0275 8D010000 		.long	0x18d
 4276 0279 05       		.uleb128 0x5
 4277 027a EA000000 		.long	.LASF46
 4278 027e 0E       		.byte	0xe
 4279 027f 8E       		.byte	0x8e
 4280 0280 1C       		.byte	0x1c
 4281 0281 8D010000 		.long	0x18d
 4282 0285 40       		.uleb128 0x40
 4283 0286 2E020000 		.long	.LASF61
 4284 028a 0F       		.byte	0xf
 4285 028b D901     		.value	0x1d9
 4286 028d 09       		.byte	0x9
 4287 028e F7000000 		.long	0xf7
 4288 0292 A1020000 		.long	0x2a1
 4289 0296 11       		.uleb128 0x11
 4290 0297 A1020000 		.long	0x2a1
 4291 029b 11       		.uleb128 0x11
 4292 029c 03010000 		.long	0x103
 4293 02a0 00       		.byte	0
 4294 02a1 0F       		.uleb128 0xf
 4295 02a2 7C010000 		.long	0x17c
 4296 02a6 28       		.uleb128 0x28
 4297 02a7 FA040000 		.long	.LASF47
 4298 02ab DA01     		.value	0x1da
 4299 02ad BC020000 		.long	0x2bc
 4300 02b1 11       		.uleb128 0x11
 4301 02b2 A1020000 		.long	0x2a1
 4302 02b6 11       		.uleb128 0x11
 4303 02b7 F7000000 		.long	0xf7
 4304 02bb 00       		.byte	0
 4305 02bc 28       		.uleb128 0x28
GAS LISTING /tmp/ccNgdVMZ.s 			page 79


 4306 02bd 71000000 		.long	.LASF48
 4307 02c1 DB01     		.value	0x1db
 4308 02c3 D2020000 		.long	0x2d2
 4309 02c7 11       		.uleb128 0x11
 4310 02c8 A1020000 		.long	0x2a1
 4311 02cc 11       		.uleb128 0x11
 4312 02cd F7000000 		.long	0xf7
 4313 02d1 00       		.byte	0
 4314 02d2 28       		.uleb128 0x28
 4315 02d3 17040000 		.long	.LASF49
 4316 02d7 D701     		.value	0x1d7
 4317 02d9 E3020000 		.long	0x2e3
 4318 02dd 11       		.uleb128 0x11
 4319 02de A1020000 		.long	0x2a1
 4320 02e2 00       		.byte	0
 4321 02e3 2E       		.uleb128 0x2e
 4322 02e4 D5040000 		.long	.LASF59
 4323 02e8 3903     		.value	0x339
 4324 02ea 00000000 		.long	.LFB332
 4325 02ee 7E000000 		.long	.LFE332-.LFB332
 4326 02f2 01       		.uleb128 0x1
 4327 02f3 9C       		.byte	0x9c
 4328 02f4 CC030000 		.long	0x3cc
 4329 02f8 03       		.uleb128 0x3
 4330 02f9 12040000 		.long	.LASF54
 4331 02fd 3903     		.value	0x339
 4332 02ff 27       		.byte	0x27
 4333 0300 CC030000 		.long	0x3cc
 4334 0304 02       		.uleb128 0x2
 4335 0305 91       		.byte	0x91
 4336 0306 00       		.sleb128 0
 4337 0307 1A       		.uleb128 0x1a
 4338 0308 6C020000 		.long	.LLRL135
 4339 030c 56030000 		.long	0x356
 4340 0310 20       		.uleb128 0x20
 4341 0311 9D040000 		.long	.LASF51
 4342 0315 3F03     		.value	0x33f
 4343 0317 26000000 		.long	0x26
 4344 031b 16000000 		.long	.LLST136
 4345 031f 0C000000 		.long	.LVUS136
 4346 0323 02       		.uleb128 0x2
 4347 0324 9E080000 		.long	0x89e
 4348 0328 40000000 		.long	.LBI749
 4349 032c 01       		.byte	.LVU1224
 4350 032d 72020000 		.long	.LLRL137
 4351 0331 01       		.byte	0x1
 4352 0332 4203     		.value	0x342
 4353 0334 07       		.byte	0x7
 4354 0335 01       		.uleb128 0x1
 4355 0336 B7080000 		.long	0x8b7
 4356 033a 43000000 		.long	.LLST138
 4357 033e 3D000000 		.long	.LVUS138
 4358 0342 01       		.uleb128 0x1
 4359 0343 AA080000 		.long	0x8aa
 4360 0347 5F000000 		.long	.LLST139
 4361 034b 5B000000 		.long	.LVUS139
 4362 034f 12       		.uleb128 0x12
GAS LISTING /tmp/ccNgdVMZ.s 			page 80


 4363 0350 72020000 		.long	.LLRL137
 4364 0354 00       		.byte	0
 4365 0355 00       		.byte	0
 4366 0356 0A       		.uleb128 0xa
 4367 0357 B9160000 		.long	0x16b9
 4368 035b 00000000 		.long	.LBI736
 4369 035f 02       		.byte	.LVU1187
 4370 0360 5D020000 		.long	.LLRL134
 4371 0364 3B03     		.value	0x33b
 4372 0366 03       		.byte	0x3
 4373 0367 8F030000 		.long	0x38f
 4374 036b 02       		.uleb128 0x2
 4375 036c EC160000 		.long	0x16ec
 4376 0370 00000000 		.long	.LBI737
 4377 0374 04       		.byte	.LVU1189
 4378 0375 5D020000 		.long	.LLRL134
 4379 0379 02       		.byte	0x2
 4380 037a 3F02     		.value	0x23f
 4381 037c 03       		.byte	0x3
 4382 037d 06       		.uleb128 0x6
 4383 037e FC160000 		.long	0x16fc
 4384 0382 00000000 		.long	.LBI738
 4385 0386 06       		.byte	.LVU1191
 4386 0387 5D020000 		.long	.LLRL134
 4387 038b 9901     		.value	0x199
 4388 038d 00       		.byte	0
 4389 038e 00       		.byte	0
 4390 038f 02       		.uleb128 0x2
 4391 0390 B1160000 		.long	0x16b1
 4392 0394 2F000000 		.long	.LBI753
 4393 0398 02       		.byte	.LVU1210
 4394 0399 7E020000 		.long	.LLRL140
 4395 039d 01       		.byte	0x1
 4396 039e 4603     		.value	0x346
 4397 03a0 03       		.byte	0x3
 4398 03a1 02       		.uleb128 0x2
 4399 03a2 C1160000 		.long	0x16c1
 4400 03a6 2F000000 		.long	.LBI754
 4401 03aa 04       		.byte	.LVU1212
 4402 03ab 7E020000 		.long	.LLRL140
 4403 03af 02       		.byte	0x2
 4404 03b0 4A02     		.value	0x24a
 4405 03b2 03       		.byte	0x3
 4406 03b3 0B       		.uleb128 0xb
 4407 03b4 7E020000 		.long	.LLRL140
 4408 03b8 06       		.uleb128 0x6
 4409 03b9 F4160000 		.long	0x16f4
 4410 03bd 2F000000 		.long	.LBI756
 4411 03c1 0B       		.byte	.LVU1219
 4412 03c2 7E020000 		.long	.LLRL140
 4413 03c6 B201     		.value	0x1b2
 4414 03c8 00       		.byte	0
 4415 03c9 00       		.byte	0
 4416 03ca 00       		.byte	0
 4417 03cb 00       		.byte	0
 4418 03cc 0F       		.uleb128 0xf
 4419 03cd 79020000 		.long	0x279
GAS LISTING /tmp/ccNgdVMZ.s 			page 81


 4420 03d1 29       		.uleb128 0x29
 4421 03d2 3B010000 		.long	.LASF52
 4422 03d6 1403     		.value	0x314
 4423 03d8 06       		.byte	0x6
 4424 03d9 4D010000 		.long	0x14d
 4425 03dd 00000000 		.long	.LFB331
 4426 03e1 59000000 		.long	.LFE331-.LFB331
 4427 03e5 01       		.uleb128 0x1
 4428 03e6 9C       		.byte	0x9c
 4429 03e7 1D040000 		.long	0x41d
 4430 03eb 2F       		.uleb128 0x2f
 4431 03ec 12040000 		.long	.LASF54
 4432 03f0 1403     		.value	0x314
 4433 03f2 2B       		.byte	0x2b
 4434 03f3 CC030000 		.long	0x3cc
 4435 03f7 76000000 		.long	.LLST132
 4436 03fb 70000000 		.long	.LVUS132
 4437 03ff 41       		.uleb128 0x41
 4438 0400 26000000 		.long	.LBB723
 4439 0404 2F000000 		.long	.LBE723-.LBB723
 4440 0408 20       		.uleb128 0x20
 4441 0409 9D040000 		.long	.LASF51
 4442 040d 1B03     		.value	0x31b
 4443 040f 26000000 		.long	0x26
 4444 0413 95000000 		.long	.LLST133
 4445 0417 8D000000 		.long	.LVUS133
 4446 041b 00       		.byte	0
 4447 041c 00       		.byte	0
 4448 041d 21       		.uleb128 0x21
 4449 041e 88030000 		.long	.LASF53
 4450 0422 CA02     		.value	0x2ca
 4451 0424 08       		.byte	0x8
 4452 0425 26000000 		.long	0x26
 4453 0429 00000000 		.long	.LFB330
 4454 042d A8010000 		.long	.LFE330-.LFB330
 4455 0431 01       		.uleb128 0x1
 4456 0432 9C       		.byte	0x9c
 4457 0433 DF060000 		.long	0x6df
 4458 0437 03       		.uleb128 0x3
 4459 0438 12040000 		.long	.LASF54
 4460 043c CA02     		.value	0x2ca
 4461 043e 30       		.byte	0x30
 4462 043f CC030000 		.long	0x3cc
 4463 0443 02       		.uleb128 0x2
 4464 0444 91       		.byte	0x91
 4465 0445 00       		.sleb128 0
 4466 0446 30       		.uleb128 0x30
 4467 0447 627000   		.string	"bp"
 4468 044a CA02     		.value	0x2ca
 4469 044c 45       		.byte	0x45
 4470 044d 88010000 		.long	0x188
 4471 0451 C3000000 		.long	.LLST108
 4472 0455 B7000000 		.long	.LVUS108
 4473 0459 1B       		.uleb128 0x1b
 4474 045a 6E00     		.string	"n"
 4475 045c CB02     		.value	0x2cb
 4476 045e 1F       		.byte	0x1f
GAS LISTING /tmp/ccNgdVMZ.s 			page 82


 4477 045f 26000000 		.long	0x26
 4478 0463 02       		.uleb128 0x2
 4479 0464 91       		.byte	0x91
 4480 0465 08       		.sleb128 8
 4481 0466 03       		.uleb128 0x3
 4482 0467 65050000 		.long	.LASF55
 4483 046b CB02     		.value	0x2cb
 4484 046d 30       		.byte	0x30
 4485 046e 03010000 		.long	0x103
 4486 0472 02       		.uleb128 0x2
 4487 0473 91       		.byte	0x91
 4488 0474 0C       		.sleb128 12
 4489 0475 1C       		.uleb128 0x1c
 4490 0476 7700     		.string	"w"
 4491 0478 CC02     		.value	0x2cc
 4492 047a 0A       		.byte	0xa
 4493 047b 26000000 		.long	0x26
 4494 047f 01010000 		.long	.LLST109
 4495 0483 F3000000 		.long	.LVUS109
 4496 0487 0C       		.uleb128 0xc
 4497 0488 20030000 		.long	.LASF58
 4498 048c EF060000 		.long	0x6ef
 4499 0490 1A       		.uleb128 0x1a
 4500 0491 09020000 		.long	.LLRL112
 4501 0495 A8060000 		.long	0x6a8
 4502 0499 20       		.uleb128 0x20
 4503 049a 9D040000 		.long	.LASF51
 4504 049e D302     		.value	0x2d3
 4505 04a0 26000000 		.long	0x26
 4506 04a4 3E010000 		.long	.LLST113
 4507 04a8 36010000 		.long	.LVUS113
 4508 04ac 1A       		.uleb128 0x1a
 4509 04ad 45020000 		.long	.LLRL125
 4510 04b1 AF050000 		.long	0x5af
 4511 04b5 31       		.uleb128 0x31
 4512 04b6 6D736700 		.string	"msg"
 4513 04ba D702     		.value	0x2d7
 4514 04bc F7000000 		.long	0xf7
 4515 04c0 22       		.uleb128 0x22
 4516 04c1 B1160000 		.long	0x16b1
 4517 04c5 4B010000 		.long	.LBI706
 4518 04c9 02       		.byte	.LVU1106
 4519 04ca 4B010000 		.long	.LBB706
 4520 04ce 0A000000 		.long	.LBE706-.LBB706
 4521 04d2 DE02     		.value	0x2de
 4522 04d4 09       		.byte	0x9
 4523 04d5 03050000 		.long	0x503
 4524 04d9 04       		.uleb128 0x4
 4525 04da C1160000 		.long	0x16c1
 4526 04de 4B010000 		.long	.LBI707
 4527 04e2 04       		.byte	.LVU1108
 4528 04e3 4B010000 		.long	.LBB707
 4529 04e7 0A000000 		.long	.LBE707-.LBB707
 4530 04eb 02       		.byte	0x2
 4531 04ec 4A02     		.value	0x24a
 4532 04ee 03       		.byte	0x3
 4533 04ef 23       		.uleb128 0x23
GAS LISTING /tmp/ccNgdVMZ.s 			page 83


 4534 04f0 F4160000 		.long	0x16f4
 4535 04f4 4B010000 		.long	.LBI709
 4536 04f8 0B       		.byte	.LVU1115
 4537 04f9 4B010000 		.long	.LBB709
 4538 04fd 0A000000 		.long	.LBE709-.LBB709
 4539 0501 00       		.byte	0
 4540 0502 00       		.byte	0
 4541 0503 42       		.uleb128 0x42
 4542 0504 C5090000 		.long	0x9c5
 4543 0508 70010000 		.long	.LBB711
 4544 050c 33000000 		.long	.LBE711-.LBB711
 4545 0510 01       		.byte	0x1
 4546 0511 DA02     		.value	0x2da
 4547 0513 0D       		.byte	0xd
 4548 0514 13       		.uleb128 0x13
 4549 0515 E4090000 		.long	0x9e4
 4550 0519 13       		.uleb128 0x13
 4551 051a D7090000 		.long	0x9d7
 4552 051e 32       		.uleb128 0x32
 4553 051f FA090000 		.long	0x9fa
 4554 0523 70010000 		.long	.LBB713
 4555 0527 17000000 		.long	.LBE713-.LBB713
 4556 052b 77050000 		.long	0x577
 4557 052f 14       		.uleb128 0x14
 4558 0530 FB090000 		.long	0x9fb
 4559 0534 66010000 		.long	.LLST126
 4560 0538 64010000 		.long	.LVUS126
 4561 053c 04       		.uleb128 0x4
 4562 053d 6C160000 		.long	0x166c
 4563 0541 76010000 		.long	.LBI714
 4564 0545 01       		.byte	.LVU1126
 4565 0546 76010000 		.long	.LBB714
 4566 054a 0A000000 		.long	.LBE714-.LBB714
 4567 054e 01       		.byte	0x1
 4568 054f 4502     		.value	0x245
 4569 0551 11       		.byte	0x11
 4570 0552 01       		.uleb128 0x1
 4571 0553 8A160000 		.long	0x168a
 4572 0557 71010000 		.long	.LLST127
 4573 055b 6F010000 		.long	.LVUS127
 4574 055f 01       		.uleb128 0x1
 4575 0560 7E160000 		.long	0x167e
 4576 0564 7C010000 		.long	.LLST128
 4577 0568 7A010000 		.long	.LVUS128
 4578 056c 07       		.uleb128 0x7
 4579 056d 80010000 		.long	.LVL160
 4580 0571 85020000 		.long	0x285
 4581 0575 00       		.byte	0
 4582 0576 00       		.byte	0
 4583 0577 04       		.uleb128 0x4
 4584 0578 C5090000 		.long	0x9c5
 4585 057c 94010000 		.long	.LBI716
 4586 0580 01       		.byte	.LVU1136
 4587 0581 8E010000 		.long	.LBB716
 4588 0585 15000000 		.long	.LBE716-.LBB716
 4589 0589 01       		.byte	0x1
 4590 058a 3C02     		.value	0x23c
GAS LISTING /tmp/ccNgdVMZ.s 			page 84


 4591 058c 07       		.byte	0x7
 4592 058d 01       		.uleb128 0x1
 4593 058e E4090000 		.long	0x9e4
 4594 0592 87010000 		.long	.LLST129
 4595 0596 85010000 		.long	.LVUS129
 4596 059a 01       		.uleb128 0x1
 4597 059b D7090000 		.long	0x9d7
 4598 059f 93010000 		.long	.LLST130
 4599 05a3 91010000 		.long	.LVUS130
 4600 05a7 12       		.uleb128 0x12
 4601 05a8 51020000 		.long	.LLRL131
 4602 05ac 00       		.byte	0
 4603 05ad 00       		.byte	0
 4604 05ae 00       		.byte	0
 4605 05af 0A       		.uleb128 0xa
 4606 05b0 04170000 		.long	0x1704
 4607 05b4 30000000 		.long	.LBI683
 4608 05b8 02       		.byte	.LVU993
 4609 05b9 1C020000 		.long	.LLRL114
 4610 05bd ED02     		.value	0x2ed
 4611 05bf 07       		.byte	0x7
 4612 05c0 EC050000 		.long	0x5ec
 4613 05c4 01       		.uleb128 0x1
 4614 05c5 2D170000 		.long	0x172d
 4615 05c9 9E010000 		.long	.LLST115
 4616 05cd 9C010000 		.long	.LVUS115
 4617 05d1 01       		.uleb128 0x1
 4618 05d2 21170000 		.long	0x1721
 4619 05d6 AD010000 		.long	.LLST116
 4620 05da A9010000 		.long	.LVUS116
 4621 05de 01       		.uleb128 0x1
 4622 05df 15170000 		.long	0x1715
 4623 05e3 C1010000 		.long	.LLST117
 4624 05e7 BF010000 		.long	.LVUS117
 4625 05eb 00       		.byte	0
 4626 05ec 0A       		.uleb128 0xa
 4627 05ed B1160000 		.long	0x16b1
 4628 05f1 A2000000 		.long	.LBI687
 4629 05f5 01       		.byte	.LVU1010
 4630 05f6 28020000 		.long	.LLRL118
 4631 05fa FF02     		.value	0x2ff
 4632 05fc 05       		.byte	0x5
 4633 05fd 2B060000 		.long	0x62b
 4634 0601 02       		.uleb128 0x2
 4635 0602 C1160000 		.long	0x16c1
 4636 0606 A2000000 		.long	.LBI688
 4637 060a 03       		.byte	.LVU1012
 4638 060b 28020000 		.long	.LLRL118
 4639 060f 02       		.byte	0x2
 4640 0610 4A02     		.value	0x24a
 4641 0612 03       		.byte	0x3
 4642 0613 0B       		.uleb128 0xb
 4643 0614 28020000 		.long	.LLRL118
 4644 0618 06       		.uleb128 0x6
 4645 0619 F4160000 		.long	0x16f4
 4646 061d A2000000 		.long	.LBI690
 4647 0621 0A       		.byte	.LVU1019
GAS LISTING /tmp/ccNgdVMZ.s 			page 85


 4648 0622 28020000 		.long	.LLRL118
 4649 0626 B201     		.value	0x1b2
 4650 0628 00       		.byte	0
 4651 0629 00       		.byte	0
 4652 062a 00       		.byte	0
 4653 062b 22       		.uleb128 0x22
 4654 062c 04170000 		.long	0x1704
 4655 0630 DA000000 		.long	.LBI696
 4656 0634 01       		.byte	.LVU1040
 4657 0635 DA000000 		.long	.LBB696
 4658 0639 0F000000 		.long	.LBE696-.LBB696
 4659 063d F302     		.value	0x2f3
 4660 063f 07       		.byte	0x7
 4661 0640 75060000 		.long	0x675
 4662 0644 01       		.uleb128 0x1
 4663 0645 2D170000 		.long	0x172d
 4664 0649 CF010000 		.long	.LLST119
 4665 064d CB010000 		.long	.LVUS119
 4666 0651 01       		.uleb128 0x1
 4667 0652 21170000 		.long	0x1721
 4668 0656 E2010000 		.long	.LLST120
 4669 065a E0010000 		.long	.LVUS120
 4670 065e 01       		.uleb128 0x1
 4671 065f 15170000 		.long	0x1715
 4672 0663 ED010000 		.long	.LLST121
 4673 0667 EB010000 		.long	.LVUS121
 4674 066b 07       		.uleb128 0x7
 4675 066c E9000000 		.long	.LVL145
 4676 0670 DF180000 		.long	0x18df
 4677 0674 00       		.byte	0
 4678 0675 02       		.uleb128 0x2
 4679 0676 9E080000 		.long	0x89e
 4680 067a 01010000 		.long	.LBI698
 4681 067e 01       		.byte	.LVU1058
 4682 067f 36020000 		.long	.LLRL122
 4683 0683 01       		.byte	0x1
 4684 0684 FB02     		.value	0x2fb
 4685 0686 07       		.byte	0x7
 4686 0687 01       		.uleb128 0x1
 4687 0688 B7080000 		.long	0x8b7
 4688 068c 01020000 		.long	.LLST123
 4689 0690 F7010000 		.long	.LVUS123
 4690 0694 01       		.uleb128 0x1
 4691 0695 AA080000 		.long	0x8aa
 4692 0699 2C020000 		.long	.LLST124
 4693 069d 2A020000 		.long	.LVUS124
 4694 06a1 12       		.uleb128 0x12
 4695 06a2 36020000 		.long	.LLRL122
 4696 06a6 00       		.byte	0
 4697 06a7 00       		.byte	0
 4698 06a8 02       		.uleb128 0x2
 4699 06a9 B9160000 		.long	0x16b9
 4700 06ad 00000000 		.long	.LBI671
 4701 06b1 06       		.byte	.LVU978
 4702 06b2 EA010000 		.long	.LLRL110
 4703 06b6 01       		.byte	0x1
 4704 06b7 D002     		.value	0x2d0
GAS LISTING /tmp/ccNgdVMZ.s 			page 86


 4705 06b9 03       		.byte	0x3
 4706 06ba 02       		.uleb128 0x2
 4707 06bb EC160000 		.long	0x16ec
 4708 06bf 00000000 		.long	.LBI673
 4709 06c3 08       		.byte	.LVU980
 4710 06c4 FB010000 		.long	.LLRL111
 4711 06c8 02       		.byte	0x2
 4712 06c9 3F02     		.value	0x23f
 4713 06cb 03       		.byte	0x3
 4714 06cc 06       		.uleb128 0x6
 4715 06cd FC160000 		.long	0x16fc
 4716 06d1 00000000 		.long	.LBI674
 4717 06d5 0A       		.byte	.LVU982
 4718 06d6 FB010000 		.long	.LLRL111
 4719 06da 9901     		.value	0x199
 4720 06dc 00       		.byte	0
 4721 06dd 00       		.byte	0
 4722 06de 00       		.byte	0
 4723 06df 15       		.uleb128 0x15
 4724 06e0 53000000 		.long	0x53
 4725 06e4 EF060000 		.long	0x6ef
 4726 06e8 16       		.uleb128 0x16
 4727 06e9 37000000 		.long	0x37
 4728 06ed 0F       		.byte	0xf
 4729 06ee 00       		.byte	0
 4730 06ef 0E       		.uleb128 0xe
 4731 06f0 DF060000 		.long	0x6df
 4732 06f4 21       		.uleb128 0x21
 4733 06f5 2F030000 		.long	.LASF56
 4734 06f9 9902     		.value	0x299
 4735 06fb 07       		.byte	0x7
 4736 06fc F7000000 		.long	0xf7
 4737 0700 00000000 		.long	.LFB329
 4738 0704 DA000000 		.long	.LFE329-.LFB329
 4739 0708 01       		.uleb128 0x1
 4740 0709 9C       		.byte	0x9c
 4741 070a 9E080000 		.long	0x89e
 4742 070e 03       		.uleb128 0x3
 4743 070f 12040000 		.long	.LASF54
 4744 0713 9902     		.value	0x299
 4745 0715 2D       		.byte	0x2d
 4746 0716 CC030000 		.long	0x3cc
 4747 071a 02       		.uleb128 0x2
 4748 071b 91       		.byte	0x91
 4749 071c 00       		.sleb128 0
 4750 071d 1B       		.uleb128 0x1b
 4751 071e 6200     		.string	"b"
 4752 0720 9902     		.value	0x299
 4753 0722 3B       		.byte	0x3b
 4754 0723 CE000000 		.long	0xce
 4755 0727 02       		.uleb128 0x2
 4756 0728 91       		.byte	0x91
 4757 0729 04       		.sleb128 4
 4758 072a 03       		.uleb128 0x3
 4759 072b 65050000 		.long	.LASF55
 4760 072f 9A02     		.value	0x29a
 4761 0731 23       		.byte	0x23
GAS LISTING /tmp/ccNgdVMZ.s 			page 87


 4762 0732 03010000 		.long	0x103
 4763 0736 02       		.uleb128 0x2
 4764 0737 91       		.byte	0x91
 4765 0738 08       		.sleb128 8
 4766 0739 1C       		.uleb128 0x1c
 4767 073a 6D736700 		.string	"msg"
 4768 073e 9B02     		.value	0x29b
 4769 0740 09       		.byte	0x9
 4770 0741 F7000000 		.long	0xf7
 4771 0745 39020000 		.long	.LLST95
 4772 0749 35020000 		.long	.LVUS95
 4773 074d 0A       		.uleb128 0xa
 4774 074e B9160000 		.long	0x16b9
 4775 0752 1A000000 		.long	.LBI599
 4776 0756 02       		.byte	.LVU874
 4777 0757 A5010000 		.long	.LLRL96
 4778 075b 9D02     		.value	0x29d
 4779 075d 03       		.byte	0x3
 4780 075e 86070000 		.long	0x786
 4781 0762 02       		.uleb128 0x2
 4782 0763 EC160000 		.long	0x16ec
 4783 0767 1A000000 		.long	.LBI600
 4784 076b 04       		.byte	.LVU876
 4785 076c A5010000 		.long	.LLRL96
 4786 0770 02       		.byte	0x2
 4787 0771 3F02     		.value	0x23f
 4788 0773 03       		.byte	0x3
 4789 0774 06       		.uleb128 0x6
 4790 0775 FC160000 		.long	0x16fc
 4791 0779 1A000000 		.long	.LBI601
 4792 077d 06       		.byte	.LVU878
 4793 077e A5010000 		.long	.LLRL96
 4794 0782 9901     		.value	0x199
 4795 0784 00       		.byte	0
 4796 0785 00       		.byte	0
 4797 0786 0A       		.uleb128 0xa
 4798 0787 B1160000 		.long	0x16b1
 4799 078b D5000000 		.long	.LBI607
 4800 078f 03       		.byte	.LVU959
 4801 0790 B1010000 		.long	.LLRL97
 4802 0794 A302     		.value	0x2a3
 4803 0796 07       		.byte	0x7
 4804 0797 C5070000 		.long	0x7c5
 4805 079b 02       		.uleb128 0x2
 4806 079c C1160000 		.long	0x16c1
 4807 07a0 D5000000 		.long	.LBI608
 4808 07a4 05       		.byte	.LVU961
 4809 07a5 B1010000 		.long	.LLRL97
 4810 07a9 02       		.byte	0x2
 4811 07aa 4A02     		.value	0x24a
 4812 07ac 03       		.byte	0x3
 4813 07ad 0B       		.uleb128 0xb
 4814 07ae B1010000 		.long	.LLRL97
 4815 07b2 06       		.uleb128 0x6
 4816 07b3 F4160000 		.long	0x16f4
 4817 07b7 D5000000 		.long	.LBI610
 4818 07bb 0C       		.byte	.LVU968
GAS LISTING /tmp/ccNgdVMZ.s 			page 88


 4819 07bc B1010000 		.long	.LLRL97
 4820 07c0 B201     		.value	0x1b2
 4821 07c2 00       		.byte	0
 4822 07c3 00       		.byte	0
 4823 07c4 00       		.byte	0
 4824 07c5 33       		.uleb128 0x33
 4825 07c6 C5090000 		.long	0x9c5
 4826 07ca BF010000 		.long	.LLRL98
 4827 07ce A102     		.value	0x2a1
 4828 07d0 6B080000 		.long	0x86b
 4829 07d4 13       		.uleb128 0x13
 4830 07d5 E4090000 		.long	0x9e4
 4831 07d9 13       		.uleb128 0x13
 4832 07da D7090000 		.long	0x9d7
 4833 07de 0B       		.uleb128 0xb
 4834 07df BF010000 		.long	.LLRL98
 4835 07e3 17       		.uleb128 0x17
 4836 07e4 FA090000 		.long	0x9fa
 4837 07e8 CD010000 		.long	.LLRL99
 4838 07ec 38080000 		.long	0x838
 4839 07f0 14       		.uleb128 0x14
 4840 07f1 FB090000 		.long	0x9fb
 4841 07f5 4E020000 		.long	.LLST100
 4842 07f9 4C020000 		.long	.LVUS100
 4843 07fd 04       		.uleb128 0x4
 4844 07fe 6C160000 		.long	0x166c
 4845 0802 56000000 		.long	.LBI619
 4846 0806 01       		.byte	.LVU900
 4847 0807 56000000 		.long	.LBB619
 4848 080b 0D000000 		.long	.LBE619-.LBB619
 4849 080f 01       		.byte	0x1
 4850 0810 4502     		.value	0x245
 4851 0812 11       		.byte	0x11
 4852 0813 01       		.uleb128 0x1
 4853 0814 8A160000 		.long	0x168a
 4854 0818 59020000 		.long	.LLST101
 4855 081c 57020000 		.long	.LVUS101
 4856 0820 01       		.uleb128 0x1
 4857 0821 7E160000 		.long	0x167e
 4858 0825 65020000 		.long	.LLST102
 4859 0829 63020000 		.long	.LVUS102
 4860 082d 07       		.uleb128 0x7
 4861 082e 63000000 		.long	.LVL117
 4862 0832 85020000 		.long	0x285
 4863 0836 00       		.byte	0
 4864 0837 00       		.byte	0
 4865 0838 04       		.uleb128 0x4
 4866 0839 C5090000 		.long	0x9c5
 4867 083d 71000000 		.long	.LBI621
 4868 0841 00       		.byte	.LVU908
 4869 0842 71000000 		.long	.LBB621
 4870 0846 0F000000 		.long	.LBE621-.LBB621
 4871 084a 01       		.byte	0x1
 4872 084b 3C02     		.value	0x23c
 4873 084d 07       		.byte	0x7
 4874 084e 01       		.uleb128 0x1
 4875 084f E4090000 		.long	0x9e4
GAS LISTING /tmp/ccNgdVMZ.s 			page 89


 4876 0853 70020000 		.long	.LLST103
 4877 0857 6E020000 		.long	.LVUS103
 4878 085b 01       		.uleb128 0x1
 4879 085c D7090000 		.long	0x9d7
 4880 0860 7C020000 		.long	.LLST104
 4881 0864 7A020000 		.long	.LVUS104
 4882 0868 00       		.byte	0
 4883 0869 00       		.byte	0
 4884 086a 00       		.byte	0
 4885 086b 02       		.uleb128 0x2
 4886 086c 9E080000 		.long	0x89e
 4887 0870 88000000 		.long	.LBI625
 4888 0874 01       		.byte	.LVU923
 4889 0875 DB010000 		.long	.LLRL105
 4890 0879 01       		.byte	0x1
 4891 087a AF02     		.value	0x2af
 4892 087c 05       		.byte	0x5
 4893 087d 01       		.uleb128 0x1
 4894 087e B7080000 		.long	0x8b7
 4895 0882 91020000 		.long	.LLST106
 4896 0886 85020000 		.long	.LVUS106
 4897 088a 01       		.uleb128 0x1
 4898 088b AA080000 		.long	0x8aa
 4899 088f C3020000 		.long	.LLST107
 4900 0893 C1020000 		.long	.LVUS107
 4901 0897 12       		.uleb128 0x12
 4902 0898 DB010000 		.long	.LLRL105
 4903 089c 00       		.byte	0
 4904 089d 00       		.byte	0
 4905 089e 34       		.uleb128 0x34
 4906 089f A2030000 		.long	.LASF57
 4907 08a3 6D02     		.value	0x26d
 4908 08a5 06       		.byte	0x6
 4909 08a6 CE080000 		.long	0x8ce
 4910 08aa 18       		.uleb128 0x18
 4911 08ab 12040000 		.long	.LASF54
 4912 08af 01       		.byte	0x1
 4913 08b0 6D02     		.value	0x26d
 4914 08b2 31       		.byte	0x31
 4915 08b3 CC030000 		.long	0x3cc
 4916 08b7 18       		.uleb128 0x18
 4917 08b8 9D040000 		.long	.LASF51
 4918 08bc 01       		.byte	0x1
 4919 08bd 6D02     		.value	0x26d
 4920 08bf 3E       		.byte	0x3e
 4921 08c0 26000000 		.long	0x26
 4922 08c4 0C       		.uleb128 0xc
 4923 08c5 20030000 		.long	.LASF58
 4924 08c9 DE080000 		.long	0x8de
 4925 08cd 00       		.byte	0
 4926 08ce 15       		.uleb128 0x15
 4927 08cf 53000000 		.long	0x53
 4928 08d3 DE080000 		.long	0x8de
 4929 08d7 16       		.uleb128 0x16
 4930 08d8 37000000 		.long	0x37
 4931 08dc 12       		.byte	0x12
 4932 08dd 00       		.byte	0
GAS LISTING /tmp/ccNgdVMZ.s 			page 90


 4933 08de 0E       		.uleb128 0xe
 4934 08df CE080000 		.long	0x8ce
 4935 08e3 2E       		.uleb128 0x2e
 4936 08e4 72050000 		.long	.LASF60
 4937 08e8 5D02     		.value	0x25d
 4938 08ea 00000000 		.long	.LFB327
 4939 08ee 64000000 		.long	.LFE327-.LFB327
 4940 08f2 01       		.uleb128 0x1
 4941 08f3 9C       		.byte	0x9c
 4942 08f4 C5090000 		.long	0x9c5
 4943 08f8 03       		.uleb128 0x3
 4944 08f9 12040000 		.long	.LASF54
 4945 08fd 5D02     		.value	0x25d
 4946 08ff 30       		.byte	0x30
 4947 0900 CC030000 		.long	0x3cc
 4948 0904 02       		.uleb128 0x2
 4949 0905 91       		.byte	0x91
 4950 0906 00       		.sleb128 0
 4951 0907 03       		.uleb128 0x3
 4952 0908 9D040000 		.long	.LASF51
 4953 090c 5D02     		.value	0x25d
 4954 090e 3D       		.byte	0x3d
 4955 090f 26000000 		.long	0x26
 4956 0913 02       		.uleb128 0x2
 4957 0914 91       		.byte	0x91
 4958 0915 04       		.sleb128 4
 4959 0916 0A       		.uleb128 0xa
 4960 0917 B9160000 		.long	0x16b9
 4961 091b 00000000 		.long	.LBI550
 4962 091f 02       		.byte	.LVU779
 4963 0920 87010000 		.long	.LLRL90
 4964 0924 5F02     		.value	0x25f
 4965 0926 03       		.byte	0x3
 4966 0927 4F090000 		.long	0x94f
 4967 092b 02       		.uleb128 0x2
 4968 092c EC160000 		.long	0x16ec
 4969 0930 00000000 		.long	.LBI551
 4970 0934 04       		.byte	.LVU781
 4971 0935 87010000 		.long	.LLRL90
 4972 0939 02       		.byte	0x2
 4973 093a 3F02     		.value	0x23f
 4974 093c 03       		.byte	0x3
 4975 093d 06       		.uleb128 0x6
 4976 093e FC160000 		.long	0x16fc
 4977 0942 00000000 		.long	.LBI552
 4978 0946 06       		.byte	.LVU783
 4979 0947 87010000 		.long	.LLRL90
 4980 094b 9901     		.value	0x199
 4981 094d 00       		.byte	0
 4982 094e 00       		.byte	0
 4983 094f 0A       		.uleb128 0xa
 4984 0950 9E080000 		.long	0x89e
 4985 0954 26000000 		.long	.LBI560
 4986 0958 03       		.byte	.LVU794
 4987 0959 96010000 		.long	.LLRL91
 4988 095d 6002     		.value	0x260
 4989 095f 03       		.byte	0x3
GAS LISTING /tmp/ccNgdVMZ.s 			page 91


 4990 0960 84090000 		.long	0x984
 4991 0964 01       		.uleb128 0x1
 4992 0965 B7080000 		.long	0x8b7
 4993 0969 D0020000 		.long	.LLST92
 4994 096d CC020000 		.long	.LVUS92
 4995 0971 01       		.uleb128 0x1
 4996 0972 AA080000 		.long	0x8aa
 4997 0976 E5020000 		.long	.LLST93
 4998 097a E1020000 		.long	.LVUS93
 4999 097e 12       		.uleb128 0x12
 5000 097f 96010000 		.long	.LLRL91
 5001 0983 00       		.byte	0
 5002 0984 04       		.uleb128 0x4
 5003 0985 B1160000 		.long	0x16b1
 5004 0989 59000000 		.long	.LBI568
 5005 098d 02       		.byte	.LVU824
 5006 098e 59000000 		.long	.LBB568
 5007 0992 06000000 		.long	.LBE568-.LBB568
 5008 0996 01       		.byte	0x1
 5009 0997 6102     		.value	0x261
 5010 0999 03       		.byte	0x3
 5011 099a 04       		.uleb128 0x4
 5012 099b C1160000 		.long	0x16c1
 5013 099f 59000000 		.long	.LBI569
 5014 09a3 04       		.byte	.LVU826
 5015 09a4 59000000 		.long	.LBB569
 5016 09a8 06000000 		.long	.LBE569-.LBB569
 5017 09ac 02       		.byte	0x2
 5018 09ad 4A02     		.value	0x24a
 5019 09af 03       		.byte	0x3
 5020 09b0 23       		.uleb128 0x23
 5021 09b1 F4160000 		.long	0x16f4
 5022 09b5 59000000 		.long	.LBI571
 5023 09b9 0B       		.byte	.LVU833
 5024 09ba 59000000 		.long	.LBB571
 5025 09be 06000000 		.long	.LBE571-.LBB571
 5026 09c2 00       		.byte	0
 5027 09c3 00       		.byte	0
 5028 09c4 00       		.byte	0
 5029 09c5 43       		.uleb128 0x43
 5030 09c6 43020000 		.long	.LASF62
 5031 09ca 01       		.byte	0x1
 5032 09cb 3C02     		.value	0x23c
 5033 09cd 07       		.byte	0x7
 5034 09ce F7000000 		.long	0xf7
 5035 09d2 01       		.byte	0x1
 5036 09d3 0A0A0000 		.long	0xa0a
 5037 09d7 18       		.uleb128 0x18
 5038 09d8 12040000 		.long	.LASF54
 5039 09dc 01       		.byte	0x1
 5040 09dd 3C02     		.value	0x23c
 5041 09df 39       		.byte	0x39
 5042 09e0 CC030000 		.long	0x3cc
 5043 09e4 18       		.uleb128 0x18
 5044 09e5 65050000 		.long	.LASF55
 5045 09e9 01       		.byte	0x1
 5046 09ea 3D02     		.value	0x23d
GAS LISTING /tmp/ccNgdVMZ.s 			page 92


 5047 09ec 2F       		.byte	0x2f
 5048 09ed 03010000 		.long	0x103
 5049 09f1 0C       		.uleb128 0xc
 5050 09f2 20030000 		.long	.LASF58
 5051 09f6 1A0A0000 		.long	0xa1a
 5052 09fa 35       		.uleb128 0x35
 5053 09fb 44       		.uleb128 0x44
 5054 09fc 6D736700 		.string	"msg"
 5055 0a00 01       		.byte	0x1
 5056 0a01 4502     		.value	0x245
 5057 0a03 0B       		.byte	0xb
 5058 0a04 F7000000 		.long	0xf7
 5059 0a08 00       		.byte	0
 5060 0a09 00       		.byte	0
 5061 0a0a 15       		.uleb128 0x15
 5062 0a0b 53000000 		.long	0x53
 5063 0a0f 1A0A0000 		.long	0xa1a
 5064 0a13 16       		.uleb128 0x16
 5065 0a14 37000000 		.long	0x37
 5066 0a18 19       		.byte	0x19
 5067 0a19 00       		.byte	0
 5068 0a1a 0E       		.uleb128 0xe
 5069 0a1b 0A0A0000 		.long	0xa0a
 5070 0a1f 29       		.uleb128 0x29
 5071 0a20 97020000 		.long	.LASF63
 5072 0a24 1D02     		.value	0x21d
 5073 0a26 07       		.byte	0x7
 5074 0a27 F7000000 		.long	0xf7
 5075 0a2b 00000000 		.long	.LFB325
 5076 0a2f 83000000 		.long	.LFE325-.LFB325
 5077 0a33 01       		.uleb128 0x1
 5078 0a34 9C       		.byte	0x9c
 5079 0a35 9D0B0000 		.long	0xb9d
 5080 0a39 03       		.uleb128 0x3
 5081 0a3a 12040000 		.long	.LASF54
 5082 0a3e 1D02     		.value	0x21d
 5083 0a40 38       		.byte	0x38
 5084 0a41 CC030000 		.long	0x3cc
 5085 0a45 02       		.uleb128 0x2
 5086 0a46 91       		.byte	0x91
 5087 0a47 00       		.sleb128 0
 5088 0a48 03       		.uleb128 0x3
 5089 0a49 65050000 		.long	.LASF55
 5090 0a4d 1E02     		.value	0x21e
 5091 0a4f 2E       		.byte	0x2e
 5092 0a50 03010000 		.long	0x103
 5093 0a54 02       		.uleb128 0x2
 5094 0a55 91       		.byte	0x91
 5095 0a56 04       		.sleb128 4
 5096 0a57 1C       		.uleb128 0x1c
 5097 0a58 6D736700 		.string	"msg"
 5098 0a5c 1F02     		.value	0x21f
 5099 0a5e 09       		.byte	0x9
 5100 0a5f F7000000 		.long	0xf7
 5101 0a63 FA020000 		.long	.LLST72
 5102 0a67 F6020000 		.long	.LVUS72
 5103 0a6b 0A       		.uleb128 0xa
GAS LISTING /tmp/ccNgdVMZ.s 			page 93


 5104 0a6c B9160000 		.long	0x16b9
 5105 0a70 16000000 		.long	.LBI489
 5106 0a74 02       		.byte	.LVU670
 5107 0a75 48010000 		.long	.LLRL73
 5108 0a79 2102     		.value	0x221
 5109 0a7b 03       		.byte	0x3
 5110 0a7c A40A0000 		.long	0xaa4
 5111 0a80 02       		.uleb128 0x2
 5112 0a81 EC160000 		.long	0x16ec
 5113 0a85 16000000 		.long	.LBI490
 5114 0a89 04       		.byte	.LVU672
 5115 0a8a 48010000 		.long	.LLRL73
 5116 0a8e 02       		.byte	0x2
 5117 0a8f 3F02     		.value	0x23f
 5118 0a91 03       		.byte	0x3
 5119 0a92 06       		.uleb128 0x6
 5120 0a93 FC160000 		.long	0x16fc
 5121 0a97 16000000 		.long	.LBI491
 5122 0a9b 06       		.byte	.LVU674
 5123 0a9c 48010000 		.long	.LLRL73
 5124 0aa0 9901     		.value	0x199
 5125 0aa2 00       		.byte	0
 5126 0aa3 00       		.byte	0
 5127 0aa4 0A       		.uleb128 0xa
 5128 0aa5 C5090000 		.long	0x9c5
 5129 0aa9 26000000 		.long	.LBI497
 5130 0aad 03       		.byte	.LVU681
 5131 0aae 54010000 		.long	.LLRL74
 5132 0ab2 2202     		.value	0x222
 5133 0ab4 09       		.byte	0x9
 5134 0ab5 600B0000 		.long	0xb60
 5135 0ab9 01       		.uleb128 0x1
 5136 0aba E4090000 		.long	0x9e4
 5137 0abe 0E030000 		.long	.LLST75
 5138 0ac2 0A030000 		.long	.LVUS75
 5139 0ac6 01       		.uleb128 0x1
 5140 0ac7 D7090000 		.long	0x9d7
 5141 0acb 22030000 		.long	.LLST76
 5142 0acf 1E030000 		.long	.LVUS76
 5143 0ad3 0B       		.uleb128 0xb
 5144 0ad4 54010000 		.long	.LLRL74
 5145 0ad8 17       		.uleb128 0x17
 5146 0ad9 FA090000 		.long	0x9fa
 5147 0add 60010000 		.long	.LLRL77
 5148 0ae1 2D0B0000 		.long	0xb2d
 5149 0ae5 14       		.uleb128 0x14
 5150 0ae6 FB090000 		.long	0x9fb
 5151 0aea 34030000 		.long	.LLST78
 5152 0aee 32030000 		.long	.LVUS78
 5153 0af2 04       		.uleb128 0x4
 5154 0af3 6C160000 		.long	0x166c
 5155 0af7 36000000 		.long	.LBI500
 5156 0afb 01       		.byte	.LVU688
 5157 0afc 36000000 		.long	.LBB500
 5158 0b00 0A000000 		.long	.LBE500-.LBB500
 5159 0b04 01       		.byte	0x1
 5160 0b05 4502     		.value	0x245
GAS LISTING /tmp/ccNgdVMZ.s 			page 94


 5161 0b07 11       		.byte	0x11
 5162 0b08 01       		.uleb128 0x1
 5163 0b09 8A160000 		.long	0x168a
 5164 0b0d 3F030000 		.long	.LLST79
 5165 0b11 3D030000 		.long	.LVUS79
 5166 0b15 01       		.uleb128 0x1
 5167 0b16 7E160000 		.long	0x167e
 5168 0b1a 4A030000 		.long	.LLST80
 5169 0b1e 48030000 		.long	.LVUS80
 5170 0b22 07       		.uleb128 0x7
 5171 0b23 40000000 		.long	.LVL94
 5172 0b27 85020000 		.long	0x285
 5173 0b2b 00       		.byte	0
 5174 0b2c 00       		.byte	0
 5175 0b2d 04       		.uleb128 0x4
 5176 0b2e C5090000 		.long	0x9c5
 5177 0b32 4E000000 		.long	.LBI502
 5178 0b36 00       		.byte	.LVU696
 5179 0b37 4E000000 		.long	.LBB502
 5180 0b3b 11000000 		.long	.LBE502-.LBB502
 5181 0b3f 01       		.byte	0x1
 5182 0b40 3C02     		.value	0x23c
 5183 0b42 07       		.byte	0x7
 5184 0b43 01       		.uleb128 0x1
 5185 0b44 E4090000 		.long	0x9e4
 5186 0b48 55030000 		.long	.LLST81
 5187 0b4c 53030000 		.long	.LVUS81
 5188 0b50 01       		.uleb128 0x1
 5189 0b51 D7090000 		.long	0x9d7
 5190 0b55 60030000 		.long	.LLST82
 5191 0b59 5E030000 		.long	.LVUS82
 5192 0b5d 00       		.byte	0
 5193 0b5e 00       		.byte	0
 5194 0b5f 00       		.byte	0
 5195 0b60 02       		.uleb128 0x2
 5196 0b61 B1160000 		.long	0x16b1
 5197 0b65 5F000000 		.long	.LBI506
 5198 0b69 02       		.byte	.LVU711
 5199 0b6a 6C010000 		.long	.LLRL83
 5200 0b6e 01       		.byte	0x1
 5201 0b6f 2302     		.value	0x223
 5202 0b71 03       		.byte	0x3
 5203 0b72 02       		.uleb128 0x2
 5204 0b73 C1160000 		.long	0x16c1
 5205 0b77 5F000000 		.long	.LBI507
 5206 0b7b 04       		.byte	.LVU713
 5207 0b7c 6C010000 		.long	.LLRL83
 5208 0b80 02       		.byte	0x2
 5209 0b81 4A02     		.value	0x24a
 5210 0b83 03       		.byte	0x3
 5211 0b84 0B       		.uleb128 0xb
 5212 0b85 6C010000 		.long	.LLRL83
 5213 0b89 06       		.uleb128 0x6
 5214 0b8a F4160000 		.long	0x16f4
 5215 0b8e 5F000000 		.long	.LBI509
 5216 0b92 0B       		.byte	.LVU720
 5217 0b93 6C010000 		.long	.LLRL83
GAS LISTING /tmp/ccNgdVMZ.s 			page 95


 5218 0b97 B201     		.value	0x1b2
 5219 0b99 00       		.byte	0
 5220 0b9a 00       		.byte	0
 5221 0b9b 00       		.byte	0
 5222 0b9c 00       		.byte	0
 5223 0b9d 2A       		.uleb128 0x2a
 5224 0b9e DE040000 		.long	.LASF64
 5225 0ba2 F901     		.value	0x1f9
 5226 0ba4 00000000 		.long	.LFB324
 5227 0ba8 40000000 		.long	.LFE324-.LFB324
 5228 0bac 01       		.uleb128 0x1
 5229 0bad 9C       		.byte	0x9c
 5230 0bae 050C0000 		.long	0xc05
 5231 0bb2 03       		.uleb128 0x3
 5232 0bb3 12040000 		.long	.LASF54
 5233 0bb7 F901     		.value	0x1f9
 5234 0bb9 35       		.byte	0x35
 5235 0bba CC030000 		.long	0x3cc
 5236 0bbe 02       		.uleb128 0x2
 5237 0bbf 91       		.byte	0x91
 5238 0bc0 00       		.sleb128 0
 5239 0bc1 0C       		.uleb128 0xc
 5240 0bc2 20030000 		.long	.LASF58
 5241 0bc6 150C0000 		.long	0xc15
 5242 0bca 04       		.uleb128 0x4
 5243 0bcb 47160000 		.long	0x1647
 5244 0bcf 30000000 		.long	.LBI468
 5245 0bd3 01       		.byte	.LVU661
 5246 0bd4 30000000 		.long	.LBB468
 5247 0bd8 0B000000 		.long	.LBE468-.LBB468
 5248 0bdc 01       		.byte	0x1
 5249 0bdd 0602     		.value	0x206
 5250 0bdf 03       		.byte	0x3
 5251 0be0 01       		.uleb128 0x1
 5252 0be1 5F160000 		.long	0x165f
 5253 0be5 6B030000 		.long	.LLST70
 5254 0be9 69030000 		.long	.LVUS70
 5255 0bed 01       		.uleb128 0x1
 5256 0bee 53160000 		.long	0x1653
 5257 0bf2 79030000 		.long	.LLST71
 5258 0bf6 75030000 		.long	.LVUS71
 5259 0bfa 07       		.uleb128 0x7
 5260 0bfb 3B000000 		.long	.LVL90
 5261 0bff A6020000 		.long	0x2a6
 5262 0c03 00       		.byte	0
 5263 0c04 00       		.byte	0
 5264 0c05 15       		.uleb128 0x15
 5265 0c06 53000000 		.long	0x53
 5266 0c0a 150C0000 		.long	0xc15
 5267 0c0e 16       		.uleb128 0x16
 5268 0c0f 37000000 		.long	0x37
 5269 0c13 16       		.byte	0x16
 5270 0c14 00       		.byte	0
 5271 0c15 0E       		.uleb128 0xe
 5272 0c16 050C0000 		.long	0xc05
 5273 0c1a 29       		.uleb128 0x29
 5274 0c1b 1A000000 		.long	.LASF65
GAS LISTING /tmp/ccNgdVMZ.s 			page 96


 5275 0c1f E201     		.value	0x1e2
 5276 0c21 0A       		.byte	0xa
 5277 0c22 48010000 		.long	0x148
 5278 0c26 00000000 		.long	.LFB323
 5279 0c2a 32000000 		.long	.LFE323-.LFB323
 5280 0c2e 01       		.uleb128 0x1
 5281 0c2f 9C       		.byte	0x9c
 5282 0c30 580C0000 		.long	0xc58
 5283 0c34 2F       		.uleb128 0x2f
 5284 0c35 12040000 		.long	.LASF54
 5285 0c39 E201     		.value	0x1e2
 5286 0c3b 34       		.byte	0x34
 5287 0c3c CC030000 		.long	0x3cc
 5288 0c40 90030000 		.long	.LLST69
 5289 0c44 8A030000 		.long	.LVUS69
 5290 0c48 03       		.uleb128 0x3
 5291 0c49 91020000 		.long	.LASF66
 5292 0c4d E301     		.value	0x1e3
 5293 0c4f 24       		.byte	0x24
 5294 0c50 580C0000 		.long	0xc58
 5295 0c54 02       		.uleb128 0x2
 5296 0c55 91       		.byte	0x91
 5297 0c56 04       		.sleb128 4
 5298 0c57 00       		.byte	0
 5299 0c58 0F       		.uleb128 0xf
 5300 0c59 26000000 		.long	0x26
 5301 0c5d 2A       		.uleb128 0x2a
 5302 0c5e C1040000 		.long	.LASF67
 5303 0c62 CB01     		.value	0x1cb
 5304 0c64 00000000 		.long	.LFB322
 5305 0c68 3D000000 		.long	.LFE322-.LFB322
 5306 0c6c 01       		.uleb128 0x1
 5307 0c6d 9C       		.byte	0x9c
 5308 0c6e BC0C0000 		.long	0xcbc
 5309 0c72 03       		.uleb128 0x3
 5310 0c73 12040000 		.long	.LASF54
 5311 0c77 CB01     		.value	0x1cb
 5312 0c79 28       		.byte	0x28
 5313 0c7a CC030000 		.long	0x3cc
 5314 0c7e 02       		.uleb128 0x2
 5315 0c7f 91       		.byte	0x91
 5316 0c80 00       		.sleb128 0
 5317 0c81 04       		.uleb128 0x4
 5318 0c82 22160000 		.long	0x1622
 5319 0c86 30000000 		.long	.LBI466
 5320 0c8a 03       		.byte	.LVU625
 5321 0c8b 30000000 		.long	.LBB466
 5322 0c8f 08000000 		.long	.LBE466-.LBB466
 5323 0c93 01       		.byte	0x1
 5324 0c94 D401     		.value	0x1d4
 5325 0c96 03       		.byte	0x3
 5326 0c97 01       		.uleb128 0x1
 5327 0c98 3A160000 		.long	0x163a
 5328 0c9c A9030000 		.long	.LLST67
 5329 0ca0 A7030000 		.long	.LVUS67
 5330 0ca4 01       		.uleb128 0x1
 5331 0ca5 2E160000 		.long	0x162e
GAS LISTING /tmp/ccNgdVMZ.s 			page 97


 5332 0ca9 B8030000 		.long	.LLST68
 5333 0cad B4030000 		.long	.LVUS68
 5334 0cb1 07       		.uleb128 0x7
 5335 0cb2 38000000 		.long	.LVL84
 5336 0cb6 BC020000 		.long	0x2bc
 5337 0cba 00       		.byte	0
 5338 0cbb 00       		.byte	0
 5339 0cbc 2A       		.uleb128 0x2a
 5340 0cbd 5D020000 		.long	.LASF68
 5341 0cc1 AC01     		.value	0x1ac
 5342 0cc3 00000000 		.long	.LFB321
 5343 0cc7 7A000000 		.long	.LFE321-.LFB321
 5344 0ccb 01       		.uleb128 0x1
 5345 0ccc 9C       		.byte	0x9c
 5346 0ccd 6A0D0000 		.long	0xd6a
 5347 0cd1 03       		.uleb128 0x3
 5348 0cd2 12040000 		.long	.LASF54
 5349 0cd6 AC01     		.value	0x1ac
 5350 0cd8 2C       		.byte	0x2c
 5351 0cd9 CC030000 		.long	0x3cc
 5352 0cdd 02       		.uleb128 0x2
 5353 0cde 91       		.byte	0x91
 5354 0cdf 00       		.sleb128 0
 5355 0ce0 03       		.uleb128 0x3
 5356 0ce1 B5030000 		.long	.LASF35
 5357 0ce5 AC01     		.value	0x1ac
 5358 0ce7 37       		.byte	0x37
 5359 0ce8 4D010000 		.long	0x14d
 5360 0cec 02       		.uleb128 0x2
 5361 0ced 91       		.byte	0x91
 5362 0cee 04       		.sleb128 4
 5363 0cef 1B       		.uleb128 0x1b
 5364 0cf0 627000   		.string	"bp"
 5365 0cf3 AC01     		.value	0x1ac
 5366 0cf5 4B       		.byte	0x4b
 5367 0cf6 48010000 		.long	0x148
 5368 0cfa 02       		.uleb128 0x2
 5369 0cfb 91       		.byte	0x91
 5370 0cfc 08       		.sleb128 8
 5371 0cfd 03       		.uleb128 0x3
 5372 0cfe 9D040000 		.long	.LASF51
 5373 0d02 AD01     		.value	0x1ad
 5374 0d04 1B       		.byte	0x1b
 5375 0d05 26000000 		.long	0x26
 5376 0d09 02       		.uleb128 0x2
 5377 0d0a 91       		.byte	0x91
 5378 0d0b 0C       		.sleb128 12
 5379 0d0c 1B       		.uleb128 0x1b
 5380 0d0d 6E00     		.string	"n"
 5381 0d0f AD01     		.value	0x1ad
 5382 0d11 28       		.byte	0x28
 5383 0d12 26000000 		.long	0x26
 5384 0d16 02       		.uleb128 0x2
 5385 0d17 91       		.byte	0x91
 5386 0d18 10       		.sleb128 16
 5387 0d19 03       		.uleb128 0x3
 5388 0d1a BA020000 		.long	.LASF69
GAS LISTING /tmp/ccNgdVMZ.s 			page 98


 5389 0d1e AD01     		.value	0x1ad
 5390 0d20 36       		.byte	0x36
 5391 0d21 4C020000 		.long	0x24c
 5392 0d25 02       		.uleb128 0x2
 5393 0d26 91       		.byte	0x91
 5394 0d27 14       		.sleb128 20
 5395 0d28 03       		.uleb128 0x3
 5396 0d29 36010000 		.long	.LASF43
 5397 0d2d AD01     		.value	0x1ad
 5398 0d2f 42       		.byte	0x42
 5399 0d30 BB000000 		.long	0xbb
 5400 0d34 02       		.uleb128 0x2
 5401 0d35 91       		.byte	0x91
 5402 0d36 18       		.sleb128 24
 5403 0d37 0C       		.uleb128 0xc
 5404 0d38 20030000 		.long	.LASF58
 5405 0d3c 7A0D0000 		.long	0xd7a
 5406 0d40 02       		.uleb128 0x2
 5407 0d41 98160000 		.long	0x1698
 5408 0d45 16000000 		.long	.LBI462
 5409 0d49 00       		.byte	.LVU570
 5410 0d4a 3C010000 		.long	.LLRL65
 5411 0d4e 01       		.byte	0x1
 5412 0d4f B101     		.value	0x1b1
 5413 0d51 03       		.byte	0x3
 5414 0d52 01       		.uleb128 0x1
 5415 0d53 A4160000 		.long	0x16a4
 5416 0d57 CB030000 		.long	.LLST66
 5417 0d5b C9030000 		.long	.LVUS66
 5418 0d5f 07       		.uleb128 0x7
 5419 0d60 2C000000 		.long	.LVL81
 5420 0d64 D2020000 		.long	0x2d2
 5421 0d68 00       		.byte	0
 5422 0d69 00       		.byte	0
 5423 0d6a 15       		.uleb128 0x15
 5424 0d6b 53000000 		.long	0x53
 5425 0d6f 7A0D0000 		.long	0xd7a
 5426 0d73 16       		.uleb128 0x16
 5427 0d74 37000000 		.long	0x37
 5428 0d78 0D       		.byte	0xd
 5429 0d79 00       		.byte	0
 5430 0d7a 0E       		.uleb128 0xe
 5431 0d7b 6A0D0000 		.long	0xd6a
 5432 0d7f 21       		.uleb128 0x21
 5433 0d80 33050000 		.long	.LASF70
 5434 0d84 6201     		.value	0x162
 5435 0d86 08       		.byte	0x8
 5436 0d87 26000000 		.long	0x26
 5437 0d8b 00000000 		.long	.LFB320
 5438 0d8f AB010000 		.long	.LFE320-.LFB320
 5439 0d93 01       		.uleb128 0x1
 5440 0d94 9C       		.byte	0x9c
 5441 0d95 2D100000 		.long	0x102d
 5442 0d99 03       		.uleb128 0x3
 5443 0d9a 90000000 		.long	.LASF71
 5444 0d9e 6201     		.value	0x162
 5445 0da0 2E       		.byte	0x2e
GAS LISTING /tmp/ccNgdVMZ.s 			page 99


 5446 0da1 2D100000 		.long	0x102d
 5447 0da5 02       		.uleb128 0x2
 5448 0da6 91       		.byte	0x91
 5449 0da7 00       		.sleb128 0
 5450 0da8 30       		.uleb128 0x30
 5451 0da9 627000   		.string	"bp"
 5452 0dac 6201     		.value	0x162
 5453 0dae 3D       		.byte	0x3d
 5454 0daf 48010000 		.long	0x148
 5455 0db3 E0030000 		.long	.LLST41
 5456 0db7 D4030000 		.long	.LVUS41
 5457 0dbb 1B       		.uleb128 0x1b
 5458 0dbc 6E00     		.string	"n"
 5459 0dbe 6301     		.value	0x163
 5460 0dc0 1E       		.byte	0x1e
 5461 0dc1 26000000 		.long	0x26
 5462 0dc5 02       		.uleb128 0x2
 5463 0dc6 91       		.byte	0x91
 5464 0dc7 08       		.sleb128 8
 5465 0dc8 03       		.uleb128 0x3
 5466 0dc9 65050000 		.long	.LASF55
 5467 0dcd 6301     		.value	0x163
 5468 0dcf 2F       		.byte	0x2f
 5469 0dd0 03010000 		.long	0x103
 5470 0dd4 02       		.uleb128 0x2
 5471 0dd5 91       		.byte	0x91
 5472 0dd6 0C       		.sleb128 12
 5473 0dd7 1C       		.uleb128 0x1c
 5474 0dd8 7200     		.string	"r"
 5475 0dda 6401     		.value	0x164
 5476 0ddc 0A       		.byte	0xa
 5477 0ddd 26000000 		.long	0x26
 5478 0de1 1E040000 		.long	.LLST42
 5479 0de5 10040000 		.long	.LVUS42
 5480 0de9 0C       		.uleb128 0xc
 5481 0dea 20030000 		.long	.LASF58
 5482 0dee 42100000 		.long	0x1042
 5483 0df2 1A       		.uleb128 0x1a
 5484 0df3 DC000000 		.long	.LLRL45
 5485 0df7 F60F0000 		.long	0xff6
 5486 0dfb 20       		.uleb128 0x20
 5487 0dfc 9D040000 		.long	.LASF51
 5488 0e00 6B01     		.value	0x16b
 5489 0e02 26000000 		.long	0x26
 5490 0e06 5B040000 		.long	.LLST46
 5491 0e0a 53040000 		.long	.LVUS46
 5492 0e0e 1A       		.uleb128 0x1a
 5493 0e0f 09010000 		.long	.LLRL56
 5494 0e13 0B0F0000 		.long	0xf0b
 5495 0e17 31       		.uleb128 0x31
 5496 0e18 6D736700 		.string	"msg"
 5497 0e1c 6F01     		.value	0x16f
 5498 0e1e F7000000 		.long	0xf7
 5499 0e22 22       		.uleb128 0x22
 5500 0e23 B1160000 		.long	0x16b1
 5501 0e27 44010000 		.long	.LBI441
 5502 0e2b 02       		.byte	.LVU517
GAS LISTING /tmp/ccNgdVMZ.s 			page 100


 5503 0e2c 44010000 		.long	.LBB441
 5504 0e30 0A000000 		.long	.LBE441-.LBB441
 5505 0e34 7601     		.value	0x176
 5506 0e36 09       		.byte	0x9
 5507 0e37 650E0000 		.long	0xe65
 5508 0e3b 04       		.uleb128 0x4
 5509 0e3c C1160000 		.long	0x16c1
 5510 0e40 44010000 		.long	.LBI442
 5511 0e44 04       		.byte	.LVU519
 5512 0e45 44010000 		.long	.LBB442
 5513 0e49 0A000000 		.long	.LBE442-.LBB442
 5514 0e4d 02       		.byte	0x2
 5515 0e4e 4A02     		.value	0x24a
 5516 0e50 03       		.byte	0x3
 5517 0e51 23       		.uleb128 0x23
 5518 0e52 F4160000 		.long	0x16f4
 5519 0e56 44010000 		.long	.LBI444
 5520 0e5a 0B       		.byte	.LVU526
 5521 0e5b 44010000 		.long	.LBB444
 5522 0e5f 0A000000 		.long	.LBE444-.LBB444
 5523 0e63 00       		.byte	0
 5524 0e64 00       		.byte	0
 5525 0e65 45       		.uleb128 0x45
 5526 0e66 BA120000 		.long	0x12ba
 5527 0e6a 15010000 		.long	.LLRL57
 5528 0e6e 01       		.byte	0x1
 5529 0e6f 7201     		.value	0x172
 5530 0e71 0D       		.byte	0xd
 5531 0e72 13       		.uleb128 0x13
 5532 0e73 D7120000 		.long	0x12d7
 5533 0e77 13       		.uleb128 0x13
 5534 0e78 CB120000 		.long	0x12cb
 5535 0e7c 0B       		.uleb128 0xb
 5536 0e7d 15010000 		.long	.LLRL57
 5537 0e81 32       		.uleb128 0x32
 5538 0e82 EC120000 		.long	0x12ec
 5539 0e86 70010000 		.long	.LBB448
 5540 0e8a 17000000 		.long	.LBE448-.LBB448
 5541 0e8e D80E0000 		.long	0xed8
 5542 0e92 14       		.uleb128 0x14
 5543 0e93 ED120000 		.long	0x12ed
 5544 0e97 83040000 		.long	.LLST58
 5545 0e9b 81040000 		.long	.LVUS58
 5546 0e9f 10       		.uleb128 0x10
 5547 0ea0 6C160000 		.long	0x166c
 5548 0ea4 76010000 		.long	.LBI449
 5549 0ea8 01       		.byte	.LVU537
 5550 0ea9 76010000 		.long	.LBB449
 5551 0ead 0A000000 		.long	.LBE449-.LBB449
 5552 0eb1 E5       		.byte	0xe5
 5553 0eb2 11       		.byte	0x11
 5554 0eb3 01       		.uleb128 0x1
 5555 0eb4 8A160000 		.long	0x168a
 5556 0eb8 8E040000 		.long	.LLST59
 5557 0ebc 8C040000 		.long	.LVUS59
 5558 0ec0 01       		.uleb128 0x1
 5559 0ec1 7E160000 		.long	0x167e
GAS LISTING /tmp/ccNgdVMZ.s 			page 101


 5560 0ec5 99040000 		.long	.LLST60
 5561 0ec9 97040000 		.long	.LVUS60
 5562 0ecd 07       		.uleb128 0x7
 5563 0ece 80010000 		.long	.LVL75
 5564 0ed2 85020000 		.long	0x285
 5565 0ed6 00       		.byte	0
 5566 0ed7 00       		.byte	0
 5567 0ed8 2B       		.uleb128 0x2b
 5568 0ed9 BA120000 		.long	0x12ba
 5569 0edd 94010000 		.long	.LBI451
 5570 0ee1 01       		.byte	.LVU547
 5571 0ee2 21010000 		.long	.LLRL61
 5572 0ee6 DC       		.byte	0xdc
 5573 0ee7 09       		.byte	0x9
 5574 0ee8 01       		.uleb128 0x1
 5575 0ee9 D7120000 		.long	0x12d7
 5576 0eed A4040000 		.long	.LLST62
 5577 0ef1 A2040000 		.long	.LVUS62
 5578 0ef5 01       		.uleb128 0x1
 5579 0ef6 CB120000 		.long	0x12cb
 5580 0efa B0040000 		.long	.LLST63
 5581 0efe AE040000 		.long	.LVUS63
 5582 0f02 12       		.uleb128 0x12
 5583 0f03 2D010000 		.long	.LLRL64
 5584 0f07 00       		.byte	0
 5585 0f08 00       		.byte	0
 5586 0f09 00       		.byte	0
 5587 0f0a 00       		.byte	0
 5588 0f0b 0A       		.uleb128 0xa
 5589 0f0c 04170000 		.long	0x1704
 5590 0f10 30000000 		.long	.LBI422
 5591 0f14 02       		.byte	.LVU415
 5592 0f15 EF000000 		.long	.LLRL47
 5593 0f19 8501     		.value	0x185
 5594 0f1b 07       		.byte	0x7
 5595 0f1c 480F0000 		.long	0xf48
 5596 0f20 01       		.uleb128 0x1
 5597 0f21 2D170000 		.long	0x172d
 5598 0f25 BB040000 		.long	.LLST48
 5599 0f29 B9040000 		.long	.LVUS48
 5600 0f2d 01       		.uleb128 0x1
 5601 0f2e 21170000 		.long	0x1721
 5602 0f32 C8040000 		.long	.LLST49
 5603 0f36 C6040000 		.long	.LVUS49
 5604 0f3a 01       		.uleb128 0x1
 5605 0f3b 15170000 		.long	0x1715
 5606 0f3f D6040000 		.long	.LLST50
 5607 0f43 D2040000 		.long	.LVUS50
 5608 0f47 00       		.byte	0
 5609 0f48 0A       		.uleb128 0xa
 5610 0f49 B1160000 		.long	0x16b1
 5611 0f4d A3000000 		.long	.LBI426
 5612 0f51 01       		.byte	.LVU432
 5613 0f52 FB000000 		.long	.LLRL51
 5614 0f56 9701     		.value	0x197
 5615 0f58 05       		.byte	0x5
 5616 0f59 870F0000 		.long	0xf87
GAS LISTING /tmp/ccNgdVMZ.s 			page 102


 5617 0f5d 02       		.uleb128 0x2
 5618 0f5e C1160000 		.long	0x16c1
 5619 0f62 A3000000 		.long	.LBI427
 5620 0f66 03       		.byte	.LVU434
 5621 0f67 FB000000 		.long	.LLRL51
 5622 0f6b 02       		.byte	0x2
 5623 0f6c 4A02     		.value	0x24a
 5624 0f6e 03       		.byte	0x3
 5625 0f6f 0B       		.uleb128 0xb
 5626 0f70 FB000000 		.long	.LLRL51
 5627 0f74 06       		.uleb128 0x6
 5628 0f75 F4160000 		.long	0x16f4
 5629 0f79 A3000000 		.long	.LBI429
 5630 0f7d 0A       		.byte	.LVU441
 5631 0f7e FB000000 		.long	.LLRL51
 5632 0f82 B201     		.value	0x1b2
 5633 0f84 00       		.byte	0
 5634 0f85 00       		.byte	0
 5635 0f86 00       		.byte	0
 5636 0f87 22       		.uleb128 0x22
 5637 0f88 04170000 		.long	0x1704
 5638 0f8c DB000000 		.long	.LBI435
 5639 0f90 01       		.byte	.LVU462
 5640 0f91 DB000000 		.long	.LBB435
 5641 0f95 0F000000 		.long	.LBE435-.LBB435
 5642 0f99 8B01     		.value	0x18b
 5643 0f9b 07       		.byte	0x7
 5644 0f9c D10F0000 		.long	0xfd1
 5645 0fa0 01       		.uleb128 0x1
 5646 0fa1 2D170000 		.long	0x172d
 5647 0fa5 EC040000 		.long	.LLST52
 5648 0fa9 E8040000 		.long	.LVUS52
 5649 0fad 01       		.uleb128 0x1
 5650 0fae 21170000 		.long	0x1721
 5651 0fb2 FF040000 		.long	.LLST53
 5652 0fb6 FD040000 		.long	.LVUS53
 5653 0fba 01       		.uleb128 0x1
 5654 0fbb 15170000 		.long	0x1715
 5655 0fbf 0B050000 		.long	.LLST54
 5656 0fc3 09050000 		.long	.LVUS54
 5657 0fc7 07       		.uleb128 0x7
 5658 0fc8 EA000000 		.long	.LVL64
 5659 0fcc DF180000 		.long	0x18df
 5660 0fd0 00       		.byte	0
 5661 0fd1 04       		.uleb128 0x4
 5662 0fd2 D3110000 		.long	0x11d3
 5663 0fd6 02010000 		.long	.LBI437
 5664 0fda 01       		.byte	.LVU480
 5665 0fdb 02010000 		.long	.LBB437
 5666 0fdf 38000000 		.long	.LBE437-.LBB437
 5667 0fe3 01       		.byte	0x1
 5668 0fe4 9301     		.value	0x193
 5669 0fe6 07       		.byte	0x7
 5670 0fe7 01       		.uleb128 0x1
 5671 0fe8 DF110000 		.long	0x11df
 5672 0fec 16050000 		.long	.LLST55
 5673 0ff0 14050000 		.long	.LVUS55
GAS LISTING /tmp/ccNgdVMZ.s 			page 103


 5674 0ff4 00       		.byte	0
 5675 0ff5 00       		.byte	0
 5676 0ff6 02       		.uleb128 0x2
 5677 0ff7 B9160000 		.long	0x16b9
 5678 0ffb 00000000 		.long	.LBI410
 5679 0fff 06       		.byte	.LVU400
 5680 1000 BD000000 		.long	.LLRL43
 5681 1004 01       		.byte	0x1
 5682 1005 6801     		.value	0x168
 5683 1007 03       		.byte	0x3
 5684 1008 02       		.uleb128 0x2
 5685 1009 EC160000 		.long	0x16ec
 5686 100d 00000000 		.long	.LBI412
 5687 1011 08       		.byte	.LVU402
 5688 1012 CE000000 		.long	.LLRL44
 5689 1016 02       		.byte	0x2
 5690 1017 3F02     		.value	0x23f
 5691 1019 03       		.byte	0x3
 5692 101a 06       		.uleb128 0x6
 5693 101b FC160000 		.long	0x16fc
 5694 101f 00000000 		.long	.LBI413
 5695 1023 0A       		.byte	.LVU404
 5696 1024 CE000000 		.long	.LLRL44
 5697 1028 9901     		.value	0x199
 5698 102a 00       		.byte	0
 5699 102b 00       		.byte	0
 5700 102c 00       		.byte	0
 5701 102d 0F       		.uleb128 0xf
 5702 102e 6D020000 		.long	0x26d
 5703 1032 15       		.uleb128 0x15
 5704 1033 53000000 		.long	0x53
 5705 1037 42100000 		.long	0x1042
 5706 103b 16       		.uleb128 0x16
 5707 103c 37000000 		.long	0x37
 5708 1040 0E       		.byte	0xe
 5709 1041 00       		.byte	0
 5710 1042 0E       		.uleb128 0xe
 5711 1043 32100000 		.long	0x1032
 5712 1047 21       		.uleb128 0x21
 5713 1048 2C040000 		.long	.LASF72
 5714 104c 3201     		.value	0x132
 5715 104e 07       		.byte	0x7
 5716 104f F7000000 		.long	0xf7
 5717 1053 00000000 		.long	.LFB319
 5718 1057 DA000000 		.long	.LFE319-.LFB319
 5719 105b 01       		.uleb128 0x1
 5720 105c 9C       		.byte	0x9c
 5721 105d D3110000 		.long	0x11d3
 5722 1061 03       		.uleb128 0x3
 5723 1062 90000000 		.long	.LASF71
 5724 1066 3201     		.value	0x132
 5725 1068 2C       		.byte	0x2c
 5726 1069 2D100000 		.long	0x102d
 5727 106d 02       		.uleb128 0x2
 5728 106e 91       		.byte	0x91
 5729 106f 00       		.sleb128 0
 5730 1070 03       		.uleb128 0x3
GAS LISTING /tmp/ccNgdVMZ.s 			page 104


 5731 1071 65050000 		.long	.LASF55
 5732 1075 3201     		.value	0x132
 5733 1077 40       		.byte	0x40
 5734 1078 03010000 		.long	0x103
 5735 107c 02       		.uleb128 0x2
 5736 107d 91       		.byte	0x91
 5737 107e 04       		.sleb128 4
 5738 107f 1C       		.uleb128 0x1c
 5739 1080 6D736700 		.string	"msg"
 5740 1084 3301     		.value	0x133
 5741 1086 09       		.byte	0x9
 5742 1087 F7000000 		.long	0xf7
 5743 108b 2B050000 		.long	.LLST29
 5744 108f 1F050000 		.long	.LVUS29
 5745 1093 0A       		.uleb128 0xa
 5746 1094 B9160000 		.long	0x16b9
 5747 1098 16000000 		.long	.LBI331
 5748 109c 02       		.byte	.LVU299
 5749 109d 72000000 		.long	.LLRL30
 5750 10a1 3501     		.value	0x135
 5751 10a3 03       		.byte	0x3
 5752 10a4 CC100000 		.long	0x10cc
 5753 10a8 02       		.uleb128 0x2
 5754 10a9 EC160000 		.long	0x16ec
 5755 10ad 16000000 		.long	.LBI332
 5756 10b1 04       		.byte	.LVU301
 5757 10b2 72000000 		.long	.LLRL30
 5758 10b6 02       		.byte	0x2
 5759 10b7 3F02     		.value	0x23f
 5760 10b9 03       		.byte	0x3
 5761 10ba 06       		.uleb128 0x6
 5762 10bb FC160000 		.long	0x16fc
 5763 10bf 16000000 		.long	.LBI333
 5764 10c3 06       		.byte	.LVU303
 5765 10c4 72000000 		.long	.LLRL30
 5766 10c8 9901     		.value	0x199
 5767 10ca 00       		.byte	0
 5768 10cb 00       		.byte	0
 5769 10cc 0A       		.uleb128 0xa
 5770 10cd B1160000 		.long	0x16b1
 5771 10d1 D5000000 		.long	.LBI339
 5772 10d5 03       		.byte	.LVU381
 5773 10d6 7E000000 		.long	.LLRL31
 5774 10da 3B01     		.value	0x13b
 5775 10dc 07       		.byte	0x7
 5776 10dd 0B110000 		.long	0x110b
 5777 10e1 02       		.uleb128 0x2
 5778 10e2 C1160000 		.long	0x16c1
 5779 10e6 D5000000 		.long	.LBI340
 5780 10ea 05       		.byte	.LVU383
 5781 10eb 7E000000 		.long	.LLRL31
 5782 10ef 02       		.byte	0x2
 5783 10f0 4A02     		.value	0x24a
 5784 10f2 03       		.byte	0x3
 5785 10f3 0B       		.uleb128 0xb
 5786 10f4 7E000000 		.long	.LLRL31
 5787 10f8 06       		.uleb128 0x6
GAS LISTING /tmp/ccNgdVMZ.s 			page 105


 5788 10f9 F4160000 		.long	0x16f4
 5789 10fd D5000000 		.long	.LBI342
 5790 1101 0C       		.byte	.LVU390
 5791 1102 7E000000 		.long	.LLRL31
 5792 1106 B201     		.value	0x1b2
 5793 1108 00       		.byte	0
 5794 1109 00       		.byte	0
 5795 110a 00       		.byte	0
 5796 110b 33       		.uleb128 0x33
 5797 110c BA120000 		.long	0x12ba
 5798 1110 8F000000 		.long	.LLRL32
 5799 1114 3901     		.value	0x139
 5800 1116 AD110000 		.long	0x11ad
 5801 111a 13       		.uleb128 0x13
 5802 111b D7120000 		.long	0x12d7
 5803 111f 13       		.uleb128 0x13
 5804 1120 CB120000 		.long	0x12cb
 5805 1124 0B       		.uleb128 0xb
 5806 1125 8F000000 		.long	.LLRL32
 5807 1129 17       		.uleb128 0x17
 5808 112a EC120000 		.long	0x12ec
 5809 112e 9D000000 		.long	.LLRL33
 5810 1132 7C110000 		.long	0x117c
 5811 1136 14       		.uleb128 0x14
 5812 1137 ED120000 		.long	0x12ed
 5813 113b 5A050000 		.long	.LLST34
 5814 113f 58050000 		.long	.LVUS34
 5815 1143 10       		.uleb128 0x10
 5816 1144 6C160000 		.long	0x166c
 5817 1148 56000000 		.long	.LBI355
 5818 114c 01       		.byte	.LVU324
 5819 114d 56000000 		.long	.LBB355
 5820 1151 0A000000 		.long	.LBE355-.LBB355
 5821 1155 E5       		.byte	0xe5
 5822 1156 11       		.byte	0x11
 5823 1157 01       		.uleb128 0x1
 5824 1158 8A160000 		.long	0x168a
 5825 115c 65050000 		.long	.LLST35
 5826 1160 63050000 		.long	.LVUS35
 5827 1164 01       		.uleb128 0x1
 5828 1165 7E160000 		.long	0x167e
 5829 1169 70050000 		.long	.LLST36
 5830 116d 6E050000 		.long	.LVUS36
 5831 1171 07       		.uleb128 0x7
 5832 1172 60000000 		.long	.LVL39
 5833 1176 85020000 		.long	0x285
 5834 117a 00       		.byte	0
 5835 117b 00       		.byte	0
 5836 117c 10       		.uleb128 0x10
 5837 117d BA120000 		.long	0x12ba
 5838 1181 6E000000 		.long	.LBI357
 5839 1185 00       		.byte	.LVU332
 5840 1186 6E000000 		.long	.LBB357
 5841 118a 10000000 		.long	.LBE357-.LBB357
 5842 118e DC       		.byte	0xdc
 5843 118f 09       		.byte	0x9
 5844 1190 01       		.uleb128 0x1
GAS LISTING /tmp/ccNgdVMZ.s 			page 106


 5845 1191 D7120000 		.long	0x12d7
 5846 1195 7B050000 		.long	.LLST37
 5847 1199 79050000 		.long	.LVUS37
 5848 119d 01       		.uleb128 0x1
 5849 119e CB120000 		.long	0x12cb
 5850 11a2 86050000 		.long	.LLST38
 5851 11a6 84050000 		.long	.LVUS38
 5852 11aa 00       		.byte	0
 5853 11ab 00       		.byte	0
 5854 11ac 00       		.byte	0
 5855 11ad 02       		.uleb128 0x2
 5856 11ae D3110000 		.long	0x11d3
 5857 11b2 80000000 		.long	.LBI361
 5858 11b6 01       		.byte	.LVU348
 5859 11b7 AB000000 		.long	.LLRL39
 5860 11bb 01       		.byte	0x1
 5861 11bc 4701     		.value	0x147
 5862 11be 05       		.byte	0x5
 5863 11bf 01       		.uleb128 0x1
 5864 11c0 DF110000 		.long	0x11df
 5865 11c4 93050000 		.long	.LLST40
 5866 11c8 8F050000 		.long	.LVUS40
 5867 11cc 12       		.uleb128 0x12
 5868 11cd AB000000 		.long	.LLRL39
 5869 11d1 00       		.byte	0
 5870 11d2 00       		.byte	0
 5871 11d3 34       		.uleb128 0x34
 5872 11d4 65040000 		.long	.LASF73
 5873 11d8 0B01     		.value	0x10b
 5874 11da 08       		.byte	0x8
 5875 11db F6110000 		.long	0x11f6
 5876 11df 18       		.uleb128 0x18
 5877 11e0 90000000 		.long	.LASF71
 5878 11e4 01       		.byte	0x1
 5879 11e5 0B01     		.value	0x10b
 5880 11e7 36       		.byte	0x36
 5881 11e8 2D100000 		.long	0x102d
 5882 11ec 0C       		.uleb128 0xc
 5883 11ed 20030000 		.long	.LASF58
 5884 11f1 150C0000 		.long	0xc15
 5885 11f5 00       		.byte	0
 5886 11f6 46       		.uleb128 0x46
 5887 11f7 74020000 		.long	.LASF74
 5888 11fb 01       		.byte	0x1
 5889 11fc FC       		.byte	0xfc
 5890 11fd 06       		.byte	0x6
 5891 11fe 00000000 		.long	.LFB317
 5892 1202 5E000000 		.long	.LFE317-.LFB317
 5893 1206 01       		.uleb128 0x1
 5894 1207 9C       		.byte	0x9c
 5895 1208 BA120000 		.long	0x12ba
 5896 120c 0D       		.uleb128 0xd
 5897 120d 90000000 		.long	.LASF71
 5898 1211 FC       		.byte	0xfc
 5899 1212 33       		.byte	0x33
 5900 1213 2D100000 		.long	0x102d
 5901 1217 02       		.uleb128 0x2
GAS LISTING /tmp/ccNgdVMZ.s 			page 107


 5902 1218 91       		.byte	0x91
 5903 1219 00       		.sleb128 0
 5904 121a 24       		.uleb128 0x24
 5905 121b B9160000 		.long	0x16b9
 5906 121f 00000000 		.long	.LBI284
 5907 1223 02       		.byte	.LVU221
 5908 1224 57000000 		.long	.LLRL25
 5909 1228 FE       		.byte	0xfe
 5910 1229 03       		.byte	0x3
 5911 122a 52120000 		.long	0x1252
 5912 122e 02       		.uleb128 0x2
 5913 122f EC160000 		.long	0x16ec
 5914 1233 00000000 		.long	.LBI285
 5915 1237 04       		.byte	.LVU223
 5916 1238 57000000 		.long	.LLRL25
 5917 123c 02       		.byte	0x2
 5918 123d 3F02     		.value	0x23f
 5919 123f 03       		.byte	0x3
 5920 1240 06       		.uleb128 0x6
 5921 1241 FC160000 		.long	0x16fc
 5922 1245 00000000 		.long	.LBI286
 5923 1249 06       		.byte	.LVU225
 5924 124a 57000000 		.long	.LLRL25
 5925 124e 9901     		.value	0x199
 5926 1250 00       		.byte	0
 5927 1251 00       		.byte	0
 5928 1252 24       		.uleb128 0x24
 5929 1253 D3110000 		.long	0x11d3
 5930 1257 25000000 		.long	.LBI295
 5931 125b 03       		.byte	.LVU236
 5932 125c 66000000 		.long	.LLRL26
 5933 1260 FF       		.byte	0xff
 5934 1261 03       		.byte	0x3
 5935 1262 79120000 		.long	0x1279
 5936 1266 01       		.uleb128 0x1
 5937 1267 DF110000 		.long	0x11df
 5938 126b A7050000 		.long	.LLST27
 5939 126f A3050000 		.long	.LVUS27
 5940 1273 12       		.uleb128 0x12
 5941 1274 66000000 		.long	.LLRL26
 5942 1278 00       		.byte	0
 5943 1279 04       		.uleb128 0x4
 5944 127a B1160000 		.long	0x16b1
 5945 127e 53000000 		.long	.LBI300
 5946 1282 02       		.byte	.LVU258
 5947 1283 53000000 		.long	.LBB300
 5948 1287 06000000 		.long	.LBE300-.LBB300
 5949 128b 01       		.byte	0x1
 5950 128c 0001     		.value	0x100
 5951 128e 03       		.byte	0x3
 5952 128f 04       		.uleb128 0x4
 5953 1290 C1160000 		.long	0x16c1
 5954 1294 53000000 		.long	.LBI301
 5955 1298 04       		.byte	.LVU260
 5956 1299 53000000 		.long	.LBB301
 5957 129d 06000000 		.long	.LBE301-.LBB301
 5958 12a1 02       		.byte	0x2
GAS LISTING /tmp/ccNgdVMZ.s 			page 108


 5959 12a2 4A02     		.value	0x24a
 5960 12a4 03       		.byte	0x3
 5961 12a5 23       		.uleb128 0x23
 5962 12a6 F4160000 		.long	0x16f4
 5963 12aa 53000000 		.long	.LBI303
 5964 12ae 0B       		.byte	.LVU267
 5965 12af 53000000 		.long	.LBB303
 5966 12b3 06000000 		.long	.LBE303-.LBB303
 5967 12b7 00       		.byte	0
 5968 12b8 00       		.byte	0
 5969 12b9 00       		.byte	0
 5970 12ba 47       		.uleb128 0x47
 5971 12bb D5020000 		.long	.LASF75
 5972 12bf 01       		.byte	0x1
 5973 12c0 DC       		.byte	0xdc
 5974 12c1 09       		.byte	0x9
 5975 12c2 F7000000 		.long	0xf7
 5976 12c6 01       		.byte	0x1
 5977 12c7 FB120000 		.long	0x12fb
 5978 12cb 1D       		.uleb128 0x1d
 5979 12cc 90000000 		.long	.LASF71
 5980 12d0 01       		.byte	0x1
 5981 12d1 DC       		.byte	0xdc
 5982 12d2 39       		.byte	0x39
 5983 12d3 2D100000 		.long	0x102d
 5984 12d7 1D       		.uleb128 0x1d
 5985 12d8 65050000 		.long	.LASF55
 5986 12dc 01       		.byte	0x1
 5987 12dd DD       		.byte	0xdd
 5988 12de 30       		.byte	0x30
 5989 12df 03010000 		.long	0x103
 5990 12e3 0C       		.uleb128 0xc
 5991 12e4 20030000 		.long	.LASF58
 5992 12e8 0B130000 		.long	0x130b
 5993 12ec 35       		.uleb128 0x35
 5994 12ed 48       		.uleb128 0x48
 5995 12ee 6D736700 		.string	"msg"
 5996 12f2 01       		.byte	0x1
 5997 12f3 E5       		.byte	0xe5
 5998 12f4 0B       		.byte	0xb
 5999 12f5 F7000000 		.long	0xf7
 6000 12f9 00       		.byte	0
 6001 12fa 00       		.byte	0
 6002 12fb 15       		.uleb128 0x15
 6003 12fc 53000000 		.long	0x53
 6004 1300 0B130000 		.long	0x130b
 6005 1304 16       		.uleb128 0x16
 6006 1305 37000000 		.long	0x37
 6007 1309 18       		.byte	0x18
 6008 130a 00       		.byte	0
 6009 130b 0E       		.uleb128 0xe
 6010 130c FB120000 		.long	0x12fb
 6011 1310 36       		.uleb128 0x36
 6012 1311 EE020000 		.long	.LASF76
 6013 1315 BD       		.byte	0xbd
 6014 1316 07       		.byte	0x7
 6015 1317 F7000000 		.long	0xf7
GAS LISTING /tmp/ccNgdVMZ.s 			page 109


 6016 131b 00000000 		.long	.LFB315
 6017 131f 83000000 		.long	.LFE315-.LFB315
 6018 1323 01       		.uleb128 0x1
 6019 1324 9C       		.byte	0x9c
 6020 1325 83140000 		.long	0x1483
 6021 1329 0D       		.uleb128 0xd
 6022 132a 90000000 		.long	.LASF71
 6023 132e BD       		.byte	0xbd
 6024 132f 36       		.byte	0x36
 6025 1330 2D100000 		.long	0x102d
 6026 1334 02       		.uleb128 0x2
 6027 1335 91       		.byte	0x91
 6028 1336 00       		.sleb128 0
 6029 1337 0D       		.uleb128 0xd
 6030 1338 65050000 		.long	.LASF55
 6031 133c BE       		.byte	0xbe
 6032 133d 2D       		.byte	0x2d
 6033 133e 03010000 		.long	0x103
 6034 1342 02       		.uleb128 0x2
 6035 1343 91       		.byte	0x91
 6036 1344 04       		.sleb128 4
 6037 1345 49       		.uleb128 0x49
 6038 1346 6D736700 		.string	"msg"
 6039 134a 01       		.byte	0x1
 6040 134b BF       		.byte	0xbf
 6041 134c 09       		.byte	0x9
 6042 134d F7000000 		.long	0xf7
 6043 1351 BC050000 		.long	.LLST7
 6044 1355 B8050000 		.long	.LVUS7
 6045 1359 24       		.uleb128 0x24
 6046 135a B9160000 		.long	0x16b9
 6047 135e 16000000 		.long	.LBI223
 6048 1362 02       		.byte	.LVU112
 6049 1363 18000000 		.long	.LLRL8
 6050 1367 C1       		.byte	0xc1
 6051 1368 03       		.byte	0x3
 6052 1369 91130000 		.long	0x1391
 6053 136d 02       		.uleb128 0x2
 6054 136e EC160000 		.long	0x16ec
 6055 1372 16000000 		.long	.LBI224
 6056 1376 04       		.byte	.LVU114
 6057 1377 18000000 		.long	.LLRL8
 6058 137b 02       		.byte	0x2
 6059 137c 3F02     		.value	0x23f
 6060 137e 03       		.byte	0x3
 6061 137f 06       		.uleb128 0x6
 6062 1380 FC160000 		.long	0x16fc
 6063 1384 16000000 		.long	.LBI225
 6064 1388 06       		.byte	.LVU116
 6065 1389 18000000 		.long	.LLRL8
 6066 138d 9901     		.value	0x199
 6067 138f 00       		.byte	0
 6068 1390 00       		.byte	0
 6069 1391 24       		.uleb128 0x24
 6070 1392 BA120000 		.long	0x12ba
 6071 1396 26000000 		.long	.LBI231
 6072 139a 03       		.byte	.LVU123
GAS LISTING /tmp/ccNgdVMZ.s 			page 110


 6073 139b 24000000 		.long	.LLRL9
 6074 139f C2       		.byte	0xc2
 6075 13a0 09       		.byte	0x9
 6076 13a1 48140000 		.long	0x1448
 6077 13a5 01       		.uleb128 0x1
 6078 13a6 D7120000 		.long	0x12d7
 6079 13aa D0050000 		.long	.LLST10
 6080 13ae CC050000 		.long	.LVUS10
 6081 13b2 01       		.uleb128 0x1
 6082 13b3 CB120000 		.long	0x12cb
 6083 13b7 E4050000 		.long	.LLST11
 6084 13bb E0050000 		.long	.LVUS11
 6085 13bf 0B       		.uleb128 0xb
 6086 13c0 24000000 		.long	.LLRL9
 6087 13c4 17       		.uleb128 0x17
 6088 13c5 EC120000 		.long	0x12ec
 6089 13c9 30000000 		.long	.LLRL12
 6090 13cd 17140000 		.long	0x1417
 6091 13d1 14       		.uleb128 0x14
 6092 13d2 ED120000 		.long	0x12ed
 6093 13d6 F6050000 		.long	.LLST13
 6094 13da F4050000 		.long	.LVUS13
 6095 13de 10       		.uleb128 0x10
 6096 13df 6C160000 		.long	0x166c
 6097 13e3 36000000 		.long	.LBI234
 6098 13e7 01       		.byte	.LVU130
 6099 13e8 36000000 		.long	.LBB234
 6100 13ec 0A000000 		.long	.LBE234-.LBB234
 6101 13f0 E5       		.byte	0xe5
 6102 13f1 11       		.byte	0x11
 6103 13f2 01       		.uleb128 0x1
 6104 13f3 8A160000 		.long	0x168a
 6105 13f7 01060000 		.long	.LLST14
 6106 13fb FF050000 		.long	.LVUS14
 6107 13ff 01       		.uleb128 0x1
 6108 1400 7E160000 		.long	0x167e
 6109 1404 0C060000 		.long	.LLST15
 6110 1408 0A060000 		.long	.LVUS15
 6111 140c 07       		.uleb128 0x7
 6112 140d 40000000 		.long	.LVL15
 6113 1411 85020000 		.long	0x285
 6114 1415 00       		.byte	0
 6115 1416 00       		.byte	0
 6116 1417 10       		.uleb128 0x10
 6117 1418 BA120000 		.long	0x12ba
 6118 141c 4E000000 		.long	.LBI236
 6119 1420 00       		.byte	.LVU138
 6120 1421 4E000000 		.long	.LBB236
 6121 1425 10000000 		.long	.LBE236-.LBB236
 6122 1429 DC       		.byte	0xdc
 6123 142a 09       		.byte	0x9
 6124 142b 01       		.uleb128 0x1
 6125 142c D7120000 		.long	0x12d7
 6126 1430 17060000 		.long	.LLST16
 6127 1434 15060000 		.long	.LVUS16
 6128 1438 01       		.uleb128 0x1
 6129 1439 CB120000 		.long	0x12cb
GAS LISTING /tmp/ccNgdVMZ.s 			page 111


 6130 143d 22060000 		.long	.LLST17
 6131 1441 20060000 		.long	.LVUS17
 6132 1445 00       		.byte	0
 6133 1446 00       		.byte	0
 6134 1447 00       		.byte	0
 6135 1448 2B       		.uleb128 0x2b
 6136 1449 B1160000 		.long	0x16b1
 6137 144d 5E000000 		.long	.LBI240
 6138 1451 02       		.byte	.LVU153
 6139 1452 3C000000 		.long	.LLRL18
 6140 1456 C3       		.byte	0xc3
 6141 1457 03       		.byte	0x3
 6142 1458 02       		.uleb128 0x2
 6143 1459 C1160000 		.long	0x16c1
 6144 145d 5E000000 		.long	.LBI241
 6145 1461 04       		.byte	.LVU155
 6146 1462 3C000000 		.long	.LLRL18
 6147 1466 02       		.byte	0x2
 6148 1467 4A02     		.value	0x24a
 6149 1469 03       		.byte	0x3
 6150 146a 0B       		.uleb128 0xb
 6151 146b 3C000000 		.long	.LLRL18
 6152 146f 06       		.uleb128 0x6
 6153 1470 F4160000 		.long	0x16f4
 6154 1474 5E000000 		.long	.LBI243
 6155 1478 0B       		.byte	.LVU162
 6156 1479 3C000000 		.long	.LLRL18
 6157 147d B201     		.value	0x1b2
 6158 147f 00       		.byte	0
 6159 1480 00       		.byte	0
 6160 1481 00       		.byte	0
 6161 1482 00       		.byte	0
 6162 1483 2C       		.uleb128 0x2c
 6163 1484 C4030000 		.long	.LASF77
 6164 1488 94       		.byte	0x94
 6165 1489 00000000 		.long	.LFB314
 6166 148d 46000000 		.long	.LFE314-.LFB314
 6167 1491 01       		.uleb128 0x1
 6168 1492 9C       		.byte	0x9c
 6169 1493 F5140000 		.long	0x14f5
 6170 1497 0D       		.uleb128 0xd
 6171 1498 90000000 		.long	.LASF71
 6172 149c 94       		.byte	0x94
 6173 149d 30       		.byte	0x30
 6174 149e 2D100000 		.long	0x102d
 6175 14a2 02       		.uleb128 0x2
 6176 14a3 91       		.byte	0x91
 6177 14a4 00       		.sleb128 0
 6178 14a5 0D       		.uleb128 0xd
 6179 14a6 9D040000 		.long	.LASF51
 6180 14aa 94       		.byte	0x94
 6181 14ab 3D       		.byte	0x3d
 6182 14ac 26000000 		.long	0x26
 6183 14b0 02       		.uleb128 0x2
 6184 14b1 91       		.byte	0x91
 6185 14b2 04       		.sleb128 4
 6186 14b3 0C       		.uleb128 0xc
GAS LISTING /tmp/ccNgdVMZ.s 			page 112


 6187 14b4 20030000 		.long	.LASF58
 6188 14b8 DE080000 		.long	0x8de
 6189 14bc 10       		.uleb128 0x10
 6190 14bd 47160000 		.long	0x1647
 6191 14c1 36000000 		.long	.LBI202
 6192 14c5 01       		.byte	.LVU103
 6193 14c6 36000000 		.long	.LBB202
 6194 14ca 0B000000 		.long	.LBE202-.LBB202
 6195 14ce A6       		.byte	0xa6
 6196 14cf 03       		.byte	0x3
 6197 14d0 01       		.uleb128 0x1
 6198 14d1 5F160000 		.long	0x165f
 6199 14d5 2D060000 		.long	.LLST5
 6200 14d9 2B060000 		.long	.LVUS5
 6201 14dd 01       		.uleb128 0x1
 6202 14de 53160000 		.long	0x1653
 6203 14e2 3B060000 		.long	.LLST6
 6204 14e6 37060000 		.long	.LVUS6
 6205 14ea 07       		.uleb128 0x7
 6206 14eb 41000000 		.long	.LVL11
 6207 14ef A6020000 		.long	0x2a6
 6208 14f3 00       		.byte	0
 6209 14f4 00       		.byte	0
 6210 14f5 36       		.uleb128 0x36
 6211 14f6 52040000 		.long	.LASF78
 6212 14fa 81       		.byte	0x81
 6213 14fb 0A       		.byte	0xa
 6214 14fc 48010000 		.long	0x148
 6215 1500 00000000 		.long	.LFB313
 6216 1504 1A000000 		.long	.LFE313-.LFB313
 6217 1508 01       		.uleb128 0x1
 6218 1509 9C       		.byte	0x9c
 6219 150a 23150000 		.long	0x1523
 6220 150e 4A       		.uleb128 0x4a
 6221 150f 90000000 		.long	.LASF71
 6222 1513 01       		.byte	0x1
 6223 1514 81       		.byte	0x81
 6224 1515 34       		.byte	0x34
 6225 1516 2D100000 		.long	0x102d
 6226 151a 52060000 		.long	.LLST4
 6227 151e 4C060000 		.long	.LVUS4
 6228 1522 00       		.byte	0
 6229 1523 2C       		.uleb128 0x2c
 6230 1524 98030000 		.long	.LASF79
 6231 1528 6B       		.byte	0x6b
 6232 1529 00000000 		.long	.LFB312
 6233 152d 3E000000 		.long	.LFE312-.LFB312
 6234 1531 01       		.uleb128 0x1
 6235 1532 9C       		.byte	0x9c
 6236 1533 7E150000 		.long	0x157e
 6237 1537 0D       		.uleb128 0xd
 6238 1538 90000000 		.long	.LASF71
 6239 153c 6B       		.byte	0x6b
 6240 153d 27       		.byte	0x27
 6241 153e 2D100000 		.long	0x102d
 6242 1542 02       		.uleb128 0x2
 6243 1543 91       		.byte	0x91
GAS LISTING /tmp/ccNgdVMZ.s 			page 113


 6244 1544 00       		.sleb128 0
 6245 1545 10       		.uleb128 0x10
 6246 1546 22160000 		.long	0x1622
 6247 154a 31000000 		.long	.LBI200
 6248 154e 01       		.byte	.LVU62
 6249 154f 31000000 		.long	.LBB200
 6250 1553 08000000 		.long	.LBE200-.LBB200
 6251 1557 74       		.byte	0x74
 6252 1558 03       		.byte	0x3
 6253 1559 01       		.uleb128 0x1
 6254 155a 3A160000 		.long	0x163a
 6255 155e 6B060000 		.long	.LLST2
 6256 1562 69060000 		.long	.LVUS2
 6257 1566 01       		.uleb128 0x1
 6258 1567 2E160000 		.long	0x162e
 6259 156b 7A060000 		.long	.LLST3
 6260 156f 76060000 		.long	.LVUS3
 6261 1573 07       		.uleb128 0x7
 6262 1574 39000000 		.long	.LVL5
 6263 1578 BC020000 		.long	0x2bc
 6264 157c 00       		.byte	0
 6265 157d 00       		.byte	0
 6266 157e 2C       		.uleb128 0x2c
 6267 157f 7C040000 		.long	.LASF80
 6268 1583 4C       		.byte	0x4c
 6269 1584 00000000 		.long	.LFB311
 6270 1588 7A000000 		.long	.LFE311-.LFB311
 6271 158c 01       		.uleb128 0x1
 6272 158d 9C       		.byte	0x9c
 6273 158e 22160000 		.long	0x1622
 6274 1592 0D       		.uleb128 0xd
 6275 1593 90000000 		.long	.LASF71
 6276 1597 4C       		.byte	0x4c
 6277 1598 2B       		.byte	0x2b
 6278 1599 2D100000 		.long	0x102d
 6279 159d 02       		.uleb128 0x2
 6280 159e 91       		.byte	0x91
 6281 159f 00       		.sleb128 0
 6282 15a0 0D       		.uleb128 0xd
 6283 15a1 B5030000 		.long	.LASF35
 6284 15a5 4C       		.byte	0x4c
 6285 15a6 36       		.byte	0x36
 6286 15a7 4D010000 		.long	0x14d
 6287 15ab 02       		.uleb128 0x2
 6288 15ac 91       		.byte	0x91
 6289 15ad 04       		.sleb128 4
 6290 15ae 37       		.uleb128 0x37
 6291 15af 627000   		.string	"bp"
 6292 15b2 4C       		.byte	0x4c
 6293 15b3 4A       		.byte	0x4a
 6294 15b4 48010000 		.long	0x148
 6295 15b8 02       		.uleb128 0x2
 6296 15b9 91       		.byte	0x91
 6297 15ba 08       		.sleb128 8
 6298 15bb 0D       		.uleb128 0xd
 6299 15bc 9D040000 		.long	.LASF51
 6300 15c0 4D       		.byte	0x4d
GAS LISTING /tmp/ccNgdVMZ.s 			page 114


 6301 15c1 1B       		.byte	0x1b
 6302 15c2 26000000 		.long	0x26
 6303 15c6 02       		.uleb128 0x2
 6304 15c7 91       		.byte	0x91
 6305 15c8 0C       		.sleb128 12
 6306 15c9 37       		.uleb128 0x37
 6307 15ca 6E00     		.string	"n"
 6308 15cc 4D       		.byte	0x4d
 6309 15cd 28       		.byte	0x28
 6310 15ce 26000000 		.long	0x26
 6311 15d2 02       		.uleb128 0x2
 6312 15d3 91       		.byte	0x91
 6313 15d4 10       		.sleb128 16
 6314 15d5 0D       		.uleb128 0xd
 6315 15d6 F5040000 		.long	.LASF81
 6316 15da 4D       		.byte	0x4d
 6317 15db 36       		.byte	0x36
 6318 15dc 4C020000 		.long	0x24c
 6319 15e0 02       		.uleb128 0x2
 6320 15e1 91       		.byte	0x91
 6321 15e2 14       		.sleb128 20
 6322 15e3 0D       		.uleb128 0xd
 6323 15e4 36010000 		.long	.LASF43
 6324 15e8 4D       		.byte	0x4d
 6325 15e9 42       		.byte	0x42
 6326 15ea BB000000 		.long	0xbb
 6327 15ee 02       		.uleb128 0x2
 6328 15ef 91       		.byte	0x91
 6329 15f0 18       		.sleb128 24
 6330 15f1 0C       		.uleb128 0xc
 6331 15f2 20030000 		.long	.LASF58
 6332 15f6 7A0D0000 		.long	0xd7a
 6333 15fa 2B       		.uleb128 0x2b
 6334 15fb 98160000 		.long	0x1698
 6335 15ff 16000000 		.long	.LBI196
 6336 1603 00       		.byte	.LVU7
 6337 1604 0C000000 		.long	.LLRL0
 6338 1608 51       		.byte	0x51
 6339 1609 03       		.byte	0x3
 6340 160a 01       		.uleb128 0x1
 6341 160b A4160000 		.long	0x16a4
 6342 160f 8D060000 		.long	.LLST1
 6343 1613 8B060000 		.long	.LVUS1
 6344 1617 07       		.uleb128 0x7
 6345 1618 24000000 		.long	.LVL2
 6346 161c D2020000 		.long	0x2d2
 6347 1620 00       		.byte	0
 6348 1621 00       		.byte	0
 6349 1622 25       		.uleb128 0x25
 6350 1623 BF020000 		.long	.LASF82
 6351 1627 02       		.byte	0x2
 6352 1628 9703     		.value	0x397
 6353 162a 47160000 		.long	0x1647
 6354 162e 19       		.uleb128 0x19
 6355 162f 74717000 		.string	"tqp"
 6356 1633 9703     		.value	0x397
 6357 1635 3B       		.byte	0x3b
GAS LISTING /tmp/ccNgdVMZ.s 			page 115


 6358 1636 A1020000 		.long	0x2a1
 6359 163a 19       		.uleb128 0x19
 6360 163b 6D736700 		.string	"msg"
 6361 163f 9703     		.value	0x397
 6362 1641 46       		.byte	0x46
 6363 1642 F7000000 		.long	0xf7
 6364 1646 00       		.byte	0
 6365 1647 25       		.uleb128 0x25
 6366 1648 C3000000 		.long	.LASF83
 6367 164c 02       		.byte	0x2
 6368 164d 8A03     		.value	0x38a
 6369 164f 6C160000 		.long	0x166c
 6370 1653 19       		.uleb128 0x19
 6371 1654 74717000 		.string	"tqp"
 6372 1658 8A03     		.value	0x38a
 6373 165a 3C       		.byte	0x3c
 6374 165b A1020000 		.long	0x2a1
 6375 165f 19       		.uleb128 0x19
 6376 1660 6D736700 		.string	"msg"
 6377 1664 8A03     		.value	0x38a
 6378 1666 47       		.byte	0x47
 6379 1667 F7000000 		.long	0xf7
 6380 166b 00       		.byte	0
 6381 166c 4B       		.uleb128 0x4b
 6382 166d 00000000 		.long	.LASF95
 6383 1671 02       		.byte	0x2
 6384 1672 7C03     		.value	0x37c
 6385 1674 15       		.byte	0x15
 6386 1675 F7000000 		.long	0xf7
 6387 1679 03       		.byte	0x3
 6388 167a 98160000 		.long	0x1698
 6389 167e 19       		.uleb128 0x19
 6390 167f 74717000 		.string	"tqp"
 6391 1683 7C03     		.value	0x37c
 6392 1685 40       		.byte	0x40
 6393 1686 A1020000 		.long	0x2a1
 6394 168a 18       		.uleb128 0x18
 6395 168b 65050000 		.long	.LASF55
 6396 168f 02       		.byte	0x2
 6397 1690 7D03     		.value	0x37d
 6398 1692 3D       		.byte	0x3d
 6399 1693 03010000 		.long	0x103
 6400 1697 00       		.byte	0
 6401 1698 25       		.uleb128 0x25
 6402 1699 A9000000 		.long	.LASF84
 6403 169d 02       		.byte	0x2
 6404 169e 6003     		.value	0x360
 6405 16a0 B1160000 		.long	0x16b1
 6406 16a4 19       		.uleb128 0x19
 6407 16a5 74717000 		.string	"tqp"
 6408 16a9 6003     		.value	0x360
 6409 16ab 3F       		.byte	0x3f
 6410 16ac A1020000 		.long	0x2a1
 6411 16b0 00       		.byte	0
 6412 16b1 1E       		.uleb128 0x1e
 6413 16b2 82000000 		.long	.LASF85
 6414 16b6 02       		.byte	0x2
GAS LISTING /tmp/ccNgdVMZ.s 			page 116


 6415 16b7 4802     		.value	0x248
 6416 16b9 1E       		.uleb128 0x1e
 6417 16ba 06030000 		.long	.LASF86
 6418 16be 02       		.byte	0x2
 6419 16bf 3D02     		.value	0x23d
 6420 16c1 25       		.uleb128 0x25
 6421 16c2 A2040000 		.long	.LASF87
 6422 16c6 03       		.byte	0x3
 6423 16c7 A501     		.value	0x1a5
 6424 16c9 D7160000 		.long	0x16d7
 6425 16cd 0C       		.uleb128 0xc
 6426 16ce 20030000 		.long	.LASF58
 6427 16d2 E7160000 		.long	0x16e7
 6428 16d6 00       		.byte	0
 6429 16d7 15       		.uleb128 0x15
 6430 16d8 53000000 		.long	0x53
 6431 16dc E7160000 		.long	0x16e7
 6432 16e0 16       		.uleb128 0x16
 6433 16e1 37000000 		.long	0x37
 6434 16e5 0B       		.byte	0xb
 6435 16e6 00       		.byte	0
 6436 16e7 0E       		.uleb128 0xe
 6437 16e8 D7160000 		.long	0x16d7
 6438 16ec 1E       		.uleb128 0x1e
 6439 16ed 9F000000 		.long	.LASF88
 6440 16f1 03       		.byte	0x3
 6441 16f2 9701     		.value	0x197
 6442 16f4 1E       		.uleb128 0x1e
 6443 16f5 F2030000 		.long	.LASF89
 6444 16f9 04       		.byte	0x4
 6445 16fa 7201     		.value	0x172
 6446 16fc 1E       		.uleb128 0x1e
 6447 16fd 95000000 		.long	.LASF90
 6448 1701 04       		.byte	0x4
 6449 1702 6901     		.value	0x169
 6450 1704 4C       		.uleb128 0x4c
 6451 1705 DA000000 		.long	.LASF96
 6452 1709 05       		.byte	0x5
 6453 170a 1A       		.byte	0x1a
 6454 170b 01       		.byte	0x1
 6455 170c BB000000 		.long	0xbb
 6456 1710 03       		.byte	0x3
 6457 1711 3A170000 		.long	0x173a
 6458 1715 1D       		.uleb128 0x1d
 6459 1716 8A020000 		.long	.LASF91
 6460 171a 05       		.byte	0x5
 6461 171b 1A       		.byte	0x1a
 6462 171c 01       		.byte	0x1
 6463 171d BD000000 		.long	0xbd
 6464 1721 1D       		.uleb128 0x1d
 6465 1722 29030000 		.long	.LASF92
 6466 1726 05       		.byte	0x5
 6467 1727 1A       		.byte	0x1a
 6468 1728 01       		.byte	0x1
 6469 1729 3F170000 		.long	0x173f
 6470 172d 1D       		.uleb128 0x1d
 6471 172e FE030000 		.long	.LASF93
GAS LISTING /tmp/ccNgdVMZ.s 			page 117


 6472 1732 05       		.byte	0x5
 6473 1733 1A       		.byte	0x1a
 6474 1734 01       		.byte	0x1
 6475 1735 26000000 		.long	0x26
 6476 1739 00       		.byte	0
 6477 173a 0F       		.uleb128 0xf
 6478 173b 44170000 		.long	0x1744
 6479 173f 2D       		.uleb128 0x2d
 6480 1740 3A170000 		.long	0x173a
 6481 1744 4D       		.uleb128 0x4d
 6482 1745 38       		.uleb128 0x38
 6483 1746 BA120000 		.long	0x12ba
 6484 174a 00000000 		.long	.LFB316
 6485 174e 61000000 		.long	.LFE316-.LFB316
 6486 1752 01       		.uleb128 0x1
 6487 1753 9C       		.byte	0x9c
 6488 1754 EB170000 		.long	0x17eb
 6489 1758 1F       		.uleb128 0x1f
 6490 1759 CB120000 		.long	0x12cb
 6491 175d 02       		.uleb128 0x2
 6492 175e 91       		.byte	0x91
 6493 175f 00       		.sleb128 0
 6494 1760 1F       		.uleb128 0x1f
 6495 1761 D7120000 		.long	0x12d7
 6496 1765 02       		.uleb128 0x2
 6497 1766 91       		.byte	0x91
 6498 1767 04       		.sleb128 4
 6499 1768 17       		.uleb128 0x17
 6500 1769 EC120000 		.long	0x12ec
 6501 176d 4B000000 		.long	.LLRL19
 6502 1771 BB170000 		.long	0x17bb
 6503 1775 14       		.uleb128 0x14
 6504 1776 ED120000 		.long	0x12ed
 6505 177a 98060000 		.long	.LLST20
 6506 177e 96060000 		.long	.LVUS20
 6507 1782 10       		.uleb128 0x10
 6508 1783 6C160000 		.long	0x166c
 6509 1787 26000000 		.long	.LBI268
 6510 178b 01       		.byte	.LVU195
 6511 178c 26000000 		.long	.LBB268
 6512 1790 0A000000 		.long	.LBE268-.LBB268
 6513 1794 E5       		.byte	0xe5
 6514 1795 11       		.byte	0x11
 6515 1796 01       		.uleb128 0x1
 6516 1797 8A160000 		.long	0x168a
 6517 179b A3060000 		.long	.LLST21
 6518 179f A1060000 		.long	.LVUS21
 6519 17a3 01       		.uleb128 0x1
 6520 17a4 7E160000 		.long	0x167e
 6521 17a8 AF060000 		.long	.LLST22
 6522 17ac AD060000 		.long	.LVUS22
 6523 17b0 07       		.uleb128 0x7
 6524 17b1 30000000 		.long	.LVL24
 6525 17b5 85020000 		.long	0x285
 6526 17b9 00       		.byte	0
 6527 17ba 00       		.byte	0
 6528 17bb 10       		.uleb128 0x10
GAS LISTING /tmp/ccNgdVMZ.s 			page 118


 6529 17bc BA120000 		.long	0x12ba
 6530 17c0 3E000000 		.long	.LBI270
 6531 17c4 00       		.byte	.LVU203
 6532 17c5 3E000000 		.long	.LBB270
 6533 17c9 10000000 		.long	.LBE270-.LBB270
 6534 17cd DC       		.byte	0xdc
 6535 17ce 09       		.byte	0x9
 6536 17cf 01       		.uleb128 0x1
 6537 17d0 D7120000 		.long	0x12d7
 6538 17d4 BB060000 		.long	.LLST23
 6539 17d8 B9060000 		.long	.LVUS23
 6540 17dc 01       		.uleb128 0x1
 6541 17dd CB120000 		.long	0x12cb
 6542 17e1 C6060000 		.long	.LLST24
 6543 17e5 C4060000 		.long	.LVUS24
 6544 17e9 00       		.byte	0
 6545 17ea 00       		.byte	0
 6546 17eb 39       		.uleb128 0x39
 6547 17ec D3110000 		.long	0x11d3
 6548 17f0 00000000 		.long	.LFB318
 6549 17f4 39000000 		.long	.LFE318-.LFB318
 6550 17f8 01       		.uleb128 0x1
 6551 17f9 9C       		.byte	0x9c
 6552 17fa 0C180000 		.long	0x180c
 6553 17fe 01       		.uleb128 0x1
 6554 17ff DF110000 		.long	0x11df
 6555 1803 D5060000 		.long	.LLST28
 6556 1807 CF060000 		.long	.LVUS28
 6557 180b 00       		.byte	0
 6558 180c 38       		.uleb128 0x38
 6559 180d C5090000 		.long	0x9c5
 6560 1811 00000000 		.long	.LFB326
 6561 1815 61000000 		.long	.LFE326-.LFB326
 6562 1819 01       		.uleb128 0x1
 6563 181a 9C       		.byte	0x9c
 6564 181b B6180000 		.long	0x18b6
 6565 181f 1F       		.uleb128 0x1f
 6566 1820 D7090000 		.long	0x9d7
 6567 1824 02       		.uleb128 0x2
 6568 1825 91       		.byte	0x91
 6569 1826 00       		.sleb128 0
 6570 1827 1F       		.uleb128 0x1f
 6571 1828 E4090000 		.long	0x9e4
 6572 182c 02       		.uleb128 0x2
 6573 182d 91       		.byte	0x91
 6574 182e 04       		.sleb128 4
 6575 182f 17       		.uleb128 0x17
 6576 1830 FA090000 		.long	0x9fa
 6577 1834 7B010000 		.long	.LLRL84
 6578 1838 84180000 		.long	0x1884
 6579 183c 14       		.uleb128 0x14
 6580 183d FB090000 		.long	0x9fb
 6581 1841 ED060000 		.long	.LLST85
 6582 1845 EB060000 		.long	.LVUS85
 6583 1849 04       		.uleb128 0x4
 6584 184a 6C160000 		.long	0x166c
 6585 184e 26000000 		.long	.LBI534
GAS LISTING /tmp/ccNgdVMZ.s 			page 119


 6586 1852 01       		.byte	.LVU753
 6587 1853 26000000 		.long	.LBB534
 6588 1857 0A000000 		.long	.LBE534-.LBB534
 6589 185b 01       		.byte	0x1
 6590 185c 4502     		.value	0x245
 6591 185e 11       		.byte	0x11
 6592 185f 01       		.uleb128 0x1
 6593 1860 8A160000 		.long	0x168a
 6594 1864 F8060000 		.long	.LLST86
 6595 1868 F6060000 		.long	.LVUS86
 6596 186c 01       		.uleb128 0x1
 6597 186d 7E160000 		.long	0x167e
 6598 1871 04070000 		.long	.LLST87
 6599 1875 02070000 		.long	.LVUS87
 6600 1879 07       		.uleb128 0x7
 6601 187a 30000000 		.long	.LVL103
 6602 187e 85020000 		.long	0x285
 6603 1882 00       		.byte	0
 6604 1883 00       		.byte	0
 6605 1884 04       		.uleb128 0x4
 6606 1885 C5090000 		.long	0x9c5
 6607 1889 3E000000 		.long	.LBI536
 6608 188d 00       		.byte	.LVU761
 6609 188e 3E000000 		.long	.LBB536
 6610 1892 11000000 		.long	.LBE536-.LBB536
 6611 1896 01       		.byte	0x1
 6612 1897 3C02     		.value	0x23c
 6613 1899 07       		.byte	0x7
 6614 189a 01       		.uleb128 0x1
 6615 189b E4090000 		.long	0x9e4
 6616 189f 10070000 		.long	.LLST88
 6617 18a3 0E070000 		.long	.LVUS88
 6618 18a7 01       		.uleb128 0x1
 6619 18a8 D7090000 		.long	0x9d7
 6620 18ac 1B070000 		.long	.LLST89
 6621 18b0 19070000 		.long	.LVUS89
 6622 18b4 00       		.byte	0
 6623 18b5 00       		.byte	0
 6624 18b6 39       		.uleb128 0x39
 6625 18b7 9E080000 		.long	0x89e
 6626 18bb 00000000 		.long	.LFB328
 6627 18bf 41000000 		.long	.LFE328-.LFB328
 6628 18c3 01       		.uleb128 0x1
 6629 18c4 9C       		.byte	0x9c
 6630 18c5 DF180000 		.long	0x18df
 6631 18c9 01       		.uleb128 0x1
 6632 18ca AA080000 		.long	0x8aa
 6633 18ce 2A070000 		.long	.LLST94
 6634 18d2 24070000 		.long	.LVUS94
 6635 18d6 1F       		.uleb128 0x1f
 6636 18d7 B7080000 		.long	0x8b7
 6637 18db 02       		.uleb128 0x2
 6638 18dc 91       		.byte	0x91
 6639 18dd 04       		.sleb128 4
 6640 18de 00       		.byte	0
 6641 18df 4E       		.uleb128 0x4e
 6642 18e0 DA000000 		.long	.LASF96
GAS LISTING /tmp/ccNgdVMZ.s 			page 120


 6643 18e4 60000000 		.long	.LASF97
 6644 18e8 10       		.byte	0x10
 6645 18e9 00       		.byte	0
 6646 18ea 00       		.byte	0
 6647              		.section	.debug_abbrev,"",@progbits
 6648              	.Ldebug_abbrev0:
 6649 0000 01       		.uleb128 0x1
 6650 0001 05       		.uleb128 0x5
 6651 0002 00       		.byte	0
 6652 0003 31       		.uleb128 0x31
 6653 0004 13       		.uleb128 0x13
 6654 0005 02       		.uleb128 0x2
 6655 0006 17       		.uleb128 0x17
 6656 0007 B742     		.uleb128 0x2137
 6657 0009 17       		.uleb128 0x17
 6658 000a 00       		.byte	0
 6659 000b 00       		.byte	0
 6660 000c 02       		.uleb128 0x2
 6661 000d 1D       		.uleb128 0x1d
 6662 000e 01       		.byte	0x1
 6663 000f 31       		.uleb128 0x31
 6664 0010 13       		.uleb128 0x13
 6665 0011 52       		.uleb128 0x52
 6666 0012 01       		.uleb128 0x1
 6667 0013 B842     		.uleb128 0x2138
 6668 0015 0B       		.uleb128 0xb
 6669 0016 55       		.uleb128 0x55
 6670 0017 17       		.uleb128 0x17
 6671 0018 58       		.uleb128 0x58
 6672 0019 0B       		.uleb128 0xb
 6673 001a 59       		.uleb128 0x59
 6674 001b 05       		.uleb128 0x5
 6675 001c 57       		.uleb128 0x57
 6676 001d 0B       		.uleb128 0xb
 6677 001e 00       		.byte	0
 6678 001f 00       		.byte	0
 6679 0020 03       		.uleb128 0x3
 6680 0021 05       		.uleb128 0x5
 6681 0022 00       		.byte	0
 6682 0023 03       		.uleb128 0x3
 6683 0024 0E       		.uleb128 0xe
 6684 0025 3A       		.uleb128 0x3a
 6685 0026 21       		.uleb128 0x21
 6686 0027 01       		.sleb128 1
 6687 0028 3B       		.uleb128 0x3b
 6688 0029 05       		.uleb128 0x5
 6689 002a 39       		.uleb128 0x39
 6690 002b 0B       		.uleb128 0xb
 6691 002c 49       		.uleb128 0x49
 6692 002d 13       		.uleb128 0x13
 6693 002e 02       		.uleb128 0x2
 6694 002f 18       		.uleb128 0x18
 6695 0030 00       		.byte	0
 6696 0031 00       		.byte	0
 6697 0032 04       		.uleb128 0x4
 6698 0033 1D       		.uleb128 0x1d
 6699 0034 01       		.byte	0x1
GAS LISTING /tmp/ccNgdVMZ.s 			page 121


 6700 0035 31       		.uleb128 0x31
 6701 0036 13       		.uleb128 0x13
 6702 0037 52       		.uleb128 0x52
 6703 0038 01       		.uleb128 0x1
 6704 0039 B842     		.uleb128 0x2138
 6705 003b 0B       		.uleb128 0xb
 6706 003c 11       		.uleb128 0x11
 6707 003d 01       		.uleb128 0x1
 6708 003e 12       		.uleb128 0x12
 6709 003f 06       		.uleb128 0x6
 6710 0040 58       		.uleb128 0x58
 6711 0041 0B       		.uleb128 0xb
 6712 0042 59       		.uleb128 0x59
 6713 0043 05       		.uleb128 0x5
 6714 0044 57       		.uleb128 0x57
 6715 0045 0B       		.uleb128 0xb
 6716 0046 00       		.byte	0
 6717 0047 00       		.byte	0
 6718 0048 05       		.uleb128 0x5
 6719 0049 16       		.uleb128 0x16
 6720 004a 00       		.byte	0
 6721 004b 03       		.uleb128 0x3
 6722 004c 0E       		.uleb128 0xe
 6723 004d 3A       		.uleb128 0x3a
 6724 004e 0B       		.uleb128 0xb
 6725 004f 3B       		.uleb128 0x3b
 6726 0050 0B       		.uleb128 0xb
 6727 0051 39       		.uleb128 0x39
 6728 0052 0B       		.uleb128 0xb
 6729 0053 49       		.uleb128 0x49
 6730 0054 13       		.uleb128 0x13
 6731 0055 00       		.byte	0
 6732 0056 00       		.byte	0
 6733 0057 06       		.uleb128 0x6
 6734 0058 1D       		.uleb128 0x1d
 6735 0059 00       		.byte	0
 6736 005a 31       		.uleb128 0x31
 6737 005b 13       		.uleb128 0x13
 6738 005c 52       		.uleb128 0x52
 6739 005d 01       		.uleb128 0x1
 6740 005e B842     		.uleb128 0x2138
 6741 0060 0B       		.uleb128 0xb
 6742 0061 55       		.uleb128 0x55
 6743 0062 17       		.uleb128 0x17
 6744 0063 58       		.uleb128 0x58
 6745 0064 21       		.uleb128 0x21
 6746 0065 03       		.sleb128 3
 6747 0066 59       		.uleb128 0x59
 6748 0067 05       		.uleb128 0x5
 6749 0068 57       		.uleb128 0x57
 6750 0069 21       		.uleb128 0x21
 6751 006a 03       		.sleb128 3
 6752 006b 00       		.byte	0
 6753 006c 00       		.byte	0
 6754 006d 07       		.uleb128 0x7
 6755 006e 48       		.uleb128 0x48
 6756 006f 00       		.byte	0
GAS LISTING /tmp/ccNgdVMZ.s 			page 122


 6757 0070 7D       		.uleb128 0x7d
 6758 0071 01       		.uleb128 0x1
 6759 0072 7F       		.uleb128 0x7f
 6760 0073 13       		.uleb128 0x13
 6761 0074 00       		.byte	0
 6762 0075 00       		.byte	0
 6763 0076 08       		.uleb128 0x8
 6764 0077 24       		.uleb128 0x24
 6765 0078 00       		.byte	0
 6766 0079 0B       		.uleb128 0xb
 6767 007a 0B       		.uleb128 0xb
 6768 007b 3E       		.uleb128 0x3e
 6769 007c 0B       		.uleb128 0xb
 6770 007d 03       		.uleb128 0x3
 6771 007e 0E       		.uleb128 0xe
 6772 007f 00       		.byte	0
 6773 0080 00       		.byte	0
 6774 0081 09       		.uleb128 0x9
 6775 0082 0D       		.uleb128 0xd
 6776 0083 00       		.byte	0
 6777 0084 03       		.uleb128 0x3
 6778 0085 0E       		.uleb128 0xe
 6779 0086 3A       		.uleb128 0x3a
 6780 0087 0B       		.uleb128 0xb
 6781 0088 3B       		.uleb128 0x3b
 6782 0089 0B       		.uleb128 0xb
 6783 008a 39       		.uleb128 0x39
 6784 008b 0B       		.uleb128 0xb
 6785 008c 49       		.uleb128 0x49
 6786 008d 13       		.uleb128 0x13
 6787 008e 38       		.uleb128 0x38
 6788 008f 0B       		.uleb128 0xb
 6789 0090 00       		.byte	0
 6790 0091 00       		.byte	0
 6791 0092 0A       		.uleb128 0xa
 6792 0093 1D       		.uleb128 0x1d
 6793 0094 01       		.byte	0x1
 6794 0095 31       		.uleb128 0x31
 6795 0096 13       		.uleb128 0x13
 6796 0097 52       		.uleb128 0x52
 6797 0098 01       		.uleb128 0x1
 6798 0099 B842     		.uleb128 0x2138
 6799 009b 0B       		.uleb128 0xb
 6800 009c 55       		.uleb128 0x55
 6801 009d 17       		.uleb128 0x17
 6802 009e 58       		.uleb128 0x58
 6803 009f 21       		.uleb128 0x21
 6804 00a0 01       		.sleb128 1
 6805 00a1 59       		.uleb128 0x59
 6806 00a2 05       		.uleb128 0x5
 6807 00a3 57       		.uleb128 0x57
 6808 00a4 0B       		.uleb128 0xb
 6809 00a5 01       		.uleb128 0x1
 6810 00a6 13       		.uleb128 0x13
 6811 00a7 00       		.byte	0
 6812 00a8 00       		.byte	0
 6813 00a9 0B       		.uleb128 0xb
GAS LISTING /tmp/ccNgdVMZ.s 			page 123


 6814 00aa 0B       		.uleb128 0xb
 6815 00ab 01       		.byte	0x1
 6816 00ac 55       		.uleb128 0x55
 6817 00ad 17       		.uleb128 0x17
 6818 00ae 00       		.byte	0
 6819 00af 00       		.byte	0
 6820 00b0 0C       		.uleb128 0xc
 6821 00b1 34       		.uleb128 0x34
 6822 00b2 00       		.byte	0
 6823 00b3 03       		.uleb128 0x3
 6824 00b4 0E       		.uleb128 0xe
 6825 00b5 49       		.uleb128 0x49
 6826 00b6 13       		.uleb128 0x13
 6827 00b7 34       		.uleb128 0x34
 6828 00b8 19       		.uleb128 0x19
 6829 00b9 00       		.byte	0
 6830 00ba 00       		.byte	0
 6831 00bb 0D       		.uleb128 0xd
 6832 00bc 05       		.uleb128 0x5
 6833 00bd 00       		.byte	0
 6834 00be 03       		.uleb128 0x3
 6835 00bf 0E       		.uleb128 0xe
 6836 00c0 3A       		.uleb128 0x3a
 6837 00c1 21       		.uleb128 0x21
 6838 00c2 01       		.sleb128 1
 6839 00c3 3B       		.uleb128 0x3b
 6840 00c4 0B       		.uleb128 0xb
 6841 00c5 39       		.uleb128 0x39
 6842 00c6 0B       		.uleb128 0xb
 6843 00c7 49       		.uleb128 0x49
 6844 00c8 13       		.uleb128 0x13
 6845 00c9 02       		.uleb128 0x2
 6846 00ca 18       		.uleb128 0x18
 6847 00cb 00       		.byte	0
 6848 00cc 00       		.byte	0
 6849 00cd 0E       		.uleb128 0xe
 6850 00ce 26       		.uleb128 0x26
 6851 00cf 00       		.byte	0
 6852 00d0 49       		.uleb128 0x49
 6853 00d1 13       		.uleb128 0x13
 6854 00d2 00       		.byte	0
 6855 00d3 00       		.byte	0
 6856 00d4 0F       		.uleb128 0xf
 6857 00d5 0F       		.uleb128 0xf
 6858 00d6 00       		.byte	0
 6859 00d7 0B       		.uleb128 0xb
 6860 00d8 21       		.uleb128 0x21
 6861 00d9 04       		.sleb128 4
 6862 00da 49       		.uleb128 0x49
 6863 00db 13       		.uleb128 0x13
 6864 00dc 00       		.byte	0
 6865 00dd 00       		.byte	0
 6866 00de 10       		.uleb128 0x10
 6867 00df 1D       		.uleb128 0x1d
 6868 00e0 01       		.byte	0x1
 6869 00e1 31       		.uleb128 0x31
 6870 00e2 13       		.uleb128 0x13
GAS LISTING /tmp/ccNgdVMZ.s 			page 124


 6871 00e3 52       		.uleb128 0x52
 6872 00e4 01       		.uleb128 0x1
 6873 00e5 B842     		.uleb128 0x2138
 6874 00e7 0B       		.uleb128 0xb
 6875 00e8 11       		.uleb128 0x11
 6876 00e9 01       		.uleb128 0x1
 6877 00ea 12       		.uleb128 0x12
 6878 00eb 06       		.uleb128 0x6
 6879 00ec 58       		.uleb128 0x58
 6880 00ed 21       		.uleb128 0x21
 6881 00ee 01       		.sleb128 1
 6882 00ef 59       		.uleb128 0x59
 6883 00f0 0B       		.uleb128 0xb
 6884 00f1 57       		.uleb128 0x57
 6885 00f2 0B       		.uleb128 0xb
 6886 00f3 00       		.byte	0
 6887 00f4 00       		.byte	0
 6888 00f5 11       		.uleb128 0x11
 6889 00f6 05       		.uleb128 0x5
 6890 00f7 00       		.byte	0
 6891 00f8 49       		.uleb128 0x49
 6892 00f9 13       		.uleb128 0x13
 6893 00fa 00       		.byte	0
 6894 00fb 00       		.byte	0
 6895 00fc 12       		.uleb128 0x12
 6896 00fd 0B       		.uleb128 0xb
 6897 00fe 00       		.byte	0
 6898 00ff 55       		.uleb128 0x55
 6899 0100 17       		.uleb128 0x17
 6900 0101 00       		.byte	0
 6901 0102 00       		.byte	0
 6902 0103 13       		.uleb128 0x13
 6903 0104 05       		.uleb128 0x5
 6904 0105 00       		.byte	0
 6905 0106 31       		.uleb128 0x31
 6906 0107 13       		.uleb128 0x13
 6907 0108 00       		.byte	0
 6908 0109 00       		.byte	0
 6909 010a 14       		.uleb128 0x14
 6910 010b 34       		.uleb128 0x34
 6911 010c 00       		.byte	0
 6912 010d 31       		.uleb128 0x31
 6913 010e 13       		.uleb128 0x13
 6914 010f 02       		.uleb128 0x2
 6915 0110 17       		.uleb128 0x17
 6916 0111 B742     		.uleb128 0x2137
 6917 0113 17       		.uleb128 0x17
 6918 0114 00       		.byte	0
 6919 0115 00       		.byte	0
 6920 0116 15       		.uleb128 0x15
 6921 0117 01       		.uleb128 0x1
 6922 0118 01       		.byte	0x1
 6923 0119 49       		.uleb128 0x49
 6924 011a 13       		.uleb128 0x13
 6925 011b 01       		.uleb128 0x1
 6926 011c 13       		.uleb128 0x13
 6927 011d 00       		.byte	0
GAS LISTING /tmp/ccNgdVMZ.s 			page 125


 6928 011e 00       		.byte	0
 6929 011f 16       		.uleb128 0x16
 6930 0120 21       		.uleb128 0x21
 6931 0121 00       		.byte	0
 6932 0122 49       		.uleb128 0x49
 6933 0123 13       		.uleb128 0x13
 6934 0124 2F       		.uleb128 0x2f
 6935 0125 0B       		.uleb128 0xb
 6936 0126 00       		.byte	0
 6937 0127 00       		.byte	0
 6938 0128 17       		.uleb128 0x17
 6939 0129 0B       		.uleb128 0xb
 6940 012a 01       		.byte	0x1
 6941 012b 31       		.uleb128 0x31
 6942 012c 13       		.uleb128 0x13
 6943 012d 55       		.uleb128 0x55
 6944 012e 17       		.uleb128 0x17
 6945 012f 01       		.uleb128 0x1
 6946 0130 13       		.uleb128 0x13
 6947 0131 00       		.byte	0
 6948 0132 00       		.byte	0
 6949 0133 18       		.uleb128 0x18
 6950 0134 05       		.uleb128 0x5
 6951 0135 00       		.byte	0
 6952 0136 03       		.uleb128 0x3
 6953 0137 0E       		.uleb128 0xe
 6954 0138 3A       		.uleb128 0x3a
 6955 0139 0B       		.uleb128 0xb
 6956 013a 3B       		.uleb128 0x3b
 6957 013b 05       		.uleb128 0x5
 6958 013c 39       		.uleb128 0x39
 6959 013d 0B       		.uleb128 0xb
 6960 013e 49       		.uleb128 0x49
 6961 013f 13       		.uleb128 0x13
 6962 0140 00       		.byte	0
 6963 0141 00       		.byte	0
 6964 0142 19       		.uleb128 0x19
 6965 0143 05       		.uleb128 0x5
 6966 0144 00       		.byte	0
 6967 0145 03       		.uleb128 0x3
 6968 0146 08       		.uleb128 0x8
 6969 0147 3A       		.uleb128 0x3a
 6970 0148 21       		.uleb128 0x21
 6971 0149 02       		.sleb128 2
 6972 014a 3B       		.uleb128 0x3b
 6973 014b 05       		.uleb128 0x5
 6974 014c 39       		.uleb128 0x39
 6975 014d 0B       		.uleb128 0xb
 6976 014e 49       		.uleb128 0x49
 6977 014f 13       		.uleb128 0x13
 6978 0150 00       		.byte	0
 6979 0151 00       		.byte	0
 6980 0152 1A       		.uleb128 0x1a
 6981 0153 0B       		.uleb128 0xb
 6982 0154 01       		.byte	0x1
 6983 0155 55       		.uleb128 0x55
 6984 0156 17       		.uleb128 0x17
GAS LISTING /tmp/ccNgdVMZ.s 			page 126


 6985 0157 01       		.uleb128 0x1
 6986 0158 13       		.uleb128 0x13
 6987 0159 00       		.byte	0
 6988 015a 00       		.byte	0
 6989 015b 1B       		.uleb128 0x1b
 6990 015c 05       		.uleb128 0x5
 6991 015d 00       		.byte	0
 6992 015e 03       		.uleb128 0x3
 6993 015f 08       		.uleb128 0x8
 6994 0160 3A       		.uleb128 0x3a
 6995 0161 21       		.uleb128 0x21
 6996 0162 01       		.sleb128 1
 6997 0163 3B       		.uleb128 0x3b
 6998 0164 05       		.uleb128 0x5
 6999 0165 39       		.uleb128 0x39
 7000 0166 0B       		.uleb128 0xb
 7001 0167 49       		.uleb128 0x49
 7002 0168 13       		.uleb128 0x13
 7003 0169 02       		.uleb128 0x2
 7004 016a 18       		.uleb128 0x18
 7005 016b 00       		.byte	0
 7006 016c 00       		.byte	0
 7007 016d 1C       		.uleb128 0x1c
 7008 016e 34       		.uleb128 0x34
 7009 016f 00       		.byte	0
 7010 0170 03       		.uleb128 0x3
 7011 0171 08       		.uleb128 0x8
 7012 0172 3A       		.uleb128 0x3a
 7013 0173 21       		.uleb128 0x21
 7014 0174 01       		.sleb128 1
 7015 0175 3B       		.uleb128 0x3b
 7016 0176 05       		.uleb128 0x5
 7017 0177 39       		.uleb128 0x39
 7018 0178 0B       		.uleb128 0xb
 7019 0179 49       		.uleb128 0x49
 7020 017a 13       		.uleb128 0x13
 7021 017b 02       		.uleb128 0x2
 7022 017c 17       		.uleb128 0x17
 7023 017d B742     		.uleb128 0x2137
 7024 017f 17       		.uleb128 0x17
 7025 0180 00       		.byte	0
 7026 0181 00       		.byte	0
 7027 0182 1D       		.uleb128 0x1d
 7028 0183 05       		.uleb128 0x5
 7029 0184 00       		.byte	0
 7030 0185 03       		.uleb128 0x3
 7031 0186 0E       		.uleb128 0xe
 7032 0187 3A       		.uleb128 0x3a
 7033 0188 0B       		.uleb128 0xb
 7034 0189 3B       		.uleb128 0x3b
 7035 018a 0B       		.uleb128 0xb
 7036 018b 39       		.uleb128 0x39
 7037 018c 0B       		.uleb128 0xb
 7038 018d 49       		.uleb128 0x49
 7039 018e 13       		.uleb128 0x13
 7040 018f 00       		.byte	0
 7041 0190 00       		.byte	0
GAS LISTING /tmp/ccNgdVMZ.s 			page 127


 7042 0191 1E       		.uleb128 0x1e
 7043 0192 2E       		.uleb128 0x2e
 7044 0193 00       		.byte	0
 7045 0194 03       		.uleb128 0x3
 7046 0195 0E       		.uleb128 0xe
 7047 0196 3A       		.uleb128 0x3a
 7048 0197 0B       		.uleb128 0xb
 7049 0198 3B       		.uleb128 0x3b
 7050 0199 05       		.uleb128 0x5
 7051 019a 39       		.uleb128 0x39
 7052 019b 21       		.uleb128 0x21
 7053 019c 14       		.sleb128 20
 7054 019d 27       		.uleb128 0x27
 7055 019e 19       		.uleb128 0x19
 7056 019f 20       		.uleb128 0x20
 7057 01a0 21       		.uleb128 0x21
 7058 01a1 03       		.sleb128 3
 7059 01a2 00       		.byte	0
 7060 01a3 00       		.byte	0
 7061 01a4 1F       		.uleb128 0x1f
 7062 01a5 05       		.uleb128 0x5
 7063 01a6 00       		.byte	0
 7064 01a7 31       		.uleb128 0x31
 7065 01a8 13       		.uleb128 0x13
 7066 01a9 02       		.uleb128 0x2
 7067 01aa 18       		.uleb128 0x18
 7068 01ab 00       		.byte	0
 7069 01ac 00       		.byte	0
 7070 01ad 20       		.uleb128 0x20
 7071 01ae 34       		.uleb128 0x34
 7072 01af 00       		.byte	0
 7073 01b0 03       		.uleb128 0x3
 7074 01b1 0E       		.uleb128 0xe
 7075 01b2 3A       		.uleb128 0x3a
 7076 01b3 21       		.uleb128 0x21
 7077 01b4 01       		.sleb128 1
 7078 01b5 3B       		.uleb128 0x3b
 7079 01b6 05       		.uleb128 0x5
 7080 01b7 39       		.uleb128 0x39
 7081 01b8 21       		.uleb128 0x21
 7082 01b9 0C       		.sleb128 12
 7083 01ba 49       		.uleb128 0x49
 7084 01bb 13       		.uleb128 0x13
 7085 01bc 02       		.uleb128 0x2
 7086 01bd 17       		.uleb128 0x17
 7087 01be B742     		.uleb128 0x2137
 7088 01c0 17       		.uleb128 0x17
 7089 01c1 00       		.byte	0
 7090 01c2 00       		.byte	0
 7091 01c3 21       		.uleb128 0x21
 7092 01c4 2E       		.uleb128 0x2e
 7093 01c5 01       		.byte	0x1
 7094 01c6 3F       		.uleb128 0x3f
 7095 01c7 19       		.uleb128 0x19
 7096 01c8 03       		.uleb128 0x3
 7097 01c9 0E       		.uleb128 0xe
 7098 01ca 3A       		.uleb128 0x3a
GAS LISTING /tmp/ccNgdVMZ.s 			page 128


 7099 01cb 21       		.uleb128 0x21
 7100 01cc 01       		.sleb128 1
 7101 01cd 3B       		.uleb128 0x3b
 7102 01ce 05       		.uleb128 0x5
 7103 01cf 39       		.uleb128 0x39
 7104 01d0 0B       		.uleb128 0xb
 7105 01d1 27       		.uleb128 0x27
 7106 01d2 19       		.uleb128 0x19
 7107 01d3 49       		.uleb128 0x49
 7108 01d4 13       		.uleb128 0x13
 7109 01d5 11       		.uleb128 0x11
 7110 01d6 01       		.uleb128 0x1
 7111 01d7 12       		.uleb128 0x12
 7112 01d8 06       		.uleb128 0x6
 7113 01d9 40       		.uleb128 0x40
 7114 01da 18       		.uleb128 0x18
 7115 01db 7C       		.uleb128 0x7c
 7116 01dc 19       		.uleb128 0x19
 7117 01dd 01       		.uleb128 0x1
 7118 01de 13       		.uleb128 0x13
 7119 01df 00       		.byte	0
 7120 01e0 00       		.byte	0
 7121 01e1 22       		.uleb128 0x22
 7122 01e2 1D       		.uleb128 0x1d
 7123 01e3 01       		.byte	0x1
 7124 01e4 31       		.uleb128 0x31
 7125 01e5 13       		.uleb128 0x13
 7126 01e6 52       		.uleb128 0x52
 7127 01e7 01       		.uleb128 0x1
 7128 01e8 B842     		.uleb128 0x2138
 7129 01ea 0B       		.uleb128 0xb
 7130 01eb 11       		.uleb128 0x11
 7131 01ec 01       		.uleb128 0x1
 7132 01ed 12       		.uleb128 0x12
 7133 01ee 06       		.uleb128 0x6
 7134 01ef 58       		.uleb128 0x58
 7135 01f0 21       		.uleb128 0x21
 7136 01f1 01       		.sleb128 1
 7137 01f2 59       		.uleb128 0x59
 7138 01f3 05       		.uleb128 0x5
 7139 01f4 57       		.uleb128 0x57
 7140 01f5 0B       		.uleb128 0xb
 7141 01f6 01       		.uleb128 0x1
 7142 01f7 13       		.uleb128 0x13
 7143 01f8 00       		.byte	0
 7144 01f9 00       		.byte	0
 7145 01fa 23       		.uleb128 0x23
 7146 01fb 1D       		.uleb128 0x1d
 7147 01fc 00       		.byte	0
 7148 01fd 31       		.uleb128 0x31
 7149 01fe 13       		.uleb128 0x13
 7150 01ff 52       		.uleb128 0x52
 7151 0200 01       		.uleb128 0x1
 7152 0201 B842     		.uleb128 0x2138
 7153 0203 0B       		.uleb128 0xb
 7154 0204 11       		.uleb128 0x11
 7155 0205 01       		.uleb128 0x1
GAS LISTING /tmp/ccNgdVMZ.s 			page 129


 7156 0206 12       		.uleb128 0x12
 7157 0207 06       		.uleb128 0x6
 7158 0208 58       		.uleb128 0x58
 7159 0209 21       		.uleb128 0x21
 7160 020a 03       		.sleb128 3
 7161 020b 59       		.uleb128 0x59
 7162 020c 21       		.uleb128 0x21
 7163 020d B203     		.sleb128 434
 7164 020f 57       		.uleb128 0x57
 7165 0210 21       		.uleb128 0x21
 7166 0211 03       		.sleb128 3
 7167 0212 00       		.byte	0
 7168 0213 00       		.byte	0
 7169 0214 24       		.uleb128 0x24
 7170 0215 1D       		.uleb128 0x1d
 7171 0216 01       		.byte	0x1
 7172 0217 31       		.uleb128 0x31
 7173 0218 13       		.uleb128 0x13
 7174 0219 52       		.uleb128 0x52
 7175 021a 01       		.uleb128 0x1
 7176 021b B842     		.uleb128 0x2138
 7177 021d 0B       		.uleb128 0xb
 7178 021e 55       		.uleb128 0x55
 7179 021f 17       		.uleb128 0x17
 7180 0220 58       		.uleb128 0x58
 7181 0221 21       		.uleb128 0x21
 7182 0222 01       		.sleb128 1
 7183 0223 59       		.uleb128 0x59
 7184 0224 0B       		.uleb128 0xb
 7185 0225 57       		.uleb128 0x57
 7186 0226 0B       		.uleb128 0xb
 7187 0227 01       		.uleb128 0x1
 7188 0228 13       		.uleb128 0x13
 7189 0229 00       		.byte	0
 7190 022a 00       		.byte	0
 7191 022b 25       		.uleb128 0x25
 7192 022c 2E       		.uleb128 0x2e
 7193 022d 01       		.byte	0x1
 7194 022e 03       		.uleb128 0x3
 7195 022f 0E       		.uleb128 0xe
 7196 0230 3A       		.uleb128 0x3a
 7197 0231 0B       		.uleb128 0xb
 7198 0232 3B       		.uleb128 0x3b
 7199 0233 05       		.uleb128 0x5
 7200 0234 39       		.uleb128 0x39
 7201 0235 21       		.uleb128 0x21
 7202 0236 14       		.sleb128 20
 7203 0237 27       		.uleb128 0x27
 7204 0238 19       		.uleb128 0x19
 7205 0239 20       		.uleb128 0x20
 7206 023a 21       		.uleb128 0x21
 7207 023b 03       		.sleb128 3
 7208 023c 01       		.uleb128 0x1
 7209 023d 13       		.uleb128 0x13
 7210 023e 00       		.byte	0
 7211 023f 00       		.byte	0
 7212 0240 26       		.uleb128 0x26
GAS LISTING /tmp/ccNgdVMZ.s 			page 130


 7213 0241 13       		.uleb128 0x13
 7214 0242 01       		.byte	0x1
 7215 0243 03       		.uleb128 0x3
 7216 0244 0E       		.uleb128 0xe
 7217 0245 0B       		.uleb128 0xb
 7218 0246 0B       		.uleb128 0xb
 7219 0247 3A       		.uleb128 0x3a
 7220 0248 0B       		.uleb128 0xb
 7221 0249 3B       		.uleb128 0x3b
 7222 024a 0B       		.uleb128 0xb
 7223 024b 39       		.uleb128 0x39
 7224 024c 0B       		.uleb128 0xb
 7225 024d 01       		.uleb128 0x1
 7226 024e 13       		.uleb128 0x13
 7227 024f 00       		.byte	0
 7228 0250 00       		.byte	0
 7229 0251 27       		.uleb128 0x27
 7230 0252 0D       		.uleb128 0xd
 7231 0253 00       		.byte	0
 7232 0254 03       		.uleb128 0x3
 7233 0255 08       		.uleb128 0x8
 7234 0256 3A       		.uleb128 0x3a
 7235 0257 21       		.uleb128 0x21
 7236 0258 0E       		.sleb128 14
 7237 0259 3B       		.uleb128 0x3b
 7238 025a 0B       		.uleb128 0xb
 7239 025b 39       		.uleb128 0x39
 7240 025c 0B       		.uleb128 0xb
 7241 025d 49       		.uleb128 0x49
 7242 025e 13       		.uleb128 0x13
 7243 025f 38       		.uleb128 0x38
 7244 0260 0B       		.uleb128 0xb
 7245 0261 00       		.byte	0
 7246 0262 00       		.byte	0
 7247 0263 28       		.uleb128 0x28
 7248 0264 2E       		.uleb128 0x2e
 7249 0265 01       		.byte	0x1
 7250 0266 3F       		.uleb128 0x3f
 7251 0267 19       		.uleb128 0x19
 7252 0268 03       		.uleb128 0x3
 7253 0269 0E       		.uleb128 0xe
 7254 026a 3A       		.uleb128 0x3a
 7255 026b 21       		.uleb128 0x21
 7256 026c 0F       		.sleb128 15
 7257 026d 3B       		.uleb128 0x3b
 7258 026e 05       		.uleb128 0x5
 7259 026f 39       		.uleb128 0x39
 7260 0270 21       		.uleb128 0x21
 7261 0271 08       		.sleb128 8
 7262 0272 27       		.uleb128 0x27
 7263 0273 19       		.uleb128 0x19
 7264 0274 3C       		.uleb128 0x3c
 7265 0275 19       		.uleb128 0x19
 7266 0276 01       		.uleb128 0x1
 7267 0277 13       		.uleb128 0x13
 7268 0278 00       		.byte	0
 7269 0279 00       		.byte	0
GAS LISTING /tmp/ccNgdVMZ.s 			page 131


 7270 027a 29       		.uleb128 0x29
 7271 027b 2E       		.uleb128 0x2e
 7272 027c 01       		.byte	0x1
 7273 027d 3F       		.uleb128 0x3f
 7274 027e 19       		.uleb128 0x19
 7275 027f 03       		.uleb128 0x3
 7276 0280 0E       		.uleb128 0xe
 7277 0281 3A       		.uleb128 0x3a
 7278 0282 21       		.uleb128 0x21
 7279 0283 01       		.sleb128 1
 7280 0284 3B       		.uleb128 0x3b
 7281 0285 05       		.uleb128 0x5
 7282 0286 39       		.uleb128 0x39
 7283 0287 0B       		.uleb128 0xb
 7284 0288 27       		.uleb128 0x27
 7285 0289 19       		.uleb128 0x19
 7286 028a 49       		.uleb128 0x49
 7287 028b 13       		.uleb128 0x13
 7288 028c 11       		.uleb128 0x11
 7289 028d 01       		.uleb128 0x1
 7290 028e 12       		.uleb128 0x12
 7291 028f 06       		.uleb128 0x6
 7292 0290 40       		.uleb128 0x40
 7293 0291 18       		.uleb128 0x18
 7294 0292 7A       		.uleb128 0x7a
 7295 0293 19       		.uleb128 0x19
 7296 0294 01       		.uleb128 0x1
 7297 0295 13       		.uleb128 0x13
 7298 0296 00       		.byte	0
 7299 0297 00       		.byte	0
 7300 0298 2A       		.uleb128 0x2a
 7301 0299 2E       		.uleb128 0x2e
 7302 029a 01       		.byte	0x1
 7303 029b 3F       		.uleb128 0x3f
 7304 029c 19       		.uleb128 0x19
 7305 029d 03       		.uleb128 0x3
 7306 029e 0E       		.uleb128 0xe
 7307 029f 3A       		.uleb128 0x3a
 7308 02a0 21       		.uleb128 0x21
 7309 02a1 01       		.sleb128 1
 7310 02a2 3B       		.uleb128 0x3b
 7311 02a3 05       		.uleb128 0x5
 7312 02a4 39       		.uleb128 0x39
 7313 02a5 21       		.uleb128 0x21
 7314 02a6 06       		.sleb128 6
 7315 02a7 27       		.uleb128 0x27
 7316 02a8 19       		.uleb128 0x19
 7317 02a9 11       		.uleb128 0x11
 7318 02aa 01       		.uleb128 0x1
 7319 02ab 12       		.uleb128 0x12
 7320 02ac 06       		.uleb128 0x6
 7321 02ad 40       		.uleb128 0x40
 7322 02ae 18       		.uleb128 0x18
 7323 02af 7A       		.uleb128 0x7a
 7324 02b0 19       		.uleb128 0x19
 7325 02b1 01       		.uleb128 0x1
 7326 02b2 13       		.uleb128 0x13
GAS LISTING /tmp/ccNgdVMZ.s 			page 132


 7327 02b3 00       		.byte	0
 7328 02b4 00       		.byte	0
 7329 02b5 2B       		.uleb128 0x2b
 7330 02b6 1D       		.uleb128 0x1d
 7331 02b7 01       		.byte	0x1
 7332 02b8 31       		.uleb128 0x31
 7333 02b9 13       		.uleb128 0x13
 7334 02ba 52       		.uleb128 0x52
 7335 02bb 01       		.uleb128 0x1
 7336 02bc B842     		.uleb128 0x2138
 7337 02be 0B       		.uleb128 0xb
 7338 02bf 55       		.uleb128 0x55
 7339 02c0 17       		.uleb128 0x17
 7340 02c1 58       		.uleb128 0x58
 7341 02c2 21       		.uleb128 0x21
 7342 02c3 01       		.sleb128 1
 7343 02c4 59       		.uleb128 0x59
 7344 02c5 0B       		.uleb128 0xb
 7345 02c6 57       		.uleb128 0x57
 7346 02c7 0B       		.uleb128 0xb
 7347 02c8 00       		.byte	0
 7348 02c9 00       		.byte	0
 7349 02ca 2C       		.uleb128 0x2c
 7350 02cb 2E       		.uleb128 0x2e
 7351 02cc 01       		.byte	0x1
 7352 02cd 3F       		.uleb128 0x3f
 7353 02ce 19       		.uleb128 0x19
 7354 02cf 03       		.uleb128 0x3
 7355 02d0 0E       		.uleb128 0xe
 7356 02d1 3A       		.uleb128 0x3a
 7357 02d2 21       		.uleb128 0x21
 7358 02d3 01       		.sleb128 1
 7359 02d4 3B       		.uleb128 0x3b
 7360 02d5 0B       		.uleb128 0xb
 7361 02d6 39       		.uleb128 0x39
 7362 02d7 21       		.uleb128 0x21
 7363 02d8 06       		.sleb128 6
 7364 02d9 27       		.uleb128 0x27
 7365 02da 19       		.uleb128 0x19
 7366 02db 11       		.uleb128 0x11
 7367 02dc 01       		.uleb128 0x1
 7368 02dd 12       		.uleb128 0x12
 7369 02de 06       		.uleb128 0x6
 7370 02df 40       		.uleb128 0x40
 7371 02e0 18       		.uleb128 0x18
 7372 02e1 7A       		.uleb128 0x7a
 7373 02e2 19       		.uleb128 0x19
 7374 02e3 01       		.uleb128 0x1
 7375 02e4 13       		.uleb128 0x13
 7376 02e5 00       		.byte	0
 7377 02e6 00       		.byte	0
 7378 02e7 2D       		.uleb128 0x2d
 7379 02e8 37       		.uleb128 0x37
 7380 02e9 00       		.byte	0
 7381 02ea 49       		.uleb128 0x49
 7382 02eb 13       		.uleb128 0x13
 7383 02ec 00       		.byte	0
GAS LISTING /tmp/ccNgdVMZ.s 			page 133


 7384 02ed 00       		.byte	0
 7385 02ee 2E       		.uleb128 0x2e
 7386 02ef 2E       		.uleb128 0x2e
 7387 02f0 01       		.byte	0x1
 7388 02f1 3F       		.uleb128 0x3f
 7389 02f2 19       		.uleb128 0x19
 7390 02f3 03       		.uleb128 0x3
 7391 02f4 0E       		.uleb128 0xe
 7392 02f5 3A       		.uleb128 0x3a
 7393 02f6 21       		.uleb128 0x21
 7394 02f7 01       		.sleb128 1
 7395 02f8 3B       		.uleb128 0x3b
 7396 02f9 05       		.uleb128 0x5
 7397 02fa 39       		.uleb128 0x39
 7398 02fb 21       		.uleb128 0x21
 7399 02fc 06       		.sleb128 6
 7400 02fd 27       		.uleb128 0x27
 7401 02fe 19       		.uleb128 0x19
 7402 02ff 11       		.uleb128 0x11
 7403 0300 01       		.uleb128 0x1
 7404 0301 12       		.uleb128 0x12
 7405 0302 06       		.uleb128 0x6
 7406 0303 40       		.uleb128 0x40
 7407 0304 18       		.uleb128 0x18
 7408 0305 7C       		.uleb128 0x7c
 7409 0306 19       		.uleb128 0x19
 7410 0307 01       		.uleb128 0x1
 7411 0308 13       		.uleb128 0x13
 7412 0309 00       		.byte	0
 7413 030a 00       		.byte	0
 7414 030b 2F       		.uleb128 0x2f
 7415 030c 05       		.uleb128 0x5
 7416 030d 00       		.byte	0
 7417 030e 03       		.uleb128 0x3
 7418 030f 0E       		.uleb128 0xe
 7419 0310 3A       		.uleb128 0x3a
 7420 0311 21       		.uleb128 0x21
 7421 0312 01       		.sleb128 1
 7422 0313 3B       		.uleb128 0x3b
 7423 0314 05       		.uleb128 0x5
 7424 0315 39       		.uleb128 0x39
 7425 0316 0B       		.uleb128 0xb
 7426 0317 49       		.uleb128 0x49
 7427 0318 13       		.uleb128 0x13
 7428 0319 02       		.uleb128 0x2
 7429 031a 17       		.uleb128 0x17
 7430 031b B742     		.uleb128 0x2137
 7431 031d 17       		.uleb128 0x17
 7432 031e 00       		.byte	0
 7433 031f 00       		.byte	0
 7434 0320 30       		.uleb128 0x30
 7435 0321 05       		.uleb128 0x5
 7436 0322 00       		.byte	0
 7437 0323 03       		.uleb128 0x3
 7438 0324 08       		.uleb128 0x8
 7439 0325 3A       		.uleb128 0x3a
 7440 0326 21       		.uleb128 0x21
GAS LISTING /tmp/ccNgdVMZ.s 			page 134


 7441 0327 01       		.sleb128 1
 7442 0328 3B       		.uleb128 0x3b
 7443 0329 05       		.uleb128 0x5
 7444 032a 39       		.uleb128 0x39
 7445 032b 0B       		.uleb128 0xb
 7446 032c 49       		.uleb128 0x49
 7447 032d 13       		.uleb128 0x13
 7448 032e 02       		.uleb128 0x2
 7449 032f 17       		.uleb128 0x17
 7450 0330 B742     		.uleb128 0x2137
 7451 0332 17       		.uleb128 0x17
 7452 0333 00       		.byte	0
 7453 0334 00       		.byte	0
 7454 0335 31       		.uleb128 0x31
 7455 0336 34       		.uleb128 0x34
 7456 0337 00       		.byte	0
 7457 0338 03       		.uleb128 0x3
 7458 0339 08       		.uleb128 0x8
 7459 033a 3A       		.uleb128 0x3a
 7460 033b 21       		.uleb128 0x21
 7461 033c 01       		.sleb128 1
 7462 033d 3B       		.uleb128 0x3b
 7463 033e 05       		.uleb128 0x5
 7464 033f 39       		.uleb128 0x39
 7465 0340 21       		.uleb128 0x21
 7466 0341 0D       		.sleb128 13
 7467 0342 49       		.uleb128 0x49
 7468 0343 13       		.uleb128 0x13
 7469 0344 1C       		.uleb128 0x1c
 7470 0345 21       		.uleb128 0x21
 7471 0346 00       		.sleb128 0
 7472 0347 00       		.byte	0
 7473 0348 00       		.byte	0
 7474 0349 32       		.uleb128 0x32
 7475 034a 0B       		.uleb128 0xb
 7476 034b 01       		.byte	0x1
 7477 034c 31       		.uleb128 0x31
 7478 034d 13       		.uleb128 0x13
 7479 034e 11       		.uleb128 0x11
 7480 034f 01       		.uleb128 0x1
 7481 0350 12       		.uleb128 0x12
 7482 0351 06       		.uleb128 0x6
 7483 0352 01       		.uleb128 0x1
 7484 0353 13       		.uleb128 0x13
 7485 0354 00       		.byte	0
 7486 0355 00       		.byte	0
 7487 0356 33       		.uleb128 0x33
 7488 0357 1D       		.uleb128 0x1d
 7489 0358 01       		.byte	0x1
 7490 0359 31       		.uleb128 0x31
 7491 035a 13       		.uleb128 0x13
 7492 035b 55       		.uleb128 0x55
 7493 035c 17       		.uleb128 0x17
 7494 035d 58       		.uleb128 0x58
 7495 035e 21       		.uleb128 0x21
 7496 035f 01       		.sleb128 1
 7497 0360 59       		.uleb128 0x59
GAS LISTING /tmp/ccNgdVMZ.s 			page 135


 7498 0361 05       		.uleb128 0x5
 7499 0362 57       		.uleb128 0x57
 7500 0363 21       		.uleb128 0x21
 7501 0364 0B       		.sleb128 11
 7502 0365 01       		.uleb128 0x1
 7503 0366 13       		.uleb128 0x13
 7504 0367 00       		.byte	0
 7505 0368 00       		.byte	0
 7506 0369 34       		.uleb128 0x34
 7507 036a 2E       		.uleb128 0x2e
 7508 036b 01       		.byte	0x1
 7509 036c 3F       		.uleb128 0x3f
 7510 036d 19       		.uleb128 0x19
 7511 036e 03       		.uleb128 0x3
 7512 036f 0E       		.uleb128 0xe
 7513 0370 3A       		.uleb128 0x3a
 7514 0371 21       		.uleb128 0x21
 7515 0372 01       		.sleb128 1
 7516 0373 3B       		.uleb128 0x3b
 7517 0374 05       		.uleb128 0x5
 7518 0375 39       		.uleb128 0x39
 7519 0376 0B       		.uleb128 0xb
 7520 0377 27       		.uleb128 0x27
 7521 0378 19       		.uleb128 0x19
 7522 0379 20       		.uleb128 0x20
 7523 037a 21       		.uleb128 0x21
 7524 037b 01       		.sleb128 1
 7525 037c 01       		.uleb128 0x1
 7526 037d 13       		.uleb128 0x13
 7527 037e 00       		.byte	0
 7528 037f 00       		.byte	0
 7529 0380 35       		.uleb128 0x35
 7530 0381 0B       		.uleb128 0xb
 7531 0382 01       		.byte	0x1
 7532 0383 00       		.byte	0
 7533 0384 00       		.byte	0
 7534 0385 36       		.uleb128 0x36
 7535 0386 2E       		.uleb128 0x2e
 7536 0387 01       		.byte	0x1
 7537 0388 3F       		.uleb128 0x3f
 7538 0389 19       		.uleb128 0x19
 7539 038a 03       		.uleb128 0x3
 7540 038b 0E       		.uleb128 0xe
 7541 038c 3A       		.uleb128 0x3a
 7542 038d 21       		.uleb128 0x21
 7543 038e 01       		.sleb128 1
 7544 038f 3B       		.uleb128 0x3b
 7545 0390 0B       		.uleb128 0xb
 7546 0391 39       		.uleb128 0x39
 7547 0392 0B       		.uleb128 0xb
 7548 0393 27       		.uleb128 0x27
 7549 0394 19       		.uleb128 0x19
 7550 0395 49       		.uleb128 0x49
 7551 0396 13       		.uleb128 0x13
 7552 0397 11       		.uleb128 0x11
 7553 0398 01       		.uleb128 0x1
 7554 0399 12       		.uleb128 0x12
GAS LISTING /tmp/ccNgdVMZ.s 			page 136


 7555 039a 06       		.uleb128 0x6
 7556 039b 40       		.uleb128 0x40
 7557 039c 18       		.uleb128 0x18
 7558 039d 7A       		.uleb128 0x7a
 7559 039e 19       		.uleb128 0x19
 7560 039f 01       		.uleb128 0x1
 7561 03a0 13       		.uleb128 0x13
 7562 03a1 00       		.byte	0
 7563 03a2 00       		.byte	0
 7564 03a3 37       		.uleb128 0x37
 7565 03a4 05       		.uleb128 0x5
 7566 03a5 00       		.byte	0
 7567 03a6 03       		.uleb128 0x3
 7568 03a7 08       		.uleb128 0x8
 7569 03a8 3A       		.uleb128 0x3a
 7570 03a9 21       		.uleb128 0x21
 7571 03aa 01       		.sleb128 1
 7572 03ab 3B       		.uleb128 0x3b
 7573 03ac 0B       		.uleb128 0xb
 7574 03ad 39       		.uleb128 0x39
 7575 03ae 0B       		.uleb128 0xb
 7576 03af 49       		.uleb128 0x49
 7577 03b0 13       		.uleb128 0x13
 7578 03b1 02       		.uleb128 0x2
 7579 03b2 18       		.uleb128 0x18
 7580 03b3 00       		.byte	0
 7581 03b4 00       		.byte	0
 7582 03b5 38       		.uleb128 0x38
 7583 03b6 2E       		.uleb128 0x2e
 7584 03b7 01       		.byte	0x1
 7585 03b8 31       		.uleb128 0x31
 7586 03b9 13       		.uleb128 0x13
 7587 03ba 11       		.uleb128 0x11
 7588 03bb 01       		.uleb128 0x1
 7589 03bc 12       		.uleb128 0x12
 7590 03bd 06       		.uleb128 0x6
 7591 03be 40       		.uleb128 0x40
 7592 03bf 18       		.uleb128 0x18
 7593 03c0 7A       		.uleb128 0x7a
 7594 03c1 19       		.uleb128 0x19
 7595 03c2 01       		.uleb128 0x1
 7596 03c3 13       		.uleb128 0x13
 7597 03c4 00       		.byte	0
 7598 03c5 00       		.byte	0
 7599 03c6 39       		.uleb128 0x39
 7600 03c7 2E       		.uleb128 0x2e
 7601 03c8 01       		.byte	0x1
 7602 03c9 31       		.uleb128 0x31
 7603 03ca 13       		.uleb128 0x13
 7604 03cb 11       		.uleb128 0x11
 7605 03cc 01       		.uleb128 0x1
 7606 03cd 12       		.uleb128 0x12
 7607 03ce 06       		.uleb128 0x6
 7608 03cf 40       		.uleb128 0x40
 7609 03d0 18       		.uleb128 0x18
 7610 03d1 01       		.uleb128 0x1
 7611 03d2 13       		.uleb128 0x13
GAS LISTING /tmp/ccNgdVMZ.s 			page 137


 7612 03d3 00       		.byte	0
 7613 03d4 00       		.byte	0
 7614 03d5 3A       		.uleb128 0x3a
 7615 03d6 11       		.uleb128 0x11
 7616 03d7 01       		.byte	0x1
 7617 03d8 25       		.uleb128 0x25
 7618 03d9 0E       		.uleb128 0xe
 7619 03da 13       		.uleb128 0x13
 7620 03db 0B       		.uleb128 0xb
 7621 03dc 03       		.uleb128 0x3
 7622 03dd 1F       		.uleb128 0x1f
 7623 03de 1B       		.uleb128 0x1b
 7624 03df 1F       		.uleb128 0x1f
 7625 03e0 55       		.uleb128 0x55
 7626 03e1 17       		.uleb128 0x17
 7627 03e2 11       		.uleb128 0x11
 7628 03e3 01       		.uleb128 0x1
 7629 03e4 10       		.uleb128 0x10
 7630 03e5 17       		.uleb128 0x17
 7631 03e6 00       		.byte	0
 7632 03e7 00       		.byte	0
 7633 03e8 3B       		.uleb128 0x3b
 7634 03e9 35       		.uleb128 0x35
 7635 03ea 00       		.byte	0
 7636 03eb 49       		.uleb128 0x49
 7637 03ec 13       		.uleb128 0x13
 7638 03ed 00       		.byte	0
 7639 03ee 00       		.byte	0
 7640 03ef 3C       		.uleb128 0x3c
 7641 03f0 24       		.uleb128 0x24
 7642 03f1 00       		.byte	0
 7643 03f2 0B       		.uleb128 0xb
 7644 03f3 0B       		.uleb128 0xb
 7645 03f4 3E       		.uleb128 0x3e
 7646 03f5 0B       		.uleb128 0xb
 7647 03f6 03       		.uleb128 0x3
 7648 03f7 08       		.uleb128 0x8
 7649 03f8 00       		.byte	0
 7650 03f9 00       		.byte	0
 7651 03fa 3D       		.uleb128 0x3d
 7652 03fb 0F       		.uleb128 0xf
 7653 03fc 00       		.byte	0
 7654 03fd 0B       		.uleb128 0xb
 7655 03fe 0B       		.uleb128 0xb
 7656 03ff 00       		.byte	0
 7657 0400 00       		.byte	0
 7658 0401 3E       		.uleb128 0x3e
 7659 0402 34       		.uleb128 0x34
 7660 0403 00       		.byte	0
 7661 0404 03       		.uleb128 0x3
 7662 0405 0E       		.uleb128 0xe
 7663 0406 3A       		.uleb128 0x3a
 7664 0407 0B       		.uleb128 0xb
 7665 0408 3B       		.uleb128 0x3b
 7666 0409 05       		.uleb128 0x5
 7667 040a 39       		.uleb128 0x39
 7668 040b 0B       		.uleb128 0xb
GAS LISTING /tmp/ccNgdVMZ.s 			page 138


 7669 040c 49       		.uleb128 0x49
 7670 040d 13       		.uleb128 0x13
 7671 040e 3F       		.uleb128 0x3f
 7672 040f 19       		.uleb128 0x19
 7673 0410 3C       		.uleb128 0x3c
 7674 0411 19       		.uleb128 0x19
 7675 0412 00       		.byte	0
 7676 0413 00       		.byte	0
 7677 0414 3F       		.uleb128 0x3f
 7678 0415 15       		.uleb128 0x15
 7679 0416 01       		.byte	0x1
 7680 0417 27       		.uleb128 0x27
 7681 0418 19       		.uleb128 0x19
 7682 0419 01       		.uleb128 0x1
 7683 041a 13       		.uleb128 0x13
 7684 041b 00       		.byte	0
 7685 041c 00       		.byte	0
 7686 041d 40       		.uleb128 0x40
 7687 041e 2E       		.uleb128 0x2e
 7688 041f 01       		.byte	0x1
 7689 0420 3F       		.uleb128 0x3f
 7690 0421 19       		.uleb128 0x19
 7691 0422 03       		.uleb128 0x3
 7692 0423 0E       		.uleb128 0xe
 7693 0424 3A       		.uleb128 0x3a
 7694 0425 0B       		.uleb128 0xb
 7695 0426 3B       		.uleb128 0x3b
 7696 0427 05       		.uleb128 0x5
 7697 0428 39       		.uleb128 0x39
 7698 0429 0B       		.uleb128 0xb
 7699 042a 27       		.uleb128 0x27
 7700 042b 19       		.uleb128 0x19
 7701 042c 49       		.uleb128 0x49
 7702 042d 13       		.uleb128 0x13
 7703 042e 3C       		.uleb128 0x3c
 7704 042f 19       		.uleb128 0x19
 7705 0430 01       		.uleb128 0x1
 7706 0431 13       		.uleb128 0x13
 7707 0432 00       		.byte	0
 7708 0433 00       		.byte	0
 7709 0434 41       		.uleb128 0x41
 7710 0435 0B       		.uleb128 0xb
 7711 0436 01       		.byte	0x1
 7712 0437 11       		.uleb128 0x11
 7713 0438 01       		.uleb128 0x1
 7714 0439 12       		.uleb128 0x12
 7715 043a 06       		.uleb128 0x6
 7716 043b 00       		.byte	0
 7717 043c 00       		.byte	0
 7718 043d 42       		.uleb128 0x42
 7719 043e 1D       		.uleb128 0x1d
 7720 043f 01       		.byte	0x1
 7721 0440 31       		.uleb128 0x31
 7722 0441 13       		.uleb128 0x13
 7723 0442 11       		.uleb128 0x11
 7724 0443 01       		.uleb128 0x1
 7725 0444 12       		.uleb128 0x12
GAS LISTING /tmp/ccNgdVMZ.s 			page 139


 7726 0445 06       		.uleb128 0x6
 7727 0446 58       		.uleb128 0x58
 7728 0447 0B       		.uleb128 0xb
 7729 0448 59       		.uleb128 0x59
 7730 0449 05       		.uleb128 0x5
 7731 044a 57       		.uleb128 0x57
 7732 044b 0B       		.uleb128 0xb
 7733 044c 00       		.byte	0
 7734 044d 00       		.byte	0
 7735 044e 43       		.uleb128 0x43
 7736 044f 2E       		.uleb128 0x2e
 7737 0450 01       		.byte	0x1
 7738 0451 3F       		.uleb128 0x3f
 7739 0452 19       		.uleb128 0x19
 7740 0453 03       		.uleb128 0x3
 7741 0454 0E       		.uleb128 0xe
 7742 0455 3A       		.uleb128 0x3a
 7743 0456 0B       		.uleb128 0xb
 7744 0457 3B       		.uleb128 0x3b
 7745 0458 05       		.uleb128 0x5
 7746 0459 39       		.uleb128 0x39
 7747 045a 0B       		.uleb128 0xb
 7748 045b 27       		.uleb128 0x27
 7749 045c 19       		.uleb128 0x19
 7750 045d 49       		.uleb128 0x49
 7751 045e 13       		.uleb128 0x13
 7752 045f 20       		.uleb128 0x20
 7753 0460 0B       		.uleb128 0xb
 7754 0461 01       		.uleb128 0x1
 7755 0462 13       		.uleb128 0x13
 7756 0463 00       		.byte	0
 7757 0464 00       		.byte	0
 7758 0465 44       		.uleb128 0x44
 7759 0466 34       		.uleb128 0x34
 7760 0467 00       		.byte	0
 7761 0468 03       		.uleb128 0x3
 7762 0469 08       		.uleb128 0x8
 7763 046a 3A       		.uleb128 0x3a
 7764 046b 0B       		.uleb128 0xb
 7765 046c 3B       		.uleb128 0x3b
 7766 046d 05       		.uleb128 0x5
 7767 046e 39       		.uleb128 0x39
 7768 046f 0B       		.uleb128 0xb
 7769 0470 49       		.uleb128 0x49
 7770 0471 13       		.uleb128 0x13
 7771 0472 00       		.byte	0
 7772 0473 00       		.byte	0
 7773 0474 45       		.uleb128 0x45
 7774 0475 1D       		.uleb128 0x1d
 7775 0476 01       		.byte	0x1
 7776 0477 31       		.uleb128 0x31
 7777 0478 13       		.uleb128 0x13
 7778 0479 55       		.uleb128 0x55
 7779 047a 17       		.uleb128 0x17
 7780 047b 58       		.uleb128 0x58
 7781 047c 0B       		.uleb128 0xb
 7782 047d 59       		.uleb128 0x59
GAS LISTING /tmp/ccNgdVMZ.s 			page 140


 7783 047e 05       		.uleb128 0x5
 7784 047f 57       		.uleb128 0x57
 7785 0480 0B       		.uleb128 0xb
 7786 0481 00       		.byte	0
 7787 0482 00       		.byte	0
 7788 0483 46       		.uleb128 0x46
 7789 0484 2E       		.uleb128 0x2e
 7790 0485 01       		.byte	0x1
 7791 0486 3F       		.uleb128 0x3f
 7792 0487 19       		.uleb128 0x19
 7793 0488 03       		.uleb128 0x3
 7794 0489 0E       		.uleb128 0xe
 7795 048a 3A       		.uleb128 0x3a
 7796 048b 0B       		.uleb128 0xb
 7797 048c 3B       		.uleb128 0x3b
 7798 048d 0B       		.uleb128 0xb
 7799 048e 39       		.uleb128 0x39
 7800 048f 0B       		.uleb128 0xb
 7801 0490 27       		.uleb128 0x27
 7802 0491 19       		.uleb128 0x19
 7803 0492 11       		.uleb128 0x11
 7804 0493 01       		.uleb128 0x1
 7805 0494 12       		.uleb128 0x12
 7806 0495 06       		.uleb128 0x6
 7807 0496 40       		.uleb128 0x40
 7808 0497 18       		.uleb128 0x18
 7809 0498 7C       		.uleb128 0x7c
 7810 0499 19       		.uleb128 0x19
 7811 049a 01       		.uleb128 0x1
 7812 049b 13       		.uleb128 0x13
 7813 049c 00       		.byte	0
 7814 049d 00       		.byte	0
 7815 049e 47       		.uleb128 0x47
 7816 049f 2E       		.uleb128 0x2e
 7817 04a0 01       		.byte	0x1
 7818 04a1 3F       		.uleb128 0x3f
 7819 04a2 19       		.uleb128 0x19
 7820 04a3 03       		.uleb128 0x3
 7821 04a4 0E       		.uleb128 0xe
 7822 04a5 3A       		.uleb128 0x3a
 7823 04a6 0B       		.uleb128 0xb
 7824 04a7 3B       		.uleb128 0x3b
 7825 04a8 0B       		.uleb128 0xb
 7826 04a9 39       		.uleb128 0x39
 7827 04aa 0B       		.uleb128 0xb
 7828 04ab 27       		.uleb128 0x27
 7829 04ac 19       		.uleb128 0x19
 7830 04ad 49       		.uleb128 0x49
 7831 04ae 13       		.uleb128 0x13
 7832 04af 20       		.uleb128 0x20
 7833 04b0 0B       		.uleb128 0xb
 7834 04b1 01       		.uleb128 0x1
 7835 04b2 13       		.uleb128 0x13
 7836 04b3 00       		.byte	0
 7837 04b4 00       		.byte	0
 7838 04b5 48       		.uleb128 0x48
 7839 04b6 34       		.uleb128 0x34
GAS LISTING /tmp/ccNgdVMZ.s 			page 141


 7840 04b7 00       		.byte	0
 7841 04b8 03       		.uleb128 0x3
 7842 04b9 08       		.uleb128 0x8
 7843 04ba 3A       		.uleb128 0x3a
 7844 04bb 0B       		.uleb128 0xb
 7845 04bc 3B       		.uleb128 0x3b
 7846 04bd 0B       		.uleb128 0xb
 7847 04be 39       		.uleb128 0x39
 7848 04bf 0B       		.uleb128 0xb
 7849 04c0 49       		.uleb128 0x49
 7850 04c1 13       		.uleb128 0x13
 7851 04c2 00       		.byte	0
 7852 04c3 00       		.byte	0
 7853 04c4 49       		.uleb128 0x49
 7854 04c5 34       		.uleb128 0x34
 7855 04c6 00       		.byte	0
 7856 04c7 03       		.uleb128 0x3
 7857 04c8 08       		.uleb128 0x8
 7858 04c9 3A       		.uleb128 0x3a
 7859 04ca 0B       		.uleb128 0xb
 7860 04cb 3B       		.uleb128 0x3b
 7861 04cc 0B       		.uleb128 0xb
 7862 04cd 39       		.uleb128 0x39
 7863 04ce 0B       		.uleb128 0xb
 7864 04cf 49       		.uleb128 0x49
 7865 04d0 13       		.uleb128 0x13
 7866 04d1 02       		.uleb128 0x2
 7867 04d2 17       		.uleb128 0x17
 7868 04d3 B742     		.uleb128 0x2137
 7869 04d5 17       		.uleb128 0x17
 7870 04d6 00       		.byte	0
 7871 04d7 00       		.byte	0
 7872 04d8 4A       		.uleb128 0x4a
 7873 04d9 05       		.uleb128 0x5
 7874 04da 00       		.byte	0
 7875 04db 03       		.uleb128 0x3
 7876 04dc 0E       		.uleb128 0xe
 7877 04dd 3A       		.uleb128 0x3a
 7878 04de 0B       		.uleb128 0xb
 7879 04df 3B       		.uleb128 0x3b
 7880 04e0 0B       		.uleb128 0xb
 7881 04e1 39       		.uleb128 0x39
 7882 04e2 0B       		.uleb128 0xb
 7883 04e3 49       		.uleb128 0x49
 7884 04e4 13       		.uleb128 0x13
 7885 04e5 02       		.uleb128 0x2
 7886 04e6 17       		.uleb128 0x17
 7887 04e7 B742     		.uleb128 0x2137
 7888 04e9 17       		.uleb128 0x17
 7889 04ea 00       		.byte	0
 7890 04eb 00       		.byte	0
 7891 04ec 4B       		.uleb128 0x4b
 7892 04ed 2E       		.uleb128 0x2e
 7893 04ee 01       		.byte	0x1
 7894 04ef 03       		.uleb128 0x3
 7895 04f0 0E       		.uleb128 0xe
 7896 04f1 3A       		.uleb128 0x3a
GAS LISTING /tmp/ccNgdVMZ.s 			page 142


 7897 04f2 0B       		.uleb128 0xb
 7898 04f3 3B       		.uleb128 0x3b
 7899 04f4 05       		.uleb128 0x5
 7900 04f5 39       		.uleb128 0x39
 7901 04f6 0B       		.uleb128 0xb
 7902 04f7 27       		.uleb128 0x27
 7903 04f8 19       		.uleb128 0x19
 7904 04f9 49       		.uleb128 0x49
 7905 04fa 13       		.uleb128 0x13
 7906 04fb 20       		.uleb128 0x20
 7907 04fc 0B       		.uleb128 0xb
 7908 04fd 01       		.uleb128 0x1
 7909 04fe 13       		.uleb128 0x13
 7910 04ff 00       		.byte	0
 7911 0500 00       		.byte	0
 7912 0501 4C       		.uleb128 0x4c
 7913 0502 2E       		.uleb128 0x2e
 7914 0503 01       		.byte	0x1
 7915 0504 3F       		.uleb128 0x3f
 7916 0505 19       		.uleb128 0x19
 7917 0506 03       		.uleb128 0x3
 7918 0507 0E       		.uleb128 0xe
 7919 0508 3A       		.uleb128 0x3a
 7920 0509 0B       		.uleb128 0xb
 7921 050a 3B       		.uleb128 0x3b
 7922 050b 0B       		.uleb128 0xb
 7923 050c 39       		.uleb128 0x39
 7924 050d 0B       		.uleb128 0xb
 7925 050e 27       		.uleb128 0x27
 7926 050f 19       		.uleb128 0x19
 7927 0510 49       		.uleb128 0x49
 7928 0511 13       		.uleb128 0x13
 7929 0512 20       		.uleb128 0x20
 7930 0513 0B       		.uleb128 0xb
 7931 0514 34       		.uleb128 0x34
 7932 0515 19       		.uleb128 0x19
 7933 0516 01       		.uleb128 0x1
 7934 0517 13       		.uleb128 0x13
 7935 0518 00       		.byte	0
 7936 0519 00       		.byte	0
 7937 051a 4D       		.uleb128 0x4d
 7938 051b 26       		.uleb128 0x26
 7939 051c 00       		.byte	0
 7940 051d 00       		.byte	0
 7941 051e 00       		.byte	0
 7942 051f 4E       		.uleb128 0x4e
 7943 0520 2E       		.uleb128 0x2e
 7944 0521 00       		.byte	0
 7945 0522 3F       		.uleb128 0x3f
 7946 0523 19       		.uleb128 0x19
 7947 0524 3C       		.uleb128 0x3c
 7948 0525 19       		.uleb128 0x19
 7949 0526 6E       		.uleb128 0x6e
 7950 0527 0E       		.uleb128 0xe
 7951 0528 03       		.uleb128 0x3
 7952 0529 0E       		.uleb128 0xe
 7953 052a 3A       		.uleb128 0x3a
GAS LISTING /tmp/ccNgdVMZ.s 			page 143


 7954 052b 0B       		.uleb128 0xb
 7955 052c 3B       		.uleb128 0x3b
 7956 052d 0B       		.uleb128 0xb
 7957 052e 00       		.byte	0
 7958 052f 00       		.byte	0
 7959 0530 00       		.byte	0
 7960              		.section	.debug_loclists,"",@progbits
 7961 0000 3C070000 		.long	.Ldebug_loc3-.Ldebug_loc2
 7962              	.Ldebug_loc2:
 7963 0004 0500     		.value	0x5
 7964 0006 04       		.byte	0x4
 7965 0007 00       		.byte	0
 7966 0008 00000000 		.long	0
 7967              	.Ldebug_loc0:
 7968              	.LVUS136:
 7969 000c 00       		.uleb128 .LVU1205
 7970 000d 00       		.uleb128 .LVU1207
 7971 000e 00       		.uleb128 .LVU1207
 7972 000f 00       		.uleb128 .LVU1208
 7973 0010 00       		.uleb128 .LVU1223
 7974 0011 00       		.uleb128 .LVU1236
 7975 0012 00       		.uleb128 .LVU1236
 7976 0013 00       		.uleb128 .LVU1237
 7977 0014 00       		.uleb128 .LVU1237
 7978 0015 00       		.uleb128 .LVU1239
 7979              	.LLST136:
 7980 0016 06       		.byte	0x6
 7981 0017 2B000000 		.long	.LVL173
 7982 001b 04       		.byte	0x4
 7983 001c 00       		.uleb128 .LVL173-.LVL173
 7984 001d 02       		.uleb128 .LVL174-.LVL173
 7985 001e 06       		.uleb128 0x6
 7986 001f 70       		.byte	0x70
 7987 0020 00       		.sleb128 0
 7988 0021 71       		.byte	0x71
 7989 0022 00       		.sleb128 0
 7990 0023 1C       		.byte	0x1c
 7991 0024 9F       		.byte	0x9f
 7992 0025 04       		.byte	0x4
 7993 0026 02       		.uleb128 .LVL174-.LVL173
 7994 0027 04       		.uleb128 .LVL175-.LVL173
 7995 0028 01       		.uleb128 0x1
 7996 0029 50       		.byte	0x50
 7997 002a 04       		.byte	0x4
 7998 002b 0F       		.uleb128 .LVL176-.LVL173
 7999 002c 1A       		.uleb128 .LVL177-.LVL173
 8000 002d 01       		.uleb128 0x1
 8001 002e 50       		.byte	0x50
 8002 002f 04       		.byte	0x4
 8003 0030 1A       		.uleb128 .LVL177-.LVL173
 8004 0031 1D       		.uleb128 .LVL178-.LVL173
 8005 0032 02       		.uleb128 0x2
 8006 0033 71       		.byte	0x71
 8007 0034 00       		.sleb128 0
 8008 0035 04       		.byte	0x4
 8009 0036 1D       		.uleb128 .LVL178-.LVL173
 8010 0037 23       		.uleb128 .LVL179-.LVL173
GAS LISTING /tmp/ccNgdVMZ.s 			page 144


 8011 0038 03       		.uleb128 0x3
 8012 0039 72       		.byte	0x72
 8013 003a 10       		.sleb128 16
 8014 003b 06       		.byte	0x6
 8015 003c 00       		.byte	0
 8016              	.LVUS138:
 8017 003d 01       		.uleb128 .LVU1224
 8018 003e 00       		.uleb128 .LVU1236
 8019 003f 00       		.uleb128 .LVU1236
 8020 0040 00       		.uleb128 .LVU1237
 8021 0041 00       		.uleb128 .LVU1237
 8022 0042 00       		.uleb128 .LVU1239
 8023              	.LLST138:
 8024 0043 06       		.byte	0x6
 8025 0044 3A000000 		.long	.LVL176
 8026 0048 04       		.byte	0x4
 8027 0049 00       		.uleb128 .LVL176-.LVL176
 8028 004a 0B       		.uleb128 .LVL177-.LVL176
 8029 004b 01       		.uleb128 0x1
 8030 004c 50       		.byte	0x50
 8031 004d 04       		.byte	0x4
 8032 004e 0B       		.uleb128 .LVL177-.LVL176
 8033 004f 0E       		.uleb128 .LVL178-.LVL176
 8034 0050 02       		.uleb128 0x2
 8035 0051 71       		.byte	0x71
 8036 0052 00       		.sleb128 0
 8037 0053 04       		.byte	0x4
 8038 0054 0E       		.uleb128 .LVL178-.LVL176
 8039 0055 14       		.uleb128 .LVL179-.LVL176
 8040 0056 03       		.uleb128 0x3
 8041 0057 72       		.byte	0x72
 8042 0058 10       		.sleb128 16
 8043 0059 06       		.byte	0x6
 8044 005a 00       		.byte	0
 8045              	.LVUS139:
 8046 005b 01       		.uleb128 .LVU1224
 8047 005c 00       		.uleb128 .LVU1251
 8048 005d 00       		.uleb128 .LVU1251
 8049 005e 00       		.uleb128 .LVU1254
 8050              	.LLST139:
 8051 005f 06       		.byte	0x6
 8052 0060 3A000000 		.long	.LVL176
 8053 0064 04       		.byte	0x4
 8054 0065 00       		.uleb128 .LVL176-.LVL176
 8055 0066 35       		.uleb128 .LVL180-1-.LVL176
 8056 0067 01       		.uleb128 0x1
 8057 0068 52       		.byte	0x52
 8058 0069 04       		.byte	0x4
 8059 006a 35       		.uleb128 .LVL180-1-.LVL176
 8060 006b 3F       		.uleb128 .LVL181-.LVL176
 8061 006c 02       		.uleb128 0x2
 8062 006d 91       		.byte	0x91
 8063 006e 00       		.sleb128 0
 8064 006f 00       		.byte	0
 8065              	.LVUS132:
 8066 0070 00       		.uleb128 0
 8067 0071 00       		.uleb128 .LVU1158
GAS LISTING /tmp/ccNgdVMZ.s 			page 145


 8068 0072 00       		.uleb128 .LVU1158
 8069 0073 00       		.uleb128 .LVU1184
 8070 0074 00       		.uleb128 .LVU1184
 8071 0075 00       		.uleb128 0
 8072              	.LLST132:
 8073 0076 06       		.byte	0x6
 8074 0077 00000000 		.long	.LVL164
 8075 007b 04       		.byte	0x4
 8076 007c 00       		.uleb128 .LVL164-.LVL164
 8077 007d 13       		.uleb128 .LVL165-.LVL164
 8078 007e 02       		.uleb128 0x2
 8079 007f 91       		.byte	0x91
 8080 0080 00       		.sleb128 0
 8081 0081 04       		.byte	0x4
 8082 0082 13       		.uleb128 .LVL165-.LVL164
 8083 0083 57       		.uleb128 .LVL171-.LVL164
 8084 0084 01       		.uleb128 0x1
 8085 0085 50       		.byte	0x50
 8086 0086 04       		.byte	0x4
 8087 0087 57       		.uleb128 .LVL171-.LVL164
 8088 0088 59       		.uleb128 .LFE331-.LVL164
 8089 0089 02       		.uleb128 0x2
 8090 008a 91       		.byte	0x91
 8091 008b 00       		.sleb128 0
 8092 008c 00       		.byte	0
 8093              	.LVUS133:
 8094 008d 00       		.uleb128 .LVU1163
 8095 008e 00       		.uleb128 .LVU1165
 8096 008f 00       		.uleb128 .LVU1165
 8097 0090 00       		.uleb128 .LVU1170
 8098 0091 00       		.uleb128 .LVU1170
 8099 0092 00       		.uleb128 .LVU1171
 8100 0093 00       		.uleb128 .LVU1171
 8101 0094 00       		.uleb128 .LVU1173
 8102              	.LLST133:
 8103 0095 06       		.byte	0x6
 8104 0096 29000000 		.long	.LVL166
 8105 009a 04       		.byte	0x4
 8106 009b 00       		.uleb128 .LVL166-.LVL166
 8107 009c 02       		.uleb128 .LVL167-.LVL166
 8108 009d 06       		.uleb128 0x6
 8109 009e 71       		.byte	0x71
 8110 009f 00       		.sleb128 0
 8111 00a0 72       		.byte	0x72
 8112 00a1 00       		.sleb128 0
 8113 00a2 1C       		.byte	0x1c
 8114 00a3 9F       		.byte	0x9f
 8115 00a4 04       		.byte	0x4
 8116 00a5 02       		.uleb128 .LVL167-.LVL166
 8117 00a6 09       		.uleb128 .LVL168-.LVL166
 8118 00a7 01       		.uleb128 0x1
 8119 00a8 51       		.byte	0x51
 8120 00a9 04       		.byte	0x4
 8121 00aa 09       		.uleb128 .LVL168-.LVL166
 8122 00ab 0C       		.uleb128 .LVL169-.LVL166
 8123 00ac 02       		.uleb128 0x2
 8124 00ad 72       		.byte	0x72
GAS LISTING /tmp/ccNgdVMZ.s 			page 146


 8125 00ae 00       		.sleb128 0
 8126 00af 04       		.byte	0x4
 8127 00b0 0C       		.uleb128 .LVL169-.LVL166
 8128 00b1 12       		.uleb128 .LVL170-.LVL166
 8129 00b2 03       		.uleb128 0x3
 8130 00b3 70       		.byte	0x70
 8131 00b4 10       		.sleb128 16
 8132 00b5 06       		.byte	0x6
 8133 00b6 00       		.byte	0
 8134              	.LVUS108:
 8135 00b7 00       		.uleb128 0
 8136 00b8 00       		.uleb128 .LVU991
 8137 00b9 02       		.uleb128 .LVU1003
 8138 00ba 00       		.uleb128 .LVU1023
 8139 00bb 00       		.uleb128 .LVU1025
 8140 00bc 00       		.uleb128 .LVU1032
 8141 00bd 00       		.uleb128 .LVU1051
 8142 00be 00       		.uleb128 .LVU1104
 8143 00bf 00       		.uleb128 .LVU1121
 8144 00c0 00       		.uleb128 .LVU1122
 8145 00c1 00       		.uleb128 .LVU1122
 8146 00c2 00       		.uleb128 0
 8147              	.LLST108:
 8148 00c3 06       		.byte	0x6
 8149 00c4 00000000 		.long	.LVL130
 8150 00c8 04       		.byte	0x4
 8151 00c9 00       		.uleb128 .LVL130-.LVL130
 8152 00ca 2B       		.uleb128 .LVL131-.LVL130
 8153 00cb 02       		.uleb128 0x2
 8154 00cc 91       		.byte	0x91
 8155 00cd 04       		.sleb128 4
 8156 00ce 04       		.byte	0x4
 8157 00cf 9401     		.uleb128 .LVL136-.LVL130
 8158 00d1 AC01     		.uleb128 .LVL138-.LVL130
 8159 00d3 01       		.uleb128 0x1
 8160 00d4 57       		.byte	0x57
 8161 00d5 04       		.byte	0x4
 8162 00d6 B601     		.uleb128 .LVL139-.LVL130
 8163 00d8 C401     		.uleb128 .LVL140-.LVL130
 8164 00da 01       		.uleb128 0x1
 8165 00db 57       		.byte	0x57
 8166 00dc 04       		.byte	0x4
 8167 00dd F701     		.uleb128 .LVL146-.LVL130
 8168 00df CB02     		.uleb128 .LVL155-.LVL130
 8169 00e1 01       		.uleb128 0x1
 8170 00e2 57       		.byte	0x57
 8171 00e3 04       		.byte	0x4
 8172 00e4 DF02     		.uleb128 .LVL157-.LVL130
 8173 00e6 E602     		.uleb128 .LVL158-.LVL130
 8174 00e8 01       		.uleb128 0x1
 8175 00e9 57       		.byte	0x57
 8176 00ea 04       		.byte	0x4
 8177 00eb E602     		.uleb128 .LVL158-.LVL130
 8178 00ed A803     		.uleb128 .LFE330-.LVL130
 8179 00ef 02       		.uleb128 0x2
 8180 00f0 91       		.byte	0x91
 8181 00f1 04       		.sleb128 4
GAS LISTING /tmp/ccNgdVMZ.s 			page 147


 8182 00f2 00       		.byte	0
 8183              	.LVUS109:
 8184 00f3 02       		.uleb128 .LVU974
 8185 00f4 00       		.uleb128 .LVU991
 8186 00f5 00       		.uleb128 .LVU991
 8187 00f6 00       		.uleb128 .LVU998
 8188 00f7 00       		.uleb128 .LVU998
 8189 00f8 01       		.uleb128 .LVU1006
 8190 00f9 01       		.uleb128 .LVU1006
 8191 00fa 00       		.uleb128 .LVU1023
 8192 00fb 00       		.uleb128 .LVU1025
 8193 00fc 00       		.uleb128 .LVU1120
 8194 00fd 00       		.uleb128 .LVU1120
 8195 00fe 00       		.uleb128 .LVU1121
 8196 00ff 00       		.uleb128 .LVU1121
 8197 0100 00       		.uleb128 0
 8198              	.LLST109:
 8199 0101 06       		.byte	0x6
 8200 0102 00000000 		.long	.LVL130
 8201 0106 04       		.byte	0x4
 8202 0107 00       		.uleb128 .LVL130-.LVL130
 8203 0108 2B       		.uleb128 .LVL131-.LVL130
 8204 0109 02       		.uleb128 0x2
 8205 010a 30       		.byte	0x30
 8206 010b 9F       		.byte	0x9f
 8207 010c 04       		.byte	0x4
 8208 010d 2B       		.uleb128 .LVL131-.LVL130
 8209 010e 35       		.uleb128 .LVL133-.LVL130
 8210 010f 01       		.uleb128 0x1
 8211 0110 55       		.byte	0x55
 8212 0111 04       		.byte	0x4
 8213 0112 35       		.uleb128 .LVL133-.LVL130
 8214 0113 9A01     		.uleb128 .LVL137-.LVL130
 8215 0115 03       		.uleb128 0x3
 8216 0116 75       		.byte	0x75
 8217 0117 40       		.sleb128 -64
 8218 0118 9F       		.byte	0x9f
 8219 0119 04       		.byte	0x4
 8220 011a 9A01     		.uleb128 .LVL137-.LVL130
 8221 011c AC01     		.uleb128 .LVL138-.LVL130
 8222 011e 01       		.uleb128 0x1
 8223 011f 55       		.byte	0x55
 8224 0120 04       		.byte	0x4
 8225 0121 B601     		.uleb128 .LVL139-.LVL130
 8226 0123 DE02     		.uleb128 .LVL156-.LVL130
 8227 0125 01       		.uleb128 0x1
 8228 0126 55       		.byte	0x55
 8229 0127 04       		.byte	0x4
 8230 0128 DE02     		.uleb128 .LVL156-.LVL130
 8231 012a DF02     		.uleb128 .LVL157-.LVL130
 8232 012c 01       		.uleb128 0x1
 8233 012d 50       		.byte	0x50
 8234 012e 04       		.byte	0x4
 8235 012f DF02     		.uleb128 .LVL157-.LVL130
 8236 0131 A803     		.uleb128 .LFE330-.LVL130
 8237 0133 01       		.uleb128 0x1
 8238 0134 55       		.byte	0x55
GAS LISTING /tmp/ccNgdVMZ.s 			page 148


 8239 0135 00       		.byte	0
 8240              	.LVUS113:
 8241 0136 00       		.uleb128 .LVU991
 8242 0137 00       		.uleb128 .LVU996
 8243 0138 01       		.uleb128 .LVU1033
 8244 0139 00       		.uleb128 .LVU1036
 8245 013a 00       		.uleb128 .LVU1036
 8246 013b 00       		.uleb128 .LVU1044
 8247 013c 00       		.uleb128 .LVU1044
 8248 013d 00       		.uleb128 .LVU1057
 8249              	.LLST113:
 8250 013e 06       		.byte	0x6
 8251 013f 2B000000 		.long	.LVL131
 8252 0143 04       		.byte	0x4
 8253 0144 00       		.uleb128 .LVL131-.LVL131
 8254 0145 07       		.uleb128 .LVL132-.LVL131
 8255 0146 01       		.uleb128 0x1
 8256 0147 52       		.byte	0x52
 8257 0148 04       		.byte	0x4
 8258 0149 9901     		.uleb128 .LVL140-.LVL131
 8259 014b 9F01     		.uleb128 .LVL141-.LVL131
 8260 014d 06       		.uleb128 0x6
 8261 014e 72       		.byte	0x72
 8262 014f 00       		.sleb128 0
 8263 0150 70       		.byte	0x70
 8264 0151 00       		.sleb128 0
 8265 0152 1C       		.byte	0x1c
 8266 0153 9F       		.byte	0x9f
 8267 0154 04       		.byte	0x4
 8268 0155 9F01     		.uleb128 .LVL141-.LVL131
 8269 0157 BD01     		.uleb128 .LVL145-1-.LVL131
 8270 0159 01       		.uleb128 0x1
 8271 015a 52       		.byte	0x52
 8272 015b 04       		.byte	0x4
 8273 015c BD01     		.uleb128 .LVL145-1-.LVL131
 8274 015e D601     		.uleb128 .LVL148-.LVL131
 8275 0160 02       		.uleb128 0x2
 8276 0161 91       		.byte	0x91
 8277 0162 5C       		.sleb128 -36
 8278 0163 00       		.byte	0
 8279              	.LVUS126:
 8280 0164 00       		.uleb128 .LVU1129
 8281 0165 00       		.uleb128 .LVU1132
 8282              	.LLST126:
 8283 0166 08       		.byte	0x8
 8284 0167 80010000 		.long	.LVL160
 8285 016b 07       		.uleb128 .LVL161-.LVL160
 8286 016c 01       		.uleb128 0x1
 8287 016d 50       		.byte	0x50
 8288 016e 00       		.byte	0
 8289              	.LVUS127:
 8290 016f 01       		.uleb128 .LVU1126
 8291 0170 00       		.uleb128 .LVU1129
 8292              	.LLST127:
 8293 0171 08       		.byte	0x8
 8294 0172 76010000 		.long	.LVL159
 8295 0176 0A       		.uleb128 .LVL160-.LVL159
GAS LISTING /tmp/ccNgdVMZ.s 			page 149


 8296 0177 01       		.uleb128 0x1
 8297 0178 56       		.byte	0x56
 8298 0179 00       		.byte	0
 8299              	.LVUS128:
 8300 017a 01       		.uleb128 .LVU1126
 8301 017b 00       		.uleb128 .LVU1129
 8302              	.LLST128:
 8303 017c 08       		.byte	0x8
 8304 017d 76010000 		.long	.LVL159
 8305 0181 0A       		.uleb128 .LVL160-.LVL159
 8306 0182 01       		.uleb128 0x1
 8307 0183 57       		.byte	0x57
 8308 0184 00       		.byte	0
 8309              	.LVUS129:
 8310 0185 02       		.uleb128 .LVU1137
 8311 0186 01       		.uleb128 .LVU1148
 8312              	.LLST129:
 8313 0187 08       		.byte	0x8
 8314 0188 94010000 		.long	.LVL162
 8315 018c 0F       		.uleb128 .LVL163-.LVL162
 8316 018d 02       		.uleb128 0x2
 8317 018e 91       		.byte	0x91
 8318 018f 0C       		.sleb128 12
 8319 0190 00       		.byte	0
 8320              	.LVUS130:
 8321 0191 00       		.uleb128 .LVU1135
 8322 0192 01       		.uleb128 .LVU1148
 8323              	.LLST130:
 8324 0193 08       		.byte	0x8
 8325 0194 94010000 		.long	.LVL162
 8326 0198 0F       		.uleb128 .LVL163-.LVL162
 8327 0199 01       		.uleb128 0x1
 8328 019a 56       		.byte	0x56
 8329 019b 00       		.byte	0
 8330              	.LVUS115:
 8331 019c 02       		.uleb128 .LVU993
 8332 019d 00       		.uleb128 .LVU1001
 8333              	.LLST115:
 8334 019e 08       		.byte	0x8
 8335 019f 2B000000 		.long	.LVL131
 8336 01a3 69       		.uleb128 .LVL136-.LVL131
 8337 01a4 03       		.uleb128 0x3
 8338 01a5 08       		.byte	0x8
 8339 01a6 40       		.byte	0x40
 8340 01a7 9F       		.byte	0x9f
 8341 01a8 00       		.byte	0
 8342              	.LVUS116:
 8343 01a9 02       		.uleb128 .LVU993
 8344 01aa 00       		.uleb128 .LVU999
 8345 01ab 00       		.uleb128 .LVU999
 8346 01ac 00       		.uleb128 .LVU1001
 8347              	.LLST116:
 8348 01ad 06       		.byte	0x6
 8349 01ae 2B000000 		.long	.LVL131
 8350 01b2 04       		.byte	0x4
 8351 01b3 00       		.uleb128 .LVL131-.LVL131
 8352 01b4 0D       		.uleb128 .LVL134-.LVL131
GAS LISTING /tmp/ccNgdVMZ.s 			page 150


 8353 01b5 01       		.uleb128 0x1
 8354 01b6 57       		.byte	0x57
 8355 01b7 04       		.byte	0x4
 8356 01b8 0D       		.uleb128 .LVL134-.LVL131
 8357 01b9 69       		.uleb128 .LVL136-.LVL131
 8358 01ba 03       		.uleb128 0x3
 8359 01bb 77       		.byte	0x77
 8360 01bc 40       		.sleb128 -64
 8361 01bd 9F       		.byte	0x9f
 8362 01be 00       		.byte	0
 8363              	.LVUS117:
 8364 01bf 02       		.uleb128 .LVU993
 8365 01c0 00       		.uleb128 .LVU1000
 8366              	.LLST117:
 8367 01c1 08       		.byte	0x8
 8368 01c2 2B000000 		.long	.LVL131
 8369 01c6 0F       		.uleb128 .LVL135-.LVL131
 8370 01c7 02       		.uleb128 0x2
 8371 01c8 76       		.byte	0x76
 8372 01c9 28       		.sleb128 40
 8373 01ca 00       		.byte	0
 8374              	.LVUS119:
 8375 01cb 01       		.uleb128 .LVU1040
 8376 01cc 00       		.uleb128 .LVU1044
 8377 01cd 00       		.uleb128 .LVU1044
 8378 01ce 00       		.uleb128 .LVU1044
 8379              	.LLST119:
 8380 01cf 06       		.byte	0x6
 8381 01d0 DA000000 		.long	.LVL143
 8382 01d4 04       		.byte	0x4
 8383 01d5 00       		.uleb128 .LVL143-.LVL143
 8384 01d6 0E       		.uleb128 .LVL145-1-.LVL143
 8385 01d7 01       		.uleb128 0x1
 8386 01d8 52       		.byte	0x52
 8387 01d9 04       		.byte	0x4
 8388 01da 0E       		.uleb128 .LVL145-1-.LVL143
 8389 01db 0F       		.uleb128 .LVL145-.LVL143
 8390 01dc 02       		.uleb128 0x2
 8391 01dd 91       		.byte	0x91
 8392 01de 5C       		.sleb128 -36
 8393 01df 00       		.byte	0
 8394              	.LVUS120:
 8395 01e0 01       		.uleb128 .LVU1040
 8396 01e1 00       		.uleb128 .LVU1044
 8397              	.LLST120:
 8398 01e2 08       		.byte	0x8
 8399 01e3 DA000000 		.long	.LVL143
 8400 01e7 0F       		.uleb128 .LVL145-.LVL143
 8401 01e8 01       		.uleb128 0x1
 8402 01e9 57       		.byte	0x57
 8403 01ea 00       		.byte	0
 8404              	.LVUS121:
 8405 01eb 01       		.uleb128 .LVU1040
 8406 01ec 00       		.uleb128 .LVU1043
 8407              	.LLST121:
 8408 01ed 08       		.byte	0x8
 8409 01ee DA000000 		.long	.LVL143
GAS LISTING /tmp/ccNgdVMZ.s 			page 151


 8410 01f2 09       		.uleb128 .LVL144-.LVL143
 8411 01f3 02       		.uleb128 0x2
 8412 01f4 76       		.byte	0x76
 8413 01f5 28       		.sleb128 40
 8414 01f6 00       		.byte	0
 8415              	.LVUS123:
 8416 01f7 01       		.uleb128 .LVU1058
 8417 01f8 00       		.uleb128 .LVU1070
 8418 01f9 00       		.uleb128 .LVU1070
 8419 01fa 00       		.uleb128 .LVU1073
 8420 01fb 00       		.uleb128 .LVU1073
 8421 01fc 00       		.uleb128 .LVU1074
 8422 01fd 00       		.uleb128 .LVU1074
 8423 01fe 00       		.uleb128 .LVU1076
 8424 01ff 00       		.uleb128 .LVU1076
 8425 0200 00       		.uleb128 .LVU1088
 8426              	.LLST123:
 8427 0201 06       		.byte	0x6
 8428 0202 01010000 		.long	.LVL148
 8429 0206 04       		.byte	0x4
 8430 0207 00       		.uleb128 .LVL148-.LVL148
 8431 0208 09       		.uleb128 .LVL149-.LVL148
 8432 0209 06       		.uleb128 0x6
 8433 020a 76       		.byte	0x76
 8434 020b 1C       		.sleb128 28
 8435 020c 06       		.byte	0x6
 8436 020d 34       		.byte	0x34
 8437 020e 1C       		.byte	0x1c
 8438 020f 9F       		.byte	0x9f
 8439 0210 04       		.byte	0x4
 8440 0211 09       		.uleb128 .LVL149-.LVL148
 8441 0212 0E       		.uleb128 .LVL150-.LVL148
 8442 0213 01       		.uleb128 0x1
 8443 0214 52       		.byte	0x52
 8444 0215 04       		.byte	0x4
 8445 0216 0E       		.uleb128 .LVL150-.LVL148
 8446 0217 11       		.uleb128 .LVL151-.LVL148
 8447 0218 02       		.uleb128 0x2
 8448 0219 70       		.byte	0x70
 8449 021a 00       		.sleb128 0
 8450 021b 04       		.byte	0x4
 8451 021c 11       		.uleb128 .LVL151-.LVL148
 8452 021d 17       		.uleb128 .LVL152-.LVL148
 8453 021e 03       		.uleb128 0x3
 8454 021f 76       		.byte	0x76
 8455 0220 10       		.sleb128 16
 8456 0221 06       		.byte	0x6
 8457 0222 04       		.byte	0x4
 8458 0223 17       		.uleb128 .LVL152-.LVL148
 8459 0224 3C       		.uleb128 .LVL153-1-.LVL148
 8460 0225 03       		.uleb128 0x3
 8461 0226 71       		.byte	0x71
 8462 0227 7C       		.sleb128 -4
 8463 0228 9F       		.byte	0x9f
 8464 0229 00       		.byte	0
 8465              	.LVUS124:
 8466 022a 01       		.uleb128 .LVU1058
GAS LISTING /tmp/ccNgdVMZ.s 			page 152


 8467 022b 00       		.uleb128 .LVU1089
 8468              	.LLST124:
 8469 022c 08       		.byte	0x8
 8470 022d 01010000 		.long	.LVL148
 8471 0231 40       		.uleb128 .LVL154-.LVL148
 8472 0232 01       		.uleb128 0x1
 8473 0233 56       		.byte	0x56
 8474 0234 00       		.byte	0
 8475              	.LVUS95:
 8476 0235 01       		.uleb128 .LVU920
 8477 0236 00       		.uleb128 .LVU922
 8478 0237 00       		.uleb128 .LVU956
 8479 0238 00       		.uleb128 0
 8480              	.LLST95:
 8481 0239 06       		.byte	0x6
 8482 023a 80000000 		.long	.LVL120
 8483 023e 04       		.byte	0x4
 8484 023f 00       		.uleb128 .LVL120-.LVL120
 8485 0240 02       		.uleb128 .LVL121-.LVL120
 8486 0241 02       		.uleb128 0x2
 8487 0242 30       		.byte	0x30
 8488 0243 9F       		.byte	0x9f
 8489 0244 04       		.byte	0x4
 8490 0245 55       		.uleb128 .LVL129-.LVL120
 8491 0246 5A       		.uleb128 .LFE329-.LVL120
 8492 0247 03       		.uleb128 0x3
 8493 0248 09       		.byte	0x9
 8494 0249 FE       		.byte	0xfe
 8495 024a 9F       		.byte	0x9f
 8496 024b 00       		.byte	0
 8497              	.LVUS100:
 8498 024c 00       		.uleb128 .LVU903
 8499 024d 00       		.uleb128 .LVU906
 8500              	.LLST100:
 8501 024e 08       		.byte	0x8
 8502 024f 63000000 		.long	.LVL117
 8503 0253 07       		.uleb128 .LVL118-.LVL117
 8504 0254 01       		.uleb128 0x1
 8505 0255 50       		.byte	0x50
 8506 0256 00       		.byte	0
 8507              	.LVUS101:
 8508 0257 01       		.uleb128 .LVU900
 8509 0258 00       		.uleb128 .LVU903
 8510              	.LLST101:
 8511 0259 08       		.byte	0x8
 8512 025a 56000000 		.long	.LVL116
 8513 025e 0D       		.uleb128 .LVL117-.LVL116
 8514 025f 02       		.uleb128 0x2
 8515 0260 91       		.byte	0x91
 8516 0261 08       		.sleb128 8
 8517 0262 00       		.byte	0
 8518              	.LVUS102:
 8519 0263 01       		.uleb128 .LVU900
 8520 0264 00       		.uleb128 .LVU903
 8521              	.LLST102:
 8522 0265 08       		.byte	0x8
 8523 0266 56000000 		.long	.LVL116
GAS LISTING /tmp/ccNgdVMZ.s 			page 153


 8524 026a 0D       		.uleb128 .LVL117-.LVL116
 8525 026b 01       		.uleb128 0x1
 8526 026c 57       		.byte	0x57
 8527 026d 00       		.byte	0
 8528              	.LVUS103:
 8529 026e 01       		.uleb128 .LVU909
 8530 026f 01       		.uleb128 .LVU920
 8531              	.LLST103:
 8532 0270 08       		.byte	0x8
 8533 0271 71000000 		.long	.LVL119
 8534 0275 0F       		.uleb128 .LVL120-.LVL119
 8535 0276 02       		.uleb128 0x2
 8536 0277 91       		.byte	0x91
 8537 0278 08       		.sleb128 8
 8538 0279 00       		.byte	0
 8539              	.LVUS104:
 8540 027a 00       		.uleb128 .LVU908
 8541 027b 01       		.uleb128 .LVU920
 8542              	.LLST104:
 8543 027c 08       		.byte	0x8
 8544 027d 71000000 		.long	.LVL119
 8545 0281 0F       		.uleb128 .LVL120-.LVL119
 8546 0282 01       		.uleb128 0x1
 8547 0283 57       		.byte	0x57
 8548 0284 00       		.byte	0
 8549              	.LVUS106:
 8550 0285 01       		.uleb128 .LVU923
 8551 0286 00       		.uleb128 .LVU935
 8552 0287 00       		.uleb128 .LVU935
 8553 0288 00       		.uleb128 .LVU938
 8554 0289 00       		.uleb128 .LVU938
 8555 028a 00       		.uleb128 .LVU939
 8556 028b 00       		.uleb128 .LVU939
 8557 028c 00       		.uleb128 .LVU941
 8558 028d 00       		.uleb128 .LVU941
 8559 028e 00       		.uleb128 .LVU951
 8560 028f 00       		.uleb128 .LVU952
 8561 0290 00       		.uleb128 .LVU954
 8562              	.LLST106:
 8563 0291 06       		.byte	0x6
 8564 0292 82000000 		.long	.LVL121
 8565 0296 04       		.byte	0x4
 8566 0297 00       		.uleb128 .LVL121-.LVL121
 8567 0298 0F       		.uleb128 .LVL122-.LVL121
 8568 0299 06       		.uleb128 0x6
 8569 029a 77       		.byte	0x77
 8570 029b 1C       		.sleb128 28
 8571 029c 06       		.byte	0x6
 8572 029d 34       		.byte	0x34
 8573 029e 1C       		.byte	0x1c
 8574 029f 9F       		.byte	0x9f
 8575 02a0 04       		.byte	0x4
 8576 02a1 0F       		.uleb128 .LVL122-.LVL121
 8577 02a2 14       		.uleb128 .LVL123-.LVL121
 8578 02a3 01       		.uleb128 0x1
 8579 02a4 51       		.byte	0x51
 8580 02a5 04       		.byte	0x4
GAS LISTING /tmp/ccNgdVMZ.s 			page 154


 8581 02a6 14       		.uleb128 .LVL123-.LVL121
 8582 02a7 17       		.uleb128 .LVL124-.LVL121
 8583 02a8 02       		.uleb128 0x2
 8584 02a9 70       		.byte	0x70
 8585 02aa 00       		.sleb128 0
 8586 02ab 04       		.byte	0x4
 8587 02ac 17       		.uleb128 .LVL124-.LVL121
 8588 02ad 1D       		.uleb128 .LVL125-.LVL121
 8589 02ae 03       		.uleb128 0x3
 8590 02af 77       		.byte	0x77
 8591 02b0 10       		.sleb128 16
 8592 02b1 06       		.byte	0x6
 8593 02b2 04       		.byte	0x4
 8594 02b3 1D       		.uleb128 .LVL125-.LVL121
 8595 02b4 38       		.uleb128 .LVL126-1-.LVL121
 8596 02b5 03       		.uleb128 0x3
 8597 02b6 72       		.byte	0x72
 8598 02b7 7C       		.sleb128 -4
 8599 02b8 9F       		.byte	0x9f
 8600 02b9 04       		.byte	0x4
 8601 02ba 41       		.uleb128 .LVL127-.LVL121
 8602 02bb 4E       		.uleb128 .LVL128-.LVL121
 8603 02bc 03       		.uleb128 0x3
 8604 02bd 72       		.byte	0x72
 8605 02be 7C       		.sleb128 -4
 8606 02bf 9F       		.byte	0x9f
 8607 02c0 00       		.byte	0
 8608              	.LVUS107:
 8609 02c1 01       		.uleb128 .LVU923
 8610 02c2 00       		.uleb128 .LVU954
 8611              	.LLST107:
 8612 02c3 08       		.byte	0x8
 8613 02c4 82000000 		.long	.LVL121
 8614 02c8 4E       		.uleb128 .LVL128-.LVL121
 8615 02c9 01       		.uleb128 0x1
 8616 02ca 57       		.byte	0x57
 8617 02cb 00       		.byte	0
 8618              	.LVUS92:
 8619 02cc 03       		.uleb128 .LVU794
 8620 02cd 00       		.uleb128 .LVU806
 8621 02ce 00       		.uleb128 .LVU806
 8622 02cf 00       		.uleb128 .LVU822
 8623              	.LLST92:
 8624 02d0 06       		.byte	0x6
 8625 02d1 26000000 		.long	.LVL108
 8626 02d5 04       		.byte	0x4
 8627 02d6 00       		.uleb128 .LVL108-.LVL108
 8628 02d7 05       		.uleb128 .LVL109-.LVL108
 8629 02d8 01       		.uleb128 0x1
 8630 02d9 51       		.byte	0x51
 8631 02da 04       		.byte	0x4
 8632 02db 05       		.uleb128 .LVL109-.LVL108
 8633 02dc 33       		.uleb128 .LVL111-.LVL108
 8634 02dd 02       		.uleb128 0x2
 8635 02de 91       		.byte	0x91
 8636 02df 04       		.sleb128 4
 8637 02e0 00       		.byte	0
GAS LISTING /tmp/ccNgdVMZ.s 			page 155


 8638              	.LVUS93:
 8639 02e1 03       		.uleb128 .LVU794
 8640 02e2 00       		.uleb128 .LVU821
 8641 02e3 00       		.uleb128 .LVU821
 8642 02e4 00       		.uleb128 .LVU822
 8643              	.LLST93:
 8644 02e5 06       		.byte	0x6
 8645 02e6 26000000 		.long	.LVL108
 8646 02ea 04       		.byte	0x4
 8647 02eb 00       		.uleb128 .LVL108-.LVL108
 8648 02ec 2F       		.uleb128 .LVL110-1-.LVL108
 8649 02ed 01       		.uleb128 0x1
 8650 02ee 50       		.byte	0x50
 8651 02ef 04       		.byte	0x4
 8652 02f0 2F       		.uleb128 .LVL110-1-.LVL108
 8653 02f1 33       		.uleb128 .LVL111-.LVL108
 8654 02f2 02       		.uleb128 0x2
 8655 02f3 91       		.byte	0x91
 8656 02f4 00       		.sleb128 0
 8657 02f5 00       		.byte	0
 8658              	.LVUS72:
 8659 02f6 00       		.uleb128 .LVU709
 8660 02f7 00       		.uleb128 .LVU725
 8661 02f8 00       		.uleb128 .LVU728
 8662 02f9 00       		.uleb128 0
 8663              	.LLST72:
 8664 02fa 06       		.byte	0x6
 8665 02fb 5F000000 		.long	.LVL98
 8666 02ff 04       		.byte	0x4
 8667 0300 00       		.uleb128 .LVL98-.LVL98
 8668 0301 0E       		.uleb128 .LVL99-.LVL98
 8669 0302 01       		.uleb128 0x1
 8670 0303 50       		.byte	0x50
 8671 0304 04       		.byte	0x4
 8672 0305 1F       		.uleb128 .LVL100-.LVL98
 8673 0306 24       		.uleb128 .LFE325-.LVL98
 8674 0307 01       		.uleb128 0x1
 8675 0308 50       		.byte	0x50
 8676 0309 00       		.byte	0
 8677              	.LVUS75:
 8678 030a 03       		.uleb128 .LVU681
 8679 030b 00       		.uleb128 .LVU709
 8680 030c 00       		.uleb128 .LVU725
 8681 030d 00       		.uleb128 .LVU728
 8682              	.LLST75:
 8683 030e 06       		.byte	0x6
 8684 030f 26000000 		.long	.LVL92
 8685 0313 04       		.byte	0x4
 8686 0314 00       		.uleb128 .LVL92-.LVL92
 8687 0315 39       		.uleb128 .LVL98-.LVL92
 8688 0316 01       		.uleb128 0x1
 8689 0317 56       		.byte	0x56
 8690 0318 04       		.byte	0x4
 8691 0319 47       		.uleb128 .LVL99-.LVL92
 8692 031a 58       		.uleb128 .LVL100-.LVL92
 8693 031b 01       		.uleb128 0x1
 8694 031c 56       		.byte	0x56
GAS LISTING /tmp/ccNgdVMZ.s 			page 156


 8695 031d 00       		.byte	0
 8696              	.LVUS76:
 8697 031e 03       		.uleb128 .LVU681
 8698 031f 00       		.uleb128 .LVU709
 8699 0320 00       		.uleb128 .LVU725
 8700 0321 00       		.uleb128 .LVU728
 8701              	.LLST76:
 8702 0322 06       		.byte	0x6
 8703 0323 26000000 		.long	.LVL92
 8704 0327 04       		.byte	0x4
 8705 0328 00       		.uleb128 .LVL92-.LVL92
 8706 0329 39       		.uleb128 .LVL98-.LVL92
 8707 032a 01       		.uleb128 0x1
 8708 032b 55       		.byte	0x55
 8709 032c 04       		.byte	0x4
 8710 032d 47       		.uleb128 .LVL99-.LVL92
 8711 032e 58       		.uleb128 .LVL100-.LVL92
 8712 032f 01       		.uleb128 0x1
 8713 0330 55       		.byte	0x55
 8714 0331 00       		.byte	0
 8715              	.LVUS78:
 8716 0332 00       		.uleb128 .LVU691
 8717 0333 00       		.uleb128 .LVU694
 8718              	.LLST78:
 8719 0334 08       		.byte	0x8
 8720 0335 40000000 		.long	.LVL94
 8721 0339 07       		.uleb128 .LVL95-.LVL94
 8722 033a 01       		.uleb128 0x1
 8723 033b 50       		.byte	0x50
 8724 033c 00       		.byte	0
 8725              	.LVUS79:
 8726 033d 01       		.uleb128 .LVU688
 8727 033e 00       		.uleb128 .LVU691
 8728              	.LLST79:
 8729 033f 08       		.byte	0x8
 8730 0340 36000000 		.long	.LVL93
 8731 0344 0A       		.uleb128 .LVL94-.LVL93
 8732 0345 01       		.uleb128 0x1
 8733 0346 56       		.byte	0x56
 8734 0347 00       		.byte	0
 8735              	.LVUS80:
 8736 0348 01       		.uleb128 .LVU688
 8737 0349 00       		.uleb128 .LVU691
 8738              	.LLST80:
 8739 034a 08       		.byte	0x8
 8740 034b 36000000 		.long	.LVL93
 8741 034f 0A       		.uleb128 .LVL94-.LVL93
 8742 0350 01       		.uleb128 0x1
 8743 0351 55       		.byte	0x55
 8744 0352 00       		.byte	0
 8745              	.LVUS81:
 8746 0353 01       		.uleb128 .LVU697
 8747 0354 01       		.uleb128 .LVU708
 8748              	.LLST81:
 8749 0355 08       		.byte	0x8
 8750 0356 4E000000 		.long	.LVL96
 8751 035a 0F       		.uleb128 .LVL97-.LVL96
GAS LISTING /tmp/ccNgdVMZ.s 			page 157


 8752 035b 01       		.uleb128 0x1
 8753 035c 56       		.byte	0x56
 8754 035d 00       		.byte	0
 8755              	.LVUS82:
 8756 035e 00       		.uleb128 .LVU696
 8757 035f 01       		.uleb128 .LVU708
 8758              	.LLST82:
 8759 0360 08       		.byte	0x8
 8760 0361 4E000000 		.long	.LVL96
 8761 0365 0F       		.uleb128 .LVL97-.LVL96
 8762 0366 01       		.uleb128 0x1
 8763 0367 55       		.byte	0x55
 8764 0368 00       		.byte	0
 8765              	.LVUS70:
 8766 0369 01       		.uleb128 .LVU661
 8767 036a 00       		.uleb128 .LVU663
 8768              	.LLST70:
 8769 036b 08       		.byte	0x8
 8770 036c 30000000 		.long	.LVL89
 8771 0370 0B       		.uleb128 .LVL90-.LVL89
 8772 0371 02       		.uleb128 0x2
 8773 0372 30       		.byte	0x30
 8774 0373 9F       		.byte	0x9f
 8775 0374 00       		.byte	0
 8776              	.LVUS71:
 8777 0375 01       		.uleb128 .LVU661
 8778 0376 00       		.uleb128 .LVU663
 8779 0377 00       		.uleb128 .LVU663
 8780 0378 00       		.uleb128 .LVU663
 8781              	.LLST71:
 8782 0379 06       		.byte	0x6
 8783 037a 30000000 		.long	.LVL89
 8784 037e 04       		.byte	0x4
 8785 037f 00       		.uleb128 .LVL89-.LVL89
 8786 0380 0A       		.uleb128 .LVL90-1-.LVL89
 8787 0381 01       		.uleb128 0x1
 8788 0382 50       		.byte	0x50
 8789 0383 04       		.byte	0x4
 8790 0384 0A       		.uleb128 .LVL90-1-.LVL89
 8791 0385 0B       		.uleb128 .LVL90-.LVL89
 8792 0386 02       		.uleb128 0x2
 8793 0387 91       		.byte	0x91
 8794 0388 00       		.sleb128 0
 8795 0389 00       		.byte	0
 8796              	.LVUS69:
 8797 038a 00       		.uleb128 0
 8798 038b 00       		.uleb128 .LVU639
 8799 038c 00       		.uleb128 .LVU639
 8800 038d 00       		.uleb128 .LVU640
 8801 038e 00       		.uleb128 .LVU640
 8802 038f 00       		.uleb128 0
 8803              	.LLST69:
 8804 0390 06       		.byte	0x6
 8805 0391 00000000 		.long	.LVL85
 8806 0395 04       		.byte	0x4
 8807 0396 00       		.uleb128 .LVL85-.LVL85
 8808 0397 18       		.uleb128 .LVL86-.LVL85
GAS LISTING /tmp/ccNgdVMZ.s 			page 158


 8809 0398 02       		.uleb128 0x2
 8810 0399 91       		.byte	0x91
 8811 039a 00       		.sleb128 0
 8812 039b 04       		.byte	0x4
 8813 039c 18       		.uleb128 .LVL86-.LVL85
 8814 039d 23       		.uleb128 .LVL87-.LVL85
 8815 039e 01       		.uleb128 0x1
 8816 039f 52       		.byte	0x52
 8817 03a0 04       		.byte	0x4
 8818 03a1 23       		.uleb128 .LVL87-.LVL85
 8819 03a2 32       		.uleb128 .LFE323-.LVL85
 8820 03a3 02       		.uleb128 0x2
 8821 03a4 91       		.byte	0x91
 8822 03a5 00       		.sleb128 0
 8823 03a6 00       		.byte	0
 8824              	.LVUS67:
 8825 03a7 03       		.uleb128 .LVU625
 8826 03a8 00       		.uleb128 .LVU627
 8827              	.LLST67:
 8828 03a9 08       		.byte	0x8
 8829 03aa 30000000 		.long	.LVL83
 8830 03ae 08       		.uleb128 .LVL84-.LVL83
 8831 03af 03       		.uleb128 0x3
 8832 03b0 09       		.byte	0x9
 8833 03b1 FE       		.byte	0xfe
 8834 03b2 9F       		.byte	0x9f
 8835 03b3 00       		.byte	0
 8836              	.LVUS68:
 8837 03b4 03       		.uleb128 .LVU625
 8838 03b5 00       		.uleb128 .LVU627
 8839 03b6 00       		.uleb128 .LVU627
 8840 03b7 00       		.uleb128 .LVU627
 8841              	.LLST68:
 8842 03b8 06       		.byte	0x6
 8843 03b9 30000000 		.long	.LVL83
 8844 03bd 04       		.byte	0x4
 8845 03be 00       		.uleb128 .LVL83-.LVL83
 8846 03bf 07       		.uleb128 .LVL84-1-.LVL83
 8847 03c0 01       		.uleb128 0x1
 8848 03c1 50       		.byte	0x50
 8849 03c2 04       		.byte	0x4
 8850 03c3 07       		.uleb128 .LVL84-1-.LVL83
 8851 03c4 08       		.uleb128 .LVL84-.LVL83
 8852 03c5 02       		.uleb128 0x2
 8853 03c6 91       		.byte	0x91
 8854 03c7 00       		.sleb128 0
 8855 03c8 00       		.byte	0
 8856              	.LVUS66:
 8857 03c9 00       		.uleb128 .LVU570
 8858 03ca 00       		.uleb128 .LVU574
 8859              	.LLST66:
 8860 03cb 08       		.byte	0x8
 8861 03cc 16000000 		.long	.LVL80
 8862 03d0 16       		.uleb128 .LVL81-.LVL80
 8863 03d1 01       		.uleb128 0x1
 8864 03d2 56       		.byte	0x56
 8865 03d3 00       		.byte	0
GAS LISTING /tmp/ccNgdVMZ.s 			page 159


 8866              	.LVUS41:
 8867 03d4 00       		.uleb128 0
 8868 03d5 00       		.uleb128 .LVU413
 8869 03d6 02       		.uleb128 .LVU425
 8870 03d7 00       		.uleb128 .LVU445
 8871 03d8 00       		.uleb128 .LVU447
 8872 03d9 00       		.uleb128 .LVU454
 8873 03da 00       		.uleb128 .LVU473
 8874 03db 00       		.uleb128 .LVU515
 8875 03dc 00       		.uleb128 .LVU532
 8876 03dd 00       		.uleb128 .LVU533
 8877 03de 00       		.uleb128 .LVU533
 8878 03df 00       		.uleb128 0
 8879              	.LLST41:
 8880 03e0 06       		.byte	0x6
 8881 03e1 00000000 		.long	.LVL49
 8882 03e5 04       		.byte	0x4
 8883 03e6 00       		.uleb128 .LVL49-.LVL49
 8884 03e7 2B       		.uleb128 .LVL50-.LVL49
 8885 03e8 02       		.uleb128 0x2
 8886 03e9 91       		.byte	0x91
 8887 03ea 04       		.sleb128 4
 8888 03eb 04       		.byte	0x4
 8889 03ec 9501     		.uleb128 .LVL55-.LVL49
 8890 03ee AD01     		.uleb128 .LVL57-.LVL49
 8891 03f0 01       		.uleb128 0x1
 8892 03f1 57       		.byte	0x57
 8893 03f2 04       		.byte	0x4
 8894 03f3 B701     		.uleb128 .LVL58-.LVL49
 8895 03f5 C501     		.uleb128 .LVL59-.LVL49
 8896 03f7 01       		.uleb128 0x1
 8897 03f8 57       		.byte	0x57
 8898 03f9 04       		.byte	0x4
 8899 03fa F801     		.uleb128 .LVL65-.LVL49
 8900 03fc C402     		.uleb128 .LVL70-.LVL49
 8901 03fe 01       		.uleb128 0x1
 8902 03ff 57       		.byte	0x57
 8903 0400 04       		.byte	0x4
 8904 0401 D802     		.uleb128 .LVL72-.LVL49
 8905 0403 E602     		.uleb128 .LVL73-.LVL49
 8906 0405 01       		.uleb128 0x1
 8907 0406 57       		.byte	0x57
 8908 0407 04       		.byte	0x4
 8909 0408 E602     		.uleb128 .LVL73-.LVL49
 8910 040a AB03     		.uleb128 .LFE320-.LVL49
 8911 040c 02       		.uleb128 0x2
 8912 040d 91       		.byte	0x91
 8913 040e 04       		.sleb128 4
 8914 040f 00       		.byte	0
 8915              	.LVUS42:
 8916 0410 02       		.uleb128 .LVU396
 8917 0411 00       		.uleb128 .LVU413
 8918 0412 00       		.uleb128 .LVU413
 8919 0413 00       		.uleb128 .LVU421
 8920 0414 00       		.uleb128 .LVU421
 8921 0415 01       		.uleb128 .LVU428
 8922 0416 01       		.uleb128 .LVU428
GAS LISTING /tmp/ccNgdVMZ.s 			page 160


 8923 0417 00       		.uleb128 .LVU445
 8924 0418 00       		.uleb128 .LVU447
 8925 0419 00       		.uleb128 .LVU531
 8926 041a 00       		.uleb128 .LVU531
 8927 041b 00       		.uleb128 .LVU532
 8928 041c 00       		.uleb128 .LVU532
 8929 041d 00       		.uleb128 0
 8930              	.LLST42:
 8931 041e 06       		.byte	0x6
 8932 041f 00000000 		.long	.LVL49
 8933 0423 04       		.byte	0x4
 8934 0424 00       		.uleb128 .LVL49-.LVL49
 8935 0425 2B       		.uleb128 .LVL50-.LVL49
 8936 0426 02       		.uleb128 0x2
 8937 0427 30       		.byte	0x30
 8938 0428 9F       		.byte	0x9f
 8939 0429 04       		.byte	0x4
 8940 042a 2B       		.uleb128 .LVL50-.LVL49
 8941 042b 38       		.uleb128 .LVL53-.LVL49
 8942 042c 01       		.uleb128 0x1
 8943 042d 55       		.byte	0x55
 8944 042e 04       		.byte	0x4
 8945 042f 38       		.uleb128 .LVL53-.LVL49
 8946 0430 9B01     		.uleb128 .LVL56-.LVL49
 8947 0432 03       		.uleb128 0x3
 8948 0433 75       		.byte	0x75
 8949 0434 40       		.sleb128 -64
 8950 0435 9F       		.byte	0x9f
 8951 0436 04       		.byte	0x4
 8952 0437 9B01     		.uleb128 .LVL56-.LVL49
 8953 0439 AD01     		.uleb128 .LVL57-.LVL49
 8954 043b 01       		.uleb128 0x1
 8955 043c 55       		.byte	0x55
 8956 043d 04       		.byte	0x4
 8957 043e B701     		.uleb128 .LVL58-.LVL49
 8958 0440 D702     		.uleb128 .LVL71-.LVL49
 8959 0442 01       		.uleb128 0x1
 8960 0443 55       		.byte	0x55
 8961 0444 04       		.byte	0x4
 8962 0445 D702     		.uleb128 .LVL71-.LVL49
 8963 0447 D802     		.uleb128 .LVL72-.LVL49
 8964 0449 01       		.uleb128 0x1
 8965 044a 50       		.byte	0x50
 8966 044b 04       		.byte	0x4
 8967 044c D802     		.uleb128 .LVL72-.LVL49
 8968 044e AB03     		.uleb128 .LFE320-.LVL49
 8969 0450 01       		.uleb128 0x1
 8970 0451 55       		.byte	0x55
 8971 0452 00       		.byte	0
 8972              	.LVUS46:
 8973 0453 00       		.uleb128 .LVU413
 8974 0454 00       		.uleb128 .LVU418
 8975 0455 01       		.uleb128 .LVU455
 8976 0456 00       		.uleb128 .LVU458
 8977 0457 00       		.uleb128 .LVU458
 8978 0458 00       		.uleb128 .LVU466
 8979 0459 00       		.uleb128 .LVU466
GAS LISTING /tmp/ccNgdVMZ.s 			page 161


 8980 045a 00       		.uleb128 .LVU479
 8981              	.LLST46:
 8982 045b 06       		.byte	0x6
 8983 045c 2B000000 		.long	.LVL50
 8984 0460 04       		.byte	0x4
 8985 0461 00       		.uleb128 .LVL50-.LVL50
 8986 0462 07       		.uleb128 .LVL51-.LVL50
 8987 0463 01       		.uleb128 0x1
 8988 0464 52       		.byte	0x52
 8989 0465 04       		.byte	0x4
 8990 0466 9A01     		.uleb128 .LVL59-.LVL50
 8991 0468 A001     		.uleb128 .LVL60-.LVL50
 8992 046a 06       		.uleb128 0x6
 8993 046b 72       		.byte	0x72
 8994 046c 00       		.sleb128 0
 8995 046d 70       		.byte	0x70
 8996 046e 00       		.sleb128 0
 8997 046f 1C       		.byte	0x1c
 8998 0470 9F       		.byte	0x9f
 8999 0471 04       		.byte	0x4
 9000 0472 A001     		.uleb128 .LVL60-.LVL50
 9001 0474 BE01     		.uleb128 .LVL64-1-.LVL50
 9002 0476 01       		.uleb128 0x1
 9003 0477 52       		.byte	0x52
 9004 0478 04       		.byte	0x4
 9005 0479 BE01     		.uleb128 .LVL64-1-.LVL50
 9006 047b D701     		.uleb128 .LVL67-.LVL50
 9007 047d 02       		.uleb128 0x2
 9008 047e 91       		.byte	0x91
 9009 047f 5C       		.sleb128 -36
 9010 0480 00       		.byte	0
 9011              	.LVUS58:
 9012 0481 00       		.uleb128 .LVU540
 9013 0482 00       		.uleb128 .LVU543
 9014              	.LLST58:
 9015 0483 08       		.byte	0x8
 9016 0484 80010000 		.long	.LVL75
 9017 0488 07       		.uleb128 .LVL76-.LVL75
 9018 0489 01       		.uleb128 0x1
 9019 048a 50       		.byte	0x50
 9020 048b 00       		.byte	0
 9021              	.LVUS59:
 9022 048c 01       		.uleb128 .LVU537
 9023 048d 00       		.uleb128 .LVU540
 9024              	.LLST59:
 9025 048e 08       		.byte	0x8
 9026 048f 76010000 		.long	.LVL74
 9027 0493 0A       		.uleb128 .LVL75-.LVL74
 9028 0494 01       		.uleb128 0x1
 9029 0495 56       		.byte	0x56
 9030 0496 00       		.byte	0
 9031              	.LVUS60:
 9032 0497 01       		.uleb128 .LVU537
 9033 0498 00       		.uleb128 .LVU540
 9034              	.LLST60:
 9035 0499 08       		.byte	0x8
 9036 049a 76010000 		.long	.LVL74
GAS LISTING /tmp/ccNgdVMZ.s 			page 162


 9037 049e 0A       		.uleb128 .LVL75-.LVL74
 9038 049f 01       		.uleb128 0x1
 9039 04a0 57       		.byte	0x57
 9040 04a1 00       		.byte	0
 9041              	.LVUS62:
 9042 04a2 02       		.uleb128 .LVU548
 9043 04a3 01       		.uleb128 .LVU560
 9044              	.LLST62:
 9045 04a4 08       		.byte	0x8
 9046 04a5 94010000 		.long	.LVL77
 9047 04a9 10       		.uleb128 .LVL78-.LVL77
 9048 04aa 02       		.uleb128 0x2
 9049 04ab 91       		.byte	0x91
 9050 04ac 0C       		.sleb128 12
 9051 04ad 00       		.byte	0
 9052              	.LVUS63:
 9053 04ae 00       		.uleb128 .LVU546
 9054 04af 01       		.uleb128 .LVU560
 9055              	.LLST63:
 9056 04b0 08       		.byte	0x8
 9057 04b1 94010000 		.long	.LVL77
 9058 04b5 10       		.uleb128 .LVL78-.LVL77
 9059 04b6 01       		.uleb128 0x1
 9060 04b7 56       		.byte	0x56
 9061 04b8 00       		.byte	0
 9062              	.LVUS48:
 9063 04b9 02       		.uleb128 .LVU415
 9064 04ba 00       		.uleb128 .LVU423
 9065              	.LLST48:
 9066 04bb 08       		.byte	0x8
 9067 04bc 2B000000 		.long	.LVL50
 9068 04c0 6A       		.uleb128 .LVL55-.LVL50
 9069 04c1 03       		.uleb128 0x3
 9070 04c2 08       		.byte	0x8
 9071 04c3 40       		.byte	0x40
 9072 04c4 9F       		.byte	0x9f
 9073 04c5 00       		.byte	0
 9074              	.LVUS49:
 9075 04c6 02       		.uleb128 .LVU415
 9076 04c7 00       		.uleb128 .LVU422
 9077              	.LLST49:
 9078 04c8 08       		.byte	0x8
 9079 04c9 2B000000 		.long	.LVL50
 9080 04cd 10       		.uleb128 .LVL54-.LVL50
 9081 04ce 02       		.uleb128 0x2
 9082 04cf 76       		.byte	0x76
 9083 04d0 28       		.sleb128 40
 9084 04d1 00       		.byte	0
 9085              	.LVUS50:
 9086 04d2 02       		.uleb128 .LVU415
 9087 04d3 00       		.uleb128 .LVU420
 9088 04d4 00       		.uleb128 .LVU420
 9089 04d5 00       		.uleb128 .LVU423
 9090              	.LLST50:
 9091 04d6 06       		.byte	0x6
 9092 04d7 2B000000 		.long	.LVL50
 9093 04db 04       		.byte	0x4
GAS LISTING /tmp/ccNgdVMZ.s 			page 163


 9094 04dc 00       		.uleb128 .LVL50-.LVL50
 9095 04dd 0A       		.uleb128 .LVL52-.LVL50
 9096 04de 01       		.uleb128 0x1
 9097 04df 57       		.byte	0x57
 9098 04e0 04       		.byte	0x4
 9099 04e1 0A       		.uleb128 .LVL52-.LVL50
 9100 04e2 6A       		.uleb128 .LVL55-.LVL50
 9101 04e3 03       		.uleb128 0x3
 9102 04e4 77       		.byte	0x77
 9103 04e5 40       		.sleb128 -64
 9104 04e6 9F       		.byte	0x9f
 9105 04e7 00       		.byte	0
 9106              	.LVUS52:
 9107 04e8 01       		.uleb128 .LVU462
 9108 04e9 00       		.uleb128 .LVU466
 9109 04ea 00       		.uleb128 .LVU466
 9110 04eb 00       		.uleb128 .LVU466
 9111              	.LLST52:
 9112 04ec 06       		.byte	0x6
 9113 04ed DB000000 		.long	.LVL62
 9114 04f1 04       		.byte	0x4
 9115 04f2 00       		.uleb128 .LVL62-.LVL62
 9116 04f3 0E       		.uleb128 .LVL64-1-.LVL62
 9117 04f4 01       		.uleb128 0x1
 9118 04f5 52       		.byte	0x52
 9119 04f6 04       		.byte	0x4
 9120 04f7 0E       		.uleb128 .LVL64-1-.LVL62
 9121 04f8 0F       		.uleb128 .LVL64-.LVL62
 9122 04f9 02       		.uleb128 0x2
 9123 04fa 91       		.byte	0x91
 9124 04fb 5C       		.sleb128 -36
 9125 04fc 00       		.byte	0
 9126              	.LVUS53:
 9127 04fd 01       		.uleb128 .LVU462
 9128 04fe 00       		.uleb128 .LVU465
 9129              	.LLST53:
 9130 04ff 08       		.byte	0x8
 9131 0500 DB000000 		.long	.LVL62
 9132 0504 09       		.uleb128 .LVL63-.LVL62
 9133 0505 02       		.uleb128 0x2
 9134 0506 76       		.byte	0x76
 9135 0507 28       		.sleb128 40
 9136 0508 00       		.byte	0
 9137              	.LVUS54:
 9138 0509 01       		.uleb128 .LVU462
 9139 050a 00       		.uleb128 .LVU466
 9140              	.LLST54:
 9141 050b 08       		.byte	0x8
 9142 050c DB000000 		.long	.LVL62
 9143 0510 0F       		.uleb128 .LVL64-.LVL62
 9144 0511 01       		.uleb128 0x1
 9145 0512 57       		.byte	0x57
 9146 0513 00       		.byte	0
 9147              	.LVUS55:
 9148 0514 01       		.uleb128 .LVU480
 9149 0515 00       		.uleb128 .LVU500
 9150              	.LLST55:
GAS LISTING /tmp/ccNgdVMZ.s 			page 164


 9151 0516 08       		.byte	0x8
 9152 0517 02010000 		.long	.LVL67
 9153 051b 38       		.uleb128 .LVL69-.LVL67
 9154 051c 01       		.uleb128 0x1
 9155 051d 56       		.byte	0x56
 9156 051e 00       		.byte	0
 9157              	.LVUS29:
 9158 051f 00       		.uleb128 .LVU315
 9159 0520 00       		.uleb128 .LVU319
 9160 0521 01       		.uleb128 .LVU345
 9161 0522 00       		.uleb128 .LVU347
 9162 0523 00       		.uleb128 .LVU347
 9163 0524 00       		.uleb128 .LVU366
 9164 0525 00       		.uleb128 .LVU366
 9165 0526 00       		.uleb128 .LVU374
 9166 0527 00       		.uleb128 .LVU374
 9167 0528 00       		.uleb128 .LVU376
 9168 0529 00       		.uleb128 .LVU378
 9169 052a 00       		.uleb128 0
 9170              	.LLST29:
 9171 052b 06       		.byte	0x6
 9172 052c 33000000 		.long	.LVL36
 9173 0530 04       		.byte	0x4
 9174 0531 00       		.uleb128 .LVL36-.LVL36
 9175 0532 0A       		.uleb128 .LVL37-.LVL36
 9176 0533 01       		.uleb128 0x1
 9177 0534 50       		.byte	0x50
 9178 0535 04       		.byte	0x4
 9179 0536 4B       		.uleb128 .LVL42-.LVL36
 9180 0537 4D       		.uleb128 .LVL43-.LVL36
 9181 0538 02       		.uleb128 0x2
 9182 0539 30       		.byte	0x30
 9183 053a 9F       		.byte	0x9f
 9184 053b 04       		.byte	0x4
 9185 053c 4D       		.uleb128 .LVL43-.LVL36
 9186 053d 7B       		.uleb128 .LVL44-1-.LVL36
 9187 053e 01       		.uleb128 0x1
 9188 053f 50       		.byte	0x50
 9189 0540 04       		.byte	0x4
 9190 0541 7B       		.uleb128 .LVL44-1-.LVL36
 9191 0542 9101     		.uleb128 .LVL46-.LVL36
 9192 0544 02       		.uleb128 0x2
 9193 0545 91       		.byte	0x91
 9194 0546 5C       		.sleb128 -36
 9195 0547 04       		.byte	0x4
 9196 0548 9101     		.uleb128 .LVL46-.LVL36
 9197 054a 9D01     		.uleb128 .LVL47-.LVL36
 9198 054c 01       		.uleb128 0x1
 9199 054d 50       		.byte	0x50
 9200 054e 04       		.byte	0x4
 9201 054f A201     		.uleb128 .LVL48-.LVL36
 9202 0551 A701     		.uleb128 .LFE319-.LVL36
 9203 0553 03       		.uleb128 0x3
 9204 0554 09       		.byte	0x9
 9205 0555 FE       		.byte	0xfe
 9206 0556 9F       		.byte	0x9f
 9207 0557 00       		.byte	0
GAS LISTING /tmp/ccNgdVMZ.s 			page 165


 9208              	.LVUS34:
 9209 0558 00       		.uleb128 .LVU327
 9210 0559 00       		.uleb128 .LVU330
 9211              	.LLST34:
 9212 055a 08       		.byte	0x8
 9213 055b 60000000 		.long	.LVL39
 9214 055f 07       		.uleb128 .LVL40-.LVL39
 9215 0560 01       		.uleb128 0x1
 9216 0561 50       		.byte	0x50
 9217 0562 00       		.byte	0
 9218              	.LVUS35:
 9219 0563 01       		.uleb128 .LVU324
 9220 0564 00       		.uleb128 .LVU327
 9221              	.LLST35:
 9222 0565 08       		.byte	0x8
 9223 0566 56000000 		.long	.LVL38
 9224 056a 0A       		.uleb128 .LVL39-.LVL38
 9225 056b 01       		.uleb128 0x1
 9226 056c 55       		.byte	0x55
 9227 056d 00       		.byte	0
 9228              	.LVUS36:
 9229 056e 01       		.uleb128 .LVU324
 9230 056f 00       		.uleb128 .LVU327
 9231              	.LLST36:
 9232 0570 08       		.byte	0x8
 9233 0571 56000000 		.long	.LVL38
 9234 0575 0A       		.uleb128 .LVL39-.LVL38
 9235 0576 01       		.uleb128 0x1
 9236 0577 56       		.byte	0x56
 9237 0578 00       		.byte	0
 9238              	.LVUS37:
 9239 0579 01       		.uleb128 .LVU333
 9240 057a 01       		.uleb128 .LVU345
 9241              	.LLST37:
 9242 057b 08       		.byte	0x8
 9243 057c 6E000000 		.long	.LVL41
 9244 0580 10       		.uleb128 .LVL42-.LVL41
 9245 0581 01       		.uleb128 0x1
 9246 0582 55       		.byte	0x55
 9247 0583 00       		.byte	0
 9248              	.LVUS38:
 9249 0584 00       		.uleb128 .LVU332
 9250 0585 01       		.uleb128 .LVU345
 9251              	.LLST38:
 9252 0586 08       		.byte	0x8
 9253 0587 6E000000 		.long	.LVL41
 9254 058b 10       		.uleb128 .LVL42-.LVL41
 9255 058c 01       		.uleb128 0x1
 9256 058d 56       		.byte	0x56
 9257 058e 00       		.byte	0
 9258              	.LVUS40:
 9259 058f 01       		.uleb128 .LVU348
 9260 0590 00       		.uleb128 .LVU369
 9261 0591 00       		.uleb128 .LVU374
 9262 0592 00       		.uleb128 .LVU376
 9263              	.LLST40:
 9264 0593 06       		.byte	0x6
GAS LISTING /tmp/ccNgdVMZ.s 			page 166


 9265 0594 80000000 		.long	.LVL43
 9266 0598 04       		.byte	0x4
 9267 0599 00       		.uleb128 .LVL43-.LVL43
 9268 059a 39       		.uleb128 .LVL45-.LVL43
 9269 059b 01       		.uleb128 0x1
 9270 059c 56       		.byte	0x56
 9271 059d 04       		.byte	0x4
 9272 059e 44       		.uleb128 .LVL46-.LVL43
 9273 059f 50       		.uleb128 .LVL47-.LVL43
 9274 05a0 01       		.uleb128 0x1
 9275 05a1 56       		.byte	0x56
 9276 05a2 00       		.byte	0
 9277              	.LVUS27:
 9278 05a3 03       		.uleb128 .LVU236
 9279 05a4 00       		.uleb128 .LVU255
 9280 05a5 00       		.uleb128 .LVU255
 9281 05a6 00       		.uleb128 .LVU256
 9282              	.LLST27:
 9283 05a7 06       		.byte	0x6
 9284 05a8 25000000 		.long	.LVL29
 9285 05ac 04       		.byte	0x4
 9286 05ad 00       		.uleb128 .LVL29-.LVL29
 9287 05ae 2A       		.uleb128 .LVL30-1-.LVL29
 9288 05af 01       		.uleb128 0x1
 9289 05b0 50       		.byte	0x50
 9290 05b1 04       		.byte	0x4
 9291 05b2 2A       		.uleb128 .LVL30-1-.LVL29
 9292 05b3 2E       		.uleb128 .LVL31-.LVL29
 9293 05b4 02       		.uleb128 0x2
 9294 05b5 91       		.byte	0x91
 9295 05b6 00       		.sleb128 0
 9296 05b7 00       		.byte	0
 9297              	.LVUS7:
 9298 05b8 00       		.uleb128 .LVU151
 9299 05b9 00       		.uleb128 .LVU167
 9300 05ba 00       		.uleb128 .LVU170
 9301 05bb 00       		.uleb128 0
 9302              	.LLST7:
 9303 05bc 06       		.byte	0x6
 9304 05bd 5E000000 		.long	.LVL19
 9305 05c1 04       		.byte	0x4
 9306 05c2 00       		.uleb128 .LVL19-.LVL19
 9307 05c3 0E       		.uleb128 .LVL20-.LVL19
 9308 05c4 01       		.uleb128 0x1
 9309 05c5 50       		.byte	0x50
 9310 05c6 04       		.byte	0x4
 9311 05c7 20       		.uleb128 .LVL21-.LVL19
 9312 05c8 25       		.uleb128 .LFE315-.LVL19
 9313 05c9 01       		.uleb128 0x1
 9314 05ca 50       		.byte	0x50
 9315 05cb 00       		.byte	0
 9316              	.LVUS10:
 9317 05cc 03       		.uleb128 .LVU123
 9318 05cd 00       		.uleb128 .LVU151
 9319 05ce 00       		.uleb128 .LVU167
 9320 05cf 00       		.uleb128 .LVU170
 9321              	.LLST10:
GAS LISTING /tmp/ccNgdVMZ.s 			page 167


 9322 05d0 06       		.byte	0x6
 9323 05d1 26000000 		.long	.LVL13
 9324 05d5 04       		.byte	0x4
 9325 05d6 00       		.uleb128 .LVL13-.LVL13
 9326 05d7 38       		.uleb128 .LVL19-.LVL13
 9327 05d8 01       		.uleb128 0x1
 9328 05d9 56       		.byte	0x56
 9329 05da 04       		.byte	0x4
 9330 05db 46       		.uleb128 .LVL20-.LVL13
 9331 05dc 58       		.uleb128 .LVL21-.LVL13
 9332 05dd 01       		.uleb128 0x1
 9333 05de 56       		.byte	0x56
 9334 05df 00       		.byte	0
 9335              	.LVUS11:
 9336 05e0 03       		.uleb128 .LVU123
 9337 05e1 00       		.uleb128 .LVU151
 9338 05e2 00       		.uleb128 .LVU167
 9339 05e3 00       		.uleb128 .LVU170
 9340              	.LLST11:
 9341 05e4 06       		.byte	0x6
 9342 05e5 26000000 		.long	.LVL13
 9343 05e9 04       		.byte	0x4
 9344 05ea 00       		.uleb128 .LVL13-.LVL13
 9345 05eb 38       		.uleb128 .LVL19-.LVL13
 9346 05ec 01       		.uleb128 0x1
 9347 05ed 55       		.byte	0x55
 9348 05ee 04       		.byte	0x4
 9349 05ef 46       		.uleb128 .LVL20-.LVL13
 9350 05f0 58       		.uleb128 .LVL21-.LVL13
 9351 05f1 01       		.uleb128 0x1
 9352 05f2 55       		.byte	0x55
 9353 05f3 00       		.byte	0
 9354              	.LVUS13:
 9355 05f4 00       		.uleb128 .LVU133
 9356 05f5 00       		.uleb128 .LVU136
 9357              	.LLST13:
 9358 05f6 08       		.byte	0x8
 9359 05f7 40000000 		.long	.LVL15
 9360 05fb 07       		.uleb128 .LVL16-.LVL15
 9361 05fc 01       		.uleb128 0x1
 9362 05fd 50       		.byte	0x50
 9363 05fe 00       		.byte	0
 9364              	.LVUS14:
 9365 05ff 01       		.uleb128 .LVU130
 9366 0600 00       		.uleb128 .LVU133
 9367              	.LLST14:
 9368 0601 08       		.byte	0x8
 9369 0602 36000000 		.long	.LVL14
 9370 0606 0A       		.uleb128 .LVL15-.LVL14
 9371 0607 01       		.uleb128 0x1
 9372 0608 56       		.byte	0x56
 9373 0609 00       		.byte	0
 9374              	.LVUS15:
 9375 060a 01       		.uleb128 .LVU130
 9376 060b 00       		.uleb128 .LVU133
 9377              	.LLST15:
 9378 060c 08       		.byte	0x8
GAS LISTING /tmp/ccNgdVMZ.s 			page 168


 9379 060d 36000000 		.long	.LVL14
 9380 0611 0A       		.uleb128 .LVL15-.LVL14
 9381 0612 01       		.uleb128 0x1
 9382 0613 55       		.byte	0x55
 9383 0614 00       		.byte	0
 9384              	.LVUS16:
 9385 0615 01       		.uleb128 .LVU139
 9386 0616 01       		.uleb128 .LVU150
 9387              	.LLST16:
 9388 0617 08       		.byte	0x8
 9389 0618 4E000000 		.long	.LVL17
 9390 061c 0E       		.uleb128 .LVL18-.LVL17
 9391 061d 01       		.uleb128 0x1
 9392 061e 56       		.byte	0x56
 9393 061f 00       		.byte	0
 9394              	.LVUS17:
 9395 0620 00       		.uleb128 .LVU138
 9396 0621 01       		.uleb128 .LVU150
 9397              	.LLST17:
 9398 0622 08       		.byte	0x8
 9399 0623 4E000000 		.long	.LVL17
 9400 0627 0E       		.uleb128 .LVL18-.LVL17
 9401 0628 01       		.uleb128 0x1
 9402 0629 55       		.byte	0x55
 9403 062a 00       		.byte	0
 9404              	.LVUS5:
 9405 062b 01       		.uleb128 .LVU103
 9406 062c 00       		.uleb128 .LVU105
 9407              	.LLST5:
 9408 062d 08       		.byte	0x8
 9409 062e 36000000 		.long	.LVL10
 9410 0632 0B       		.uleb128 .LVL11-.LVL10
 9411 0633 02       		.uleb128 0x2
 9412 0634 30       		.byte	0x30
 9413 0635 9F       		.byte	0x9f
 9414 0636 00       		.byte	0
 9415              	.LVUS6:
 9416 0637 01       		.uleb128 .LVU103
 9417 0638 00       		.uleb128 .LVU105
 9418 0639 00       		.uleb128 .LVU105
 9419 063a 00       		.uleb128 .LVU105
 9420              	.LLST6:
 9421 063b 06       		.byte	0x6
 9422 063c 36000000 		.long	.LVL10
 9423 0640 04       		.byte	0x4
 9424 0641 00       		.uleb128 .LVL10-.LVL10
 9425 0642 0A       		.uleb128 .LVL11-1-.LVL10
 9426 0643 01       		.uleb128 0x1
 9427 0644 50       		.byte	0x50
 9428 0645 04       		.byte	0x4
 9429 0646 0A       		.uleb128 .LVL11-1-.LVL10
 9430 0647 0B       		.uleb128 .LVL11-.LVL10
 9431 0648 02       		.uleb128 0x2
 9432 0649 91       		.byte	0x91
 9433 064a 00       		.sleb128 0
 9434 064b 00       		.byte	0
 9435              	.LVUS4:
GAS LISTING /tmp/ccNgdVMZ.s 			page 169


 9436 064c 00       		.uleb128 0
 9437 064d 00       		.uleb128 .LVU74
 9438 064e 00       		.uleb128 .LVU74
 9439 064f 00       		.uleb128 .LVU75
 9440 0650 00       		.uleb128 .LVU75
 9441 0651 00       		.uleb128 0
 9442              	.LLST4:
 9443 0652 06       		.byte	0x6
 9444 0653 00000000 		.long	.LVL6
 9445 0657 04       		.byte	0x4
 9446 0658 00       		.uleb128 .LVL6-.LVL6
 9447 0659 10       		.uleb128 .LVL7-.LVL6
 9448 065a 02       		.uleb128 0x2
 9449 065b 91       		.byte	0x91
 9450 065c 00       		.sleb128 0
 9451 065d 04       		.byte	0x4
 9452 065e 10       		.uleb128 .LVL7-.LVL6
 9453 065f 13       		.uleb128 .LVL8-.LVL6
 9454 0660 01       		.uleb128 0x1
 9455 0661 52       		.byte	0x52
 9456 0662 04       		.byte	0x4
 9457 0663 13       		.uleb128 .LVL8-.LVL6
 9458 0664 1A       		.uleb128 .LFE313-.LVL6
 9459 0665 02       		.uleb128 0x2
 9460 0666 91       		.byte	0x91
 9461 0667 00       		.sleb128 0
 9462 0668 00       		.byte	0
 9463              	.LVUS2:
 9464 0669 01       		.uleb128 .LVU62
 9465 066a 00       		.uleb128 .LVU64
 9466              	.LLST2:
 9467 066b 08       		.byte	0x8
 9468 066c 31000000 		.long	.LVL4
 9469 0670 08       		.uleb128 .LVL5-.LVL4
 9470 0671 03       		.uleb128 0x3
 9471 0672 09       		.byte	0x9
 9472 0673 FE       		.byte	0xfe
 9473 0674 9F       		.byte	0x9f
 9474 0675 00       		.byte	0
 9475              	.LVUS3:
 9476 0676 01       		.uleb128 .LVU62
 9477 0677 00       		.uleb128 .LVU64
 9478 0678 00       		.uleb128 .LVU64
 9479 0679 00       		.uleb128 .LVU64
 9480              	.LLST3:
 9481 067a 06       		.byte	0x6
 9482 067b 31000000 		.long	.LVL4
 9483 067f 04       		.byte	0x4
 9484 0680 00       		.uleb128 .LVL4-.LVL4
 9485 0681 07       		.uleb128 .LVL5-1-.LVL4
 9486 0682 01       		.uleb128 0x1
 9487 0683 50       		.byte	0x50
 9488 0684 04       		.byte	0x4
 9489 0685 07       		.uleb128 .LVL5-1-.LVL4
 9490 0686 08       		.uleb128 .LVL5-.LVL4
 9491 0687 02       		.uleb128 0x2
 9492 0688 91       		.byte	0x91
GAS LISTING /tmp/ccNgdVMZ.s 			page 170


 9493 0689 00       		.sleb128 0
 9494 068a 00       		.byte	0
 9495              	.LVUS1:
 9496 068b 00       		.uleb128 .LVU7
 9497 068c 00       		.uleb128 .LVU11
 9498              	.LLST1:
 9499 068d 08       		.byte	0x8
 9500 068e 16000000 		.long	.LVL1
 9501 0692 0E       		.uleb128 .LVL2-.LVL1
 9502 0693 01       		.uleb128 0x1
 9503 0694 56       		.byte	0x56
 9504 0695 00       		.byte	0
 9505              	.LVUS20:
 9506 0696 00       		.uleb128 .LVU198
 9507 0697 00       		.uleb128 .LVU201
 9508              	.LLST20:
 9509 0698 08       		.byte	0x8
 9510 0699 30000000 		.long	.LVL24
 9511 069d 07       		.uleb128 .LVL25-.LVL24
 9512 069e 01       		.uleb128 0x1
 9513 069f 50       		.byte	0x50
 9514 06a0 00       		.byte	0
 9515              	.LVUS21:
 9516 06a1 01       		.uleb128 .LVU195
 9517 06a2 00       		.uleb128 .LVU198
 9518              	.LLST21:
 9519 06a3 08       		.byte	0x8
 9520 06a4 26000000 		.long	.LVL23
 9521 06a8 0A       		.uleb128 .LVL24-.LVL23
 9522 06a9 02       		.uleb128 0x2
 9523 06aa 91       		.byte	0x91
 9524 06ab 04       		.sleb128 4
 9525 06ac 00       		.byte	0
 9526              	.LVUS22:
 9527 06ad 01       		.uleb128 .LVU195
 9528 06ae 00       		.uleb128 .LVU198
 9529              	.LLST22:
 9530 06af 08       		.byte	0x8
 9531 06b0 26000000 		.long	.LVL23
 9532 06b4 0A       		.uleb128 .LVL24-.LVL23
 9533 06b5 02       		.uleb128 0x2
 9534 06b6 91       		.byte	0x91
 9535 06b7 00       		.sleb128 0
 9536 06b8 00       		.byte	0
 9537              	.LVUS23:
 9538 06b9 01       		.uleb128 .LVU204
 9539 06ba 01       		.uleb128 .LVU215
 9540              	.LLST23:
 9541 06bb 08       		.byte	0x8
 9542 06bc 3E000000 		.long	.LVL26
 9543 06c0 0E       		.uleb128 .LVL27-.LVL26
 9544 06c1 01       		.uleb128 0x1
 9545 06c2 56       		.byte	0x56
 9546 06c3 00       		.byte	0
 9547              	.LVUS24:
 9548 06c4 00       		.uleb128 .LVU203
 9549 06c5 01       		.uleb128 .LVU215
GAS LISTING /tmp/ccNgdVMZ.s 			page 171


 9550              	.LLST24:
 9551 06c6 08       		.byte	0x8
 9552 06c7 3E000000 		.long	.LVL26
 9553 06cb 0E       		.uleb128 .LVL27-.LVL26
 9554 06cc 01       		.uleb128 0x1
 9555 06cd 57       		.byte	0x57
 9556 06ce 00       		.byte	0
 9557              	.LVUS28:
 9558 06cf 00       		.uleb128 0
 9559 06d0 00       		.uleb128 .LVU292
 9560 06d1 00       		.uleb128 .LVU292
 9561 06d2 00       		.uleb128 .LVU293
 9562 06d3 00       		.uleb128 .LVU293
 9563 06d4 00       		.uleb128 0
 9564              	.LLST28:
 9565 06d5 06       		.byte	0x6
 9566 06d6 00000000 		.long	.LVL32
 9567 06da 04       		.byte	0x4
 9568 06db 00       		.uleb128 .LVL32-.LVL32
 9569 06dc 33       		.uleb128 .LVL33-.LVL32
 9570 06dd 02       		.uleb128 0x2
 9571 06de 91       		.byte	0x91
 9572 06df 00       		.sleb128 0
 9573 06e0 04       		.byte	0x4
 9574 06e1 33       		.uleb128 .LVL33-.LVL32
 9575 06e2 34       		.uleb128 .LVL34-1-.LVL32
 9576 06e3 01       		.uleb128 0x1
 9577 06e4 50       		.byte	0x50
 9578 06e5 04       		.byte	0x4
 9579 06e6 35       		.uleb128 .LVL34-.LVL32
 9580 06e7 39       		.uleb128 .LFE318-.LVL32
 9581 06e8 01       		.uleb128 0x1
 9582 06e9 50       		.byte	0x50
 9583 06ea 00       		.byte	0
 9584              	.LVUS85:
 9585 06eb 00       		.uleb128 .LVU756
 9586 06ec 00       		.uleb128 .LVU759
 9587              	.LLST85:
 9588 06ed 08       		.byte	0x8
 9589 06ee 30000000 		.long	.LVL103
 9590 06f2 07       		.uleb128 .LVL104-.LVL103
 9591 06f3 01       		.uleb128 0x1
 9592 06f4 50       		.byte	0x50
 9593 06f5 00       		.byte	0
 9594              	.LVUS86:
 9595 06f6 01       		.uleb128 .LVU753
 9596 06f7 00       		.uleb128 .LVU756
 9597              	.LLST86:
 9598 06f8 08       		.byte	0x8
 9599 06f9 26000000 		.long	.LVL102
 9600 06fd 0A       		.uleb128 .LVL103-.LVL102
 9601 06fe 02       		.uleb128 0x2
 9602 06ff 91       		.byte	0x91
 9603 0700 04       		.sleb128 4
 9604 0701 00       		.byte	0
 9605              	.LVUS87:
 9606 0702 01       		.uleb128 .LVU753
GAS LISTING /tmp/ccNgdVMZ.s 			page 172


 9607 0703 00       		.uleb128 .LVU756
 9608              	.LLST87:
 9609 0704 08       		.byte	0x8
 9610 0705 26000000 		.long	.LVL102
 9611 0709 0A       		.uleb128 .LVL103-.LVL102
 9612 070a 02       		.uleb128 0x2
 9613 070b 91       		.byte	0x91
 9614 070c 00       		.sleb128 0
 9615 070d 00       		.byte	0
 9616              	.LVUS88:
 9617 070e 01       		.uleb128 .LVU762
 9618 070f 01       		.uleb128 .LVU773
 9619              	.LLST88:
 9620 0710 08       		.byte	0x8
 9621 0711 3E000000 		.long	.LVL105
 9622 0715 0F       		.uleb128 .LVL106-.LVL105
 9623 0716 01       		.uleb128 0x1
 9624 0717 56       		.byte	0x56
 9625 0718 00       		.byte	0
 9626              	.LVUS89:
 9627 0719 00       		.uleb128 .LVU761
 9628 071a 01       		.uleb128 .LVU773
 9629              	.LLST89:
 9630 071b 08       		.byte	0x8
 9631 071c 3E000000 		.long	.LVL105
 9632 0720 0F       		.uleb128 .LVL106-.LVL105
 9633 0721 01       		.uleb128 0x1
 9634 0722 57       		.byte	0x57
 9635 0723 00       		.byte	0
 9636              	.LVUS94:
 9637 0724 00       		.uleb128 0
 9638 0725 00       		.uleb128 .LVU867
 9639 0726 00       		.uleb128 .LVU867
 9640 0727 00       		.uleb128 .LVU868
 9641 0728 00       		.uleb128 .LVU868
 9642 0729 00       		.uleb128 0
 9643              	.LLST94:
 9644 072a 06       		.byte	0x6
 9645 072b 00000000 		.long	.LVL112
 9646 072f 04       		.byte	0x4
 9647 0730 00       		.uleb128 .LVL112-.LVL112
 9648 0731 39       		.uleb128 .LVL113-.LVL112
 9649 0732 02       		.uleb128 0x2
 9650 0733 91       		.byte	0x91
 9651 0734 00       		.sleb128 0
 9652 0735 04       		.byte	0x4
 9653 0736 39       		.uleb128 .LVL113-.LVL112
 9654 0737 3A       		.uleb128 .LVL114-1-.LVL112
 9655 0738 01       		.uleb128 0x1
 9656 0739 50       		.byte	0x50
 9657 073a 04       		.byte	0x4
 9658 073b 3B       		.uleb128 .LVL114-.LVL112
 9659 073c 41       		.uleb128 .LFE328-.LVL112
 9660 073d 01       		.uleb128 0x1
 9661 073e 50       		.byte	0x50
 9662 073f 00       		.byte	0
 9663              	.Ldebug_loc3:
GAS LISTING /tmp/ccNgdVMZ.s 			page 173


 9664              		.section	.debug_aranges,"",@progbits
 9665 0000 C4000000 		.long	0xc4
 9666 0004 0200     		.value	0x2
 9667 0006 00000000 		.long	.Ldebug_info0
 9668 000a 04       		.byte	0x4
 9669 000b 00       		.byte	0
 9670 000c 0000     		.value	0
 9671 000e 0000     		.value	0
 9672 0010 00000000 		.long	.LFB311
 9673 0014 7A000000 		.long	.LFE311-.LFB311
 9674 0018 00000000 		.long	.LFB312
 9675 001c 3E000000 		.long	.LFE312-.LFB312
 9676 0020 00000000 		.long	.LFB313
 9677 0024 1A000000 		.long	.LFE313-.LFB313
 9678 0028 00000000 		.long	.LFB314
 9679 002c 46000000 		.long	.LFE314-.LFB314
 9680 0030 00000000 		.long	.LFB315
 9681 0034 83000000 		.long	.LFE315-.LFB315
 9682 0038 00000000 		.long	.LFB316
 9683 003c 61000000 		.long	.LFE316-.LFB316
 9684 0040 00000000 		.long	.LFB317
 9685 0044 5E000000 		.long	.LFE317-.LFB317
 9686 0048 00000000 		.long	.LFB318
 9687 004c 39000000 		.long	.LFE318-.LFB318
 9688 0050 00000000 		.long	.LFB319
 9689 0054 DA000000 		.long	.LFE319-.LFB319
 9690 0058 00000000 		.long	.LFB320
 9691 005c AB010000 		.long	.LFE320-.LFB320
 9692 0060 00000000 		.long	.LFB321
 9693 0064 7A000000 		.long	.LFE321-.LFB321
 9694 0068 00000000 		.long	.LFB322
 9695 006c 3D000000 		.long	.LFE322-.LFB322
 9696 0070 00000000 		.long	.LFB323
 9697 0074 32000000 		.long	.LFE323-.LFB323
 9698 0078 00000000 		.long	.LFB324
 9699 007c 40000000 		.long	.LFE324-.LFB324
 9700 0080 00000000 		.long	.LFB325
 9701 0084 83000000 		.long	.LFE325-.LFB325
 9702 0088 00000000 		.long	.LFB326
 9703 008c 61000000 		.long	.LFE326-.LFB326
 9704 0090 00000000 		.long	.LFB327
 9705 0094 64000000 		.long	.LFE327-.LFB327
 9706 0098 00000000 		.long	.LFB328
 9707 009c 41000000 		.long	.LFE328-.LFB328
 9708 00a0 00000000 		.long	.LFB329
 9709 00a4 DA000000 		.long	.LFE329-.LFB329
 9710 00a8 00000000 		.long	.LFB330
 9711 00ac A8010000 		.long	.LFE330-.LFB330
 9712 00b0 00000000 		.long	.LFB331
 9713 00b4 59000000 		.long	.LFE331-.LFB331
 9714 00b8 00000000 		.long	.LFB332
 9715 00bc 7E000000 		.long	.LFE332-.LFB332
 9716 00c0 00000000 		.long	0
 9717 00c4 00000000 		.long	0
 9718              		.section	.debug_rnglists,"",@progbits
 9719              	.Ldebug_ranges0:
 9720 0000 14030000 		.long	.Ldebug_ranges3-.Ldebug_ranges2
GAS LISTING /tmp/ccNgdVMZ.s 			page 174


 9721              	.Ldebug_ranges2:
 9722 0004 0500     		.value	0x5
 9723 0006 04       		.byte	0x4
 9724 0007 00       		.byte	0
 9725 0008 00000000 		.long	0
 9726              	.LLRL0:
 9727 000c 05       		.byte	0x5
 9728 000d 16000000 		.long	.LBB196
 9729 0011 04       		.byte	0x4
 9730 0012 00       		.uleb128 .LBB196-.LBB196
 9731 0013 00       		.uleb128 .LBE196-.LBB196
 9732 0014 04       		.byte	0x4
 9733 0015 08       		.uleb128 .LBB199-.LBB196
 9734 0016 0E       		.uleb128 .LBE199-.LBB196
 9735 0017 00       		.byte	0
 9736              	.LLRL8:
 9737 0018 05       		.byte	0x5
 9738 0019 16000000 		.long	.LBB223
 9739 001d 04       		.byte	0x4
 9740 001e 00       		.uleb128 .LBB223-.LBB223
 9741 001f 00       		.uleb128 .LBE223-.LBB223
 9742 0020 04       		.byte	0x4
 9743 0021 04       		.uleb128 .LBB230-.LBB223
 9744 0022 10       		.uleb128 .LBE230-.LBB223
 9745 0023 00       		.byte	0
 9746              	.LLRL9:
 9747 0024 05       		.byte	0x5
 9748 0025 26000000 		.long	.LBB231
 9749 0029 04       		.byte	0x4
 9750 002a 00       		.uleb128 .LBB231-.LBB231
 9751 002b 38       		.uleb128 .LBE231-.LBB231
 9752 002c 04       		.byte	0x4
 9753 002d 53       		.uleb128 .LBB254-.LBB231
 9754 002e 58       		.uleb128 .LBE254-.LBB231
 9755 002f 00       		.byte	0
 9756              	.LLRL12:
 9757 0030 05       		.byte	0x5
 9758 0031 30000000 		.long	.LBB233
 9759 0035 04       		.byte	0x4
 9760 0036 00       		.uleb128 .LBB233-.LBB233
 9761 0037 17       		.uleb128 .LBE233-.LBB233
 9762 0038 04       		.byte	0x4
 9763 0039 49       		.uleb128 .LBB238-.LBB233
 9764 003a 4E       		.uleb128 .LBE238-.LBB233
 9765 003b 00       		.byte	0
 9766              	.LLRL18:
 9767 003c 05       		.byte	0x5
 9768 003d 5E000000 		.long	.LBB240
 9769 0041 04       		.byte	0x4
 9770 0042 00       		.uleb128 .LBB240-.LBB240
 9771 0043 06       		.uleb128 .LBE240-.LBB240
 9772 0044 04       		.byte	0x4
 9773 0045 12       		.uleb128 .LBB253-.LBB240
 9774 0046 18       		.uleb128 .LBE253-.LBB240
 9775 0047 04       		.byte	0x4
 9776 0048 20       		.uleb128 .LBB255-.LBB240
 9777 0049 20       		.uleb128 .LBE255-.LBB240
GAS LISTING /tmp/ccNgdVMZ.s 			page 175


 9778 004a 00       		.byte	0
 9779              	.LLRL19:
 9780 004b 05       		.byte	0x5
 9781 004c 20000000 		.long	.LBB267
 9782 0050 04       		.byte	0x4
 9783 0051 00       		.uleb128 .LBB267-.LBB267
 9784 0052 17       		.uleb128 .LBE267-.LBB267
 9785 0053 04       		.byte	0x4
 9786 0054 39       		.uleb128 .LBB272-.LBB267
 9787 0055 3E       		.uleb128 .LBE272-.LBB267
 9788 0056 00       		.byte	0
 9789              	.LLRL25:
 9790 0057 05       		.byte	0x5
 9791 0058 00000000 		.long	.LBB284
 9792 005c 04       		.byte	0x4
 9793 005d 00       		.uleb128 .LBB284-.LBB284
 9794 005e 0B       		.uleb128 .LBE284-.LBB284
 9795 005f 04       		.byte	0x4
 9796 0060 13       		.uleb128 .LBB294-.LBB284
 9797 0061 19       		.uleb128 .LBE294-.LBB284
 9798 0062 04       		.byte	0x4
 9799 0063 1F       		.uleb128 .LBB298-.LBB284
 9800 0064 25       		.uleb128 .LBE298-.LBB284
 9801 0065 00       		.byte	0
 9802              	.LLRL26:
 9803 0066 05       		.byte	0x5
 9804 0067 19000000 		.long	.LBB295
 9805 006b 04       		.byte	0x4
 9806 006c 00       		.uleb128 .LBB295-.LBB295
 9807 006d 06       		.uleb128 .LBE295-.LBB295
 9808 006e 04       		.byte	0x4
 9809 006f 0C       		.uleb128 .LBB299-.LBB295
 9810 0070 3A       		.uleb128 .LBE299-.LBB295
 9811 0071 00       		.byte	0
 9812              	.LLRL30:
 9813 0072 05       		.byte	0x5
 9814 0073 16000000 		.long	.LBB331
 9815 0077 04       		.byte	0x4
 9816 0078 00       		.uleb128 .LBB331-.LBB331
 9817 0079 00       		.uleb128 .LBE331-.LBB331
 9818 007a 04       		.byte	0x4
 9819 007b 07       		.uleb128 .LBB338-.LBB331
 9820 007c 13       		.uleb128 .LBE338-.LBB331
 9821 007d 00       		.byte	0
 9822              	.LLRL31:
 9823 007e 05       		.byte	0x5
 9824 007f 3D000000 		.long	.LBB339
 9825 0083 04       		.byte	0x4
 9826 0084 00       		.uleb128 .LBB339-.LBB339
 9827 0085 06       		.uleb128 .LBE339-.LBB339
 9828 0086 04       		.byte	0x4
 9829 0087 72       		.uleb128 .LBB366-.LBB339
 9830 0088 78       		.uleb128 .LBE366-.LBB339
 9831 0089 04       		.byte	0x4
 9832 008a 9801     		.uleb128 .LBB371-.LBB339
 9833 008c 9801     		.uleb128 .LBE371-.LBB339
 9834 008e 00       		.byte	0
GAS LISTING /tmp/ccNgdVMZ.s 			page 176


 9835              	.LLRL32:
 9836 008f 05       		.byte	0x5
 9837 0090 50000000 		.long	.LBB352
 9838 0094 04       		.byte	0x4
 9839 0095 00       		.uleb128 .LBB352-.LBB352
 9840 0096 2E       		.uleb128 .LBE352-.LBB352
 9841 0097 04       		.byte	0x4
 9842 0098 8001     		.uleb128 .LBB370-.LBB352
 9843 009a 8501     		.uleb128 .LBE370-.LBB352
 9844 009c 00       		.byte	0
 9845              	.LLRL33:
 9846 009d 05       		.byte	0x5
 9847 009e 50000000 		.long	.LBB354
 9848 00a2 04       		.byte	0x4
 9849 00a3 00       		.uleb128 .LBB354-.LBB354
 9850 00a4 17       		.uleb128 .LBE354-.LBB354
 9851 00a5 04       		.byte	0x4
 9852 00a6 8001     		.uleb128 .LBB359-.LBB354
 9853 00a8 8501     		.uleb128 .LBE359-.LBB354
 9854 00aa 00       		.byte	0
 9855              	.LLRL39:
 9856 00ab 05       		.byte	0x5
 9857 00ac 80000000 		.long	.LBB361
 9858 00b0 04       		.byte	0x4
 9859 00b1 00       		.uleb128 .LBB361-.LBB361
 9860 00b2 2F       		.uleb128 .LBE361-.LBB361
 9861 00b3 04       		.byte	0x4
 9862 00b4 35       		.uleb128 .LBB367-.LBB361
 9863 00b5 39       		.uleb128 .LBE367-.LBB361
 9864 00b6 04       		.byte	0x4
 9865 00b7 39       		.uleb128 .LBB368-.LBB361
 9866 00b8 3C       		.uleb128 .LBE368-.LBB361
 9867 00b9 04       		.byte	0x4
 9868 00ba 48       		.uleb128 .LBB369-.LBB361
 9869 00bb 50       		.uleb128 .LBE369-.LBB361
 9870 00bc 00       		.byte	0
 9871              	.LLRL43:
 9872 00bd 05       		.byte	0x5
 9873 00be 00000000 		.long	.LBB410
 9874 00c2 04       		.byte	0x4
 9875 00c3 00       		.uleb128 .LBB410-.LBB410
 9876 00c4 00       		.uleb128 .LBE410-.LBB410
 9877 00c5 04       		.byte	0x4
 9878 00c6 26       		.uleb128 .LBB420-.LBB410
 9879 00c7 30       		.uleb128 .LBE420-.LBB410
 9880 00c8 04       		.byte	0x4
 9881 00c9 AD01     		.uleb128 .LBB459-.LBB410
 9882 00cb B701     		.uleb128 .LBE459-.LBB410
 9883 00cd 00       		.byte	0
 9884              	.LLRL44:
 9885 00ce 05       		.byte	0x5
 9886 00cf 00000000 		.long	.LBB412
 9887 00d3 04       		.byte	0x4
 9888 00d4 00       		.uleb128 .LBB412-.LBB412
 9889 00d5 00       		.uleb128 .LBE412-.LBB412
 9890 00d6 04       		.byte	0x4
 9891 00d7 AD01     		.uleb128 .LBB417-.LBB412
GAS LISTING /tmp/ccNgdVMZ.s 			page 177


 9892 00d9 B701     		.uleb128 .LBE417-.LBB412
 9893 00db 00       		.byte	0
 9894              	.LLRL45:
 9895 00dc 05       		.byte	0x5
 9896 00dd 30000000 		.long	.LBB421
 9897 00e1 04       		.byte	0x4
 9898 00e2 00       		.uleb128 .LBB421-.LBB421
 9899 00e3 7D       		.uleb128 .LBE421-.LBB421
 9900 00e4 04       		.byte	0x4
 9901 00e5 8701     		.uleb128 .LBB460-.LBB421
 9902 00e7 9E02     		.uleb128 .LBE460-.LBB421
 9903 00e9 04       		.byte	0x4
 9904 00ea C002     		.uleb128 .LBB461-.LBB421
 9905 00ec FB02     		.uleb128 .LBE461-.LBB421
 9906 00ee 00       		.byte	0
 9907              	.LLRL47:
 9908 00ef 05       		.byte	0x5
 9909 00f0 30000000 		.long	.LBB422
 9910 00f4 04       		.byte	0x4
 9911 00f5 00       		.uleb128 .LBB422-.LBB422
 9912 00f6 02       		.uleb128 .LBE422-.LBB422
 9913 00f7 04       		.byte	0x4
 9914 00f8 08       		.uleb128 .LBB425-.LBB422
 9915 00f9 65       		.uleb128 .LBE425-.LBB422
 9916 00fa 00       		.byte	0
 9917              	.LLRL51:
 9918 00fb 05       		.byte	0x5
 9919 00fc A3000000 		.long	.LBB426
 9920 0100 04       		.byte	0x4
 9921 0101 00       		.uleb128 .LBB426-.LBB426
 9922 0102 00       		.uleb128 .LBE426-.LBB426
 9923 0103 04       		.byte	0x4
 9924 0104 9701     		.uleb128 .LBB439-.LBB426
 9925 0106 9701     		.uleb128 .LBE439-.LBB426
 9926 0108 00       		.byte	0
 9927              	.LLRL56:
 9928 0109 05       		.byte	0x5
 9929 010a 44010000 		.long	.LBB440
 9930 010e 04       		.byte	0x4
 9931 010f 00       		.uleb128 .LBB440-.LBB440
 9932 0110 0A       		.uleb128 .LBE440-.LBB440
 9933 0111 04       		.byte	0x4
 9934 0112 2C       		.uleb128 .LBB458-.LBB440
 9935 0113 67       		.uleb128 .LBE458-.LBB440
 9936 0114 00       		.byte	0
 9937              	.LLRL57:
 9938 0115 05       		.byte	0x5
 9939 0116 70010000 		.long	.LBB446
 9940 011a 04       		.byte	0x4
 9941 011b 00       		.uleb128 .LBB446-.LBB446
 9942 011c 34       		.uleb128 .LBE446-.LBB446
 9943 011d 04       		.byte	0x4
 9944 011e 34       		.uleb128 .LBB457-.LBB446
 9945 011f 3B       		.uleb128 .LBE457-.LBB446
 9946 0120 00       		.byte	0
 9947              	.LLRL61:
 9948 0121 05       		.byte	0x5
GAS LISTING /tmp/ccNgdVMZ.s 			page 178


 9949 0122 8E010000 		.long	.LBB451
 9950 0126 04       		.byte	0x4
 9951 0127 00       		.uleb128 .LBB451-.LBB451
 9952 0128 16       		.uleb128 .LBE451-.LBB451
 9953 0129 04       		.byte	0x4
 9954 012a 16       		.uleb128 .LBB455-.LBB451
 9955 012b 1D       		.uleb128 .LBE455-.LBB451
 9956 012c 00       		.byte	0
 9957              	.LLRL64:
 9958 012d 05       		.byte	0x5
 9959 012e 8E010000 		.long	.LBB452
 9960 0132 04       		.byte	0x4
 9961 0133 00       		.uleb128 .LBB452-.LBB452
 9962 0134 06       		.uleb128 .LBE452-.LBB452
 9963 0135 04       		.byte	0x4
 9964 0136 06       		.uleb128 .LBB453-.LBB452
 9965 0137 16       		.uleb128 .LBE453-.LBB452
 9966 0138 04       		.byte	0x4
 9967 0139 16       		.uleb128 .LBB454-.LBB452
 9968 013a 1D       		.uleb128 .LBE454-.LBB452
 9969 013b 00       		.byte	0
 9970              	.LLRL65:
 9971 013c 05       		.byte	0x5
 9972 013d 16000000 		.long	.LBB462
 9973 0141 04       		.byte	0x4
 9974 0142 00       		.uleb128 .LBB462-.LBB462
 9975 0143 00       		.uleb128 .LBE462-.LBB462
 9976 0144 04       		.byte	0x4
 9977 0145 10       		.uleb128 .LBB465-.LBB462
 9978 0146 16       		.uleb128 .LBE465-.LBB462
 9979 0147 00       		.byte	0
 9980              	.LLRL73:
 9981 0148 05       		.byte	0x5
 9982 0149 16000000 		.long	.LBB489
 9983 014d 04       		.byte	0x4
 9984 014e 00       		.uleb128 .LBB489-.LBB489
 9985 014f 00       		.uleb128 .LBE489-.LBB489
 9986 0150 04       		.byte	0x4
 9987 0151 04       		.uleb128 .LBB496-.LBB489
 9988 0152 10       		.uleb128 .LBE496-.LBB489
 9989 0153 00       		.byte	0
 9990              	.LLRL74:
 9991 0154 05       		.byte	0x5
 9992 0155 26000000 		.long	.LBB497
 9993 0159 04       		.byte	0x4
 9994 015a 00       		.uleb128 .LBB497-.LBB497
 9995 015b 39       		.uleb128 .LBE497-.LBB497
 9996 015c 04       		.byte	0x4
 9997 015d 53       		.uleb128 .LBB520-.LBB497
 9998 015e 58       		.uleb128 .LBE520-.LBB497
 9999 015f 00       		.byte	0
 10000              	.LLRL77:
 10001 0160 05       		.byte	0x5
 10002 0161 30000000 		.long	.LBB499
 10003 0165 04       		.byte	0x4
 10004 0166 00       		.uleb128 .LBB499-.LBB499
 10005 0167 17       		.uleb128 .LBE499-.LBB499
GAS LISTING /tmp/ccNgdVMZ.s 			page 179


 10006 0168 04       		.byte	0x4
 10007 0169 49       		.uleb128 .LBB504-.LBB499
 10008 016a 4E       		.uleb128 .LBE504-.LBB499
 10009 016b 00       		.byte	0
 10010              	.LLRL83:
 10011 016c 05       		.byte	0x5
 10012 016d 5F000000 		.long	.LBB506
 10013 0171 04       		.byte	0x4
 10014 0172 00       		.uleb128 .LBB506-.LBB506
 10015 0173 06       		.uleb128 .LBE506-.LBB506
 10016 0174 04       		.byte	0x4
 10017 0175 11       		.uleb128 .LBB519-.LBB506
 10018 0176 17       		.uleb128 .LBE519-.LBB506
 10019 0177 04       		.byte	0x4
 10020 0178 1F       		.uleb128 .LBB521-.LBB506
 10021 0179 1F       		.uleb128 .LBE521-.LBB506
 10022 017a 00       		.byte	0
 10023              	.LLRL84:
 10024 017b 05       		.byte	0x5
 10025 017c 20000000 		.long	.LBB533
 10026 0180 04       		.byte	0x4
 10027 0181 00       		.uleb128 .LBB533-.LBB533
 10028 0182 17       		.uleb128 .LBE533-.LBB533
 10029 0183 04       		.byte	0x4
 10030 0184 39       		.uleb128 .LBB538-.LBB533
 10031 0185 3E       		.uleb128 .LBE538-.LBB533
 10032 0186 00       		.byte	0
 10033              	.LLRL90:
 10034 0187 05       		.byte	0x5
 10035 0188 00000000 		.long	.LBB550
 10036 018c 04       		.byte	0x4
 10037 018d 00       		.uleb128 .LBB550-.LBB550
 10038 018e 0B       		.uleb128 .LBE550-.LBB550
 10039 018f 04       		.byte	0x4
 10040 0190 17       		.uleb128 .LBB564-.LBB550
 10041 0191 1D       		.uleb128 .LBE564-.LBB550
 10042 0192 04       		.byte	0x4
 10043 0193 20       		.uleb128 .LBB566-.LBB550
 10044 0194 26       		.uleb128 .LBE566-.LBB550
 10045 0195 00       		.byte	0
 10046              	.LLRL91:
 10047 0196 05       		.byte	0x5
 10048 0197 13000000 		.long	.LBB560
 10049 019b 04       		.byte	0x4
 10050 019c 00       		.uleb128 .LBB560-.LBB560
 10051 019d 04       		.uleb128 .LBE560-.LBB560
 10052 019e 04       		.byte	0x4
 10053 019f 0A       		.uleb128 .LBB565-.LBB560
 10054 01a0 0D       		.uleb128 .LBE565-.LBB560
 10055 01a1 04       		.byte	0x4
 10056 01a2 13       		.uleb128 .LBB567-.LBB560
 10057 01a3 46       		.uleb128 .LBE567-.LBB560
 10058 01a4 00       		.byte	0
 10059              	.LLRL96:
 10060 01a5 05       		.byte	0x5
 10061 01a6 1A000000 		.long	.LBB599
 10062 01aa 04       		.byte	0x4
GAS LISTING /tmp/ccNgdVMZ.s 			page 180


 10063 01ab 00       		.uleb128 .LBB599-.LBB599
 10064 01ac 00       		.uleb128 .LBE599-.LBB599
 10065 01ad 04       		.byte	0x4
 10066 01ae 03       		.uleb128 .LBB606-.LBB599
 10067 01af 0F       		.uleb128 .LBE606-.LBB599
 10068 01b0 00       		.byte	0
 10069              	.LLRL97:
 10070 01b1 05       		.byte	0x5
 10071 01b2 41000000 		.long	.LBB607
 10072 01b6 04       		.byte	0x4
 10073 01b7 00       		.uleb128 .LBB607-.LBB607
 10074 01b8 06       		.uleb128 .LBE607-.LBB607
 10075 01b9 04       		.byte	0x4
 10076 01ba 9401     		.uleb128 .LBB632-.LBB607
 10077 01bc 9401     		.uleb128 .LBE632-.LBB607
 10078 01be 00       		.byte	0
 10079              	.LLRL98:
 10080 01bf 05       		.byte	0x5
 10081 01c0 50000000 		.long	.LBB616
 10082 01c4 04       		.byte	0x4
 10083 01c5 00       		.uleb128 .LBB616-.LBB616
 10084 01c6 30       		.uleb128 .LBE616-.LBB616
 10085 01c7 04       		.byte	0x4
 10086 01c8 8001     		.uleb128 .LBB631-.LBB616
 10087 01ca 8501     		.uleb128 .LBE631-.LBB616
 10088 01cc 00       		.byte	0
 10089              	.LLRL99:
 10090 01cd 05       		.byte	0x5
 10091 01ce 50000000 		.long	.LBB618
 10092 01d2 04       		.byte	0x4
 10093 01d3 00       		.uleb128 .LBB618-.LBB618
 10094 01d4 1A       		.uleb128 .LBE618-.LBB618
 10095 01d5 04       		.byte	0x4
 10096 01d6 8001     		.uleb128 .LBB623-.LBB618
 10097 01d8 8501     		.uleb128 .LBE623-.LBB618
 10098 01da 00       		.byte	0
 10099              	.LLRL105:
 10100 01db 05       		.byte	0x5
 10101 01dc 88000000 		.long	.LBB625
 10102 01e0 04       		.byte	0x4
 10103 01e1 00       		.uleb128 .LBB625-.LBB625
 10104 01e2 00       		.uleb128 .LBE625-.LBB625
 10105 01e3 04       		.byte	0x4
 10106 01e4 03       		.uleb128 .LBB629-.LBB625
 10107 01e5 06       		.uleb128 .LBE629-.LBB625
 10108 01e6 04       		.byte	0x4
 10109 01e7 09       		.uleb128 .LBB630-.LBB625
 10110 01e8 48       		.uleb128 .LBE630-.LBB625
 10111 01e9 00       		.byte	0
 10112              	.LLRL110:
 10113 01ea 05       		.byte	0x5
 10114 01eb 00000000 		.long	.LBB671
 10115 01ef 04       		.byte	0x4
 10116 01f0 00       		.uleb128 .LBB671-.LBB671
 10117 01f1 00       		.uleb128 .LBE671-.LBB671
 10118 01f2 04       		.byte	0x4
 10119 01f3 26       		.uleb128 .LBB681-.LBB671
GAS LISTING /tmp/ccNgdVMZ.s 			page 181


 10120 01f4 30       		.uleb128 .LBE681-.LBB671
 10121 01f5 04       		.byte	0x4
 10122 01f6 AC01     		.uleb128 .LBB720-.LBB671
 10123 01f8 B601     		.uleb128 .LBE720-.LBB671
 10124 01fa 00       		.byte	0
 10125              	.LLRL111:
 10126 01fb 05       		.byte	0x5
 10127 01fc 00000000 		.long	.LBB673
 10128 0200 04       		.byte	0x4
 10129 0201 00       		.uleb128 .LBB673-.LBB673
 10130 0202 00       		.uleb128 .LBE673-.LBB673
 10131 0203 04       		.byte	0x4
 10132 0204 AC01     		.uleb128 .LBB678-.LBB673
 10133 0206 B601     		.uleb128 .LBE678-.LBB673
 10134 0208 00       		.byte	0
 10135              	.LLRL112:
 10136 0209 05       		.byte	0x5
 10137 020a 30000000 		.long	.LBB682
 10138 020e 04       		.byte	0x4
 10139 020f 00       		.uleb128 .LBB682-.LBB682
 10140 0210 7C       		.uleb128 .LBE682-.LBB682
 10141 0211 04       		.byte	0x4
 10142 0212 8601     		.uleb128 .LBB721-.LBB682
 10143 0214 A502     		.uleb128 .LBE721-.LBB682
 10144 0216 04       		.byte	0x4
 10145 0217 C002     		.uleb128 .LBB722-.LBB682
 10146 0219 F802     		.uleb128 .LBE722-.LBB682
 10147 021b 00       		.byte	0
 10148              	.LLRL114:
 10149 021c 05       		.byte	0x5
 10150 021d 30000000 		.long	.LBB683
 10151 0221 04       		.byte	0x4
 10152 0222 00       		.uleb128 .LBB683-.LBB683
 10153 0223 02       		.uleb128 .LBE683-.LBB683
 10154 0224 04       		.byte	0x4
 10155 0225 08       		.uleb128 .LBB686-.LBB683
 10156 0226 64       		.uleb128 .LBE686-.LBB683
 10157 0227 00       		.byte	0
 10158              	.LLRL118:
 10159 0228 05       		.byte	0x5
 10160 0229 A2000000 		.long	.LBB687
 10161 022d 04       		.byte	0x4
 10162 022e 00       		.uleb128 .LBB687-.LBB687
 10163 022f 00       		.uleb128 .LBE687-.LBB687
 10164 0230 04       		.byte	0x4
 10165 0231 9F01     		.uleb128 .LBB704-.LBB687
 10166 0233 9F01     		.uleb128 .LBE704-.LBB687
 10167 0235 00       		.byte	0
 10168              	.LLRL122:
 10169 0236 05       		.byte	0x5
 10170 0237 01010000 		.long	.LBB698
 10171 023b 04       		.byte	0x4
 10172 023c 00       		.uleb128 .LBB698-.LBB698
 10173 023d 00       		.uleb128 .LBE698-.LBB698
 10174 023e 04       		.byte	0x4
 10175 023f 03       		.uleb128 .LBB702-.LBB698
 10176 0240 06       		.uleb128 .LBE702-.LBB698
GAS LISTING /tmp/ccNgdVMZ.s 			page 182


 10177 0241 04       		.byte	0x4
 10178 0242 09       		.uleb128 .LBB703-.LBB698
 10179 0243 40       		.uleb128 .LBE703-.LBB698
 10180 0244 00       		.byte	0
 10181              	.LLRL125:
 10182 0245 05       		.byte	0x5
 10183 0246 4B010000 		.long	.LBB705
 10184 024a 04       		.byte	0x4
 10185 024b 00       		.uleb128 .LBB705-.LBB705
 10186 024c 0A       		.uleb128 .LBE705-.LBB705
 10187 024d 04       		.byte	0x4
 10188 024e 25       		.uleb128 .LBB719-.LBB705
 10189 024f 5D       		.uleb128 .LBE719-.LBB705
 10190 0250 00       		.byte	0
 10191              	.LLRL131:
 10192 0251 05       		.byte	0x5
 10193 0252 8E010000 		.long	.LBB717
 10194 0256 04       		.byte	0x4
 10195 0257 00       		.uleb128 .LBB717-.LBB717
 10196 0258 06       		.uleb128 .LBE717-.LBB717
 10197 0259 04       		.byte	0x4
 10198 025a 06       		.uleb128 .LBB718-.LBB717
 10199 025b 15       		.uleb128 .LBE718-.LBB717
 10200 025c 00       		.byte	0
 10201              	.LLRL134:
 10202 025d 05       		.byte	0x5
 10203 025e 00000000 		.long	.LBB736
 10204 0262 04       		.byte	0x4
 10205 0263 00       		.uleb128 .LBB736-.LBB736
 10206 0264 0A       		.uleb128 .LBE736-.LBB736
 10207 0265 04       		.byte	0x4
 10208 0266 12       		.uleb128 .LBB746-.LBB736
 10209 0267 18       		.uleb128 .LBE746-.LBB736
 10210 0268 04       		.byte	0x4
 10211 0269 1B       		.uleb128 .LBB747-.LBB736
 10212 026a 21       		.uleb128 .LBE747-.LBB736
 10213 026b 00       		.byte	0
 10214              	.LLRL135:
 10215 026c 07       		.byte	0x7
 10216 026d 25000000 		.long	.LBB748
 10217 0271 0A       		.uleb128 .LBE748-.LBB748
 10218              	.LLRL137:
 10219 0272 05       		.byte	0x5
 10220 0273 40000000 		.long	.LBB766
 10221 0277 04       		.byte	0x4
 10222 0278 00       		.uleb128 .LBB766-.LBB766
 10223 0279 30       		.uleb128 .LBE766-.LBB766
 10224 027a 04       		.byte	0x4
 10225 027b 36       		.uleb128 .LBB768-.LBB766
 10226 027c 39       		.uleb128 .LBE768-.LBB766
 10227 027d 00       		.byte	0
 10228              	.LLRL140:
 10229 027e 05       		.byte	0x5
 10230 027f 2F000000 		.long	.LBB753
 10231 0283 04       		.byte	0x4
 10232 0284 00       		.uleb128 .LBB753-.LBB753
 10233 0285 06       		.uleb128 .LBE753-.LBB753
GAS LISTING /tmp/ccNgdVMZ.s 			page 183


 10234 0286 04       		.byte	0x4
 10235 0287 41       		.uleb128 .LBB767-.LBB753
 10236 0288 47       		.uleb128 .LBE767-.LBB753
 10237 0289 04       		.byte	0x4
 10238 028a 4A       		.uleb128 .LBB769-.LBB753
 10239 028b 4A       		.uleb128 .LBE769-.LBB753
 10240 028c 00       		.byte	0
 10241              	.LLRL141:
 10242 028d 07       		.byte	0x7
 10243 028e 00000000 		.long	.LFB311
 10244 0292 7A       		.uleb128 .LFE311-.LFB311
 10245 0293 07       		.byte	0x7
 10246 0294 00000000 		.long	.LFB312
 10247 0298 3E       		.uleb128 .LFE312-.LFB312
 10248 0299 07       		.byte	0x7
 10249 029a 00000000 		.long	.LFB313
 10250 029e 1A       		.uleb128 .LFE313-.LFB313
 10251 029f 07       		.byte	0x7
 10252 02a0 00000000 		.long	.LFB314
 10253 02a4 46       		.uleb128 .LFE314-.LFB314
 10254 02a5 07       		.byte	0x7
 10255 02a6 00000000 		.long	.LFB315
 10256 02aa 8301     		.uleb128 .LFE315-.LFB315
 10257 02ac 07       		.byte	0x7
 10258 02ad 00000000 		.long	.LFB316
 10259 02b1 61       		.uleb128 .LFE316-.LFB316
 10260 02b2 07       		.byte	0x7
 10261 02b3 00000000 		.long	.LFB317
 10262 02b7 5E       		.uleb128 .LFE317-.LFB317
 10263 02b8 07       		.byte	0x7
 10264 02b9 00000000 		.long	.LFB318
 10265 02bd 39       		.uleb128 .LFE318-.LFB318
 10266 02be 07       		.byte	0x7
 10267 02bf 00000000 		.long	.LFB319
 10268 02c3 DA01     		.uleb128 .LFE319-.LFB319
 10269 02c5 07       		.byte	0x7
 10270 02c6 00000000 		.long	.LFB320
 10271 02ca AB03     		.uleb128 .LFE320-.LFB320
 10272 02cc 07       		.byte	0x7
 10273 02cd 00000000 		.long	.LFB321
 10274 02d1 7A       		.uleb128 .LFE321-.LFB321
 10275 02d2 07       		.byte	0x7
 10276 02d3 00000000 		.long	.LFB322
 10277 02d7 3D       		.uleb128 .LFE322-.LFB322
 10278 02d8 07       		.byte	0x7
 10279 02d9 00000000 		.long	.LFB323
 10280 02dd 32       		.uleb128 .LFE323-.LFB323
 10281 02de 07       		.byte	0x7
 10282 02df 00000000 		.long	.LFB324
 10283 02e3 40       		.uleb128 .LFE324-.LFB324
 10284 02e4 07       		.byte	0x7
 10285 02e5 00000000 		.long	.LFB325
 10286 02e9 8301     		.uleb128 .LFE325-.LFB325
 10287 02eb 07       		.byte	0x7
 10288 02ec 00000000 		.long	.LFB326
 10289 02f0 61       		.uleb128 .LFE326-.LFB326
 10290 02f1 07       		.byte	0x7
GAS LISTING /tmp/ccNgdVMZ.s 			page 184


 10291 02f2 00000000 		.long	.LFB327
 10292 02f6 64       		.uleb128 .LFE327-.LFB327
 10293 02f7 07       		.byte	0x7
 10294 02f8 00000000 		.long	.LFB328
 10295 02fc 41       		.uleb128 .LFE328-.LFB328
 10296 02fd 07       		.byte	0x7
 10297 02fe 00000000 		.long	.LFB329
 10298 0302 DA01     		.uleb128 .LFE329-.LFB329
 10299 0304 07       		.byte	0x7
 10300 0305 00000000 		.long	.LFB330
 10301 0309 A803     		.uleb128 .LFE330-.LFB330
 10302 030b 07       		.byte	0x7
 10303 030c 00000000 		.long	.LFB331
 10304 0310 59       		.uleb128 .LFE331-.LFB331
 10305 0311 07       		.byte	0x7
 10306 0312 00000000 		.long	.LFB332
 10307 0316 7E       		.uleb128 .LFE332-.LFB332
 10308 0317 00       		.byte	0
 10309              	.Ldebug_ranges3:
 10310              		.section	.debug_line,"",@progbits
 10311              	.Ldebug_line0:
 10312 0000 81140000 		.section	.debug_str,"MS",@progbits,1
 10312      05000400 
 10312      95000000 
 10312      010101FB 
 10312      0E0D0001 
 10313              	.LASF95:
 10314 0000 6F73616C 		.string	"osalThreadEnqueueTimeoutS"
 10314      54687265 
 10314      6164456E 
 10314      71756575 
 10314      6554696D 
 10315              	.LASF65:
 10316 001a 6F627147 		.string	"obqGetFullBufferI"
 10316      65744675 
 10316      6C6C4275 
 10316      66666572 
 10316      4900
 10317              	.LASF40:
 10318 002c 6273697A 		.string	"bsize"
 10318      6500
 10319              	.LASF31:
 10320 0032 74687265 		.string	"threads_queue_t"
 10320      6164735F 
 10320      71756575 
 10320      655F7400 
 10321              	.LASF50:
 10322 0042 706F7274 		.string	"port_irq_sts"
 10322      5F697271 
 10322      5F737473 
 10322      00
 10323              	.LASF14:
 10324 004f 73686F72 		.string	"short int"
 10324      7420696E 
 10324      7400
 10325              	.LASF12:
 10326 0059 73697A65 		.string	"size_t"
GAS LISTING /tmp/ccNgdVMZ.s 			page 185


 10326      5F7400
 10327              	.LASF97:
 10328 0060 5F5F6275 		.string	"__builtin_memcpy"
 10328      696C7469 
 10328      6E5F6D65 
 10328      6D637079 
 10328      00
 10329              	.LASF48:
 10330 0071 63685468 		.string	"chThdDequeueAllI"
 10330      64446571 
 10330      75657565 
 10330      416C6C49 
 10330      00
 10331              	.LASF85:
 10332 0082 6F73616C 		.string	"osalSysUnlock"
 10332      53797355 
 10332      6E6C6F63 
 10332      6B00
 10333              	.LASF71:
 10334 0090 69627170 		.string	"ibqp"
 10334      00
 10335              	.LASF90:
 10336 0095 706F7274 		.string	"port_lock"
 10336      5F6C6F63 
 10336      6B00
 10337              	.LASF88:
 10338 009f 63685379 		.string	"chSysLock"
 10338      734C6F63 
 10338      6B00
 10339              	.LASF84:
 10340 00a9 6F73616C 		.string	"osalThreadQueueObjectInit"
 10340      54687265 
 10340      61645175 
 10340      6575654F 
 10340      626A6563 
 10341              	.LASF83:
 10342 00c3 6F73616C 		.string	"osalThreadDequeueNextI"
 10342      54687265 
 10342      61644465 
 10342      71756575 
 10342      654E6578 
 10343              	.LASF96:
 10344 00da 6D656D63 		.string	"memcpy"
 10344      707900
 10345              	.LASF28:
 10346 00e1 63685F71 		.string	"ch_queue"
 10346      75657565 
 10346      00
 10347              	.LASF46:
 10348 00ea 6F757470 		.string	"output_buffers_queue_t"
 10348      75745F62 
 10348      75666665 
 10348      72735F71 
 10348      75657565 
 10349              	.LASF33:
 10350 0101 696F5F62 		.string	"io_buffers_queue"
 10350      75666665 
GAS LISTING /tmp/ccNgdVMZ.s 			page 186


 10350      72735F71 
 10350      75657565 
 10350      00
 10351              	.LASF19:
 10352 0112 75696E74 		.string	"uint8_t"
 10352      385F7400 
 10353              	.LASF29:
 10354 011a 63685F74 		.string	"ch_threads_queue"
 10354      68726561 
 10354      64735F71 
 10354      75657565 
 10354      00
 10355              	.LASF24:
 10356 012b 63685F71 		.string	"ch_queue_t"
 10356      75657565 
 10356      5F7400
 10357              	.LASF43:
 10358 0136 6C696E6B 		.string	"link"
 10358      00
 10359              	.LASF52:
 10360 013b 6F627154 		.string	"obqTryFlushI"
 10360      7279466C 
 10360      75736849 
 10360      00
 10361              	.LASF44:
 10362 0148 62716E6F 		.string	"bqnotify_t"
 10362      74696679 
 10362      5F7400
 10363              	.LASF7:
 10364 0153 6C6F6E67 		.string	"long double"
 10364      20646F75 
 10364      626C6500 
 10365              	.LASF94:
 10366 015f 474E5520 		.string	"GNU C17 11.4.0 -m32 -mtune=generic -march=i686 -ggdb -O2 -ffunction-sections -fdata-secti
 10366      43313720 
 10366      31312E34 
 10366      2E30202D 
 10366      6D333220 
 10367              	.LASF6:
 10368 0217 6C6F6E67 		.string	"long long int"
 10368      206C6F6E 
 10368      6720696E 
 10368      7400
 10369              	.LASF36:
 10370 0225 62636F75 		.string	"bcounter"
 10370      6E746572 
 10370      00
 10371              	.LASF61:
 10372 022e 63685468 		.string	"chThdEnqueueTimeoutS"
 10372      64456E71 
 10372      75657565 
 10372      54696D65 
 10372      6F757453 
 10373              	.LASF62:
 10374 0243 6F627147 		.string	"obqGetEmptyBufferTimeoutS"
 10374      6574456D 
 10374      70747942 
GAS LISTING /tmp/ccNgdVMZ.s 			page 187


 10374      75666665 
 10374      7254696D 
 10375              	.LASF68:
 10376 025d 6F62714F 		.string	"obqObjectInit"
 10376      626A6563 
 10376      74496E69 
 10376      7400
 10377              	.LASF5:
 10378 026b 6C6F6E67 		.string	"long int"
 10378      20696E74 
 10378      00
 10379              	.LASF74:
 10380 0274 69627152 		.string	"ibqReleaseEmptyBuffer"
 10380      656C6561 
 10380      7365456D 
 10380      70747942 
 10380      75666665 
 10381              	.LASF91:
 10382 028a 5F5F6465 		.string	"__dest"
 10382      737400
 10383              	.LASF66:
 10384 0291 73697A65 		.string	"sizep"
 10384      7000
 10385              	.LASF63:
 10386 0297 6F627147 		.string	"obqGetEmptyBufferTimeout"
 10386      6574456D 
 10386      70747942 
 10386      75666665 
 10386      7254696D 
 10387              	.LASF13:
 10388 02b0 5F5F7569 		.string	"__uint8_t"
 10388      6E74385F 
 10388      7400
 10389              	.LASF69:
 10390 02ba 6F6E6679 		.string	"onfy"
 10390      00
 10391              	.LASF82:
 10392 02bf 6F73616C 		.string	"osalThreadDequeueAllI"
 10392      54687265 
 10392      61644465 
 10392      71756575 
 10392      65416C6C 
 10393              	.LASF75:
 10394 02d5 69627147 		.string	"ibqGetFullBufferTimeoutS"
 10394      65744675 
 10394      6C6C4275 
 10394      66666572 
 10394      54696D65 
 10395              	.LASF76:
 10396 02ee 69627147 		.string	"ibqGetFullBufferTimeout"
 10396      65744675 
 10396      6C6C4275 
 10396      66666572 
 10396      54696D65 
 10397              	.LASF86:
 10398 0306 6F73616C 		.string	"osalSysLock"
 10398      5379734C 
GAS LISTING /tmp/ccNgdVMZ.s 			page 188


 10398      6F636B00 
 10399              	.LASF9:
 10400 0312 756E7369 		.string	"unsigned char"
 10400      676E6564 
 10400      20636861 
 10400      7200
 10401              	.LASF58:
 10402 0320 5F5F6675 		.string	"__func__"
 10402      6E635F5F 
 10402      00
 10403              	.LASF92:
 10404 0329 5F5F7372 		.string	"__src"
 10404      6300
 10405              	.LASF56:
 10406 032f 6F627150 		.string	"obqPutTimeout"
 10406      75745469 
 10406      6D656F75 
 10406      7400
 10407              	.LASF11:
 10408 033d 7369676E 		.string	"signed char"
 10408      65642063 
 10408      68617200 
 10409              	.LASF17:
 10410 0349 6C6F6E67 		.string	"long long unsigned int"
 10410      206C6F6E 
 10410      6720756E 
 10410      7369676E 
 10410      65642069 
 10411              	.LASF20:
 10412 0360 75696E74 		.string	"uint32_t"
 10412      33325F74 
 10412      00
 10413              	.LASF2:
 10414 0369 756E7369 		.string	"unsigned int"
 10414      676E6564 
 10414      20696E74 
 10414      00
 10415              	.LASF10:
 10416 0376 6C6F6E67 		.string	"long unsigned int"
 10416      20756E73 
 10416      69676E65 
 10416      6420696E 
 10416      7400
 10417              	.LASF53:
 10418 0388 6F627157 		.string	"obqWriteTimeout"
 10418      72697465 
 10418      54696D65 
 10418      6F757400 
 10419              	.LASF79:
 10420 0398 69627152 		.string	"ibqResetI"
 10420      65736574 
 10420      4900
 10421              	.LASF57:
 10422 03a2 6F627150 		.string	"obqPostFullBufferS"
 10422      6F737446 
 10422      756C6C42 
 10422      75666665 
GAS LISTING /tmp/ccNgdVMZ.s 			page 189


 10422      725300
 10423              	.LASF35:
 10424 03b5 73757370 		.string	"suspended"
 10424      656E6465 
 10424      6400
 10425              	.LASF4:
 10426 03bf 63686172 		.string	"char"
 10426      00
 10427              	.LASF77:
 10428 03c4 69627150 		.string	"ibqPostFullBufferI"
 10428      6F737446 
 10428      756C6C42 
 10428      75666665 
 10428      724900
 10429              	.LASF18:
 10430 03d7 696E7433 		.string	"int32_t"
 10430      325F7400 
 10431              	.LASF30:
 10432 03df 71756575 		.string	"queue"
 10432      6500
 10433              	.LASF37:
 10434 03e5 62777270 		.string	"bwrptr"
 10434      747200
 10435              	.LASF27:
 10436 03ec 5F426F6F 		.string	"_Bool"
 10436      6C00
 10437              	.LASF89:
 10438 03f2 706F7274 		.string	"port_unlock"
 10438      5F756E6C 
 10438      6F636B00 
 10439              	.LASF93:
 10440 03fe 5F5F6C65 		.string	"__len"
 10440      6E00
 10441              	.LASF23:
 10442 0404 73797369 		.string	"sysinterval_t"
 10442      6E746572 
 10442      76616C5F 
 10442      7400
 10443              	.LASF54:
 10444 0412 6F627170 		.string	"obqp"
 10444      00
 10445              	.LASF49:
 10446 0417 63685468 		.string	"chThdQueueObjectInit"
 10446      64517565 
 10446      75654F62 
 10446      6A656374 
 10446      496E6974 
 10447              	.LASF72:
 10448 042c 69627147 		.string	"ibqGetTimeout"
 10448      65745469 
 10448      6D656F75 
 10448      7400
 10449              	.LASF39:
 10450 043a 62746F70 		.string	"btop"
 10450      00
 10451              	.LASF3:
 10452 043f 73686F72 		.string	"short unsigned int"
GAS LISTING /tmp/ccNgdVMZ.s 			page 190


 10452      7420756E 
 10452      7369676E 
 10452      65642069 
 10452      6E7400
 10453              	.LASF78:
 10454 0452 69627147 		.string	"ibqGetEmptyBufferI"
 10454      6574456D 
 10454      70747942 
 10454      75666665 
 10454      724900
 10455              	.LASF73:
 10456 0465 69627152 		.string	"ibqReleaseEmptyBufferS"
 10456      656C6561 
 10456      7365456D 
 10456      70747942 
 10456      75666665 
 10457              	.LASF80:
 10458 047c 6962714F 		.string	"ibqObjectInit"
 10458      626A6563 
 10458      74496E69 
 10458      7400
 10459              	.LASF41:
 10460 048a 62756666 		.string	"buffers"
 10460      65727300 
 10461              	.LASF16:
 10462 0492 5F5F7569 		.string	"__uint32_t"
 10462      6E743332 
 10462      5F7400
 10463              	.LASF51:
 10464 049d 73697A65 		.string	"size"
 10464      00
 10465              	.LASF87:
 10466 04a2 63685379 		.string	"chSysUnlock"
 10466      73556E6C 
 10466      6F636B00 
 10467              	.LASF32:
 10468 04ae 696F5F62 		.string	"io_buffers_queue_t"
 10468      75666665 
 10468      72735F71 
 10468      75657565 
 10468      5F7400
 10469              	.LASF67:
 10470 04c1 6F627152 		.string	"obqResetI"
 10470      65736574 
 10470      4900
 10471              	.LASF15:
 10472 04cb 5F5F696E 		.string	"__int32_t"
 10472      7433325F 
 10472      7400
 10473              	.LASF59:
 10474 04d5 6F627146 		.string	"obqFlush"
 10474      6C757368 
 10474      00
 10475              	.LASF64:
 10476 04de 6F627152 		.string	"obqReleaseEmptyBufferI"
 10476      656C6561 
 10476      7365456D 
GAS LISTING /tmp/ccNgdVMZ.s 			page 191


 10476      70747942 
 10476      75666665 
 10477              	.LASF81:
 10478 04f5 696E6679 		.string	"infy"
 10478      00
 10479              	.LASF47:
 10480 04fa 63685468 		.string	"chThdDequeueNextI"
 10480      64446571 
 10480      75657565 
 10480      4E657874 
 10480      4900
 10481              	.LASF8:
 10482 050c 5F466C6F 		.string	"_Float128"
 10482      61743132 
 10482      3800
 10483              	.LASF45:
 10484 0516 696E7075 		.string	"input_buffers_queue_t"
 10484      745F6275 
 10484      66666572 
 10484      735F7175 
 10484      6575655F 
 10485              	.LASF42:
 10486 052c 6E6F7469 		.string	"notify"
 10486      667900
 10487              	.LASF70:
 10488 0533 69627152 		.string	"ibqReadTimeout"
 10488      65616454 
 10488      696D656F 
 10488      757400
 10489              	.LASF34:
 10490 0542 77616974 		.string	"waiting"
 10490      696E6700 
 10491              	.LASF26:
 10492 054a 70726576 		.string	"prev"
 10492      00
 10493              	.LASF38:
 10494 054f 62726470 		.string	"brdptr"
 10494      747200
 10495              	.LASF21:
 10496 0556 73797373 		.string	"syssts_t"
 10496      74735F74 
 10496      00
 10497              	.LASF22:
 10498 055f 6D73675F 		.string	"msg_t"
 10498      7400
 10499              	.LASF55:
 10500 0565 74696D65 		.string	"timeout"
 10500      6F757400 
 10501              	.LASF25:
 10502 056d 6E657874 		.string	"next"
 10502      00
 10503              	.LASF60:
 10504 0572 6F627150 		.string	"obqPostFullBuffer"
 10504      6F737446 
 10504      756C6C42 
 10504      75666665 
 10504      7200
GAS LISTING /tmp/ccNgdVMZ.s 			page 192


 10505              		.section	.debug_line_str,"MS",@progbits,1
 10506              	.LASF1:
 10507 0000 2F686F6D 		.string	"/home/alex/ChibiOS/demos/various/LAB2"
 10507      652F616C 
 10507      65782F43 
 10507      68696269 
 10507      4F532F64 
 10508              	.LASF0:
 10509 0026 2E2E2F2E 		.string	"../../../os/hal/src/hal_buffers.c"
 10509      2E2F2E2E 
 10509      2F6F732F 
 10509      68616C2F 
 10509      7372632F 
 10510              		.ident	"GCC: (Ubuntu 11.4.0-1ubuntu1~22.04) 11.4.0"
 10511 0048 2F686F6D 		.section	.note.GNU-stack,"",@progbits
 10511      652F616C 
 10511      65782F43 
 10511      68696269 
 10511      4F532F64 
GAS LISTING /tmp/ccNgdVMZ.s 			page 193


DEFINED SYMBOLS
                            *ABS*:0000000000000000 hal_buffers.c
     /tmp/ccNgdVMZ.s:9      .text.ibqObjectInit:0000000000000000 ibqObjectInit
     /tmp/ccNgdVMZ.s:3931   .text.__x86.get_pc_thunk.bx:0000000000000000 __x86.get_pc_thunk.bx
     /tmp/ccNgdVMZ.s:137    .text.ibqResetI:0000000000000000 ibqResetI
     /tmp/ccNgdVMZ.s:200    .text.ibqGetEmptyBufferI:0000000000000000 ibqGetEmptyBufferI
     /tmp/ccNgdVMZ.s:239    .text.ibqPostFullBufferI:0000000000000000 ibqPostFullBufferI
     /tmp/ccNgdVMZ.s:321    .text.ibqGetFullBufferTimeout:0000000000000000 ibqGetFullBufferTimeout
     /tmp/ccNgdVMZ.s:582    .text.ibqGetFullBufferTimeoutS:0000000000000000 ibqGetFullBufferTimeoutS
     /tmp/ccNgdVMZ.s:713    .text.ibqReleaseEmptyBuffer:0000000000000000 ibqReleaseEmptyBuffer
     /tmp/ccNgdVMZ.s:3920   .text.__x86.get_pc_thunk.dx:0000000000000000 __x86.get_pc_thunk.dx
     /tmp/ccNgdVMZ.s:868    .text.ibqReleaseEmptyBufferS:0000000000000000 ibqReleaseEmptyBufferS
     /tmp/ccNgdVMZ.s:926    .text.ibqGetTimeout:0000000000000000 ibqGetTimeout
     /tmp/ccNgdVMZ.s:1271   .text.ibqReadTimeout:0000000000000000 ibqReadTimeout
     /tmp/ccNgdVMZ.s:1784   .text.obqObjectInit:0000000000000000 obqObjectInit
     /tmp/ccNgdVMZ.s:1910   .text.obqResetI:0000000000000000 obqResetI
     /tmp/ccNgdVMZ.s:1975   .text.obqGetFullBufferI:0000000000000000 obqGetFullBufferI
     /tmp/ccNgdVMZ.s:2024   .text.obqReleaseEmptyBufferI:0000000000000000 obqReleaseEmptyBufferI
     /tmp/ccNgdVMZ.s:2095   .text.obqGetEmptyBufferTimeout:0000000000000000 obqGetEmptyBufferTimeout
     /tmp/ccNgdVMZ.s:2354   .text.obqGetEmptyBufferTimeoutS:0000000000000000 obqGetEmptyBufferTimeoutS
     /tmp/ccNgdVMZ.s:2485   .text.obqPostFullBuffer:0000000000000000 obqPostFullBuffer
     /tmp/ccNgdVMZ.s:2655   .text.obqPostFullBufferS:0000000000000000 obqPostFullBufferS
     /tmp/ccNgdVMZ.s:2724   .text.obqPutTimeout:0000000000000000 obqPutTimeout
     /tmp/ccNgdVMZ.s:3045   .text.obqWriteTimeout:0000000000000000 obqWriteTimeout
     /tmp/ccNgdVMZ.s:3571   .text.obqTryFlushI:0000000000000000 obqTryFlushI
     /tmp/ccNgdVMZ.s:3672   .text.obqFlush:0000000000000000 obqFlush
     /tmp/ccNgdVMZ.s:3909   .text.__x86.get_pc_thunk.ax:0000000000000000 __x86.get_pc_thunk.ax

UNDEFINED SYMBOLS
_GLOBAL_OFFSET_TABLE_
chThdQueueObjectInit
chThdDequeueAllI
chThdDequeueNextI
port_irq_sts
chThdEnqueueTimeoutS
memcpy
