GAS LISTING /tmp/ccLLfGOV.s 			page 1


   1              		.file	"main.c"
   2              		.text
   3              	.Ltext0:
   4              		.file 0 "/home/alex/ChibiOS/demos/various/LAB2" "main.c"
   5              		.section	.rodata.Consumer.str1.4,"aMS",@progbits,1
   6              		.align 4
   7              	.LC0:
   8 0000 5B434F4E 		.string	"[CONSUMER] Processed: %3d (buffer: %2u/10)\r\n"
   8      53554D45 
   8      525D2050 
   8      726F6365 
   8      73736564 
   9              		.section	.text.Consumer,"ax",@progbits
  10              		.p2align 4
  11              		.type	Consumer, @function
  12              	Consumer:
  13              	.LVL0:
  14              	.LFB300:
  15              		.file 1 "main.c"
  16              		.loc 1 57 36 view -0
  17              		.cfi_startproc
  18              		.loc 1 57 36 is_stmt 0 view .LVU1
  19 0000 55       		pushl	%ebp
  20              		.cfi_def_cfa_offset 8
  21              		.cfi_offset 5, -8
  22 0001 57       		pushl	%edi
  23              		.cfi_def_cfa_offset 12
  24              		.cfi_offset 7, -12
  25 0002 56       		pushl	%esi
  26              		.cfi_def_cfa_offset 16
  27              		.cfi_offset 6, -16
  28 0003 53       		pushl	%ebx
  29              		.cfi_def_cfa_offset 20
  30              		.cfi_offset 3, -20
  31 0004 E8FCFFFF 		call	__x86.get_pc_thunk.bx
  31      FF
  32 0009 81C30200 		addl	$_GLOBAL_OFFSET_TABLE_, %ebx
  32      0000
  33 000f 83EC3C   		subl	$60, %esp
  34              		.cfi_def_cfa_offset 80
  35              		.loc 1 57 36 view .LVU2
  36 0012 65A11400 		movl	%gs:20, %eax
  36      0000
  37 0018 8944242C 		movl	%eax, 44(%esp)
  38 001c 31C0     		xorl	%eax, %eax
  39              		.loc 1 58 5 is_stmt 1 view .LVU3
  40              		.loc 1 59 5 view .LVU4
  41              		.loc 1 60 5 view .LVU5
  42              	.LVL1:
  43              	.LBB12:
  44              	.LBI12:
  45              		.file 2 "../../../os/rt/include/chevents.h"
  46              		.loc 2 205 20 view .LVU6
  47              	.LBB13:
  48              		.loc 2 209 3 view .LVU7
  49              	.LBB14:
  50              	.LBI14:
GAS LISTING /tmp/ccLLfGOV.s 			page 2


  51              		.loc 2 185 20 view .LVU8
  52              	.LBB15:
  53              		.loc 2 189 3 view .LVU9
  54 001e 6AFF     		pushl	$-1
  55              		.cfi_def_cfa_offset 84
  56 0020 6A01     		pushl	$1
  57              		.cfi_def_cfa_offset 88
  58 0022 8DBB0000 		leal	print_mutex@GOTOFF(%ebx), %edi
  58      0000
  59 0028 8DB30000 		leal	buffer_mutex@GOTOFF(%ebx), %esi
  59      0000
  60 002e 8D442420 		leal	32(%esp), %eax
  61              	.LVL2:
  62              		.loc 2 189 3 is_stmt 0 view .LVU10
  63              	.LBE15:
  64              	.LBE14:
  65              	.LBE13:
  66              	.LBE12:
  67              	.LBB19:
  68              		.loc 1 68 45 view .LVU11
  69 0032 89FD     		movl	%edi, %ebp
  70              	.LBE19:
  71              	.LBB20:
  72              	.LBB18:
  73              	.LBB17:
  74              	.LBB16:
  75              		.loc 2 189 3 view .LVU12
  76 0034 50       		pushl	%eax
  77              		.cfi_def_cfa_offset 92
  78 0035 8D830000 		leal	buffer_event@GOTOFF(%ebx), %eax
  78      0000
  79              	.LVL3:
  80              		.loc 2 189 3 view .LVU13
  81 003b 50       		pushl	%eax
  82              		.cfi_def_cfa_offset 96
  83 003c E8FCFFFF 		call	chEvtRegisterMaskWithFlags@PLT
  83      FF
  84              	.LVL4:
  85              		.loc 2 189 3 view .LVU14
  86              	.LBE16:
  87              	.LBE17:
  88              		.loc 2 210 1 view .LVU15
  89 0041 83C410   		addl	$16, %esp
  90              		.cfi_def_cfa_offset 80
  91 0044 8D830000 		leal	buffer@GOTOFF(%ebx), %eax
  91      0000
  92 004a 89442408 		movl	%eax, 8(%esp)
  93 004e 8D830000 		leal	.LC0@GOTOFF(%ebx), %eax
  93      0000
  94 0054 89442404 		movl	%eax, 4(%esp)
  95 0058 8B830000 		movl	SD1@GOT(%ebx), %eax
  95      0000
  96 005e 8944240C 		movl	%eax, 12(%esp)
  97              	.LVL5:
  98              		.p2align 4,,10
  99 0062 8DB60000 		.p2align 3
  99      0000
GAS LISTING /tmp/ccLLfGOV.s 			page 3


 100              	.L3:
 101              		.loc 2 210 1 view .LVU16
 102              	.LBE18:
 103              	.LBE20:
 104              		.loc 1 62 5 is_stmt 1 view .LVU17
 105              		.loc 1 63 9 view .LVU18
 106 0068 83EC0C   		subl	$12, %esp
 107              		.cfi_def_cfa_offset 92
 108 006b 6A01     		pushl	$1
 109              		.cfi_def_cfa_offset 96
 110 006d E8FCFFFF 		call	chEvtWaitAny@PLT
 110      FF
 111              	.LVL6:
 112              		.loc 1 65 9 view .LVU19
 113 0072 893424   		movl	%esi, (%esp)
 114 0075 E8FCFFFF 		call	chMtxLock@PLT
 114      FF
 115              	.LVL7:
 116              		.loc 1 66 9 view .LVU20
 117              		.loc 1 66 26 is_stmt 0 view .LVU21
 118 007a 8BBB0000 		movl	buffer_count@GOTOFF(%ebx), %edi
 118      0000
 119              		.loc 1 66 12 view .LVU22
 120 0080 83C410   		addl	$16, %esp
 121              		.cfi_def_cfa_offset 80
 122 0083 85FF     		testl	%edi, %edi
 123 0085 7460     		je	.L2
 124              	.LBB21:
 125              		.loc 1 67 13 is_stmt 1 view .LVU23
 126              	.LVL8:
 127              		.loc 1 68 13 view .LVU24
 128              		.loc 1 67 17 is_stmt 0 view .LVU25
 129 0087 8B442408 		movl	8(%esp), %eax
 130              		.loc 1 67 29 view .LVU26
 131 008b 8B8B0000 		movl	buffer_tail@GOTOFF(%ebx), %ecx
 131      0000
 132              		.loc 1 71 13 view .LVU27
 133 0091 83EC0C   		subl	$12, %esp
 134              		.cfi_def_cfa_offset 92
 135              		.loc 1 69 25 view .LVU28
 136 0094 83EF01   		subl	$1, %edi
 137 0097 89BB0000 		movl	%edi, buffer_count@GOTOFF(%ebx)
 137      0000
 138              		.loc 1 67 17 view .LVU29
 139 009d 8B0488   		movl	(%eax,%ecx,4), %eax
 140              		.loc 1 68 40 view .LVU30
 141 00a0 83C101   		addl	$1, %ecx
 142              		.loc 1 67 17 view .LVU31
 143 00a3 8944240C 		movl	%eax, 12(%esp)
 144              	.LVL9:
 145              		.loc 1 68 45 view .LVU32
 146 00a7 B8CDCCCC 		movl	$-858993459, %eax
 146      CC
 147 00ac F7E1     		mull	%ecx
 148              		.loc 1 71 13 view .LVU33
 149 00ae 55       		pushl	%ebp
 150              		.cfi_def_cfa_offset 96
GAS LISTING /tmp/ccLLfGOV.s 			page 4


 151              		.loc 1 68 45 view .LVU34
 152 00af C1EA03   		shrl	$3, %edx
 153 00b2 8D0492   		leal	(%edx,%edx,4), %eax
 154 00b5 01C0     		addl	%eax, %eax
 155 00b7 29C1     		subl	%eax, %ecx
 156 00b9 898B0000 		movl	%ecx, buffer_tail@GOTOFF(%ebx)
 156      0000
 157              		.loc 1 69 13 is_stmt 1 view .LVU35
 158              		.loc 1 71 13 view .LVU36
 159 00bf E8FCFFFF 		call	chMtxLock@PLT
 159      FF
 160              	.LVL10:
 161              		.loc 1 72 13 view .LVU37
 162 00c4 FFB30000 		pushl	buffer_count@GOTOFF(%ebx)
 162      0000
 163              		.cfi_def_cfa_offset 100
 164 00ca FF742414 		pushl	20(%esp)
 165              		.cfi_def_cfa_offset 104
 166 00ce FF74241C 		pushl	28(%esp)
 167              		.cfi_def_cfa_offset 108
 168 00d2 FF742428 		pushl	40(%esp)
 169              		.cfi_def_cfa_offset 112
 170 00d6 E8FCFFFF 		call	chprintf@PLT
 170      FF
 171              	.LVL11:
 172              		.loc 1 73 13 view .LVU38
 173 00db 83C414   		addl	$20, %esp
 174              		.cfi_def_cfa_offset 92
 175 00de 55       		pushl	%ebp
 176              		.cfi_def_cfa_offset 96
 177 00df E8FCFFFF 		call	chMtxUnlock@PLT
 177      FF
 178              	.LVL12:
 179 00e4 83C410   		addl	$16, %esp
 180              		.cfi_def_cfa_offset 80
 181              	.L2:
 182              		.loc 1 73 13 is_stmt 0 view .LVU39
 183              	.LBE21:
 184              		.loc 1 75 9 is_stmt 1 view .LVU40
 185 00e7 83EC0C   		subl	$12, %esp
 186              		.cfi_def_cfa_offset 92
 187 00ea 56       		pushl	%esi
 188              		.cfi_def_cfa_offset 96
 189 00eb E8FCFFFF 		call	chMtxUnlock@PLT
 189      FF
 190              	.LVL13:
 191              		.loc 1 77 9 view .LVU41
 192 00f0 C70424C8 		movl	$200, (%esp)
 192      000000
 193 00f7 E8FCFFFF 		call	chThdSleep@PLT
 193      FF
 194              	.LVL14:
 195              		.loc 1 62 11 view .LVU42
 196              		.loc 1 63 9 is_stmt 0 view .LVU43
 197 00fc 83C410   		addl	$16, %esp
 198              		.cfi_def_cfa_offset 80
 199 00ff E964FFFF 		jmp	.L3
GAS LISTING /tmp/ccLLfGOV.s 			page 5


 199      FF
 200              		.cfi_endproc
 201              	.LFE300:
 202              		.size	Consumer, .-Consumer
 203              		.section	.rodata.Producer.str1.4,"aMS",@progbits,1
 204              		.align 4
 205              	.LC1:
 206 0000 5B50524F 		.string	"[PRODUCER] Waiting (buffer full)\r\n"
 206      44554345 
 206      525D2057 
 206      61697469 
 206      6E672028 
 207 0023 00       		.align 4
 208              	.LC2:
 209 0024 5B50524F 		.string	"[PRODUCER] Added: %3d (buffer: %2u/10)\r\n"
 209      44554345 
 209      525D2041 
 209      64646564 
 209      3A202533 
 210              		.section	.text.Producer,"ax",@progbits
 211              		.p2align 4
 212              		.type	Producer, @function
 213              	Producer:
 214              	.LVL15:
 215              	.LFB299:
 216              		.loc 1 23 36 is_stmt 1 view -0
 217              		.cfi_startproc
 218              		.loc 1 23 36 is_stmt 0 view .LVU45
 219 0000 55       		pushl	%ebp
 220              		.cfi_def_cfa_offset 8
 221              		.cfi_offset 5, -8
 222 0001 57       		pushl	%edi
 223              		.cfi_def_cfa_offset 12
 224              		.cfi_offset 7, -12
 225 0002 56       		pushl	%esi
 226              		.cfi_def_cfa_offset 16
 227              		.cfi_offset 6, -16
 228 0003 53       		pushl	%ebx
 229              		.cfi_def_cfa_offset 20
 230              		.cfi_offset 3, -20
 231 0004 E8FCFFFF 		call	__x86.get_pc_thunk.bx
 231      FF
 232 0009 81C30200 		addl	$_GLOBAL_OFFSET_TABLE_, %ebx
 232      0000
 233 000f 83EC2C   		subl	$44, %esp
 234              		.cfi_def_cfa_offset 64
 235 0012 8D830000 		leal	print_mutex@GOTOFF(%ebx), %eax
 235      0000
 236 0018 8DBB0000 		leal	buffer_mutex@GOTOFF(%ebx), %edi
 236      0000
 237 001e 8944240C 		movl	%eax, 12(%esp)
 238 0022 8D830000 		leal	.LC1@GOTOFF(%ebx), %eax
 238      0000
 239 0028 8944241C 		movl	%eax, 28(%esp)
 240 002c 8B830000 		movl	SD1@GOT(%ebx), %eax
 240      0000
 241 0032 89442408 		movl	%eax, 8(%esp)
GAS LISTING /tmp/ccLLfGOV.s 			page 6


 242 0036 8D830000 		leal	buffer@GOTOFF(%ebx), %eax
 242      0000
 243 003c 89442410 		movl	%eax, 16(%esp)
 244 0040 8D830000 		leal	.LC2@GOTOFF(%ebx), %eax
 244      0000
 245 0046 89442418 		movl	%eax, 24(%esp)
 246 004a 8D830000 		leal	buffer_event@GOTOFF(%ebx), %eax
 246      0000
 247 0050 89442414 		movl	%eax, 20(%esp)
 248 0054 E9850000 		jmp	.L13
 248      00
 249              	.LVL16:
 250 0059 8DB42600 		.p2align 4,,10
 250      000000
 251              		.p2align 3
 252              	.L11:
 253              	.LBB22:
 254              		.loc 1 41 9 is_stmt 1 view .LVU46
 255              		.loc 1 41 29 is_stmt 0 view .LVU47
 256 0060 8B442410 		movl	16(%esp), %eax
 257              		.loc 1 41 15 view .LVU48
 258 0064 8B8B0000 		movl	buffer_head@GOTOFF(%ebx), %ecx
 258      0000
 259              		.loc 1 45 9 view .LVU49
 260 006a 83EC0C   		subl	$12, %esp
 261              		.cfi_def_cfa_offset 76
 262              		.loc 1 43 21 view .LVU50
 263 006d 83C501   		addl	$1, %ebp
 264 0070 89AB0000 		movl	%ebp, buffer_count@GOTOFF(%ebx)
 264      0000
 265              		.loc 1 45 9 view .LVU51
 266 0076 8B6C2418 		movl	24(%esp), %ebp
 267              		.loc 1 41 29 view .LVU52
 268 007a 893488   		movl	%esi, (%eax,%ecx,4)
 269              		.loc 1 42 9 is_stmt 1 view .LVU53
 270              		.loc 1 42 36 is_stmt 0 view .LVU54
 271 007d 83C101   		addl	$1, %ecx
 272              		.loc 1 42 41 view .LVU55
 273 0080 B8CDCCCC 		movl	$-858993459, %eax
 273      CC
 274 0085 F7E1     		mull	%ecx
 275              		.loc 1 45 9 view .LVU56
 276 0087 55       		pushl	%ebp
 277              		.cfi_def_cfa_offset 80
 278              		.loc 1 42 41 view .LVU57
 279 0088 C1EA03   		shrl	$3, %edx
 280 008b 8D0492   		leal	(%edx,%edx,4), %eax
 281 008e 01C0     		addl	%eax, %eax
 282 0090 29C1     		subl	%eax, %ecx
 283 0092 898B0000 		movl	%ecx, buffer_head@GOTOFF(%ebx)
 283      0000
 284              		.loc 1 43 9 is_stmt 1 view .LVU58
 285              		.loc 1 45 9 view .LVU59
 286 0098 E8FCFFFF 		call	chMtxLock@PLT
 286      FF
 287              	.LVL17:
 288              		.loc 1 46 9 view .LVU60
GAS LISTING /tmp/ccLLfGOV.s 			page 7


 289 009d FFB30000 		pushl	buffer_count@GOTOFF(%ebx)
 289      0000
 290              		.cfi_def_cfa_offset 84
 291 00a3 56       		pushl	%esi
 292              		.cfi_def_cfa_offset 88
 293 00a4 FF742430 		pushl	48(%esp)
 294              		.cfi_def_cfa_offset 92
 295 00a8 FF742424 		pushl	36(%esp)
 296              		.cfi_def_cfa_offset 96
 297 00ac E8FCFFFF 		call	chprintf@PLT
 297      FF
 298              	.LVL18:
 299              		.loc 1 47 9 view .LVU61
 300 00b1 83C414   		addl	$20, %esp
 301              		.cfi_def_cfa_offset 76
 302 00b4 55       		pushl	%ebp
 303              		.cfi_def_cfa_offset 80
 304 00b5 E8FCFFFF 		call	chMtxUnlock@PLT
 304      FF
 305              	.LVL19:
 306              		.loc 1 49 9 view .LVU62
 307              	.LBB23:
 308              	.LBI23:
 309              		.loc 2 233 20 view .LVU63
 310              	.LBB24:
 311              		.loc 2 235 3 view .LVU64
 312 00ba 58       		popl	%eax
 313              		.cfi_def_cfa_offset 76
 314 00bb 5A       		popl	%edx
 315              		.cfi_def_cfa_offset 72
 316 00bc 6A00     		pushl	$0
 317              		.cfi_def_cfa_offset 76
 318 00be FF742420 		pushl	32(%esp)
 319              		.cfi_def_cfa_offset 80
 320 00c2 E8FCFFFF 		call	chEvtBroadcastFlags@PLT
 320      FF
 321              	.LVL20:
 322              		.loc 2 235 3 is_stmt 0 view .LVU65
 323              	.LBE24:
 324              	.LBE23:
 325              		.loc 1 50 9 is_stmt 1 view .LVU66
 326 00c7 893C24   		movl	%edi, (%esp)
 327 00ca E8FCFFFF 		call	chMtxUnlock@PLT
 327      FF
 328              	.LVL21:
 329              		.loc 1 52 9 view .LVU67
 330 00cf C7042420 		movl	$800, (%esp)
 330      030000
 331 00d6 E8FCFFFF 		call	chThdSleep@PLT
 331      FF
 332              	.LVL22:
 333              	.LBE22:
 334              		.loc 1 26 11 view .LVU68
 335              		.loc 1 26 18 is_stmt 0 view .LVU69
 336 00db 83C410   		addl	$16, %esp
 337              		.cfi_def_cfa_offset 64
 338              	.LVL23:
GAS LISTING /tmp/ccLLfGOV.s 			page 8


 339              	.L13:
 340              		.loc 1 24 5 is_stmt 1 view .LVU70
 341              		.loc 1 26 5 view .LVU71
 342              	.LBB25:
 343              		.loc 1 27 9 view .LVU72
 344              		.loc 1 29 9 is_stmt 0 view .LVU73
 345 00de 83EC0C   		subl	$12, %esp
 346              		.cfi_def_cfa_offset 76
 347              		.loc 1 27 33 view .LVU74
 348 00e1 8BB30000 		movl	number_counter@GOTOFF(%ebx), %esi
 348      0000
 349              		.loc 1 29 9 view .LVU75
 350 00e7 57       		pushl	%edi
 351              		.cfi_def_cfa_offset 80
 352              		.loc 1 27 33 view .LVU76
 353 00e8 8D4601   		leal	1(%esi), %eax
 354 00eb 89830000 		movl	%eax, number_counter@GOTOFF(%ebx)
 354      0000
 355              	.LVL24:
 356              		.loc 1 29 9 is_stmt 1 view .LVU77
 357 00f1 E8FCFFFF 		call	chMtxLock@PLT
 357      FF
 358              	.LVL25:
 359              		.loc 1 30 9 view .LVU78
 360              		.loc 1 30 29 view .LVU79
 361 00f6 8BAB0000 		movl	buffer_count@GOTOFF(%ebx), %ebp
 361      0000
 362 00fc 83C410   		addl	$16, %esp
 363              		.cfi_def_cfa_offset 64
 364 00ff 83FD0A   		cmpl	$10, %ebp
 365 0102 0F8558FF 		jne	.L11
 365      FFFF
 366 0108 8B6C240C 		movl	12(%esp), %ebp
 367              	.L12:
 368              		.loc 1 31 13 view .LVU80
 369 010c 83EC0C   		subl	$12, %esp
 370              		.cfi_def_cfa_offset 76
 371 010f 57       		pushl	%edi
 372              		.cfi_def_cfa_offset 80
 373 0110 E8FCFFFF 		call	chMtxUnlock@PLT
 373      FF
 374              	.LVL26:
 375              		.loc 1 33 13 view .LVU81
 376 0115 892C24   		movl	%ebp, (%esp)
 377 0118 E8FCFFFF 		call	chMtxLock@PLT
 377      FF
 378              	.LVL27:
 379              		.loc 1 34 13 view .LVU82
 380 011d 59       		popl	%ecx
 381              		.cfi_def_cfa_offset 76
 382 011e 58       		popl	%eax
 383              		.cfi_def_cfa_offset 72
 384 011f FF742424 		pushl	36(%esp)
 385              		.cfi_def_cfa_offset 76
 386 0123 FF742414 		pushl	20(%esp)
 387              		.cfi_def_cfa_offset 80
 388 0127 E8FCFFFF 		call	chprintf@PLT
GAS LISTING /tmp/ccLLfGOV.s 			page 9


 388      FF
 389              	.LVL28:
 390              		.loc 1 35 13 view .LVU83
 391 012c 892C24   		movl	%ebp, (%esp)
 392 012f E8FCFFFF 		call	chMtxUnlock@PLT
 392      FF
 393              	.LVL29:
 394              		.loc 1 37 13 view .LVU84
 395 0134 C7042420 		movl	$800, (%esp)
 395      030000
 396 013b E8FCFFFF 		call	chThdSleep@PLT
 396      FF
 397              	.LVL30:
 398              		.loc 1 38 13 view .LVU85
 399 0140 893C24   		movl	%edi, (%esp)
 400 0143 E8FCFFFF 		call	chMtxLock@PLT
 400      FF
 401              	.LVL31:
 402              		.loc 1 30 29 view .LVU86
 403 0148 8B830000 		movl	buffer_count@GOTOFF(%ebx), %eax
 403      0000
 404 014e 83C410   		addl	$16, %esp
 405              		.cfi_def_cfa_offset 64
 406 0151 83F80A   		cmpl	$10, %eax
 407 0154 74B6     		je	.L12
 408 0156 89C5     		movl	%eax, %ebp
 409 0158 E903FFFF 		jmp	.L11
 409      FF
 410              	.LBE25:
 411              		.cfi_endproc
 412              	.LFE299:
 413              		.size	Producer, .-Producer
 414              		.section	.rodata.main.str1.4,"aMS",@progbits,1
 415              		.align 4
 416              	.LC3:
 417 0000 0D0A3D3D 		.string	"\r\n=== Producer-Consumer Demo ===\r\n"
 417      3D205072 
 417      6F647563 
 417      65722D43 
 417      6F6E7375 
 418 0023 00       		.align 4
 419              	.LC4:
 420 0024 50726F64 		.string	"Producer: generates every %u ms\r\n"
 420      75636572 
 420      3A206765 
 420      6E657261 
 420      74657320 
 421 0046 0000     		.align 4
 422              	.LC5:
 423 0048 436F6E73 		.string	"Consumer: processes every %u ms\r\n"
 423      756D6572 
 423      3A207072 
 423      6F636573 
 423      73657320 
 424              		.section	.rodata.main.str1.1,"aMS",@progbits,1
 425              	.LC6:
 426 0000 42756666 		.string	"Buffer size: %d items\r\n\r\n"
GAS LISTING /tmp/ccLLfGOV.s 			page 10


 426      65722073 
 426      697A653A 
 426      20256420 
 426      6974656D 
 427              		.section	.text.startup.main,"ax",@progbits
 428              		.p2align 4
 429              		.globl	main
 430              		.type	main, @function
 431              	main:
 432              	.LFB301:
 433              		.loc 1 81 16 view -0
 434              		.cfi_startproc
 435              		.loc 1 82 5 view .LVU88
 436              		.loc 1 81 16 is_stmt 0 view .LVU89
 437 0000 8D4C2404 		leal	4(%esp), %ecx
 438              		.cfi_def_cfa 1, 0
 439 0004 83E4F0   		andl	$-16, %esp
 440 0007 FF71FC   		pushl	-4(%ecx)
 441 000a 55       		pushl	%ebp
 442 000b 89E5     		movl	%esp, %ebp
 443              		.cfi_escape 0x10,0x5,0x2,0x75,0
 444 000d 57       		pushl	%edi
 445 000e 56       		pushl	%esi
 446 000f 53       		pushl	%ebx
 447              		.cfi_escape 0x10,0x7,0x2,0x75,0x7c
 448              		.cfi_escape 0x10,0x6,0x2,0x75,0x78
 449              		.cfi_escape 0x10,0x3,0x2,0x75,0x74
 450 0010 E8FCFFFF 		call	__x86.get_pc_thunk.bx
 450      FF
 451 0015 81C30200 		addl	$_GLOBAL_OFFSET_TABLE_, %ebx
 451      0000
 452 001b 51       		pushl	%ecx
 453              		.cfi_escape 0xf,0x3,0x75,0x70,0x6
 454 001c 83EC08   		subl	$8, %esp
 455              		.loc 1 82 5 view .LVU90
 456 001f E8FCFFFF 		call	halInit@PLT
 456      FF
 457              	.LVL32:
 458              		.loc 1 83 5 is_stmt 1 view .LVU91
 459              		.loc 1 87 5 is_stmt 0 view .LVU92
 460 0024 8DBB0000 		leal	print_mutex@GOTOFF(%ebx), %edi
 460      0000
 461              		.loc 1 83 5 view .LVU93
 462 002a E8FCFFFF 		call	chSysInit@PLT
 462      FF
 463              	.LVL33:
 464              		.loc 1 84 5 is_stmt 1 view .LVU94
 465 002f 8BB30000 		movl	SD1@GOT(%ebx), %esi
 465      0000
 466 0035 83EC08   		subl	$8, %esp
 467 0038 6A00     		pushl	$0
 468 003a 56       		pushl	%esi
 469 003b E8FCFFFF 		call	sdStart@PLT
 469      FF
 470              	.LVL34:
 471              		.loc 1 86 5 view .LVU95
 472 0040 8D830000 		leal	buffer_mutex@GOTOFF(%ebx), %eax
GAS LISTING /tmp/ccLLfGOV.s 			page 11


 472      0000
 473 0046 890424   		movl	%eax, (%esp)
 474 0049 E8FCFFFF 		call	chMtxObjectInit@PLT
 474      FF
 475              	.LVL35:
 476              		.loc 1 87 5 view .LVU96
 477 004e 893C24   		movl	%edi, (%esp)
 478 0051 E8FCFFFF 		call	chMtxObjectInit@PLT
 478      FF
 479              	.LVL36:
 480              		.loc 1 88 5 view .LVU97
 481 0056 8D830000 		leal	buffer_event@GOTOFF(%ebx), %eax
 481      0000
 482 005c 890424   		movl	%eax, (%esp)
 483 005f E8FCFFFF 		call	chEvtObjectInit@PLT
 483      FF
 484              	.LVL37:
 485              		.loc 1 90 5 view .LVU98
 486 0064 8D830000 		leal	Producer@GOTOFF(%ebx), %eax
 486      0000
 487 006a C7042400 		movl	$0, (%esp)
 487      000000
 488 0071 50       		pushl	%eax
 489 0072 8D830000 		leal	waProducer@GOTOFF(%ebx), %eax
 489      0000
 490 0078 68800000 		pushl	$128
 490      00
 491 007d 68804100 		pushl	$16768
 491      00
 492 0082 50       		pushl	%eax
 493 0083 E8FCFFFF 		call	chThdCreateStatic@PLT
 493      FF
 494              	.LVL38:
 495              		.loc 1 91 5 view .LVU99
 496 0088 83C414   		addl	$20, %esp
 497 008b 8D830000 		leal	Consumer@GOTOFF(%ebx), %eax
 497      0000
 498 0091 6A00     		pushl	$0
 499 0093 50       		pushl	%eax
 500 0094 8D830000 		leal	waConsumer@GOTOFF(%ebx), %eax
 500      0000
 501 009a 68800000 		pushl	$128
 501      00
 502 009f 68804100 		pushl	$16768
 502      00
 503 00a4 50       		pushl	%eax
 504 00a5 E8FCFFFF 		call	chThdCreateStatic@PLT
 504      FF
 505              	.LVL39:
 506              		.loc 1 93 5 view .LVU100
 507 00aa 83C414   		addl	$20, %esp
 508 00ad 57       		pushl	%edi
 509 00ae E8FCFFFF 		call	chMtxLock@PLT
 509      FF
 510              	.LVL40:
 511              		.loc 1 94 5 view .LVU101
 512 00b3 58       		popl	%eax
GAS LISTING /tmp/ccLLfGOV.s 			page 12


 513 00b4 8D830000 		leal	.LC3@GOTOFF(%ebx), %eax
 513      0000
 514 00ba 5A       		popl	%edx
 515 00bb 50       		pushl	%eax
 516 00bc 56       		pushl	%esi
 517 00bd E8FCFFFF 		call	chprintf@PLT
 517      FF
 518              	.LVL41:
 519              		.loc 1 95 5 view .LVU102
 520 00c2 83C40C   		addl	$12, %esp
 521 00c5 8D830000 		leal	.LC4@GOTOFF(%ebx), %eax
 521      0000
 522 00cb 68200300 		pushl	$800
 522      00
 523 00d0 50       		pushl	%eax
 524 00d1 56       		pushl	%esi
 525 00d2 E8FCFFFF 		call	chprintf@PLT
 525      FF
 526              	.LVL42:
 527              		.loc 1 96 5 view .LVU103
 528 00d7 83C40C   		addl	$12, %esp
 529 00da 8D830000 		leal	.LC5@GOTOFF(%ebx), %eax
 529      0000
 530 00e0 68C80000 		pushl	$200
 530      00
 531 00e5 50       		pushl	%eax
 532 00e6 56       		pushl	%esi
 533 00e7 E8FCFFFF 		call	chprintf@PLT
 533      FF
 534              	.LVL43:
 535              		.loc 1 97 5 view .LVU104
 536 00ec 83C40C   		addl	$12, %esp
 537 00ef 8D830000 		leal	.LC6@GOTOFF(%ebx), %eax
 537      0000
 538 00f5 6A0A     		pushl	$10
 539 00f7 50       		pushl	%eax
 540 00f8 56       		pushl	%esi
 541 00f9 E8FCFFFF 		call	chprintf@PLT
 541      FF
 542              	.LVL44:
 543              		.loc 1 98 5 view .LVU105
 544 00fe 893C24   		movl	%edi, (%esp)
 545 0101 E8FCFFFF 		call	chMtxUnlock@PLT
 545      FF
 546              	.LVL45:
 547 0106 83C410   		addl	$16, %esp
 548 0109 8DB42600 		.p2align 4,,10
 548      000000
 549              		.p2align 3
 550              	.L18:
 551              		.loc 1 100 5 discriminator 1 view .LVU106
 552              		.loc 1 101 9 discriminator 1 view .LVU107
 553 0110 83EC0C   		subl	$12, %esp
 554 0113 68E80300 		pushl	$1000
 554      00
 555 0118 E8FCFFFF 		call	chThdSleep@PLT
 555      FF
GAS LISTING /tmp/ccLLfGOV.s 			page 13


 556              	.LVL46:
 557              		.loc 1 100 11 discriminator 1 view .LVU108
 558              		.loc 1 101 9 is_stmt 0 discriminator 1 view .LVU109
 559 011d 83C410   		addl	$16, %esp
 560 0120 EBEE     		jmp	.L18
 561              		.cfi_endproc
 562              	.LFE301:
 563              		.size	main, .-main
 564              		.section	.bss.waConsumer,"aw",@nobits
 565              		.align 16
 566              		.type	waConsumer, @object
 567              		.size	waConsumer, 16768
 568              	waConsumer:
 569 0000 00000000 		.zero	16768
 569      00000000 
 569      00000000 
 569      00000000 
 569      00000000 
 570              		.section	.bss.waProducer,"aw",@nobits
 571              		.align 16
 572              		.type	waProducer, @object
 573              		.size	waProducer, 16768
 574              	waProducer:
 575 0000 00000000 		.zero	16768
 575      00000000 
 575      00000000 
 575      00000000 
 575      00000000 
 576              		.section	.data.number_counter,"aw"
 577              		.align 4
 578              		.type	number_counter, @object
 579              		.size	number_counter, 4
 580              	number_counter:
 581 0000 01000000 		.long	1
 582              		.section	.bss.buffer_event,"aw",@nobits
 583              		.align 4
 584              		.type	buffer_event, @object
 585              		.size	buffer_event, 4
 586              	buffer_event:
 587 0000 00000000 		.zero	4
 588              		.section	.bss.print_mutex,"aw",@nobits
 589              		.align 4
 590              		.type	print_mutex, @object
 591              		.size	print_mutex, 16
 592              	print_mutex:
 593 0000 00000000 		.zero	16
 593      00000000 
 593      00000000 
 593      00000000 
 594              		.section	.bss.buffer_mutex,"aw",@nobits
 595              		.align 4
 596              		.type	buffer_mutex, @object
 597              		.size	buffer_mutex, 16
 598              	buffer_mutex:
 599 0000 00000000 		.zero	16
 599      00000000 
 599      00000000 
GAS LISTING /tmp/ccLLfGOV.s 			page 14


 599      00000000 
 600              		.section	.bss.buffer_count,"aw",@nobits
 601              		.align 4
 602              		.type	buffer_count, @object
 603              		.size	buffer_count, 4
 604              	buffer_count:
 605 0000 00000000 		.zero	4
 606              		.section	.bss.buffer_tail,"aw",@nobits
 607              		.align 4
 608              		.type	buffer_tail, @object
 609              		.size	buffer_tail, 4
 610              	buffer_tail:
 611 0000 00000000 		.zero	4
 612              		.section	.bss.buffer_head,"aw",@nobits
 613              		.align 4
 614              		.type	buffer_head, @object
 615              		.size	buffer_head, 4
 616              	buffer_head:
 617 0000 00000000 		.zero	4
 618              		.section	.bss.buffer,"aw",@nobits
 619              		.align 32
 620              		.type	buffer, @object
 621              		.size	buffer, 40
 622              	buffer:
 623 0000 00000000 		.zero	40
 623      00000000 
 623      00000000 
 623      00000000 
 623      00000000 
 624              		.section	.text.__x86.get_pc_thunk.bx,"axG",@progbits,__x86.get_pc_thunk.bx,comdat
 625              		.globl	__x86.get_pc_thunk.bx
 626              		.hidden	__x86.get_pc_thunk.bx
 627              		.type	__x86.get_pc_thunk.bx, @function
 628              	__x86.get_pc_thunk.bx:
 629              	.LFB302:
 630              		.cfi_startproc
 631 0000 8B1C24   		movl	(%esp), %ebx
 632 0003 C3       		ret
 633              		.cfi_endproc
 634              	.LFE302:
 635              		.text
 636              	.Letext0:
 637              		.file 3 "/usr/lib/gcc/x86_64-linux-gnu/11/include/stddef.h"
 638              		.file 4 "/usr/include/bits/types.h"
 639              		.file 5 "/usr/include/bits/stdint-intn.h"
 640              		.file 6 "/usr/include/bits/stdint-uintn.h"
 641              		.file 7 "../../../os/common/ports/SIMIA32/compilers/GCC/chtypes.h"
 642              		.file 8 "../../../os/rt/include/chearly.h"
 643              		.file 9 "../../../os/rt/include/chobjects.h"
 644              		.file 10 "../../../os/rt/include/chrfcu.h"
 645              		.file 11 "../../../os/rt/include/chdebug.h"
 646              		.file 12 "../../../os/rt/include/chtime.h"
 647              		.file 13 "../../../os/rt/include/chlists.h"
 648              		.file 14 "../../../os/common/ports/SIMIA32/chcore.h"
 649              		.file 15 "../../../os/rt/include/chsem.h"
 650              		.file 16 "../../../os/rt/include/chmtx.h"
 651              		.file 17 "../../../os/rt/include/chthreads.h"
GAS LISTING /tmp/ccLLfGOV.s 			page 15


 652              		.file 18 "../../../os/hal/include/hal_streams.h"
 653              		.file 19 "../../../os/hal/include/hal_queues.h"
 654              		.file 20 "../../../os/hal/include/hal_serial.h"
 655              		.file 21 "../../../os/hal/ports/simulator/posix/hal_serial_lld.h"
 656              		.file 22 "../../../os/hal/lib/streams/chprintf.h"
 657              		.file 23 "../../../os/rt/include/chsys.h"
 658              		.file 24 "../../../os/hal/include/hal.h"
 4314 002d 2F686F6D 		.section	.note.GNU-stack,"",@progbits
 4314      652F616C 
 4314      65782F43 
 4314      68696269 
 4314      4F532F64 
GAS LISTING /tmp/ccLLfGOV.s 			page 87

