GAS LISTING /tmp/ccLLfGOV.s 			page 1


   1              		.file	"main.c"
   2              		.text
   3              	.Ltext0:
   4              		.file 0 "/home/alex/ChibiOS/demos/various/LAB2" "main.c"
   5              		.section	.rodata.Consumer.str1.4,"aMS",@progbits,1
   6              		.align 4
   7              	.LC0:
   8 0000 5B434F4E 		.string	"[CONSUMER] Processed: %3d (buffer: %2u/10)\r\n"
   8      53554D45 
   8      525D2050 
   8      726F6365 
   8      73736564 
   9              		.section	.text.Consumer,"ax",@progbits
  10              		.p2align 4
  11              		.type	Consumer, @function
  12              	Consumer:
  13              	.LVL0:
  14              	.LFB300:
  15              		.file 1 "main.c"
  16              		.loc 1 57 36 view -0
  17              		.cfi_startproc
  18              		.loc 1 57 36 is_stmt 0 view .LVU1
  19 0000 55       		pushl	%ebp
  20              		.cfi_def_cfa_offset 8
  21              		.cfi_offset 5, -8
  22 0001 57       		pushl	%edi
  23              		.cfi_def_cfa_offset 12
  24              		.cfi_offset 7, -12
  25 0002 56       		pushl	%esi
  26              		.cfi_def_cfa_offset 16
  27              		.cfi_offset 6, -16
  28 0003 53       		pushl	%ebx
  29              		.cfi_def_cfa_offset 20
  30              		.cfi_offset 3, -20
  31 0004 E8FCFFFF 		call	__x86.get_pc_thunk.bx
  31      FF
  32 0009 81C30200 		addl	$_GLOBAL_OFFSET_TABLE_, %ebx
  32      0000
  33 000f 83EC3C   		subl	$60, %esp
  34              		.cfi_def_cfa_offset 80
  35              		.loc 1 57 36 view .LVU2
  36 0012 65A11400 		movl	%gs:20, %eax
  36      0000
  37 0018 8944242C 		movl	%eax, 44(%esp)
  38 001c 31C0     		xorl	%eax, %eax
  39              		.loc 1 58 5 is_stmt 1 view .LVU3
  40              		.loc 1 59 5 view .LVU4
  41              		.loc 1 60 5 view .LVU5
  42              	.LVL1:
  43              	.LBB12:
  44              	.LBI12:
  45              		.file 2 "../../../os/rt/include/chevents.h"
  46              		.loc 2 205 20 view .LVU6
  47              	.LBB13:
  48              		.loc 2 209 3 view .LVU7
  49              	.LBB14:
  50              	.LBI14:
GAS LISTING /tmp/ccLLfGOV.s 			page 2


  51              		.loc 2 185 20 view .LVU8
  52              	.LBB15:
  53              		.loc 2 189 3 view .LVU9
  54 001e 6AFF     		pushl	$-1
  55              		.cfi_def_cfa_offset 84
  56 0020 6A01     		pushl	$1
  57              		.cfi_def_cfa_offset 88
  58 0022 8DBB0000 		leal	print_mutex@GOTOFF(%ebx), %edi
  58      0000
  59 0028 8DB30000 		leal	buffer_mutex@GOTOFF(%ebx), %esi
  59      0000
  60 002e 8D442420 		leal	32(%esp), %eax
  61              	.LVL2:
  62              		.loc 2 189 3 is_stmt 0 view .LVU10
  63              	.LBE15:
  64              	.LBE14:
  65              	.LBE13:
  66              	.LBE12:
  67              	.LBB19:
  68              		.loc 1 68 45 view .LVU11
  69 0032 89FD     		movl	%edi, %ebp
  70              	.LBE19:
  71              	.LBB20:
  72              	.LBB18:
  73              	.LBB17:
  74              	.LBB16:
  75              		.loc 2 189 3 view .LVU12
  76 0034 50       		pushl	%eax
  77              		.cfi_def_cfa_offset 92
  78 0035 8D830000 		leal	buffer_event@GOTOFF(%ebx), %eax
  78      0000
  79              	.LVL3:
  80              		.loc 2 189 3 view .LVU13
  81 003b 50       		pushl	%eax
  82              		.cfi_def_cfa_offset 96
  83 003c E8FCFFFF 		call	chEvtRegisterMaskWithFlags@PLT
  83      FF
  84              	.LVL4:
  85              		.loc 2 189 3 view .LVU14
  86              	.LBE16:
  87              	.LBE17:
  88              		.loc 2 210 1 view .LVU15
  89 0041 83C410   		addl	$16, %esp
  90              		.cfi_def_cfa_offset 80
  91 0044 8D830000 		leal	buffer@GOTOFF(%ebx), %eax
  91      0000
  92 004a 89442408 		movl	%eax, 8(%esp)
  93 004e 8D830000 		leal	.LC0@GOTOFF(%ebx), %eax
  93      0000
  94 0054 89442404 		movl	%eax, 4(%esp)
  95 0058 8B830000 		movl	SD1@GOT(%ebx), %eax
  95      0000
  96 005e 8944240C 		movl	%eax, 12(%esp)
  97              	.LVL5:
  98              		.p2align 4,,10
  99 0062 8DB60000 		.p2align 3
  99      0000
GAS LISTING /tmp/ccLLfGOV.s 			page 3


 100              	.L3:
 101              		.loc 2 210 1 view .LVU16
 102              	.LBE18:
 103              	.LBE20:
 104              		.loc 1 62 5 is_stmt 1 view .LVU17
 105              		.loc 1 63 9 view .LVU18
 106 0068 83EC0C   		subl	$12, %esp
 107              		.cfi_def_cfa_offset 92
 108 006b 6A01     		pushl	$1
 109              		.cfi_def_cfa_offset 96
 110 006d E8FCFFFF 		call	chEvtWaitAny@PLT
 110      FF
 111              	.LVL6:
 112              		.loc 1 65 9 view .LVU19
 113 0072 893424   		movl	%esi, (%esp)
 114 0075 E8FCFFFF 		call	chMtxLock@PLT
 114      FF
 115              	.LVL7:
 116              		.loc 1 66 9 view .LVU20
 117              		.loc 1 66 26 is_stmt 0 view .LVU21
 118 007a 8BBB0000 		movl	buffer_count@GOTOFF(%ebx), %edi
 118      0000
 119              		.loc 1 66 12 view .LVU22
 120 0080 83C410   		addl	$16, %esp
 121              		.cfi_def_cfa_offset 80
 122 0083 85FF     		testl	%edi, %edi
 123 0085 7460     		je	.L2
 124              	.LBB21:
 125              		.loc 1 67 13 is_stmt 1 view .LVU23
 126              	.LVL8:
 127              		.loc 1 68 13 view .LVU24
 128              		.loc 1 67 17 is_stmt 0 view .LVU25
 129 0087 8B442408 		movl	8(%esp), %eax
 130              		.loc 1 67 29 view .LVU26
 131 008b 8B8B0000 		movl	buffer_tail@GOTOFF(%ebx), %ecx
 131      0000
 132              		.loc 1 71 13 view .LVU27
 133 0091 83EC0C   		subl	$12, %esp
 134              		.cfi_def_cfa_offset 92
 135              		.loc 1 69 25 view .LVU28
 136 0094 83EF01   		subl	$1, %edi
 137 0097 89BB0000 		movl	%edi, buffer_count@GOTOFF(%ebx)
 137      0000
 138              		.loc 1 67 17 view .LVU29
 139 009d 8B0488   		movl	(%eax,%ecx,4), %eax
 140              		.loc 1 68 40 view .LVU30
 141 00a0 83C101   		addl	$1, %ecx
 142              		.loc 1 67 17 view .LVU31
 143 00a3 8944240C 		movl	%eax, 12(%esp)
 144              	.LVL9:
 145              		.loc 1 68 45 view .LVU32
 146 00a7 B8CDCCCC 		movl	$-858993459, %eax
 146      CC
 147 00ac F7E1     		mull	%ecx
 148              		.loc 1 71 13 view .LVU33
 149 00ae 55       		pushl	%ebp
 150              		.cfi_def_cfa_offset 96
GAS LISTING /tmp/ccLLfGOV.s 			page 4


 151              		.loc 1 68 45 view .LVU34
 152 00af C1EA03   		shrl	$3, %edx
 153 00b2 8D0492   		leal	(%edx,%edx,4), %eax
 154 00b5 01C0     		addl	%eax, %eax
 155 00b7 29C1     		subl	%eax, %ecx
 156 00b9 898B0000 		movl	%ecx, buffer_tail@GOTOFF(%ebx)
 156      0000
 157              		.loc 1 69 13 is_stmt 1 view .LVU35
 158              		.loc 1 71 13 view .LVU36
 159 00bf E8FCFFFF 		call	chMtxLock@PLT
 159      FF
 160              	.LVL10:
 161              		.loc 1 72 13 view .LVU37
 162 00c4 FFB30000 		pushl	buffer_count@GOTOFF(%ebx)
 162      0000
 163              		.cfi_def_cfa_offset 100
 164 00ca FF742414 		pushl	20(%esp)
 165              		.cfi_def_cfa_offset 104
 166 00ce FF74241C 		pushl	28(%esp)
 167              		.cfi_def_cfa_offset 108
 168 00d2 FF742428 		pushl	40(%esp)
 169              		.cfi_def_cfa_offset 112
 170 00d6 E8FCFFFF 		call	chprintf@PLT
 170      FF
 171              	.LVL11:
 172              		.loc 1 73 13 view .LVU38
 173 00db 83C414   		addl	$20, %esp
 174              		.cfi_def_cfa_offset 92
 175 00de 55       		pushl	%ebp
 176              		.cfi_def_cfa_offset 96
 177 00df E8FCFFFF 		call	chMtxUnlock@PLT
 177      FF
 178              	.LVL12:
 179 00e4 83C410   		addl	$16, %esp
 180              		.cfi_def_cfa_offset 80
 181              	.L2:
 182              		.loc 1 73 13 is_stmt 0 view .LVU39
 183              	.LBE21:
 184              		.loc 1 75 9 is_stmt 1 view .LVU40
 185 00e7 83EC0C   		subl	$12, %esp
 186              		.cfi_def_cfa_offset 92
 187 00ea 56       		pushl	%esi
 188              		.cfi_def_cfa_offset 96
 189 00eb E8FCFFFF 		call	chMtxUnlock@PLT
 189      FF
 190              	.LVL13:
 191              		.loc 1 77 9 view .LVU41
 192 00f0 C70424C8 		movl	$200, (%esp)
 192      000000
 193 00f7 E8FCFFFF 		call	chThdSleep@PLT
 193      FF
 194              	.LVL14:
 195              		.loc 1 62 11 view .LVU42
 196              		.loc 1 63 9 is_stmt 0 view .LVU43
 197 00fc 83C410   		addl	$16, %esp
 198              		.cfi_def_cfa_offset 80
 199 00ff E964FFFF 		jmp	.L3
GAS LISTING /tmp/ccLLfGOV.s 			page 5


 199      FF
 200              		.cfi_endproc
 201              	.LFE300:
 202              		.size	Consumer, .-Consumer
 203              		.section	.rodata.Producer.str1.4,"aMS",@progbits,1
 204              		.align 4
 205              	.LC1:
 206 0000 5B50524F 		.string	"[PRODUCER] Waiting (buffer full)\r\n"
 206      44554345 
 206      525D2057 
 206      61697469 
 206      6E672028 
 207 0023 00       		.align 4
 208              	.LC2:
 209 0024 5B50524F 		.string	"[PRODUCER] Added: %3d (buffer: %2u/10)\r\n"
 209      44554345 
 209      525D2041 
 209      64646564 
 209      3A202533 
 210              		.section	.text.Producer,"ax",@progbits
 211              		.p2align 4
 212              		.type	Producer, @function
 213              	Producer:
 214              	.LVL15:
 215              	.LFB299:
 216              		.loc 1 23 36 is_stmt 1 view -0
 217              		.cfi_startproc
 218              		.loc 1 23 36 is_stmt 0 view .LVU45
 219 0000 55       		pushl	%ebp
 220              		.cfi_def_cfa_offset 8
 221              		.cfi_offset 5, -8
 222 0001 57       		pushl	%edi
 223              		.cfi_def_cfa_offset 12
 224              		.cfi_offset 7, -12
 225 0002 56       		pushl	%esi
 226              		.cfi_def_cfa_offset 16
 227              		.cfi_offset 6, -16
 228 0003 53       		pushl	%ebx
 229              		.cfi_def_cfa_offset 20
 230              		.cfi_offset 3, -20
 231 0004 E8FCFFFF 		call	__x86.get_pc_thunk.bx
 231      FF
 232 0009 81C30200 		addl	$_GLOBAL_OFFSET_TABLE_, %ebx
 232      0000
 233 000f 83EC2C   		subl	$44, %esp
 234              		.cfi_def_cfa_offset 64
 235 0012 8D830000 		leal	print_mutex@GOTOFF(%ebx), %eax
 235      0000
 236 0018 8DBB0000 		leal	buffer_mutex@GOTOFF(%ebx), %edi
 236      0000
 237 001e 8944240C 		movl	%eax, 12(%esp)
 238 0022 8D830000 		leal	.LC1@GOTOFF(%ebx), %eax
 238      0000
 239 0028 8944241C 		movl	%eax, 28(%esp)
 240 002c 8B830000 		movl	SD1@GOT(%ebx), %eax
 240      0000
 241 0032 89442408 		movl	%eax, 8(%esp)
GAS LISTING /tmp/ccLLfGOV.s 			page 6


 242 0036 8D830000 		leal	buffer@GOTOFF(%ebx), %eax
 242      0000
 243 003c 89442410 		movl	%eax, 16(%esp)
 244 0040 8D830000 		leal	.LC2@GOTOFF(%ebx), %eax
 244      0000
 245 0046 89442418 		movl	%eax, 24(%esp)
 246 004a 8D830000 		leal	buffer_event@GOTOFF(%ebx), %eax
 246      0000
 247 0050 89442414 		movl	%eax, 20(%esp)
 248 0054 E9850000 		jmp	.L13
 248      00
 249              	.LVL16:
 250 0059 8DB42600 		.p2align 4,,10
 250      000000
 251              		.p2align 3
 252              	.L11:
 253              	.LBB22:
 254              		.loc 1 41 9 is_stmt 1 view .LVU46
 255              		.loc 1 41 29 is_stmt 0 view .LVU47
 256 0060 8B442410 		movl	16(%esp), %eax
 257              		.loc 1 41 15 view .LVU48
 258 0064 8B8B0000 		movl	buffer_head@GOTOFF(%ebx), %ecx
 258      0000
 259              		.loc 1 45 9 view .LVU49
 260 006a 83EC0C   		subl	$12, %esp
 261              		.cfi_def_cfa_offset 76
 262              		.loc 1 43 21 view .LVU50
 263 006d 83C501   		addl	$1, %ebp
 264 0070 89AB0000 		movl	%ebp, buffer_count@GOTOFF(%ebx)
 264      0000
 265              		.loc 1 45 9 view .LVU51
 266 0076 8B6C2418 		movl	24(%esp), %ebp
 267              		.loc 1 41 29 view .LVU52
 268 007a 893488   		movl	%esi, (%eax,%ecx,4)
 269              		.loc 1 42 9 is_stmt 1 view .LVU53
 270              		.loc 1 42 36 is_stmt 0 view .LVU54
 271 007d 83C101   		addl	$1, %ecx
 272              		.loc 1 42 41 view .LVU55
 273 0080 B8CDCCCC 		movl	$-858993459, %eax
 273      CC
 274 0085 F7E1     		mull	%ecx
 275              		.loc 1 45 9 view .LVU56
 276 0087 55       		pushl	%ebp
 277              		.cfi_def_cfa_offset 80
 278              		.loc 1 42 41 view .LVU57
 279 0088 C1EA03   		shrl	$3, %edx
 280 008b 8D0492   		leal	(%edx,%edx,4), %eax
 281 008e 01C0     		addl	%eax, %eax
 282 0090 29C1     		subl	%eax, %ecx
 283 0092 898B0000 		movl	%ecx, buffer_head@GOTOFF(%ebx)
 283      0000
 284              		.loc 1 43 9 is_stmt 1 view .LVU58
 285              		.loc 1 45 9 view .LVU59
 286 0098 E8FCFFFF 		call	chMtxLock@PLT
 286      FF
 287              	.LVL17:
 288              		.loc 1 46 9 view .LVU60
GAS LISTING /tmp/ccLLfGOV.s 			page 7


 289 009d FFB30000 		pushl	buffer_count@GOTOFF(%ebx)
 289      0000
 290              		.cfi_def_cfa_offset 84
 291 00a3 56       		pushl	%esi
 292              		.cfi_def_cfa_offset 88
 293 00a4 FF742430 		pushl	48(%esp)
 294              		.cfi_def_cfa_offset 92
 295 00a8 FF742424 		pushl	36(%esp)
 296              		.cfi_def_cfa_offset 96
 297 00ac E8FCFFFF 		call	chprintf@PLT
 297      FF
 298              	.LVL18:
 299              		.loc 1 47 9 view .LVU61
 300 00b1 83C414   		addl	$20, %esp
 301              		.cfi_def_cfa_offset 76
 302 00b4 55       		pushl	%ebp
 303              		.cfi_def_cfa_offset 80
 304 00b5 E8FCFFFF 		call	chMtxUnlock@PLT
 304      FF
 305              	.LVL19:
 306              		.loc 1 49 9 view .LVU62
 307              	.LBB23:
 308              	.LBI23:
 309              		.loc 2 233 20 view .LVU63
 310              	.LBB24:
 311              		.loc 2 235 3 view .LVU64
 312 00ba 58       		popl	%eax
 313              		.cfi_def_cfa_offset 76
 314 00bb 5A       		popl	%edx
 315              		.cfi_def_cfa_offset 72
 316 00bc 6A00     		pushl	$0
 317              		.cfi_def_cfa_offset 76
 318 00be FF742420 		pushl	32(%esp)
 319              		.cfi_def_cfa_offset 80
 320 00c2 E8FCFFFF 		call	chEvtBroadcastFlags@PLT
 320      FF
 321              	.LVL20:
 322              		.loc 2 235 3 is_stmt 0 view .LVU65
 323              	.LBE24:
 324              	.LBE23:
 325              		.loc 1 50 9 is_stmt 1 view .LVU66
 326 00c7 893C24   		movl	%edi, (%esp)
 327 00ca E8FCFFFF 		call	chMtxUnlock@PLT
 327      FF
 328              	.LVL21:
 329              		.loc 1 52 9 view .LVU67
 330 00cf C7042420 		movl	$800, (%esp)
 330      030000
 331 00d6 E8FCFFFF 		call	chThdSleep@PLT
 331      FF
 332              	.LVL22:
 333              	.LBE22:
 334              		.loc 1 26 11 view .LVU68
 335              		.loc 1 26 18 is_stmt 0 view .LVU69
 336 00db 83C410   		addl	$16, %esp
 337              		.cfi_def_cfa_offset 64
 338              	.LVL23:
GAS LISTING /tmp/ccLLfGOV.s 			page 8


 339              	.L13:
 340              		.loc 1 24 5 is_stmt 1 view .LVU70
 341              		.loc 1 26 5 view .LVU71
 342              	.LBB25:
 343              		.loc 1 27 9 view .LVU72
 344              		.loc 1 29 9 is_stmt 0 view .LVU73
 345 00de 83EC0C   		subl	$12, %esp
 346              		.cfi_def_cfa_offset 76
 347              		.loc 1 27 33 view .LVU74
 348 00e1 8BB30000 		movl	number_counter@GOTOFF(%ebx), %esi
 348      0000
 349              		.loc 1 29 9 view .LVU75
 350 00e7 57       		pushl	%edi
 351              		.cfi_def_cfa_offset 80
 352              		.loc 1 27 33 view .LVU76
 353 00e8 8D4601   		leal	1(%esi), %eax
 354 00eb 89830000 		movl	%eax, number_counter@GOTOFF(%ebx)
 354      0000
 355              	.LVL24:
 356              		.loc 1 29 9 is_stmt 1 view .LVU77
 357 00f1 E8FCFFFF 		call	chMtxLock@PLT
 357      FF
 358              	.LVL25:
 359              		.loc 1 30 9 view .LVU78
 360              		.loc 1 30 29 view .LVU79
 361 00f6 8BAB0000 		movl	buffer_count@GOTOFF(%ebx), %ebp
 361      0000
 362 00fc 83C410   		addl	$16, %esp
 363              		.cfi_def_cfa_offset 64
 364 00ff 83FD0A   		cmpl	$10, %ebp
 365 0102 0F8558FF 		jne	.L11
 365      FFFF
 366 0108 8B6C240C 		movl	12(%esp), %ebp
 367              	.L12:
 368              		.loc 1 31 13 view .LVU80
 369 010c 83EC0C   		subl	$12, %esp
 370              		.cfi_def_cfa_offset 76
 371 010f 57       		pushl	%edi
 372              		.cfi_def_cfa_offset 80
 373 0110 E8FCFFFF 		call	chMtxUnlock@PLT
 373      FF
 374              	.LVL26:
 375              		.loc 1 33 13 view .LVU81
 376 0115 892C24   		movl	%ebp, (%esp)
 377 0118 E8FCFFFF 		call	chMtxLock@PLT
 377      FF
 378              	.LVL27:
 379              		.loc 1 34 13 view .LVU82
 380 011d 59       		popl	%ecx
 381              		.cfi_def_cfa_offset 76
 382 011e 58       		popl	%eax
 383              		.cfi_def_cfa_offset 72
 384 011f FF742424 		pushl	36(%esp)
 385              		.cfi_def_cfa_offset 76
 386 0123 FF742414 		pushl	20(%esp)
 387              		.cfi_def_cfa_offset 80
 388 0127 E8FCFFFF 		call	chprintf@PLT
GAS LISTING /tmp/ccLLfGOV.s 			page 9


 388      FF
 389              	.LVL28:
 390              		.loc 1 35 13 view .LVU83
 391 012c 892C24   		movl	%ebp, (%esp)
 392 012f E8FCFFFF 		call	chMtxUnlock@PLT
 392      FF
 393              	.LVL29:
 394              		.loc 1 37 13 view .LVU84
 395 0134 C7042420 		movl	$800, (%esp)
 395      030000
 396 013b E8FCFFFF 		call	chThdSleep@PLT
 396      FF
 397              	.LVL30:
 398              		.loc 1 38 13 view .LVU85
 399 0140 893C24   		movl	%edi, (%esp)
 400 0143 E8FCFFFF 		call	chMtxLock@PLT
 400      FF
 401              	.LVL31:
 402              		.loc 1 30 29 view .LVU86
 403 0148 8B830000 		movl	buffer_count@GOTOFF(%ebx), %eax
 403      0000
 404 014e 83C410   		addl	$16, %esp
 405              		.cfi_def_cfa_offset 64
 406 0151 83F80A   		cmpl	$10, %eax
 407 0154 74B6     		je	.L12
 408 0156 89C5     		movl	%eax, %ebp
 409 0158 E903FFFF 		jmp	.L11
 409      FF
 410              	.LBE25:
 411              		.cfi_endproc
 412              	.LFE299:
 413              		.size	Producer, .-Producer
 414              		.section	.rodata.main.str1.4,"aMS",@progbits,1
 415              		.align 4
 416              	.LC3:
 417 0000 0D0A3D3D 		.string	"\r\n=== Producer-Consumer Demo ===\r\n"
 417      3D205072 
 417      6F647563 
 417      65722D43 
 417      6F6E7375 
 418 0023 00       		.align 4
 419              	.LC4:
 420 0024 50726F64 		.string	"Producer: generates every %u ms\r\n"
 420      75636572 
 420      3A206765 
 420      6E657261 
 420      74657320 
 421 0046 0000     		.align 4
 422              	.LC5:
 423 0048 436F6E73 		.string	"Consumer: processes every %u ms\r\n"
 423      756D6572 
 423      3A207072 
 423      6F636573 
 423      73657320 
 424              		.section	.rodata.main.str1.1,"aMS",@progbits,1
 425              	.LC6:
 426 0000 42756666 		.string	"Buffer size: %d items\r\n\r\n"
GAS LISTING /tmp/ccLLfGOV.s 			page 10


 426      65722073 
 426      697A653A 
 426      20256420 
 426      6974656D 
 427              		.section	.text.startup.main,"ax",@progbits
 428              		.p2align 4
 429              		.globl	main
 430              		.type	main, @function
 431              	main:
 432              	.LFB301:
 433              		.loc 1 81 16 view -0
 434              		.cfi_startproc
 435              		.loc 1 82 5 view .LVU88
 436              		.loc 1 81 16 is_stmt 0 view .LVU89
 437 0000 8D4C2404 		leal	4(%esp), %ecx
 438              		.cfi_def_cfa 1, 0
 439 0004 83E4F0   		andl	$-16, %esp
 440 0007 FF71FC   		pushl	-4(%ecx)
 441 000a 55       		pushl	%ebp
 442 000b 89E5     		movl	%esp, %ebp
 443              		.cfi_escape 0x10,0x5,0x2,0x75,0
 444 000d 57       		pushl	%edi
 445 000e 56       		pushl	%esi
 446 000f 53       		pushl	%ebx
 447              		.cfi_escape 0x10,0x7,0x2,0x75,0x7c
 448              		.cfi_escape 0x10,0x6,0x2,0x75,0x78
 449              		.cfi_escape 0x10,0x3,0x2,0x75,0x74
 450 0010 E8FCFFFF 		call	__x86.get_pc_thunk.bx
 450      FF
 451 0015 81C30200 		addl	$_GLOBAL_OFFSET_TABLE_, %ebx
 451      0000
 452 001b 51       		pushl	%ecx
 453              		.cfi_escape 0xf,0x3,0x75,0x70,0x6
 454 001c 83EC08   		subl	$8, %esp
 455              		.loc 1 82 5 view .LVU90
 456 001f E8FCFFFF 		call	halInit@PLT
 456      FF
 457              	.LVL32:
 458              		.loc 1 83 5 is_stmt 1 view .LVU91
 459              		.loc 1 87 5 is_stmt 0 view .LVU92
 460 0024 8DBB0000 		leal	print_mutex@GOTOFF(%ebx), %edi
 460      0000
 461              		.loc 1 83 5 view .LVU93
 462 002a E8FCFFFF 		call	chSysInit@PLT
 462      FF
 463              	.LVL33:
 464              		.loc 1 84 5 is_stmt 1 view .LVU94
 465 002f 8BB30000 		movl	SD1@GOT(%ebx), %esi
 465      0000
 466 0035 83EC08   		subl	$8, %esp
 467 0038 6A00     		pushl	$0
 468 003a 56       		pushl	%esi
 469 003b E8FCFFFF 		call	sdStart@PLT
 469      FF
 470              	.LVL34:
 471              		.loc 1 86 5 view .LVU95
 472 0040 8D830000 		leal	buffer_mutex@GOTOFF(%ebx), %eax
GAS LISTING /tmp/ccLLfGOV.s 			page 11


 472      0000
 473 0046 890424   		movl	%eax, (%esp)
 474 0049 E8FCFFFF 		call	chMtxObjectInit@PLT
 474      FF
 475              	.LVL35:
 476              		.loc 1 87 5 view .LVU96
 477 004e 893C24   		movl	%edi, (%esp)
 478 0051 E8FCFFFF 		call	chMtxObjectInit@PLT
 478      FF
 479              	.LVL36:
 480              		.loc 1 88 5 view .LVU97
 481 0056 8D830000 		leal	buffer_event@GOTOFF(%ebx), %eax
 481      0000
 482 005c 890424   		movl	%eax, (%esp)
 483 005f E8FCFFFF 		call	chEvtObjectInit@PLT
 483      FF
 484              	.LVL37:
 485              		.loc 1 90 5 view .LVU98
 486 0064 8D830000 		leal	Producer@GOTOFF(%ebx), %eax
 486      0000
 487 006a C7042400 		movl	$0, (%esp)
 487      000000
 488 0071 50       		pushl	%eax
 489 0072 8D830000 		leal	waProducer@GOTOFF(%ebx), %eax
 489      0000
 490 0078 68800000 		pushl	$128
 490      00
 491 007d 68804100 		pushl	$16768
 491      00
 492 0082 50       		pushl	%eax
 493 0083 E8FCFFFF 		call	chThdCreateStatic@PLT
 493      FF
 494              	.LVL38:
 495              		.loc 1 91 5 view .LVU99
 496 0088 83C414   		addl	$20, %esp
 497 008b 8D830000 		leal	Consumer@GOTOFF(%ebx), %eax
 497      0000
 498 0091 6A00     		pushl	$0
 499 0093 50       		pushl	%eax
 500 0094 8D830000 		leal	waConsumer@GOTOFF(%ebx), %eax
 500      0000
 501 009a 68800000 		pushl	$128
 501      00
 502 009f 68804100 		pushl	$16768
 502      00
 503 00a4 50       		pushl	%eax
 504 00a5 E8FCFFFF 		call	chThdCreateStatic@PLT
 504      FF
 505              	.LVL39:
 506              		.loc 1 93 5 view .LVU100
 507 00aa 83C414   		addl	$20, %esp
 508 00ad 57       		pushl	%edi
 509 00ae E8FCFFFF 		call	chMtxLock@PLT
 509      FF
 510              	.LVL40:
 511              		.loc 1 94 5 view .LVU101
 512 00b3 58       		popl	%eax
GAS LISTING /tmp/ccLLfGOV.s 			page 12


 513 00b4 8D830000 		leal	.LC3@GOTOFF(%ebx), %eax
 513      0000
 514 00ba 5A       		popl	%edx
 515 00bb 50       		pushl	%eax
 516 00bc 56       		pushl	%esi
 517 00bd E8FCFFFF 		call	chprintf@PLT
 517      FF
 518              	.LVL41:
 519              		.loc 1 95 5 view .LVU102
 520 00c2 83C40C   		addl	$12, %esp
 521 00c5 8D830000 		leal	.LC4@GOTOFF(%ebx), %eax
 521      0000
 522 00cb 68200300 		pushl	$800
 522      00
 523 00d0 50       		pushl	%eax
 524 00d1 56       		pushl	%esi
 525 00d2 E8FCFFFF 		call	chprintf@PLT
 525      FF
 526              	.LVL42:
 527              		.loc 1 96 5 view .LVU103
 528 00d7 83C40C   		addl	$12, %esp
 529 00da 8D830000 		leal	.LC5@GOTOFF(%ebx), %eax
 529      0000
 530 00e0 68C80000 		pushl	$200
 530      00
 531 00e5 50       		pushl	%eax
 532 00e6 56       		pushl	%esi
 533 00e7 E8FCFFFF 		call	chprintf@PLT
 533      FF
 534              	.LVL43:
 535              		.loc 1 97 5 view .LVU104
 536 00ec 83C40C   		addl	$12, %esp
 537 00ef 8D830000 		leal	.LC6@GOTOFF(%ebx), %eax
 537      0000
 538 00f5 6A0A     		pushl	$10
 539 00f7 50       		pushl	%eax
 540 00f8 56       		pushl	%esi
 541 00f9 E8FCFFFF 		call	chprintf@PLT
 541      FF
 542              	.LVL44:
 543              		.loc 1 98 5 view .LVU105
 544 00fe 893C24   		movl	%edi, (%esp)
 545 0101 E8FCFFFF 		call	chMtxUnlock@PLT
 545      FF
 546              	.LVL45:
 547 0106 83C410   		addl	$16, %esp
 548 0109 8DB42600 		.p2align 4,,10
 548      000000
 549              		.p2align 3
 550              	.L18:
 551              		.loc 1 100 5 discriminator 1 view .LVU106
 552              		.loc 1 101 9 discriminator 1 view .LVU107
 553 0110 83EC0C   		subl	$12, %esp
 554 0113 68E80300 		pushl	$1000
 554      00
 555 0118 E8FCFFFF 		call	chThdSleep@PLT
 555      FF
GAS LISTING /tmp/ccLLfGOV.s 			page 13


 556              	.LVL46:
 557              		.loc 1 100 11 discriminator 1 view .LVU108
 558              		.loc 1 101 9 is_stmt 0 discriminator 1 view .LVU109
 559 011d 83C410   		addl	$16, %esp
 560 0120 EBEE     		jmp	.L18
 561              		.cfi_endproc
 562              	.LFE301:
 563              		.size	main, .-main
 564              		.section	.bss.waConsumer,"aw",@nobits
 565              		.align 16
 566              		.type	waConsumer, @object
 567              		.size	waConsumer, 16768
 568              	waConsumer:
 569 0000 00000000 		.zero	16768
 569      00000000 
 569      00000000 
 569      00000000 
 569      00000000 
 570              		.section	.bss.waProducer,"aw",@nobits
 571              		.align 16
 572              		.type	waProducer, @object
 573              		.size	waProducer, 16768
 574              	waProducer:
 575 0000 00000000 		.zero	16768
 575      00000000 
 575      00000000 
 575      00000000 
 575      00000000 
 576              		.section	.data.number_counter,"aw"
 577              		.align 4
 578              		.type	number_counter, @object
 579              		.size	number_counter, 4
 580              	number_counter:
 581 0000 01000000 		.long	1
 582              		.section	.bss.buffer_event,"aw",@nobits
 583              		.align 4
 584              		.type	buffer_event, @object
 585              		.size	buffer_event, 4
 586              	buffer_event:
 587 0000 00000000 		.zero	4
 588              		.section	.bss.print_mutex,"aw",@nobits
 589              		.align 4
 590              		.type	print_mutex, @object
 591              		.size	print_mutex, 16
 592              	print_mutex:
 593 0000 00000000 		.zero	16
 593      00000000 
 593      00000000 
 593      00000000 
 594              		.section	.bss.buffer_mutex,"aw",@nobits
 595              		.align 4
 596              		.type	buffer_mutex, @object
 597              		.size	buffer_mutex, 16
 598              	buffer_mutex:
 599 0000 00000000 		.zero	16
 599      00000000 
 599      00000000 
GAS LISTING /tmp/ccLLfGOV.s 			page 14


 599      00000000 
 600              		.section	.bss.buffer_count,"aw",@nobits
 601              		.align 4
 602              		.type	buffer_count, @object
 603              		.size	buffer_count, 4
 604              	buffer_count:
 605 0000 00000000 		.zero	4
 606              		.section	.bss.buffer_tail,"aw",@nobits
 607              		.align 4
 608              		.type	buffer_tail, @object
 609              		.size	buffer_tail, 4
 610              	buffer_tail:
 611 0000 00000000 		.zero	4
 612              		.section	.bss.buffer_head,"aw",@nobits
 613              		.align 4
 614              		.type	buffer_head, @object
 615              		.size	buffer_head, 4
 616              	buffer_head:
 617 0000 00000000 		.zero	4
 618              		.section	.bss.buffer,"aw",@nobits
 619              		.align 32
 620              		.type	buffer, @object
 621              		.size	buffer, 40
 622              	buffer:
 623 0000 00000000 		.zero	40
 623      00000000 
 623      00000000 
 623      00000000 
 623      00000000 
 624              		.section	.text.__x86.get_pc_thunk.bx,"axG",@progbits,__x86.get_pc_thunk.bx,comdat
 625              		.globl	__x86.get_pc_thunk.bx
 626              		.hidden	__x86.get_pc_thunk.bx
 627              		.type	__x86.get_pc_thunk.bx, @function
 628              	__x86.get_pc_thunk.bx:
 629              	.LFB302:
 630              		.cfi_startproc
 631 0000 8B1C24   		movl	(%esp), %ebx
 632 0003 C3       		ret
 633              		.cfi_endproc
 634              	.LFE302:
 635              		.text
 636              	.Letext0:
 637              		.file 3 "/usr/lib/gcc/x86_64-linux-gnu/11/include/stddef.h"
 638              		.file 4 "/usr/include/bits/types.h"
 639              		.file 5 "/usr/include/bits/stdint-intn.h"
 640              		.file 6 "/usr/include/bits/stdint-uintn.h"
 641              		.file 7 "../../../os/common/ports/SIMIA32/compilers/GCC/chtypes.h"
 642              		.file 8 "../../../os/rt/include/chearly.h"
 643              		.file 9 "../../../os/rt/include/chobjects.h"
 644              		.file 10 "../../../os/rt/include/chrfcu.h"
 645              		.file 11 "../../../os/rt/include/chdebug.h"
 646              		.file 12 "../../../os/rt/include/chtime.h"
 647              		.file 13 "../../../os/rt/include/chlists.h"
 648              		.file 14 "../../../os/common/ports/SIMIA32/chcore.h"
 649              		.file 15 "../../../os/rt/include/chsem.h"
 650              		.file 16 "../../../os/rt/include/chmtx.h"
 651              		.file 17 "../../../os/rt/include/chthreads.h"
GAS LISTING /tmp/ccLLfGOV.s 			page 15


 652              		.file 18 "../../../os/hal/include/hal_streams.h"
 653              		.file 19 "../../../os/hal/include/hal_queues.h"
 654              		.file 20 "../../../os/hal/include/hal_serial.h"
 655              		.file 21 "../../../os/hal/ports/simulator/posix/hal_serial_lld.h"
 656              		.file 22 "../../../os/hal/lib/streams/chprintf.h"
 657              		.file 23 "../../../os/rt/include/chsys.h"
 658              		.file 24 "../../../os/hal/include/hal.h"
 659              		.section	.debug_info,"",@progbits
 660              	.Ldebug_info0:
 661 0000 29110000 		.long	0x1129
 662 0004 0500     		.value	0x5
 663 0006 01       		.byte	0x1
 664 0007 04       		.byte	0x4
 665 0008 00000000 		.long	.Ldebug_abbrev0
 666 000c 24       		.uleb128 0x24
 667 000d 5C040000 		.long	.LASF194
 668 0011 1D       		.byte	0x1d
 669 0012 26000000 		.long	.LASF0
 670 0016 00000000 		.long	.LASF1
 671 001a 3E000000 		.long	.LLRL13
 672 001e 00000000 		.long	0
 673 0022 00000000 		.long	.Ldebug_line0
 674 0026 25       		.uleb128 0x25
 675 0027 04       		.byte	0x4
 676 0028 05       		.byte	0x5
 677 0029 696E7400 		.string	"int"
 678 002d 02       		.uleb128 0x2
 679 002e 2F000000 		.long	.LASF11
 680 0032 03       		.byte	0x3
 681 0033 D1       		.byte	0xd1
 682 0034 17       		.byte	0x17
 683 0035 3E000000 		.long	0x3e
 684 0039 11       		.uleb128 0x11
 685 003a 2D000000 		.long	0x2d
 686 003e 09       		.uleb128 0x9
 687 003f 04       		.byte	0x4
 688 0040 07       		.byte	0x7
 689 0041 D6020000 		.long	.LASF2
 690 0045 09       		.uleb128 0x9
 691 0046 04       		.byte	0x4
 692 0047 05       		.byte	0x5
 693 0048 A5000000 		.long	.LASF3
 694 004c 09       		.uleb128 0x9
 695 004d 08       		.byte	0x8
 696 004e 05       		.byte	0x5
 697 004f FC010000 		.long	.LASF4
 698 0053 09       		.uleb128 0x9
 699 0054 0C       		.byte	0xc
 700 0055 04       		.byte	0x4
 701 0056 66050000 		.long	.LASF5
 702 005a 09       		.uleb128 0x9
 703 005b 10       		.byte	0x10
 704 005c 04       		.byte	0x4
 705 005d CB000000 		.long	.LASF6
 706 0061 09       		.uleb128 0x9
 707 0062 01       		.byte	0x1
 708 0063 08       		.byte	0x8
GAS LISTING /tmp/ccLLfGOV.s 			page 16


 709 0064 74060000 		.long	.LASF7
 710 0068 09       		.uleb128 0x9
 711 0069 02       		.byte	0x2
 712 006a 07       		.byte	0x7
 713 006b 6D030000 		.long	.LASF8
 714 006f 09       		.uleb128 0x9
 715 0070 04       		.byte	0x4
 716 0071 07       		.byte	0x7
 717 0072 46070000 		.long	.LASF9
 718 0076 09       		.uleb128 0x9
 719 0077 01       		.byte	0x1
 720 0078 06       		.byte	0x6
 721 0079 61010000 		.long	.LASF10
 722 007d 02       		.uleb128 0x2
 723 007e 54000000 		.long	.LASF12
 724 0082 04       		.byte	0x4
 725 0083 26       		.byte	0x26
 726 0084 17       		.byte	0x17
 727 0085 61000000 		.long	0x61
 728 0089 09       		.uleb128 0x9
 729 008a 02       		.byte	0x2
 730 008b 05       		.byte	0x5
 731 008c 7C070000 		.long	.LASF13
 732 0090 02       		.uleb128 0x2
 733 0091 13040000 		.long	.LASF14
 734 0095 04       		.byte	0x4
 735 0096 29       		.byte	0x29
 736 0097 14       		.byte	0x14
 737 0098 26000000 		.long	0x26
 738 009c 02       		.uleb128 0x2
 739 009d 4D020000 		.long	.LASF15
 740 00a1 04       		.byte	0x4
 741 00a2 2A       		.byte	0x2a
 742 00a3 16       		.byte	0x16
 743 00a4 3E000000 		.long	0x3e
 744 00a8 02       		.uleb128 0x2
 745 00a9 16060000 		.long	.LASF16
 746 00ad 04       		.byte	0x4
 747 00ae 30       		.byte	0x30
 748 00af 2E       		.byte	0x2e
 749 00b0 B4000000 		.long	0xb4
 750 00b4 09       		.uleb128 0x9
 751 00b5 08       		.byte	0x8
 752 00b6 07       		.byte	0x7
 753 00b7 D5000000 		.long	.LASF17
 754 00bb 26       		.uleb128 0x26
 755 00bc 04       		.byte	0x4
 756 00bd 09       		.uleb128 0x9
 757 00be 01       		.byte	0x1
 758 00bf 06       		.byte	0x6
 759 00c0 5F070000 		.long	.LASF18
 760 00c4 0E       		.uleb128 0xe
 761 00c5 BD000000 		.long	0xbd
 762 00c9 02       		.uleb128 0x2
 763 00ca 6C060000 		.long	.LASF19
 764 00ce 05       		.byte	0x5
 765 00cf 1A       		.byte	0x1a
GAS LISTING /tmp/ccLLfGOV.s 			page 17


 766 00d0 13       		.byte	0x13
 767 00d1 90000000 		.long	0x90
 768 00d5 02       		.uleb128 0x2
 769 00d6 87080000 		.long	.LASF20
 770 00da 06       		.byte	0x6
 771 00db 18       		.byte	0x18
 772 00dc 13       		.byte	0x13
 773 00dd 7D000000 		.long	0x7d
 774 00e1 0E       		.uleb128 0xe
 775 00e2 D5000000 		.long	0xd5
 776 00e6 02       		.uleb128 0x2
 777 00e7 10070000 		.long	.LASF21
 778 00eb 06       		.byte	0x6
 779 00ec 1A       		.byte	0x1a
 780 00ed 14       		.byte	0x14
 781 00ee 9C000000 		.long	0x9c
 782 00f2 02       		.uleb128 0x2
 783 00f3 4B000000 		.long	.LASF22
 784 00f7 06       		.byte	0x6
 785 00f8 1B       		.byte	0x1b
 786 00f9 14       		.byte	0x14
 787 00fa A8000000 		.long	0xa8
 788 00fe 11       		.uleb128 0x11
 789 00ff F2000000 		.long	0xf2
 790 0103 02       		.uleb128 0x2
 791 0104 CA030000 		.long	.LASF23
 792 0108 07       		.byte	0x7
 793 0109 38       		.byte	0x38
 794 010a 1D       		.byte	0x1d
 795 010b D5000000 		.long	0xd5
 796 010f 02       		.uleb128 0x2
 797 0110 58020000 		.long	.LASF24
 798 0114 07       		.byte	0x7
 799 0115 39       		.byte	0x39
 800 0116 1D       		.byte	0x1d
 801 0117 D5000000 		.long	0xd5
 802 011b 02       		.uleb128 0x2
 803 011c 2B060000 		.long	.LASF25
 804 0120 07       		.byte	0x7
 805 0121 3A       		.byte	0x3a
 806 0122 1D       		.byte	0x1d
 807 0123 D5000000 		.long	0xd5
 808 0127 02       		.uleb128 0x2
 809 0128 46060000 		.long	.LASF26
 810 012c 07       		.byte	0x7
 811 012d 3C       		.byte	0x3c
 812 012e 1D       		.byte	0x1d
 813 012f E6000000 		.long	0xe6
 814 0133 02       		.uleb128 0x2
 815 0134 94030000 		.long	.LASF27
 816 0138 07       		.byte	0x7
 817 0139 3D       		.byte	0x3d
 818 013a 1D       		.byte	0x1d
 819 013b C9000000 		.long	0xc9
 820 013f 02       		.uleb128 0x2
 821 0140 7D020000 		.long	.LASF28
 822 0144 07       		.byte	0x7
GAS LISTING /tmp/ccLLfGOV.s 			page 18


 823 0145 3E       		.byte	0x3e
 824 0146 1D       		.byte	0x1d
 825 0147 C9000000 		.long	0xc9
 826 014b 02       		.uleb128 0x2
 827 014c FC030000 		.long	.LASF29
 828 0150 07       		.byte	0x7
 829 0151 3F       		.byte	0x3f
 830 0152 1D       		.byte	0x1d
 831 0153 E6000000 		.long	0xe6
 832 0157 02       		.uleb128 0x2
 833 0158 06080000 		.long	.LASF30
 834 015c 07       		.byte	0x7
 835 015d 40       		.byte	0x40
 836 015e 1D       		.byte	0x1d
 837 015f E6000000 		.long	0xe6
 838 0163 02       		.uleb128 0x2
 839 0164 D0020000 		.long	.LASF31
 840 0168 07       		.byte	0x7
 841 0169 41       		.byte	0x41
 842 016a 1D       		.byte	0x1d
 843 016b C9000000 		.long	0xc9
 844 016f 02       		.uleb128 0x2
 845 0170 21060000 		.long	.LASF32
 846 0174 08       		.byte	0x8
 847 0175 80       		.byte	0x80
 848 0176 12       		.byte	0x12
 849 0177 3E000000 		.long	0x3e
 850 017b 02       		.uleb128 0x2
 851 017c 73070000 		.long	.LASF33
 852 0180 08       		.byte	0x8
 853 0181 85       		.byte	0x85
 854 0182 1A       		.byte	0x1a
 855 0183 87010000 		.long	0x187
 856 0187 06       		.uleb128 0x6
 857 0188 8A030000 		.long	.LASF50
 858 018c 50       		.byte	0x50
 859 018d 09       		.byte	0x9
 860 018e A9       		.byte	0xa9
 861 018f 08       		.byte	0x8
 862 0190 7C020000 		.long	0x27c
 863 0194 08       		.uleb128 0x8
 864 0195 68647200 		.string	"hdr"
 865 0199 09       		.byte	0x9
 866 019a BA       		.byte	0xba
 867 019b 05       		.byte	0x5
 868 019c FB050000 		.long	0x5fb
 869 01a0 00       		.byte	0
 870 01a1 08       		.uleb128 0x8
 871 01a2 63747800 		.string	"ctx"
 872 01a6 09       		.byte	0x9
 873 01a7 BE       		.byte	0xbe
 874 01a8 21       		.byte	0x21
 875 01a9 19050000 		.long	0x519
 876 01ad 0C       		.byte	0xc
 877 01ae 01       		.uleb128 0x1
 878 01af 2A070000 		.long	.LASF34
 879 01b3 09       		.byte	0x9
GAS LISTING /tmp/ccLLfGOV.s 			page 19


 880 01b4 C2       		.byte	0xc2
 881 01b5 22       		.byte	0x22
 882 01b6 FA060000 		.long	0x6fa
 883 01ba 10       		.byte	0x10
 884 01bb 01       		.uleb128 0x1
 885 01bc 58070000 		.long	.LASF35
 886 01c0 09       		.byte	0x9
 887 01c1 C8       		.byte	0xc8
 888 01c2 22       		.byte	0x22
 889 01c3 FF060000 		.long	0x6ff
 890 01c7 14       		.byte	0x14
 891 01c8 01       		.uleb128 0x1
 892 01c9 65080000 		.long	.LASF36
 893 01cd 09       		.byte	0x9
 894 01ce CD       		.byte	0xcd
 895 01cf 21       		.byte	0x21
 896 01d0 FF060000 		.long	0x6ff
 897 01d4 18       		.byte	0x18
 898 01d5 01       		.uleb128 0x1
 899 01d6 A7010000 		.long	.LASF37
 900 01da 09       		.byte	0x9
 901 01db D1       		.byte	0xd1
 902 01dc 21       		.byte	0x21
 903 01dd 0F010000 		.long	0x10f
 904 01e1 1C       		.byte	0x1c
 905 01e2 01       		.uleb128 0x1
 906 01e3 9C080000 		.long	.LASF38
 907 01e7 09       		.byte	0x9
 908 01e8 D5       		.byte	0xd5
 909 01e9 21       		.byte	0x21
 910 01ea 03010000 		.long	0x103
 911 01ee 1D       		.byte	0x1d
 912 01ef 01       		.uleb128 0x1
 913 01f0 3B010000 		.long	.LASF39
 914 01f4 09       		.byte	0x9
 915 01f5 DA       		.byte	0xda
 916 01f6 21       		.byte	0x21
 917 01f7 1B010000 		.long	0x11b
 918 01fb 1E       		.byte	0x1e
 919 01fc 01       		.uleb128 0x1
 920 01fd 3B030000 		.long	.LASF40
 921 0201 09       		.byte	0x9
 922 0202 DE       		.byte	0xde
 923 0203 22       		.byte	0x22
 924 0204 58030000 		.long	0x358
 925 0208 20       		.byte	0x20
 926 0209 01       		.uleb128 0x1
 927 020a 14030000 		.long	.LASF41
 928 020e 09       		.byte	0x9
 929 020f E2       		.byte	0xe2
 930 0210 21       		.byte	0x21
 931 0211 C3030000 		.long	0x3c3
 932 0215 24       		.byte	0x24
 933 0216 01       		.uleb128 0x1
 934 0217 EC000000 		.long	.LASF42
 935 021b 09       		.byte	0x9
 936 021c E8       		.byte	0xe8
GAS LISTING /tmp/ccLLfGOV.s 			page 20


 937 021d 21       		.byte	0x21
 938 021e DF050000 		.long	0x5df
 939 0222 2C       		.byte	0x2c
 940 0223 01       		.uleb128 0x1
 941 0224 2E010000 		.long	.LASF43
 942 0228 09       		.byte	0x9
 943 0229 EE       		.byte	0xee
 944 022a 22       		.byte	0x22
 945 022b BB000000 		.long	0xbb
 946 022f 30       		.byte	0x30
 947 0230 19       		.uleb128 0x19
 948 0231 7500     		.string	"u"
 949 0233 3F01     		.value	0x13f
 950 0235 23060000 		.long	0x623
 951 0239 34       		.byte	0x34
 952 023a 07       		.uleb128 0x7
 953 023b 75020000 		.long	.LASF44
 954 023f 4401     		.value	0x144
 955 0241 21       		.byte	0x21
 956 0242 97030000 		.long	0x397
 957 0246 38       		.byte	0x38
 958 0247 07       		.uleb128 0x7
 959 0248 9E010000 		.long	.LASF45
 960 024c 4A01     		.value	0x14a
 961 024e 21       		.byte	0x21
 962 024f C3030000 		.long	0x3c3
 963 0253 3C       		.byte	0x3c
 964 0254 07       		.uleb128 0x7
 965 0255 9A030000 		.long	.LASF46
 966 0259 5001     		.value	0x150
 967 025b 21       		.byte	0x21
 968 025c 4B010000 		.long	0x14b
 969 0260 44       		.byte	0x44
 970 0261 07       		.uleb128 0x7
 971 0262 CA080000 		.long	.LASF47
 972 0266 5701     		.value	0x157
 973 0268 22       		.byte	0x22
 974 0269 F5060000 		.long	0x6f5
 975 026d 48       		.byte	0x48
 976 026e 07       		.uleb128 0x7
 977 026f 3D070000 		.long	.LASF48
 978 0273 5B01     		.value	0x15b
 979 0275 21       		.byte	0x21
 980 0276 27010000 		.long	0x127
 981 027a 4C       		.byte	0x4c
 982 027b 00       		.byte	0
 983 027c 02       		.uleb128 0x2
 984 027d C4070000 		.long	.LASF49
 985 0281 08       		.byte	0x8
 986 0282 8A       		.byte	0x8a
 987 0283 1F       		.byte	0x1f
 988 0284 88020000 		.long	0x288
 989 0288 12       		.uleb128 0x12
 990 0289 B5070000 		.long	.LASF51
 991 028d E0       		.byte	0xe0
 992 028e 9701     		.value	0x197
 993 0290 08       		.byte	0x8
GAS LISTING /tmp/ccLLfGOV.s 			page 21


 994 0291 0A030000 		.long	0x30a
 995 0295 07       		.uleb128 0x7
 996 0296 74080000 		.long	.LASF52
 997 029a 9B01     		.value	0x19b
 998 029c 21       		.byte	0x21
 999 029d 2C070000 		.long	0x72c
 1000 02a1 00       		.byte	0
 1001 02a2 07       		.uleb128 0x7
 1002 02a3 97010000 		.long	.LASF53
 1003 02a7 9F01     		.value	0x19f
 1004 02a9 21       		.byte	0x21
 1005 02aa 74050000 		.long	0x574
 1006 02ae 10       		.byte	0x10
 1007 02af 07       		.uleb128 0x7
 1008 02b0 E3070000 		.long	.LASF54
 1009 02b4 A601     		.value	0x1a6
 1010 02b6 21       		.byte	0x21
 1011 02b7 9B050000 		.long	0x59b
 1012 02bb 28       		.byte	0x28
 1013 02bc 07       		.uleb128 0x7
 1014 02bd 9D000000 		.long	.LASF55
 1015 02c1 AB01     		.value	0x1ab
 1016 02c3 21       		.byte	0x21
 1017 02c4 6F010000 		.long	0x16f
 1018 02c8 30       		.byte	0x30
 1019 02c9 07       		.uleb128 0x7
 1020 02ca 2A000000 		.long	.LASF56
 1021 02ce B101     		.value	0x1b1
 1022 02d0 21       		.byte	0x21
 1023 02d1 31030000 		.long	0x331
 1024 02d5 34       		.byte	0x34
 1025 02d6 07       		.uleb128 0x7
 1026 02d7 64070000 		.long	.LASF57
 1027 02db B601     		.value	0x1b6
 1028 02dd 22       		.byte	0x22
 1029 02de 96070000 		.long	0x796
 1030 02e2 38       		.byte	0x38
 1031 02e3 07       		.uleb128 0x7
 1032 02e4 3B060000 		.long	.LASF58
 1033 02e8 BA01     		.value	0x1ba
 1034 02ea 21       		.byte	0x21
 1035 02eb 7B010000 		.long	0x17b
 1036 02ef 3C       		.byte	0x3c
 1037 02f0 07       		.uleb128 0x7
 1038 02f1 FD000000 		.long	.LASF59
 1039 02f5 BF01     		.value	0x1bf
 1040 02f7 21       		.byte	0x21
 1041 02f8 7B010000 		.long	0x17b
 1042 02fc 8C       		.byte	0x8c
 1043 02fd 19       		.uleb128 0x19
 1044 02fe 64626700 		.string	"dbg"
 1045 0302 C401     		.value	0x1c4
 1046 0304 62030000 		.long	0x362
 1047 0308 DC       		.byte	0xdc
 1048 0309 00       		.byte	0
 1049 030a 02       		.uleb128 0x2
 1050 030b 14050000 		.long	.LASF60
GAS LISTING /tmp/ccLLfGOV.s 			page 22


 1051 030f 0A       		.byte	0xa
 1052 0310 3F       		.byte	0x3f
 1053 0311 12       		.byte	0x12
 1054 0312 E6000000 		.long	0xe6
 1055 0316 06       		.uleb128 0x6
 1056 0317 CE010000 		.long	.LASF61
 1057 031b 04       		.byte	0x4
 1058 031c 0A       		.byte	0xa
 1059 031d 44       		.byte	0x44
 1060 031e 10       		.byte	0x10
 1061 031f 31030000 		.long	0x331
 1062 0323 01       		.uleb128 0x1
 1063 0324 57080000 		.long	.LASF62
 1064 0328 0A       		.byte	0xa
 1065 0329 48       		.byte	0x48
 1066 032a 21       		.byte	0x21
 1067 032b 0A030000 		.long	0x30a
 1068 032f 00       		.byte	0
 1069 0330 00       		.byte	0
 1070 0331 02       		.uleb128 0x2
 1071 0332 8F060000 		.long	.LASF63
 1072 0336 0A       		.byte	0xa
 1073 0337 49       		.byte	0x49
 1074 0338 03       		.byte	0x3
 1075 0339 16030000 		.long	0x316
 1076 033d 06       		.uleb128 0x6
 1077 033e 56060000 		.long	.LASF64
 1078 0342 04       		.byte	0x4
 1079 0343 0B       		.byte	0xb
 1080 0344 3E       		.byte	0x3e
 1081 0345 10       		.byte	0x10
 1082 0346 58030000 		.long	0x358
 1083 034a 01       		.uleb128 0x1
 1084 034b A4070000 		.long	.LASF65
 1085 034f 0B       		.byte	0xb
 1086 0350 46       		.byte	0x46
 1087 0351 24       		.byte	0x24
 1088 0352 5D030000 		.long	0x35d
 1089 0356 00       		.byte	0
 1090 0357 00       		.byte	0
 1091 0358 04       		.uleb128 0x4
 1092 0359 C4000000 		.long	0xc4
 1093 035d 11       		.uleb128 0x11
 1094 035e 58030000 		.long	0x358
 1095 0362 02       		.uleb128 0x2
 1096 0363 8E000000 		.long	.LASF66
 1097 0367 0B       		.byte	0xb
 1098 0368 51       		.byte	0x51
 1099 0369 03       		.byte	0x3
 1100 036a 3D030000 		.long	0x33d
 1101 036e 02       		.uleb128 0x2
 1102 036f 8C070000 		.long	.LASF67
 1103 0373 0C       		.byte	0xc
 1104 0374 6D       		.byte	0x6d
 1105 0375 12       		.byte	0x12
 1106 0376 E6000000 		.long	0xe6
 1107 037a 11       		.uleb128 0x11
GAS LISTING /tmp/ccLLfGOV.s 			page 23


 1108 037b 6E030000 		.long	0x36e
 1109 037f 02       		.uleb128 0x2
 1110 0380 C2020000 		.long	.LASF68
 1111 0384 0C       		.byte	0xc
 1112 0385 79       		.byte	0x79
 1113 0386 12       		.byte	0x12
 1114 0387 E6000000 		.long	0xe6
 1115 038b 02       		.uleb128 0x2
 1116 038c 26030000 		.long	.LASF69
 1117 0390 0C       		.byte	0xc
 1118 0391 9B       		.byte	0x9b
 1119 0392 12       		.byte	0x12
 1120 0393 F2000000 		.long	0xf2
 1121 0397 02       		.uleb128 0x2
 1122 0398 80030000 		.long	.LASF70
 1123 039c 0D       		.byte	0xd
 1124 039d 32       		.byte	0x32
 1125 039e 18       		.byte	0x18
 1126 039f A3030000 		.long	0x3a3
 1127 03a3 06       		.uleb128 0x6
 1128 03a4 DA030000 		.long	.LASF71
 1129 03a8 04       		.byte	0x4
 1130 03a9 0D       		.byte	0xd
 1131 03aa 38       		.byte	0x38
 1132 03ab 08       		.byte	0x8
 1133 03ac BE030000 		.long	0x3be
 1134 03b0 01       		.uleb128 0x1
 1135 03b1 29010000 		.long	.LASF72
 1136 03b5 0D       		.byte	0xd
 1137 03b6 39       		.byte	0x39
 1138 03b7 1A       		.byte	0x1a
 1139 03b8 BE030000 		.long	0x3be
 1140 03bc 00       		.byte	0
 1141 03bd 00       		.byte	0
 1142 03be 04       		.uleb128 0x4
 1143 03bf 97030000 		.long	0x397
 1144 03c3 02       		.uleb128 0x2
 1145 03c4 1B030000 		.long	.LASF73
 1146 03c8 0D       		.byte	0xd
 1147 03c9 3F       		.byte	0x3f
 1148 03ca 19       		.byte	0x19
 1149 03cb CF030000 		.long	0x3cf
 1150 03cf 06       		.uleb128 0x6
 1151 03d0 F3010000 		.long	.LASF74
 1152 03d4 08       		.byte	0x8
 1153 03d5 0D       		.byte	0xd
 1154 03d6 45       		.byte	0x45
 1155 03d7 08       		.byte	0x8
 1156 03d8 F7030000 		.long	0x3f7
 1157 03dc 01       		.uleb128 0x1
 1158 03dd 29010000 		.long	.LASF72
 1159 03e1 0D       		.byte	0xd
 1160 03e2 46       		.byte	0x46
 1161 03e3 1A       		.byte	0x1a
 1162 03e4 F7030000 		.long	0x3f7
 1163 03e8 00       		.byte	0
 1164 03e9 01       		.uleb128 0x1
GAS LISTING /tmp/ccLLfGOV.s 			page 24


 1165 03ea 6C000000 		.long	.LASF75
 1166 03ee 0D       		.byte	0xd
 1167 03ef 47       		.byte	0x47
 1168 03f0 1A       		.byte	0x1a
 1169 03f1 F7030000 		.long	0x3f7
 1170 03f5 04       		.byte	0x4
 1171 03f6 00       		.byte	0
 1172 03f7 04       		.uleb128 0x4
 1173 03f8 C3030000 		.long	0x3c3
 1174 03fc 02       		.uleb128 0x2
 1175 03fd AE000000 		.long	.LASF76
 1176 0401 0D       		.byte	0xd
 1177 0402 4E       		.byte	0x4e
 1178 0403 22       		.byte	0x22
 1179 0404 08040000 		.long	0x408
 1180 0408 06       		.uleb128 0x6
 1181 0409 EB070000 		.long	.LASF77
 1182 040d 0C       		.byte	0xc
 1183 040e 0D       		.byte	0xd
 1184 040f 55       		.byte	0x55
 1185 0410 08       		.byte	0x8
 1186 0411 3D040000 		.long	0x43d
 1187 0415 01       		.uleb128 0x1
 1188 0416 29010000 		.long	.LASF72
 1189 041a 0D       		.byte	0xd
 1190 041b 56       		.byte	0x56
 1191 041c 1A       		.byte	0x1a
 1192 041d 3D040000 		.long	0x43d
 1193 0421 00       		.byte	0
 1194 0422 01       		.uleb128 0x1
 1195 0423 6C000000 		.long	.LASF75
 1196 0427 0D       		.byte	0xd
 1197 0428 57       		.byte	0x57
 1198 0429 1A       		.byte	0x1a
 1199 042a 3D040000 		.long	0x43d
 1200 042e 04       		.byte	0x4
 1201 042f 01       		.uleb128 0x1
 1202 0430 E7050000 		.long	.LASF78
 1203 0434 0D       		.byte	0xd
 1204 0435 58       		.byte	0x58
 1205 0436 19       		.byte	0x19
 1206 0437 27010000 		.long	0x127
 1207 043b 08       		.byte	0x8
 1208 043c 00       		.byte	0
 1209 043d 04       		.uleb128 0x4
 1210 043e FC030000 		.long	0x3fc
 1211 0442 02       		.uleb128 0x2
 1212 0443 22020000 		.long	.LASF79
 1213 0447 0D       		.byte	0xd
 1214 0448 5F       		.byte	0x5f
 1215 0449 1E       		.byte	0x1e
 1216 044a 4E040000 		.long	0x44e
 1217 044e 06       		.uleb128 0x6
 1218 044f 89010000 		.long	.LASF80
 1219 0453 0C       		.byte	0xc
 1220 0454 0D       		.byte	0xd
 1221 0455 64       		.byte	0x64
GAS LISTING /tmp/ccLLfGOV.s 			page 25


 1222 0456 08       		.byte	0x8
 1223 0457 83040000 		.long	0x483
 1224 045b 01       		.uleb128 0x1
 1225 045c 29010000 		.long	.LASF72
 1226 0460 0D       		.byte	0xd
 1227 0461 65       		.byte	0x65
 1228 0462 1A       		.byte	0x1a
 1229 0463 83040000 		.long	0x483
 1230 0467 00       		.byte	0
 1231 0468 01       		.uleb128 0x1
 1232 0469 6C000000 		.long	.LASF75
 1233 046d 0D       		.byte	0xd
 1234 046e 66       		.byte	0x66
 1235 046f 1A       		.byte	0x1a
 1236 0470 83040000 		.long	0x483
 1237 0474 04       		.byte	0x4
 1238 0475 01       		.uleb128 0x1
 1239 0476 36000000 		.long	.LASF81
 1240 047a 0D       		.byte	0xd
 1241 047b 67       		.byte	0x67
 1242 047c 19       		.byte	0x19
 1243 047d 7F030000 		.long	0x37f
 1244 0481 08       		.byte	0x8
 1245 0482 00       		.byte	0
 1246 0483 04       		.uleb128 0x4
 1247 0484 42040000 		.long	0x442
 1248 0488 04       		.uleb128 0x4
 1249 0489 D5000000 		.long	0xd5
 1250 048d 1A       		.uleb128 0x1a
 1251 048e 10       		.byte	0x10
 1252 048f 0E       		.byte	0xe
 1253 0490 87       		.byte	0x87
 1254 0491 A1040000 		.long	0x4a1
 1255 0495 08       		.uleb128 0x8
 1256 0496 6100     		.string	"a"
 1257 0498 0E       		.byte	0xe
 1258 0499 88       		.byte	0x88
 1259 049a 0B       		.byte	0xb
 1260 049b A1040000 		.long	0x4a1
 1261 049f 00       		.byte	0
 1262 04a0 00       		.byte	0
 1263 04a1 13       		.uleb128 0x13
 1264 04a2 D5000000 		.long	0xd5
 1265 04a6 B1040000 		.long	0x4b1
 1266 04aa 14       		.uleb128 0x14
 1267 04ab 3E000000 		.long	0x3e
 1268 04af 0F       		.byte	0xf
 1269 04b0 00       		.byte	0
 1270 04b1 27       		.uleb128 0x27
 1271 04b2 AD010000 		.long	.LASF195
 1272 04b6 0E       		.byte	0xe
 1273 04b7 89       		.byte	0x89
 1274 04b8 03       		.byte	0x3
 1275 04b9 8D040000 		.long	0x48d
 1276 04bd 10       		.byte	0x10
 1277 04be 02       		.uleb128 0x2
 1278 04bf 96070000 		.long	.LASF82
GAS LISTING /tmp/ccLLfGOV.s 			page 26


 1279 04c3 0E       		.byte	0xe
 1280 04c4 8E       		.byte	0x8e
 1281 04c5 0F       		.byte	0xf
 1282 04c6 BB000000 		.long	0xbb
 1283 04ca 06       		.uleb128 0x6
 1284 04cb 71000000 		.long	.LASF83
 1285 04cf 14       		.byte	0x14
 1286 04d0 0E       		.byte	0xe
 1287 04d1 9D       		.byte	0x9d
 1288 04d2 08       		.byte	0x8
 1289 04d3 19050000 		.long	0x519
 1290 04d7 08       		.uleb128 0x8
 1291 04d8 65627800 		.string	"ebx"
 1292 04dc 0E       		.byte	0xe
 1293 04dd 9E       		.byte	0x9e
 1294 04de 0B       		.byte	0xb
 1295 04df BE040000 		.long	0x4be
 1296 04e3 00       		.byte	0
 1297 04e4 08       		.uleb128 0x8
 1298 04e5 65646900 		.string	"edi"
 1299 04e9 0E       		.byte	0xe
 1300 04ea 9F       		.byte	0x9f
 1301 04eb 0B       		.byte	0xb
 1302 04ec BE040000 		.long	0x4be
 1303 04f0 04       		.byte	0x4
 1304 04f1 08       		.uleb128 0x8
 1305 04f2 65736900 		.string	"esi"
 1306 04f6 0E       		.byte	0xe
 1307 04f7 A0       		.byte	0xa0
 1308 04f8 0B       		.byte	0xb
 1309 04f9 BE040000 		.long	0x4be
 1310 04fd 08       		.byte	0x8
 1311 04fe 08       		.uleb128 0x8
 1312 04ff 65627000 		.string	"ebp"
 1313 0503 0E       		.byte	0xe
 1314 0504 A1       		.byte	0xa1
 1315 0505 0B       		.byte	0xb
 1316 0506 BE040000 		.long	0x4be
 1317 050a 0C       		.byte	0xc
 1318 050b 08       		.uleb128 0x8
 1319 050c 65697000 		.string	"eip"
 1320 0510 0E       		.byte	0xe
 1321 0511 A2       		.byte	0xa2
 1322 0512 0B       		.byte	0xb
 1323 0513 BE040000 		.long	0x4be
 1324 0517 10       		.byte	0x10
 1325 0518 00       		.byte	0
 1326 0519 06       		.uleb128 0x6
 1327 051a C8050000 		.long	.LASF84
 1328 051e 04       		.byte	0x4
 1329 051f 0E       		.byte	0xe
 1330 0520 AA       		.byte	0xaa
 1331 0521 08       		.byte	0x8
 1332 0522 33050000 		.long	0x533
 1333 0526 08       		.uleb128 0x8
 1334 0527 737000   		.string	"sp"
 1335 052a 0E       		.byte	0xe
GAS LISTING /tmp/ccLLfGOV.s 			page 27


 1336 052b AB       		.byte	0xab
 1337 052c 17       		.byte	0x17
 1338 052d 33050000 		.long	0x533
 1339 0531 00       		.byte	0
 1340 0532 00       		.byte	0
 1341 0533 04       		.uleb128 0x4
 1342 0534 CA040000 		.long	0x4ca
 1343 0538 09       		.uleb128 0x9
 1344 0539 01       		.byte	0x1
 1345 053a 02       		.byte	0x2
 1346 053b 66060000 		.long	.LASF85
 1347 053f 06       		.uleb128 0x6
 1348 0540 45050000 		.long	.LASF86
 1349 0544 18       		.byte	0x18
 1350 0545 09       		.byte	0x9
 1351 0546 64       		.byte	0x64
 1352 0547 10       		.byte	0x10
 1353 0548 74050000 		.long	0x574
 1354 054c 01       		.uleb128 0x1
 1355 054d 86070000 		.long	.LASF87
 1356 0551 09       		.byte	0x9
 1357 0552 68       		.byte	0x68
 1358 0553 21       		.byte	0x21
 1359 0554 42040000 		.long	0x442
 1360 0558 00       		.byte	0
 1361 0559 01       		.uleb128 0x1
 1362 055a D2030000 		.long	.LASF88
 1363 055e 09       		.byte	0x9
 1364 055f 6D       		.byte	0x6d
 1365 0560 21       		.byte	0x21
 1366 0561 7A030000 		.long	0x37a
 1367 0565 0C       		.byte	0xc
 1368 0566 01       		.uleb128 0x1
 1369 0567 39040000 		.long	.LASF89
 1370 056b 09       		.byte	0x9
 1371 056c 81       		.byte	0x81
 1372 056d 21       		.byte	0x21
 1373 056e FE000000 		.long	0xfe
 1374 0572 10       		.byte	0x10
 1375 0573 00       		.byte	0
 1376 0574 02       		.uleb128 0x2
 1377 0575 08010000 		.long	.LASF90
 1378 0579 09       		.byte	0x9
 1379 057a 83       		.byte	0x83
 1380 057b 03       		.byte	0x3
 1381 057c 3F050000 		.long	0x53f
 1382 0580 06       		.uleb128 0x6
 1383 0581 3A020000 		.long	.LASF91
 1384 0585 08       		.byte	0x8
 1385 0586 09       		.byte	0x9
 1386 0587 88       		.byte	0x88
 1387 0588 10       		.byte	0x10
 1388 0589 9B050000 		.long	0x59b
 1389 058d 01       		.uleb128 0x1
 1390 058e 51030000 		.long	.LASF92
 1391 0592 09       		.byte	0x9
 1392 0593 8C       		.byte	0x8c
GAS LISTING /tmp/ccLLfGOV.s 			page 28


 1393 0594 21       		.byte	0x21
 1394 0595 C3030000 		.long	0x3c3
 1395 0599 00       		.byte	0
 1396 059a 00       		.byte	0
 1397 059b 02       		.uleb128 0x2
 1398 059c FE060000 		.long	.LASF93
 1399 05a0 09       		.byte	0x9
 1400 05a1 8D       		.byte	0x8d
 1401 05a2 03       		.byte	0x3
 1402 05a3 80050000 		.long	0x580
 1403 05a7 02       		.uleb128 0x2
 1404 05a8 29050000 		.long	.LASF94
 1405 05ac 09       		.byte	0x9
 1406 05ad 92       		.byte	0x92
 1407 05ae 14       		.byte	0x14
 1408 05af B3050000 		.long	0x5b3
 1409 05b3 04       		.uleb128 0x4
 1410 05b4 7B010000 		.long	0x17b
 1411 05b8 06       		.uleb128 0x6
 1412 05b9 7D000000 		.long	.LASF95
 1413 05bd 08       		.byte	0x8
 1414 05be 09       		.byte	0x9
 1415 05bf 97       		.byte	0x97
 1416 05c0 10       		.byte	0x10
 1417 05c1 D3050000 		.long	0x5d3
 1418 05c5 01       		.uleb128 0x1
 1419 05c6 51030000 		.long	.LASF92
 1420 05ca 09       		.byte	0x9
 1421 05cb 9B       		.byte	0x9b
 1422 05cc 21       		.byte	0x21
 1423 05cd C3030000 		.long	0x3c3
 1424 05d1 00       		.byte	0
 1425 05d2 00       		.byte	0
 1426 05d3 02       		.uleb128 0x2
 1427 05d4 D2060000 		.long	.LASF96
 1428 05d8 09       		.byte	0x9
 1429 05d9 9C       		.byte	0x9c
 1430 05da 03       		.byte	0x3
 1431 05db B8050000 		.long	0x5b8
 1432 05df 02       		.uleb128 0x2
 1433 05e0 40030000 		.long	.LASF97
 1434 05e4 09       		.byte	0x9
 1435 05e5 A1       		.byte	0xa1
 1436 05e6 10       		.byte	0x10
 1437 05e7 EB050000 		.long	0x5eb
 1438 05eb 04       		.uleb128 0x4
 1439 05ec F0050000 		.long	0x5f0
 1440 05f0 15       		.uleb128 0x15
 1441 05f1 FB050000 		.long	0x5fb
 1442 05f5 03       		.uleb128 0x3
 1443 05f6 B3050000 		.long	0x5b3
 1444 05fa 00       		.byte	0
 1445 05fb 28       		.uleb128 0x28
 1446 05fc 0C       		.byte	0xc
 1447 05fd 09       		.byte	0x9
 1448 05fe AD       		.byte	0xad
 1449 05ff 03       		.byte	0x3
GAS LISTING /tmp/ccLLfGOV.s 			page 29


 1450 0600 23060000 		.long	0x623
 1451 0604 16       		.uleb128 0x16
 1452 0605 C0080000 		.long	.LASF98
 1453 0609 B1       		.byte	0xb1
 1454 060a 97030000 		.long	0x397
 1455 060e 16       		.uleb128 0x16
 1456 060f 51030000 		.long	.LASF92
 1457 0613 B5       		.byte	0xb5
 1458 0614 C3030000 		.long	0x3c3
 1459 0618 16       		.uleb128 0x16
 1460 0619 AE070000 		.long	.LASF99
 1461 061d B9       		.byte	0xb9
 1462 061e FC030000 		.long	0x3fc
 1463 0622 00       		.byte	0
 1464 0623 29       		.uleb128 0x29
 1465 0624 04       		.byte	0x4
 1466 0625 09       		.byte	0x9
 1467 0626 0201     		.value	0x102
 1468 0628 03       		.byte	0x3
 1469 0629 8E060000 		.long	0x68e
 1470 062d 0B       		.uleb128 0xb
 1471 062e 3C000000 		.long	.LASF100
 1472 0632 0901     		.value	0x109
 1473 0634 21       		.byte	0x21
 1474 0635 33010000 		.long	0x133
 1475 0639 0B       		.uleb128 0xb
 1476 063a F4000000 		.long	.LASF101
 1477 063e 1001     		.value	0x110
 1478 0640 21       		.byte	0x21
 1479 0641 33010000 		.long	0x133
 1480 0645 0B       		.uleb128 0xb
 1481 0646 A9080000 		.long	.LASF102
 1482 064a 1701     		.value	0x117
 1483 064c 22       		.byte	0x22
 1484 064d BB000000 		.long	0xbb
 1485 0651 0B       		.uleb128 0xb
 1486 0652 0E030000 		.long	.LASF103
 1487 0656 1E01     		.value	0x11e
 1488 0658 22       		.byte	0x22
 1489 0659 8E060000 		.long	0x68e
 1490 065d 0B       		.uleb128 0xb
 1491 065e 43000000 		.long	.LASF104
 1492 0662 2301     		.value	0x123
 1493 0664 21       		.byte	0x21
 1494 0665 33010000 		.long	0x133
 1495 0669 0B       		.uleb128 0xb
 1496 066a 00030000 		.long	.LASF105
 1497 066e 2C01     		.value	0x12c
 1498 0670 22       		.byte	0x22
 1499 0671 BB060000 		.long	0x6bb
 1500 0675 0B       		.uleb128 0xb
 1501 0676 19070000 		.long	.LASF106
 1502 067a 3501     		.value	0x135
 1503 067c 22       		.byte	0x22
 1504 067d F5060000 		.long	0x6f5
 1505 0681 0B       		.uleb128 0xb
 1506 0682 96060000 		.long	.LASF107
GAS LISTING /tmp/ccLLfGOV.s 			page 30


 1507 0686 3D01     		.value	0x13d
 1508 0688 21       		.byte	0x21
 1509 0689 4B010000 		.long	0x14b
 1510 068d 00       		.byte	0
 1511 068e 04       		.uleb128 0x4
 1512 068f A7050000 		.long	0x5a7
 1513 0693 06       		.uleb128 0x6
 1514 0694 F1060000 		.long	.LASF108
 1515 0698 0C       		.byte	0xc
 1516 0699 0F       		.byte	0xf
 1517 069a 34       		.byte	0x34
 1518 069b 10       		.byte	0x10
 1519 069c BB060000 		.long	0x6bb
 1520 06a0 01       		.uleb128 0x1
 1521 06a1 51030000 		.long	.LASF92
 1522 06a5 0F       		.byte	0xf
 1523 06a6 35       		.byte	0x35
 1524 06a7 19       		.byte	0x19
 1525 06a8 C3030000 		.long	0x3c3
 1526 06ac 00       		.byte	0
 1527 06ad 08       		.uleb128 0x8
 1528 06ae 636E7400 		.string	"cnt"
 1529 06b2 0F       		.byte	0xf
 1530 06b3 37       		.byte	0x37
 1531 06b4 19       		.byte	0x19
 1532 06b5 63010000 		.long	0x163
 1533 06b9 08       		.byte	0x8
 1534 06ba 00       		.byte	0
 1535 06bb 04       		.uleb128 0x4
 1536 06bc 93060000 		.long	0x693
 1537 06c0 06       		.uleb128 0x6
 1538 06c1 4E080000 		.long	.LASF109
 1539 06c5 10       		.byte	0x10
 1540 06c6 10       		.byte	0x10
 1541 06c7 39       		.byte	0x39
 1542 06c8 08       		.byte	0x8
 1543 06c9 F5060000 		.long	0x6f5
 1544 06cd 01       		.uleb128 0x1
 1545 06ce 51030000 		.long	.LASF92
 1546 06d2 10       		.byte	0x10
 1547 06d3 3A       		.byte	0x3a
 1548 06d4 19       		.byte	0x19
 1549 06d5 C3030000 		.long	0x3c3
 1550 06d9 00       		.byte	0
 1551 06da 01       		.uleb128 0x1
 1552 06db 2A070000 		.long	.LASF34
 1553 06df 10       		.byte	0x10
 1554 06e0 3C       		.byte	0x3c
 1555 06e1 1A       		.byte	0x1a
 1556 06e2 B3050000 		.long	0x5b3
 1557 06e6 08       		.byte	0x8
 1558 06e7 01       		.uleb128 0x1
 1559 06e8 29010000 		.long	.LASF72
 1560 06ec 10       		.byte	0x10
 1561 06ed 3E       		.byte	0x3e
 1562 06ee 1A       		.byte	0x1a
 1563 06ef C3070000 		.long	0x7c3
GAS LISTING /tmp/ccLLfGOV.s 			page 31


 1564 06f3 0C       		.byte	0xc
 1565 06f4 00       		.byte	0
 1566 06f5 04       		.uleb128 0x4
 1567 06f6 C0060000 		.long	0x6c0
 1568 06fa 04       		.uleb128 0x4
 1569 06fb 7C020000 		.long	0x27c
 1570 06ff 04       		.uleb128 0x4
 1571 0700 B1040000 		.long	0x4b1
 1572 0704 12       		.uleb128 0x12
 1573 0705 EE030000 		.long	.LASF110
 1574 0709 10       		.byte	0x10
 1575 070a 6C01     		.value	0x16c
 1576 070c 10       		.byte	0x10
 1577 070d 2C070000 		.long	0x72c
 1578 0711 07       		.uleb128 0x7
 1579 0712 AE070000 		.long	.LASF99
 1580 0716 7101     		.value	0x171
 1581 0718 21       		.byte	0x21
 1582 0719 FC030000 		.long	0x3fc
 1583 071d 00       		.byte	0
 1584 071e 07       		.uleb128 0x7
 1585 071f 13080000 		.long	.LASF111
 1586 0723 7501     		.value	0x175
 1587 0725 22       		.byte	0x22
 1588 0726 B3050000 		.long	0x5b3
 1589 072a 0C       		.byte	0xc
 1590 072b 00       		.byte	0
 1591 072c 1B       		.uleb128 0x1b
 1592 072d 1D000000 		.long	.LASF112
 1593 0731 7601     		.value	0x176
 1594 0733 04070000 		.long	0x704
 1595 0737 12       		.uleb128 0x12
 1596 0738 B2050000 		.long	.LASF113
 1597 073c 14       		.byte	0x14
 1598 073d 7B01     		.value	0x17b
 1599 073f 10       		.byte	0x10
 1600 0740 86070000 		.long	0x786
 1601 0744 07       		.uleb128 0x7
 1602 0745 3B030000 		.long	.LASF40
 1603 0749 7F01     		.value	0x17f
 1604 074b 22       		.byte	0x22
 1605 074c 58030000 		.long	0x358
 1606 0750 00       		.byte	0
 1607 0751 07       		.uleb128 0x7
 1608 0752 7E050000 		.long	.LASF114
 1609 0756 8301     		.value	0x183
 1610 0758 22       		.byte	0x22
 1611 0759 FF060000 		.long	0x6ff
 1612 075d 04       		.byte	0x4
 1613 075e 07       		.uleb128 0x7
 1614 075f 4A010000 		.long	.LASF115
 1615 0763 8701     		.value	0x187
 1616 0765 22       		.byte	0x22
 1617 0766 FF060000 		.long	0x6ff
 1618 076a 08       		.byte	0x8
 1619 076b 07       		.uleb128 0x7
 1620 076c 87020000 		.long	.LASF116
GAS LISTING /tmp/ccLLfGOV.s 			page 32


 1621 0770 8C01     		.value	0x18c
 1622 0772 22       		.byte	0x22
 1623 0773 FF060000 		.long	0x6ff
 1624 0777 0C       		.byte	0xc
 1625 0778 07       		.uleb128 0x7
 1626 0779 EC050000 		.long	.LASF117
 1627 077d 9001     		.value	0x190
 1628 077f 22       		.byte	0x22
 1629 0780 FF060000 		.long	0x6ff
 1630 0784 10       		.byte	0x10
 1631 0785 00       		.byte	0
 1632 0786 1B       		.uleb128 0x1b
 1633 0787 33080000 		.long	.LASF118
 1634 078b 9201     		.value	0x192
 1635 078d 37070000 		.long	0x737
 1636 0791 0E       		.uleb128 0xe
 1637 0792 86070000 		.long	0x786
 1638 0796 04       		.uleb128 0x4
 1639 0797 91070000 		.long	0x791
 1640 079b 02       		.uleb128 0x2
 1641 079c 00000000 		.long	.LASF119
 1642 07a0 11       		.byte	0x11
 1643 07a1 34       		.byte	0x34
 1644 07a2 10       		.byte	0x10
 1645 07a3 A7070000 		.long	0x7a7
 1646 07a7 04       		.uleb128 0x4
 1647 07a8 AC070000 		.long	0x7ac
 1648 07ac 15       		.uleb128 0x15
 1649 07ad B7070000 		.long	0x7b7
 1650 07b1 03       		.uleb128 0x3
 1651 07b2 BB000000 		.long	0xbb
 1652 07b6 00       		.byte	0
 1653 07b7 02       		.uleb128 0x2
 1654 07b8 96020000 		.long	.LASF120
 1655 07bc 10       		.byte	0x10
 1656 07bd 34       		.byte	0x34
 1657 07be 19       		.byte	0x19
 1658 07bf C0060000 		.long	0x6c0
 1659 07c3 04       		.uleb128 0x4
 1660 07c4 B7070000 		.long	0x7b7
 1661 07c8 02       		.uleb128 0x2
 1662 07c9 D2070000 		.long	.LASF121
 1663 07cd 02       		.byte	0x2
 1664 07ce 37       		.byte	0x37
 1665 07cf 1F       		.byte	0x1f
 1666 07d0 D4070000 		.long	0x7d4
 1667 07d4 06       		.uleb128 0x6
 1668 07d5 DE080000 		.long	.LASF122
 1669 07d9 14       		.byte	0x14
 1670 07da 02       		.byte	0x2
 1671 07db 3C       		.byte	0x3c
 1672 07dc 08       		.byte	0x8
 1673 07dd 23080000 		.long	0x823
 1674 07e1 01       		.uleb128 0x1
 1675 07e2 29010000 		.long	.LASF72
 1676 07e6 02       		.byte	0x2
 1677 07e7 3D       		.byte	0x3d
GAS LISTING /tmp/ccLLfGOV.s 			page 33


 1678 07e8 1A       		.byte	0x1a
 1679 07e9 23080000 		.long	0x823
 1680 07ed 00       		.byte	0
 1681 07ee 01       		.uleb128 0x1
 1682 07ef 3C050000 		.long	.LASF123
 1683 07f3 02       		.byte	0x2
 1684 07f4 40       		.byte	0x40
 1685 07f5 1A       		.byte	0x1a
 1686 07f6 B3050000 		.long	0x5b3
 1687 07fa 04       		.byte	0x4
 1688 07fb 01       		.uleb128 0x1
 1689 07fc 09070000 		.long	.LASF124
 1690 0800 02       		.byte	0x2
 1691 0801 42       		.byte	0x42
 1692 0802 19       		.byte	0x19
 1693 0803 4B010000 		.long	0x14b
 1694 0807 08       		.byte	0x8
 1695 0808 01       		.uleb128 0x1
 1696 0809 9C080000 		.long	.LASF38
 1697 080d 02       		.byte	0x2
 1698 080e 44       		.byte	0x44
 1699 080f 19       		.byte	0x19
 1700 0810 57010000 		.long	0x157
 1701 0814 0C       		.byte	0xc
 1702 0815 01       		.uleb128 0x1
 1703 0816 46020000 		.long	.LASF125
 1704 081a 02       		.byte	0x2
 1705 081b 46       		.byte	0x46
 1706 081c 19       		.byte	0x19
 1707 081d 57010000 		.long	0x157
 1708 0821 10       		.byte	0x10
 1709 0822 00       		.byte	0
 1710 0823 04       		.uleb128 0x4
 1711 0824 C8070000 		.long	0x7c8
 1712 0828 06       		.uleb128 0x6
 1713 0829 7A080000 		.long	.LASF126
 1714 082d 04       		.byte	0x4
 1715 082e 02       		.byte	0x2
 1716 082f 4D       		.byte	0x4d
 1717 0830 10       		.byte	0x10
 1718 0831 43080000 		.long	0x843
 1719 0835 01       		.uleb128 0x1
 1720 0836 29010000 		.long	.LASF72
 1721 083a 02       		.byte	0x2
 1722 083b 4E       		.byte	0x4e
 1723 083c 1A       		.byte	0x1a
 1724 083d 23080000 		.long	0x823
 1725 0841 00       		.byte	0
 1726 0842 00       		.byte	0
 1727 0843 02       		.uleb128 0x2
 1728 0844 B3020000 		.long	.LASF127
 1729 0848 02       		.byte	0x2
 1730 0849 51       		.byte	0x51
 1731 084a 03       		.byte	0x3
 1732 084b 28080000 		.long	0x828
 1733 084f 06       		.uleb128 0x6
 1734 0850 A4060000 		.long	.LASF128
GAS LISTING /tmp/ccLLfGOV.s 			page 34


 1735 0854 14       		.byte	0x14
 1736 0855 12       		.byte	0x12
 1737 0856 4F       		.byte	0x4f
 1738 0857 08       		.byte	0x8
 1739 0858 9E080000 		.long	0x89e
 1740 085c 01       		.uleb128 0x1
 1741 085d B0080000 		.long	.LASF129
 1742 0861 12       		.byte	0x12
 1743 0862 50       		.byte	0x50
 1744 0863 03       		.byte	0x3
 1745 0864 2D000000 		.long	0x2d
 1746 0868 00       		.byte	0
 1747 0869 01       		.uleb128 0x1
 1748 086a 43040000 		.long	.LASF130
 1749 086e 12       		.byte	0x12
 1750 086f 50       		.byte	0x50
 1751 0870 03       		.byte	0x3
 1752 0871 C1080000 		.long	0x8c1
 1753 0875 04       		.byte	0x4
 1754 0876 01       		.uleb128 0x1
 1755 0877 A3030000 		.long	.LASF131
 1756 087b 12       		.byte	0x12
 1757 087c 50       		.byte	0x50
 1758 087d 03       		.byte	0x3
 1759 087e DF080000 		.long	0x8df
 1760 0882 08       		.byte	0x8
 1761 0883 08       		.uleb128 0x8
 1762 0884 70757400 		.string	"put"
 1763 0888 12       		.byte	0x12
 1764 0889 50       		.byte	0x50
 1765 088a 03       		.byte	0x3
 1766 088b F8080000 		.long	0x8f8
 1767 088f 0C       		.byte	0xc
 1768 0890 08       		.uleb128 0x8
 1769 0891 67657400 		.string	"get"
 1770 0895 12       		.byte	0x12
 1771 0896 50       		.byte	0x50
 1772 0897 03       		.byte	0x3
 1773 0898 0C090000 		.long	0x90c
 1774 089c 10       		.byte	0x10
 1775 089d 00       		.byte	0
 1776 089e 0E       		.uleb128 0xe
 1777 089f 4F080000 		.long	0x84f
 1778 08a3 0A       		.uleb128 0xa
 1779 08a4 2D000000 		.long	0x2d
 1780 08a8 BC080000 		.long	0x8bc
 1781 08ac 03       		.uleb128 0x3
 1782 08ad BB000000 		.long	0xbb
 1783 08b1 03       		.uleb128 0x3
 1784 08b2 BC080000 		.long	0x8bc
 1785 08b6 03       		.uleb128 0x3
 1786 08b7 2D000000 		.long	0x2d
 1787 08bb 00       		.byte	0
 1788 08bc 04       		.uleb128 0x4
 1789 08bd E1000000 		.long	0xe1
 1790 08c1 04       		.uleb128 0x4
 1791 08c2 A3080000 		.long	0x8a3
GAS LISTING /tmp/ccLLfGOV.s 			page 35


 1792 08c6 0A       		.uleb128 0xa
 1793 08c7 2D000000 		.long	0x2d
 1794 08cb DF080000 		.long	0x8df
 1795 08cf 03       		.uleb128 0x3
 1796 08d0 BB000000 		.long	0xbb
 1797 08d4 03       		.uleb128 0x3
 1798 08d5 88040000 		.long	0x488
 1799 08d9 03       		.uleb128 0x3
 1800 08da 2D000000 		.long	0x2d
 1801 08de 00       		.byte	0
 1802 08df 04       		.uleb128 0x4
 1803 08e0 C6080000 		.long	0x8c6
 1804 08e4 0A       		.uleb128 0xa
 1805 08e5 33010000 		.long	0x133
 1806 08e9 F8080000 		.long	0x8f8
 1807 08ed 03       		.uleb128 0x3
 1808 08ee BB000000 		.long	0xbb
 1809 08f2 03       		.uleb128 0x3
 1810 08f3 D5000000 		.long	0xd5
 1811 08f7 00       		.byte	0
 1812 08f8 04       		.uleb128 0x4
 1813 08f9 E4080000 		.long	0x8e4
 1814 08fd 0A       		.uleb128 0xa
 1815 08fe 33010000 		.long	0x133
 1816 0902 0C090000 		.long	0x90c
 1817 0906 03       		.uleb128 0x3
 1818 0907 BB000000 		.long	0xbb
 1819 090b 00       		.byte	0
 1820 090c 04       		.uleb128 0x4
 1821 090d FD080000 		.long	0x8fd
 1822 0911 1A       		.uleb128 0x1a
 1823 0912 04       		.byte	0x4
 1824 0913 12       		.byte	0x12
 1825 0914 5A       		.byte	0x5a
 1826 0915 27090000 		.long	0x927
 1827 0919 08       		.uleb128 0x8
 1828 091a 766D7400 		.string	"vmt"
 1829 091e 12       		.byte	0x12
 1830 091f 5C       		.byte	0x5c
 1831 0920 29       		.byte	0x29
 1832 0921 27090000 		.long	0x927
 1833 0925 00       		.byte	0
 1834 0926 00       		.byte	0
 1835 0927 04       		.uleb128 0x4
 1836 0928 9E080000 		.long	0x89e
 1837 092c 02       		.uleb128 0x2
 1838 092d 9E020000 		.long	.LASF132
 1839 0931 12       		.byte	0x12
 1840 0932 5E       		.byte	0x5e
 1841 0933 03       		.byte	0x3
 1842 0934 11090000 		.long	0x911
 1843 0938 0A       		.uleb128 0xa
 1844 0939 33010000 		.long	0x133
 1845 093d 51090000 		.long	0x951
 1846 0941 03       		.uleb128 0x3
 1847 0942 BB000000 		.long	0xbb
 1848 0946 03       		.uleb128 0x3
GAS LISTING /tmp/ccLLfGOV.s 			page 36


 1849 0947 D5000000 		.long	0xd5
 1850 094b 03       		.uleb128 0x3
 1851 094c 7F030000 		.long	0x37f
 1852 0950 00       		.byte	0
 1853 0951 04       		.uleb128 0x4
 1854 0952 38090000 		.long	0x938
 1855 0956 0A       		.uleb128 0xa
 1856 0957 33010000 		.long	0x133
 1857 095b 6A090000 		.long	0x96a
 1858 095f 03       		.uleb128 0x3
 1859 0960 BB000000 		.long	0xbb
 1860 0964 03       		.uleb128 0x3
 1861 0965 7F030000 		.long	0x37f
 1862 0969 00       		.byte	0
 1863 096a 04       		.uleb128 0x4
 1864 096b 56090000 		.long	0x956
 1865 096f 0A       		.uleb128 0xa
 1866 0970 2D000000 		.long	0x2d
 1867 0974 8D090000 		.long	0x98d
 1868 0978 03       		.uleb128 0x3
 1869 0979 BB000000 		.long	0xbb
 1870 097d 03       		.uleb128 0x3
 1871 097e BC080000 		.long	0x8bc
 1872 0982 03       		.uleb128 0x3
 1873 0983 2D000000 		.long	0x2d
 1874 0987 03       		.uleb128 0x3
 1875 0988 7F030000 		.long	0x37f
 1876 098c 00       		.byte	0
 1877 098d 04       		.uleb128 0x4
 1878 098e 6F090000 		.long	0x96f
 1879 0992 0A       		.uleb128 0xa
 1880 0993 2D000000 		.long	0x2d
 1881 0997 B0090000 		.long	0x9b0
 1882 099b 03       		.uleb128 0x3
 1883 099c BB000000 		.long	0xbb
 1884 09a0 03       		.uleb128 0x3
 1885 09a1 88040000 		.long	0x488
 1886 09a5 03       		.uleb128 0x3
 1887 09a6 2D000000 		.long	0x2d
 1888 09aa 03       		.uleb128 0x3
 1889 09ab 7F030000 		.long	0x37f
 1890 09af 00       		.byte	0
 1891 09b0 04       		.uleb128 0x4
 1892 09b1 92090000 		.long	0x992
 1893 09b5 0A       		.uleb128 0xa
 1894 09b6 33010000 		.long	0x133
 1895 09ba CE090000 		.long	0x9ce
 1896 09be 03       		.uleb128 0x3
 1897 09bf BB000000 		.long	0xbb
 1898 09c3 03       		.uleb128 0x3
 1899 09c4 3E000000 		.long	0x3e
 1900 09c8 03       		.uleb128 0x3
 1901 09c9 BB000000 		.long	0xbb
 1902 09cd 00       		.byte	0
 1903 09ce 04       		.uleb128 0x4
 1904 09cf B5090000 		.long	0x9b5
 1905 09d3 02       		.uleb128 0x2
GAS LISTING /tmp/ccLLfGOV.s 			page 37


 1906 09d4 1E010000 		.long	.LASF133
 1907 09d8 13       		.byte	0x13
 1908 09d9 3A       		.byte	0x3a
 1909 09da 19       		.byte	0x19
 1910 09db DF090000 		.long	0x9df
 1911 09df 06       		.uleb128 0x6
 1912 09e0 20050000 		.long	.LASF134
 1913 09e4 24       		.byte	0x24
 1914 09e5 13       		.byte	0x13
 1915 09e6 4B       		.byte	0x4b
 1916 09e7 08       		.byte	0x8
 1917 09e8 550A0000 		.long	0xa55
 1918 09ec 01       		.uleb128 0x1
 1919 09ed 40010000 		.long	.LASF135
 1920 09f1 13       		.byte	0x13
 1921 09f2 4C       		.byte	0x4c
 1922 09f3 19       		.byte	0x19
 1923 09f4 D3050000 		.long	0x5d3
 1924 09f8 00       		.byte	0
 1925 09f9 01       		.uleb128 0x1
 1926 09fa 5C050000 		.long	.LASF136
 1927 09fe 13       		.byte	0x13
 1928 09ff 4D       		.byte	0x4d
 1929 0a00 19       		.byte	0x19
 1930 0a01 39000000 		.long	0x39
 1931 0a05 08       		.byte	0x8
 1932 0a06 01       		.uleb128 0x1
 1933 0a07 0A020000 		.long	.LASF137
 1934 0a0b 13       		.byte	0x13
 1935 0a0c 4E       		.byte	0x4e
 1936 0a0d 1A       		.byte	0x1a
 1937 0a0e 88040000 		.long	0x488
 1938 0a12 0C       		.byte	0xc
 1939 0a13 01       		.uleb128 0x1
 1940 0a14 48080000 		.long	.LASF138
 1941 0a18 13       		.byte	0x13
 1942 0a19 4F       		.byte	0x4f
 1943 0a1a 1A       		.byte	0x1a
 1944 0a1b 88040000 		.long	0x488
 1945 0a1f 10       		.byte	0x10
 1946 0a20 01       		.uleb128 0x1
 1947 0a21 13020000 		.long	.LASF139
 1948 0a25 13       		.byte	0x13
 1949 0a26 51       		.byte	0x51
 1950 0a27 1A       		.byte	0x1a
 1951 0a28 88040000 		.long	0x488
 1952 0a2c 14       		.byte	0x14
 1953 0a2d 01       		.uleb128 0x1
 1954 0a2e 4E060000 		.long	.LASF140
 1955 0a32 13       		.byte	0x13
 1956 0a33 52       		.byte	0x52
 1957 0a34 1A       		.byte	0x1a
 1958 0a35 88040000 		.long	0x488
 1959 0a39 18       		.byte	0x18
 1960 0a3a 01       		.uleb128 0x1
 1961 0a3b 6B080000 		.long	.LASF141
 1962 0a3f 13       		.byte	0x13
GAS LISTING /tmp/ccLLfGOV.s 			page 38


 1963 0a40 53       		.byte	0x53
 1964 0a41 19       		.byte	0x19
 1965 0a42 550A0000 		.long	0xa55
 1966 0a46 1C       		.byte	0x1c
 1967 0a47 01       		.uleb128 0x1
 1968 0a48 1B020000 		.long	.LASF142
 1969 0a4c 13       		.byte	0x13
 1970 0a4d 54       		.byte	0x54
 1971 0a4e 1A       		.byte	0x1a
 1972 0a4f BB000000 		.long	0xbb
 1973 0a53 20       		.byte	0x20
 1974 0a54 00       		.byte	0
 1975 0a55 02       		.uleb128 0x2
 1976 0a56 1D040000 		.long	.LASF143
 1977 0a5a 13       		.byte	0x13
 1978 0a5b 41       		.byte	0x41
 1979 0a5c 10       		.byte	0x10
 1980 0a5d 610A0000 		.long	0xa61
 1981 0a61 04       		.uleb128 0x4
 1982 0a62 660A0000 		.long	0xa66
 1983 0a66 15       		.uleb128 0x15
 1984 0a67 710A0000 		.long	0xa71
 1985 0a6b 03       		.uleb128 0x3
 1986 0a6c 710A0000 		.long	0xa71
 1987 0a70 00       		.byte	0
 1988 0a71 04       		.uleb128 0x4
 1989 0a72 D3090000 		.long	0x9d3
 1990 0a76 02       		.uleb128 0x2
 1991 0a77 49040000 		.long	.LASF144
 1992 0a7b 13       		.byte	0x13
 1993 0a7c 61       		.byte	0x61
 1994 0a7d 14       		.byte	0x14
 1995 0a7e D3090000 		.long	0x9d3
 1996 0a82 02       		.uleb128 0x2
 1997 0a83 1B080000 		.long	.LASF145
 1998 0a87 13       		.byte	0x13
 1999 0a88 6D       		.byte	0x6d
 2000 0a89 14       		.byte	0x14
 2001 0a8a D3090000 		.long	0x9d3
 2002 0a8e 2A       		.uleb128 0x2a
 2003 0a8f 07       		.byte	0x7
 2004 0a90 04       		.byte	0x4
 2005 0a91 3E000000 		.long	0x3e
 2006 0a95 14       		.byte	0x14
 2007 0a96 58       		.byte	0x58
 2008 0a97 0E       		.byte	0xe
 2009 0a98 AF0A0000 		.long	0xaaf
 2010 0a9c 17       		.uleb128 0x17
 2011 0a9d 13000000 		.long	.LASF146
 2012 0aa1 00       		.byte	0
 2013 0aa2 17       		.uleb128 0x17
 2014 0aa3 33060000 		.long	.LASF147
 2015 0aa7 01       		.byte	0x1
 2016 0aa8 17       		.uleb128 0x17
 2017 0aa9 FD070000 		.long	.LASF148
 2018 0aad 02       		.byte	0x2
 2019 0aae 00       		.byte	0
GAS LISTING /tmp/ccLLfGOV.s 			page 39


 2020 0aaf 02       		.uleb128 0x2
 2021 0ab0 20070000 		.long	.LASF149
 2022 0ab4 14       		.byte	0x14
 2023 0ab5 5C       		.byte	0x5c
 2024 0ab6 03       		.byte	0x3
 2025 0ab7 8E0A0000 		.long	0xa8e
 2026 0abb 02       		.uleb128 0x2
 2027 0abc 30070000 		.long	.LASF150
 2028 0ac0 14       		.byte	0x14
 2029 0ac1 61       		.byte	0x61
 2030 0ac2 22       		.byte	0x22
 2031 0ac3 C70A0000 		.long	0xac7
 2032 0ac7 06       		.uleb128 0x6
 2033 0ac8 BC010000 		.long	.LASF151
 2034 0acc A0       		.byte	0xa0
 2035 0acd 14       		.byte	0x14
 2036 0ace 7B       		.byte	0x7b
 2037 0acf 08       		.byte	0x8
 2038 0ad0 550B0000 		.long	0xb55
 2039 0ad4 08       		.uleb128 0x8
 2040 0ad5 766D7400 		.string	"vmt"
 2041 0ad9 14       		.byte	0x14
 2042 0ada 7D       		.byte	0x7d
 2043 0adb 21       		.byte	0x21
 2044 0adc 100C0000 		.long	0xc10
 2045 0ae0 00       		.byte	0
 2046 0ae1 01       		.uleb128 0x1
 2047 0ae2 57030000 		.long	.LASF152
 2048 0ae6 14       		.byte	0x14
 2049 0ae7 7E       		.byte	0x7e
 2050 0ae8 03       		.byte	0x3
 2051 0ae9 43080000 		.long	0x843
 2052 0aed 04       		.byte	0x4
 2053 0aee 01       		.uleb128 0x1
 2054 0aef A7010000 		.long	.LASF37
 2055 0af3 14       		.byte	0x14
 2056 0af4 7E       		.byte	0x7e
 2057 0af5 03       		.byte	0x3
 2058 0af6 AF0A0000 		.long	0xaaf
 2059 0afa 08       		.byte	0x8
 2060 0afb 01       		.uleb128 0x1
 2061 0afc 07030000 		.long	.LASF153
 2062 0b00 14       		.byte	0x14
 2063 0b01 7E       		.byte	0x7e
 2064 0b02 03       		.byte	0x3
 2065 0b03 760A0000 		.long	0xa76
 2066 0b07 0C       		.byte	0xc
 2067 0b08 01       		.uleb128 0x1
 2068 0b09 9D060000 		.long	.LASF154
 2069 0b0d 14       		.byte	0x14
 2070 0b0e 7E       		.byte	0x7e
 2071 0b0f 03       		.byte	0x3
 2072 0b10 820A0000 		.long	0xa82
 2073 0b14 30       		.byte	0x30
 2074 0b15 08       		.uleb128 0x8
 2075 0b16 696200   		.string	"ib"
 2076 0b19 14       		.byte	0x14
GAS LISTING /tmp/ccLLfGOV.s 			page 40


 2077 0b1a 7E       		.byte	0x7e
 2078 0b1b 03       		.byte	0x3
 2079 0b1c 150C0000 		.long	0xc15
 2080 0b20 54       		.byte	0x54
 2081 0b21 08       		.uleb128 0x8
 2082 0b22 6F6200   		.string	"ob"
 2083 0b25 14       		.byte	0x14
 2084 0b26 7E       		.byte	0x7e
 2085 0b27 03       		.byte	0x3
 2086 0b28 150C0000 		.long	0xc15
 2087 0b2c 74       		.byte	0x74
 2088 0b2d 01       		.uleb128 0x1
 2089 0b2e BC060000 		.long	.LASF155
 2090 0b32 14       		.byte	0x14
 2091 0b33 7E       		.byte	0x7e
 2092 0b34 03       		.byte	0x3
 2093 0b35 26000000 		.long	0x26
 2094 0b39 94       		.byte	0x94
 2095 0b3a 01       		.uleb128 0x1
 2096 0b3b 5C080000 		.long	.LASF156
 2097 0b3f 14       		.byte	0x14
 2098 0b40 7E       		.byte	0x7e
 2099 0b41 03       		.byte	0x3
 2100 0b42 26000000 		.long	0x26
 2101 0b46 98       		.byte	0x98
 2102 0b47 01       		.uleb128 0x1
 2103 0b48 2A080000 		.long	.LASF157
 2104 0b4c 14       		.byte	0x14
 2105 0b4d 7E       		.byte	0x7e
 2106 0b4e 03       		.byte	0x3
 2107 0b4f 58030000 		.long	0x358
 2108 0b53 9C       		.byte	0x9c
 2109 0b54 00       		.byte	0
 2110 0b55 2B       		.uleb128 0x2b
 2111 0b56 6D010000 		.long	.LASF196
 2112 0b5a 00       		.byte	0
 2113 0b5b 15       		.byte	0x15
 2114 0b5c 5B       		.byte	0x5b
 2115 0b5d 10       		.byte	0x10
 2116 0b5e 02       		.uleb128 0x2
 2117 0b5f 09060000 		.long	.LASF158
 2118 0b63 15       		.byte	0x15
 2119 0b64 5C       		.byte	0x5c
 2120 0b65 03       		.byte	0x3
 2121 0b66 550B0000 		.long	0xb55
 2122 0b6a 0E       		.uleb128 0xe
 2123 0b6b 5E0B0000 		.long	0xb5e
 2124 0b6f 2C       		.uleb128 0x2c
 2125 0b70 53443100 		.string	"SD1"
 2126 0b74 15       		.byte	0x15
 2127 0b75 7A       		.byte	0x7a
 2128 0b76 15       		.byte	0x15
 2129 0b77 BB0A0000 		.long	0xabb
 2130 0b7b 06       		.uleb128 0x6
 2131 0b7c F0020000 		.long	.LASF159
 2132 0b80 28       		.byte	0x28
 2133 0b81 14       		.byte	0x14
GAS LISTING /tmp/ccLLfGOV.s 			page 41


 2134 0b82 70       		.byte	0x70
 2135 0b83 08       		.byte	0x8
 2136 0b84 0B0C0000 		.long	0xc0b
 2137 0b88 01       		.uleb128 0x1
 2138 0b89 B0080000 		.long	.LASF129
 2139 0b8d 14       		.byte	0x14
 2140 0b8e 71       		.byte	0x71
 2141 0b8f 03       		.byte	0x3
 2142 0b90 2D000000 		.long	0x2d
 2143 0b94 00       		.byte	0
 2144 0b95 01       		.uleb128 0x1
 2145 0b96 43040000 		.long	.LASF130
 2146 0b9a 14       		.byte	0x14
 2147 0b9b 71       		.byte	0x71
 2148 0b9c 03       		.byte	0x3
 2149 0b9d C1080000 		.long	0x8c1
 2150 0ba1 04       		.byte	0x4
 2151 0ba2 01       		.uleb128 0x1
 2152 0ba3 A3030000 		.long	.LASF131
 2153 0ba7 14       		.byte	0x14
 2154 0ba8 71       		.byte	0x71
 2155 0ba9 03       		.byte	0x3
 2156 0baa DF080000 		.long	0x8df
 2157 0bae 08       		.byte	0x8
 2158 0baf 08       		.uleb128 0x8
 2159 0bb0 70757400 		.string	"put"
 2160 0bb4 14       		.byte	0x14
 2161 0bb5 71       		.byte	0x71
 2162 0bb6 03       		.byte	0x3
 2163 0bb7 F8080000 		.long	0x8f8
 2164 0bbb 0C       		.byte	0xc
 2165 0bbc 08       		.uleb128 0x8
 2166 0bbd 67657400 		.string	"get"
 2167 0bc1 14       		.byte	0x14
 2168 0bc2 71       		.byte	0x71
 2169 0bc3 03       		.byte	0x3
 2170 0bc4 0C090000 		.long	0x90c
 2171 0bc8 10       		.byte	0x10
 2172 0bc9 01       		.uleb128 0x1
 2173 0bca 57040000 		.long	.LASF160
 2174 0bce 14       		.byte	0x14
 2175 0bcf 71       		.byte	0x71
 2176 0bd0 03       		.byte	0x3
 2177 0bd1 51090000 		.long	0x951
 2178 0bd5 14       		.byte	0x14
 2179 0bd6 01       		.uleb128 0x1
 2180 0bd7 B7010000 		.long	.LASF161
 2181 0bdb 14       		.byte	0x14
 2182 0bdc 71       		.byte	0x71
 2183 0bdd 03       		.byte	0x3
 2184 0bde 6A090000 		.long	0x96a
 2185 0be2 18       		.byte	0x18
 2186 0be3 01       		.uleb128 0x1
 2187 0be4 C3030000 		.long	.LASF162
 2188 0be8 14       		.byte	0x14
 2189 0be9 71       		.byte	0x71
 2190 0bea 03       		.byte	0x3
GAS LISTING /tmp/ccLLfGOV.s 			page 42


 2191 0beb 8D090000 		.long	0x98d
 2192 0bef 1C       		.byte	0x1c
 2193 0bf0 01       		.uleb128 0x1
 2194 0bf1 35010000 		.long	.LASF163
 2195 0bf5 14       		.byte	0x14
 2196 0bf6 71       		.byte	0x71
 2197 0bf7 03       		.byte	0x3
 2198 0bf8 B0090000 		.long	0x9b0
 2199 0bfc 20       		.byte	0x20
 2200 0bfd 08       		.uleb128 0x8
 2201 0bfe 63746C00 		.string	"ctl"
 2202 0c02 14       		.byte	0x14
 2203 0c03 71       		.byte	0x71
 2204 0c04 03       		.byte	0x3
 2205 0c05 CE090000 		.long	0x9ce
 2206 0c09 24       		.byte	0x24
 2207 0c0a 00       		.byte	0
 2208 0c0b 0E       		.uleb128 0xe
 2209 0c0c 7B0B0000 		.long	0xb7b
 2210 0c10 04       		.uleb128 0x4
 2211 0c11 0B0C0000 		.long	0xc0b
 2212 0c15 13       		.uleb128 0x13
 2213 0c16 D5000000 		.long	0xd5
 2214 0c1a 250C0000 		.long	0xc25
 2215 0c1e 14       		.uleb128 0x14
 2216 0c1f 3E000000 		.long	0x3e
 2217 0c23 1F       		.byte	0x1f
 2218 0c24 00       		.byte	0
 2219 0c25 18       		.uleb128 0x18
 2220 0c26 A2080000 		.long	.LASF168
 2221 0c2a 07       		.byte	0x7
 2222 0c2b 1E       		.byte	0x1e
 2223 0c2c 300C0000 		.long	0xc30
 2224 0c30 04       		.uleb128 0x4
 2225 0c31 2C090000 		.long	0x92c
 2226 0c35 13       		.uleb128 0x13
 2227 0c36 26000000 		.long	0x26
 2228 0c3a 450C0000 		.long	0xc45
 2229 0c3e 14       		.uleb128 0x14
 2230 0c3f 3E000000 		.long	0x3e
 2231 0c43 09       		.byte	0x9
 2232 0c44 00       		.byte	0
 2233 0c45 0C       		.uleb128 0xc
 2234 0c46 9D070000 		.long	.LASF164
 2235 0c4a 0A       		.byte	0xa
 2236 0c4b 0C       		.byte	0xc
 2237 0c4c 350C0000 		.long	0xc35
 2238 0c50 05       		.uleb128 0x5
 2239 0c51 03       		.byte	0x3
 2240 0c52 00000000 		.long	buffer
 2241 0c56 0C       		.uleb128 0xc
 2242 0c57 72050000 		.long	.LASF165
 2243 0c5b 0B       		.byte	0xb
 2244 0c5c 0F       		.byte	0xf
 2245 0c5d 2D000000 		.long	0x2d
 2246 0c61 05       		.uleb128 0x5
 2247 0c62 03       		.byte	0x3
GAS LISTING /tmp/ccLLfGOV.s 			page 43


 2248 0c63 00000000 		.long	buffer_head
 2249 0c67 0C       		.uleb128 0xc
 2250 0c68 D2080000 		.long	.LASF166
 2251 0c6c 0C       		.byte	0xc
 2252 0c6d 0F       		.byte	0xf
 2253 0c6e 2D000000 		.long	0x2d
 2254 0c72 05       		.uleb128 0x5
 2255 0c73 03       		.byte	0x3
 2256 0c74 00000000 		.long	buffer_tail
 2257 0c78 0C       		.uleb128 0xc
 2258 0c79 E3020000 		.long	.LASF167
 2259 0c7d 0D       		.byte	0xd
 2260 0c7e 0F       		.byte	0xf
 2261 0c7f 2D000000 		.long	0x2d
 2262 0c83 05       		.uleb128 0x5
 2263 0c84 03       		.byte	0x3
 2264 0c85 00000000 		.long	buffer_count
 2265 0c89 18       		.uleb128 0x18
 2266 0c8a A3050000 		.long	.LASF169
 2267 0c8e 0E       		.byte	0xe
 2268 0c8f 0F       		.byte	0xf
 2269 0c90 2D000000 		.long	0x2d
 2270 0c94 18       		.uleb128 0x18
 2271 0c95 E2060000 		.long	.LASF170
 2272 0c99 0F       		.byte	0xf
 2273 0c9a 0F       		.byte	0xf
 2274 0c9b 2D000000 		.long	0x2d
 2275 0c9f 0C       		.uleb128 0xc
 2276 0ca0 8F080000 		.long	.LASF171
 2277 0ca4 10       		.byte	0x10
 2278 0ca5 10       		.byte	0x10
 2279 0ca6 B7070000 		.long	0x7b7
 2280 0caa 05       		.uleb128 0x5
 2281 0cab 03       		.byte	0x3
 2282 0cac 00000000 		.long	buffer_mutex
 2283 0cb0 0C       		.uleb128 0xc
 2284 0cb1 E2030000 		.long	.LASF172
 2285 0cb5 11       		.byte	0x11
 2286 0cb6 10       		.byte	0x10
 2287 0cb7 B7070000 		.long	0x7b7
 2288 0cbb 05       		.uleb128 0x5
 2289 0cbc 03       		.byte	0x3
 2290 0cbd 00000000 		.long	print_mutex
 2291 0cc1 0C       		.uleb128 0xc
 2292 0cc2 82060000 		.long	.LASF173
 2293 0cc6 12       		.byte	0x12
 2294 0cc7 17       		.byte	0x17
 2295 0cc8 43080000 		.long	0x843
 2296 0ccc 05       		.uleb128 0x5
 2297 0ccd 03       		.byte	0x3
 2298 0cce 00000000 		.long	buffer_event
 2299 0cd2 0C       		.uleb128 0xc
 2300 0cd3 FA050000 		.long	.LASF174
 2301 0cd7 14       		.byte	0x14
 2302 0cd8 0C       		.byte	0xc
 2303 0cd9 26000000 		.long	0x26
 2304 0cdd 05       		.uleb128 0x5
GAS LISTING /tmp/ccLLfGOV.s 			page 44


 2305 0cde 03       		.byte	0x3
 2306 0cdf 00000000 		.long	number_counter
 2307 0ce3 2D       		.uleb128 0x2d
 2308 0ce4 B1040000 		.long	0x4b1
 2309 0ce8 10       		.byte	0x10
 2310 0ce9 F50C0000 		.long	0xcf5
 2311 0ced 2E       		.uleb128 0x2e
 2312 0cee 3E000000 		.long	0x3e
 2313 0cf2 1704     		.value	0x417
 2314 0cf4 00       		.byte	0
 2315 0cf5 1C       		.uleb128 0x1c
 2316 0cf6 08040000 		.long	.LASF175
 2317 0cfa 16       		.byte	0x16
 2318 0cfb E30C0000 		.long	0xce3
 2319 0cff 05       		.uleb128 0x5
 2320 0d00 03       		.byte	0x3
 2321 0d01 00000000 		.long	waProducer
 2322 0d05 1C       		.uleb128 0x1c
 2323 0d06 C7060000 		.long	.LASF176
 2324 0d0a 38       		.byte	0x38
 2325 0d0b E30C0000 		.long	0xce3
 2326 0d0f 05       		.uleb128 0x5
 2327 0d10 03       		.byte	0x3
 2328 0d11 00000000 		.long	waConsumer
 2329 0d15 0F       		.uleb128 0xf
 2330 0d16 61020000 		.long	.LASF177
 2331 0d1a 02       		.byte	0x2
 2332 0d1b 90       		.byte	0x90
 2333 0d1c 2B0D0000 		.long	0xd2b
 2334 0d20 03       		.uleb128 0x3
 2335 0d21 2B0D0000 		.long	0xd2b
 2336 0d25 03       		.uleb128 0x3
 2337 0d26 57010000 		.long	0x157
 2338 0d2a 00       		.byte	0
 2339 0d2b 04       		.uleb128 0x4
 2340 0d2c 43080000 		.long	0x843
 2341 0d30 0F       		.uleb128 0xf
 2342 0d31 A8030000 		.long	.LASF178
 2343 0d35 02       		.byte	0x2
 2344 0d36 84       		.byte	0x84
 2345 0d37 500D0000 		.long	0xd50
 2346 0d3b 03       		.uleb128 0x3
 2347 0d3c 2B0D0000 		.long	0xd2b
 2348 0d40 03       		.uleb128 0x3
 2349 0d41 23080000 		.long	0x823
 2350 0d45 03       		.uleb128 0x3
 2351 0d46 4B010000 		.long	0x14b
 2352 0d4a 03       		.uleb128 0x3
 2353 0d4b 57010000 		.long	0x157
 2354 0d4f 00       		.byte	0
 2355 0d50 1D       		.uleb128 0x1d
 2356 0d51 D6010000 		.long	.LASF181
 2357 0d55 02       		.byte	0x2
 2358 0d56 95       		.byte	0x95
 2359 0d57 0F       		.byte	0xf
 2360 0d58 4B010000 		.long	0x14b
 2361 0d5c 660D0000 		.long	0xd66
GAS LISTING /tmp/ccLLfGOV.s 			page 45


 2362 0d60 03       		.uleb128 0x3
 2363 0d61 4B010000 		.long	0x14b
 2364 0d65 00       		.byte	0
 2365 0d66 2F       		.uleb128 0x2f
 2366 0d67 08000000 		.long	.LASF179
 2367 0d6b 11       		.byte	0x11
 2368 0d6c DC01     		.value	0x1dc
 2369 0d6e 08       		.byte	0x8
 2370 0d6f 790D0000 		.long	0xd79
 2371 0d73 03       		.uleb128 0x3
 2372 0d74 7F030000 		.long	0x37f
 2373 0d78 00       		.byte	0
 2374 0d79 0F       		.uleb128 0xf
 2375 0d7a 55010000 		.long	.LASF180
 2376 0d7e 10       		.byte	0x10
 2377 0d7f 6C       		.byte	0x6c
 2378 0d80 8A0D0000 		.long	0xd8a
 2379 0d84 03       		.uleb128 0x3
 2380 0d85 C3070000 		.long	0x7c3
 2381 0d89 00       		.byte	0
 2382 0d8a 1D       		.uleb128 0x1d
 2383 0d8b ED080000 		.long	.LASF182
 2384 0d8f 16       		.byte	0x16
 2385 0d90 2B       		.byte	0x2b
 2386 0d91 07       		.byte	0x7
 2387 0d92 26000000 		.long	0x26
 2388 0d96 A60D0000 		.long	0xda6
 2389 0d9a 03       		.uleb128 0x3
 2390 0d9b 300C0000 		.long	0xc30
 2391 0d9f 03       		.uleb128 0x3
 2392 0da0 58030000 		.long	0x358
 2393 0da4 30       		.uleb128 0x30
 2394 0da5 00       		.byte	0
 2395 0da6 0F       		.uleb128 0xf
 2396 0da7 99050000 		.long	.LASF183
 2397 0dab 10       		.byte	0x10
 2398 0dac 68       		.byte	0x68
 2399 0dad B70D0000 		.long	0xdb7
 2400 0db1 03       		.uleb128 0x3
 2401 0db2 C3070000 		.long	0x7c3
 2402 0db6 00       		.byte	0
 2403 0db7 1E       		.uleb128 0x1e
 2404 0db8 27040000 		.long	.LASF184
 2405 0dbc 11       		.byte	0x11
 2406 0dbd C401     		.value	0x1c4
 2407 0dbf 0D       		.byte	0xd
 2408 0dc0 B3050000 		.long	0x5b3
 2409 0dc4 E20D0000 		.long	0xde2
 2410 0dc8 03       		.uleb128 0x3
 2411 0dc9 FF060000 		.long	0x6ff
 2412 0dcd 03       		.uleb128 0x3
 2413 0dce 2D000000 		.long	0x2d
 2414 0dd2 03       		.uleb128 0x3
 2415 0dd3 27010000 		.long	0x127
 2416 0dd7 03       		.uleb128 0x3
 2417 0dd8 9B070000 		.long	0x79b
 2418 0ddc 03       		.uleb128 0x3
GAS LISTING /tmp/ccLLfGOV.s 			page 46


 2419 0ddd BB000000 		.long	0xbb
 2420 0de1 00       		.byte	0
 2421 0de2 0F       		.uleb128 0xf
 2422 0de3 5D030000 		.long	.LASF185
 2423 0de7 02       		.byte	0x2
 2424 0de8 7E       		.byte	0x7e
 2425 0de9 F30D0000 		.long	0xdf3
 2426 0ded 03       		.uleb128 0x3
 2427 0dee 2B0D0000 		.long	0xd2b
 2428 0df2 00       		.byte	0
 2429 0df3 0F       		.uleb128 0xf
 2430 0df4 E3010000 		.long	.LASF186
 2431 0df8 10       		.byte	0x10
 2432 0df9 66       		.byte	0x66
 2433 0dfa 040E0000 		.long	0xe04
 2434 0dfe 03       		.uleb128 0x3
 2435 0dff C3070000 		.long	0x7c3
 2436 0e03 00       		.byte	0
 2437 0e04 1E       		.uleb128 0x1e
 2438 0e05 6B070000 		.long	.LASF187
 2439 0e09 14       		.byte	0x14
 2440 0e0a 8601     		.value	0x186
 2441 0e0c 09       		.byte	0x9
 2442 0e0d 33010000 		.long	0x133
 2443 0e11 200E0000 		.long	0xe20
 2444 0e15 03       		.uleb128 0x3
 2445 0e16 200E0000 		.long	0xe20
 2446 0e1a 03       		.uleb128 0x3
 2447 0e1b 250E0000 		.long	0xe25
 2448 0e1f 00       		.byte	0
 2449 0e20 04       		.uleb128 0x4
 2450 0e21 BB0A0000 		.long	0xabb
 2451 0e25 04       		.uleb128 0x4
 2452 0e26 6A0B0000 		.long	0xb6a
 2453 0e2a 31       		.uleb128 0x31
 2454 0e2b 7F010000 		.long	.LASF188
 2455 0e2f 17       		.byte	0x17
 2456 0e30 4E01     		.value	0x14e
 2457 0e32 08       		.byte	0x8
 2458 0e33 32       		.uleb128 0x32
 2459 0e34 32020000 		.long	.LASF189
 2460 0e38 18       		.byte	0x18
 2461 0e39 FD       		.byte	0xfd
 2462 0e3a 08       		.byte	0x8
 2463 0e3b 33       		.uleb128 0x33
 2464 0e3c C5080000 		.long	.LASF197
 2465 0e40 01       		.byte	0x1
 2466 0e41 51       		.byte	0x51
 2467 0e42 05       		.byte	0x5
 2468 0e43 26000000 		.long	0x26
 2469 0e47 00000000 		.long	.LFB301
 2470 0e4b 22010000 		.long	.LFE301-.LFB301
 2471 0e4f 01       		.uleb128 0x1
 2472 0e50 9C       		.byte	0x9c
 2473 0e51 DD0E0000 		.long	0xedd
 2474 0e55 05       		.uleb128 0x5
 2475 0e56 24000000 		.long	.LVL32
GAS LISTING /tmp/ccLLfGOV.s 			page 47


 2476 0e5a 330E0000 		.long	0xe33
 2477 0e5e 05       		.uleb128 0x5
 2478 0e5f 2F000000 		.long	.LVL33
 2479 0e63 2A0E0000 		.long	0xe2a
 2480 0e67 05       		.uleb128 0x5
 2481 0e68 40000000 		.long	.LVL34
 2482 0e6c 040E0000 		.long	0xe04
 2483 0e70 05       		.uleb128 0x5
 2484 0e71 4E000000 		.long	.LVL35
 2485 0e75 F30D0000 		.long	0xdf3
 2486 0e79 05       		.uleb128 0x5
 2487 0e7a 56000000 		.long	.LVL36
 2488 0e7e F30D0000 		.long	0xdf3
 2489 0e82 05       		.uleb128 0x5
 2490 0e83 64000000 		.long	.LVL37
 2491 0e87 E20D0000 		.long	0xde2
 2492 0e8b 05       		.uleb128 0x5
 2493 0e8c 88000000 		.long	.LVL38
 2494 0e90 B70D0000 		.long	0xdb7
 2495 0e94 05       		.uleb128 0x5
 2496 0e95 AA000000 		.long	.LVL39
 2497 0e99 B70D0000 		.long	0xdb7
 2498 0e9d 05       		.uleb128 0x5
 2499 0e9e B3000000 		.long	.LVL40
 2500 0ea2 A60D0000 		.long	0xda6
 2501 0ea6 05       		.uleb128 0x5
 2502 0ea7 C2000000 		.long	.LVL41
 2503 0eab 8A0D0000 		.long	0xd8a
 2504 0eaf 05       		.uleb128 0x5
 2505 0eb0 D7000000 		.long	.LVL42
 2506 0eb4 8A0D0000 		.long	0xd8a
 2507 0eb8 05       		.uleb128 0x5
 2508 0eb9 EC000000 		.long	.LVL43
 2509 0ebd 8A0D0000 		.long	0xd8a
 2510 0ec1 05       		.uleb128 0x5
 2511 0ec2 FE000000 		.long	.LVL44
 2512 0ec6 8A0D0000 		.long	0xd8a
 2513 0eca 05       		.uleb128 0x5
 2514 0ecb 06010000 		.long	.LVL45
 2515 0ecf 790D0000 		.long	0xd79
 2516 0ed3 05       		.uleb128 0x5
 2517 0ed4 1D010000 		.long	.LVL46
 2518 0ed8 660D0000 		.long	0xd66
 2519 0edc 00       		.byte	0
 2520 0edd 1F       		.uleb128 0x1f
 2521 0ede 32030000 		.long	.LASF190
 2522 0ee2 39       		.byte	0x39
 2523 0ee3 00000000 		.long	.LFB300
 2524 0ee7 04010000 		.long	.LFE300-.LFB300
 2525 0eeb 01       		.uleb128 0x1
 2526 0eec 9C       		.byte	0x9c
 2527 0eed E80F0000 		.long	0xfe8
 2528 0ef1 20       		.uleb128 0x20
 2529 0ef2 61726700 		.string	"arg"
 2530 0ef6 39       		.byte	0x39
 2531 0ef7 BB000000 		.long	0xbb
 2532 0efb 02       		.uleb128 0x2
GAS LISTING /tmp/ccLLfGOV.s 			page 48


 2533 0efc 91       		.byte	0x91
 2534 0efd 00       		.sleb128 0
 2535 0efe 34       		.uleb128 0x34
 2536 0eff 656C00   		.string	"el"
 2537 0f02 01       		.byte	0x1
 2538 0f03 3B       		.byte	0x3b
 2539 0f04 16       		.byte	0x16
 2540 0f05 C8070000 		.long	0x7c8
 2541 0f09 02       		.uleb128 0x2
 2542 0f0a 91       		.byte	0x91
 2543 0f0b 48       		.sleb128 -56
 2544 0f0c 35       		.uleb128 0x35
 2545 0f0d 24000000 		.long	.LLRL8
 2546 0f11 440F0000 		.long	0xf44
 2547 0f15 21       		.uleb128 0x21
 2548 0f16 6E756D00 		.string	"num"
 2549 0f1a 43       		.byte	0x43
 2550 0f1b 11       		.byte	0x11
 2551 0f1c 26000000 		.long	0x26
 2552 0f20 0E000000 		.long	.LLST9
 2553 0f24 0C000000 		.long	.LVUS9
 2554 0f28 05       		.uleb128 0x5
 2555 0f29 C4000000 		.long	.LVL10
 2556 0f2d A60D0000 		.long	0xda6
 2557 0f31 05       		.uleb128 0x5
 2558 0f32 DB000000 		.long	.LVL11
 2559 0f36 8A0D0000 		.long	0xd8a
 2560 0f3a 05       		.uleb128 0x5
 2561 0f3b E4000000 		.long	.LVL12
 2562 0f3f 790D0000 		.long	0xd79
 2563 0f43 00       		.byte	0
 2564 0f44 36       		.uleb128 0x36
 2565 0f45 D5100000 		.long	0x10d5
 2566 0f49 1E000000 		.long	.LBI12
 2567 0f4d 03       		.byte	.LVU6
 2568 0f4e 0C000000 		.long	.LLRL0
 2569 0f52 01       		.byte	0x1
 2570 0f53 3C       		.byte	0x3c
 2571 0f54 05       		.byte	0x5
 2572 0f55 C30F0000 		.long	0xfc3
 2573 0f59 0D       		.uleb128 0xd
 2574 0f5a F5100000 		.long	0x10f5
 2575 0f5e 1B000000 		.long	.LLST1
 2576 0f62 19000000 		.long	.LVUS1
 2577 0f66 0D       		.uleb128 0xd
 2578 0f67 EA100000 		.long	0x10ea
 2579 0f6b 2D000000 		.long	.LLST2
 2580 0f6f 25000000 		.long	.LVUS2
 2581 0f73 0D       		.uleb128 0xd
 2582 0f74 DF100000 		.long	0x10df
 2583 0f78 4F000000 		.long	.LLST3
 2584 0f7c 4D000000 		.long	.LVUS3
 2585 0f80 37       		.uleb128 0x37
 2586 0f81 01110000 		.long	0x1101
 2587 0f85 1E000000 		.long	.LBI14
 2588 0f89 05       		.byte	.LVU8
 2589 0f8a 18000000 		.long	.LLRL4
GAS LISTING /tmp/ccLLfGOV.s 			page 49


 2590 0f8e 02       		.byte	0x2
 2591 0f8f D1       		.byte	0xd1
 2592 0f90 03       		.byte	0x3
 2593 0f91 0D       		.uleb128 0xd
 2594 0f92 20110000 		.long	0x1120
 2595 0f96 5F000000 		.long	.LLST5
 2596 0f9a 5D000000 		.long	.LVUS5
 2597 0f9e 0D       		.uleb128 0xd
 2598 0f9f 15110000 		.long	0x1115
 2599 0fa3 71000000 		.long	.LLST6
 2600 0fa7 69000000 		.long	.LVUS6
 2601 0fab 0D       		.uleb128 0xd
 2602 0fac 0A110000 		.long	0x110a
 2603 0fb0 93000000 		.long	.LLST7
 2604 0fb4 91000000 		.long	.LVUS7
 2605 0fb8 05       		.uleb128 0x5
 2606 0fb9 41000000 		.long	.LVL4
 2607 0fbd 300D0000 		.long	0xd30
 2608 0fc1 00       		.byte	0
 2609 0fc2 00       		.byte	0
 2610 0fc3 05       		.uleb128 0x5
 2611 0fc4 72000000 		.long	.LVL6
 2612 0fc8 500D0000 		.long	0xd50
 2613 0fcc 05       		.uleb128 0x5
 2614 0fcd 7A000000 		.long	.LVL7
 2615 0fd1 A60D0000 		.long	0xda6
 2616 0fd5 05       		.uleb128 0x5
 2617 0fd6 F0000000 		.long	.LVL13
 2618 0fda 790D0000 		.long	0xd79
 2619 0fde 05       		.uleb128 0x5
 2620 0fdf FC000000 		.long	.LVL14
 2621 0fe3 660D0000 		.long	0xd66
 2622 0fe7 00       		.byte	0
 2623 0fe8 1F       		.uleb128 0x1f
 2624 0fe9 C2000000 		.long	.LASF191
 2625 0fed 17       		.byte	0x17
 2626 0fee 00000000 		.long	.LFB299
 2627 0ff2 5D010000 		.long	.LFE299-.LFB299
 2628 0ff6 01       		.uleb128 0x1
 2629 0ff7 9C       		.byte	0x9c
 2630 0ff8 BF100000 		.long	0x10bf
 2631 0ffc 20       		.uleb128 0x20
 2632 0ffd 61726700 		.string	"arg"
 2633 1001 17       		.byte	0x17
 2634 1002 BB000000 		.long	0xbb
 2635 1006 02       		.uleb128 0x2
 2636 1007 91       		.byte	0x91
 2637 1008 00       		.sleb128 0
 2638 1009 38       		.uleb128 0x38
 2639 100a 31000000 		.long	.LLRL10
 2640 100e 21       		.uleb128 0x21
 2641 100f 6E756D00 		.string	"num"
 2642 1013 1B       		.byte	0x1b
 2643 1014 0D       		.byte	0xd
 2644 1015 26000000 		.long	0x26
 2645 1019 A5000000 		.long	.LLST11
 2646 101d A1000000 		.long	.LVUS11
GAS LISTING /tmp/ccLLfGOV.s 			page 50


 2647 1021 39       		.uleb128 0x39
 2648 1022 BF100000 		.long	0x10bf
 2649 1026 BA000000 		.long	.LBI23
 2650 102a 01       		.byte	.LVU63
 2651 102b BA000000 		.long	.LBB23
 2652 102f 0D000000 		.long	.LBE23-.LBB23
 2653 1033 01       		.byte	0x1
 2654 1034 31       		.byte	0x31
 2655 1035 09       		.byte	0x9
 2656 1036 51100000 		.long	0x1051
 2657 103a 0D       		.uleb128 0xd
 2658 103b C9100000 		.long	0x10c9
 2659 103f BA000000 		.long	.LLST12
 2660 1043 B8000000 		.long	.LVUS12
 2661 1047 05       		.uleb128 0x5
 2662 1048 C7000000 		.long	.LVL20
 2663 104c 150D0000 		.long	0xd15
 2664 1050 00       		.byte	0
 2665 1051 05       		.uleb128 0x5
 2666 1052 9D000000 		.long	.LVL17
 2667 1056 A60D0000 		.long	0xda6
 2668 105a 05       		.uleb128 0x5
 2669 105b B1000000 		.long	.LVL18
 2670 105f 8A0D0000 		.long	0xd8a
 2671 1063 05       		.uleb128 0x5
 2672 1064 BA000000 		.long	.LVL19
 2673 1068 790D0000 		.long	0xd79
 2674 106c 05       		.uleb128 0x5
 2675 106d CF000000 		.long	.LVL21
 2676 1071 790D0000 		.long	0xd79
 2677 1075 05       		.uleb128 0x5
 2678 1076 DB000000 		.long	.LVL22
 2679 107a 660D0000 		.long	0xd66
 2680 107e 05       		.uleb128 0x5
 2681 107f F6000000 		.long	.LVL25
 2682 1083 A60D0000 		.long	0xda6
 2683 1087 05       		.uleb128 0x5
 2684 1088 15010000 		.long	.LVL26
 2685 108c 790D0000 		.long	0xd79
 2686 1090 05       		.uleb128 0x5
 2687 1091 1D010000 		.long	.LVL27
 2688 1095 A60D0000 		.long	0xda6
 2689 1099 05       		.uleb128 0x5
 2690 109a 2C010000 		.long	.LVL28
 2691 109e 8A0D0000 		.long	0xd8a
 2692 10a2 05       		.uleb128 0x5
 2693 10a3 34010000 		.long	.LVL29
 2694 10a7 790D0000 		.long	0xd79
 2695 10ab 05       		.uleb128 0x5
 2696 10ac 40010000 		.long	.LVL30
 2697 10b0 660D0000 		.long	0xd66
 2698 10b4 05       		.uleb128 0x5
 2699 10b5 48010000 		.long	.LVL31
 2700 10b9 A60D0000 		.long	0xda6
 2701 10bd 00       		.byte	0
 2702 10be 00       		.byte	0
 2703 10bf 22       		.uleb128 0x22
GAS LISTING /tmp/ccLLfGOV.s 			page 51


 2704 10c0 8A050000 		.long	.LASF192
 2705 10c4 E9       		.byte	0xe9
 2706 10c5 D5100000 		.long	0x10d5
 2707 10c9 10       		.uleb128 0x10
 2708 10ca 65737000 		.string	"esp"
 2709 10ce E9       		.byte	0xe9
 2710 10cf 33       		.byte	0x33
 2711 10d0 2B0D0000 		.long	0xd2b
 2712 10d4 00       		.byte	0
 2713 10d5 22       		.uleb128 0x22
 2714 10d6 5E000000 		.long	.LASF193
 2715 10da CD       		.byte	0xcd
 2716 10db 01110000 		.long	0x1101
 2717 10df 10       		.uleb128 0x10
 2718 10e0 65737000 		.string	"esp"
 2719 10e4 CD       		.byte	0xcd
 2720 10e5 32       		.byte	0x32
 2721 10e6 2B0D0000 		.long	0xd2b
 2722 10ea 10       		.uleb128 0x10
 2723 10eb 656C7000 		.string	"elp"
 2724 10ef CE       		.byte	0xce
 2725 10f0 34       		.byte	0x34
 2726 10f1 23080000 		.long	0x823
 2727 10f5 23       		.uleb128 0x23
 2728 10f6 57030000 		.long	.LASF152
 2729 10fa CF       		.byte	0xcf
 2730 10fb 2C       		.byte	0x2c
 2731 10fc 3F010000 		.long	0x13f
 2732 1100 00       		.byte	0
 2733 1101 3A       		.uleb128 0x3a
 2734 1102 D5050000 		.long	.LASF198
 2735 1106 02       		.byte	0x2
 2736 1107 B9       		.byte	0xb9
 2737 1108 14       		.byte	0x14
 2738 1109 03       		.byte	0x3
 2739 110a 10       		.uleb128 0x10
 2740 110b 65737000 		.string	"esp"
 2741 110f B9       		.byte	0xb9
 2742 1110 36       		.byte	0x36
 2743 1111 2B0D0000 		.long	0xd2b
 2744 1115 10       		.uleb128 0x10
 2745 1116 656C7000 		.string	"elp"
 2746 111a BA       		.byte	0xba
 2747 111b 38       		.byte	0x38
 2748 111c 23080000 		.long	0x823
 2749 1120 23       		.uleb128 0x23
 2750 1121 09070000 		.long	.LASF124
 2751 1125 BB       		.byte	0xbb
 2752 1126 32       		.byte	0x32
 2753 1127 4B010000 		.long	0x14b
 2754 112b 00       		.byte	0
 2755 112c 00       		.byte	0
 2756              		.section	.debug_abbrev,"",@progbits
 2757              	.Ldebug_abbrev0:
 2758 0000 01       		.uleb128 0x1
 2759 0001 0D       		.uleb128 0xd
 2760 0002 00       		.byte	0
GAS LISTING /tmp/ccLLfGOV.s 			page 52


 2761 0003 03       		.uleb128 0x3
 2762 0004 0E       		.uleb128 0xe
 2763 0005 3A       		.uleb128 0x3a
 2764 0006 0B       		.uleb128 0xb
 2765 0007 3B       		.uleb128 0x3b
 2766 0008 0B       		.uleb128 0xb
 2767 0009 39       		.uleb128 0x39
 2768 000a 0B       		.uleb128 0xb
 2769 000b 49       		.uleb128 0x49
 2770 000c 13       		.uleb128 0x13
 2771 000d 38       		.uleb128 0x38
 2772 000e 0B       		.uleb128 0xb
 2773 000f 00       		.byte	0
 2774 0010 00       		.byte	0
 2775 0011 02       		.uleb128 0x2
 2776 0012 16       		.uleb128 0x16
 2777 0013 00       		.byte	0
 2778 0014 03       		.uleb128 0x3
 2779 0015 0E       		.uleb128 0xe
 2780 0016 3A       		.uleb128 0x3a
 2781 0017 0B       		.uleb128 0xb
 2782 0018 3B       		.uleb128 0x3b
 2783 0019 0B       		.uleb128 0xb
 2784 001a 39       		.uleb128 0x39
 2785 001b 0B       		.uleb128 0xb
 2786 001c 49       		.uleb128 0x49
 2787 001d 13       		.uleb128 0x13
 2788 001e 00       		.byte	0
 2789 001f 00       		.byte	0
 2790 0020 03       		.uleb128 0x3
 2791 0021 05       		.uleb128 0x5
 2792 0022 00       		.byte	0
 2793 0023 49       		.uleb128 0x49
 2794 0024 13       		.uleb128 0x13
 2795 0025 00       		.byte	0
 2796 0026 00       		.byte	0
 2797 0027 04       		.uleb128 0x4
 2798 0028 0F       		.uleb128 0xf
 2799 0029 00       		.byte	0
 2800 002a 0B       		.uleb128 0xb
 2801 002b 21       		.uleb128 0x21
 2802 002c 04       		.sleb128 4
 2803 002d 49       		.uleb128 0x49
 2804 002e 13       		.uleb128 0x13
 2805 002f 00       		.byte	0
 2806 0030 00       		.byte	0
 2807 0031 05       		.uleb128 0x5
 2808 0032 48       		.uleb128 0x48
 2809 0033 00       		.byte	0
 2810 0034 7D       		.uleb128 0x7d
 2811 0035 01       		.uleb128 0x1
 2812 0036 7F       		.uleb128 0x7f
 2813 0037 13       		.uleb128 0x13
 2814 0038 00       		.byte	0
 2815 0039 00       		.byte	0
 2816 003a 06       		.uleb128 0x6
 2817 003b 13       		.uleb128 0x13
GAS LISTING /tmp/ccLLfGOV.s 			page 53


 2818 003c 01       		.byte	0x1
 2819 003d 03       		.uleb128 0x3
 2820 003e 0E       		.uleb128 0xe
 2821 003f 0B       		.uleb128 0xb
 2822 0040 0B       		.uleb128 0xb
 2823 0041 3A       		.uleb128 0x3a
 2824 0042 0B       		.uleb128 0xb
 2825 0043 3B       		.uleb128 0x3b
 2826 0044 0B       		.uleb128 0xb
 2827 0045 39       		.uleb128 0x39
 2828 0046 0B       		.uleb128 0xb
 2829 0047 01       		.uleb128 0x1
 2830 0048 13       		.uleb128 0x13
 2831 0049 00       		.byte	0
 2832 004a 00       		.byte	0
 2833 004b 07       		.uleb128 0x7
 2834 004c 0D       		.uleb128 0xd
 2835 004d 00       		.byte	0
 2836 004e 03       		.uleb128 0x3
 2837 004f 0E       		.uleb128 0xe
 2838 0050 3A       		.uleb128 0x3a
 2839 0051 21       		.uleb128 0x21
 2840 0052 09       		.sleb128 9
 2841 0053 3B       		.uleb128 0x3b
 2842 0054 05       		.uleb128 0x5
 2843 0055 39       		.uleb128 0x39
 2844 0056 0B       		.uleb128 0xb
 2845 0057 49       		.uleb128 0x49
 2846 0058 13       		.uleb128 0x13
 2847 0059 38       		.uleb128 0x38
 2848 005a 0B       		.uleb128 0xb
 2849 005b 00       		.byte	0
 2850 005c 00       		.byte	0
 2851 005d 08       		.uleb128 0x8
 2852 005e 0D       		.uleb128 0xd
 2853 005f 00       		.byte	0
 2854 0060 03       		.uleb128 0x3
 2855 0061 08       		.uleb128 0x8
 2856 0062 3A       		.uleb128 0x3a
 2857 0063 0B       		.uleb128 0xb
 2858 0064 3B       		.uleb128 0x3b
 2859 0065 0B       		.uleb128 0xb
 2860 0066 39       		.uleb128 0x39
 2861 0067 0B       		.uleb128 0xb
 2862 0068 49       		.uleb128 0x49
 2863 0069 13       		.uleb128 0x13
 2864 006a 38       		.uleb128 0x38
 2865 006b 0B       		.uleb128 0xb
 2866 006c 00       		.byte	0
 2867 006d 00       		.byte	0
 2868 006e 09       		.uleb128 0x9
 2869 006f 24       		.uleb128 0x24
 2870 0070 00       		.byte	0
 2871 0071 0B       		.uleb128 0xb
 2872 0072 0B       		.uleb128 0xb
 2873 0073 3E       		.uleb128 0x3e
 2874 0074 0B       		.uleb128 0xb
GAS LISTING /tmp/ccLLfGOV.s 			page 54


 2875 0075 03       		.uleb128 0x3
 2876 0076 0E       		.uleb128 0xe
 2877 0077 00       		.byte	0
 2878 0078 00       		.byte	0
 2879 0079 0A       		.uleb128 0xa
 2880 007a 15       		.uleb128 0x15
 2881 007b 01       		.byte	0x1
 2882 007c 27       		.uleb128 0x27
 2883 007d 19       		.uleb128 0x19
 2884 007e 49       		.uleb128 0x49
 2885 007f 13       		.uleb128 0x13
 2886 0080 01       		.uleb128 0x1
 2887 0081 13       		.uleb128 0x13
 2888 0082 00       		.byte	0
 2889 0083 00       		.byte	0
 2890 0084 0B       		.uleb128 0xb
 2891 0085 0D       		.uleb128 0xd
 2892 0086 00       		.byte	0
 2893 0087 03       		.uleb128 0x3
 2894 0088 0E       		.uleb128 0xe
 2895 0089 3A       		.uleb128 0x3a
 2896 008a 21       		.uleb128 0x21
 2897 008b 09       		.sleb128 9
 2898 008c 3B       		.uleb128 0x3b
 2899 008d 05       		.uleb128 0x5
 2900 008e 39       		.uleb128 0x39
 2901 008f 0B       		.uleb128 0xb
 2902 0090 49       		.uleb128 0x49
 2903 0091 13       		.uleb128 0x13
 2904 0092 00       		.byte	0
 2905 0093 00       		.byte	0
 2906 0094 0C       		.uleb128 0xc
 2907 0095 34       		.uleb128 0x34
 2908 0096 00       		.byte	0
 2909 0097 03       		.uleb128 0x3
 2910 0098 0E       		.uleb128 0xe
 2911 0099 3A       		.uleb128 0x3a
 2912 009a 21       		.uleb128 0x21
 2913 009b 01       		.sleb128 1
 2914 009c 3B       		.uleb128 0x3b
 2915 009d 0B       		.uleb128 0xb
 2916 009e 39       		.uleb128 0x39
 2917 009f 0B       		.uleb128 0xb
 2918 00a0 49       		.uleb128 0x49
 2919 00a1 13       		.uleb128 0x13
 2920 00a2 02       		.uleb128 0x2
 2921 00a3 18       		.uleb128 0x18
 2922 00a4 00       		.byte	0
 2923 00a5 00       		.byte	0
 2924 00a6 0D       		.uleb128 0xd
 2925 00a7 05       		.uleb128 0x5
 2926 00a8 00       		.byte	0
 2927 00a9 31       		.uleb128 0x31
 2928 00aa 13       		.uleb128 0x13
 2929 00ab 02       		.uleb128 0x2
 2930 00ac 17       		.uleb128 0x17
 2931 00ad B742     		.uleb128 0x2137
GAS LISTING /tmp/ccLLfGOV.s 			page 55


 2932 00af 17       		.uleb128 0x17
 2933 00b0 00       		.byte	0
 2934 00b1 00       		.byte	0
 2935 00b2 0E       		.uleb128 0xe
 2936 00b3 26       		.uleb128 0x26
 2937 00b4 00       		.byte	0
 2938 00b5 49       		.uleb128 0x49
 2939 00b6 13       		.uleb128 0x13
 2940 00b7 00       		.byte	0
 2941 00b8 00       		.byte	0
 2942 00b9 0F       		.uleb128 0xf
 2943 00ba 2E       		.uleb128 0x2e
 2944 00bb 01       		.byte	0x1
 2945 00bc 3F       		.uleb128 0x3f
 2946 00bd 19       		.uleb128 0x19
 2947 00be 03       		.uleb128 0x3
 2948 00bf 0E       		.uleb128 0xe
 2949 00c0 3A       		.uleb128 0x3a
 2950 00c1 0B       		.uleb128 0xb
 2951 00c2 3B       		.uleb128 0x3b
 2952 00c3 0B       		.uleb128 0xb
 2953 00c4 39       		.uleb128 0x39
 2954 00c5 21       		.uleb128 0x21
 2955 00c6 08       		.sleb128 8
 2956 00c7 27       		.uleb128 0x27
 2957 00c8 19       		.uleb128 0x19
 2958 00c9 3C       		.uleb128 0x3c
 2959 00ca 19       		.uleb128 0x19
 2960 00cb 01       		.uleb128 0x1
 2961 00cc 13       		.uleb128 0x13
 2962 00cd 00       		.byte	0
 2963 00ce 00       		.byte	0
 2964 00cf 10       		.uleb128 0x10
 2965 00d0 05       		.uleb128 0x5
 2966 00d1 00       		.byte	0
 2967 00d2 03       		.uleb128 0x3
 2968 00d3 08       		.uleb128 0x8
 2969 00d4 3A       		.uleb128 0x3a
 2970 00d5 21       		.uleb128 0x21
 2971 00d6 02       		.sleb128 2
 2972 00d7 3B       		.uleb128 0x3b
 2973 00d8 0B       		.uleb128 0xb
 2974 00d9 39       		.uleb128 0x39
 2975 00da 0B       		.uleb128 0xb
 2976 00db 49       		.uleb128 0x49
 2977 00dc 13       		.uleb128 0x13
 2978 00dd 00       		.byte	0
 2979 00de 00       		.byte	0
 2980 00df 11       		.uleb128 0x11
 2981 00e0 35       		.uleb128 0x35
 2982 00e1 00       		.byte	0
 2983 00e2 49       		.uleb128 0x49
 2984 00e3 13       		.uleb128 0x13
 2985 00e4 00       		.byte	0
 2986 00e5 00       		.byte	0
 2987 00e6 12       		.uleb128 0x12
 2988 00e7 13       		.uleb128 0x13
GAS LISTING /tmp/ccLLfGOV.s 			page 56


 2989 00e8 01       		.byte	0x1
 2990 00e9 03       		.uleb128 0x3
 2991 00ea 0E       		.uleb128 0xe
 2992 00eb 0B       		.uleb128 0xb
 2993 00ec 0B       		.uleb128 0xb
 2994 00ed 3A       		.uleb128 0x3a
 2995 00ee 21       		.uleb128 0x21
 2996 00ef 09       		.sleb128 9
 2997 00f0 3B       		.uleb128 0x3b
 2998 00f1 05       		.uleb128 0x5
 2999 00f2 39       		.uleb128 0x39
 3000 00f3 0B       		.uleb128 0xb
 3001 00f4 01       		.uleb128 0x1
 3002 00f5 13       		.uleb128 0x13
 3003 00f6 00       		.byte	0
 3004 00f7 00       		.byte	0
 3005 00f8 13       		.uleb128 0x13
 3006 00f9 01       		.uleb128 0x1
 3007 00fa 01       		.byte	0x1
 3008 00fb 49       		.uleb128 0x49
 3009 00fc 13       		.uleb128 0x13
 3010 00fd 01       		.uleb128 0x1
 3011 00fe 13       		.uleb128 0x13
 3012 00ff 00       		.byte	0
 3013 0100 00       		.byte	0
 3014 0101 14       		.uleb128 0x14
 3015 0102 21       		.uleb128 0x21
 3016 0103 00       		.byte	0
 3017 0104 49       		.uleb128 0x49
 3018 0105 13       		.uleb128 0x13
 3019 0106 2F       		.uleb128 0x2f
 3020 0107 0B       		.uleb128 0xb
 3021 0108 00       		.byte	0
 3022 0109 00       		.byte	0
 3023 010a 15       		.uleb128 0x15
 3024 010b 15       		.uleb128 0x15
 3025 010c 01       		.byte	0x1
 3026 010d 27       		.uleb128 0x27
 3027 010e 19       		.uleb128 0x19
 3028 010f 01       		.uleb128 0x1
 3029 0110 13       		.uleb128 0x13
 3030 0111 00       		.byte	0
 3031 0112 00       		.byte	0
 3032 0113 16       		.uleb128 0x16
 3033 0114 0D       		.uleb128 0xd
 3034 0115 00       		.byte	0
 3035 0116 03       		.uleb128 0x3
 3036 0117 0E       		.uleb128 0xe
 3037 0118 3A       		.uleb128 0x3a
 3038 0119 21       		.uleb128 0x21
 3039 011a 09       		.sleb128 9
 3040 011b 3B       		.uleb128 0x3b
 3041 011c 0B       		.uleb128 0xb
 3042 011d 39       		.uleb128 0x39
 3043 011e 21       		.uleb128 0x21
 3044 011f 21       		.sleb128 33
 3045 0120 49       		.uleb128 0x49
GAS LISTING /tmp/ccLLfGOV.s 			page 57


 3046 0121 13       		.uleb128 0x13
 3047 0122 00       		.byte	0
 3048 0123 00       		.byte	0
 3049 0124 17       		.uleb128 0x17
 3050 0125 28       		.uleb128 0x28
 3051 0126 00       		.byte	0
 3052 0127 03       		.uleb128 0x3
 3053 0128 0E       		.uleb128 0xe
 3054 0129 1C       		.uleb128 0x1c
 3055 012a 0B       		.uleb128 0xb
 3056 012b 00       		.byte	0
 3057 012c 00       		.byte	0
 3058 012d 18       		.uleb128 0x18
 3059 012e 34       		.uleb128 0x34
 3060 012f 00       		.byte	0
 3061 0130 03       		.uleb128 0x3
 3062 0131 0E       		.uleb128 0xe
 3063 0132 3A       		.uleb128 0x3a
 3064 0133 21       		.uleb128 0x21
 3065 0134 01       		.sleb128 1
 3066 0135 3B       		.uleb128 0x3b
 3067 0136 0B       		.uleb128 0xb
 3068 0137 39       		.uleb128 0x39
 3069 0138 0B       		.uleb128 0xb
 3070 0139 49       		.uleb128 0x49
 3071 013a 13       		.uleb128 0x13
 3072 013b 00       		.byte	0
 3073 013c 00       		.byte	0
 3074 013d 19       		.uleb128 0x19
 3075 013e 0D       		.uleb128 0xd
 3076 013f 00       		.byte	0
 3077 0140 03       		.uleb128 0x3
 3078 0141 08       		.uleb128 0x8
 3079 0142 3A       		.uleb128 0x3a
 3080 0143 21       		.uleb128 0x21
 3081 0144 09       		.sleb128 9
 3082 0145 3B       		.uleb128 0x3b
 3083 0146 05       		.uleb128 0x5
 3084 0147 39       		.uleb128 0x39
 3085 0148 21       		.uleb128 0x21
 3086 0149 21       		.sleb128 33
 3087 014a 49       		.uleb128 0x49
 3088 014b 13       		.uleb128 0x13
 3089 014c 38       		.uleb128 0x38
 3090 014d 0B       		.uleb128 0xb
 3091 014e 00       		.byte	0
 3092 014f 00       		.byte	0
 3093 0150 1A       		.uleb128 0x1a
 3094 0151 13       		.uleb128 0x13
 3095 0152 01       		.byte	0x1
 3096 0153 0B       		.uleb128 0xb
 3097 0154 0B       		.uleb128 0xb
 3098 0155 3A       		.uleb128 0x3a
 3099 0156 0B       		.uleb128 0xb
 3100 0157 3B       		.uleb128 0x3b
 3101 0158 0B       		.uleb128 0xb
 3102 0159 39       		.uleb128 0x39
GAS LISTING /tmp/ccLLfGOV.s 			page 58


 3103 015a 21       		.uleb128 0x21
 3104 015b 09       		.sleb128 9
 3105 015c 01       		.uleb128 0x1
 3106 015d 13       		.uleb128 0x13
 3107 015e 00       		.byte	0
 3108 015f 00       		.byte	0
 3109 0160 1B       		.uleb128 0x1b
 3110 0161 16       		.uleb128 0x16
 3111 0162 00       		.byte	0
 3112 0163 03       		.uleb128 0x3
 3113 0164 0E       		.uleb128 0xe
 3114 0165 3A       		.uleb128 0x3a
 3115 0166 21       		.uleb128 0x21
 3116 0167 09       		.sleb128 9
 3117 0168 3B       		.uleb128 0x3b
 3118 0169 05       		.uleb128 0x5
 3119 016a 39       		.uleb128 0x39
 3120 016b 21       		.uleb128 0x21
 3121 016c 03       		.sleb128 3
 3122 016d 49       		.uleb128 0x49
 3123 016e 13       		.uleb128 0x13
 3124 016f 00       		.byte	0
 3125 0170 00       		.byte	0
 3126 0171 1C       		.uleb128 0x1c
 3127 0172 34       		.uleb128 0x34
 3128 0173 00       		.byte	0
 3129 0174 03       		.uleb128 0x3
 3130 0175 0E       		.uleb128 0xe
 3131 0176 3A       		.uleb128 0x3a
 3132 0177 21       		.uleb128 0x21
 3133 0178 01       		.sleb128 1
 3134 0179 3B       		.uleb128 0x3b
 3135 017a 0B       		.uleb128 0xb
 3136 017b 39       		.uleb128 0x39
 3137 017c 21       		.uleb128 0x21
 3138 017d 08       		.sleb128 8
 3139 017e 49       		.uleb128 0x49
 3140 017f 13       		.uleb128 0x13
 3141 0180 8801     		.uleb128 0x88
 3142 0182 21       		.uleb128 0x21
 3143 0183 10       		.sleb128 16
 3144 0184 02       		.uleb128 0x2
 3145 0185 18       		.uleb128 0x18
 3146 0186 00       		.byte	0
 3147 0187 00       		.byte	0
 3148 0188 1D       		.uleb128 0x1d
 3149 0189 2E       		.uleb128 0x2e
 3150 018a 01       		.byte	0x1
 3151 018b 3F       		.uleb128 0x3f
 3152 018c 19       		.uleb128 0x19
 3153 018d 03       		.uleb128 0x3
 3154 018e 0E       		.uleb128 0xe
 3155 018f 3A       		.uleb128 0x3a
 3156 0190 0B       		.uleb128 0xb
 3157 0191 3B       		.uleb128 0x3b
 3158 0192 0B       		.uleb128 0xb
 3159 0193 39       		.uleb128 0x39
GAS LISTING /tmp/ccLLfGOV.s 			page 59


 3160 0194 0B       		.uleb128 0xb
 3161 0195 27       		.uleb128 0x27
 3162 0196 19       		.uleb128 0x19
 3163 0197 49       		.uleb128 0x49
 3164 0198 13       		.uleb128 0x13
 3165 0199 3C       		.uleb128 0x3c
 3166 019a 19       		.uleb128 0x19
 3167 019b 01       		.uleb128 0x1
 3168 019c 13       		.uleb128 0x13
 3169 019d 00       		.byte	0
 3170 019e 00       		.byte	0
 3171 019f 1E       		.uleb128 0x1e
 3172 01a0 2E       		.uleb128 0x2e
 3173 01a1 01       		.byte	0x1
 3174 01a2 3F       		.uleb128 0x3f
 3175 01a3 19       		.uleb128 0x19
 3176 01a4 03       		.uleb128 0x3
 3177 01a5 0E       		.uleb128 0xe
 3178 01a6 3A       		.uleb128 0x3a
 3179 01a7 0B       		.uleb128 0xb
 3180 01a8 3B       		.uleb128 0x3b
 3181 01a9 05       		.uleb128 0x5
 3182 01aa 39       		.uleb128 0x39
 3183 01ab 0B       		.uleb128 0xb
 3184 01ac 27       		.uleb128 0x27
 3185 01ad 19       		.uleb128 0x19
 3186 01ae 49       		.uleb128 0x49
 3187 01af 13       		.uleb128 0x13
 3188 01b0 3C       		.uleb128 0x3c
 3189 01b1 19       		.uleb128 0x19
 3190 01b2 01       		.uleb128 0x1
 3191 01b3 13       		.uleb128 0x13
 3192 01b4 00       		.byte	0
 3193 01b5 00       		.byte	0
 3194 01b6 1F       		.uleb128 0x1f
 3195 01b7 2E       		.uleb128 0x2e
 3196 01b8 01       		.byte	0x1
 3197 01b9 03       		.uleb128 0x3
 3198 01ba 0E       		.uleb128 0xe
 3199 01bb 3A       		.uleb128 0x3a
 3200 01bc 21       		.uleb128 0x21
 3201 01bd 01       		.sleb128 1
 3202 01be 3B       		.uleb128 0x3b
 3203 01bf 0B       		.uleb128 0xb
 3204 01c0 39       		.uleb128 0x39
 3205 01c1 21       		.uleb128 0x21
 3206 01c2 08       		.sleb128 8
 3207 01c3 27       		.uleb128 0x27
 3208 01c4 19       		.uleb128 0x19
 3209 01c5 11       		.uleb128 0x11
 3210 01c6 01       		.uleb128 0x1
 3211 01c7 12       		.uleb128 0x12
 3212 01c8 06       		.uleb128 0x6
 3213 01c9 40       		.uleb128 0x40
 3214 01ca 18       		.uleb128 0x18
 3215 01cb 7A       		.uleb128 0x7a
 3216 01cc 19       		.uleb128 0x19
GAS LISTING /tmp/ccLLfGOV.s 			page 60


 3217 01cd 01       		.uleb128 0x1
 3218 01ce 13       		.uleb128 0x13
 3219 01cf 00       		.byte	0
 3220 01d0 00       		.byte	0
 3221 01d1 20       		.uleb128 0x20
 3222 01d2 05       		.uleb128 0x5
 3223 01d3 00       		.byte	0
 3224 01d4 03       		.uleb128 0x3
 3225 01d5 08       		.uleb128 0x8
 3226 01d6 3A       		.uleb128 0x3a
 3227 01d7 21       		.uleb128 0x21
 3228 01d8 01       		.sleb128 1
 3229 01d9 3B       		.uleb128 0x3b
 3230 01da 0B       		.uleb128 0xb
 3231 01db 39       		.uleb128 0x39
 3232 01dc 21       		.uleb128 0x21
 3233 01dd 08       		.sleb128 8
 3234 01de 49       		.uleb128 0x49
 3235 01df 13       		.uleb128 0x13
 3236 01e0 02       		.uleb128 0x2
 3237 01e1 18       		.uleb128 0x18
 3238 01e2 00       		.byte	0
 3239 01e3 00       		.byte	0
 3240 01e4 21       		.uleb128 0x21
 3241 01e5 34       		.uleb128 0x34
 3242 01e6 00       		.byte	0
 3243 01e7 03       		.uleb128 0x3
 3244 01e8 08       		.uleb128 0x8
 3245 01e9 3A       		.uleb128 0x3a
 3246 01ea 21       		.uleb128 0x21
 3247 01eb 01       		.sleb128 1
 3248 01ec 3B       		.uleb128 0x3b
 3249 01ed 0B       		.uleb128 0xb
 3250 01ee 39       		.uleb128 0x39
 3251 01ef 0B       		.uleb128 0xb
 3252 01f0 49       		.uleb128 0x49
 3253 01f1 13       		.uleb128 0x13
 3254 01f2 02       		.uleb128 0x2
 3255 01f3 17       		.uleb128 0x17
 3256 01f4 B742     		.uleb128 0x2137
 3257 01f6 17       		.uleb128 0x17
 3258 01f7 00       		.byte	0
 3259 01f8 00       		.byte	0
 3260 01f9 22       		.uleb128 0x22
 3261 01fa 2E       		.uleb128 0x2e
 3262 01fb 01       		.byte	0x1
 3263 01fc 03       		.uleb128 0x3
 3264 01fd 0E       		.uleb128 0xe
 3265 01fe 3A       		.uleb128 0x3a
 3266 01ff 21       		.uleb128 0x21
 3267 0200 02       		.sleb128 2
 3268 0201 3B       		.uleb128 0x3b
 3269 0202 0B       		.uleb128 0xb
 3270 0203 39       		.uleb128 0x39
 3271 0204 21       		.uleb128 0x21
 3272 0205 14       		.sleb128 20
 3273 0206 27       		.uleb128 0x27
GAS LISTING /tmp/ccLLfGOV.s 			page 61


 3274 0207 19       		.uleb128 0x19
 3275 0208 20       		.uleb128 0x20
 3276 0209 21       		.uleb128 0x21
 3277 020a 03       		.sleb128 3
 3278 020b 01       		.uleb128 0x1
 3279 020c 13       		.uleb128 0x13
 3280 020d 00       		.byte	0
 3281 020e 00       		.byte	0
 3282 020f 23       		.uleb128 0x23
 3283 0210 05       		.uleb128 0x5
 3284 0211 00       		.byte	0
 3285 0212 03       		.uleb128 0x3
 3286 0213 0E       		.uleb128 0xe
 3287 0214 3A       		.uleb128 0x3a
 3288 0215 21       		.uleb128 0x21
 3289 0216 02       		.sleb128 2
 3290 0217 3B       		.uleb128 0x3b
 3291 0218 0B       		.uleb128 0xb
 3292 0219 39       		.uleb128 0x39
 3293 021a 0B       		.uleb128 0xb
 3294 021b 49       		.uleb128 0x49
 3295 021c 13       		.uleb128 0x13
 3296 021d 00       		.byte	0
 3297 021e 00       		.byte	0
 3298 021f 24       		.uleb128 0x24
 3299 0220 11       		.uleb128 0x11
 3300 0221 01       		.byte	0x1
 3301 0222 25       		.uleb128 0x25
 3302 0223 0E       		.uleb128 0xe
 3303 0224 13       		.uleb128 0x13
 3304 0225 0B       		.uleb128 0xb
 3305 0226 03       		.uleb128 0x3
 3306 0227 1F       		.uleb128 0x1f
 3307 0228 1B       		.uleb128 0x1b
 3308 0229 1F       		.uleb128 0x1f
 3309 022a 55       		.uleb128 0x55
 3310 022b 17       		.uleb128 0x17
 3311 022c 11       		.uleb128 0x11
 3312 022d 01       		.uleb128 0x1
 3313 022e 10       		.uleb128 0x10
 3314 022f 17       		.uleb128 0x17
 3315 0230 00       		.byte	0
 3316 0231 00       		.byte	0
 3317 0232 25       		.uleb128 0x25
 3318 0233 24       		.uleb128 0x24
 3319 0234 00       		.byte	0
 3320 0235 0B       		.uleb128 0xb
 3321 0236 0B       		.uleb128 0xb
 3322 0237 3E       		.uleb128 0x3e
 3323 0238 0B       		.uleb128 0xb
 3324 0239 03       		.uleb128 0x3
 3325 023a 08       		.uleb128 0x8
 3326 023b 00       		.byte	0
 3327 023c 00       		.byte	0
 3328 023d 26       		.uleb128 0x26
 3329 023e 0F       		.uleb128 0xf
 3330 023f 00       		.byte	0
GAS LISTING /tmp/ccLLfGOV.s 			page 62


 3331 0240 0B       		.uleb128 0xb
 3332 0241 0B       		.uleb128 0xb
 3333 0242 00       		.byte	0
 3334 0243 00       		.byte	0
 3335 0244 27       		.uleb128 0x27
 3336 0245 16       		.uleb128 0x16
 3337 0246 00       		.byte	0
 3338 0247 03       		.uleb128 0x3
 3339 0248 0E       		.uleb128 0xe
 3340 0249 3A       		.uleb128 0x3a
 3341 024a 0B       		.uleb128 0xb
 3342 024b 3B       		.uleb128 0x3b
 3343 024c 0B       		.uleb128 0xb
 3344 024d 39       		.uleb128 0x39
 3345 024e 0B       		.uleb128 0xb
 3346 024f 49       		.uleb128 0x49
 3347 0250 13       		.uleb128 0x13
 3348 0251 8801     		.uleb128 0x88
 3349 0253 0B       		.uleb128 0xb
 3350 0254 00       		.byte	0
 3351 0255 00       		.byte	0
 3352 0256 28       		.uleb128 0x28
 3353 0257 17       		.uleb128 0x17
 3354 0258 01       		.byte	0x1
 3355 0259 0B       		.uleb128 0xb
 3356 025a 0B       		.uleb128 0xb
 3357 025b 3A       		.uleb128 0x3a
 3358 025c 0B       		.uleb128 0xb
 3359 025d 3B       		.uleb128 0x3b
 3360 025e 0B       		.uleb128 0xb
 3361 025f 39       		.uleb128 0x39
 3362 0260 0B       		.uleb128 0xb
 3363 0261 01       		.uleb128 0x1
 3364 0262 13       		.uleb128 0x13
 3365 0263 00       		.byte	0
 3366 0264 00       		.byte	0
 3367 0265 29       		.uleb128 0x29
 3368 0266 17       		.uleb128 0x17
 3369 0267 01       		.byte	0x1
 3370 0268 0B       		.uleb128 0xb
 3371 0269 0B       		.uleb128 0xb
 3372 026a 3A       		.uleb128 0x3a
 3373 026b 0B       		.uleb128 0xb
 3374 026c 3B       		.uleb128 0x3b
 3375 026d 05       		.uleb128 0x5
 3376 026e 39       		.uleb128 0x39
 3377 026f 0B       		.uleb128 0xb
 3378 0270 01       		.uleb128 0x1
 3379 0271 13       		.uleb128 0x13
 3380 0272 00       		.byte	0
 3381 0273 00       		.byte	0
 3382 0274 2A       		.uleb128 0x2a
 3383 0275 04       		.uleb128 0x4
 3384 0276 01       		.byte	0x1
 3385 0277 3E       		.uleb128 0x3e
 3386 0278 0B       		.uleb128 0xb
 3387 0279 0B       		.uleb128 0xb
GAS LISTING /tmp/ccLLfGOV.s 			page 63


 3388 027a 0B       		.uleb128 0xb
 3389 027b 49       		.uleb128 0x49
 3390 027c 13       		.uleb128 0x13
 3391 027d 3A       		.uleb128 0x3a
 3392 027e 0B       		.uleb128 0xb
 3393 027f 3B       		.uleb128 0x3b
 3394 0280 0B       		.uleb128 0xb
 3395 0281 39       		.uleb128 0x39
 3396 0282 0B       		.uleb128 0xb
 3397 0283 01       		.uleb128 0x1
 3398 0284 13       		.uleb128 0x13
 3399 0285 00       		.byte	0
 3400 0286 00       		.byte	0
 3401 0287 2B       		.uleb128 0x2b
 3402 0288 13       		.uleb128 0x13
 3403 0289 00       		.byte	0
 3404 028a 03       		.uleb128 0x3
 3405 028b 0E       		.uleb128 0xe
 3406 028c 0B       		.uleb128 0xb
 3407 028d 0B       		.uleb128 0xb
 3408 028e 3A       		.uleb128 0x3a
 3409 028f 0B       		.uleb128 0xb
 3410 0290 3B       		.uleb128 0x3b
 3411 0291 0B       		.uleb128 0xb
 3412 0292 39       		.uleb128 0x39
 3413 0293 0B       		.uleb128 0xb
 3414 0294 00       		.byte	0
 3415 0295 00       		.byte	0
 3416 0296 2C       		.uleb128 0x2c
 3417 0297 34       		.uleb128 0x34
 3418 0298 00       		.byte	0
 3419 0299 03       		.uleb128 0x3
 3420 029a 08       		.uleb128 0x8
 3421 029b 3A       		.uleb128 0x3a
 3422 029c 0B       		.uleb128 0xb
 3423 029d 3B       		.uleb128 0x3b
 3424 029e 0B       		.uleb128 0xb
 3425 029f 39       		.uleb128 0x39
 3426 02a0 0B       		.uleb128 0xb
 3427 02a1 49       		.uleb128 0x49
 3428 02a2 13       		.uleb128 0x13
 3429 02a3 3F       		.uleb128 0x3f
 3430 02a4 19       		.uleb128 0x19
 3431 02a5 3C       		.uleb128 0x3c
 3432 02a6 19       		.uleb128 0x19
 3433 02a7 00       		.byte	0
 3434 02a8 00       		.byte	0
 3435 02a9 2D       		.uleb128 0x2d
 3436 02aa 01       		.uleb128 0x1
 3437 02ab 01       		.byte	0x1
 3438 02ac 49       		.uleb128 0x49
 3439 02ad 13       		.uleb128 0x13
 3440 02ae 8801     		.uleb128 0x88
 3441 02b0 0B       		.uleb128 0xb
 3442 02b1 01       		.uleb128 0x1
 3443 02b2 13       		.uleb128 0x13
 3444 02b3 00       		.byte	0
GAS LISTING /tmp/ccLLfGOV.s 			page 64


 3445 02b4 00       		.byte	0
 3446 02b5 2E       		.uleb128 0x2e
 3447 02b6 21       		.uleb128 0x21
 3448 02b7 00       		.byte	0
 3449 02b8 49       		.uleb128 0x49
 3450 02b9 13       		.uleb128 0x13
 3451 02ba 2F       		.uleb128 0x2f
 3452 02bb 05       		.uleb128 0x5
 3453 02bc 00       		.byte	0
 3454 02bd 00       		.byte	0
 3455 02be 2F       		.uleb128 0x2f
 3456 02bf 2E       		.uleb128 0x2e
 3457 02c0 01       		.byte	0x1
 3458 02c1 3F       		.uleb128 0x3f
 3459 02c2 19       		.uleb128 0x19
 3460 02c3 03       		.uleb128 0x3
 3461 02c4 0E       		.uleb128 0xe
 3462 02c5 3A       		.uleb128 0x3a
 3463 02c6 0B       		.uleb128 0xb
 3464 02c7 3B       		.uleb128 0x3b
 3465 02c8 05       		.uleb128 0x5
 3466 02c9 39       		.uleb128 0x39
 3467 02ca 0B       		.uleb128 0xb
 3468 02cb 27       		.uleb128 0x27
 3469 02cc 19       		.uleb128 0x19
 3470 02cd 3C       		.uleb128 0x3c
 3471 02ce 19       		.uleb128 0x19
 3472 02cf 01       		.uleb128 0x1
 3473 02d0 13       		.uleb128 0x13
 3474 02d1 00       		.byte	0
 3475 02d2 00       		.byte	0
 3476 02d3 30       		.uleb128 0x30
 3477 02d4 18       		.uleb128 0x18
 3478 02d5 00       		.byte	0
 3479 02d6 00       		.byte	0
 3480 02d7 00       		.byte	0
 3481 02d8 31       		.uleb128 0x31
 3482 02d9 2E       		.uleb128 0x2e
 3483 02da 00       		.byte	0
 3484 02db 3F       		.uleb128 0x3f
 3485 02dc 19       		.uleb128 0x19
 3486 02dd 03       		.uleb128 0x3
 3487 02de 0E       		.uleb128 0xe
 3488 02df 3A       		.uleb128 0x3a
 3489 02e0 0B       		.uleb128 0xb
 3490 02e1 3B       		.uleb128 0x3b
 3491 02e2 05       		.uleb128 0x5
 3492 02e3 39       		.uleb128 0x39
 3493 02e4 0B       		.uleb128 0xb
 3494 02e5 27       		.uleb128 0x27
 3495 02e6 19       		.uleb128 0x19
 3496 02e7 3C       		.uleb128 0x3c
 3497 02e8 19       		.uleb128 0x19
 3498 02e9 00       		.byte	0
 3499 02ea 00       		.byte	0
 3500 02eb 32       		.uleb128 0x32
 3501 02ec 2E       		.uleb128 0x2e
GAS LISTING /tmp/ccLLfGOV.s 			page 65


 3502 02ed 00       		.byte	0
 3503 02ee 3F       		.uleb128 0x3f
 3504 02ef 19       		.uleb128 0x19
 3505 02f0 03       		.uleb128 0x3
 3506 02f1 0E       		.uleb128 0xe
 3507 02f2 3A       		.uleb128 0x3a
 3508 02f3 0B       		.uleb128 0xb
 3509 02f4 3B       		.uleb128 0x3b
 3510 02f5 0B       		.uleb128 0xb
 3511 02f6 39       		.uleb128 0x39
 3512 02f7 0B       		.uleb128 0xb
 3513 02f8 27       		.uleb128 0x27
 3514 02f9 19       		.uleb128 0x19
 3515 02fa 3C       		.uleb128 0x3c
 3516 02fb 19       		.uleb128 0x19
 3517 02fc 00       		.byte	0
 3518 02fd 00       		.byte	0
 3519 02fe 33       		.uleb128 0x33
 3520 02ff 2E       		.uleb128 0x2e
 3521 0300 01       		.byte	0x1
 3522 0301 3F       		.uleb128 0x3f
 3523 0302 19       		.uleb128 0x19
 3524 0303 03       		.uleb128 0x3
 3525 0304 0E       		.uleb128 0xe
 3526 0305 3A       		.uleb128 0x3a
 3527 0306 0B       		.uleb128 0xb
 3528 0307 3B       		.uleb128 0x3b
 3529 0308 0B       		.uleb128 0xb
 3530 0309 39       		.uleb128 0x39
 3531 030a 0B       		.uleb128 0xb
 3532 030b 27       		.uleb128 0x27
 3533 030c 19       		.uleb128 0x19
 3534 030d 49       		.uleb128 0x49
 3535 030e 13       		.uleb128 0x13
 3536 030f 11       		.uleb128 0x11
 3537 0310 01       		.uleb128 0x1
 3538 0311 12       		.uleb128 0x12
 3539 0312 06       		.uleb128 0x6
 3540 0313 40       		.uleb128 0x40
 3541 0314 18       		.uleb128 0x18
 3542 0315 7A       		.uleb128 0x7a
 3543 0316 19       		.uleb128 0x19
 3544 0317 01       		.uleb128 0x1
 3545 0318 13       		.uleb128 0x13
 3546 0319 00       		.byte	0
 3547 031a 00       		.byte	0
 3548 031b 34       		.uleb128 0x34
 3549 031c 34       		.uleb128 0x34
 3550 031d 00       		.byte	0
 3551 031e 03       		.uleb128 0x3
 3552 031f 08       		.uleb128 0x8
 3553 0320 3A       		.uleb128 0x3a
 3554 0321 0B       		.uleb128 0xb
 3555 0322 3B       		.uleb128 0x3b
 3556 0323 0B       		.uleb128 0xb
 3557 0324 39       		.uleb128 0x39
 3558 0325 0B       		.uleb128 0xb
GAS LISTING /tmp/ccLLfGOV.s 			page 66


 3559 0326 49       		.uleb128 0x49
 3560 0327 13       		.uleb128 0x13
 3561 0328 02       		.uleb128 0x2
 3562 0329 18       		.uleb128 0x18
 3563 032a 00       		.byte	0
 3564 032b 00       		.byte	0
 3565 032c 35       		.uleb128 0x35
 3566 032d 0B       		.uleb128 0xb
 3567 032e 01       		.byte	0x1
 3568 032f 55       		.uleb128 0x55
 3569 0330 17       		.uleb128 0x17
 3570 0331 01       		.uleb128 0x1
 3571 0332 13       		.uleb128 0x13
 3572 0333 00       		.byte	0
 3573 0334 00       		.byte	0
 3574 0335 36       		.uleb128 0x36
 3575 0336 1D       		.uleb128 0x1d
 3576 0337 01       		.byte	0x1
 3577 0338 31       		.uleb128 0x31
 3578 0339 13       		.uleb128 0x13
 3579 033a 52       		.uleb128 0x52
 3580 033b 01       		.uleb128 0x1
 3581 033c B842     		.uleb128 0x2138
 3582 033e 0B       		.uleb128 0xb
 3583 033f 55       		.uleb128 0x55
 3584 0340 17       		.uleb128 0x17
 3585 0341 58       		.uleb128 0x58
 3586 0342 0B       		.uleb128 0xb
 3587 0343 59       		.uleb128 0x59
 3588 0344 0B       		.uleb128 0xb
 3589 0345 57       		.uleb128 0x57
 3590 0346 0B       		.uleb128 0xb
 3591 0347 01       		.uleb128 0x1
 3592 0348 13       		.uleb128 0x13
 3593 0349 00       		.byte	0
 3594 034a 00       		.byte	0
 3595 034b 37       		.uleb128 0x37
 3596 034c 1D       		.uleb128 0x1d
 3597 034d 01       		.byte	0x1
 3598 034e 31       		.uleb128 0x31
 3599 034f 13       		.uleb128 0x13
 3600 0350 52       		.uleb128 0x52
 3601 0351 01       		.uleb128 0x1
 3602 0352 B842     		.uleb128 0x2138
 3603 0354 0B       		.uleb128 0xb
 3604 0355 55       		.uleb128 0x55
 3605 0356 17       		.uleb128 0x17
 3606 0357 58       		.uleb128 0x58
 3607 0358 0B       		.uleb128 0xb
 3608 0359 59       		.uleb128 0x59
 3609 035a 0B       		.uleb128 0xb
 3610 035b 57       		.uleb128 0x57
 3611 035c 0B       		.uleb128 0xb
 3612 035d 00       		.byte	0
 3613 035e 00       		.byte	0
 3614 035f 38       		.uleb128 0x38
 3615 0360 0B       		.uleb128 0xb
GAS LISTING /tmp/ccLLfGOV.s 			page 67


 3616 0361 01       		.byte	0x1
 3617 0362 55       		.uleb128 0x55
 3618 0363 17       		.uleb128 0x17
 3619 0364 00       		.byte	0
 3620 0365 00       		.byte	0
 3621 0366 39       		.uleb128 0x39
 3622 0367 1D       		.uleb128 0x1d
 3623 0368 01       		.byte	0x1
 3624 0369 31       		.uleb128 0x31
 3625 036a 13       		.uleb128 0x13
 3626 036b 52       		.uleb128 0x52
 3627 036c 01       		.uleb128 0x1
 3628 036d B842     		.uleb128 0x2138
 3629 036f 0B       		.uleb128 0xb
 3630 0370 11       		.uleb128 0x11
 3631 0371 01       		.uleb128 0x1
 3632 0372 12       		.uleb128 0x12
 3633 0373 06       		.uleb128 0x6
 3634 0374 58       		.uleb128 0x58
 3635 0375 0B       		.uleb128 0xb
 3636 0376 59       		.uleb128 0x59
 3637 0377 0B       		.uleb128 0xb
 3638 0378 57       		.uleb128 0x57
 3639 0379 0B       		.uleb128 0xb
 3640 037a 01       		.uleb128 0x1
 3641 037b 13       		.uleb128 0x13
 3642 037c 00       		.byte	0
 3643 037d 00       		.byte	0
 3644 037e 3A       		.uleb128 0x3a
 3645 037f 2E       		.uleb128 0x2e
 3646 0380 01       		.byte	0x1
 3647 0381 03       		.uleb128 0x3
 3648 0382 0E       		.uleb128 0xe
 3649 0383 3A       		.uleb128 0x3a
 3650 0384 0B       		.uleb128 0xb
 3651 0385 3B       		.uleb128 0x3b
 3652 0386 0B       		.uleb128 0xb
 3653 0387 39       		.uleb128 0x39
 3654 0388 0B       		.uleb128 0xb
 3655 0389 27       		.uleb128 0x27
 3656 038a 19       		.uleb128 0x19
 3657 038b 20       		.uleb128 0x20
 3658 038c 0B       		.uleb128 0xb
 3659 038d 00       		.byte	0
 3660 038e 00       		.byte	0
 3661 038f 00       		.byte	0
 3662              		.section	.debug_loclists,"",@progbits
 3663 0000 C4000000 		.long	.Ldebug_loc3-.Ldebug_loc2
 3664              	.Ldebug_loc2:
 3665 0004 0500     		.value	0x5
 3666 0006 04       		.byte	0x4
 3667 0007 00       		.byte	0
 3668 0008 00000000 		.long	0
 3669              	.Ldebug_loc0:
 3670              	.LVUS9:
 3671 000c 01       		.uleb128 .LVU24
 3672 000d 00       		.uleb128 .LVU32
GAS LISTING /tmp/ccLLfGOV.s 			page 68


 3673              	.LLST9:
 3674 000e 08       		.byte	0x8
 3675 000f 87000000 		.long	.LVL8
 3676 0013 20       		.uleb128 .LVL9-.LVL8
 3677 0014 03       		.uleb128 0x3
 3678 0015 91       		.byte	0x91
 3679 0016 B07F     		.sleb128 -80
 3680 0018 00       		.byte	0
 3681              	.LVUS1:
 3682 0019 03       		.uleb128 .LVU6
 3683 001a 00       		.uleb128 .LVU16
 3684              	.LLST1:
 3685 001b 08       		.byte	0x8
 3686 001c 1E000000 		.long	.LVL1
 3687 0020 44       		.uleb128 .LVL5-.LVL1
 3688 0021 02       		.uleb128 0x2
 3689 0022 30       		.byte	0x30
 3690 0023 9F       		.byte	0x9f
 3691 0024 00       		.byte	0
 3692              	.LVUS2:
 3693 0025 03       		.uleb128 .LVU6
 3694 0026 00       		.uleb128 .LVU10
 3695 0027 00       		.uleb128 .LVU10
 3696 0028 00       		.uleb128 .LVU13
 3697 0029 00       		.uleb128 .LVU13
 3698 002a 00       		.uleb128 .LVU14
 3699 002b 00       		.uleb128 .LVU14
 3700 002c 00       		.uleb128 .LVU16
 3701              	.LLST2:
 3702 002d 06       		.byte	0x6
 3703 002e 1E000000 		.long	.LVL1
 3704 0032 04       		.byte	0x4
 3705 0033 00       		.uleb128 .LVL1-.LVL1
 3706 0034 14       		.uleb128 .LVL2-.LVL1
 3707 0035 03       		.uleb128 0x3
 3708 0036 91       		.byte	0x91
 3709 0037 48       		.sleb128 -56
 3710 0038 9F       		.byte	0x9f
 3711 0039 04       		.byte	0x4
 3712 003a 14       		.uleb128 .LVL2-.LVL1
 3713 003b 1D       		.uleb128 .LVL3-.LVL1
 3714 003c 01       		.uleb128 0x1
 3715 003d 50       		.byte	0x50
 3716 003e 04       		.byte	0x4
 3717 003f 1D       		.uleb128 .LVL3-.LVL1
 3718 0040 22       		.uleb128 .LVL4-1-.LVL1
 3719 0041 03       		.uleb128 0x3
 3720 0042 91       		.byte	0x91
 3721 0043 A47F     		.sleb128 -92
 3722 0045 04       		.byte	0x4
 3723 0046 22       		.uleb128 .LVL4-1-.LVL1
 3724 0047 44       		.uleb128 .LVL5-.LVL1
 3725 0048 03       		.uleb128 0x3
 3726 0049 91       		.byte	0x91
 3727 004a 48       		.sleb128 -56
 3728 004b 9F       		.byte	0x9f
 3729 004c 00       		.byte	0
GAS LISTING /tmp/ccLLfGOV.s 			page 69


 3730              	.LVUS3:
 3731 004d 03       		.uleb128 .LVU6
 3732 004e 00       		.uleb128 .LVU16
 3733              	.LLST3:
 3734 004f 08       		.byte	0x8
 3735 0050 1E000000 		.long	.LVL1
 3736 0054 44       		.uleb128 .LVL5-.LVL1
 3737 0055 06       		.uleb128 0x6
 3738 0056 03       		.byte	0x3
 3739 0057 00000000 		.long	buffer_event
 3740 005b 9F       		.byte	0x9f
 3741 005c 00       		.byte	0
 3742              	.LVUS5:
 3743 005d 05       		.uleb128 .LVU8
 3744 005e 00       		.uleb128 .LVU14
 3745              	.LLST5:
 3746 005f 08       		.byte	0x8
 3747 0060 1E000000 		.long	.LVL1
 3748 0064 23       		.uleb128 .LVL4-.LVL1
 3749 0065 02       		.uleb128 0x2
 3750 0066 31       		.byte	0x31
 3751 0067 9F       		.byte	0x9f
 3752 0068 00       		.byte	0
 3753              	.LVUS6:
 3754 0069 05       		.uleb128 .LVU8
 3755 006a 00       		.uleb128 .LVU10
 3756 006b 00       		.uleb128 .LVU10
 3757 006c 00       		.uleb128 .LVU13
 3758 006d 00       		.uleb128 .LVU13
 3759 006e 00       		.uleb128 .LVU14
 3760 006f 00       		.uleb128 .LVU14
 3761 0070 00       		.uleb128 .LVU14
 3762              	.LLST6:
 3763 0071 06       		.byte	0x6
 3764 0072 1E000000 		.long	.LVL1
 3765 0076 04       		.byte	0x4
 3766 0077 00       		.uleb128 .LVL1-.LVL1
 3767 0078 14       		.uleb128 .LVL2-.LVL1
 3768 0079 03       		.uleb128 0x3
 3769 007a 91       		.byte	0x91
 3770 007b 48       		.sleb128 -56
 3771 007c 9F       		.byte	0x9f
 3772 007d 04       		.byte	0x4
 3773 007e 14       		.uleb128 .LVL2-.LVL1
 3774 007f 1D       		.uleb128 .LVL3-.LVL1
 3775 0080 01       		.uleb128 0x1
 3776 0081 50       		.byte	0x50
 3777 0082 04       		.byte	0x4
 3778 0083 1D       		.uleb128 .LVL3-.LVL1
 3779 0084 22       		.uleb128 .LVL4-1-.LVL1
 3780 0085 03       		.uleb128 0x3
 3781 0086 91       		.byte	0x91
 3782 0087 A47F     		.sleb128 -92
 3783 0089 04       		.byte	0x4
 3784 008a 22       		.uleb128 .LVL4-1-.LVL1
 3785 008b 23       		.uleb128 .LVL4-.LVL1
 3786 008c 03       		.uleb128 0x3
GAS LISTING /tmp/ccLLfGOV.s 			page 70


 3787 008d 91       		.byte	0x91
 3788 008e 48       		.sleb128 -56
 3789 008f 9F       		.byte	0x9f
 3790 0090 00       		.byte	0
 3791              	.LVUS7:
 3792 0091 05       		.uleb128 .LVU8
 3793 0092 00       		.uleb128 .LVU14
 3794              	.LLST7:
 3795 0093 08       		.byte	0x8
 3796 0094 1E000000 		.long	.LVL1
 3797 0098 23       		.uleb128 .LVL4-.LVL1
 3798 0099 06       		.uleb128 0x6
 3799 009a 03       		.byte	0x3
 3800 009b 00000000 		.long	buffer_event
 3801 009f 9F       		.byte	0x9f
 3802 00a0 00       		.byte	0
 3803              	.LVUS11:
 3804 00a1 00       		.uleb128 .LVU46
 3805 00a2 00       		.uleb128 .LVU70
 3806 00a3 00       		.uleb128 .LVU77
 3807 00a4 00       		.uleb128 0
 3808              	.LLST11:
 3809 00a5 06       		.byte	0x6
 3810 00a6 59000000 		.long	.LVL16
 3811 00aa 04       		.byte	0x4
 3812 00ab 00       		.uleb128 .LVL16-.LVL16
 3813 00ac 8501     		.uleb128 .LVL23-.LVL16
 3814 00ae 01       		.uleb128 0x1
 3815 00af 56       		.byte	0x56
 3816 00b0 04       		.byte	0x4
 3817 00b1 9801     		.uleb128 .LVL24-.LVL16
 3818 00b3 8402     		.uleb128 .LFE299-.LVL16
 3819 00b5 01       		.uleb128 0x1
 3820 00b6 56       		.byte	0x56
 3821 00b7 00       		.byte	0
 3822              	.LVUS12:
 3823 00b8 01       		.uleb128 .LVU63
 3824 00b9 00       		.uleb128 .LVU65
 3825              	.LLST12:
 3826 00ba 08       		.byte	0x8
 3827 00bb BA000000 		.long	.LVL19
 3828 00bf 0D       		.uleb128 .LVL20-.LVL19
 3829 00c0 06       		.uleb128 0x6
 3830 00c1 03       		.byte	0x3
 3831 00c2 00000000 		.long	buffer_event
 3832 00c6 9F       		.byte	0x9f
 3833 00c7 00       		.byte	0
 3834              	.Ldebug_loc3:
 3835              		.section	.debug_aranges,"",@progbits
 3836 0000 2C000000 		.long	0x2c
 3837 0004 0200     		.value	0x2
 3838 0006 00000000 		.long	.Ldebug_info0
 3839 000a 04       		.byte	0x4
 3840 000b 00       		.byte	0
 3841 000c 0000     		.value	0
 3842 000e 0000     		.value	0
 3843 0010 00000000 		.long	.LFB300
GAS LISTING /tmp/ccLLfGOV.s 			page 71


 3844 0014 04010000 		.long	.LFE300-.LFB300
 3845 0018 00000000 		.long	.LFB299
 3846 001c 5D010000 		.long	.LFE299-.LFB299
 3847 0020 00000000 		.long	.LFB301
 3848 0024 22010000 		.long	.LFE301-.LFB301
 3849 0028 00000000 		.long	0
 3850 002c 00000000 		.long	0
 3851              		.section	.debug_rnglists,"",@progbits
 3852              	.Ldebug_ranges0:
 3853 0000 50000000 		.long	.Ldebug_ranges3-.Ldebug_ranges2
 3854              	.Ldebug_ranges2:
 3855 0004 0500     		.value	0x5
 3856 0006 04       		.byte	0x4
 3857 0007 00       		.byte	0
 3858 0008 00000000 		.long	0
 3859              	.LLRL0:
 3860 000c 05       		.byte	0x5
 3861 000d 1E000000 		.long	.LBB12
 3862 0011 04       		.byte	0x4
 3863 0012 00       		.uleb128 .LBB12-.LBB12
 3864 0013 14       		.uleb128 .LBE12-.LBB12
 3865 0014 04       		.byte	0x4
 3866 0015 16       		.uleb128 .LBB20-.LBB12
 3867 0016 4A       		.uleb128 .LBE20-.LBB12
 3868 0017 00       		.byte	0
 3869              	.LLRL4:
 3870 0018 05       		.byte	0x5
 3871 0019 1E000000 		.long	.LBB14
 3872 001d 04       		.byte	0x4
 3873 001e 00       		.uleb128 .LBB14-.LBB14
 3874 001f 14       		.uleb128 .LBE14-.LBB14
 3875 0020 04       		.byte	0x4
 3876 0021 16       		.uleb128 .LBB17-.LBB14
 3877 0022 23       		.uleb128 .LBE17-.LBB14
 3878 0023 00       		.byte	0
 3879              	.LLRL8:
 3880 0024 05       		.byte	0x5
 3881 0025 32000000 		.long	.LBB19
 3882 0029 04       		.byte	0x4
 3883 002a 00       		.uleb128 .LBB19-.LBB19
 3884 002b 02       		.uleb128 .LBE19-.LBB19
 3885 002c 04       		.byte	0x4
 3886 002d 55       		.uleb128 .LBB21-.LBB19
 3887 002e B501     		.uleb128 .LBE21-.LBB19
 3888 0030 00       		.byte	0
 3889              	.LLRL10:
 3890 0031 05       		.byte	0x5
 3891 0032 60000000 		.long	.LBB22
 3892 0036 04       		.byte	0x4
 3893 0037 00       		.uleb128 .LBB22-.LBB22
 3894 0038 7B       		.uleb128 .LBE22-.LBB22
 3895 0039 04       		.byte	0x4
 3896 003a 7E       		.uleb128 .LBB25-.LBB22
 3897 003b FD01     		.uleb128 .LBE25-.LBB22
 3898 003d 00       		.byte	0
 3899              	.LLRL13:
 3900 003e 07       		.byte	0x7
GAS LISTING /tmp/ccLLfGOV.s 			page 72


 3901 003f 00000000 		.long	.LFB300
 3902 0043 8402     		.uleb128 .LFE300-.LFB300
 3903 0045 07       		.byte	0x7
 3904 0046 00000000 		.long	.LFB299
 3905 004a DD02     		.uleb128 .LFE299-.LFB299
 3906 004c 07       		.byte	0x7
 3907 004d 00000000 		.long	.LFB301
 3908 0051 A202     		.uleb128 .LFE301-.LFB301
 3909 0053 00       		.byte	0
 3910              	.Ldebug_ranges3:
 3911              		.section	.debug_line,"",@progbits
 3912              	.Ldebug_line0:
 3913 0000 45020000 		.section	.debug_str,"MS",@progbits,1
 3913      05000400 
 3913      BD000000 
 3913      010101FB 
 3913      0E0D0001 
 3914              	.LASF119:
 3915 0000 7466756E 		.string	"tfunc_t"
 3915      635F7400 
 3916              	.LASF179:
 3917 0008 63685468 		.string	"chThdSleep"
 3917      64536C65 
 3917      657000
 3918              	.LASF146:
 3919 0013 53445F55 		.string	"SD_UNINIT"
 3919      4E494E49 
 3919      5400
 3920              	.LASF112:
 3921 001d 72656164 		.string	"ready_list_t"
 3921      795F6C69 
 3921      73745F74 
 3921      00
 3922              	.LASF56:
 3923 002a 72666375 		.string	"rfcu"
 3923      00
 3924              	.LASF11:
 3925 002f 73697A65 		.string	"size_t"
 3925      5F7400
 3926              	.LASF81:
 3927 0036 64656C74 		.string	"delta"
 3927      6100
 3928              	.LASF100:
 3929 003c 7264796D 		.string	"rdymsg"
 3929      736700
 3930              	.LASF104:
 3931 0043 73656E74 		.string	"sentmsg"
 3931      6D736700 
 3932              	.LASF22:
 3933 004b 75696E74 		.string	"uint64_t"
 3933      36345F74 
 3933      00
 3934              	.LASF12:
 3935 0054 5F5F7569 		.string	"__uint8_t"
 3935      6E74385F 
 3935      7400
 3936              	.LASF193:
GAS LISTING /tmp/ccLLfGOV.s 			page 73


 3937 005e 63684576 		.string	"chEvtRegister"
 3937      74526567 
 3937      69737465 
 3937      7200
 3938              	.LASF75:
 3939 006c 70726576 		.string	"prev"
 3939      00
 3940              	.LASF83:
 3941 0071 706F7274 		.string	"port_intctx"
 3941      5F696E74 
 3941      63747800 
 3942              	.LASF95:
 3943 007d 63685F74 		.string	"ch_threads_queue"
 3943      68726561 
 3943      64735F71 
 3943      75657565 
 3943      00
 3944              	.LASF66:
 3945 008e 73797374 		.string	"system_debug_t"
 3945      656D5F64 
 3945      65627567 
 3945      5F7400
 3946              	.LASF55:
 3947 009d 636F7265 		.string	"core_id"
 3947      5F696400 
 3948              	.LASF3:
 3949 00a5 6C6F6E67 		.string	"long int"
 3949      20696E74 
 3949      00
 3950              	.LASF76:
 3951 00ae 63685F70 		.string	"ch_priority_queue_t"
 3951      72696F72 
 3951      6974795F 
 3951      71756575 
 3951      655F7400 
 3952              	.LASF191:
 3953 00c2 50726F64 		.string	"Producer"
 3953      75636572 
 3953      00
 3954              	.LASF6:
 3955 00cb 5F466C6F 		.string	"_Float128"
 3955      61743132 
 3955      3800
 3956              	.LASF17:
 3957 00d5 6C6F6E67 		.string	"long long unsigned int"
 3957      206C6F6E 
 3957      6720756E 
 3957      7369676E 
 3957      65642069 
 3958              	.LASF42:
 3959 00ec 64697370 		.string	"dispose"
 3959      6F736500 
 3960              	.LASF101:
 3961 00f4 65786974 		.string	"exitcode"
 3961      636F6465 
 3961      00
 3962              	.LASF59:
GAS LISTING /tmp/ccLLfGOV.s 			page 74


 3963 00fd 6D61696E 		.string	"mainthread"
 3963      74687265 
 3963      616400
 3964              	.LASF90:
 3965 0108 76697274 		.string	"virtual_timers_list_t"
 3965      75616C5F 
 3965      74696D65 
 3965      72735F6C 
 3965      6973745F 
 3966              	.LASF133:
 3967 011e 696F5F71 		.string	"io_queue_t"
 3967      75657565 
 3967      5F7400
 3968              	.LASF72:
 3969 0129 6E657874 		.string	"next"
 3969      00
 3970              	.LASF43:
 3971 012e 6F626A65 		.string	"object"
 3971      637400
 3972              	.LASF163:
 3973 0135 72656164 		.string	"readt"
 3973      7400
 3974              	.LASF39:
 3975 013b 72656673 		.string	"refs"
 3975      00
 3976              	.LASF135:
 3977 0140 715F7761 		.string	"q_waiting"
 3977      6974696E 
 3977      6700
 3978              	.LASF115:
 3979 014a 63737461 		.string	"cstack_end"
 3979      636B5F65 
 3979      6E6400
 3980              	.LASF180:
 3981 0155 63684D74 		.string	"chMtxUnlock"
 3981      78556E6C 
 3981      6F636B00 
 3982              	.LASF10:
 3983 0161 7369676E 		.string	"signed char"
 3983      65642063 
 3983      68617200 
 3984              	.LASF196:
 3985 016d 68616C5F 		.string	"hal_serial_config"
 3985      73657269 
 3985      616C5F63 
 3985      6F6E6669 
 3985      6700
 3986              	.LASF188:
 3987 017f 63685379 		.string	"chSysInit"
 3987      73496E69 
 3987      7400
 3988              	.LASF80:
 3989 0189 63685F64 		.string	"ch_delta_list"
 3989      656C7461 
 3989      5F6C6973 
 3989      7400
 3990              	.LASF53:
GAS LISTING /tmp/ccLLfGOV.s 			page 75


 3991 0197 76746C69 		.string	"vtlist"
 3991      737400
 3992              	.LASF45:
 3993 019e 6D736771 		.string	"msgqueue"
 3993      75657565 
 3993      00
 3994              	.LASF37:
 3995 01a7 73746174 		.string	"state"
 3995      6500
 3996              	.LASF195:
 3997 01ad 73746B6C 		.string	"stkline_t"
 3997      696E655F 
 3997      7400
 3998              	.LASF161:
 3999 01b7 67657474 		.string	"gett"
 3999      00
 4000              	.LASF151:
 4001 01bc 68616C5F 		.string	"hal_serial_driver"
 4001      73657269 
 4001      616C5F64 
 4001      72697665 
 4001      7200
 4002              	.LASF61:
 4003 01ce 63685F72 		.string	"ch_rfcu"
 4003      66637500 
 4004              	.LASF181:
 4005 01d6 63684576 		.string	"chEvtWaitAny"
 4005      74576169 
 4005      74416E79 
 4005      00
 4006              	.LASF186:
 4007 01e3 63684D74 		.string	"chMtxObjectInit"
 4007      784F626A 
 4007      65637449 
 4007      6E697400 
 4008              	.LASF74:
 4009 01f3 63685F71 		.string	"ch_queue"
 4009      75657565 
 4009      00
 4010              	.LASF4:
 4011 01fc 6C6F6E67 		.string	"long long int"
 4011      206C6F6E 
 4011      6720696E 
 4011      7400
 4012              	.LASF137:
 4013 020a 715F6275 		.string	"q_buffer"
 4013      66666572 
 4013      00
 4014              	.LASF139:
 4015 0213 715F7772 		.string	"q_wrptr"
 4015      70747200 
 4016              	.LASF142:
 4017 021b 715F6C69 		.string	"q_link"
 4017      6E6B00
 4018              	.LASF79:
 4019 0222 63685F64 		.string	"ch_delta_list_t"
 4019      656C7461 
GAS LISTING /tmp/ccLLfGOV.s 			page 76


 4019      5F6C6973 
 4019      745F7400 
 4020              	.LASF189:
 4021 0232 68616C49 		.string	"halInit"
 4021      6E697400 
 4022              	.LASF91:
 4023 023a 63685F72 		.string	"ch_registry"
 4023      65676973 
 4023      74727900 
 4024              	.LASF125:
 4025 0246 77666C61 		.string	"wflags"
 4025      677300
 4026              	.LASF15:
 4027 024d 5F5F7569 		.string	"__uint32_t"
 4027      6E743332 
 4027      5F7400
 4028              	.LASF24:
 4029 0258 74737461 		.string	"tstate_t"
 4029      74655F74 
 4029      00
 4030              	.LASF177:
 4031 0261 63684576 		.string	"chEvtBroadcastFlags"
 4031      7442726F 
 4031      61646361 
 4031      7374466C 
 4031      61677300 
 4032              	.LASF44:
 4033 0275 77616974 		.string	"waiting"
 4033      696E6700 
 4034              	.LASF28:
 4035 027d 6576656E 		.string	"eventid_t"
 4035      7469645F 
 4035      7400
 4036              	.LASF116:
 4037 0287 69646C65 		.string	"idlestack_base"
 4037      73746163 
 4037      6B5F6261 
 4037      736500
 4038              	.LASF120:
 4039 0296 6D757465 		.string	"mutex_t"
 4039      785F7400 
 4040              	.LASF132:
 4041 029e 42617365 		.string	"BaseSequentialStream"
 4041      53657175 
 4041      656E7469 
 4041      616C5374 
 4041      7265616D 
 4042              	.LASF127:
 4043 02b3 6576656E 		.string	"event_source_t"
 4043      745F736F 
 4043      75726365 
 4043      5F7400
 4044              	.LASF68:
 4045 02c2 73797369 		.string	"sysinterval_t"
 4045      6E746572 
 4045      76616C5F 
 4045      7400
GAS LISTING /tmp/ccLLfGOV.s 			page 77


 4046              	.LASF31:
 4047 02d0 636E745F 		.string	"cnt_t"
 4047      7400
 4048              	.LASF2:
 4049 02d6 756E7369 		.string	"unsigned int"
 4049      676E6564 
 4049      20696E74 
 4049      00
 4050              	.LASF167:
 4051 02e3 62756666 		.string	"buffer_count"
 4051      65725F63 
 4051      6F756E74 
 4051      00
 4052              	.LASF159:
 4053 02f0 53657269 		.string	"SerialDriverVMT"
 4053      616C4472 
 4053      69766572 
 4053      564D5400 
 4054              	.LASF105:
 4055 0300 77747365 		.string	"wtsemp"
 4055      6D7000
 4056              	.LASF153:
 4057 0307 69717565 		.string	"iqueue"
 4057      756500
 4058              	.LASF103:
 4059 030e 77747472 		.string	"wttrp"
 4059      7000
 4060              	.LASF41:
 4061 0314 72717565 		.string	"rqueue"
 4061      756500
 4062              	.LASF73:
 4063 031b 63685F71 		.string	"ch_queue_t"
 4063      75657565 
 4063      5F7400
 4064              	.LASF69:
 4065 0326 74696D65 		.string	"time_conv_t"
 4065      5F636F6E 
 4065      765F7400 
 4066              	.LASF190:
 4067 0332 436F6E73 		.string	"Consumer"
 4067      756D6572 
 4067      00
 4068              	.LASF40:
 4069 033b 6E616D65 		.string	"name"
 4069      00
 4070              	.LASF97:
 4071 0340 74687265 		.string	"thread_dispose_t"
 4071      61645F64 
 4071      6973706F 
 4071      73655F74 
 4071      00
 4072              	.LASF92:
 4073 0351 71756575 		.string	"queue"
 4073      6500
 4074              	.LASF152:
 4075 0357 6576656E 		.string	"event"
 4075      7400
GAS LISTING /tmp/ccLLfGOV.s 			page 78


 4076              	.LASF185:
 4077 035d 63684576 		.string	"chEvtObjectInit"
 4077      744F626A 
 4077      65637449 
 4077      6E697400 
 4078              	.LASF8:
 4079 036d 73686F72 		.string	"short unsigned int"
 4079      7420756E 
 4079      7369676E 
 4079      65642069 
 4079      6E7400
 4080              	.LASF70:
 4081 0380 63685F6C 		.string	"ch_list_t"
 4081      6973745F 
 4081      7400
 4082              	.LASF50:
 4083 038a 63685F74 		.string	"ch_thread"
 4083      68726561 
 4083      6400
 4084              	.LASF27:
 4085 0394 6D73675F 		.string	"msg_t"
 4085      7400
 4086              	.LASF46:
 4087 039a 6570656E 		.string	"epending"
 4087      64696E67 
 4087      00
 4088              	.LASF131:
 4089 03a3 72656164 		.string	"read"
 4089      00
 4090              	.LASF178:
 4091 03a8 63684576 		.string	"chEvtRegisterMaskWithFlags"
 4091      74526567 
 4091      69737465 
 4091      724D6173 
 4091      6B576974 
 4092              	.LASF162:
 4093 03c3 77726974 		.string	"writet"
 4093      657400
 4094              	.LASF23:
 4095 03ca 746D6F64 		.string	"tmode_t"
 4095      655F7400 
 4096              	.LASF88:
 4097 03d2 73797374 		.string	"systime"
 4097      696D6500 
 4098              	.LASF71:
 4099 03da 63685F6C 		.string	"ch_list"
 4099      69737400 
 4100              	.LASF172:
 4101 03e2 7072696E 		.string	"print_mutex"
 4101      745F6D75 
 4101      74657800 
 4102              	.LASF110:
 4103 03ee 63685F72 		.string	"ch_ready_list"
 4103      65616479 
 4103      5F6C6973 
 4103      7400
 4104              	.LASF29:
GAS LISTING /tmp/ccLLfGOV.s 			page 79


 4105 03fc 6576656E 		.string	"eventmask_t"
 4105      746D6173 
 4105      6B5F7400 
 4106              	.LASF175:
 4107 0408 77615072 		.string	"waProducer"
 4107      6F647563 
 4107      657200
 4108              	.LASF14:
 4109 0413 5F5F696E 		.string	"__int32_t"
 4109      7433325F 
 4109      7400
 4110              	.LASF143:
 4111 041d 716E6F74 		.string	"qnotify_t"
 4111      6966795F 
 4111      7400
 4112              	.LASF184:
 4113 0427 63685468 		.string	"chThdCreateStatic"
 4113      64437265 
 4113      61746553 
 4113      74617469 
 4113      6300
 4114              	.LASF89:
 4115 0439 6C617374 		.string	"laststamp"
 4115      7374616D 
 4115      7000
 4116              	.LASF130:
 4117 0443 77726974 		.string	"write"
 4117      6500
 4118              	.LASF144:
 4119 0449 696E7075 		.string	"input_queue_t"
 4119      745F7175 
 4119      6575655F 
 4119      7400
 4120              	.LASF160:
 4121 0457 70757474 		.string	"putt"
 4121      00
 4122              	.LASF194:
 4123 045c 474E5520 		.string	"GNU C17 11.4.0 -m32 -mtune=generic -march=i686 -ggdb -O2 -ffunction-sections -fdata-secti
 4123      43313720 
 4123      31312E34 
 4123      2E30202D 
 4123      6D333220 
 4124              	.LASF60:
 4125 0514 72666375 		.string	"rfcu_mask_t"
 4125      5F6D6173 
 4125      6B5F7400 
 4126              	.LASF134:
 4127 0520 696F5F71 		.string	"io_queue"
 4127      75657565 
 4127      00
 4128              	.LASF94:
 4129 0529 74687265 		.string	"thread_reference_t"
 4129      61645F72 
 4129      65666572 
 4129      656E6365 
 4129      5F7400
 4130              	.LASF123:
GAS LISTING /tmp/ccLLfGOV.s 			page 80


 4131 053c 6C697374 		.string	"listener"
 4131      656E6572 
 4131      00
 4132              	.LASF86:
 4133 0545 63685F76 		.string	"ch_virtual_timers_list"
 4133      69727475 
 4133      616C5F74 
 4133      696D6572 
 4133      735F6C69 
 4134              	.LASF136:
 4135 055c 715F636F 		.string	"q_counter"
 4135      756E7465 
 4135      7200
 4136              	.LASF5:
 4137 0566 6C6F6E67 		.string	"long double"
 4137      20646F75 
 4137      626C6500 
 4138              	.LASF165:
 4139 0572 62756666 		.string	"buffer_head"
 4139      65725F68 
 4139      65616400 
 4140              	.LASF114:
 4141 057e 63737461 		.string	"cstack_base"
 4141      636B5F62 
 4141      61736500 
 4142              	.LASF192:
 4143 058a 63684576 		.string	"chEvtBroadcast"
 4143      7442726F 
 4143      61646361 
 4143      737400
 4144              	.LASF183:
 4145 0599 63684D74 		.string	"chMtxLock"
 4145      784C6F63 
 4145      6B00
 4146              	.LASF169:
 4147 05a3 636F6E73 		.string	"consumer_speed"
 4147      756D6572 
 4147      5F737065 
 4147      656400
 4148              	.LASF113:
 4149 05b2 63685F6F 		.string	"ch_os_instance_config"
 4149      735F696E 
 4149      7374616E 
 4149      63655F63 
 4149      6F6E6669 
 4150              	.LASF84:
 4151 05c8 706F7274 		.string	"port_context"
 4151      5F636F6E 
 4151      74657874 
 4151      00
 4152              	.LASF198:
 4153 05d5 63684576 		.string	"chEvtRegisterMask"
 4153      74526567 
 4153      69737465 
 4153      724D6173 
 4153      6B00
 4154              	.LASF78:
GAS LISTING /tmp/ccLLfGOV.s 			page 81


 4155 05e7 7072696F 		.string	"prio"
 4155      00
 4156              	.LASF117:
 4157 05ec 69646C65 		.string	"idlestack_end"
 4157      73746163 
 4157      6B5F656E 
 4157      6400
 4158              	.LASF174:
 4159 05fa 6E756D62 		.string	"number_counter"
 4159      65725F63 
 4159      6F756E74 
 4159      657200
 4160              	.LASF158:
 4161 0609 53657269 		.string	"SerialConfig"
 4161      616C436F 
 4161      6E666967 
 4161      00
 4162              	.LASF16:
 4163 0616 5F5F7569 		.string	"__uint64_t"
 4163      6E743634 
 4163      5F7400
 4164              	.LASF32:
 4165 0621 636F7265 		.string	"core_id_t"
 4165      5F69645F 
 4165      7400
 4166              	.LASF25:
 4167 062b 74726566 		.string	"trefs_t"
 4167      735F7400 
 4168              	.LASF147:
 4169 0633 53445F53 		.string	"SD_STOP"
 4169      544F5000 
 4170              	.LASF58:
 4171 063b 69646C65 		.string	"idlethread"
 4171      74687265 
 4171      616400
 4172              	.LASF26:
 4173 0646 74707269 		.string	"tprio_t"
 4173      6F5F7400 
 4174              	.LASF140:
 4175 064e 715F7264 		.string	"q_rdptr"
 4175      70747200 
 4176              	.LASF64:
 4177 0656 63685F73 		.string	"ch_system_debug"
 4177      79737465 
 4177      6D5F6465 
 4177      62756700 
 4178              	.LASF85:
 4179 0666 5F426F6F 		.string	"_Bool"
 4179      6C00
 4180              	.LASF19:
 4181 066c 696E7433 		.string	"int32_t"
 4181      325F7400 
 4182              	.LASF7:
 4183 0674 756E7369 		.string	"unsigned char"
 4183      676E6564 
 4183      20636861 
 4183      7200
GAS LISTING /tmp/ccLLfGOV.s 			page 82


 4184              	.LASF173:
 4185 0682 62756666 		.string	"buffer_event"
 4185      65725F65 
 4185      76656E74 
 4185      00
 4186              	.LASF63:
 4187 068f 72666375 		.string	"rfcu_t"
 4187      5F7400
 4188              	.LASF107:
 4189 0696 65776D61 		.string	"ewmask"
 4189      736B00
 4190              	.LASF154:
 4191 069d 6F717565 		.string	"oqueue"
 4191      756500
 4192              	.LASF128:
 4193 06a4 42617365 		.string	"BaseSequentialStreamVMT"
 4193      53657175 
 4193      656E7469 
 4193      616C5374 
 4193      7265616D 
 4194              	.LASF155:
 4195 06bc 636F6D5F 		.string	"com_listen"
 4195      6C697374 
 4195      656E00
 4196              	.LASF176:
 4197 06c7 7761436F 		.string	"waConsumer"
 4197      6E73756D 
 4197      657200
 4198              	.LASF96:
 4199 06d2 74687265 		.string	"threads_queue_t"
 4199      6164735F 
 4199      71756575 
 4199      655F7400 
 4200              	.LASF170:
 4201 06e2 70726F64 		.string	"produser_speed"
 4201      75736572 
 4201      5F737065 
 4201      656400
 4202              	.LASF108:
 4203 06f1 63685F73 		.string	"ch_semaphore"
 4203      656D6170 
 4203      686F7265 
 4203      00
 4204              	.LASF93:
 4205 06fe 72656769 		.string	"registry_t"
 4205      73747279 
 4205      5F7400
 4206              	.LASF124:
 4207 0709 6576656E 		.string	"events"
 4207      747300
 4208              	.LASF21:
 4209 0710 75696E74 		.string	"uint32_t"
 4209      33325F74 
 4209      00
 4210              	.LASF106:
 4211 0719 77746D74 		.string	"wtmtxp"
 4211      787000
GAS LISTING /tmp/ccLLfGOV.s 			page 83


 4212              	.LASF149:
 4213 0720 73647374 		.string	"sdstate_t"
 4213      6174655F 
 4213      7400
 4214              	.LASF34:
 4215 072a 6F776E65 		.string	"owner"
 4215      7200
 4216              	.LASF150:
 4217 0730 53657269 		.string	"SerialDriver"
 4217      616C4472 
 4217      69766572 
 4217      00
 4218              	.LASF48:
 4219 073d 7265616C 		.string	"realprio"
 4219      7072696F 
 4219      00
 4220              	.LASF9:
 4221 0746 6C6F6E67 		.string	"long unsigned int"
 4221      20756E73 
 4221      69676E65 
 4221      6420696E 
 4221      7400
 4222              	.LASF35:
 4223 0758 77616261 		.string	"wabase"
 4223      736500
 4224              	.LASF18:
 4225 075f 63686172 		.string	"char"
 4225      00
 4226              	.LASF57:
 4227 0764 636F6E66 		.string	"config"
 4227      696700
 4228              	.LASF187:
 4229 076b 73645374 		.string	"sdStart"
 4229      61727400 
 4230              	.LASF33:
 4231 0773 74687265 		.string	"thread_t"
 4231      61645F74 
 4231      00
 4232              	.LASF13:
 4233 077c 73686F72 		.string	"short int"
 4233      7420696E 
 4233      7400
 4234              	.LASF87:
 4235 0786 646C6973 		.string	"dlist"
 4235      7400
 4236              	.LASF67:
 4237 078c 73797374 		.string	"systime_t"
 4237      696D655F 
 4237      7400
 4238              	.LASF82:
 4239 0796 72656778 		.string	"regx86"
 4239      383600
 4240              	.LASF164:
 4241 079d 62756666 		.string	"buffer"
 4241      657200
 4242              	.LASF65:
 4243 07a4 70616E69 		.string	"panic_msg"
GAS LISTING /tmp/ccLLfGOV.s 			page 84


 4243      635F6D73 
 4243      6700
 4244              	.LASF99:
 4245 07ae 70717565 		.string	"pqueue"
 4245      756500
 4246              	.LASF51:
 4247 07b5 63685F6F 		.string	"ch_os_instance"
 4247      735F696E 
 4247      7374616E 
 4247      636500
 4248              	.LASF49:
 4249 07c4 6F735F69 		.string	"os_instance_t"
 4249      6E737461 
 4249      6E63655F 
 4249      7400
 4250              	.LASF121:
 4251 07d2 6576656E 		.string	"event_listener_t"
 4251      745F6C69 
 4251      7374656E 
 4251      65725F74 
 4251      00
 4252              	.LASF54:
 4253 07e3 7265676C 		.string	"reglist"
 4253      69737400 
 4254              	.LASF77:
 4255 07eb 63685F70 		.string	"ch_priority_queue"
 4255      72696F72 
 4255      6974795F 
 4255      71756575 
 4255      6500
 4256              	.LASF148:
 4257 07fd 53445F52 		.string	"SD_READY"
 4257      45414459 
 4257      00
 4258              	.LASF30:
 4259 0806 6576656E 		.string	"eventflags_t"
 4259      74666C61 
 4259      67735F74 
 4259      00
 4260              	.LASF111:
 4261 0813 63757272 		.string	"current"
 4261      656E7400 
 4262              	.LASF145:
 4263 081b 6F757470 		.string	"output_queue_t"
 4263      75745F71 
 4263      75657565 
 4263      5F7400
 4264              	.LASF157:
 4265 082a 636F6D5F 		.string	"com_name"
 4265      6E616D65 
 4265      00
 4266              	.LASF118:
 4267 0833 6F735F69 		.string	"os_instance_config_t"
 4267      6E737461 
 4267      6E63655F 
 4267      636F6E66 
 4267      69675F74 
GAS LISTING /tmp/ccLLfGOV.s 			page 85


 4268              	.LASF138:
 4269 0848 715F746F 		.string	"q_top"
 4269      7000
 4270              	.LASF109:
 4271 084e 63685F6D 		.string	"ch_mutex"
 4271      75746578 
 4271      00
 4272              	.LASF62:
 4273 0857 6D61736B 		.string	"mask"
 4273      00
 4274              	.LASF156:
 4275 085c 636F6D5F 		.string	"com_data"
 4275      64617461 
 4275      00
 4276              	.LASF36:
 4277 0865 7761656E 		.string	"waend"
 4277      6400
 4278              	.LASF141:
 4279 086b 715F6E6F 		.string	"q_notify"
 4279      74696679 
 4279      00
 4280              	.LASF52:
 4281 0874 726C6973 		.string	"rlist"
 4281      7400
 4282              	.LASF126:
 4283 087a 6576656E 		.string	"event_source"
 4283      745F736F 
 4283      75726365 
 4283      00
 4284              	.LASF20:
 4285 0887 75696E74 		.string	"uint8_t"
 4285      385F7400 
 4286              	.LASF171:
 4287 088f 62756666 		.string	"buffer_mutex"
 4287      65725F6D 
 4287      75746578 
 4287      00
 4288              	.LASF38:
 4289 089c 666C6167 		.string	"flags"
 4289      7300
 4290              	.LASF168:
 4291 08a2 73657269 		.string	"serial"
 4291      616C00
 4292              	.LASF102:
 4293 08a9 77746F62 		.string	"wtobjp"
 4293      6A7000
 4294              	.LASF129:
 4295 08b0 696E7374 		.string	"instance_offset"
 4295      616E6365 
 4295      5F6F6666 
 4295      73657400 
 4296              	.LASF98:
 4297 08c0 6C697374 		.string	"list"
 4297      00
 4298              	.LASF197:
 4299 08c5 6D61696E 		.string	"main"
 4299      00
GAS LISTING /tmp/ccLLfGOV.s 			page 86


 4300              	.LASF47:
 4301 08ca 6D74786C 		.string	"mtxlist"
 4301      69737400 
 4302              	.LASF166:
 4303 08d2 62756666 		.string	"buffer_tail"
 4303      65725F74 
 4303      61696C00 
 4304              	.LASF122:
 4305 08de 6576656E 		.string	"event_listener"
 4305      745F6C69 
 4305      7374656E 
 4305      657200
 4306              	.LASF182:
 4307 08ed 63687072 		.string	"chprintf"
 4307      696E7466 
 4307      00
 4308              		.section	.debug_line_str,"MS",@progbits,1
 4309              	.LASF1:
 4310 0000 2F686F6D 		.string	"/home/alex/ChibiOS/demos/various/LAB2"
 4310      652F616C 
 4310      65782F43 
 4310      68696269 
 4310      4F532F64 
 4311              	.LASF0:
 4312 0026 6D61696E 		.string	"main.c"
 4312      2E6300
 4313              		.ident	"GCC: (Ubuntu 11.4.0-1ubuntu1~22.04) 11.4.0"
 4314 002d 2F686F6D 		.section	.note.GNU-stack,"",@progbits
 4314      652F616C 
 4314      65782F43 
 4314      68696269 
 4314      4F532F64 
GAS LISTING /tmp/ccLLfGOV.s 			page 87


DEFINED SYMBOLS
                            *ABS*:0000000000000000 main.c
     /tmp/ccLLfGOV.s:12     .text.Consumer:0000000000000000 Consumer
     /tmp/ccLLfGOV.s:628    .text.__x86.get_pc_thunk.bx:0000000000000000 __x86.get_pc_thunk.bx
     /tmp/ccLLfGOV.s:592    .bss.print_mutex:0000000000000000 print_mutex
     /tmp/ccLLfGOV.s:598    .bss.buffer_mutex:0000000000000000 buffer_mutex
     /tmp/ccLLfGOV.s:586    .bss.buffer_event:0000000000000000 buffer_event
     /tmp/ccLLfGOV.s:622    .bss.buffer:0000000000000000 buffer
     /tmp/ccLLfGOV.s:604    .bss.buffer_count:0000000000000000 buffer_count
     /tmp/ccLLfGOV.s:610    .bss.buffer_tail:0000000000000000 buffer_tail
     /tmp/ccLLfGOV.s:213    .text.Producer:0000000000000000 Producer
     /tmp/ccLLfGOV.s:616    .bss.buffer_head:0000000000000000 buffer_head
     /tmp/ccLLfGOV.s:580    .data.number_counter:0000000000000000 number_counter
     /tmp/ccLLfGOV.s:431    .text.startup.main:0000000000000000 main
     /tmp/ccLLfGOV.s:574    .bss.waProducer:0000000000000000 waProducer
     /tmp/ccLLfGOV.s:568    .bss.waConsumer:0000000000000000 waConsumer
     /tmp/ccLLfGOV.s:7      .rodata.Consumer.str1.4:0000000000000000 .LC0
     /tmp/ccLLfGOV.s:205    .rodata.Producer.str1.4:0000000000000000 .LC1
     /tmp/ccLLfGOV.s:208    .rodata.Producer.str1.4:0000000000000024 .LC2
     /tmp/ccLLfGOV.s:416    .rodata.main.str1.4:0000000000000000 .LC3
     /tmp/ccLLfGOV.s:419    .rodata.main.str1.4:0000000000000024 .LC4
     /tmp/ccLLfGOV.s:422    .rodata.main.str1.4:0000000000000048 .LC5
     /tmp/ccLLfGOV.s:425    .rodata.main.str1.1:0000000000000000 .LC6

UNDEFINED SYMBOLS
_GLOBAL_OFFSET_TABLE_
chEvtRegisterMaskWithFlags
SD1
chEvtWaitAny
chMtxLock
chprintf
chMtxUnlock
chThdSleep
chEvtBroadcastFlags
halInit
chSysInit
sdStart
chMtxObjectInit
chEvtObjectInit
chThdCreateStatic
