GAS LISTING /tmp/ccttH9cH.s 			page 1


   1              		.file	"oslib_test_sequence_002.c"
   2              		.text
   3              	.Ltext0:
   4              		.file 0 "/home/alex/ChibiOS/demos/various/LAB3" "../../../test/oslib/source/test/oslib_test_sequen
   5              		.section	.text.oslib_test_002_001_teardown,"ax",@progbits
   6              		.p2align 4
   7              		.type	oslib_test_002_001_teardown, @function
   8              	oslib_test_002_001_teardown:
   9              	.LFB304:
  10              		.file 1 "../../../test/oslib/source/test/oslib_test_sequence_002.c"
  11              		.loc 1 90 47 view -0
  12              		.cfi_startproc
  13              		.loc 1 91 3 view .LVU1
  14              		.loc 1 90 47 is_stmt 0 view .LVU2
  15 0000 53       		pushl	%ebx
  16              		.cfi_def_cfa_offset 8
  17              		.cfi_offset 3, -8
  18 0001 E8FCFFFF 		call	__x86.get_pc_thunk.bx
  18      FF
  19 0006 81C30200 		addl	$_GLOBAL_OFFSET_TABLE_, %ebx
  19      0000
  20 000c 83EC14   		subl	$20, %esp
  21              		.cfi_def_cfa_offset 28
  22              		.loc 1 91 3 view .LVU3
  23 000f 8D830000 		leal	mb1@GOTOFF(%ebx), %eax
  23      0000
  24 0015 50       		pushl	%eax
  25              		.cfi_def_cfa_offset 32
  26 0016 E8FCFFFF 		call	chMBReset@PLT
  26      FF
  27              	.LVL0:
  28              		.loc 1 92 1 view .LVU4
  29 001b 83C418   		addl	$24, %esp
  30              		.cfi_def_cfa_offset 8
  31 001e 5B       		popl	%ebx
  32              		.cfi_restore 3
  33              		.cfi_def_cfa_offset 4
  34 001f C3       		ret
  35              		.cfi_endproc
  36              	.LFE304:
  37              		.size	oslib_test_002_001_teardown, .-oslib_test_002_001_teardown
  38              		.section	.rodata.oslib_test_002_003_execute.str1.1,"aMS",@progbits,1
  39              	.LC0:
  40 0000 77726F6E 		.string	"wrong wake-up message"
  40      67207761 
  40      6B652D75 
  40      70206D65 
  40      73736167 
  41              		.section	.text.oslib_test_002_003_execute,"ax",@progbits
  42              		.p2align 4
  43              		.type	oslib_test_002_003_execute, @function
  44              	oslib_test_002_003_execute:
  45              	.LFB311:
  46              		.loc 1 351 46 is_stmt 1 view -0
  47              		.cfi_startproc
  48 0000 55       		pushl	%ebp
  49              		.cfi_def_cfa_offset 8
GAS LISTING /tmp/ccttH9cH.s 			page 2


  50              		.cfi_offset 5, -8
  51              		.loc 1 356 3 is_stmt 0 view .LVU6
  52 0001 BD420000 		movl	$66, %ebp
  52      00
  53              		.loc 1 351 46 view .LVU7
  54 0006 57       		pushl	%edi
  55              		.cfi_def_cfa_offset 12
  56              		.cfi_offset 7, -12
  57 0007 56       		pushl	%esi
  58              		.cfi_def_cfa_offset 16
  59              		.cfi_offset 6, -16
  60 0008 53       		pushl	%ebx
  61              		.cfi_def_cfa_offset 20
  62              		.cfi_offset 3, -20
  63 0009 E8FCFFFF 		call	__x86.get_pc_thunk.bx
  63      FF
  64 000e 81C30200 		addl	$_GLOBAL_OFFSET_TABLE_, %ebx
  64      0000
  65 0014 83EC2C   		subl	$44, %esp
  66              		.cfi_def_cfa_offset 64
  67              		.loc 1 356 3 view .LVU8
  68 0017 65A11400 		movl	%gs:20, %eax
  68      0000
  69 001d 8944241C 		movl	%eax, 28(%esp)
  70 0021 8B830000 		movl	chtest@GOT(%ebx), %eax
  70      0000
  71 0027 8DB30000 		leal	mb1@GOTOFF(%ebx), %esi
  71      0000
  72 002d 8DBB0000 		leal	.LC0@GOTOFF(%ebx), %edi
  72      0000
  73 0033 89442408 		movl	%eax, 8(%esp)
  74 0037 C7000100 		movl	$1, (%eax)
  74      0000
  75              		.loc 1 358 5 is_stmt 1 view .LVU9
  76              	.LVL1:
  77              		.loc 1 358 19 view .LVU10
  78              	.L7:
  79              		.loc 1 359 7 view .LVU11
  80              		.loc 1 359 14 is_stmt 0 view .LVU12
  81 003d 83EC04   		subl	$4, %esp
  82              		.cfi_def_cfa_offset 68
  83 0040 6AFF     		pushl	$-1
  84              		.cfi_def_cfa_offset 72
  85 0042 55       		pushl	%ebp
  86              		.cfi_def_cfa_offset 76
  87 0043 56       		pushl	%esi
  88              		.cfi_def_cfa_offset 80
  89 0044 E8FCFFFF 		call	chMBPostTimeout@PLT
  89      FF
  90              	.LVL2:
  91              		.loc 1 360 7 is_stmt 1 view .LVU13
  92 0049 5A       		popl	%edx
  93              		.cfi_def_cfa_offset 76
  94 004a 59       		popl	%ecx
  95              		.cfi_def_cfa_offset 72
  96 004b 57       		pushl	%edi
  97              		.cfi_def_cfa_offset 76
GAS LISTING /tmp/ccttH9cH.s 			page 3


  98 004c 85C0     		testl	%eax, %eax
  99 004e 0F94C0   		sete	%al
 100              	.LVL3:
 101              		.loc 1 360 7 is_stmt 0 view .LVU14
 102 0051 0FB6C0   		movzbl	%al, %eax
 103 0054 50       		pushl	%eax
 104              		.cfi_def_cfa_offset 80
 105 0055 E8FCFFFF 		call	__test_assert@PLT
 105      FF
 106              	.LVL4:
 107 005a 83C410   		addl	$16, %esp
 108              		.cfi_def_cfa_offset 64
 109 005d 84C0     		testb	%al, %al
 110 005f 7538     		jne	.L4
 111              		.loc 1 360 59 is_stmt 1 discriminator 2 view .LVU15
 112              		.loc 1 358 31 discriminator 2 view .LVU16
 113              	.LVL5:
 114              		.loc 1 358 19 discriminator 2 view .LVU17
 115 0061 83C501   		addl	$1, %ebp
 116              	.LVL6:
 117              		.loc 1 358 19 is_stmt 0 discriminator 2 view .LVU18
 118 0064 83FD46   		cmpl	$70, %ebp
 119 0067 75D4     		jne	.L7
 120              		.loc 1 363 3 is_stmt 1 view .LVU19
 121              		.loc 1 363 19 view .LVU20
 122              		.loc 1 367 3 view .LVU21
 123 0069 8B442408 		movl	8(%esp), %eax
 124              		.loc 1 369 12 is_stmt 0 view .LVU22
 125 006d 83EC04   		subl	$4, %esp
 126              		.cfi_def_cfa_offset 68
 127              		.loc 1 367 3 view .LVU23
 128 0070 C7000200 		movl	$2, (%eax)
 128      0000
 129              		.loc 1 369 5 is_stmt 1 view .LVU24
 130              		.loc 1 369 12 is_stmt 0 view .LVU25
 131 0076 6A01     		pushl	$1
 132              		.cfi_def_cfa_offset 72
 133 0078 6A58     		pushl	$88
 134              		.cfi_def_cfa_offset 76
 135 007a 56       		pushl	%esi
 136              		.cfi_def_cfa_offset 80
 137 007b E8FCFFFF 		call	chMBPostTimeout@PLT
 137      FF
 138              	.LVL7:
 139              		.loc 1 370 5 is_stmt 1 view .LVU26
 140 0080 59       		popl	%ecx
 141              		.cfi_def_cfa_offset 76
 142 0081 5D       		popl	%ebp
 143              		.cfi_def_cfa_offset 72
 144              	.LVL8:
 145              		.loc 1 370 5 is_stmt 0 view .LVU27
 146 0082 57       		pushl	%edi
 147              		.cfi_def_cfa_offset 76
 148 0083 83F8FF   		cmpl	$-1, %eax
 149 0086 0F94C0   		sete	%al
 150              	.LVL9:
 151              		.loc 1 370 5 view .LVU28
GAS LISTING /tmp/ccttH9cH.s 			page 4


 152 0089 0FB6C0   		movzbl	%al, %eax
 153 008c 50       		pushl	%eax
 154              		.cfi_def_cfa_offset 80
 155 008d E8FCFFFF 		call	__test_assert@PLT
 155      FF
 156              	.LVL10:
 157 0092 83C410   		addl	$16, %esp
 158              		.cfi_def_cfa_offset 64
 159 0095 84C0     		testb	%al, %al
 160 0097 741F     		je	.L12
 161              	.L4:
 162              		.loc 1 404 1 view .LVU29
 163 0099 8B44241C 		movl	28(%esp), %eax
 164 009d 652B0514 		subl	%gs:20, %eax
 164      000000
 165 00a4 0F853101 		jne	.L13
 165      0000
 166 00aa 83C42C   		addl	$44, %esp
 167              		.cfi_remember_state
 168              		.cfi_def_cfa_offset 20
 169 00ad 5B       		popl	%ebx
 170              		.cfi_restore 3
 171              		.cfi_def_cfa_offset 16
 172 00ae 5E       		popl	%esi
 173              		.cfi_restore 6
 174              		.cfi_def_cfa_offset 12
 175 00af 5F       		popl	%edi
 176              		.cfi_restore 7
 177              		.cfi_def_cfa_offset 8
 178 00b0 5D       		popl	%ebp
 179              		.cfi_restore 5
 180              		.cfi_def_cfa_offset 4
 181 00b1 C3       		ret
 182              		.p2align 4,,10
 183 00b2 8DB60000 		.p2align 3
 183      0000
 184              	.L12:
 185              		.cfi_restore_state
 186              		.loc 1 370 62 is_stmt 1 view .LVU30
 187              		.loc 1 371 5 view .LVU31
 188              	.LBB852:
 189              	.LBI852:
 190              		.file 2 "../../../os/rt/include/chsys.h"
 191              		.loc 2 407 20 view .LVU32
 192              		.loc 2 409 3 view .LVU33
 193              	.LBB853:
 194              	.LBI853:
 195              		.file 3 "../../../os/common/ports/SIMIA32/chcore.h"
 196              		.loc 3 361 20 view .LVU34
 197              	.LBB854:
 198              		.loc 3 363 3 view .LVU35
 199              		.loc 3 363 16 is_stmt 0 view .LVU36
 200 00b8 8BAB0000 		movl	port_irq_sts@GOT(%ebx), %ebp
 200      0000
 201              	.LBE854:
 202              	.LBE853:
 203              	.LBE852:
GAS LISTING /tmp/ccttH9cH.s 			page 5


 204              		.loc 1 372 12 view .LVU37
 205 00be 83EC08   		subl	$8, %esp
 206              		.cfi_def_cfa_offset 72
 207              	.LBB857:
 208              	.LBB856:
 209              	.LBB855:
 210              		.loc 3 363 16 view .LVU38
 211 00c1 896C2414 		movl	%ebp, 20(%esp)
 212 00c5 C7450001 		movl	$1, 0(%ebp)
 212      000000
 213              	.LBE855:
 214              	.LBE856:
 215              		.loc 2 410 35 is_stmt 1 view .LVU39
 216              		.loc 2 411 21 view .LVU40
 217              	.LBE857:
 218              		.loc 1 372 5 view .LVU41
 219              		.loc 1 372 12 is_stmt 0 view .LVU42
 220 00cc 6A58     		pushl	$88
 221              		.cfi_def_cfa_offset 76
 222 00ce 56       		pushl	%esi
 223              		.cfi_def_cfa_offset 80
 224 00cf E8FCFFFF 		call	chMBPostI@PLT
 224      FF
 225              	.LVL11:
 226              		.loc 1 373 5 is_stmt 1 view .LVU43
 227              	.LBB858:
 228              	.LBI858:
 229              		.loc 2 421 20 view .LVU44
 230              	.LBB859:
 231              		.loc 2 423 23 view .LVU45
 232              		.loc 2 424 34 view .LVU46
 233              		.loc 2 430 3 view .LVU47
 234              		.loc 2 430 3 view .LVU48
 235              		.loc 2 430 3 view .LVU49
 236              		.loc 2 434 3 view .LVU50
 237              	.LBB860:
 238              	.LBI860:
 239              		.loc 3 370 20 view .LVU51
 240              	.LBB861:
 241              		.loc 3 372 3 view .LVU52
 242              		.loc 3 372 16 is_stmt 0 view .LVU53
 243 00d4 C7450000 		movl	$0, 0(%ebp)
 243      000000
 244              	.LBE861:
 245              	.LBE860:
 246              	.LBE859:
 247              	.LBE858:
 248              		.loc 1 374 5 is_stmt 1 view .LVU54
 249 00db 59       		popl	%ecx
 250              		.cfi_def_cfa_offset 76
 251 00dc 83F8FF   		cmpl	$-1, %eax
 252 00df 5A       		popl	%edx
 253              		.cfi_def_cfa_offset 72
 254 00e0 57       		pushl	%edi
 255              		.cfi_def_cfa_offset 76
 256 00e1 0F94C0   		sete	%al
 257              	.LVL12:
GAS LISTING /tmp/ccttH9cH.s 			page 6


 258              		.loc 1 374 5 is_stmt 0 view .LVU55
 259 00e4 0FB6C0   		movzbl	%al, %eax
 260 00e7 50       		pushl	%eax
 261              		.cfi_def_cfa_offset 80
 262 00e8 E8FCFFFF 		call	__test_assert@PLT
 262      FF
 263              	.LVL13:
 264 00ed 83C410   		addl	$16, %esp
 265              		.cfi_def_cfa_offset 64
 266 00f0 84C0     		testb	%al, %al
 267 00f2 75A5     		jne	.L4
 268              		.loc 1 374 62 is_stmt 1 discriminator 2 view .LVU56
 269              		.loc 1 375 5 discriminator 2 view .LVU57
 270              		.loc 1 375 12 is_stmt 0 discriminator 2 view .LVU58
 271 00f4 83EC04   		subl	$4, %esp
 272              		.cfi_def_cfa_offset 68
 273 00f7 6A01     		pushl	$1
 274              		.cfi_def_cfa_offset 72
 275 00f9 6A58     		pushl	$88
 276              		.cfi_def_cfa_offset 76
 277 00fb 56       		pushl	%esi
 278              		.cfi_def_cfa_offset 80
 279 00fc E8FCFFFF 		call	chMBPostAheadTimeout@PLT
 279      FF
 280              	.LVL14:
 281              		.loc 1 376 5 is_stmt 1 discriminator 2 view .LVU59
 282 0101 59       		popl	%ecx
 283              		.cfi_def_cfa_offset 76
 284 0102 5A       		popl	%edx
 285              		.cfi_def_cfa_offset 72
 286 0103 57       		pushl	%edi
 287              		.cfi_def_cfa_offset 76
 288 0104 83F8FF   		cmpl	$-1, %eax
 289 0107 0F94C0   		sete	%al
 290              	.LVL15:
 291              		.loc 1 376 5 is_stmt 0 discriminator 2 view .LVU60
 292 010a 0FB6C0   		movzbl	%al, %eax
 293 010d 50       		pushl	%eax
 294              		.cfi_def_cfa_offset 80
 295 010e E8FCFFFF 		call	__test_assert@PLT
 295      FF
 296              	.LVL16:
 297 0113 83C410   		addl	$16, %esp
 298              		.cfi_def_cfa_offset 64
 299 0116 84C0     		testb	%al, %al
 300 0118 0F857BFF 		jne	.L4
 300      FFFF
 301              		.loc 1 376 62 is_stmt 1 view .LVU61
 302              		.loc 1 377 5 view .LVU62
 303              	.LBB862:
 304              	.LBI862:
 305              		.loc 2 407 20 view .LVU63
 306              		.loc 2 409 3 view .LVU64
 307              	.LBB863:
 308              	.LBI863:
 309              		.loc 3 361 20 view .LVU65
 310              	.LBB864:
GAS LISTING /tmp/ccttH9cH.s 			page 7


 311              		.loc 3 363 3 view .LVU66
 312              	.LBE864:
 313              	.LBE863:
 314              	.LBE862:
 315              		.loc 1 378 12 is_stmt 0 view .LVU67
 316 011e 83EC08   		subl	$8, %esp
 317              		.cfi_def_cfa_offset 72
 318              	.LBB867:
 319              	.LBB866:
 320              	.LBB865:
 321              		.loc 3 363 16 view .LVU68
 322 0121 C7450001 		movl	$1, 0(%ebp)
 322      000000
 323              	.LBE865:
 324              	.LBE866:
 325              		.loc 2 410 35 is_stmt 1 view .LVU69
 326              		.loc 2 411 21 view .LVU70
 327              	.LBE867:
 328              		.loc 1 378 5 view .LVU71
 329              		.loc 1 378 12 is_stmt 0 view .LVU72
 330 0128 6A58     		pushl	$88
 331              		.cfi_def_cfa_offset 76
 332 012a 56       		pushl	%esi
 333              		.cfi_def_cfa_offset 80
 334 012b E8FCFFFF 		call	chMBPostAheadI@PLT
 334      FF
 335              	.LVL17:
 336              		.loc 1 379 5 is_stmt 1 view .LVU73
 337              	.LBB868:
 338              	.LBI868:
 339              		.loc 2 421 20 view .LVU74
 340              	.LBB869:
 341              		.loc 2 423 23 view .LVU75
 342              		.loc 2 424 34 view .LVU76
 343              		.loc 2 430 3 view .LVU77
 344              		.loc 2 430 3 view .LVU78
 345              		.loc 2 430 3 view .LVU79
 346              		.loc 2 434 3 view .LVU80
 347              	.LBB870:
 348              	.LBI870:
 349              		.loc 3 370 20 view .LVU81
 350              	.LBB871:
 351              		.loc 3 372 3 view .LVU82
 352              		.loc 3 372 16 is_stmt 0 view .LVU83
 353 0130 C7450000 		movl	$0, 0(%ebp)
 353      000000
 354              	.LBE871:
 355              	.LBE870:
 356              	.LBE869:
 357              	.LBE868:
 358              		.loc 1 380 5 is_stmt 1 view .LVU84
 359 0137 5D       		popl	%ebp
 360              		.cfi_def_cfa_offset 76
 361 0138 83F8FF   		cmpl	$-1, %eax
 362 013b 5A       		popl	%edx
 363              		.cfi_def_cfa_offset 72
 364 013c 57       		pushl	%edi
GAS LISTING /tmp/ccttH9cH.s 			page 8


 365              		.cfi_def_cfa_offset 76
 366 013d 0F94C0   		sete	%al
 367              	.LVL18:
 368              		.loc 1 380 5 is_stmt 0 view .LVU85
 369 0140 0FB6C0   		movzbl	%al, %eax
 370 0143 50       		pushl	%eax
 371              		.cfi_def_cfa_offset 80
 372 0144 E8FCFFFF 		call	__test_assert@PLT
 372      FF
 373              	.LVL19:
 374 0149 83C410   		addl	$16, %esp
 375              		.cfi_def_cfa_offset 64
 376 014c 84C0     		testb	%al, %al
 377 014e 0F8545FF 		jne	.L4
 377      FFFF
 378              		.loc 1 380 62 is_stmt 1 discriminator 2 view .LVU86
 379              		.loc 1 382 3 discriminator 2 view .LVU87
 380              		.loc 1 382 19 discriminator 2 view .LVU88
 381              		.loc 1 386 3 discriminator 2 view .LVU89
 382 0154 8B6C2408 		movl	8(%esp), %ebp
 383              		.loc 1 388 5 is_stmt 0 discriminator 2 view .LVU90
 384 0158 83EC0C   		subl	$12, %esp
 385              		.cfi_def_cfa_offset 76
 386              		.loc 1 386 3 discriminator 2 view .LVU91
 387 015b C7450003 		movl	$3, 0(%ebp)
 387      000000
 388              		.loc 1 388 5 is_stmt 1 discriminator 2 view .LVU92
 389 0162 56       		pushl	%esi
 390              		.cfi_def_cfa_offset 80
 391 0163 E8FCFFFF 		call	chMBReset@PLT
 391      FF
 392              	.LVL20:
 393              		.loc 1 389 5 discriminator 2 view .LVU93
 394              	.LBB872:
 395              	.LBI872:
 396              		.file 4 "../../../os/oslib/include/chmboxes.h"
 397              		.loc 4 201 20 discriminator 2 view .LVU94
 398              	.LBB873:
 399              		.loc 4 203 3 discriminator 2 view .LVU95
 400              	.LBE873:
 401              	.LBE872:
 402              		.loc 1 396 12 is_stmt 0 discriminator 2 view .LVU96
 403 0168 83C40C   		addl	$12, %esp
 404              		.cfi_def_cfa_offset 68
 405              		.loc 1 394 3 discriminator 2 view .LVU97
 406 016b C7450004 		movl	$4, 0(%ebp)
 406      000000
 407              		.loc 1 396 12 discriminator 2 view .LVU98
 408 0172 6A01     		pushl	$1
 409              		.cfi_def_cfa_offset 72
 410              	.LBB875:
 411              	.LBB874:
 412              		.loc 4 203 14 discriminator 2 view .LVU99
 413 0174 C6831400 		movb	$0, 20+mb1@GOTOFF(%ebx)
 413      000000
 414              	.LVL21:
 415              		.loc 4 203 14 discriminator 2 view .LVU100
GAS LISTING /tmp/ccttH9cH.s 			page 9


 416              	.LBE874:
 417              	.LBE875:
 418              		.loc 1 391 3 is_stmt 1 discriminator 2 view .LVU101
 419              		.loc 1 391 19 discriminator 2 view .LVU102
 420              		.loc 1 394 3 discriminator 2 view .LVU103
 421              		.loc 1 396 5 discriminator 2 view .LVU104
 422              		.loc 1 396 12 is_stmt 0 discriminator 2 view .LVU105
 423 017b 8D6C2420 		leal	32(%esp), %ebp
 424 017f 55       		pushl	%ebp
 425              		.cfi_def_cfa_offset 76
 426 0180 56       		pushl	%esi
 427              		.cfi_def_cfa_offset 80
 428 0181 E8FCFFFF 		call	chMBFetchTimeout@PLT
 428      FF
 429              	.LVL22:
 430              		.loc 1 397 5 is_stmt 1 discriminator 2 view .LVU106
 431 0186 5A       		popl	%edx
 432              		.cfi_def_cfa_offset 76
 433 0187 59       		popl	%ecx
 434              		.cfi_def_cfa_offset 72
 435 0188 57       		pushl	%edi
 436              		.cfi_def_cfa_offset 76
 437 0189 83F8FF   		cmpl	$-1, %eax
 438 018c 0F94C0   		sete	%al
 439              	.LVL23:
 440              		.loc 1 397 5 is_stmt 0 discriminator 2 view .LVU107
 441 018f 0FB6C0   		movzbl	%al, %eax
 442 0192 50       		pushl	%eax
 443              		.cfi_def_cfa_offset 80
 444 0193 E8FCFFFF 		call	__test_assert@PLT
 444      FF
 445              	.LVL24:
 446 0198 83C410   		addl	$16, %esp
 447              		.cfi_def_cfa_offset 64
 448 019b 84C0     		testb	%al, %al
 449 019d 0F85F6FE 		jne	.L4
 449      FFFF
 450              		.loc 1 397 62 is_stmt 1 view .LVU108
 451              		.loc 1 398 5 view .LVU109
 452              	.LBB876:
 453              	.LBI876:
 454              		.loc 2 407 20 view .LVU110
 455              		.loc 2 409 3 view .LVU111
 456              	.LBB877:
 457              	.LBI877:
 458              		.loc 3 361 20 view .LVU112
 459              	.LBB878:
 460              		.loc 3 363 3 view .LVU113
 461              		.loc 3 363 16 is_stmt 0 view .LVU114
 462 01a3 8B44240C 		movl	12(%esp), %eax
 463              	.LBE878:
 464              	.LBE877:
 465              	.LBE876:
 466              		.loc 1 399 12 view .LVU115
 467 01a7 83EC08   		subl	$8, %esp
 468              		.cfi_def_cfa_offset 72
 469              	.LBB881:
GAS LISTING /tmp/ccttH9cH.s 			page 10


 470              	.LBB880:
 471              	.LBB879:
 472              		.loc 3 363 16 view .LVU116
 473 01aa C7000100 		movl	$1, (%eax)
 473      0000
 474              	.LBE879:
 475              	.LBE880:
 476              		.loc 2 410 35 is_stmt 1 view .LVU117
 477              		.loc 2 411 21 view .LVU118
 478              	.LBE881:
 479              		.loc 1 399 5 view .LVU119
 480              		.loc 1 399 12 is_stmt 0 view .LVU120
 481 01b0 55       		pushl	%ebp
 482              		.cfi_def_cfa_offset 76
 483 01b1 56       		pushl	%esi
 484              		.cfi_def_cfa_offset 80
 485 01b2 E8FCFFFF 		call	chMBFetchI@PLT
 485      FF
 486              	.LVL25:
 487              		.loc 1 400 5 is_stmt 1 view .LVU121
 488              	.LBB882:
 489              	.LBI882:
 490              		.loc 2 421 20 view .LVU122
 491              	.LBB883:
 492              		.loc 2 423 23 view .LVU123
 493              		.loc 2 424 34 view .LVU124
 494              		.loc 2 430 3 view .LVU125
 495              		.loc 2 430 3 view .LVU126
 496              		.loc 2 430 3 view .LVU127
 497              		.loc 2 434 3 view .LVU128
 498              	.LBB884:
 499              	.LBI884:
 500              		.loc 3 370 20 view .LVU129
 501              	.LBB885:
 502              		.loc 3 372 3 view .LVU130
 503              		.loc 3 372 16 is_stmt 0 view .LVU131
 504 01b7 8B54241C 		movl	28(%esp), %edx
 505              	.LBE885:
 506              	.LBE884:
 507              	.LBE883:
 508              	.LBE882:
 509              		.loc 1 401 5 view .LVU132
 510 01bb 83F8FF   		cmpl	$-1, %eax
 511 01be 0F94C0   		sete	%al
 512              	.LVL26:
 513              	.LBB889:
 514              	.LBB888:
 515              	.LBB887:
 516              	.LBB886:
 517              		.loc 3 372 16 view .LVU133
 518 01c1 C7020000 		movl	$0, (%edx)
 518      0000
 519              	.LBE886:
 520              	.LBE887:
 521              	.LBE888:
 522              	.LBE889:
 523              		.loc 1 401 5 is_stmt 1 view .LVU134
GAS LISTING /tmp/ccttH9cH.s 			page 11


 524 01c7 5A       		popl	%edx
 525              		.cfi_def_cfa_offset 76
 526 01c8 0FB6C0   		movzbl	%al, %eax
 527 01cb 59       		popl	%ecx
 528              		.cfi_def_cfa_offset 72
 529 01cc 57       		pushl	%edi
 530              		.cfi_def_cfa_offset 76
 531 01cd 50       		pushl	%eax
 532              		.cfi_def_cfa_offset 80
 533 01ce E8FCFFFF 		call	__test_assert@PLT
 533      FF
 534              	.LVL27:
 535              		.loc 1 401 5 view .LVU135
 536 01d3 83C410   		addl	$16, %esp
 537              		.cfi_def_cfa_offset 64
 538 01d6 E9BEFEFF 		jmp	.L4
 538      FF
 539              	.L13:
 540              		.loc 1 404 1 is_stmt 0 view .LVU136
 541 01db E8FCFFFF 		call	__stack_chk_fail_local
 541      FF
 542              	.LVL28:
 543              		.cfi_endproc
 544              	.LFE311:
 545              		.size	oslib_test_002_003_execute, .-oslib_test_002_003_execute
 546              		.section	.text.oslib_test_002_001_setup,"ax",@progbits
 547              		.p2align 4
 548              		.type	oslib_test_002_001_setup, @function
 549              	oslib_test_002_001_setup:
 550              	.LFB303:
 551              		.loc 1 86 44 is_stmt 1 view -0
 552              		.cfi_startproc
 553              		.loc 1 87 3 view .LVU138
 554              		.loc 1 86 44 is_stmt 0 view .LVU139
 555 0000 53       		pushl	%ebx
 556              		.cfi_def_cfa_offset 8
 557              		.cfi_offset 3, -8
 558 0001 E8FCFFFF 		call	__x86.get_pc_thunk.bx
 558      FF
 559 0006 81C30200 		addl	$_GLOBAL_OFFSET_TABLE_, %ebx
 559      0000
 560 000c 83EC0C   		subl	$12, %esp
 561              		.cfi_def_cfa_offset 20
 562              		.loc 1 87 3 view .LVU140
 563 000f 6A04     		pushl	$4
 564              		.cfi_def_cfa_offset 24
 565 0011 8D830000 		leal	mb_buffer@GOTOFF(%ebx), %eax
 565      0000
 566 0017 50       		pushl	%eax
 567              		.cfi_def_cfa_offset 28
 568 0018 8D830000 		leal	mb1@GOTOFF(%ebx), %eax
 568      0000
 569 001e 50       		pushl	%eax
 570              		.cfi_def_cfa_offset 32
 571 001f E8FCFFFF 		call	chMBObjectInit@PLT
 571      FF
 572              	.LVL29:
GAS LISTING /tmp/ccttH9cH.s 			page 12


 573              		.loc 1 88 1 view .LVU141
 574 0024 83C418   		addl	$24, %esp
 575              		.cfi_def_cfa_offset 8
 576 0027 5B       		popl	%ebx
 577              		.cfi_restore 3
 578              		.cfi_def_cfa_offset 4
 579 0028 C3       		ret
 580              		.cfi_endproc
 581              	.LFE303:
 582              		.size	oslib_test_002_001_setup, .-oslib_test_002_001_setup
 583              		.section	.rodata.oslib_test_002_002_execute.str1.1,"aMS",@progbits,1
 584              	.LC1:
 585 0000 77726F6E 		.string	"wrong size"
 585      67207369 
 585      7A6500
 586              	.LC2:
 587 000b 6E6F7420 		.string	"not empty"
 587      656D7074 
 587      7900
 588              	.LC3:
 589 0015 7374696C 		.string	"still full"
 589      6C206675 
 589      6C6C00
 590              		.section	.rodata.oslib_test_002_002_execute.str1.4,"aMS",@progbits,1
 591              		.align 4
 592              	.LC4:
 593 0000 77726974 		.string	"write pointer not aligned to base"
 593      6520706F 
 593      696E7465 
 593      72206E6F 
 593      7420616C 
 594 0022 0000     		.align 4
 595              	.LC5:
 596 0024 72656164 		.string	"read pointer not aligned to base"
 596      20706F69 
 596      6E746572 
 596      206E6F74 
 596      20616C69 
 597              		.section	.rodata.oslib_test_002_002_execute.str1.1
 598              	.LC6:
 599 0020 7374696C 		.string	"still empty"
 599      6C20656D 
 599      70747900 
 600              	.LC7:
 601 002c 6E6F7420 		.string	"not full"
 601      66756C6C 
 601      00
 602              	.LC8:
 603 0035 706F696E 		.string	"pointers not aligned"
 603      74657273 
 603      206E6F74 
 603      20616C69 
 603      676E6564 
 604              	.LC9:
 605 004a 77726F6E 		.string	"wrong get sequence"
 605      67206765 
 605      74207365 
GAS LISTING /tmp/ccttH9cH.s 			page 13


 605      7175656E 
 605      636500
 606              	.LC10:
 607 005d 41424344 		.string	"ABCD"
 607      00
 608              		.section	.text.oslib_test_002_002_execute,"ax",@progbits
 609              		.p2align 4
 610              		.type	oslib_test_002_002_execute, @function
 611              	oslib_test_002_002_execute:
 612              	.LFB308:
 613              		.loc 1 229 46 is_stmt 1 view -0
 614              		.cfi_startproc
 615 0000 55       		pushl	%ebp
 616              		.cfi_def_cfa_offset 8
 617              		.cfi_offset 5, -8
 618 0001 57       		pushl	%edi
 619              		.cfi_def_cfa_offset 12
 620              		.cfi_offset 7, -12
 621 0002 56       		pushl	%esi
 622              		.cfi_def_cfa_offset 16
 623              		.cfi_offset 6, -16
 624 0003 53       		pushl	%ebx
 625              		.cfi_def_cfa_offset 20
 626              		.cfi_offset 3, -20
 627 0004 E8FCFFFF 		call	__x86.get_pc_thunk.bx
 627      FF
 628 0009 81C30200 		addl	$_GLOBAL_OFFSET_TABLE_, %ebx
 628      0000
 629 000f 83EC44   		subl	$68, %esp
 630              		.cfi_def_cfa_offset 88
 631              		.loc 1 229 46 is_stmt 0 view .LVU143
 632 0012 65A11400 		movl	%gs:20, %eax
 632      0000
 633 0018 89442434 		movl	%eax, 52(%esp)
 634 001c 31C0     		xorl	%eax, %eax
 635              		.loc 1 230 3 is_stmt 1 view .LVU144
 636              		.loc 1 231 3 view .LVU145
 637              		.loc 1 234 3 view .LVU146
 638 001e 8BBB0000 		movl	chtest@GOT(%ebx), %edi
 638      0000
 639              		.loc 1 236 5 is_stmt 0 view .LVU147
 640 0024 8D830000 		leal	.LC1@GOTOFF(%ebx), %eax
 640      0000
 641              	.LBB1107:
 642              	.LBB1108:
 643              	.LBB1109:
 644              	.LBB1110:
 645              		.loc 3 363 16 view .LVU148
 646 002a 8BB30000 		movl	port_irq_sts@GOT(%ebx), %esi
 646      0000
 647              	.LBE1110:
 648              	.LBE1109:
 649              	.LBE1108:
 650              	.LBE1107:
 651              		.loc 1 234 3 view .LVU149
 652 0030 C7070100 		movl	$1, (%edi)
 652      0000
GAS LISTING /tmp/ccttH9cH.s 			page 14


 653              		.loc 1 236 5 is_stmt 1 view .LVU150
 654              	.LBB1117:
 655              	.LBI1107:
 656              		.file 5 "../../../os/hal/osal/rt-nil/osal.h"
 657              		.loc 5 573 20 view .LVU151
 658              		.loc 5 575 3 view .LVU152
 659              	.LBB1115:
 660              	.LBI1108:
 661              		.loc 2 407 20 view .LVU153
 662              		.loc 2 409 3 view .LVU154
 663              	.LBB1113:
 664              	.LBI1109:
 665              		.loc 3 361 20 view .LVU155
 666              	.LBB1111:
 667              		.loc 3 363 3 view .LVU156
 668              	.LBE1111:
 669              	.LBE1113:
 670              	.LBE1115:
 671              	.LBE1117:
 672              		.loc 1 236 5 is_stmt 0 view .LVU157
 673 0036 50       		pushl	%eax
 674              		.cfi_def_cfa_offset 92
 675              	.LBB1118:
 676              	.LBB1119:
 677              	.LBB1120:
 678              	.LBB1121:
 679              		.loc 4 141 28 view .LVU158
 680 0037 8B830400 		movl	4+mb1@GOTOFF(%ebx), %eax
 680      0000
 681 003d 2B830000 		subl	mb1@GOTOFF(%ebx), %eax
 681      0000
 682              	.LBE1121:
 683              	.LBE1120:
 684              	.LBE1119:
 685              	.LBE1118:
 686              	.LBB1129:
 687              	.LBB1116:
 688              	.LBB1114:
 689              	.LBB1112:
 690              		.loc 3 363 16 view .LVU159
 691 0043 C7060100 		movl	$1, (%esi)
 691      0000
 692              	.LBE1112:
 693              	.LBE1114:
 694              		.loc 2 410 35 is_stmt 1 view .LVU160
 695              		.loc 2 411 21 view .LVU161
 696              	.LBE1116:
 697              	.LBE1129:
 698              		.loc 1 236 5 view .LVU162
 699              	.LVL30:
 700              	.LBB1130:
 701              	.LBI1118:
 702              		.loc 4 168 22 view .LVU163
 703              	.LBB1128:
 704              		.loc 4 170 21 view .LVU164
 705              		.loc 4 172 3 view .LVU165
 706              	.LBB1124:
GAS LISTING /tmp/ccttH9cH.s 			page 15


 707              	.LBI1120:
 708              		.loc 4 137 22 view .LVU166
 709              	.LBB1122:
 710              		.loc 4 141 3 view .LVU167
 711              		.loc 4 141 3 is_stmt 0 view .LVU168
 712              	.LBE1122:
 713              	.LBE1124:
 714              	.LBB1125:
 715              	.LBI1125:
 716              		.loc 4 153 22 is_stmt 1 view .LVU169
 717              	.LBB1126:
 718              		.loc 4 155 21 view .LVU170
 719              		.loc 4 157 3 view .LVU171
 720              		.loc 4 157 3 is_stmt 0 view .LVU172
 721              	.LBE1126:
 722              	.LBE1125:
 723              	.LBB1127:
 724              	.LBB1123:
 725              		.loc 4 141 28 view .LVU173
 726 0049 C1F802   		sarl	$2, %eax
 727              	.LBE1123:
 728              	.LBE1127:
 729              		.loc 4 172 28 view .LVU174
 730 004c 2B831000 		subl	16+mb1@GOTOFF(%ebx), %eax
 730      0000
 731              	.LBE1128:
 732              	.LBE1130:
 733              		.loc 1 236 5 view .LVU175
 734 0052 83F804   		cmpl	$4, %eax
 735 0055 0F94C0   		sete	%al
 736 0058 0FB6C0   		movzbl	%al, %eax
 737 005b 50       		pushl	%eax
 738              		.cfi_def_cfa_offset 96
 739 005c E8FCFFFF 		call	__test_assert@PLT
 739      FF
 740              	.LVL31:
 741 0061 83C410   		addl	$16, %esp
 742              		.cfi_def_cfa_offset 80
 743 0064 84C0     		testb	%al, %al
 744 0066 7428     		je	.L17
 745              	.L21:
 746              	.LBB1131:
 747              	.LBB1132:
 748              		.loc 1 247 5 is_stmt 1 view .LVU176
 749              	.LBB1133:
 750              	.LBI1133:
 751              		.loc 5 584 20 view .LVU177
 752              		.loc 5 586 3 view .LVU178
 753              	.LBB1134:
 754              	.LBI1134:
 755              		.loc 2 421 20 view .LVU179
 756              	.LBB1135:
 757              		.loc 2 423 23 view .LVU180
 758              		.loc 2 424 34 view .LVU181
 759              		.loc 2 430 3 view .LVU182
 760              		.loc 2 430 3 view .LVU183
 761              		.loc 2 430 3 view .LVU184
GAS LISTING /tmp/ccttH9cH.s 			page 16


 762              		.loc 2 434 3 view .LVU185
 763              	.LBB1136:
 764              	.LBI1136:
 765              		.loc 3 370 20 view .LVU186
 766              	.LBB1137:
 767              		.loc 3 372 3 view .LVU187
 768              		.loc 3 372 16 is_stmt 0 view .LVU188
 769 0068 C7060000 		movl	$0, (%esi)
 769      0000
 770              	.LBE1137:
 771              	.LBE1136:
 772              	.LBE1135:
 773              	.LBE1134:
 774              	.LBE1133:
 775              		.loc 1 247 5 is_stmt 1 view .LVU189
 776              	.L16:
 777              	.LBE1132:
 778              	.LBE1131:
 779              		.loc 1 318 1 is_stmt 0 view .LVU190
 780 006e 8B44242C 		movl	44(%esp), %eax
 781 0072 652B0514 		subl	%gs:20, %eax
 781      000000
 782 0079 0F85EE03 		jne	.L30
 782      0000
 783 007f 83C43C   		addl	$60, %esp
 784              		.cfi_remember_state
 785              		.cfi_def_cfa_offset 20
 786 0082 5B       		popl	%ebx
 787              		.cfi_restore 3
 788              		.cfi_def_cfa_offset 16
 789 0083 5E       		popl	%esi
 790              		.cfi_restore 6
 791              		.cfi_def_cfa_offset 12
 792 0084 5F       		popl	%edi
 793              		.cfi_restore 7
 794              		.cfi_def_cfa_offset 8
 795 0085 5D       		popl	%ebp
 796              		.cfi_restore 5
 797              		.cfi_def_cfa_offset 4
 798 0086 C3       		ret
 799 0087 8DB42600 		.p2align 4,,10
 799      00000066 
 799      90
 800              		.p2align 3
 801              	.L17:
 802              		.cfi_restore_state
 803              	.LBB1318:
 804              	.LBI1131:
 805              		.loc 1 229 13 is_stmt 1 view .LVU191
 806              	.LBB1317:
 807              		.loc 1 236 5 view .LVU192
 808              		.loc 1 236 71 view .LVU193
 809              		.loc 1 238 3 view .LVU194
 810              		.loc 1 238 19 view .LVU195
 811              		.loc 1 242 3 view .LVU196
 812              		.loc 1 245 5 is_stmt 0 view .LVU197
 813 0090 83EC0C   		subl	$12, %esp
GAS LISTING /tmp/ccttH9cH.s 			page 17


 814              		.cfi_def_cfa_offset 92
 815 0093 8DAB0000 		leal	mb1@GOTOFF(%ebx), %ebp
 815      0000
 816              		.loc 1 242 3 view .LVU198
 817 0099 C7070200 		movl	$2, (%edi)
 817      0000
 818              		.loc 1 244 5 is_stmt 1 view .LVU199
 819              	.LBB1138:
 820              	.LBI1138:
 821              		.loc 2 407 20 view .LVU200
 822              		.loc 2 409 3 view .LVU201
 823              	.LBB1139:
 824              	.LBI1139:
 825              		.loc 3 361 20 view .LVU202
 826              	.LBB1140:
 827              		.loc 3 363 3 view .LVU203
 828              	.LBE1140:
 829              	.LBE1139:
 830              	.LBE1138:
 831              		.loc 1 245 5 is_stmt 0 view .LVU204
 832 009f 55       		pushl	%ebp
 833              		.cfi_def_cfa_offset 96
 834              	.LBB1143:
 835              	.LBB1142:
 836              	.LBB1141:
 837              		.loc 3 363 16 view .LVU205
 838 00a0 C7060100 		movl	$1, (%esi)
 838      0000
 839              	.LBE1141:
 840              	.LBE1142:
 841              		.loc 2 410 35 is_stmt 1 view .LVU206
 842              		.loc 2 411 21 view .LVU207
 843              	.LBE1143:
 844              		.loc 1 245 5 view .LVU208
 845 00a6 E8FCFFFF 		call	chMBResetI@PLT
 845      FF
 846              	.LVL32:
 847              		.loc 1 246 5 view .LVU209
 848              		.loc 1 247 5 view .LVU210
 849              	.LBB1144:
 850              	.LBI1144:
 851              		.loc 5 573 20 view .LVU211
 852              		.loc 5 575 3 view .LVU212
 853              	.LBB1145:
 854              	.LBI1145:
 855              		.loc 2 407 20 view .LVU213
 856              		.loc 2 409 3 view .LVU214
 857              	.LBB1146:
 858              	.LBI1146:
 859              		.loc 3 361 20 view .LVU215
 860              	.LBB1147:
 861              		.loc 3 363 3 view .LVU216
 862              	.LBE1147:
 863              	.LBE1146:
 864              	.LBE1145:
 865              	.LBE1144:
 866              		.loc 1 247 5 is_stmt 0 view .LVU217
GAS LISTING /tmp/ccttH9cH.s 			page 18


 867 00ab 59       		popl	%ecx
 868              		.cfi_def_cfa_offset 92
 869 00ac 58       		popl	%eax
 870              		.cfi_def_cfa_offset 88
 871 00ad 8D830000 		leal	.LC2@GOTOFF(%ebx), %eax
 871      0000
 872 00b3 8944240C 		movl	%eax, 12(%esp)
 873 00b7 50       		pushl	%eax
 874              		.cfi_def_cfa_offset 92
 875              	.LBB1151:
 876              	.LBB1152:
 877              	.LBB1153:
 878              	.LBB1154:
 879              		.loc 4 141 28 view .LVU218
 880 00b8 8B830400 		movl	4+mb1@GOTOFF(%ebx), %eax
 880      0000
 881 00be 2B830000 		subl	mb1@GOTOFF(%ebx), %eax
 881      0000
 882              	.LBE1154:
 883              	.LBE1153:
 884              	.LBE1152:
 885              	.LBE1151:
 886              	.LBB1162:
 887              	.LBB1150:
 888              	.LBB1149:
 889              	.LBB1148:
 890              		.loc 3 363 16 view .LVU219
 891 00c4 C7060100 		movl	$1, (%esi)
 891      0000
 892              	.LBE1148:
 893              	.LBE1149:
 894              		.loc 2 410 35 is_stmt 1 view .LVU220
 895              		.loc 2 411 21 view .LVU221
 896              	.LBE1150:
 897              	.LBE1162:
 898              		.loc 1 247 5 view .LVU222
 899              	.LVL33:
 900              	.LBB1163:
 901              	.LBI1151:
 902              		.loc 4 168 22 view .LVU223
 903              	.LBB1161:
 904              		.loc 4 170 21 view .LVU224
 905              		.loc 4 172 3 view .LVU225
 906              	.LBB1157:
 907              	.LBI1153:
 908              		.loc 4 137 22 view .LVU226
 909              	.LBB1155:
 910              		.loc 4 141 3 view .LVU227
 911              		.loc 4 141 3 is_stmt 0 view .LVU228
 912              	.LBE1155:
 913              	.LBE1157:
 914              	.LBB1158:
 915              	.LBI1158:
 916              		.loc 4 153 22 is_stmt 1 view .LVU229
 917              	.LBB1159:
 918              		.loc 4 155 21 view .LVU230
 919              		.loc 4 157 3 view .LVU231
GAS LISTING /tmp/ccttH9cH.s 			page 19


 920              		.loc 4 157 3 is_stmt 0 view .LVU232
 921              	.LBE1159:
 922              	.LBE1158:
 923              	.LBB1160:
 924              	.LBB1156:
 925              		.loc 4 141 28 view .LVU233
 926 00ca C1F802   		sarl	$2, %eax
 927              	.LBE1156:
 928              	.LBE1160:
 929              		.loc 4 172 28 view .LVU234
 930 00cd 2B831000 		subl	16+mb1@GOTOFF(%ebx), %eax
 930      0000
 931              	.LBE1161:
 932              	.LBE1163:
 933              		.loc 1 247 5 view .LVU235
 934 00d3 83F804   		cmpl	$4, %eax
 935 00d6 0F94C0   		sete	%al
 936 00d9 0FB6C0   		movzbl	%al, %eax
 937 00dc 50       		pushl	%eax
 938              		.cfi_def_cfa_offset 96
 939 00dd E8FCFFFF 		call	__test_assert@PLT
 939      FF
 940              	.LVL34:
 941 00e2 83C410   		addl	$16, %esp
 942              		.cfi_def_cfa_offset 80
 943 00e5 84C0     		testb	%al, %al
 944 00e7 0F857BFF 		jne	.L21
 944      FFFF
 945              		.loc 1 247 5 is_stmt 1 view .LVU236
 946              		.loc 1 247 70 view .LVU237
 947              		.loc 1 248 5 view .LVU238
 948              	.LBB1164:
 949              	.LBI1164:
 950              		.loc 5 573 20 view .LVU239
 951              		.loc 5 575 3 view .LVU240
 952              	.LBB1165:
 953              	.LBI1165:
 954              		.loc 2 407 20 view .LVU241
 955              		.loc 2 409 3 view .LVU242
 956              	.LBB1166:
 957              	.LBI1166:
 958              		.loc 3 361 20 view .LVU243
 959              	.LBB1167:
 960              		.loc 3 363 3 view .LVU244
 961              	.LBE1167:
 962              	.LBE1166:
 963              	.LBE1165:
 964              	.LBE1164:
 965              		.loc 1 248 5 is_stmt 0 view .LVU245
 966 00ed 8B931000 		movl	16+mb1@GOTOFF(%ebx), %edx
 966      0000
 967 00f3 83EC08   		subl	$8, %esp
 968              		.cfi_def_cfa_offset 88
 969 00f6 8D830000 		leal	.LC3@GOTOFF(%ebx), %eax
 969      0000
 970              	.LBB1171:
 971              	.LBB1170:
GAS LISTING /tmp/ccttH9cH.s 			page 20


 972              	.LBB1169:
 973              	.LBB1168:
 974              		.loc 3 363 16 view .LVU246
 975 00fc C7060100 		movl	$1, (%esi)
 975      0000
 976              	.LBE1168:
 977              	.LBE1169:
 978              		.loc 2 410 35 is_stmt 1 view .LVU247
 979              		.loc 2 411 21 view .LVU248
 980              	.LBE1170:
 981              	.LBE1171:
 982              		.loc 1 248 5 view .LVU249
 983              	.LVL35:
 984              	.LBB1172:
 985              	.LBI1172:
 986              		.loc 4 153 22 view .LVU250
 987              	.LBB1173:
 988              		.loc 4 155 21 view .LVU251
 989              		.loc 4 157 3 view .LVU252
 990              		.loc 4 157 3 is_stmt 0 view .LVU253
 991              	.LBE1173:
 992              	.LBE1172:
 993              		.loc 1 248 5 view .LVU254
 994 0102 89442410 		movl	%eax, 16(%esp)
 995 0106 50       		pushl	%eax
 996              		.cfi_def_cfa_offset 92
 997 0107 31C0     		xorl	%eax, %eax
 998 0109 85D2     		testl	%edx, %edx
 999 010b 0F94C0   		sete	%al
 1000 010e 50       		pushl	%eax
 1001              		.cfi_def_cfa_offset 96
 1002 010f E8FCFFFF 		call	__test_assert@PLT
 1002      FF
 1003              	.LVL36:
 1004 0114 83C410   		addl	$16, %esp
 1005              		.cfi_def_cfa_offset 80
 1006 0117 84C0     		testb	%al, %al
 1007 0119 0F8549FF 		jne	.L21
 1007      FFFF
 1008              		.loc 1 248 5 is_stmt 1 view .LVU255
 1009              		.loc 1 248 65 view .LVU256
 1010              		.loc 1 249 5 view .LVU257
 1011              	.LBB1174:
 1012              	.LBI1174:
 1013              		.loc 5 573 20 view .LVU258
 1014              		.loc 5 575 3 view .LVU259
 1015              	.LBB1175:
 1016              	.LBI1175:
 1017              		.loc 2 407 20 view .LVU260
 1018              		.loc 2 409 3 view .LVU261
 1019              	.LBB1176:
 1020              	.LBI1176:
 1021              		.loc 3 361 20 view .LVU262
 1022              	.LBB1177:
 1023              		.loc 3 363 3 view .LVU263
 1024              	.LBE1177:
 1025              	.LBE1176:
GAS LISTING /tmp/ccttH9cH.s 			page 21


 1026              	.LBE1175:
 1027              	.LBE1174:
 1028              		.loc 1 249 5 is_stmt 0 view .LVU264
 1029 011f 83EC08   		subl	$8, %esp
 1030              		.cfi_def_cfa_offset 88
 1031 0122 8D830000 		leal	.LC4@GOTOFF(%ebx), %eax
 1031      0000
 1032              	.LBB1181:
 1033              	.LBB1180:
 1034              	.LBB1179:
 1035              	.LBB1178:
 1036              		.loc 3 363 16 view .LVU265
 1037 0128 C7060100 		movl	$1, (%esi)
 1037      0000
 1038              	.LBE1178:
 1039              	.LBE1179:
 1040              		.loc 2 410 35 is_stmt 1 view .LVU266
 1041              		.loc 2 411 21 view .LVU267
 1042              	.LBE1180:
 1043              	.LBE1181:
 1044              		.loc 1 249 5 view .LVU268
 1045 012e 8944241C 		movl	%eax, 28(%esp)
 1046 0132 50       		pushl	%eax
 1047              		.cfi_def_cfa_offset 92
 1048 0133 8B830800 		movl	8+mb1@GOTOFF(%ebx), %eax
 1048      0000
 1049 0139 39830000 		cmpl	%eax, mb1@GOTOFF(%ebx)
 1049      0000
 1050 013f 0F94C0   		sete	%al
 1051 0142 0FB6C0   		movzbl	%al, %eax
 1052 0145 50       		pushl	%eax
 1053              		.cfi_def_cfa_offset 96
 1054 0146 E8FCFFFF 		call	__test_assert@PLT
 1054      FF
 1055              	.LVL37:
 1056 014b 83C410   		addl	$16, %esp
 1057              		.cfi_def_cfa_offset 80
 1058 014e 84C0     		testb	%al, %al
 1059 0150 0F8512FF 		jne	.L21
 1059      FFFF
 1060              		.loc 1 249 5 view .LVU269
 1061              		.loc 1 249 83 view .LVU270
 1062              		.loc 1 250 5 view .LVU271
 1063              	.LBB1182:
 1064              	.LBI1182:
 1065              		.loc 5 573 20 view .LVU272
 1066              		.loc 5 575 3 view .LVU273
 1067              	.LBB1183:
 1068              	.LBI1183:
 1069              		.loc 2 407 20 view .LVU274
 1070              		.loc 2 409 3 view .LVU275
 1071              	.LBB1184:
 1072              	.LBI1184:
 1073              		.loc 3 361 20 view .LVU276
 1074              	.LBB1185:
 1075              		.loc 3 363 3 view .LVU277
 1076              	.LBE1185:
GAS LISTING /tmp/ccttH9cH.s 			page 22


 1077              	.LBE1184:
 1078              	.LBE1183:
 1079              	.LBE1182:
 1080              		.loc 1 250 5 is_stmt 0 view .LVU278
 1081 0156 83EC08   		subl	$8, %esp
 1082              		.cfi_def_cfa_offset 88
 1083 0159 8D830000 		leal	.LC5@GOTOFF(%ebx), %eax
 1083      0000
 1084              	.LBB1189:
 1085              	.LBB1188:
 1086              	.LBB1187:
 1087              	.LBB1186:
 1088              		.loc 3 363 16 view .LVU279
 1089 015f C7060100 		movl	$1, (%esi)
 1089      0000
 1090              	.LBE1186:
 1091              	.LBE1187:
 1092              		.loc 2 410 35 is_stmt 1 view .LVU280
 1093              		.loc 2 411 21 view .LVU281
 1094              	.LBE1188:
 1095              	.LBE1189:
 1096              		.loc 1 250 5 view .LVU282
 1097 0165 89442420 		movl	%eax, 32(%esp)
 1098 0169 50       		pushl	%eax
 1099              		.cfi_def_cfa_offset 92
 1100 016a 8B830C00 		movl	12+mb1@GOTOFF(%ebx), %eax
 1100      0000
 1101 0170 39830000 		cmpl	%eax, mb1@GOTOFF(%ebx)
 1101      0000
 1102 0176 0F94C0   		sete	%al
 1103 0179 0FB6C0   		movzbl	%al, %eax
 1104 017c 50       		pushl	%eax
 1105              		.cfi_def_cfa_offset 96
 1106 017d E8FCFFFF 		call	__test_assert@PLT
 1106      FF
 1107              	.LVL38:
 1108 0182 83C410   		addl	$16, %esp
 1109              		.cfi_def_cfa_offset 80
 1110 0185 84C0     		testb	%al, %al
 1111 0187 0F85DBFE 		jne	.L21
 1111      FFFF
 1112              		.loc 1 250 5 view .LVU283
 1113              		.loc 1 250 82 view .LVU284
 1114              		.loc 1 251 5 view .LVU285
 1115              	.LVL39:
 1116              	.LBB1190:
 1117              	.LBI1190:
 1118              		.loc 4 201 20 view .LVU286
 1119              	.LBB1191:
 1120              		.loc 4 203 3 view .LVU287
 1121 018d 8D830000 		leal	.LC0@GOTOFF(%ebx), %eax
 1121      0000
 1122              	.LBE1191:
 1123              	.LBE1190:
 1124              		.loc 1 257 3 is_stmt 0 view .LVU288
 1125 0193 C7070300 		movl	$3, (%edi)
 1125      0000
GAS LISTING /tmp/ccttH9cH.s 			page 23


 1126 0199 BA420000 		movl	$66, %edx
 1126      00
 1127              	.LBB1193:
 1128              	.LBB1192:
 1129              		.loc 4 203 14 view .LVU289
 1130 019e C6831400 		movb	$0, 20+mb1@GOTOFF(%ebx)
 1130      000000
 1131              	.LVL40:
 1132              		.loc 4 203 14 view .LVU290
 1133              	.LBE1192:
 1134              	.LBE1193:
 1135              		.loc 1 253 3 is_stmt 1 view .LVU291
 1136              		.loc 1 253 19 view .LVU292
 1137              		.loc 1 257 3 view .LVU293
 1138              		.loc 1 259 5 view .LVU294
 1139              		.loc 1 259 19 view .LVU295
 1140 01a5 8944240C 		movl	%eax, 12(%esp)
 1141 01a9 896C2410 		movl	%ebp, 16(%esp)
 1142 01ad 89D5     		movl	%edx, %ebp
 1143              	.LVL41:
 1144              	.L23:
 1145              		.loc 1 260 7 view .LVU296
 1146              	.LBB1194:
 1147              	.LBI1194:
 1148              		.loc 2 407 20 view .LVU297
 1149              		.loc 2 409 3 view .LVU298
 1150              	.LBB1195:
 1151              	.LBI1195:
 1152              		.loc 3 361 20 view .LVU299
 1153              	.LBB1196:
 1154              		.loc 3 363 3 view .LVU300
 1155              	.LBE1196:
 1156              	.LBE1195:
 1157              	.LBE1194:
 1158              		.loc 1 261 14 is_stmt 0 view .LVU301
 1159 01af 83EC08   		subl	$8, %esp
 1160              		.cfi_def_cfa_offset 88
 1161              	.LBB1199:
 1162              	.LBB1198:
 1163              	.LBB1197:
 1164              		.loc 3 363 16 view .LVU302
 1165 01b2 C7060100 		movl	$1, (%esi)
 1165      0000
 1166              	.LBE1197:
 1167              	.LBE1198:
 1168              		.loc 2 410 35 is_stmt 1 view .LVU303
 1169              		.loc 2 411 21 view .LVU304
 1170              	.LBE1199:
 1171              		.loc 1 261 7 view .LVU305
 1172              		.loc 1 261 14 is_stmt 0 view .LVU306
 1173 01b8 55       		pushl	%ebp
 1174              		.cfi_def_cfa_offset 92
 1175 01b9 FF74241C 		pushl	28(%esp)
 1176              		.cfi_def_cfa_offset 96
 1177 01bd E8FCFFFF 		call	chMBPostI@PLT
 1177      FF
 1178              	.LVL42:
GAS LISTING /tmp/ccttH9cH.s 			page 24


 1179              		.loc 1 262 7 is_stmt 1 view .LVU307
 1180              	.LBB1200:
 1181              	.LBI1200:
 1182              		.loc 2 421 20 view .LVU308
 1183              	.LBB1201:
 1184              		.loc 2 423 23 view .LVU309
 1185              		.loc 2 424 34 view .LVU310
 1186              		.loc 2 430 3 view .LVU311
 1187              		.loc 2 430 3 view .LVU312
 1188              		.loc 2 430 3 view .LVU313
 1189              		.loc 2 434 3 view .LVU314
 1190              	.LBB1202:
 1191              	.LBI1202:
 1192              		.loc 3 370 20 view .LVU315
 1193              	.LBB1203:
 1194              		.loc 3 372 3 view .LVU316
 1195              	.LBE1203:
 1196              	.LBE1202:
 1197              	.LBE1201:
 1198              	.LBE1200:
 1199              		.loc 1 263 7 is_stmt 0 view .LVU317
 1200 01c2 5A       		popl	%edx
 1201              		.cfi_def_cfa_offset 92
 1202 01c3 59       		popl	%ecx
 1203              		.cfi_def_cfa_offset 88
 1204 01c4 FF742414 		pushl	20(%esp)
 1205              		.cfi_def_cfa_offset 92
 1206 01c8 85C0     		testl	%eax, %eax
 1207              	.LBB1207:
 1208              	.LBB1206:
 1209              	.LBB1205:
 1210              	.LBB1204:
 1211              		.loc 3 372 16 view .LVU318
 1212 01ca C7060000 		movl	$0, (%esi)
 1212      0000
 1213              	.LBE1204:
 1214              	.LBE1205:
 1215              	.LBE1206:
 1216              	.LBE1207:
 1217              		.loc 1 263 7 is_stmt 1 view .LVU319
 1218 01d0 0F94C0   		sete	%al
 1219              	.LVL43:
 1220              		.loc 1 263 7 is_stmt 0 view .LVU320
 1221 01d3 0FB6C0   		movzbl	%al, %eax
 1222 01d6 50       		pushl	%eax
 1223              		.cfi_def_cfa_offset 96
 1224 01d7 E8FCFFFF 		call	__test_assert@PLT
 1224      FF
 1225              	.LVL44:
 1226 01dc 83C410   		addl	$16, %esp
 1227              		.cfi_def_cfa_offset 80
 1228 01df 84C0     		testb	%al, %al
 1229 01e1 0F8587FE 		jne	.L16
 1229      FFFF
 1230              		.loc 1 263 59 is_stmt 1 view .LVU321
 1231              		.loc 1 259 35 view .LVU322
 1232              	.LVL45:
GAS LISTING /tmp/ccttH9cH.s 			page 25


 1233              		.loc 1 259 19 view .LVU323
 1234 01e7 83C501   		addl	$1, %ebp
 1235              	.LVL46:
 1236              		.loc 1 259 19 is_stmt 0 view .LVU324
 1237 01ea 83FD45   		cmpl	$69, %ebp
 1238 01ed 75C0     		jne	.L23
 1239              	.LBB1208:
 1240              	.LBB1209:
 1241              	.LBB1210:
 1242              		.loc 3 363 16 view .LVU325
 1243 01ef 8B6C2410 		movl	16(%esp), %ebp
 1244              	.LVL47:
 1245              		.loc 3 363 16 view .LVU326
 1246              	.LBE1210:
 1247              	.LBE1209:
 1248              	.LBE1208:
 1249              		.loc 1 265 5 is_stmt 1 view .LVU327
 1250              	.LBB1215:
 1251              	.LBI1208:
 1252              		.loc 2 407 20 view .LVU328
 1253              		.loc 2 409 3 view .LVU329
 1254              	.LBB1213:
 1255              	.LBI1209:
 1256              		.loc 3 361 20 view .LVU330
 1257              	.LBB1211:
 1258              		.loc 3 363 3 view .LVU331
 1259              	.LBE1211:
 1260              	.LBE1213:
 1261              	.LBE1215:
 1262              		.loc 1 266 12 is_stmt 0 view .LVU332
 1263 01f3 83EC08   		subl	$8, %esp
 1264              		.cfi_def_cfa_offset 88
 1265              	.LBB1216:
 1266              	.LBB1214:
 1267              	.LBB1212:
 1268              		.loc 3 363 16 view .LVU333
 1269 01f6 C7060100 		movl	$1, (%esi)
 1269      0000
 1270              	.LBE1212:
 1271              	.LBE1214:
 1272              		.loc 2 410 35 is_stmt 1 view .LVU334
 1273              		.loc 2 411 21 view .LVU335
 1274              	.LBE1216:
 1275              		.loc 1 266 5 view .LVU336
 1276              		.loc 1 266 12 is_stmt 0 view .LVU337
 1277 01fc 6A41     		pushl	$65
 1278              		.cfi_def_cfa_offset 92
 1279 01fe 55       		pushl	%ebp
 1280              		.cfi_def_cfa_offset 96
 1281 01ff E8FCFFFF 		call	chMBPostAheadI@PLT
 1281      FF
 1282              	.LVL48:
 1283              		.loc 1 267 5 is_stmt 1 view .LVU338
 1284              	.LBB1217:
 1285              	.LBI1217:
 1286              		.loc 2 421 20 view .LVU339
 1287              	.LBB1218:
GAS LISTING /tmp/ccttH9cH.s 			page 26


 1288              		.loc 2 423 23 view .LVU340
 1289              		.loc 2 424 34 view .LVU341
 1290              		.loc 2 430 3 view .LVU342
 1291              		.loc 2 430 3 view .LVU343
 1292              		.loc 2 430 3 view .LVU344
 1293              		.loc 2 434 3 view .LVU345
 1294              	.LBB1219:
 1295              	.LBI1219:
 1296              		.loc 3 370 20 view .LVU346
 1297              	.LBB1220:
 1298              		.loc 3 372 3 view .LVU347
 1299              	.LBE1220:
 1300              	.LBE1219:
 1301              	.LBE1218:
 1302              	.LBE1217:
 1303              		.loc 1 268 5 is_stmt 0 view .LVU348
 1304 0204 5A       		popl	%edx
 1305              		.cfi_def_cfa_offset 92
 1306 0205 59       		popl	%ecx
 1307              		.cfi_def_cfa_offset 88
 1308 0206 FF742414 		pushl	20(%esp)
 1309              		.cfi_def_cfa_offset 92
 1310 020a 85C0     		testl	%eax, %eax
 1311              	.LBB1224:
 1312              	.LBB1223:
 1313              	.LBB1222:
 1314              	.LBB1221:
 1315              		.loc 3 372 16 view .LVU349
 1316 020c C7060000 		movl	$0, (%esi)
 1316      0000
 1317              	.LBE1221:
 1318              	.LBE1222:
 1319              	.LBE1223:
 1320              	.LBE1224:
 1321              		.loc 1 268 5 is_stmt 1 view .LVU350
 1322 0212 0F94C0   		sete	%al
 1323              	.LVL49:
 1324              		.loc 1 268 5 is_stmt 0 view .LVU351
 1325 0215 0FB6C0   		movzbl	%al, %eax
 1326 0218 50       		pushl	%eax
 1327              		.cfi_def_cfa_offset 96
 1328 0219 E8FCFFFF 		call	__test_assert@PLT
 1328      FF
 1329              	.LVL50:
 1330 021e 83C410   		addl	$16, %esp
 1331              		.cfi_def_cfa_offset 80
 1332 0221 84C0     		testb	%al, %al
 1333 0223 0F8545FE 		jne	.L16
 1333      FFFF
 1334              		.loc 1 268 57 is_stmt 1 view .LVU352
 1335              		.loc 1 270 3 view .LVU353
 1336              		.loc 1 270 19 view .LVU354
 1337              		.loc 1 274 3 view .LVU355
 1338              		.loc 1 276 5 is_stmt 0 view .LVU356
 1339 0229 83EC08   		subl	$8, %esp
 1340              		.cfi_def_cfa_offset 88
 1341 022c 8D830000 		leal	.LC6@GOTOFF(%ebx), %eax
GAS LISTING /tmp/ccttH9cH.s 			page 27


 1341      0000
 1342              		.loc 1 274 3 view .LVU357
 1343 0232 C7070400 		movl	$4, (%edi)
 1343      0000
 1344              		.loc 1 276 5 is_stmt 1 view .LVU358
 1345              	.LBB1225:
 1346              	.LBI1225:
 1347              		.loc 5 573 20 view .LVU359
 1348              		.loc 5 575 3 view .LVU360
 1349              	.LBB1226:
 1350              	.LBI1226:
 1351              		.loc 2 407 20 view .LVU361
 1352              		.loc 2 409 3 view .LVU362
 1353              	.LBB1227:
 1354              	.LBI1227:
 1355              		.loc 3 361 20 view .LVU363
 1356              	.LBB1228:
 1357              		.loc 3 363 3 view .LVU364
 1358              	.LBE1228:
 1359              	.LBE1227:
 1360              	.LBE1226:
 1361              	.LBE1225:
 1362              		.loc 1 276 5 is_stmt 0 view .LVU365
 1363 0238 50       		pushl	%eax
 1364              		.cfi_def_cfa_offset 92
 1365              	.LBB1232:
 1366              	.LBB1233:
 1367              	.LBB1234:
 1368              		.loc 4 141 28 view .LVU366
 1369 0239 8B830400 		movl	4+mb1@GOTOFF(%ebx), %eax
 1369      0000
 1370 023f 2B830000 		subl	mb1@GOTOFF(%ebx), %eax
 1370      0000
 1371              	.LBE1234:
 1372              	.LBE1233:
 1373              	.LBE1232:
 1374              	.LBB1241:
 1375              	.LBB1231:
 1376              	.LBB1230:
 1377              	.LBB1229:
 1378              		.loc 3 363 16 view .LVU367
 1379 0245 C7060100 		movl	$1, (%esi)
 1379      0000
 1380              	.LBE1229:
 1381              	.LBE1230:
 1382              		.loc 2 410 35 is_stmt 1 view .LVU368
 1383              		.loc 2 411 21 view .LVU369
 1384              	.LBE1231:
 1385              	.LBE1241:
 1386              		.loc 1 276 5 view .LVU370
 1387              	.LVL51:
 1388              	.LBB1242:
 1389              	.LBI1232:
 1390              		.loc 4 168 22 view .LVU371
 1391              		.loc 4 170 21 view .LVU372
 1392              		.loc 4 172 3 view .LVU373
 1393              	.LBB1237:
GAS LISTING /tmp/ccttH9cH.s 			page 28


 1394              	.LBI1233:
 1395              		.loc 4 137 22 view .LVU374
 1396              	.LBB1235:
 1397              		.loc 4 141 3 view .LVU375
 1398              		.loc 4 141 3 is_stmt 0 view .LVU376
 1399              	.LBE1235:
 1400              	.LBE1237:
 1401              	.LBB1238:
 1402              	.LBI1238:
 1403              		.loc 4 153 22 is_stmt 1 view .LVU377
 1404              	.LBB1239:
 1405              		.loc 4 155 21 view .LVU378
 1406              		.loc 4 157 3 view .LVU379
 1407              		.loc 4 157 3 is_stmt 0 view .LVU380
 1408              	.LBE1239:
 1409              	.LBE1238:
 1410              	.LBB1240:
 1411              	.LBB1236:
 1412              		.loc 4 141 28 view .LVU381
 1413 024b C1F802   		sarl	$2, %eax
 1414              	.LBE1236:
 1415              	.LBE1240:
 1416              	.LBE1242:
 1417              		.loc 1 276 5 view .LVU382
 1418 024e 3B831000 		cmpl	16+mb1@GOTOFF(%ebx), %eax
 1418      0000
 1419 0254 0F94C0   		sete	%al
 1420 0257 0FB6C0   		movzbl	%al, %eax
 1421 025a 50       		pushl	%eax
 1422              		.cfi_def_cfa_offset 96
 1423 025b E8FCFFFF 		call	__test_assert@PLT
 1423      FF
 1424              	.LVL52:
 1425 0260 83C410   		addl	$16, %esp
 1426              		.cfi_def_cfa_offset 80
 1427 0263 84C0     		testb	%al, %al
 1428 0265 0F85FDFD 		jne	.L21
 1428      FFFF
 1429              		.loc 1 276 5 is_stmt 1 view .LVU383
 1430              		.loc 1 276 66 view .LVU384
 1431              		.loc 1 277 5 view .LVU385
 1432              	.LBB1243:
 1433              	.LBI1243:
 1434              		.loc 5 573 20 view .LVU386
 1435              		.loc 5 575 3 view .LVU387
 1436              	.LBB1244:
 1437              	.LBI1244:
 1438              		.loc 2 407 20 view .LVU388
 1439              		.loc 2 409 3 view .LVU389
 1440              	.LBB1245:
 1441              	.LBI1245:
 1442              		.loc 3 361 20 view .LVU390
 1443              	.LBB1246:
 1444              		.loc 3 363 3 view .LVU391
 1445              	.LBE1246:
 1446              	.LBE1245:
 1447              	.LBE1244:
GAS LISTING /tmp/ccttH9cH.s 			page 29


 1448              	.LBE1243:
 1449              		.loc 1 277 5 is_stmt 0 view .LVU392
 1450 026b 83EC08   		subl	$8, %esp
 1451              		.cfi_def_cfa_offset 88
 1452 026e 8D830000 		leal	.LC7@GOTOFF(%ebx), %eax
 1452      0000
 1453              	.LBB1250:
 1454              	.LBB1249:
 1455              	.LBB1248:
 1456              	.LBB1247:
 1457              		.loc 3 363 16 view .LVU393
 1458 0274 C7060100 		movl	$1, (%esi)
 1458      0000
 1459              	.LBE1247:
 1460              	.LBE1248:
 1461              		.loc 2 410 35 is_stmt 1 view .LVU394
 1462              		.loc 2 411 21 view .LVU395
 1463              	.LBE1249:
 1464              	.LBE1250:
 1465              		.loc 1 277 5 view .LVU396
 1466              	.LVL53:
 1467              	.LBB1251:
 1468              	.LBI1251:
 1469              		.loc 4 153 22 view .LVU397
 1470              	.LBB1252:
 1471              		.loc 4 155 21 view .LVU398
 1472              		.loc 4 157 3 view .LVU399
 1473              		.loc 4 157 3 is_stmt 0 view .LVU400
 1474              	.LBE1252:
 1475              	.LBE1251:
 1476              		.loc 1 277 5 view .LVU401
 1477 027a 50       		pushl	%eax
 1478              		.cfi_def_cfa_offset 92
 1479 027b 31C0     		xorl	%eax, %eax
 1480 027d 83BB1000 		cmpl	$4, 16+mb1@GOTOFF(%ebx)
 1480      000004
 1481 0284 0F94C0   		sete	%al
 1482 0287 50       		pushl	%eax
 1483              		.cfi_def_cfa_offset 96
 1484 0288 E8FCFFFF 		call	__test_assert@PLT
 1484      FF
 1485              	.LVL54:
 1486 028d 83C410   		addl	$16, %esp
 1487              		.cfi_def_cfa_offset 80
 1488 0290 84C0     		testb	%al, %al
 1489 0292 0F85D0FD 		jne	.L21
 1489      FFFF
 1490              		.loc 1 277 5 is_stmt 1 view .LVU402
 1491              		.loc 1 277 69 view .LVU403
 1492              		.loc 1 278 5 view .LVU404
 1493              	.LBB1253:
 1494              	.LBI1253:
 1495              		.loc 5 573 20 view .LVU405
 1496              		.loc 5 575 3 view .LVU406
 1497              	.LBB1254:
 1498              	.LBI1254:
 1499              		.loc 2 407 20 view .LVU407
GAS LISTING /tmp/ccttH9cH.s 			page 30


 1500              		.loc 2 409 3 view .LVU408
 1501              	.LBB1255:
 1502              	.LBI1255:
 1503              		.loc 3 361 20 view .LVU409
 1504              	.LBB1256:
 1505              		.loc 3 363 3 view .LVU410
 1506              	.LBE1256:
 1507              	.LBE1255:
 1508              	.LBE1254:
 1509              	.LBE1253:
 1510              		.loc 1 278 5 is_stmt 0 view .LVU411
 1511 0298 83EC08   		subl	$8, %esp
 1512              		.cfi_def_cfa_offset 88
 1513 029b 8D830000 		leal	.LC8@GOTOFF(%ebx), %eax
 1513      0000
 1514              	.LBB1260:
 1515              	.LBB1259:
 1516              	.LBB1258:
 1517              	.LBB1257:
 1518              		.loc 3 363 16 view .LVU412
 1519 02a1 C7060100 		movl	$1, (%esi)
 1519      0000
 1520              	.LBE1257:
 1521              	.LBE1258:
 1522              		.loc 2 410 35 is_stmt 1 view .LVU413
 1523              		.loc 2 411 21 view .LVU414
 1524              	.LBE1259:
 1525              	.LBE1260:
 1526              		.loc 1 278 5 view .LVU415
 1527 02a7 50       		pushl	%eax
 1528              		.cfi_def_cfa_offset 92
 1529 02a8 8B830800 		movl	8+mb1@GOTOFF(%ebx), %eax
 1529      0000
 1530 02ae 39830C00 		cmpl	%eax, 12+mb1@GOTOFF(%ebx)
 1530      0000
 1531 02b4 0F94C0   		sete	%al
 1532 02b7 0FB6C0   		movzbl	%al, %eax
 1533 02ba 50       		pushl	%eax
 1534              		.cfi_def_cfa_offset 96
 1535 02bb E8FCFFFF 		call	__test_assert@PLT
 1535      FF
 1536              	.LVL55:
 1537 02c0 83C410   		addl	$16, %esp
 1538              		.cfi_def_cfa_offset 80
 1539 02c3 84C0     		testb	%al, %al
 1540 02c5 0F859DFD 		jne	.L21
 1540      FFFF
 1541              		.loc 1 278 5 view .LVU416
 1542              		.loc 1 278 69 view .LVU417
 1543              		.loc 1 280 3 view .LVU418
 1544              		.loc 1 280 19 view .LVU419
 1545              		.loc 1 284 3 view .LVU420
 1546 02cb 8D442428 		leal	40(%esp), %eax
 1547 02cf C7070500 		movl	$5, (%edi)
 1547      0000
 1548              		.loc 1 286 5 view .LVU421
 1549              	.LVL56:
GAS LISTING /tmp/ccttH9cH.s 			page 31


 1550              		.loc 1 286 19 view .LVU422
 1551              		.loc 1 284 3 is_stmt 0 view .LVU423
 1552 02d5 C744241C 		movl	$4, 28(%esp)
 1552      04000000 
 1553 02dd 89442410 		movl	%eax, 16(%esp)
 1554              	.LVL57:
 1555              	.L25:
 1556              		.loc 1 287 7 is_stmt 1 view .LVU424
 1557              	.LBB1261:
 1558              	.LBI1261:
 1559              		.loc 2 407 20 view .LVU425
 1560              		.loc 2 409 3 view .LVU426
 1561              	.LBB1262:
 1562              	.LBI1262:
 1563              		.loc 3 361 20 view .LVU427
 1564              	.LBB1263:
 1565              		.loc 3 363 3 view .LVU428
 1566              	.LBE1263:
 1567              	.LBE1262:
 1568              	.LBE1261:
 1569              		.loc 1 288 14 is_stmt 0 view .LVU429
 1570 02e1 83EC08   		subl	$8, %esp
 1571              		.cfi_def_cfa_offset 88
 1572              	.LBB1266:
 1573              	.LBB1265:
 1574              	.LBB1264:
 1575              		.loc 3 363 16 view .LVU430
 1576 02e4 C7060100 		movl	$1, (%esi)
 1576      0000
 1577              	.LBE1264:
 1578              	.LBE1265:
 1579              		.loc 2 410 35 is_stmt 1 view .LVU431
 1580              		.loc 2 411 21 view .LVU432
 1581              	.LBE1266:
 1582              		.loc 1 288 7 view .LVU433
 1583              		.loc 1 288 14 is_stmt 0 view .LVU434
 1584 02ea FF742418 		pushl	24(%esp)
 1585              		.cfi_def_cfa_offset 92
 1586 02ee 55       		pushl	%ebp
 1587              		.cfi_def_cfa_offset 96
 1588 02ef E8FCFFFF 		call	chMBFetchI@PLT
 1588      FF
 1589              	.LVL58:
 1590              		.loc 1 289 7 is_stmt 1 view .LVU435
 1591              	.LBB1267:
 1592              	.LBI1267:
 1593              		.loc 2 421 20 view .LVU436
 1594              	.LBB1268:
 1595              		.loc 2 423 23 view .LVU437
 1596              		.loc 2 424 34 view .LVU438
 1597              		.loc 2 430 3 view .LVU439
 1598              		.loc 2 430 3 view .LVU440
 1599              		.loc 2 430 3 view .LVU441
 1600              		.loc 2 434 3 view .LVU442
 1601              	.LBB1269:
 1602              	.LBI1269:
 1603              		.loc 3 370 20 view .LVU443
GAS LISTING /tmp/ccttH9cH.s 			page 32


 1604              	.LBB1270:
 1605              		.loc 3 372 3 view .LVU444
 1606              	.LBE1270:
 1607              	.LBE1269:
 1608              	.LBE1268:
 1609              	.LBE1267:
 1610              		.loc 1 290 7 is_stmt 0 view .LVU445
 1611 02f4 5A       		popl	%edx
 1612              		.cfi_def_cfa_offset 92
 1613 02f5 59       		popl	%ecx
 1614              		.cfi_def_cfa_offset 88
 1615 02f6 FF742414 		pushl	20(%esp)
 1616              		.cfi_def_cfa_offset 92
 1617 02fa 85C0     		testl	%eax, %eax
 1618              	.LBB1274:
 1619              	.LBB1273:
 1620              	.LBB1272:
 1621              	.LBB1271:
 1622              		.loc 3 372 16 view .LVU446
 1623 02fc C7060000 		movl	$0, (%esi)
 1623      0000
 1624              	.LBE1271:
 1625              	.LBE1272:
 1626              	.LBE1273:
 1627              	.LBE1274:
 1628              		.loc 1 290 7 is_stmt 1 view .LVU447
 1629 0302 0F94C0   		sete	%al
 1630              	.LVL59:
 1631              		.loc 1 290 7 is_stmt 0 view .LVU448
 1632 0305 0FB6C0   		movzbl	%al, %eax
 1633 0308 50       		pushl	%eax
 1634              		.cfi_def_cfa_offset 96
 1635 0309 E8FCFFFF 		call	__test_assert@PLT
 1635      FF
 1636              	.LVL60:
 1637 030e 83C410   		addl	$16, %esp
 1638              		.cfi_def_cfa_offset 80
 1639 0311 84C0     		testb	%al, %al
 1640 0313 0F8555FD 		jne	.L16
 1640      FFFF
 1641              		.loc 1 290 59 is_stmt 1 view .LVU449
 1642              		.loc 1 291 7 view .LVU450
 1643 0319 83EC0C   		subl	$12, %esp
 1644              		.cfi_def_cfa_offset 92
 1645 031c 0FBE4424 		movsbl	52(%esp), %eax
 1645      34
 1646 0321 50       		pushl	%eax
 1647              		.cfi_def_cfa_offset 96
 1648 0322 E8FCFFFF 		call	test_emit_token@PLT
 1648      FF
 1649              	.LVL61:
 1650              		.loc 1 286 31 view .LVU451
 1651              		.loc 1 286 19 view .LVU452
 1652 0327 83C410   		addl	$16, %esp
 1653              		.cfi_def_cfa_offset 80
 1654 032a 836C241C 		subl	$1, 28(%esp)
 1654      01
GAS LISTING /tmp/ccttH9cH.s 			page 33


 1655              	.LVL62:
 1656              		.loc 1 286 19 is_stmt 0 view .LVU453
 1657 032f 75B0     		jne	.L25
 1658              		.loc 1 293 5 is_stmt 1 view .LVU454
 1659 0331 83EC08   		subl	$8, %esp
 1660              		.cfi_def_cfa_offset 88
 1661 0334 8D830000 		leal	.LC9@GOTOFF(%ebx), %eax
 1661      0000
 1662 033a 50       		pushl	%eax
 1663              		.cfi_def_cfa_offset 92
 1664 033b 8D830000 		leal	.LC10@GOTOFF(%ebx), %eax
 1664      0000
 1665 0341 50       		pushl	%eax
 1666              		.cfi_def_cfa_offset 96
 1667 0342 E8FCFFFF 		call	__test_assert_sequence@PLT
 1667      FF
 1668              	.LVL63:
 1669 0347 83C410   		addl	$16, %esp
 1670              		.cfi_def_cfa_offset 80
 1671 034a 84C0     		testb	%al, %al
 1672 034c 0F851CFD 		jne	.L16
 1672      FFFF
 1673              		.loc 1 293 55 view .LVU455
 1674              		.loc 1 295 3 view .LVU456
 1675              		.loc 1 295 19 view .LVU457
 1676              		.loc 1 299 3 view .LVU458
 1677 0352 C7070600 		movl	$6, (%edi)
 1677      0000
 1678              		.loc 1 301 5 view .LVU459
 1679              		.loc 1 301 12 is_stmt 0 view .LVU460
 1680 0358 50       		pushl	%eax
 1681              		.cfi_def_cfa_offset 84
 1682 0359 6AFF     		pushl	$-1
 1683              		.cfi_def_cfa_offset 88
 1684 035b 6A46     		pushl	$70
 1685              		.cfi_def_cfa_offset 92
 1686 035d 55       		pushl	%ebp
 1687              		.cfi_def_cfa_offset 96
 1688 035e E8FCFFFF 		call	chMBPostTimeout@PLT
 1688      FF
 1689              	.LVL64:
 1690              		.loc 1 302 5 is_stmt 1 view .LVU461
 1691 0363 5A       		popl	%edx
 1692              		.cfi_def_cfa_offset 92
 1693 0364 59       		popl	%ecx
 1694              		.cfi_def_cfa_offset 88
 1695 0365 FF742414 		pushl	20(%esp)
 1696              		.cfi_def_cfa_offset 92
 1697 0369 85C0     		testl	%eax, %eax
 1698 036b 0F94C0   		sete	%al
 1699              	.LVL65:
 1700              		.loc 1 302 5 is_stmt 0 view .LVU462
 1701 036e 0FB6C0   		movzbl	%al, %eax
 1702 0371 50       		pushl	%eax
 1703              		.cfi_def_cfa_offset 96
 1704 0372 E8FCFFFF 		call	__test_assert@PLT
 1704      FF
GAS LISTING /tmp/ccttH9cH.s 			page 34


 1705              	.LVL66:
 1706 0377 83C410   		addl	$16, %esp
 1707              		.cfi_def_cfa_offset 80
 1708 037a 84C0     		testb	%al, %al
 1709 037c 0F85ECFC 		jne	.L16
 1709      FFFF
 1710              		.loc 1 302 57 is_stmt 1 view .LVU463
 1711              		.loc 1 303 5 view .LVU464
 1712              		.loc 1 303 12 is_stmt 0 view .LVU465
 1713 0382 50       		pushl	%eax
 1714              		.cfi_def_cfa_offset 84
 1715 0383 6AFF     		pushl	$-1
 1716              		.cfi_def_cfa_offset 88
 1717 0385 FF742418 		pushl	24(%esp)
 1718              		.cfi_def_cfa_offset 92
 1719 0389 55       		pushl	%ebp
 1720              		.cfi_def_cfa_offset 96
 1721 038a E8FCFFFF 		call	chMBFetchTimeout@PLT
 1721      FF
 1722              	.LVL67:
 1723              		.loc 1 304 5 is_stmt 1 view .LVU466
 1724 038f 5A       		popl	%edx
 1725              		.cfi_def_cfa_offset 92
 1726 0390 59       		popl	%ecx
 1727              		.cfi_def_cfa_offset 88
 1728 0391 FF742414 		pushl	20(%esp)
 1729              		.cfi_def_cfa_offset 92
 1730 0395 85C0     		testl	%eax, %eax
 1731 0397 0F94C0   		sete	%al
 1732              	.LVL68:
 1733              		.loc 1 304 5 is_stmt 0 view .LVU467
 1734 039a 0FB6C0   		movzbl	%al, %eax
 1735 039d 50       		pushl	%eax
 1736              		.cfi_def_cfa_offset 96
 1737 039e E8FCFFFF 		call	__test_assert@PLT
 1737      FF
 1738              	.LVL69:
 1739 03a3 83C410   		addl	$16, %esp
 1740              		.cfi_def_cfa_offset 80
 1741 03a6 84C0     		testb	%al, %al
 1742 03a8 0F85C0FC 		jne	.L16
 1742      FFFF
 1743              		.loc 1 304 57 is_stmt 1 view .LVU468
 1744              		.loc 1 306 3 view .LVU469
 1745              		.loc 1 306 19 view .LVU470
 1746              		.loc 1 310 3 view .LVU471
 1747              	.LBB1275:
 1748              	.LBB1276:
 1749              	.LBB1277:
 1750              	.LBB1278:
 1751              		.loc 4 141 28 is_stmt 0 view .LVU472
 1752 03ae 8B830400 		movl	4+mb1@GOTOFF(%ebx), %eax
 1752      0000
 1753 03b4 2B830000 		subl	mb1@GOTOFF(%ebx), %eax
 1753      0000
 1754              	.LBE1278:
 1755              	.LBE1277:
GAS LISTING /tmp/ccttH9cH.s 			page 35


 1756              	.LBE1276:
 1757              	.LBE1275:
 1758              		.loc 1 310 3 view .LVU473
 1759 03ba C7070700 		movl	$7, (%edi)
 1759      0000
 1760              		.loc 1 312 5 is_stmt 1 view .LVU474
 1761              	.LBB1287:
 1762              	.LBI1287:
 1763              		.loc 5 573 20 view .LVU475
 1764              		.loc 5 575 3 view .LVU476
 1765              	.LBB1288:
 1766              	.LBI1288:
 1767              		.loc 2 407 20 view .LVU477
 1768              		.loc 2 409 3 view .LVU478
 1769              	.LBB1289:
 1770              	.LBI1289:
 1771              		.loc 3 361 20 view .LVU479
 1772              	.LBB1290:
 1773              		.loc 3 363 3 view .LVU480
 1774              	.LBE1290:
 1775              	.LBE1289:
 1776              	.LBE1288:
 1777              	.LBE1287:
 1778              	.LBB1294:
 1779              	.LBB1285:
 1780              	.LBB1281:
 1781              	.LBB1279:
 1782              		.loc 4 141 28 is_stmt 0 view .LVU481
 1783 03c0 C1F802   		sarl	$2, %eax
 1784              	.LBE1279:
 1785              	.LBE1281:
 1786              		.loc 4 172 28 view .LVU482
 1787 03c3 2B831000 		subl	16+mb1@GOTOFF(%ebx), %eax
 1787      0000
 1788              	.LBE1285:
 1789              	.LBE1294:
 1790              		.loc 1 312 5 view .LVU483
 1791 03c9 57       		pushl	%edi
 1792              		.cfi_def_cfa_offset 84
 1793 03ca 83F804   		cmpl	$4, %eax
 1794 03cd 57       		pushl	%edi
 1795              		.cfi_def_cfa_offset 88
 1796 03ce 0F94C0   		sete	%al
 1797 03d1 FF74240C 		pushl	12(%esp)
 1798              		.cfi_def_cfa_offset 92
 1799 03d5 0FB6C0   		movzbl	%al, %eax
 1800              	.LBB1295:
 1801              	.LBB1293:
 1802              	.LBB1292:
 1803              	.LBB1291:
 1804              		.loc 3 363 16 view .LVU484
 1805 03d8 C7060100 		movl	$1, (%esi)
 1805      0000
 1806              	.LBE1291:
 1807              	.LBE1292:
 1808              		.loc 2 410 35 is_stmt 1 view .LVU485
 1809              		.loc 2 411 21 view .LVU486
GAS LISTING /tmp/ccttH9cH.s 			page 36


 1810              	.LBE1293:
 1811              	.LBE1295:
 1812              		.loc 1 312 5 view .LVU487
 1813              	.LVL70:
 1814              	.LBB1296:
 1815              	.LBI1275:
 1816              		.loc 4 168 22 view .LVU488
 1817              	.LBB1286:
 1818              		.loc 4 170 21 view .LVU489
 1819              		.loc 4 172 3 view .LVU490
 1820              	.LBB1282:
 1821              	.LBI1277:
 1822              		.loc 4 137 22 view .LVU491
 1823              	.LBB1280:
 1824              		.loc 4 141 3 view .LVU492
 1825              		.loc 4 141 3 is_stmt 0 view .LVU493
 1826              	.LBE1280:
 1827              	.LBE1282:
 1828              	.LBB1283:
 1829              	.LBI1283:
 1830              		.loc 4 153 22 is_stmt 1 view .LVU494
 1831              	.LBB1284:
 1832              		.loc 4 155 21 view .LVU495
 1833              		.loc 4 157 3 view .LVU496
 1834              		.loc 4 157 3 is_stmt 0 view .LVU497
 1835              	.LBE1284:
 1836              	.LBE1283:
 1837              	.LBE1286:
 1838              	.LBE1296:
 1839              		.loc 1 312 5 view .LVU498
 1840 03de 50       		pushl	%eax
 1841              		.cfi_def_cfa_offset 96
 1842 03df E8FCFFFF 		call	__test_assert@PLT
 1842      FF
 1843              	.LVL71:
 1844 03e4 83C410   		addl	$16, %esp
 1845              		.cfi_def_cfa_offset 80
 1846 03e7 84C0     		testb	%al, %al
 1847 03e9 0F8579FC 		jne	.L21
 1847      FFFF
 1848              		.loc 1 312 5 is_stmt 1 view .LVU499
 1849              		.loc 1 312 70 view .LVU500
 1850              		.loc 1 313 5 view .LVU501
 1851              	.LBB1297:
 1852              	.LBI1297:
 1853              		.loc 5 573 20 view .LVU502
 1854              		.loc 5 575 3 view .LVU503
 1855              	.LBB1298:
 1856              	.LBI1298:
 1857              		.loc 2 407 20 view .LVU504
 1858              		.loc 2 409 3 view .LVU505
 1859              	.LBB1299:
 1860              	.LBI1299:
 1861              		.loc 3 361 20 view .LVU506
 1862              	.LBB1300:
 1863              		.loc 3 363 3 view .LVU507
 1864              	.LBE1300:
GAS LISTING /tmp/ccttH9cH.s 			page 37


 1865              	.LBE1299:
 1866              	.LBE1298:
 1867              	.LBE1297:
 1868              		.loc 1 313 5 is_stmt 0 view .LVU508
 1869 03ef 31C0     		xorl	%eax, %eax
 1870 03f1 83BB1000 		cmpl	$0, 16+mb1@GOTOFF(%ebx)
 1870      000000
 1871 03f8 51       		pushl	%ecx
 1872              		.cfi_def_cfa_offset 84
 1873 03f9 0F94C0   		sete	%al
 1874 03fc 51       		pushl	%ecx
 1875              		.cfi_def_cfa_offset 88
 1876 03fd FF742410 		pushl	16(%esp)
 1877              		.cfi_def_cfa_offset 92
 1878 0401 50       		pushl	%eax
 1879              		.cfi_def_cfa_offset 96
 1880              	.LBB1304:
 1881              	.LBB1303:
 1882              	.LBB1302:
 1883              	.LBB1301:
 1884              		.loc 3 363 16 view .LVU509
 1885 0402 C7060100 		movl	$1, (%esi)
 1885      0000
 1886              	.LBE1301:
 1887              	.LBE1302:
 1888              		.loc 2 410 35 is_stmt 1 view .LVU510
 1889              		.loc 2 411 21 view .LVU511
 1890              	.LBE1303:
 1891              	.LBE1304:
 1892              		.loc 1 313 5 view .LVU512
 1893              	.LVL72:
 1894              	.LBB1305:
 1895              	.LBI1305:
 1896              		.loc 4 153 22 view .LVU513
 1897              	.LBB1306:
 1898              		.loc 4 155 21 view .LVU514
 1899              		.loc 4 157 3 view .LVU515
 1900              		.loc 4 157 3 is_stmt 0 view .LVU516
 1901              	.LBE1306:
 1902              	.LBE1305:
 1903              		.loc 1 313 5 view .LVU517
 1904 0408 E8FCFFFF 		call	__test_assert@PLT
 1904      FF
 1905              	.LVL73:
 1906 040d 83C410   		addl	$16, %esp
 1907              		.cfi_def_cfa_offset 80
 1908 0410 84C0     		testb	%al, %al
 1909 0412 0F8550FC 		jne	.L21
 1909      FFFF
 1910              		.loc 1 313 5 is_stmt 1 view .LVU518
 1911              	.LBB1307:
 1912              	.LBI1307:
 1913              		.loc 5 584 20 view .LVU519
 1914              		.loc 5 586 3 view .LVU520
 1915              	.LBB1308:
 1916              	.LBI1308:
 1917              		.loc 2 421 20 view .LVU521
GAS LISTING /tmp/ccttH9cH.s 			page 38


 1918              	.LBB1309:
 1919              		.loc 2 423 23 view .LVU522
 1920              		.loc 2 424 34 view .LVU523
 1921              		.loc 2 430 3 view .LVU524
 1922              		.loc 2 430 3 view .LVU525
 1923              		.loc 2 430 3 view .LVU526
 1924              		.loc 2 434 3 view .LVU527
 1925              	.LBB1310:
 1926              	.LBI1310:
 1927              		.loc 3 370 20 view .LVU528
 1928              	.LBB1311:
 1929              		.loc 3 372 3 view .LVU529
 1930              	.LBE1311:
 1931              	.LBE1310:
 1932              	.LBE1309:
 1933              	.LBE1308:
 1934              	.LBE1307:
 1935              		.loc 1 314 5 is_stmt 0 view .LVU530
 1936 0418 8B830800 		movl	8+mb1@GOTOFF(%ebx), %eax
 1936      0000
 1937 041e 39830000 		cmpl	%eax, mb1@GOTOFF(%ebx)
 1937      0000
 1938 0424 52       		pushl	%edx
 1939              		.cfi_def_cfa_offset 84
 1940 0425 0F94C0   		sete	%al
 1941 0428 52       		pushl	%edx
 1942              		.cfi_def_cfa_offset 88
 1943 0429 0FB6C0   		movzbl	%al, %eax
 1944 042c FF74241C 		pushl	28(%esp)
 1945              		.cfi_def_cfa_offset 92
 1946 0430 50       		pushl	%eax
 1947              		.cfi_def_cfa_offset 96
 1948              	.LBB1316:
 1949              	.LBB1315:
 1950              	.LBB1314:
 1951              	.LBB1313:
 1952              	.LBB1312:
 1953              		.loc 3 372 16 view .LVU531
 1954 0431 C7060000 		movl	$0, (%esi)
 1954      0000
 1955              	.LBE1312:
 1956              	.LBE1313:
 1957              	.LBE1314:
 1958              	.LBE1315:
 1959              	.LBE1316:
 1960              		.loc 1 313 65 is_stmt 1 view .LVU532
 1961              		.loc 1 314 5 view .LVU533
 1962 0437 E8FCFFFF 		call	__test_assert@PLT
 1962      FF
 1963              	.LVL74:
 1964 043c 83C410   		addl	$16, %esp
 1965              		.cfi_def_cfa_offset 80
 1966 043f 84C0     		testb	%al, %al
 1967 0441 0F8527FC 		jne	.L16
 1967      FFFF
 1968              		.loc 1 314 78 view .LVU534
 1969              		.loc 1 315 5 view .LVU535
GAS LISTING /tmp/ccttH9cH.s 			page 39


 1970 0447 50       		pushl	%eax
 1971              		.cfi_def_cfa_offset 84
 1972 0448 50       		pushl	%eax
 1973              		.cfi_def_cfa_offset 88
 1974 0449 8B830C00 		movl	12+mb1@GOTOFF(%ebx), %eax
 1974      0000
 1975 044f 39830000 		cmpl	%eax, mb1@GOTOFF(%ebx)
 1975      0000
 1976 0455 FF742420 		pushl	32(%esp)
 1977              		.cfi_def_cfa_offset 92
 1978 0459 0F94C0   		sete	%al
 1979 045c 0FB6C0   		movzbl	%al, %eax
 1980 045f 50       		pushl	%eax
 1981              		.cfi_def_cfa_offset 96
 1982 0460 E8FCFFFF 		call	__test_assert@PLT
 1982      FF
 1983              	.LVL75:
 1984              		.loc 1 315 5 view .LVU536
 1985 0465 83C410   		addl	$16, %esp
 1986              		.cfi_def_cfa_offset 80
 1987              		.loc 1 315 5 is_stmt 0 view .LVU537
 1988 0468 E901FCFF 		jmp	.L16
 1988      FF
 1989              	.L30:
 1990              	.LBE1317:
 1991              	.LBE1318:
 1992              		.loc 1 318 1 view .LVU538
 1993 046d E8FCFFFF 		call	__stack_chk_fail_local
 1993      FF
 1994              	.LVL76:
 1995              		.cfi_endproc
 1996              	.LFE308:
 1997              		.size	oslib_test_002_002_execute, .-oslib_test_002_002_execute
 1998              		.section	.rodata.oslib_test_002_001_execute.str1.1,"aMS",@progbits,1
 1999              	.LC11:
 2000 0000 6E6F7420 		.string	"not in reset state"
 2000      696E2072 
 2000      65736574 
 2000      20737461 
 2000      746500
 2001              		.section	.text.oslib_test_002_001_execute,"ax",@progbits
 2002              		.p2align 4
 2003              		.type	oslib_test_002_001_execute, @function
 2004              	oslib_test_002_001_execute:
 2005              	.LFB305:
 2006              		.loc 1 94 46 is_stmt 1 view -0
 2007              		.cfi_startproc
 2008 0000 55       		pushl	%ebp
 2009              		.cfi_def_cfa_offset 8
 2010              		.cfi_offset 5, -8
 2011 0001 57       		pushl	%edi
 2012              		.cfi_def_cfa_offset 12
 2013              		.cfi_offset 7, -12
 2014 0002 56       		pushl	%esi
 2015              		.cfi_def_cfa_offset 16
 2016              		.cfi_offset 6, -16
 2017 0003 53       		pushl	%ebx
GAS LISTING /tmp/ccttH9cH.s 			page 40


 2018              		.cfi_def_cfa_offset 20
 2019              		.cfi_offset 3, -20
 2020 0004 E8FCFFFF 		call	__x86.get_pc_thunk.bx
 2020      FF
 2021 0009 81C30200 		addl	$_GLOBAL_OFFSET_TABLE_, %ebx
 2021      0000
 2022 000f 83EC44   		subl	$68, %esp
 2023              		.cfi_def_cfa_offset 88
 2024              		.loc 1 94 46 is_stmt 0 view .LVU540
 2025 0012 65A11400 		movl	%gs:20, %eax
 2025      0000
 2026 0018 89442434 		movl	%eax, 52(%esp)
 2027 001c 31C0     		xorl	%eax, %eax
 2028              		.loc 1 95 3 is_stmt 1 view .LVU541
 2029              		.loc 1 96 3 view .LVU542
 2030              		.loc 1 99 3 view .LVU543
 2031 001e 8BBB0000 		movl	chtest@GOT(%ebx), %edi
 2031      0000
 2032              		.loc 1 101 5 is_stmt 0 view .LVU544
 2033 0024 8D830000 		leal	.LC1@GOTOFF(%ebx), %eax
 2033      0000
 2034              	.LBB1508:
 2035              	.LBB1509:
 2036              	.LBB1510:
 2037              	.LBB1511:
 2038              		.loc 3 363 16 view .LVU545
 2039 002a 8BB30000 		movl	port_irq_sts@GOT(%ebx), %esi
 2039      0000
 2040              	.LBE1511:
 2041              	.LBE1510:
 2042              	.LBE1509:
 2043              	.LBE1508:
 2044              		.loc 1 99 3 view .LVU546
 2045 0030 C7070100 		movl	$1, (%edi)
 2045      0000
 2046              		.loc 1 101 5 is_stmt 1 view .LVU547
 2047              	.LBB1518:
 2048              	.LBI1508:
 2049              		.loc 5 573 20 view .LVU548
 2050              		.loc 5 575 3 view .LVU549
 2051              	.LBB1516:
 2052              	.LBI1509:
 2053              		.loc 2 407 20 view .LVU550
 2054              		.loc 2 409 3 view .LVU551
 2055              	.LBB1514:
 2056              	.LBI1510:
 2057              		.loc 3 361 20 view .LVU552
 2058              	.LBB1512:
 2059              		.loc 3 363 3 view .LVU553
 2060              	.LBE1512:
 2061              	.LBE1514:
 2062              	.LBE1516:
 2063              	.LBE1518:
 2064              		.loc 1 101 5 is_stmt 0 view .LVU554
 2065 0036 50       		pushl	%eax
 2066              		.cfi_def_cfa_offset 92
 2067              	.LBB1519:
GAS LISTING /tmp/ccttH9cH.s 			page 41


 2068              	.LBB1520:
 2069              	.LBB1521:
 2070              	.LBB1522:
 2071              		.loc 4 141 28 view .LVU555
 2072 0037 8B830400 		movl	4+mb1@GOTOFF(%ebx), %eax
 2072      0000
 2073 003d 2B830000 		subl	mb1@GOTOFF(%ebx), %eax
 2073      0000
 2074              	.LBE1522:
 2075              	.LBE1521:
 2076              	.LBE1520:
 2077              	.LBE1519:
 2078              	.LBB1530:
 2079              	.LBB1517:
 2080              	.LBB1515:
 2081              	.LBB1513:
 2082              		.loc 3 363 16 view .LVU556
 2083 0043 C7060100 		movl	$1, (%esi)
 2083      0000
 2084              	.LBE1513:
 2085              	.LBE1515:
 2086              		.loc 2 410 35 is_stmt 1 view .LVU557
 2087              		.loc 2 411 21 view .LVU558
 2088              	.LBE1517:
 2089              	.LBE1530:
 2090              		.loc 1 101 5 view .LVU559
 2091              	.LVL77:
 2092              	.LBB1531:
 2093              	.LBI1519:
 2094              		.loc 4 168 22 view .LVU560
 2095              	.LBB1529:
 2096              		.loc 4 170 21 view .LVU561
 2097              		.loc 4 172 3 view .LVU562
 2098              	.LBB1525:
 2099              	.LBI1521:
 2100              		.loc 4 137 22 view .LVU563
 2101              	.LBB1523:
 2102              		.loc 4 141 3 view .LVU564
 2103              		.loc 4 141 3 is_stmt 0 view .LVU565
 2104              	.LBE1523:
 2105              	.LBE1525:
 2106              	.LBB1526:
 2107              	.LBI1526:
 2108              		.loc 4 153 22 is_stmt 1 view .LVU566
 2109              	.LBB1527:
 2110              		.loc 4 155 21 view .LVU567
 2111              		.loc 4 157 3 view .LVU568
 2112              		.loc 4 157 3 is_stmt 0 view .LVU569
 2113              	.LBE1527:
 2114              	.LBE1526:
 2115              	.LBB1528:
 2116              	.LBB1524:
 2117              		.loc 4 141 28 view .LVU570
 2118 0049 C1F802   		sarl	$2, %eax
 2119              	.LBE1524:
 2120              	.LBE1528:
 2121              		.loc 4 172 28 view .LVU571
GAS LISTING /tmp/ccttH9cH.s 			page 42


 2122 004c 2B831000 		subl	16+mb1@GOTOFF(%ebx), %eax
 2122      0000
 2123              	.LBE1529:
 2124              	.LBE1531:
 2125              		.loc 1 101 5 view .LVU572
 2126 0052 83F804   		cmpl	$4, %eax
 2127 0055 0F94C0   		sete	%al
 2128 0058 0FB6C0   		movzbl	%al, %eax
 2129 005b 50       		pushl	%eax
 2130              		.cfi_def_cfa_offset 96
 2131 005c E8FCFFFF 		call	__test_assert@PLT
 2131      FF
 2132              	.LVL78:
 2133              	.LBB1532:
 2134              	.LBB1533:
 2135              	.LBB1534:
 2136              	.LBB1535:
 2137              	.LBB1536:
 2138              		.loc 3 372 16 view .LVU573
 2139 0061 C7060000 		movl	$0, (%esi)
 2139      0000
 2140              	.LBE1536:
 2141              	.LBE1535:
 2142              	.LBE1534:
 2143              	.LBE1533:
 2144              	.LBE1532:
 2145              		.loc 1 101 5 view .LVU574
 2146 0067 83C410   		addl	$16, %esp
 2147              		.cfi_def_cfa_offset 80
 2148 006a 84C0     		testb	%al, %al
 2149 006c 7422     		je	.L32
 2150              	.L31:
 2151              		.loc 1 188 1 view .LVU575
 2152 006e 8B44242C 		movl	44(%esp), %eax
 2153 0072 652B0514 		subl	%gs:20, %eax
 2153      000000
 2154 0079 0F856304 		jne	.L45
 2154      0000
 2155 007f 83C43C   		addl	$60, %esp
 2156              		.cfi_remember_state
 2157              		.cfi_def_cfa_offset 20
 2158 0082 5B       		popl	%ebx
 2159              		.cfi_restore 3
 2160              		.cfi_def_cfa_offset 16
 2161 0083 5E       		popl	%esi
 2162              		.cfi_restore 6
 2163              		.cfi_def_cfa_offset 12
 2164 0084 5F       		popl	%edi
 2165              		.cfi_restore 7
 2166              		.cfi_def_cfa_offset 8
 2167 0085 5D       		popl	%ebp
 2168              		.cfi_restore 5
 2169              		.cfi_def_cfa_offset 4
 2170 0086 C3       		ret
 2171 0087 8DB42600 		.p2align 4,,10
 2171      00000066 
 2171      90
GAS LISTING /tmp/ccttH9cH.s 			page 43


 2172              		.p2align 3
 2173              	.L32:
 2174              		.cfi_restore_state
 2175              	.LBB1537:
 2176              	.LBI1537:
 2177              		.loc 1 94 13 is_stmt 1 view .LVU576
 2178              	.LBB1538:
 2179              		.loc 1 101 5 view .LVU577
 2180              	.LBB1539:
 2181              	.LBI1539:
 2182              		.loc 5 584 20 view .LVU578
 2183              		.loc 5 586 3 view .LVU579
 2184              	.LBB1540:
 2185              	.LBI1540:
 2186              		.loc 2 421 20 view .LVU580
 2187              	.LBB1541:
 2188              		.loc 2 423 23 view .LVU581
 2189              		.loc 2 424 34 view .LVU582
 2190              		.loc 2 430 3 view .LVU583
 2191              		.loc 2 430 3 view .LVU584
 2192              		.loc 2 430 3 view .LVU585
 2193              		.loc 2 434 3 view .LVU586
 2194              	.LBB1542:
 2195              	.LBI1542:
 2196              		.loc 3 370 20 view .LVU587
 2197              	.LBB1543:
 2198              		.loc 3 372 3 view .LVU588
 2199              	.LBE1543:
 2200              	.LBE1542:
 2201              	.LBE1541:
 2202              	.LBE1540:
 2203              	.LBE1539:
 2204              		.loc 1 101 71 view .LVU589
 2205              		.loc 1 103 3 view .LVU590
 2206              		.loc 1 103 19 view .LVU591
 2207              		.loc 1 107 3 view .LVU592
 2208              		.loc 1 109 5 is_stmt 0 view .LVU593
 2209 0090 83EC0C   		subl	$12, %esp
 2210              		.cfi_def_cfa_offset 92
 2211 0093 8DAB0000 		leal	mb1@GOTOFF(%ebx), %ebp
 2211      0000
 2212              		.loc 1 107 3 view .LVU594
 2213 0099 C7070200 		movl	$2, (%edi)
 2213      0000
 2214              		.loc 1 109 5 is_stmt 1 view .LVU595
 2215 009f 55       		pushl	%ebp
 2216              		.cfi_def_cfa_offset 96
 2217 00a0 E8FCFFFF 		call	chMBReset@PLT
 2217      FF
 2218              	.LVL79:
 2219              		.loc 1 110 5 view .LVU596
 2220              	.LBB1544:
 2221              	.LBI1544:
 2222              		.loc 5 573 20 view .LVU597
 2223              		.loc 5 575 3 view .LVU598
 2224              	.LBB1545:
 2225              	.LBI1545:
GAS LISTING /tmp/ccttH9cH.s 			page 44


 2226              		.loc 2 407 20 view .LVU599
 2227              		.loc 2 409 3 view .LVU600
 2228              	.LBB1546:
 2229              	.LBI1546:
 2230              		.loc 3 361 20 view .LVU601
 2231              	.LBB1547:
 2232              		.loc 3 363 3 view .LVU602
 2233              	.LBE1547:
 2234              	.LBE1546:
 2235              	.LBE1545:
 2236              	.LBE1544:
 2237              		.loc 1 110 5 is_stmt 0 view .LVU603
 2238 00a5 59       		popl	%ecx
 2239              		.cfi_def_cfa_offset 92
 2240 00a6 58       		popl	%eax
 2241              		.cfi_def_cfa_offset 88
 2242 00a7 8D830000 		leal	.LC2@GOTOFF(%ebx), %eax
 2242      0000
 2243 00ad 8944240C 		movl	%eax, 12(%esp)
 2244 00b1 50       		pushl	%eax
 2245              		.cfi_def_cfa_offset 92
 2246              	.LBB1551:
 2247              	.LBB1552:
 2248              	.LBB1553:
 2249              	.LBB1554:
 2250              		.loc 4 141 28 view .LVU604
 2251 00b2 8B830400 		movl	4+mb1@GOTOFF(%ebx), %eax
 2251      0000
 2252 00b8 2B830000 		subl	mb1@GOTOFF(%ebx), %eax
 2252      0000
 2253              	.LBE1554:
 2254              	.LBE1553:
 2255              	.LBE1552:
 2256              	.LBE1551:
 2257              	.LBB1562:
 2258              	.LBB1550:
 2259              	.LBB1549:
 2260              	.LBB1548:
 2261              		.loc 3 363 16 view .LVU605
 2262 00be C7060100 		movl	$1, (%esi)
 2262      0000
 2263              	.LBE1548:
 2264              	.LBE1549:
 2265              		.loc 2 410 35 is_stmt 1 view .LVU606
 2266              		.loc 2 411 21 view .LVU607
 2267              	.LBE1550:
 2268              	.LBE1562:
 2269              		.loc 1 110 5 view .LVU608
 2270              	.LVL80:
 2271              	.LBB1563:
 2272              	.LBI1551:
 2273              		.loc 4 168 22 view .LVU609
 2274              	.LBB1561:
 2275              		.loc 4 170 21 view .LVU610
 2276              		.loc 4 172 3 view .LVU611
 2277              	.LBB1557:
 2278              	.LBI1553:
GAS LISTING /tmp/ccttH9cH.s 			page 45


 2279              		.loc 4 137 22 view .LVU612
 2280              	.LBB1555:
 2281              		.loc 4 141 3 view .LVU613
 2282              		.loc 4 141 3 is_stmt 0 view .LVU614
 2283              	.LBE1555:
 2284              	.LBE1557:
 2285              	.LBB1558:
 2286              	.LBI1558:
 2287              		.loc 4 153 22 is_stmt 1 view .LVU615
 2288              	.LBB1559:
 2289              		.loc 4 155 21 view .LVU616
 2290              		.loc 4 157 3 view .LVU617
 2291              		.loc 4 157 3 is_stmt 0 view .LVU618
 2292              	.LBE1559:
 2293              	.LBE1558:
 2294              	.LBB1560:
 2295              	.LBB1556:
 2296              		.loc 4 141 28 view .LVU619
 2297 00c4 C1F802   		sarl	$2, %eax
 2298              	.LBE1556:
 2299              	.LBE1560:
 2300              		.loc 4 172 28 view .LVU620
 2301 00c7 2B831000 		subl	16+mb1@GOTOFF(%ebx), %eax
 2301      0000
 2302              	.LBE1561:
 2303              	.LBE1563:
 2304              		.loc 1 110 5 view .LVU621
 2305 00cd 83F804   		cmpl	$4, %eax
 2306 00d0 0F94C0   		sete	%al
 2307 00d3 0FB6C0   		movzbl	%al, %eax
 2308 00d6 50       		pushl	%eax
 2309              		.cfi_def_cfa_offset 96
 2310 00d7 E8FCFFFF 		call	__test_assert@PLT
 2310      FF
 2311              	.LVL81:
 2312 00dc 83C410   		addl	$16, %esp
 2313              		.cfi_def_cfa_offset 80
 2314 00df 84C0     		testb	%al, %al
 2315 00e1 752E     		jne	.L36
 2316              		.loc 1 110 5 is_stmt 1 view .LVU622
 2317              		.loc 1 110 70 view .LVU623
 2318              		.loc 1 111 5 view .LVU624
 2319              	.LBB1564:
 2320              	.LBI1564:
 2321              		.loc 5 573 20 view .LVU625
 2322              		.loc 5 575 3 view .LVU626
 2323              	.LBB1565:
 2324              	.LBI1565:
 2325              		.loc 2 407 20 view .LVU627
 2326              		.loc 2 409 3 view .LVU628
 2327              	.LBB1566:
 2328              	.LBI1566:
 2329              		.loc 3 361 20 view .LVU629
 2330              	.LBB1567:
 2331              		.loc 3 363 3 view .LVU630
 2332              	.LBE1567:
 2333              	.LBE1566:
GAS LISTING /tmp/ccttH9cH.s 			page 46


 2334              	.LBE1565:
 2335              	.LBE1564:
 2336              		.loc 1 111 5 is_stmt 0 view .LVU631
 2337 00e3 8B931000 		movl	16+mb1@GOTOFF(%ebx), %edx
 2337      0000
 2338 00e9 83EC08   		subl	$8, %esp
 2339              		.cfi_def_cfa_offset 88
 2340 00ec 8D830000 		leal	.LC3@GOTOFF(%ebx), %eax
 2340      0000
 2341              	.LBB1571:
 2342              	.LBB1570:
 2343              	.LBB1569:
 2344              	.LBB1568:
 2345              		.loc 3 363 16 view .LVU632
 2346 00f2 C7060100 		movl	$1, (%esi)
 2346      0000
 2347              	.LBE1568:
 2348              	.LBE1569:
 2349              		.loc 2 410 35 is_stmt 1 view .LVU633
 2350              		.loc 2 411 21 view .LVU634
 2351              	.LBE1570:
 2352              	.LBE1571:
 2353              		.loc 1 111 5 view .LVU635
 2354              	.LVL82:
 2355              	.LBB1572:
 2356              	.LBI1572:
 2357              		.loc 4 153 22 view .LVU636
 2358              	.LBB1573:
 2359              		.loc 4 155 21 view .LVU637
 2360              		.loc 4 157 3 view .LVU638
 2361              		.loc 4 157 3 is_stmt 0 view .LVU639
 2362              	.LBE1573:
 2363              	.LBE1572:
 2364              		.loc 1 111 5 view .LVU640
 2365 00f8 89442410 		movl	%eax, 16(%esp)
 2366 00fc 50       		pushl	%eax
 2367              		.cfi_def_cfa_offset 92
 2368 00fd 31C0     		xorl	%eax, %eax
 2369 00ff 85D2     		testl	%edx, %edx
 2370 0101 0F94C0   		sete	%al
 2371 0104 50       		pushl	%eax
 2372              		.cfi_def_cfa_offset 96
 2373 0105 E8FCFFFF 		call	__test_assert@PLT
 2373      FF
 2374              	.LVL83:
 2375 010a 83C410   		addl	$16, %esp
 2376              		.cfi_def_cfa_offset 80
 2377 010d 84C0     		testb	%al, %al
 2378 010f 740F     		je	.L46
 2379              	.L36:
 2380              		.loc 1 110 5 is_stmt 1 view .LVU641
 2381              	.LBB1574:
 2382              	.LBI1574:
 2383              		.loc 5 584 20 view .LVU642
 2384              		.loc 5 586 3 view .LVU643
 2385              	.LBB1575:
 2386              	.LBI1575:
GAS LISTING /tmp/ccttH9cH.s 			page 47


 2387              		.loc 2 421 20 view .LVU644
 2388              	.LBB1576:
 2389              		.loc 2 423 23 view .LVU645
 2390              		.loc 2 424 34 view .LVU646
 2391              		.loc 2 430 3 view .LVU647
 2392              		.loc 2 430 3 view .LVU648
 2393              		.loc 2 430 3 view .LVU649
 2394              		.loc 2 434 3 view .LVU650
 2395              	.LBB1577:
 2396              	.LBI1577:
 2397              		.loc 3 370 20 view .LVU651
 2398              	.LBB1578:
 2399              		.loc 3 372 3 view .LVU652
 2400              		.loc 3 372 16 is_stmt 0 view .LVU653
 2401 0111 C7060000 		movl	$0, (%esi)
 2401      0000
 2402              	.LBE1578:
 2403              	.LBE1577:
 2404              	.LBE1576:
 2405              	.LBE1575:
 2406              	.LBE1574:
 2407              		.loc 1 110 5 is_stmt 1 view .LVU654
 2408 0117 E952FFFF 		jmp	.L31
 2408      FF
 2409 011c 8D742600 		.p2align 4,,10
 2410              		.p2align 3
 2411              	.L46:
 2412              		.loc 1 111 5 view .LVU655
 2413              		.loc 1 111 65 view .LVU656
 2414              		.loc 1 112 5 view .LVU657
 2415              	.LBB1579:
 2416              	.LBI1579:
 2417              		.loc 5 573 20 view .LVU658
 2418              		.loc 5 575 3 view .LVU659
 2419              	.LBB1580:
 2420              	.LBI1580:
 2421              		.loc 2 407 20 view .LVU660
 2422              		.loc 2 409 3 view .LVU661
 2423              	.LBB1581:
 2424              	.LBI1581:
 2425              		.loc 3 361 20 view .LVU662
 2426              	.LBB1582:
 2427              		.loc 3 363 3 view .LVU663
 2428              	.LBE1582:
 2429              	.LBE1581:
 2430              	.LBE1580:
 2431              	.LBE1579:
 2432              		.loc 1 112 5 is_stmt 0 view .LVU664
 2433 0120 83EC08   		subl	$8, %esp
 2434              		.cfi_def_cfa_offset 88
 2435 0123 8D830000 		leal	.LC4@GOTOFF(%ebx), %eax
 2435      0000
 2436              	.LBB1586:
 2437              	.LBB1585:
 2438              	.LBB1584:
 2439              	.LBB1583:
 2440              		.loc 3 363 16 view .LVU665
GAS LISTING /tmp/ccttH9cH.s 			page 48


 2441 0129 C7060100 		movl	$1, (%esi)
 2441      0000
 2442              	.LBE1583:
 2443              	.LBE1584:
 2444              		.loc 2 410 35 is_stmt 1 view .LVU666
 2445              		.loc 2 411 21 view .LVU667
 2446              	.LBE1585:
 2447              	.LBE1586:
 2448              		.loc 1 112 5 view .LVU668
 2449 012f 89442414 		movl	%eax, 20(%esp)
 2450 0133 50       		pushl	%eax
 2451              		.cfi_def_cfa_offset 92
 2452 0134 8B830800 		movl	8+mb1@GOTOFF(%ebx), %eax
 2452      0000
 2453 013a 39830000 		cmpl	%eax, mb1@GOTOFF(%ebx)
 2453      0000
 2454 0140 0F94C0   		sete	%al
 2455 0143 0FB6C0   		movzbl	%al, %eax
 2456 0146 50       		pushl	%eax
 2457              		.cfi_def_cfa_offset 96
 2458 0147 E8FCFFFF 		call	__test_assert@PLT
 2458      FF
 2459              	.LVL84:
 2460 014c 83C410   		addl	$16, %esp
 2461              		.cfi_def_cfa_offset 80
 2462 014f 84C0     		testb	%al, %al
 2463 0151 75BE     		jne	.L36
 2464              		.loc 1 112 5 view .LVU669
 2465              		.loc 1 112 83 view .LVU670
 2466              		.loc 1 113 5 view .LVU671
 2467              	.LBB1587:
 2468              	.LBI1587:
 2469              		.loc 5 573 20 view .LVU672
 2470              		.loc 5 575 3 view .LVU673
 2471              	.LBB1588:
 2472              	.LBI1588:
 2473              		.loc 2 407 20 view .LVU674
 2474              		.loc 2 409 3 view .LVU675
 2475              	.LBB1589:
 2476              	.LBI1589:
 2477              		.loc 3 361 20 view .LVU676
 2478              	.LBB1590:
 2479              		.loc 3 363 3 view .LVU677
 2480              	.LBE1590:
 2481              	.LBE1589:
 2482              	.LBE1588:
 2483              	.LBE1587:
 2484              		.loc 1 113 5 is_stmt 0 view .LVU678
 2485 0153 83EC08   		subl	$8, %esp
 2486              		.cfi_def_cfa_offset 88
 2487 0156 8D830000 		leal	.LC5@GOTOFF(%ebx), %eax
 2487      0000
 2488              	.LBB1594:
 2489              	.LBB1593:
 2490              	.LBB1592:
 2491              	.LBB1591:
 2492              		.loc 3 363 16 view .LVU679
GAS LISTING /tmp/ccttH9cH.s 			page 49


 2493 015c C7060100 		movl	$1, (%esi)
 2493      0000
 2494              	.LBE1591:
 2495              	.LBE1592:
 2496              		.loc 2 410 35 is_stmt 1 view .LVU680
 2497              		.loc 2 411 21 view .LVU681
 2498              	.LBE1593:
 2499              	.LBE1594:
 2500              		.loc 1 113 5 view .LVU682
 2501 0162 8944241C 		movl	%eax, 28(%esp)
 2502 0166 50       		pushl	%eax
 2503              		.cfi_def_cfa_offset 92
 2504 0167 8B830C00 		movl	12+mb1@GOTOFF(%ebx), %eax
 2504      0000
 2505 016d 39830000 		cmpl	%eax, mb1@GOTOFF(%ebx)
 2505      0000
 2506 0173 0F94C0   		sete	%al
 2507 0176 0FB6C0   		movzbl	%al, %eax
 2508 0179 50       		pushl	%eax
 2509              		.cfi_def_cfa_offset 96
 2510 017a E8FCFFFF 		call	__test_assert@PLT
 2510      FF
 2511              	.LVL85:
 2512 017f 83C410   		addl	$16, %esp
 2513              		.cfi_def_cfa_offset 80
 2514 0182 84C0     		testb	%al, %al
 2515 0184 758B     		jne	.L36
 2516              		.loc 1 113 5 view .LVU683
 2517              	.LBB1595:
 2518              	.LBI1595:
 2519              		.loc 5 584 20 view .LVU684
 2520              		.loc 5 586 3 view .LVU685
 2521              	.LBB1596:
 2522              	.LBI1596:
 2523              		.loc 2 421 20 view .LVU686
 2524              	.LBB1597:
 2525              		.loc 2 423 23 view .LVU687
 2526              		.loc 2 424 34 view .LVU688
 2527              		.loc 2 430 3 view .LVU689
 2528              		.loc 2 430 3 view .LVU690
 2529              		.loc 2 430 3 view .LVU691
 2530              		.loc 2 434 3 view .LVU692
 2531              	.LBB1598:
 2532              	.LBI1598:
 2533              		.loc 3 370 20 view .LVU693
 2534              	.LBB1599:
 2535              		.loc 3 372 3 view .LVU694
 2536              	.LBE1599:
 2537              	.LBE1598:
 2538              	.LBE1597:
 2539              	.LBE1596:
 2540              	.LBE1595:
 2541              		.loc 1 121 12 is_stmt 0 view .LVU695
 2542 0186 83EC04   		subl	$4, %esp
 2543              		.cfi_def_cfa_offset 84
 2544              		.loc 1 119 3 view .LVU696
 2545 0189 C7070300 		movl	$3, (%edi)
GAS LISTING /tmp/ccttH9cH.s 			page 50


 2545      0000
 2546              		.loc 1 121 12 view .LVU697
 2547 018f 6AFF     		pushl	$-1
 2548              		.cfi_def_cfa_offset 88
 2549 0191 6A00     		pushl	$0
 2550              		.cfi_def_cfa_offset 92
 2551 0193 55       		pushl	%ebp
 2552              		.cfi_def_cfa_offset 96
 2553              	.LBB1604:
 2554              	.LBB1603:
 2555              	.LBB1602:
 2556              	.LBB1601:
 2557              	.LBB1600:
 2558              		.loc 3 372 16 view .LVU698
 2559 0194 C7060000 		movl	$0, (%esi)
 2559      0000
 2560              	.LBE1600:
 2561              	.LBE1601:
 2562              	.LBE1602:
 2563              	.LBE1603:
 2564              	.LBE1604:
 2565              		.loc 1 113 82 is_stmt 1 view .LVU699
 2566              		.loc 1 115 3 view .LVU700
 2567              		.loc 1 115 19 view .LVU701
 2568              		.loc 1 119 3 view .LVU702
 2569              		.loc 1 121 5 view .LVU703
 2570              		.loc 1 121 12 is_stmt 0 view .LVU704
 2571 019a E8FCFFFF 		call	chMBPostTimeout@PLT
 2571      FF
 2572              	.LVL86:
 2573              		.loc 1 122 5 is_stmt 1 view .LVU705
 2574 019f 5A       		popl	%edx
 2575              		.cfi_def_cfa_offset 92
 2576 01a0 59       		popl	%ecx
 2577              		.cfi_def_cfa_offset 88
 2578 01a1 8D8B0000 		leal	.LC11@GOTOFF(%ebx), %ecx
 2578      0000
 2579 01a7 83F8FE   		cmpl	$-2, %eax
 2580 01aa 894C2418 		movl	%ecx, 24(%esp)
 2581 01ae 0F94C0   		sete	%al
 2582              	.LVL87:
 2583              		.loc 1 122 5 is_stmt 0 view .LVU706
 2584 01b1 51       		pushl	%ecx
 2585              		.cfi_def_cfa_offset 92
 2586 01b2 0FB6C0   		movzbl	%al, %eax
 2587 01b5 50       		pushl	%eax
 2588              		.cfi_def_cfa_offset 96
 2589 01b6 E8FCFFFF 		call	__test_assert@PLT
 2589      FF
 2590              	.LVL88:
 2591 01bb 83C410   		addl	$16, %esp
 2592              		.cfi_def_cfa_offset 80
 2593 01be 84C0     		testb	%al, %al
 2594 01c0 0F85A8FE 		jne	.L31
 2594      FFFF
 2595              		.loc 1 122 57 is_stmt 1 view .LVU707
 2596              		.loc 1 123 5 view .LVU708
GAS LISTING /tmp/ccttH9cH.s 			page 51


 2597              		.loc 1 123 12 is_stmt 0 view .LVU709
 2598 01c6 83EC04   		subl	$4, %esp
 2599              		.cfi_def_cfa_offset 84
 2600 01c9 6AFF     		pushl	$-1
 2601              		.cfi_def_cfa_offset 88
 2602 01cb 6A00     		pushl	$0
 2603              		.cfi_def_cfa_offset 92
 2604 01cd 55       		pushl	%ebp
 2605              		.cfi_def_cfa_offset 96
 2606 01ce E8FCFFFF 		call	chMBPostAheadTimeout@PLT
 2606      FF
 2607              	.LVL89:
 2608              		.loc 1 124 5 is_stmt 1 view .LVU710
 2609 01d3 5A       		popl	%edx
 2610              		.cfi_def_cfa_offset 92
 2611 01d4 59       		popl	%ecx
 2612              		.cfi_def_cfa_offset 88
 2613 01d5 FF742418 		pushl	24(%esp)
 2614              		.cfi_def_cfa_offset 92
 2615 01d9 83F8FE   		cmpl	$-2, %eax
 2616 01dc 0F94C0   		sete	%al
 2617              	.LVL90:
 2618              		.loc 1 124 5 is_stmt 0 view .LVU711
 2619 01df 0FB6C0   		movzbl	%al, %eax
 2620 01e2 50       		pushl	%eax
 2621              		.cfi_def_cfa_offset 96
 2622 01e3 E8FCFFFF 		call	__test_assert@PLT
 2622      FF
 2623              	.LVL91:
 2624 01e8 83C410   		addl	$16, %esp
 2625              		.cfi_def_cfa_offset 80
 2626 01eb 84C0     		testb	%al, %al
 2627 01ed 0F857BFE 		jne	.L31
 2627      FFFF
 2628              		.loc 1 124 57 is_stmt 1 view .LVU712
 2629              		.loc 1 125 5 view .LVU713
 2630              		.loc 1 125 12 is_stmt 0 view .LVU714
 2631 01f3 83EC04   		subl	$4, %esp
 2632              		.cfi_def_cfa_offset 84
 2633 01f6 6AFF     		pushl	$-1
 2634              		.cfi_def_cfa_offset 88
 2635 01f8 8D442430 		leal	48(%esp), %eax
 2636 01fc 89442424 		movl	%eax, 36(%esp)
 2637 0200 50       		pushl	%eax
 2638              		.cfi_def_cfa_offset 92
 2639 0201 55       		pushl	%ebp
 2640              		.cfi_def_cfa_offset 96
 2641 0202 E8FCFFFF 		call	chMBFetchTimeout@PLT
 2641      FF
 2642              	.LVL92:
 2643              		.loc 1 126 5 is_stmt 1 view .LVU715
 2644 0207 5A       		popl	%edx
 2645              		.cfi_def_cfa_offset 92
 2646 0208 59       		popl	%ecx
 2647              		.cfi_def_cfa_offset 88
 2648 0209 FF742418 		pushl	24(%esp)
 2649              		.cfi_def_cfa_offset 92
GAS LISTING /tmp/ccttH9cH.s 			page 52


 2650 020d 83F8FE   		cmpl	$-2, %eax
 2651 0210 0F94C0   		sete	%al
 2652              	.LVL93:
 2653              		.loc 1 126 5 is_stmt 0 view .LVU716
 2654 0213 0FB6C0   		movzbl	%al, %eax
 2655 0216 50       		pushl	%eax
 2656              		.cfi_def_cfa_offset 96
 2657 0217 E8FCFFFF 		call	__test_assert@PLT
 2657      FF
 2658              	.LVL94:
 2659 021c 83C410   		addl	$16, %esp
 2660              		.cfi_def_cfa_offset 80
 2661 021f 84C0     		testb	%al, %al
 2662 0221 0F8547FE 		jne	.L31
 2662      FFFF
 2663              		.loc 1 126 57 is_stmt 1 view .LVU717
 2664              		.loc 1 127 5 view .LVU718
 2665              	.LVL95:
 2666              	.LBB1605:
 2667              	.LBI1605:
 2668              		.loc 4 201 20 view .LVU719
 2669              	.LBB1606:
 2670              		.loc 4 203 3 view .LVU720
 2671 0227 8D830000 		leal	.LC0@GOTOFF(%ebx), %eax
 2671      0000
 2672              	.LBE1606:
 2673              	.LBE1605:
 2674              		.loc 1 133 3 is_stmt 0 view .LVU721
 2675 022d C7070400 		movl	$4, (%edi)
 2675      0000
 2676 0233 BA420000 		movl	$66, %edx
 2676      00
 2677              	.LBB1608:
 2678              	.LBB1607:
 2679              		.loc 4 203 14 view .LVU722
 2680 0238 C6831400 		movb	$0, 20+mb1@GOTOFF(%ebx)
 2680      000000
 2681              	.LVL96:
 2682              		.loc 4 203 14 view .LVU723
 2683              	.LBE1607:
 2684              	.LBE1608:
 2685              		.loc 1 129 3 is_stmt 1 view .LVU724
 2686              		.loc 1 129 19 view .LVU725
 2687              		.loc 1 133 3 view .LVU726
 2688              		.loc 1 135 5 view .LVU727
 2689              		.loc 1 135 19 view .LVU728
 2690 023f 89442410 		movl	%eax, 16(%esp)
 2691 0243 896C2418 		movl	%ebp, 24(%esp)
 2692 0247 89D5     		movl	%edx, %ebp
 2693              	.LVL97:
 2694              	.L39:
 2695              		.loc 1 136 7 view .LVU729
 2696              		.loc 1 136 14 is_stmt 0 view .LVU730
 2697 0249 83EC04   		subl	$4, %esp
 2698              		.cfi_def_cfa_offset 84
 2699 024c 6AFF     		pushl	$-1
 2700              		.cfi_def_cfa_offset 88
GAS LISTING /tmp/ccttH9cH.s 			page 53


 2701 024e 55       		pushl	%ebp
 2702              		.cfi_def_cfa_offset 92
 2703 024f FF742424 		pushl	36(%esp)
 2704              		.cfi_def_cfa_offset 96
 2705 0253 E8FCFFFF 		call	chMBPostTimeout@PLT
 2705      FF
 2706              	.LVL98:
 2707              		.loc 1 137 7 is_stmt 1 view .LVU731
 2708 0258 5A       		popl	%edx
 2709              		.cfi_def_cfa_offset 92
 2710 0259 59       		popl	%ecx
 2711              		.cfi_def_cfa_offset 88
 2712 025a FF742418 		pushl	24(%esp)
 2713              		.cfi_def_cfa_offset 92
 2714 025e 85C0     		testl	%eax, %eax
 2715 0260 0F94C0   		sete	%al
 2716              	.LVL99:
 2717              		.loc 1 137 7 is_stmt 0 view .LVU732
 2718 0263 0FB6C0   		movzbl	%al, %eax
 2719 0266 50       		pushl	%eax
 2720              		.cfi_def_cfa_offset 96
 2721 0267 E8FCFFFF 		call	__test_assert@PLT
 2721      FF
 2722              	.LVL100:
 2723 026c 83C410   		addl	$16, %esp
 2724              		.cfi_def_cfa_offset 80
 2725 026f 84C0     		testb	%al, %al
 2726 0271 0F85F7FD 		jne	.L31
 2726      FFFF
 2727              		.loc 1 137 59 is_stmt 1 view .LVU733
 2728              		.loc 1 135 35 view .LVU734
 2729              	.LVL101:
 2730              		.loc 1 135 19 view .LVU735
 2731 0277 83C501   		addl	$1, %ebp
 2732              	.LVL102:
 2733              		.loc 1 135 19 is_stmt 0 view .LVU736
 2734 027a 83FD45   		cmpl	$69, %ebp
 2735 027d 75CA     		jne	.L39
 2736              		.loc 1 139 12 view .LVU737
 2737 027f 8B6C2418 		movl	24(%esp), %ebp
 2738              	.LVL103:
 2739              		.loc 1 139 5 is_stmt 1 view .LVU738
 2740              		.loc 1 139 12 is_stmt 0 view .LVU739
 2741 0283 83EC04   		subl	$4, %esp
 2742              		.cfi_def_cfa_offset 84
 2743 0286 6AFF     		pushl	$-1
 2744              		.cfi_def_cfa_offset 88
 2745 0288 6A41     		pushl	$65
 2746              		.cfi_def_cfa_offset 92
 2747 028a 55       		pushl	%ebp
 2748              		.cfi_def_cfa_offset 96
 2749 028b E8FCFFFF 		call	chMBPostAheadTimeout@PLT
 2749      FF
 2750              	.LVL104:
 2751              		.loc 1 140 5 is_stmt 1 view .LVU740
 2752 0290 5A       		popl	%edx
 2753              		.cfi_def_cfa_offset 92
GAS LISTING /tmp/ccttH9cH.s 			page 54


 2754 0291 59       		popl	%ecx
 2755              		.cfi_def_cfa_offset 88
 2756 0292 FF742418 		pushl	24(%esp)
 2757              		.cfi_def_cfa_offset 92
 2758 0296 85C0     		testl	%eax, %eax
 2759 0298 0F94C0   		sete	%al
 2760              	.LVL105:
 2761              		.loc 1 140 5 is_stmt 0 view .LVU741
 2762 029b 0FB6C0   		movzbl	%al, %eax
 2763 029e 50       		pushl	%eax
 2764              		.cfi_def_cfa_offset 96
 2765 029f E8FCFFFF 		call	__test_assert@PLT
 2765      FF
 2766              	.LVL106:
 2767 02a4 83C410   		addl	$16, %esp
 2768              		.cfi_def_cfa_offset 80
 2769 02a7 84C0     		testb	%al, %al
 2770 02a9 0F85BFFD 		jne	.L31
 2770      FFFF
 2771              		.loc 1 140 57 is_stmt 1 view .LVU742
 2772              		.loc 1 142 3 view .LVU743
 2773              		.loc 1 142 19 view .LVU744
 2774              		.loc 1 146 3 view .LVU745
 2775              		.loc 1 148 5 is_stmt 0 view .LVU746
 2776 02af 83EC08   		subl	$8, %esp
 2777              		.cfi_def_cfa_offset 88
 2778 02b2 8D830000 		leal	.LC6@GOTOFF(%ebx), %eax
 2778      0000
 2779              		.loc 1 146 3 view .LVU747
 2780 02b8 C7070500 		movl	$5, (%edi)
 2780      0000
 2781              		.loc 1 148 5 is_stmt 1 view .LVU748
 2782              	.LBB1609:
 2783              	.LBI1609:
 2784              		.loc 5 573 20 view .LVU749
 2785              		.loc 5 575 3 view .LVU750
 2786              	.LBB1610:
 2787              	.LBI1610:
 2788              		.loc 2 407 20 view .LVU751
 2789              		.loc 2 409 3 view .LVU752
 2790              	.LBB1611:
 2791              	.LBI1611:
 2792              		.loc 3 361 20 view .LVU753
 2793              	.LBB1612:
 2794              		.loc 3 363 3 view .LVU754
 2795              	.LBE1612:
 2796              	.LBE1611:
 2797              	.LBE1610:
 2798              	.LBE1609:
 2799              		.loc 1 148 5 is_stmt 0 view .LVU755
 2800 02be 50       		pushl	%eax
 2801              		.cfi_def_cfa_offset 92
 2802              	.LBB1616:
 2803              	.LBB1617:
 2804              	.LBB1618:
 2805              		.loc 4 141 28 view .LVU756
 2806 02bf 8B830400 		movl	4+mb1@GOTOFF(%ebx), %eax
GAS LISTING /tmp/ccttH9cH.s 			page 55


 2806      0000
 2807 02c5 2B830000 		subl	mb1@GOTOFF(%ebx), %eax
 2807      0000
 2808              	.LBE1618:
 2809              	.LBE1617:
 2810              	.LBE1616:
 2811              	.LBB1625:
 2812              	.LBB1615:
 2813              	.LBB1614:
 2814              	.LBB1613:
 2815              		.loc 3 363 16 view .LVU757
 2816 02cb C7060100 		movl	$1, (%esi)
 2816      0000
 2817              	.LBE1613:
 2818              	.LBE1614:
 2819              		.loc 2 410 35 is_stmt 1 view .LVU758
 2820              		.loc 2 411 21 view .LVU759
 2821              	.LBE1615:
 2822              	.LBE1625:
 2823              		.loc 1 148 5 view .LVU760
 2824              	.LVL107:
 2825              	.LBB1626:
 2826              	.LBI1616:
 2827              		.loc 4 168 22 view .LVU761
 2828              		.loc 4 170 21 view .LVU762
 2829              		.loc 4 172 3 view .LVU763
 2830              	.LBB1621:
 2831              	.LBI1617:
 2832              		.loc 4 137 22 view .LVU764
 2833              	.LBB1619:
 2834              		.loc 4 141 3 view .LVU765
 2835              		.loc 4 141 3 is_stmt 0 view .LVU766
 2836              	.LBE1619:
 2837              	.LBE1621:
 2838              	.LBB1622:
 2839              	.LBI1622:
 2840              		.loc 4 153 22 is_stmt 1 view .LVU767
 2841              	.LBB1623:
 2842              		.loc 4 155 21 view .LVU768
 2843              		.loc 4 157 3 view .LVU769
 2844              		.loc 4 157 3 is_stmt 0 view .LVU770
 2845              	.LBE1623:
 2846              	.LBE1622:
 2847              	.LBB1624:
 2848              	.LBB1620:
 2849              		.loc 4 141 28 view .LVU771
 2850 02d1 C1F802   		sarl	$2, %eax
 2851              	.LBE1620:
 2852              	.LBE1624:
 2853              	.LBE1626:
 2854              		.loc 1 148 5 view .LVU772
 2855 02d4 3B831000 		cmpl	16+mb1@GOTOFF(%ebx), %eax
 2855      0000
 2856 02da 0F94C0   		sete	%al
 2857 02dd 0FB6C0   		movzbl	%al, %eax
 2858 02e0 50       		pushl	%eax
 2859              		.cfi_def_cfa_offset 96
GAS LISTING /tmp/ccttH9cH.s 			page 56


 2860 02e1 E8FCFFFF 		call	__test_assert@PLT
 2860      FF
 2861              	.LVL108:
 2862 02e6 83C410   		addl	$16, %esp
 2863              		.cfi_def_cfa_offset 80
 2864 02e9 84C0     		testb	%al, %al
 2865 02eb 0F8520FE 		jne	.L36
 2865      FFFF
 2866              		.loc 1 148 5 is_stmt 1 view .LVU773
 2867              		.loc 1 148 66 view .LVU774
 2868              		.loc 1 149 5 view .LVU775
 2869              	.LBB1627:
 2870              	.LBI1627:
 2871              		.loc 5 573 20 view .LVU776
 2872              		.loc 5 575 3 view .LVU777
 2873              	.LBB1628:
 2874              	.LBI1628:
 2875              		.loc 2 407 20 view .LVU778
 2876              		.loc 2 409 3 view .LVU779
 2877              	.LBB1629:
 2878              	.LBI1629:
 2879              		.loc 3 361 20 view .LVU780
 2880              	.LBB1630:
 2881              		.loc 3 363 3 view .LVU781
 2882              	.LBE1630:
 2883              	.LBE1629:
 2884              	.LBE1628:
 2885              	.LBE1627:
 2886              		.loc 1 149 5 is_stmt 0 view .LVU782
 2887 02f1 50       		pushl	%eax
 2888              		.cfi_def_cfa_offset 84
 2889 02f2 50       		pushl	%eax
 2890              		.cfi_def_cfa_offset 88
 2891 02f3 8D830000 		leal	.LC7@GOTOFF(%ebx), %eax
 2891      0000
 2892 02f9 50       		pushl	%eax
 2893              		.cfi_def_cfa_offset 92
 2894 02fa 31C0     		xorl	%eax, %eax
 2895 02fc 83BB1000 		cmpl	$4, 16+mb1@GOTOFF(%ebx)
 2895      000004
 2896 0303 0F94C0   		sete	%al
 2897              	.LBB1634:
 2898              	.LBB1633:
 2899              	.LBB1632:
 2900              	.LBB1631:
 2901              		.loc 3 363 16 view .LVU783
 2902 0306 C7060100 		movl	$1, (%esi)
 2902      0000
 2903              	.LBE1631:
 2904              	.LBE1632:
 2905              		.loc 2 410 35 is_stmt 1 view .LVU784
 2906              		.loc 2 411 21 view .LVU785
 2907              	.LBE1633:
 2908              	.LBE1634:
 2909              		.loc 1 149 5 view .LVU786
 2910              	.LVL109:
 2911              	.LBB1635:
GAS LISTING /tmp/ccttH9cH.s 			page 57


 2912              	.LBI1635:
 2913              		.loc 4 153 22 view .LVU787
 2914              	.LBB1636:
 2915              		.loc 4 155 21 view .LVU788
 2916              		.loc 4 157 3 view .LVU789
 2917              		.loc 4 157 3 is_stmt 0 view .LVU790
 2918              	.LBE1636:
 2919              	.LBE1635:
 2920              		.loc 1 149 5 view .LVU791
 2921 030c 50       		pushl	%eax
 2922              		.cfi_def_cfa_offset 96
 2923 030d E8FCFFFF 		call	__test_assert@PLT
 2923      FF
 2924              	.LVL110:
 2925 0312 83C410   		addl	$16, %esp
 2926              		.cfi_def_cfa_offset 80
 2927 0315 84C0     		testb	%al, %al
 2928 0317 0F85F4FD 		jne	.L36
 2928      FFFF
 2929              		.loc 1 149 5 is_stmt 1 view .LVU792
 2930              		.loc 1 149 69 view .LVU793
 2931              		.loc 1 150 5 view .LVU794
 2932              	.LBB1637:
 2933              	.LBI1637:
 2934              		.loc 5 573 20 view .LVU795
 2935              		.loc 5 575 3 view .LVU796
 2936              	.LBB1638:
 2937              	.LBI1638:
 2938              		.loc 2 407 20 view .LVU797
 2939              		.loc 2 409 3 view .LVU798
 2940              	.LBB1639:
 2941              	.LBI1639:
 2942              		.loc 3 361 20 view .LVU799
 2943              	.LBB1640:
 2944              		.loc 3 363 3 view .LVU800
 2945              	.LBE1640:
 2946              	.LBE1639:
 2947              	.LBE1638:
 2948              	.LBE1637:
 2949              		.loc 1 150 5 is_stmt 0 view .LVU801
 2950 031d 50       		pushl	%eax
 2951              		.cfi_def_cfa_offset 84
 2952 031e 50       		pushl	%eax
 2953              		.cfi_def_cfa_offset 88
 2954 031f 8D830000 		leal	.LC8@GOTOFF(%ebx), %eax
 2954      0000
 2955 0325 50       		pushl	%eax
 2956              		.cfi_def_cfa_offset 92
 2957 0326 8B830800 		movl	8+mb1@GOTOFF(%ebx), %eax
 2957      0000
 2958 032c 39830C00 		cmpl	%eax, 12+mb1@GOTOFF(%ebx)
 2958      0000
 2959              	.LBB1644:
 2960              	.LBB1643:
 2961              	.LBB1642:
 2962              	.LBB1641:
 2963              		.loc 3 363 16 view .LVU802
GAS LISTING /tmp/ccttH9cH.s 			page 58


 2964 0332 C7060100 		movl	$1, (%esi)
 2964      0000
 2965              	.LBE1641:
 2966              	.LBE1642:
 2967              		.loc 2 410 35 is_stmt 1 view .LVU803
 2968              		.loc 2 411 21 view .LVU804
 2969              	.LBE1643:
 2970              	.LBE1644:
 2971              		.loc 1 150 5 view .LVU805
 2972 0338 0F94C0   		sete	%al
 2973 033b 0FB6C0   		movzbl	%al, %eax
 2974 033e 50       		pushl	%eax
 2975              		.cfi_def_cfa_offset 96
 2976 033f E8FCFFFF 		call	__test_assert@PLT
 2976      FF
 2977              	.LVL111:
 2978 0344 83C410   		addl	$16, %esp
 2979              		.cfi_def_cfa_offset 80
 2980 0347 84C0     		testb	%al, %al
 2981 0349 0F85C2FD 		jne	.L36
 2981      FFFF
 2982              		.loc 1 150 5 view .LVU806
 2983              	.LBB1645:
 2984              	.LBI1645:
 2985              		.loc 5 584 20 view .LVU807
 2986              		.loc 5 586 3 view .LVU808
 2987              	.LBB1646:
 2988              	.LBI1646:
 2989              		.loc 2 421 20 view .LVU809
 2990              	.LBB1647:
 2991              		.loc 2 423 23 view .LVU810
 2992              		.loc 2 424 34 view .LVU811
 2993              		.loc 2 430 3 view .LVU812
 2994              		.loc 2 430 3 view .LVU813
 2995              		.loc 2 430 3 view .LVU814
 2996              		.loc 2 434 3 view .LVU815
 2997              	.LBB1648:
 2998              	.LBI1648:
 2999              		.loc 3 370 20 view .LVU816
 3000              	.LBB1649:
 3001              		.loc 3 372 3 view .LVU817
 3002              		.loc 3 372 16 is_stmt 0 view .LVU818
 3003 034f C7060000 		movl	$0, (%esi)
 3003      0000
 3004              	.LBE1649:
 3005              	.LBE1648:
 3006              	.LBE1647:
 3007              	.LBE1646:
 3008              	.LBE1645:
 3009              		.loc 1 150 69 is_stmt 1 view .LVU819
 3010              		.loc 1 152 3 view .LVU820
 3011              		.loc 1 152 19 view .LVU821
 3012              		.loc 1 156 3 view .LVU822
 3013 0355 C7070600 		movl	$6, (%edi)
 3013      0000
 3014              		.loc 1 158 5 view .LVU823
 3015              	.LVL112:
GAS LISTING /tmp/ccttH9cH.s 			page 59


 3016              		.loc 1 158 19 view .LVU824
 3017              		.loc 1 156 3 is_stmt 0 view .LVU825
 3018 035b C7442418 		movl	$4, 24(%esp)
 3018      04000000 
 3019              	.LVL113:
 3020              	.L40:
 3021              		.loc 1 159 7 is_stmt 1 view .LVU826
 3022              		.loc 1 159 14 is_stmt 0 view .LVU827
 3023 0363 50       		pushl	%eax
 3024              		.cfi_def_cfa_offset 84
 3025 0364 6AFF     		pushl	$-1
 3026              		.cfi_def_cfa_offset 88
 3027 0366 FF742424 		pushl	36(%esp)
 3028              		.cfi_def_cfa_offset 92
 3029 036a 55       		pushl	%ebp
 3030              		.cfi_def_cfa_offset 96
 3031 036b E8FCFFFF 		call	chMBFetchTimeout@PLT
 3031      FF
 3032              	.LVL114:
 3033              		.loc 1 160 7 is_stmt 1 view .LVU828
 3034 0370 5A       		popl	%edx
 3035              		.cfi_def_cfa_offset 92
 3036 0371 59       		popl	%ecx
 3037              		.cfi_def_cfa_offset 88
 3038 0372 FF742418 		pushl	24(%esp)
 3039              		.cfi_def_cfa_offset 92
 3040 0376 85C0     		testl	%eax, %eax
 3041 0378 0F94C0   		sete	%al
 3042              	.LVL115:
 3043              		.loc 1 160 7 is_stmt 0 view .LVU829
 3044 037b 0FB6C0   		movzbl	%al, %eax
 3045 037e 50       		pushl	%eax
 3046              		.cfi_def_cfa_offset 96
 3047 037f E8FCFFFF 		call	__test_assert@PLT
 3047      FF
 3048              	.LVL116:
 3049 0384 83C410   		addl	$16, %esp
 3050              		.cfi_def_cfa_offset 80
 3051 0387 84C0     		testb	%al, %al
 3052 0389 0F85DFFC 		jne	.L31
 3052      FFFF
 3053              		.loc 1 160 59 is_stmt 1 view .LVU830
 3054              		.loc 1 161 7 view .LVU831
 3055 038f 83EC0C   		subl	$12, %esp
 3056              		.cfi_def_cfa_offset 92
 3057 0392 0FBE4424 		movsbl	52(%esp), %eax
 3057      34
 3058 0397 50       		pushl	%eax
 3059              		.cfi_def_cfa_offset 96
 3060 0398 E8FCFFFF 		call	test_emit_token@PLT
 3060      FF
 3061              	.LVL117:
 3062              		.loc 1 158 31 view .LVU832
 3063              		.loc 1 158 19 view .LVU833
 3064 039d 83C410   		addl	$16, %esp
 3065              		.cfi_def_cfa_offset 80
 3066 03a0 836C2418 		subl	$1, 24(%esp)
GAS LISTING /tmp/ccttH9cH.s 			page 60


 3066      01
 3067              	.LVL118:
 3068              		.loc 1 158 19 is_stmt 0 view .LVU834
 3069 03a5 75BC     		jne	.L40
 3070              		.loc 1 163 5 is_stmt 1 view .LVU835
 3071 03a7 50       		pushl	%eax
 3072              		.cfi_def_cfa_offset 84
 3073 03a8 50       		pushl	%eax
 3074              		.cfi_def_cfa_offset 88
 3075 03a9 8D830000 		leal	.LC9@GOTOFF(%ebx), %eax
 3075      0000
 3076 03af 50       		pushl	%eax
 3077              		.cfi_def_cfa_offset 92
 3078 03b0 8D830000 		leal	.LC10@GOTOFF(%ebx), %eax
 3078      0000
 3079 03b6 50       		pushl	%eax
 3080              		.cfi_def_cfa_offset 96
 3081 03b7 E8FCFFFF 		call	__test_assert_sequence@PLT
 3081      FF
 3082              	.LVL119:
 3083 03bc 83C410   		addl	$16, %esp
 3084              		.cfi_def_cfa_offset 80
 3085 03bf 84C0     		testb	%al, %al
 3086 03c1 0F85A7FC 		jne	.L31
 3086      FFFF
 3087              		.loc 1 163 55 view .LVU836
 3088              		.loc 1 165 3 view .LVU837
 3089              		.loc 1 165 19 view .LVU838
 3090              		.loc 1 169 3 view .LVU839
 3091 03c7 C7070700 		movl	$7, (%edi)
 3091      0000
 3092              		.loc 1 171 5 view .LVU840
 3093              		.loc 1 171 12 is_stmt 0 view .LVU841
 3094 03cd 50       		pushl	%eax
 3095              		.cfi_def_cfa_offset 84
 3096 03ce 6AFF     		pushl	$-1
 3097              		.cfi_def_cfa_offset 88
 3098 03d0 6A46     		pushl	$70
 3099              		.cfi_def_cfa_offset 92
 3100 03d2 55       		pushl	%ebp
 3101              		.cfi_def_cfa_offset 96
 3102 03d3 E8FCFFFF 		call	chMBPostTimeout@PLT
 3102      FF
 3103              	.LVL120:
 3104              		.loc 1 172 5 is_stmt 1 view .LVU842
 3105 03d8 5A       		popl	%edx
 3106              		.cfi_def_cfa_offset 92
 3107 03d9 59       		popl	%ecx
 3108              		.cfi_def_cfa_offset 88
 3109 03da FF742418 		pushl	24(%esp)
 3110              		.cfi_def_cfa_offset 92
 3111 03de 85C0     		testl	%eax, %eax
 3112 03e0 0F94C0   		sete	%al
 3113              	.LVL121:
 3114              		.loc 1 172 5 is_stmt 0 view .LVU843
 3115 03e3 0FB6C0   		movzbl	%al, %eax
 3116 03e6 50       		pushl	%eax
GAS LISTING /tmp/ccttH9cH.s 			page 61


 3117              		.cfi_def_cfa_offset 96
 3118 03e7 E8FCFFFF 		call	__test_assert@PLT
 3118      FF
 3119              	.LVL122:
 3120 03ec 83C410   		addl	$16, %esp
 3121              		.cfi_def_cfa_offset 80
 3122 03ef 84C0     		testb	%al, %al
 3123 03f1 0F8577FC 		jne	.L31
 3123      FFFF
 3124              		.loc 1 172 57 is_stmt 1 view .LVU844
 3125              		.loc 1 173 5 view .LVU845
 3126              		.loc 1 173 12 is_stmt 0 view .LVU846
 3127 03f7 50       		pushl	%eax
 3128              		.cfi_def_cfa_offset 84
 3129 03f8 6AFF     		pushl	$-1
 3130              		.cfi_def_cfa_offset 88
 3131 03fa FF742424 		pushl	36(%esp)
 3132              		.cfi_def_cfa_offset 92
 3133 03fe 55       		pushl	%ebp
 3134              		.cfi_def_cfa_offset 96
 3135 03ff E8FCFFFF 		call	chMBFetchTimeout@PLT
 3135      FF
 3136              	.LVL123:
 3137              		.loc 1 174 5 is_stmt 1 view .LVU847
 3138 0404 5A       		popl	%edx
 3139              		.cfi_def_cfa_offset 92
 3140 0405 59       		popl	%ecx
 3141              		.cfi_def_cfa_offset 88
 3142 0406 FF742418 		pushl	24(%esp)
 3143              		.cfi_def_cfa_offset 92
 3144 040a 85C0     		testl	%eax, %eax
 3145 040c 0F94C0   		sete	%al
 3146              	.LVL124:
 3147              		.loc 1 174 5 is_stmt 0 view .LVU848
 3148 040f 0FB6C0   		movzbl	%al, %eax
 3149 0412 50       		pushl	%eax
 3150              		.cfi_def_cfa_offset 96
 3151 0413 E8FCFFFF 		call	__test_assert@PLT
 3151      FF
 3152              	.LVL125:
 3153 0418 83C410   		addl	$16, %esp
 3154              		.cfi_def_cfa_offset 80
 3155 041b 84C0     		testb	%al, %al
 3156 041d 0F854BFC 		jne	.L31
 3156      FFFF
 3157              		.loc 1 174 57 is_stmt 1 view .LVU849
 3158              		.loc 1 176 3 view .LVU850
 3159              		.loc 1 176 19 view .LVU851
 3160              		.loc 1 180 3 view .LVU852
 3161              	.LBB1650:
 3162              	.LBB1651:
 3163              	.LBB1652:
 3164              	.LBB1653:
 3165              		.loc 4 141 28 is_stmt 0 view .LVU853
 3166 0423 8B830400 		movl	4+mb1@GOTOFF(%ebx), %eax
 3166      0000
 3167 0429 2B830000 		subl	mb1@GOTOFF(%ebx), %eax
GAS LISTING /tmp/ccttH9cH.s 			page 62


 3167      0000
 3168              	.LBE1653:
 3169              	.LBE1652:
 3170              	.LBE1651:
 3171              	.LBE1650:
 3172              		.loc 1 180 3 view .LVU854
 3173 042f C7070800 		movl	$8, (%edi)
 3173      0000
 3174              		.loc 1 182 5 is_stmt 1 view .LVU855
 3175              	.LBB1662:
 3176              	.LBI1662:
 3177              		.loc 5 573 20 view .LVU856
 3178              		.loc 5 575 3 view .LVU857
 3179              	.LBB1663:
 3180              	.LBI1663:
 3181              		.loc 2 407 20 view .LVU858
 3182              		.loc 2 409 3 view .LVU859
 3183              	.LBB1664:
 3184              	.LBI1664:
 3185              		.loc 3 361 20 view .LVU860
 3186              	.LBB1665:
 3187              		.loc 3 363 3 view .LVU861
 3188              	.LBE1665:
 3189              	.LBE1664:
 3190              	.LBE1663:
 3191              	.LBE1662:
 3192              	.LBB1669:
 3193              	.LBB1660:
 3194              	.LBB1656:
 3195              	.LBB1654:
 3196              		.loc 4 141 28 is_stmt 0 view .LVU862
 3197 0435 C1F802   		sarl	$2, %eax
 3198              	.LBE1654:
 3199              	.LBE1656:
 3200              		.loc 4 172 28 view .LVU863
 3201 0438 2B831000 		subl	16+mb1@GOTOFF(%ebx), %eax
 3201      0000
 3202              	.LBE1660:
 3203              	.LBE1669:
 3204              		.loc 1 182 5 view .LVU864
 3205 043e 57       		pushl	%edi
 3206              		.cfi_def_cfa_offset 84
 3207 043f 83F804   		cmpl	$4, %eax
 3208 0442 57       		pushl	%edi
 3209              		.cfi_def_cfa_offset 88
 3210 0443 0F94C0   		sete	%al
 3211 0446 FF74240C 		pushl	12(%esp)
 3212              		.cfi_def_cfa_offset 92
 3213 044a 0FB6C0   		movzbl	%al, %eax
 3214              	.LBB1670:
 3215              	.LBB1668:
 3216              	.LBB1667:
 3217              	.LBB1666:
 3218              		.loc 3 363 16 view .LVU865
 3219 044d C7060100 		movl	$1, (%esi)
 3219      0000
 3220              	.LBE1666:
GAS LISTING /tmp/ccttH9cH.s 			page 63


 3221              	.LBE1667:
 3222              		.loc 2 410 35 is_stmt 1 view .LVU866
 3223              		.loc 2 411 21 view .LVU867
 3224              	.LBE1668:
 3225              	.LBE1670:
 3226              		.loc 1 182 5 view .LVU868
 3227              	.LVL126:
 3228              	.LBB1671:
 3229              	.LBI1650:
 3230              		.loc 4 168 22 view .LVU869
 3231              	.LBB1661:
 3232              		.loc 4 170 21 view .LVU870
 3233              		.loc 4 172 3 view .LVU871
 3234              	.LBB1657:
 3235              	.LBI1652:
 3236              		.loc 4 137 22 view .LVU872
 3237              	.LBB1655:
 3238              		.loc 4 141 3 view .LVU873
 3239              		.loc 4 141 3 is_stmt 0 view .LVU874
 3240              	.LBE1655:
 3241              	.LBE1657:
 3242              	.LBB1658:
 3243              	.LBI1658:
 3244              		.loc 4 153 22 is_stmt 1 view .LVU875
 3245              	.LBB1659:
 3246              		.loc 4 155 21 view .LVU876
 3247              		.loc 4 157 3 view .LVU877
 3248              		.loc 4 157 3 is_stmt 0 view .LVU878
 3249              	.LBE1659:
 3250              	.LBE1658:
 3251              	.LBE1661:
 3252              	.LBE1671:
 3253              		.loc 1 182 5 view .LVU879
 3254 0453 50       		pushl	%eax
 3255              		.cfi_def_cfa_offset 96
 3256 0454 E8FCFFFF 		call	__test_assert@PLT
 3256      FF
 3257              	.LVL127:
 3258 0459 83C410   		addl	$16, %esp
 3259              		.cfi_def_cfa_offset 80
 3260 045c 84C0     		testb	%al, %al
 3261 045e 0F85ADFC 		jne	.L36
 3261      FFFF
 3262              		.loc 1 182 5 is_stmt 1 view .LVU880
 3263              		.loc 1 182 70 view .LVU881
 3264              		.loc 1 183 5 view .LVU882
 3265              	.LBB1672:
 3266              	.LBI1672:
 3267              		.loc 5 573 20 view .LVU883
 3268              		.loc 5 575 3 view .LVU884
 3269              	.LBB1673:
 3270              	.LBI1673:
 3271              		.loc 2 407 20 view .LVU885
 3272              		.loc 2 409 3 view .LVU886
 3273              	.LBB1674:
 3274              	.LBI1674:
 3275              		.loc 3 361 20 view .LVU887
GAS LISTING /tmp/ccttH9cH.s 			page 64


 3276              	.LBB1675:
 3277              		.loc 3 363 3 view .LVU888
 3278              	.LBE1675:
 3279              	.LBE1674:
 3280              	.LBE1673:
 3281              	.LBE1672:
 3282              		.loc 1 183 5 is_stmt 0 view .LVU889
 3283 0464 31C0     		xorl	%eax, %eax
 3284 0466 83BB1000 		cmpl	$0, 16+mb1@GOTOFF(%ebx)
 3284      000000
 3285 046d 51       		pushl	%ecx
 3286              		.cfi_def_cfa_offset 84
 3287 046e 0F94C0   		sete	%al
 3288 0471 51       		pushl	%ecx
 3289              		.cfi_def_cfa_offset 88
 3290 0472 FF742410 		pushl	16(%esp)
 3291              		.cfi_def_cfa_offset 92
 3292 0476 50       		pushl	%eax
 3293              		.cfi_def_cfa_offset 96
 3294              	.LBB1679:
 3295              	.LBB1678:
 3296              	.LBB1677:
 3297              	.LBB1676:
 3298              		.loc 3 363 16 view .LVU890
 3299 0477 C7060100 		movl	$1, (%esi)
 3299      0000
 3300              	.LBE1676:
 3301              	.LBE1677:
 3302              		.loc 2 410 35 is_stmt 1 view .LVU891
 3303              		.loc 2 411 21 view .LVU892
 3304              	.LBE1678:
 3305              	.LBE1679:
 3306              		.loc 1 183 5 view .LVU893
 3307              	.LVL128:
 3308              	.LBB1680:
 3309              	.LBI1680:
 3310              		.loc 4 153 22 view .LVU894
 3311              	.LBB1681:
 3312              		.loc 4 155 21 view .LVU895
 3313              		.loc 4 157 3 view .LVU896
 3314              		.loc 4 157 3 is_stmt 0 view .LVU897
 3315              	.LBE1681:
 3316              	.LBE1680:
 3317              		.loc 1 183 5 view .LVU898
 3318 047d E8FCFFFF 		call	__test_assert@PLT
 3318      FF
 3319              	.LVL129:
 3320 0482 83C410   		addl	$16, %esp
 3321              		.cfi_def_cfa_offset 80
 3322 0485 84C0     		testb	%al, %al
 3323 0487 0F8584FC 		jne	.L36
 3323      FFFF
 3324              		.loc 1 183 5 is_stmt 1 view .LVU899
 3325              	.LBB1682:
 3326              	.LBI1682:
 3327              		.loc 5 584 20 view .LVU900
 3328              		.loc 5 586 3 view .LVU901
GAS LISTING /tmp/ccttH9cH.s 			page 65


 3329              	.LBB1683:
 3330              	.LBI1683:
 3331              		.loc 2 421 20 view .LVU902
 3332              	.LBB1684:
 3333              		.loc 2 423 23 view .LVU903
 3334              		.loc 2 424 34 view .LVU904
 3335              		.loc 2 430 3 view .LVU905
 3336              		.loc 2 430 3 view .LVU906
 3337              		.loc 2 430 3 view .LVU907
 3338              		.loc 2 434 3 view .LVU908
 3339              	.LBB1685:
 3340              	.LBI1685:
 3341              		.loc 3 370 20 view .LVU909
 3342              	.LBB1686:
 3343              		.loc 3 372 3 view .LVU910
 3344              	.LBE1686:
 3345              	.LBE1685:
 3346              	.LBE1684:
 3347              	.LBE1683:
 3348              	.LBE1682:
 3349              		.loc 1 184 5 is_stmt 0 view .LVU911
 3350 048d 8B830800 		movl	8+mb1@GOTOFF(%ebx), %eax
 3350      0000
 3351 0493 39830000 		cmpl	%eax, mb1@GOTOFF(%ebx)
 3351      0000
 3352 0499 52       		pushl	%edx
 3353              		.cfi_def_cfa_offset 84
 3354 049a 0F94C0   		sete	%al
 3355 049d 52       		pushl	%edx
 3356              		.cfi_def_cfa_offset 88
 3357 049e 0FB6C0   		movzbl	%al, %eax
 3358 04a1 FF742414 		pushl	20(%esp)
 3359              		.cfi_def_cfa_offset 92
 3360 04a5 50       		pushl	%eax
 3361              		.cfi_def_cfa_offset 96
 3362              	.LBB1691:
 3363              	.LBB1690:
 3364              	.LBB1689:
 3365              	.LBB1688:
 3366              	.LBB1687:
 3367              		.loc 3 372 16 view .LVU912
 3368 04a6 C7060000 		movl	$0, (%esi)
 3368      0000
 3369              	.LBE1687:
 3370              	.LBE1688:
 3371              	.LBE1689:
 3372              	.LBE1690:
 3373              	.LBE1691:
 3374              		.loc 1 183 65 is_stmt 1 view .LVU913
 3375              		.loc 1 184 5 view .LVU914
 3376 04ac E8FCFFFF 		call	__test_assert@PLT
 3376      FF
 3377              	.LVL130:
 3378 04b1 83C410   		addl	$16, %esp
 3379              		.cfi_def_cfa_offset 80
 3380 04b4 84C0     		testb	%al, %al
 3381 04b6 0F85B2FB 		jne	.L31
GAS LISTING /tmp/ccttH9cH.s 			page 66


 3381      FFFF
 3382              		.loc 1 184 78 view .LVU915
 3383              		.loc 1 185 5 view .LVU916
 3384 04bc 50       		pushl	%eax
 3385              		.cfi_def_cfa_offset 84
 3386 04bd 50       		pushl	%eax
 3387              		.cfi_def_cfa_offset 88
 3388 04be 8B830C00 		movl	12+mb1@GOTOFF(%ebx), %eax
 3388      0000
 3389 04c4 39830000 		cmpl	%eax, mb1@GOTOFF(%ebx)
 3389      0000
 3390 04ca FF74241C 		pushl	28(%esp)
 3391              		.cfi_def_cfa_offset 92
 3392 04ce 0F94C0   		sete	%al
 3393 04d1 0FB6C0   		movzbl	%al, %eax
 3394 04d4 50       		pushl	%eax
 3395              		.cfi_def_cfa_offset 96
 3396 04d5 E8FCFFFF 		call	__test_assert@PLT
 3396      FF
 3397              	.LVL131:
 3398              		.loc 1 185 5 view .LVU917
 3399 04da 83C410   		addl	$16, %esp
 3400              		.cfi_def_cfa_offset 80
 3401              		.loc 1 185 5 is_stmt 0 view .LVU918
 3402 04dd E98CFBFF 		jmp	.L31
 3402      FF
 3403              	.L45:
 3404              	.LBE1538:
 3405              	.LBE1537:
 3406              		.loc 1 188 1 view .LVU919
 3407 04e2 E8FCFFFF 		call	__stack_chk_fail_local
 3407      FF
 3408              	.LVL132:
 3409              		.cfi_endproc
 3410              	.LFE305:
 3411              		.size	oslib_test_002_001_execute, .-oslib_test_002_001_execute
 3412              		.section	.text.oslib_test_002_003_teardown,"ax",@progbits
 3413              		.p2align 4
 3414              		.type	oslib_test_002_003_teardown, @function
 3415              	oslib_test_002_003_teardown:
 3416              	.LFB321:
 3417              		.cfi_startproc
 3418 0000 53       		pushl	%ebx
 3419              		.cfi_def_cfa_offset 8
 3420              		.cfi_offset 3, -8
 3421 0001 E8FCFFFF 		call	__x86.get_pc_thunk.bx
 3421      FF
 3422 0006 81C30200 		addl	$_GLOBAL_OFFSET_TABLE_, %ebx
 3422      0000
 3423 000c 83EC14   		subl	$20, %esp
 3424              		.cfi_def_cfa_offset 28
 3425 000f 8D830000 		leal	mb1@GOTOFF(%ebx), %eax
 3425      0000
 3426 0015 50       		pushl	%eax
 3427              		.cfi_def_cfa_offset 32
 3428 0016 E8FCFFFF 		call	chMBReset@PLT
 3428      FF
GAS LISTING /tmp/ccttH9cH.s 			page 67


 3429 001b 83C418   		addl	$24, %esp
 3430              		.cfi_def_cfa_offset 8
 3431 001e 5B       		popl	%ebx
 3432              		.cfi_restore 3
 3433              		.cfi_def_cfa_offset 4
 3434 001f C3       		ret
 3435              		.cfi_endproc
 3436              	.LFE321:
 3437              		.size	oslib_test_002_003_teardown, .-oslib_test_002_003_teardown
 3438              		.section	.text.oslib_test_002_002_teardown,"ax",@progbits
 3439              		.p2align 4
 3440              		.type	oslib_test_002_002_teardown, @function
 3441              	oslib_test_002_002_teardown:
 3442              	.LFB319:
 3443              		.cfi_startproc
 3444 0000 53       		pushl	%ebx
 3445              		.cfi_def_cfa_offset 8
 3446              		.cfi_offset 3, -8
 3447 0001 E8FCFFFF 		call	__x86.get_pc_thunk.bx
 3447      FF
 3448 0006 81C30200 		addl	$_GLOBAL_OFFSET_TABLE_, %ebx
 3448      0000
 3449 000c 83EC14   		subl	$20, %esp
 3450              		.cfi_def_cfa_offset 28
 3451 000f 8D830000 		leal	mb1@GOTOFF(%ebx), %eax
 3451      0000
 3452 0015 50       		pushl	%eax
 3453              		.cfi_def_cfa_offset 32
 3454 0016 E8FCFFFF 		call	chMBReset@PLT
 3454      FF
 3455 001b 83C418   		addl	$24, %esp
 3456              		.cfi_def_cfa_offset 8
 3457 001e 5B       		popl	%ebx
 3458              		.cfi_restore 3
 3459              		.cfi_def_cfa_offset 4
 3460 001f C3       		ret
 3461              		.cfi_endproc
 3462              	.LFE319:
 3463              		.size	oslib_test_002_002_teardown, .-oslib_test_002_002_teardown
 3464              		.section	.text.oslib_test_002_002_setup,"ax",@progbits
 3465              		.p2align 4
 3466              		.type	oslib_test_002_002_setup, @function
 3467              	oslib_test_002_002_setup:
 3468              	.LFB315:
 3469              		.cfi_startproc
 3470 0000 53       		pushl	%ebx
 3471              		.cfi_def_cfa_offset 8
 3472              		.cfi_offset 3, -8
 3473 0001 E8FCFFFF 		call	__x86.get_pc_thunk.bx
 3473      FF
 3474 0006 81C30200 		addl	$_GLOBAL_OFFSET_TABLE_, %ebx
 3474      0000
 3475 000c 83EC0C   		subl	$12, %esp
 3476              		.cfi_def_cfa_offset 20
 3477 000f 6A04     		pushl	$4
 3478              		.cfi_def_cfa_offset 24
 3479 0011 8D830000 		leal	mb_buffer@GOTOFF(%ebx), %eax
GAS LISTING /tmp/ccttH9cH.s 			page 68


 3479      0000
 3480 0017 50       		pushl	%eax
 3481              		.cfi_def_cfa_offset 28
 3482 0018 8D830000 		leal	mb1@GOTOFF(%ebx), %eax
 3482      0000
 3483 001e 50       		pushl	%eax
 3484              		.cfi_def_cfa_offset 32
 3485 001f E8FCFFFF 		call	chMBObjectInit@PLT
 3485      FF
 3486 0024 83C418   		addl	$24, %esp
 3487              		.cfi_def_cfa_offset 8
 3488 0027 5B       		popl	%ebx
 3489              		.cfi_restore 3
 3490              		.cfi_def_cfa_offset 4
 3491 0028 C3       		ret
 3492              		.cfi_endproc
 3493              	.LFE315:
 3494              		.size	oslib_test_002_002_setup, .-oslib_test_002_002_setup
 3495              		.section	.text.oslib_test_002_003_setup,"ax",@progbits
 3496              		.p2align 4
 3497              		.type	oslib_test_002_003_setup, @function
 3498              	oslib_test_002_003_setup:
 3499              	.LFB317:
 3500              		.cfi_startproc
 3501 0000 53       		pushl	%ebx
 3502              		.cfi_def_cfa_offset 8
 3503              		.cfi_offset 3, -8
 3504 0001 E8FCFFFF 		call	__x86.get_pc_thunk.bx
 3504      FF
 3505 0006 81C30200 		addl	$_GLOBAL_OFFSET_TABLE_, %ebx
 3505      0000
 3506 000c 83EC0C   		subl	$12, %esp
 3507              		.cfi_def_cfa_offset 20
 3508 000f 6A04     		pushl	$4
 3509              		.cfi_def_cfa_offset 24
 3510 0011 8D830000 		leal	mb_buffer@GOTOFF(%ebx), %eax
 3510      0000
 3511 0017 50       		pushl	%eax
 3512              		.cfi_def_cfa_offset 28
 3513 0018 8D830000 		leal	mb1@GOTOFF(%ebx), %eax
 3513      0000
 3514 001e 50       		pushl	%eax
 3515              		.cfi_def_cfa_offset 32
 3516 001f E8FCFFFF 		call	chMBObjectInit@PLT
 3516      FF
 3517 0024 83C418   		addl	$24, %esp
 3518              		.cfi_def_cfa_offset 8
 3519 0027 5B       		popl	%ebx
 3520              		.cfi_restore 3
 3521              		.cfi_def_cfa_offset 4
 3522 0028 C3       		ret
 3523              		.cfi_endproc
 3524              	.LFE317:
 3525              		.size	oslib_test_002_003_setup, .-oslib_test_002_003_setup
 3526              		.globl	oslib_test_sequence_002
 3527              		.section	.rodata.str1.1,"aMS",@progbits,1
 3528              	.LC12:
GAS LISTING /tmp/ccttH9cH.s 			page 69


 3529 0000 4D61696C 		.string	"Mailboxes"
 3529      626F7865 
 3529      7300
 3530              		.section	.data.rel.ro.local.oslib_test_sequence_002,"aw"
 3531              		.align 4
 3532              		.type	oslib_test_sequence_002, @object
 3533              		.size	oslib_test_sequence_002, 8
 3534              	oslib_test_sequence_002:
 3535 0000 00000000 		.long	.LC12
 3536 0004 00000000 		.long	oslib_test_sequence_002_array
 3537              		.globl	oslib_test_sequence_002_array
 3538              		.section	.data.rel.ro.local.oslib_test_sequence_002_array,"aw"
 3539              		.align 4
 3540              		.type	oslib_test_sequence_002_array, @object
 3541              		.size	oslib_test_sequence_002_array, 16
 3542              	oslib_test_sequence_002_array:
 3543 0000 00000000 		.long	oslib_test_002_001
 3544 0004 00000000 		.long	oslib_test_002_002
 3545 0008 00000000 		.long	oslib_test_002_003
 3546 000c 00000000 		.long	0
 3547              		.section	.rodata.str1.1
 3548              	.LC13:
 3549 000a 4D61696C 		.string	"Mailbox timeouts"
 3549      626F7820 
 3549      74696D65 
 3549      6F757473 
 3549      00
 3550              		.section	.data.rel.ro.local.oslib_test_002_003,"aw"
 3551              		.align 4
 3552              		.type	oslib_test_002_003, @object
 3553              		.size	oslib_test_002_003, 16
 3554              	oslib_test_002_003:
 3555 0000 0A000000 		.long	.LC13
 3556 0004 00000000 		.long	oslib_test_002_003_setup
 3557 0008 00000000 		.long	oslib_test_002_003_teardown
 3558 000c 00000000 		.long	oslib_test_002_003_execute
 3559              		.section	.rodata.str1.4,"aMS",@progbits,1
 3560              		.align 4
 3561              	.LC14:
 3562 0000 4D61696C 		.string	"Mailbox I-Class API, non-blocking tests"
 3562      626F7820 
 3562      492D436C 
 3562      61737320 
 3562      4150492C 
 3563              		.section	.data.rel.ro.local.oslib_test_002_002,"aw"
 3564              		.align 4
 3565              		.type	oslib_test_002_002, @object
 3566              		.size	oslib_test_002_002, 16
 3567              	oslib_test_002_002:
 3568 0000 00000000 		.long	.LC14
 3569 0004 00000000 		.long	oslib_test_002_002_setup
 3570 0008 00000000 		.long	oslib_test_002_002_teardown
 3571 000c 00000000 		.long	oslib_test_002_002_execute
 3572              		.section	.rodata.str1.4
 3573              		.align 4
 3574              	.LC15:
 3575 0028 4D61696C 		.string	"Mailbox normal API, non-blocking tests"
GAS LISTING /tmp/ccttH9cH.s 			page 70


 3575      626F7820 
 3575      6E6F726D 
 3575      616C2041 
 3575      50492C20 
 3576              		.section	.data.rel.ro.local.oslib_test_002_001,"aw"
 3577              		.align 4
 3578              		.type	oslib_test_002_001, @object
 3579              		.size	oslib_test_002_001, 16
 3580              	oslib_test_002_001:
 3581 0000 28000000 		.long	.LC15
 3582 0004 00000000 		.long	oslib_test_002_001_setup
 3583 0008 00000000 		.long	oslib_test_002_001_teardown
 3584 000c 00000000 		.long	oslib_test_002_001_execute
 3585              		.section	.data.rel.local.mb1,"aw"
 3586              		.align 32
 3587              		.type	mb1, @object
 3588              		.size	mb1, 40
 3589              	mb1:
 3590 0000 00000000 		.long	mb_buffer
 3591 0004 10000000 		.long	mb_buffer+16
 3592 0008 00000000 		.long	mb_buffer
 3593 000c 00000000 		.long	mb_buffer
 3594 0010 00000000 		.long	0
 3595 0014 00       		.byte	0
 3596 0015 000000   		.zero	3
 3597 0018 18000000 		.long	mb1+24
 3598 001c 18000000 		.long	mb1+24
 3599 0020 20000000 		.long	mb1+32
 3600 0024 20000000 		.long	mb1+32
 3601              		.section	.bss.mb_buffer,"aw",@nobits
 3602              		.align 4
 3603              		.type	mb_buffer, @object
 3604              		.size	mb_buffer, 16
 3605              	mb_buffer:
 3606 0000 00000000 		.zero	16
 3606      00000000 
 3606      00000000 
 3606      00000000 
 3607              		.section	.text.__x86.get_pc_thunk.bx,"axG",@progbits,__x86.get_pc_thunk.bx,comdat
 3608              		.globl	__x86.get_pc_thunk.bx
 3609              		.hidden	__x86.get_pc_thunk.bx
 3610              		.type	__x86.get_pc_thunk.bx, @function
 3611              	__x86.get_pc_thunk.bx:
 3612              	.LFB324:
 3613              		.cfi_startproc
 3614 0000 8B1C24   		movl	(%esp), %ebx
 3615 0003 C3       		ret
 3616              		.cfi_endproc
 3617              	.LFE324:
 3618              		.text
 3619              	.Letext0:
 3620              		.file 6 "/usr/lib/gcc/x86_64-linux-gnu/11/include/stddef.h"
 3621              		.file 7 "/usr/include/bits/types.h"
 3622              		.file 8 "/usr/include/bits/stdint-intn.h"
 3623              		.file 9 "/usr/include/bits/stdint-uintn.h"
 3624              		.file 10 "../../../os/common/ports/SIMIA32/compilers/GCC/chtypes.h"
 3625              		.file 11 "../../../os/rt/include/chtime.h"
GAS LISTING /tmp/ccttH9cH.s 			page 71


 3626              		.file 12 "../../../os/rt/include/chlists.h"
 3627              		.file 13 "../../../os/rt/include/chobjects.h"
 3628              		.file 14 "../../../os/hal/include/hal_streams.h"
 3629              		.file 15 "../../../os/test/include/ch_test.h"
 3630              		.file 16 "../../../test/oslib/source/test/oslib_test_sequence_002.h"
 3631              		.section	.debug_info,"",@progbits
 3632              	.Ldebug_info0:
 3633 0000 97180000 		.long	0x1897
 3634 0004 0500     		.value	0x5
 3635 0006 01       		.byte	0x1
 3636 0007 04       		.byte	0x4
 3637 0008 00000000 		.long	.Ldebug_abbrev0
 3638 000c 2C       		.uleb128 0x2c
 3639 000d 85040000 		.long	.LASF99
 3640 0011 1D       		.byte	0x1d
 3641 0012 26000000 		.long	.LASF0
 3642 0016 00000000 		.long	.LASF1
 3643 001a BC020000 		.long	.LLRL93
 3644 001e 00000000 		.long	0
 3645 0022 00000000 		.long	.Ldebug_line0
 3646 0026 2D       		.uleb128 0x2d
 3647 0027 04       		.byte	0x4
 3648 0028 05       		.byte	0x5
 3649 0029 696E7400 		.string	"int"
 3650 002d 09       		.uleb128 0x9
 3651 002e B8000000 		.long	.LASF11
 3652 0032 06       		.byte	0x6
 3653 0033 D1       		.byte	0xd1
 3654 0034 17       		.byte	0x17
 3655 0035 39000000 		.long	0x39
 3656 0039 0B       		.uleb128 0xb
 3657 003a 04       		.byte	0x4
 3658 003b 07       		.byte	0x7
 3659 003c 3B030000 		.long	.LASF2
 3660 0040 0B       		.uleb128 0xb
 3661 0041 04       		.byte	0x4
 3662 0042 05       		.byte	0x5
 3663 0043 2F020000 		.long	.LASF3
 3664 0047 0B       		.uleb128 0xb
 3665 0048 08       		.byte	0x8
 3666 0049 05       		.byte	0x5
 3667 004a 12020000 		.long	.LASF4
 3668 004e 0B       		.uleb128 0xb
 3669 004f 0C       		.byte	0xc
 3670 0050 04       		.byte	0x4
 3671 0051 00000000 		.long	.LASF5
 3672 0055 0B       		.uleb128 0xb
 3673 0056 10       		.byte	0x10
 3674 0057 04       		.byte	0x4
 3675 0058 53050000 		.long	.LASF6
 3676 005c 0B       		.uleb128 0xb
 3677 005d 01       		.byte	0x1
 3678 005e 08       		.byte	0x8
 3679 005f 9A020000 		.long	.LASF7
 3680 0063 0B       		.uleb128 0xb
 3681 0064 02       		.byte	0x2
 3682 0065 07       		.byte	0x7
GAS LISTING /tmp/ccttH9cH.s 			page 72


 3683 0066 E9030000 		.long	.LASF8
 3684 006a 0B       		.uleb128 0xb
 3685 006b 04       		.byte	0x4
 3686 006c 07       		.byte	0x7
 3687 006d 23040000 		.long	.LASF9
 3688 0071 0B       		.uleb128 0xb
 3689 0072 01       		.byte	0x1
 3690 0073 06       		.byte	0x6
 3691 0074 FD020000 		.long	.LASF10
 3692 0078 09       		.uleb128 0x9
 3693 0079 54020000 		.long	.LASF12
 3694 007d 07       		.byte	0x7
 3695 007e 26       		.byte	0x26
 3696 007f 17       		.byte	0x17
 3697 0080 5C000000 		.long	0x5c
 3698 0084 0B       		.uleb128 0xb
 3699 0085 02       		.byte	0x2
 3700 0086 05       		.byte	0x5
 3701 0087 AE000000 		.long	.LASF13
 3702 008b 09       		.uleb128 0x9
 3703 008c 66040000 		.long	.LASF14
 3704 0090 07       		.byte	0x7
 3705 0091 29       		.byte	0x29
 3706 0092 14       		.byte	0x14
 3707 0093 26000000 		.long	0x26
 3708 0097 09       		.uleb128 0x9
 3709 0098 49040000 		.long	.LASF15
 3710 009c 07       		.byte	0x7
 3711 009d 2A       		.byte	0x2a
 3712 009e 16       		.byte	0x16
 3713 009f 39000000 		.long	0x39
 3714 00a3 0B       		.uleb128 0xb
 3715 00a4 08       		.byte	0x8
 3716 00a5 07       		.byte	0x7
 3717 00a6 09030000 		.long	.LASF16
 3718 00aa 2E       		.uleb128 0x2e
 3719 00ab 04       		.byte	0x4
 3720 00ac 0A       		.uleb128 0xa
 3721 00ad B1000000 		.long	0xb1
 3722 00b1 0B       		.uleb128 0xb
 3723 00b2 01       		.byte	0x1
 3724 00b3 06       		.byte	0x6
 3725 00b4 D2030000 		.long	.LASF17
 3726 00b8 0C       		.uleb128 0xc
 3727 00b9 B1000000 		.long	0xb1
 3728 00bd 09       		.uleb128 0x9
 3729 00be D7030000 		.long	.LASF18
 3730 00c2 08       		.byte	0x8
 3731 00c3 1A       		.byte	0x1a
 3732 00c4 13       		.byte	0x13
 3733 00c5 8B000000 		.long	0x8b
 3734 00c9 09       		.uleb128 0x9
 3735 00ca 6F010000 		.long	.LASF19
 3736 00ce 09       		.byte	0x9
 3737 00cf 18       		.byte	0x18
 3738 00d0 13       		.byte	0x13
 3739 00d1 78000000 		.long	0x78
GAS LISTING /tmp/ccttH9cH.s 			page 73


 3740 00d5 0C       		.uleb128 0xc
 3741 00d6 C9000000 		.long	0xc9
 3742 00da 09       		.uleb128 0x9
 3743 00db C0010000 		.long	.LASF20
 3744 00df 09       		.byte	0x9
 3745 00e0 1A       		.byte	0x1a
 3746 00e1 14       		.byte	0x14
 3747 00e2 97000000 		.long	0x97
 3748 00e6 09       		.uleb128 0x9
 3749 00e7 CD050000 		.long	.LASF21
 3750 00eb 0A       		.byte	0xa
 3751 00ec 37       		.byte	0x37
 3752 00ed 1D       		.byte	0x1d
 3753 00ee DA000000 		.long	0xda
 3754 00f2 09       		.uleb128 0x9
 3755 00f3 D6050000 		.long	.LASF22
 3756 00f7 0A       		.byte	0xa
 3757 00f8 3D       		.byte	0x3d
 3758 00f9 1D       		.byte	0x1d
 3759 00fa BD000000 		.long	0xbd
 3760 00fe 0A       		.uleb128 0xa
 3761 00ff B8000000 		.long	0xb8
 3762 0103 09       		.uleb128 0x9
 3763 0104 0E040000 		.long	.LASF23
 3764 0108 0B       		.byte	0xb
 3765 0109 79       		.byte	0x79
 3766 010a 12       		.byte	0x12
 3767 010b DA000000 		.long	0xda
 3768 010f 09       		.uleb128 0x9
 3769 0110 A6010000 		.long	.LASF24
 3770 0114 0C       		.byte	0xc
 3771 0115 3F       		.byte	0x3f
 3772 0116 19       		.byte	0x19
 3773 0117 1B010000 		.long	0x11b
 3774 011b 1F       		.uleb128 0x1f
 3775 011c 4A050000 		.long	.LASF28
 3776 0120 08       		.byte	0x8
 3777 0121 0C       		.byte	0xc
 3778 0122 45       		.byte	0x45
 3779 0123 08       		.byte	0x8
 3780 0124 43010000 		.long	0x143
 3781 0128 06       		.uleb128 0x6
 3782 0129 DC050000 		.long	.LASF25
 3783 012d 0C       		.byte	0xc
 3784 012e 46       		.byte	0x46
 3785 012f 1A       		.byte	0x1a
 3786 0130 43010000 		.long	0x143
 3787 0134 00       		.byte	0
 3788 0135 06       		.uleb128 0x6
 3789 0136 AC050000 		.long	.LASF26
 3790 013a 0C       		.byte	0xc
 3791 013b 47       		.byte	0x47
 3792 013c 1A       		.byte	0x1a
 3793 013d 43010000 		.long	0x143
 3794 0141 04       		.byte	0x4
 3795 0142 00       		.byte	0
 3796 0143 0A       		.uleb128 0xa
GAS LISTING /tmp/ccttH9cH.s 			page 74


 3797 0144 0F010000 		.long	0x10f
 3798 0148 0A       		.uleb128 0xa
 3799 0149 C9000000 		.long	0xc9
 3800 014d 0B       		.uleb128 0xb
 3801 014e 01       		.byte	0x1
 3802 014f 02       		.byte	0x2
 3803 0150 FC030000 		.long	.LASF27
 3804 0154 24       		.uleb128 0x24
 3805 0155 6F000000 		.long	.LASF59
 3806 0159 03       		.byte	0x3
 3807 015a 1C01     		.value	0x11c
 3808 015c 11       		.byte	0x11
 3809 015d E6000000 		.long	0xe6
 3810 0161 1F       		.uleb128 0x1f
 3811 0162 77010000 		.long	.LASF29
 3812 0166 08       		.byte	0x8
 3813 0167 0D       		.byte	0xd
 3814 0168 97       		.byte	0x97
 3815 0169 10       		.byte	0x10
 3816 016a 7C010000 		.long	0x17c
 3817 016e 06       		.uleb128 0x6
 3818 016f 83020000 		.long	.LASF30
 3819 0173 0D       		.byte	0xd
 3820 0174 9B       		.byte	0x9b
 3821 0175 21       		.byte	0x21
 3822 0176 0F010000 		.long	0x10f
 3823 017a 00       		.byte	0
 3824 017b 00       		.byte	0
 3825 017c 09       		.uleb128 0x9
 3826 017d 59000000 		.long	.LASF31
 3827 0181 0D       		.byte	0xd
 3828 0182 9C       		.byte	0x9c
 3829 0183 03       		.byte	0x3
 3830 0184 61010000 		.long	0x161
 3831 0188 14       		.uleb128 0x14
 3832 0189 28       		.byte	0x28
 3833 018a 04       		.byte	0x4
 3834 018b 34       		.byte	0x34
 3835 018c F7010000 		.long	0x1f7
 3836 0190 06       		.uleb128 0x6
 3837 0191 1C040000 		.long	.LASF32
 3838 0195 04       		.byte	0x4
 3839 0196 35       		.byte	0x35
 3840 0197 1A       		.byte	0x1a
 3841 0198 F7010000 		.long	0x1f7
 3842 019c 00       		.byte	0
 3843 019d 10       		.uleb128 0x10
 3844 019e 746F7000 		.string	"top"
 3845 01a2 04       		.byte	0x4
 3846 01a3 37       		.byte	0x37
 3847 01a4 1A       		.byte	0x1a
 3848 01a5 F7010000 		.long	0x1f7
 3849 01a9 04       		.byte	0x4
 3850 01aa 06       		.uleb128 0x6
 3851 01ab D6010000 		.long	.LASF33
 3852 01af 04       		.byte	0x4
 3853 01b0 39       		.byte	0x39
GAS LISTING /tmp/ccttH9cH.s 			page 75


 3854 01b1 1A       		.byte	0x1a
 3855 01b2 F7010000 		.long	0x1f7
 3856 01b6 08       		.byte	0x8
 3857 01b7 06       		.uleb128 0x6
 3858 01b8 96050000 		.long	.LASF34
 3859 01bc 04       		.byte	0x4
 3860 01bd 3A       		.byte	0x3a
 3861 01be 1A       		.byte	0x1a
 3862 01bf F7010000 		.long	0x1f7
 3863 01c3 0C       		.byte	0xc
 3864 01c4 10       		.uleb128 0x10
 3865 01c5 636E7400 		.string	"cnt"
 3866 01c9 04       		.byte	0x4
 3867 01ca 3B       		.byte	0x3b
 3868 01cb 19       		.byte	0x19
 3869 01cc 2D000000 		.long	0x2d
 3870 01d0 10       		.byte	0x10
 3871 01d1 06       		.uleb128 0x6
 3872 01d2 60040000 		.long	.LASF35
 3873 01d6 04       		.byte	0x4
 3874 01d7 3C       		.byte	0x3c
 3875 01d8 19       		.byte	0x19
 3876 01d9 4D010000 		.long	0x14d
 3877 01dd 14       		.byte	0x14
 3878 01de 10       		.uleb128 0x10
 3879 01df 717700   		.string	"qw"
 3880 01e2 04       		.byte	0x4
 3881 01e3 3D       		.byte	0x3d
 3882 01e4 19       		.byte	0x19
 3883 01e5 7C010000 		.long	0x17c
 3884 01e9 18       		.byte	0x18
 3885 01ea 10       		.uleb128 0x10
 3886 01eb 717200   		.string	"qr"
 3887 01ee 04       		.byte	0x4
 3888 01ef 3E       		.byte	0x3e
 3889 01f0 19       		.byte	0x19
 3890 01f1 7C010000 		.long	0x17c
 3891 01f5 20       		.byte	0x20
 3892 01f6 00       		.byte	0
 3893 01f7 0A       		.uleb128 0xa
 3894 01f8 F2000000 		.long	0xf2
 3895 01fc 09       		.uleb128 0x9
 3896 01fd DF030000 		.long	.LASF36
 3897 0201 04       		.byte	0x4
 3898 0202 3F       		.byte	0x3f
 3899 0203 03       		.byte	0x3
 3900 0204 88010000 		.long	0x188
 3901 0208 0C       		.uleb128 0xc
 3902 0209 FC010000 		.long	0x1fc
 3903 020d 1F       		.uleb128 0x1f
 3904 020e E1050000 		.long	.LASF37
 3905 0212 14       		.byte	0x14
 3906 0213 0E       		.byte	0xe
 3907 0214 4F       		.byte	0x4f
 3908 0215 08       		.byte	0x8
 3909 0216 5C020000 		.long	0x25c
 3910 021a 06       		.uleb128 0x6
GAS LISTING /tmp/ccttH9cH.s 			page 76


 3911 021b B1050000 		.long	.LASF38
 3912 021f 0E       		.byte	0xe
 3913 0220 50       		.byte	0x50
 3914 0221 03       		.byte	0x3
 3915 0222 2D000000 		.long	0x2d
 3916 0226 00       		.byte	0
 3917 0227 06       		.uleb128 0x6
 3918 0228 69000000 		.long	.LASF39
 3919 022c 0E       		.byte	0xe
 3920 022d 50       		.byte	0x50
 3921 022e 03       		.byte	0x3
 3922 022f 7F020000 		.long	0x27f
 3923 0233 04       		.byte	0x4
 3924 0234 06       		.uleb128 0x6
 3925 0235 0D020000 		.long	.LASF40
 3926 0239 0E       		.byte	0xe
 3927 023a 50       		.byte	0x50
 3928 023b 03       		.byte	0x3
 3929 023c 9D020000 		.long	0x29d
 3930 0240 08       		.byte	0x8
 3931 0241 10       		.uleb128 0x10
 3932 0242 70757400 		.string	"put"
 3933 0246 0E       		.byte	0xe
 3934 0247 50       		.byte	0x50
 3935 0248 03       		.byte	0x3
 3936 0249 B6020000 		.long	0x2b6
 3937 024d 0C       		.byte	0xc
 3938 024e 10       		.uleb128 0x10
 3939 024f 67657400 		.string	"get"
 3940 0253 0E       		.byte	0xe
 3941 0254 50       		.byte	0x50
 3942 0255 03       		.byte	0x3
 3943 0256 CA020000 		.long	0x2ca
 3944 025a 10       		.byte	0x10
 3945 025b 00       		.byte	0
 3946 025c 0C       		.uleb128 0xc
 3947 025d 0D020000 		.long	0x20d
 3948 0261 15       		.uleb128 0x15
 3949 0262 2D000000 		.long	0x2d
 3950 0266 7A020000 		.long	0x27a
 3951 026a 02       		.uleb128 0x2
 3952 026b AA000000 		.long	0xaa
 3953 026f 02       		.uleb128 0x2
 3954 0270 7A020000 		.long	0x27a
 3955 0274 02       		.uleb128 0x2
 3956 0275 2D000000 		.long	0x2d
 3957 0279 00       		.byte	0
 3958 027a 0A       		.uleb128 0xa
 3959 027b D5000000 		.long	0xd5
 3960 027f 0A       		.uleb128 0xa
 3961 0280 61020000 		.long	0x261
 3962 0284 15       		.uleb128 0x15
 3963 0285 2D000000 		.long	0x2d
 3964 0289 9D020000 		.long	0x29d
 3965 028d 02       		.uleb128 0x2
 3966 028e AA000000 		.long	0xaa
 3967 0292 02       		.uleb128 0x2
GAS LISTING /tmp/ccttH9cH.s 			page 77


 3968 0293 48010000 		.long	0x148
 3969 0297 02       		.uleb128 0x2
 3970 0298 2D000000 		.long	0x2d
 3971 029c 00       		.byte	0
 3972 029d 0A       		.uleb128 0xa
 3973 029e 84020000 		.long	0x284
 3974 02a2 15       		.uleb128 0x15
 3975 02a3 F2000000 		.long	0xf2
 3976 02a7 B6020000 		.long	0x2b6
 3977 02ab 02       		.uleb128 0x2
 3978 02ac AA000000 		.long	0xaa
 3979 02b0 02       		.uleb128 0x2
 3980 02b1 C9000000 		.long	0xc9
 3981 02b5 00       		.byte	0
 3982 02b6 0A       		.uleb128 0xa
 3983 02b7 A2020000 		.long	0x2a2
 3984 02bb 15       		.uleb128 0x15
 3985 02bc F2000000 		.long	0xf2
 3986 02c0 CA020000 		.long	0x2ca
 3987 02c4 02       		.uleb128 0x2
 3988 02c5 AA000000 		.long	0xaa
 3989 02c9 00       		.byte	0
 3990 02ca 0A       		.uleb128 0xa
 3991 02cb BB020000 		.long	0x2bb
 3992 02cf 14       		.uleb128 0x14
 3993 02d0 04       		.byte	0x4
 3994 02d1 0E       		.byte	0xe
 3995 02d2 5A       		.byte	0x5a
 3996 02d3 E5020000 		.long	0x2e5
 3997 02d7 10       		.uleb128 0x10
 3998 02d8 766D7400 		.string	"vmt"
 3999 02dc 0E       		.byte	0xe
 4000 02dd 5C       		.byte	0x5c
 4001 02de 29       		.byte	0x29
 4002 02df E5020000 		.long	0x2e5
 4003 02e3 00       		.byte	0
 4004 02e4 00       		.byte	0
 4005 02e5 0A       		.uleb128 0xa
 4006 02e6 5C020000 		.long	0x25c
 4007 02ea 09       		.uleb128 0x9
 4008 02eb F7000000 		.long	.LASF41
 4009 02ef 0E       		.byte	0xe
 4010 02f0 5E       		.byte	0x5e
 4011 02f1 03       		.byte	0x3
 4012 02f2 CF020000 		.long	0x2cf
 4013 02f6 09       		.uleb128 0x9
 4014 02f7 B1010000 		.long	.LASF42
 4015 02fb 0F       		.byte	0xf
 4016 02fc 7D       		.byte	0x7d
 4017 02fd 0F       		.byte	0xf
 4018 02fe 02030000 		.long	0x302
 4019 0302 0A       		.uleb128 0xa
 4020 0303 07030000 		.long	0x307
 4021 0307 15       		.uleb128 0x15
 4022 0308 26000000 		.long	0x26
 4023 030c 16030000 		.long	0x316
 4024 0310 02       		.uleb128 0x2
GAS LISTING /tmp/ccttH9cH.s 			page 78


 4025 0311 26000000 		.long	0x26
 4026 0315 00       		.byte	0
 4027 0316 14       		.uleb128 0x14
 4028 0317 28       		.byte	0x28
 4029 0318 0F       		.byte	0xf
 4030 0319 82       		.byte	0x82
 4031 031a 87030000 		.long	0x387
 4032 031e 06       		.uleb128 0x6
 4033 031f C9010000 		.long	.LASF43
 4034 0323 0F       		.byte	0xf
 4035 0324 86       		.byte	0x86
 4036 0325 15       		.byte	0x15
 4037 0326 39000000 		.long	0x39
 4038 032a 00       		.byte	0
 4039 032b 06       		.uleb128 0x6
 4040 032c D1000000 		.long	.LASF44
 4041 0330 0F       		.byte	0xf
 4042 0331 8A       		.byte	0x8a
 4043 0332 15       		.byte	0x15
 4044 0333 4D010000 		.long	0x14d
 4045 0337 04       		.byte	0x4
 4046 0338 06       		.uleb128 0x6
 4047 0339 B1020000 		.long	.LASF45
 4048 033d 0F       		.byte	0xf
 4049 033e 8E       		.byte	0x8e
 4050 033f 15       		.byte	0x15
 4051 0340 4D010000 		.long	0x14d
 4052 0344 05       		.byte	0x5
 4053 0345 06       		.uleb128 0x6
 4054 0346 38020000 		.long	.LASF46
 4055 034a 0F       		.byte	0xf
 4056 034b 92       		.byte	0x92
 4057 034c 16       		.byte	0x16
 4058 034d FE000000 		.long	0xfe
 4059 0351 08       		.byte	0x8
 4060 0352 06       		.uleb128 0x6
 4061 0353 48020000 		.long	.LASF47
 4062 0357 0F       		.byte	0xf
 4063 0358 96       		.byte	0x96
 4064 0359 16       		.byte	0x16
 4065 035a AC000000 		.long	0xac
 4066 035e 0C       		.byte	0xc
 4067 035f 06       		.uleb128 0x6
 4068 0360 DC010000 		.long	.LASF48
 4069 0364 0F       		.byte	0xf
 4070 0365 9A       		.byte	0x9a
 4071 0366 15       		.byte	0x15
 4072 0367 87030000 		.long	0x387
 4073 036b 10       		.byte	0x10
 4074 036c 06       		.uleb128 0x6
 4075 036d EF000000 		.long	.LASF49
 4076 0371 0F       		.byte	0xf
 4077 0372 9E       		.byte	0x9e
 4078 0373 15       		.byte	0x15
 4079 0374 F6020000 		.long	0x2f6
 4080 0378 20       		.byte	0x20
 4081 0379 06       		.uleb128 0x6
GAS LISTING /tmp/ccttH9cH.s 			page 79


 4082 037a 4D020000 		.long	.LASF50
 4083 037e 0F       		.byte	0xf
 4084 037f A3       		.byte	0xa3
 4085 0380 19       		.byte	0x19
 4086 0381 97030000 		.long	0x397
 4087 0385 24       		.byte	0x24
 4088 0386 00       		.byte	0
 4089 0387 17       		.uleb128 0x17
 4090 0388 B1000000 		.long	0xb1
 4091 038c 97030000 		.long	0x397
 4092 0390 18       		.uleb128 0x18
 4093 0391 39000000 		.long	0x39
 4094 0395 0F       		.byte	0xf
 4095 0396 00       		.byte	0
 4096 0397 0A       		.uleb128 0xa
 4097 0398 EA020000 		.long	0x2ea
 4098 039c 09       		.uleb128 0x9
 4099 039d 2E000000 		.long	.LASF51
 4100 03a1 0F       		.byte	0xf
 4101 03a2 A5       		.byte	0xa5
 4102 03a3 03       		.byte	0x3
 4103 03a4 16030000 		.long	0x316
 4104 03a8 14       		.uleb128 0x14
 4105 03a9 10       		.byte	0x10
 4106 03aa 0F       		.byte	0xf
 4107 03ab AA       		.byte	0xaa
 4108 03ac E5030000 		.long	0x3e5
 4109 03b0 06       		.uleb128 0x6
 4110 03b1 89020000 		.long	.LASF52
 4111 03b5 0F       		.byte	0xf
 4112 03b6 AB       		.byte	0xab
 4113 03b7 0F       		.byte	0xf
 4114 03b8 FE000000 		.long	0xfe
 4115 03bc 00       		.byte	0
 4116 03bd 06       		.uleb128 0x6
 4117 03be F9010000 		.long	.LASF53
 4118 03c2 0F       		.byte	0xf
 4119 03c3 AC       		.byte	0xac
 4120 03c4 0A       		.byte	0xa
 4121 03c5 E6030000 		.long	0x3e6
 4122 03c9 04       		.byte	0x4
 4123 03ca 06       		.uleb128 0x6
 4124 03cb 7A020000 		.long	.LASF54
 4125 03cf 0F       		.byte	0xf
 4126 03d0 AD       		.byte	0xad
 4127 03d1 0A       		.byte	0xa
 4128 03d2 E6030000 		.long	0x3e6
 4129 03d6 08       		.byte	0x8
 4130 03d7 06       		.uleb128 0x6
 4131 03d8 A6000000 		.long	.LASF55
 4132 03dc 0F       		.byte	0xf
 4133 03dd AE       		.byte	0xae
 4134 03de 0A       		.byte	0xa
 4135 03df E6030000 		.long	0x3e6
 4136 03e3 0C       		.byte	0xc
 4137 03e4 00       		.byte	0
 4138 03e5 2F       		.uleb128 0x2f
GAS LISTING /tmp/ccttH9cH.s 			page 80


 4139 03e6 0A       		.uleb128 0xa
 4140 03e7 E5030000 		.long	0x3e5
 4141 03eb 09       		.uleb128 0x9
 4142 03ec 4A010000 		.long	.LASF56
 4143 03f0 0F       		.byte	0xf
 4144 03f1 AF       		.byte	0xaf
 4145 03f2 03       		.byte	0x3
 4146 03f3 A8030000 		.long	0x3a8
 4147 03f7 0C       		.uleb128 0xc
 4148 03f8 EB030000 		.long	0x3eb
 4149 03fc 14       		.uleb128 0x14
 4150 03fd 08       		.byte	0x8
 4151 03fe 0F       		.byte	0xf
 4152 03ff B4       		.byte	0xb4
 4153 0400 1F040000 		.long	0x41f
 4154 0404 06       		.uleb128 0x6
 4155 0405 89020000 		.long	.LASF52
 4156 0409 0F       		.byte	0xf
 4157 040a B5       		.byte	0xb5
 4158 040b 16       		.byte	0x16
 4159 040c FE000000 		.long	0xfe
 4160 0410 00       		.byte	0
 4161 0411 06       		.uleb128 0x6
 4162 0412 0C000000 		.long	.LASF57
 4163 0416 0F       		.byte	0xf
 4164 0417 B6       		.byte	0xb6
 4165 0418 1E       		.byte	0x1e
 4166 0419 1F040000 		.long	0x41f
 4167 041d 04       		.byte	0x4
 4168 041e 00       		.byte	0
 4169 041f 0A       		.uleb128 0xa
 4170 0420 29040000 		.long	0x429
 4171 0424 0A       		.uleb128 0xa
 4172 0425 F7030000 		.long	0x3f7
 4173 0429 0C       		.uleb128 0xc
 4174 042a 24040000 		.long	0x424
 4175 042e 09       		.uleb128 0x9
 4176 042f 3B010000 		.long	.LASF58
 4177 0433 0F       		.byte	0xf
 4178 0434 B7       		.byte	0xb7
 4179 0435 03       		.byte	0x3
 4180 0436 FC030000 		.long	0x3fc
 4181 043a 0C       		.uleb128 0xc
 4182 043b 2E040000 		.long	0x42e
 4183 043f 24       		.uleb128 0x24
 4184 0440 1A010000 		.long	.LASF60
 4185 0444 0F       		.byte	0xf
 4186 0445 2901     		.value	0x129
 4187 0447 1A       		.byte	0x1a
 4188 0448 9C030000 		.long	0x39c
 4189 044c 30       		.uleb128 0x30
 4190 044d BA030000 		.long	.LASF61
 4191 0451 10       		.byte	0x10
 4192 0452 19       		.byte	0x19
 4193 0453 1D       		.byte	0x1d
 4194 0454 3A040000 		.long	0x43a
 4195 0458 17       		.uleb128 0x17
GAS LISTING /tmp/ccttH9cH.s 			page 81


 4196 0459 F2000000 		.long	0xf2
 4197 045d 68040000 		.long	0x468
 4198 0461 18       		.uleb128 0x18
 4199 0462 39000000 		.long	0x39
 4200 0466 03       		.byte	0x3
 4201 0467 00       		.byte	0
 4202 0468 25       		.uleb128 0x25
 4203 0469 31010000 		.long	.LASF62
 4204 046d 35       		.byte	0x35
 4205 046e 0E       		.byte	0xe
 4206 046f 58040000 		.long	0x458
 4207 0473 05       		.uleb128 0x5
 4208 0474 03       		.byte	0x3
 4209 0475 00000000 		.long	mb_buffer
 4210 0479 31       		.uleb128 0x31
 4211 047a 6D623100 		.string	"mb1"
 4212 047e 01       		.byte	0x1
 4213 047f 36       		.byte	0x36
 4214 0480 08       		.byte	0x8
 4215 0481 FC010000 		.long	0x1fc
 4216 0485 05       		.uleb128 0x5
 4217 0486 03       		.byte	0x3
 4218 0487 00000000 		.long	mb1
 4219 048b 25       		.uleb128 0x25
 4220 048c 5D050000 		.long	.LASF63
 4221 0490 BE       		.byte	0xbe
 4222 0491 19       		.byte	0x19
 4223 0492 F7030000 		.long	0x3f7
 4224 0496 05       		.uleb128 0x5
 4225 0497 03       		.byte	0x3
 4226 0498 00000000 		.long	oslib_test_002_001
 4227 049c 20       		.uleb128 0x20
 4228 049d 70050000 		.long	.LASF64
 4229 04a1 4001     		.value	0x140
 4230 04a3 19       		.byte	0x19
 4231 04a4 F7030000 		.long	0x3f7
 4232 04a8 05       		.uleb128 0x5
 4233 04a9 03       		.byte	0x3
 4234 04aa 00000000 		.long	oslib_test_002_002
 4235 04ae 20       		.uleb128 0x20
 4236 04af 83050000 		.long	.LASF65
 4237 04b3 9601     		.value	0x196
 4238 04b5 19       		.byte	0x19
 4239 04b6 F7030000 		.long	0x3f7
 4240 04ba 05       		.uleb128 0x5
 4241 04bb 03       		.byte	0x3
 4242 04bc 00000000 		.long	oslib_test_002_003
 4243 04c0 17       		.uleb128 0x17
 4244 04c1 29040000 		.long	0x429
 4245 04c5 D0040000 		.long	0x4d0
 4246 04c9 18       		.uleb128 0x18
 4247 04ca 39000000 		.long	0x39
 4248 04ce 03       		.byte	0x3
 4249 04cf 00       		.byte	0
 4250 04d0 0C       		.uleb128 0xc
 4251 04d1 C0040000 		.long	0x4c0
 4252 04d5 32       		.uleb128 0x32
GAS LISTING /tmp/ccttH9cH.s 			page 82


 4253 04d6 88010000 		.long	.LASF66
 4254 04da 01       		.byte	0x1
 4255 04db A401     		.value	0x1a4
 4256 04dd 1A       		.byte	0x1a
 4257 04de D0040000 		.long	0x4d0
 4258 04e2 05       		.uleb128 0x5
 4259 04e3 03       		.byte	0x3
 4260 04e4 00000000 		.long	oslib_test_sequence_002_array
 4261 04e8 33       		.uleb128 0x33
 4262 04e9 4C040000 		.long	0x44c
 4263 04ed 01       		.byte	0x1
 4264 04ee AE01     		.value	0x1ae
 4265 04f0 16       		.byte	0x16
 4266 04f1 05       		.uleb128 0x5
 4267 04f2 03       		.byte	0x3
 4268 04f3 00000000 		.long	oslib_test_sequence_002
 4269 04f7 26       		.uleb128 0x26
 4270 04f8 6E030000 		.long	.LASF70
 4271 04fc 3101     		.value	0x131
 4272 04fe 4D010000 		.long	0x14d
 4273 0502 11050000 		.long	0x511
 4274 0506 02       		.uleb128 0x2
 4275 0507 AC000000 		.long	0xac
 4276 050b 02       		.uleb128 0x2
 4277 050c FE000000 		.long	0xfe
 4278 0510 00       		.byte	0
 4279 0511 34       		.uleb128 0x34
 4280 0512 9C050000 		.long	.LASF67
 4281 0516 0F       		.byte	0xf
 4282 0517 3A01     		.value	0x13a
 4283 0519 08       		.byte	0x8
 4284 051a 24050000 		.long	0x524
 4285 051e 02       		.uleb128 0x2
 4286 051f B1000000 		.long	0xb1
 4287 0523 00       		.byte	0
 4288 0524 21       		.uleb128 0x21
 4289 0525 64010000 		.long	.LASF68
 4290 0529 6F       		.byte	0x6f
 4291 052a 34050000 		.long	0x534
 4292 052e 02       		.uleb128 0x2
 4293 052f 34050000 		.long	0x534
 4294 0533 00       		.byte	0
 4295 0534 0A       		.uleb128 0xa
 4296 0535 FC010000 		.long	0x1fc
 4297 0539 21       		.uleb128 0x21
 4298 053a 20020000 		.long	.LASF69
 4299 053e 6C       		.byte	0x6c
 4300 053f 53050000 		.long	0x553
 4301 0543 02       		.uleb128 0x2
 4302 0544 34050000 		.long	0x534
 4303 0548 02       		.uleb128 0x2
 4304 0549 F7010000 		.long	0x1f7
 4305 054d 02       		.uleb128 0x2
 4306 054e 2D000000 		.long	0x2d
 4307 0552 00       		.byte	0
 4308 0553 11       		.uleb128 0x11
 4309 0554 63030000 		.long	.LASF71
GAS LISTING /tmp/ccttH9cH.s 			page 83


 4310 0558 78       		.byte	0x78
 4311 0559 F2000000 		.long	0xf2
 4312 055d 6C050000 		.long	0x56c
 4313 0561 02       		.uleb128 0x2
 4314 0562 34050000 		.long	0x534
 4315 0566 02       		.uleb128 0x2
 4316 0567 F7010000 		.long	0x1f7
 4317 056b 00       		.byte	0
 4318 056c 11       		.uleb128 0x11
 4319 056d 7C000000 		.long	.LASF72
 4320 0571 76       		.byte	0x76
 4321 0572 F2000000 		.long	0xf2
 4322 0576 8A050000 		.long	0x58a
 4323 057a 02       		.uleb128 0x2
 4324 057b 34050000 		.long	0x534
 4325 057f 02       		.uleb128 0x2
 4326 0580 F7010000 		.long	0x1f7
 4327 0584 02       		.uleb128 0x2
 4328 0585 03010000 		.long	0x103
 4329 0589 00       		.byte	0
 4330 058a 21       		.uleb128 0x21
 4331 058b 3F040000 		.long	.LASF73
 4332 058f 6E       		.byte	0x6e
 4333 0590 9A050000 		.long	0x59a
 4334 0594 02       		.uleb128 0x2
 4335 0595 34050000 		.long	0x534
 4336 0599 00       		.byte	0
 4337 059a 11       		.uleb128 0x11
 4338 059b 55010000 		.long	.LASF74
 4339 059f 75       		.byte	0x75
 4340 05a0 F2000000 		.long	0xf2
 4341 05a4 B3050000 		.long	0x5b3
 4342 05a8 02       		.uleb128 0x2
 4343 05a9 34050000 		.long	0x534
 4344 05ad 02       		.uleb128 0x2
 4345 05ae F2000000 		.long	0xf2
 4346 05b2 00       		.byte	0
 4347 05b3 11       		.uleb128 0x11
 4348 05b4 70040000 		.long	.LASF75
 4349 05b8 73       		.byte	0x73
 4350 05b9 F2000000 		.long	0xf2
 4351 05bd D1050000 		.long	0x5d1
 4352 05c1 02       		.uleb128 0x2
 4353 05c2 34050000 		.long	0x534
 4354 05c6 02       		.uleb128 0x2
 4355 05c7 F2000000 		.long	0xf2
 4356 05cb 02       		.uleb128 0x2
 4357 05cc 03010000 		.long	0x103
 4358 05d0 00       		.byte	0
 4359 05d1 11       		.uleb128 0x11
 4360 05d2 EE020000 		.long	.LASF76
 4361 05d6 72       		.byte	0x72
 4362 05d7 F2000000 		.long	0xf2
 4363 05db EA050000 		.long	0x5ea
 4364 05df 02       		.uleb128 0x2
 4365 05e0 34050000 		.long	0x534
 4366 05e4 02       		.uleb128 0x2
GAS LISTING /tmp/ccttH9cH.s 			page 84


 4367 05e5 F2000000 		.long	0xf2
 4368 05e9 00       		.byte	0
 4369 05ea 26       		.uleb128 0x26
 4370 05eb FF010000 		.long	.LASF77
 4371 05ef 3001     		.value	0x130
 4372 05f1 4D010000 		.long	0x14d
 4373 05f5 04060000 		.long	0x604
 4374 05f9 02       		.uleb128 0x2
 4375 05fa 4D010000 		.long	0x14d
 4376 05fe 02       		.uleb128 0x2
 4377 05ff FE000000 		.long	0xfe
 4378 0603 00       		.byte	0
 4379 0604 11       		.uleb128 0x11
 4380 0605 21010000 		.long	.LASF78
 4381 0609 70       		.byte	0x70
 4382 060a F2000000 		.long	0xf2
 4383 060e 22060000 		.long	0x622
 4384 0612 02       		.uleb128 0x2
 4385 0613 34050000 		.long	0x534
 4386 0617 02       		.uleb128 0x2
 4387 0618 F2000000 		.long	0xf2
 4388 061c 02       		.uleb128 0x2
 4389 061d 03010000 		.long	0x103
 4390 0621 00       		.byte	0
 4391 0622 35       		.uleb128 0x35
 4392 0623 48030000 		.long	.LASF100
 4393 0627 01       		.byte	0x1
 4394 0628 5F01     		.value	0x15f
 4395 062a 0D       		.byte	0xd
 4396 062b 00000000 		.long	.LFB311
 4397 062f E0010000 		.long	.LFE311-.LFB311
 4398 0633 01       		.uleb128 0x1
 4399 0634 9C       		.byte	0x9c
 4400 0635 25080000 		.long	0x825
 4401 0639 36       		.uleb128 0x36
 4402 063a F8020000 		.long	.LASF79
 4403 063e 01       		.byte	0x1
 4404 063f 6001     		.value	0x160
 4405 0641 09       		.byte	0x9
 4406 0642 F2000000 		.long	0xf2
 4407 0646 1A000000 		.long	.LLST0
 4408 064a 0C000000 		.long	.LVUS0
 4409 064e 20       		.uleb128 0x20
 4410 064f F4010000 		.long	.LASF80
 4411 0653 6001     		.value	0x160
 4412 0655 0F       		.byte	0xf
 4413 0656 F2000000 		.long	0xf2
 4414 065a 02       		.uleb128 0x2
 4415 065b 91       		.byte	0x91
 4416 065c 58       		.sleb128 -40
 4417 065d 37       		.uleb128 0x37
 4418 065e 6900     		.string	"i"
 4419 0660 01       		.byte	0x1
 4420 0661 6101     		.value	0x161
 4421 0663 0C       		.byte	0xc
 4422 0664 39000000 		.long	0x39
 4423 0668 55000000 		.long	.LLST1
GAS LISTING /tmp/ccttH9cH.s 			page 85


 4424 066c 4D000000 		.long	.LVUS1
 4425 0670 08       		.uleb128 0x8
 4426 0671 4C090000 		.long	0x94c
 4427 0675 B8000000 		.long	.LBI852
 4428 0679 0200     		.value	.LVU32
 4429 067b 0C000000 		.long	.LLRL2
 4430 067f 7301     		.value	0x173
 4431 0681 05       		.byte	0x5
 4432 0682 98060000 		.long	0x698
 4433 0686 04       		.uleb128 0x4
 4434 0687 5C090000 		.long	0x95c
 4435 068b B8000000 		.long	.LBI853
 4436 068f 0400     		.value	.LVU34
 4437 0691 0C000000 		.long	.LLRL2
 4438 0695 9901     		.value	0x199
 4439 0697 00       		.byte	0
 4440 0698 19       		.uleb128 0x19
 4441 0699 1F090000 		.long	0x91f
 4442 069d D4000000 		.long	.LBI858
 4443 06a1 0100     		.value	.LVU44
 4444 06a3 D4000000 		.long	.LBB858
 4445 06a7 07000000 		.long	.LBE858-.LBB858
 4446 06ab 7501     		.value	0x175
 4447 06ad C5060000 		.long	0x6c5
 4448 06b1 12       		.uleb128 0x12
 4449 06b2 54090000 		.long	0x954
 4450 06b6 D4000000 		.long	.LBI860
 4451 06ba 0800     		.value	.LVU51
 4452 06bc D4000000 		.long	.LBB860
 4453 06c0 07000000 		.long	.LBE860-.LBB860
 4454 06c4 00       		.byte	0
 4455 06c5 08       		.uleb128 0x8
 4456 06c6 4C090000 		.long	0x94c
 4457 06ca 1E010000 		.long	.LBI862
 4458 06ce 0200     		.value	.LVU63
 4459 06d0 18000000 		.long	.LLRL3
 4460 06d4 7901     		.value	0x179
 4461 06d6 05       		.byte	0x5
 4462 06d7 ED060000 		.long	0x6ed
 4463 06db 04       		.uleb128 0x4
 4464 06dc 5C090000 		.long	0x95c
 4465 06e0 1E010000 		.long	.LBI863
 4466 06e4 0400     		.value	.LVU65
 4467 06e6 18000000 		.long	.LLRL3
 4468 06ea 9901     		.value	0x199
 4469 06ec 00       		.byte	0
 4470 06ed 19       		.uleb128 0x19
 4471 06ee 1F090000 		.long	0x91f
 4472 06f2 30010000 		.long	.LBI868
 4473 06f6 0100     		.value	.LVU74
 4474 06f8 30010000 		.long	.LBB868
 4475 06fc 07000000 		.long	.LBE868-.LBB868
 4476 0700 7B01     		.value	0x17b
 4477 0702 1A070000 		.long	0x71a
 4478 0706 12       		.uleb128 0x12
 4479 0707 54090000 		.long	0x954
 4480 070b 30010000 		.long	.LBI870
GAS LISTING /tmp/ccttH9cH.s 			page 86


 4481 070f 0800     		.value	.LVU81
 4482 0711 30010000 		.long	.LBB870
 4483 0715 07000000 		.long	.LBE870-.LBB870
 4484 0719 00       		.byte	0
 4485 071a 08       		.uleb128 0x8
 4486 071b B3080000 		.long	0x8b3
 4487 071f 68010000 		.long	.LBI872
 4488 0723 0100     		.value	.LVU94
 4489 0725 24000000 		.long	.LLRL4
 4490 0729 8501     		.value	0x185
 4491 072b 05       		.byte	0x5
 4492 072c 3E070000 		.long	0x73e
 4493 0730 05       		.uleb128 0x5
 4494 0731 C0080000 		.long	0x8c0
 4495 0735 7B000000 		.long	.LLST5
 4496 0739 79000000 		.long	.LVUS5
 4497 073d 00       		.byte	0
 4498 073e 08       		.uleb128 0x8
 4499 073f 4C090000 		.long	0x94c
 4500 0743 A3010000 		.long	.LBI876
 4501 0747 0200     		.value	.LVU110
 4502 0749 30000000 		.long	.LLRL6
 4503 074d 8E01     		.value	0x18e
 4504 074f 05       		.byte	0x5
 4505 0750 66070000 		.long	0x766
 4506 0754 04       		.uleb128 0x4
 4507 0755 5C090000 		.long	0x95c
 4508 0759 A3010000 		.long	.LBI877
 4509 075d 0400     		.value	.LVU112
 4510 075f 30000000 		.long	.LLRL6
 4511 0763 9901     		.value	0x199
 4512 0765 00       		.byte	0
 4513 0766 08       		.uleb128 0x8
 4514 0767 1F090000 		.long	0x91f
 4515 076b B7010000 		.long	.LBI882
 4516 076f 0100     		.value	.LVU122
 4517 0771 3C000000 		.long	.LLRL7
 4518 0775 9001     		.value	0x190
 4519 0777 05       		.byte	0x5
 4520 0778 94070000 		.long	0x794
 4521 077c 0E       		.uleb128 0xe
 4522 077d 3C000000 		.long	.LLRL7
 4523 0781 04       		.uleb128 0x4
 4524 0782 54090000 		.long	0x954
 4525 0786 B7010000 		.long	.LBI884
 4526 078a 0800     		.value	.LVU129
 4527 078c 3C000000 		.long	.LLRL7
 4528 0790 B201     		.value	0x1b2
 4529 0792 00       		.byte	0
 4530 0793 00       		.byte	0
 4531 0794 01       		.uleb128 0x1
 4532 0795 49000000 		.long	.LVL2
 4533 0799 04060000 		.long	0x604
 4534 079d 01       		.uleb128 0x1
 4535 079e 5A000000 		.long	.LVL4
 4536 07a2 EA050000 		.long	0x5ea
 4537 07a6 01       		.uleb128 0x1
GAS LISTING /tmp/ccttH9cH.s 			page 87


 4538 07a7 80000000 		.long	.LVL7
 4539 07ab 04060000 		.long	0x604
 4540 07af 01       		.uleb128 0x1
 4541 07b0 92000000 		.long	.LVL10
 4542 07b4 EA050000 		.long	0x5ea
 4543 07b8 01       		.uleb128 0x1
 4544 07b9 D4000000 		.long	.LVL11
 4545 07bd D1050000 		.long	0x5d1
 4546 07c1 01       		.uleb128 0x1
 4547 07c2 ED000000 		.long	.LVL13
 4548 07c6 EA050000 		.long	0x5ea
 4549 07ca 01       		.uleb128 0x1
 4550 07cb 01010000 		.long	.LVL14
 4551 07cf B3050000 		.long	0x5b3
 4552 07d3 01       		.uleb128 0x1
 4553 07d4 13010000 		.long	.LVL16
 4554 07d8 EA050000 		.long	0x5ea
 4555 07dc 01       		.uleb128 0x1
 4556 07dd 30010000 		.long	.LVL17
 4557 07e1 9A050000 		.long	0x59a
 4558 07e5 01       		.uleb128 0x1
 4559 07e6 49010000 		.long	.LVL19
 4560 07ea EA050000 		.long	0x5ea
 4561 07ee 01       		.uleb128 0x1
 4562 07ef 68010000 		.long	.LVL20
 4563 07f3 8A050000 		.long	0x58a
 4564 07f7 01       		.uleb128 0x1
 4565 07f8 86010000 		.long	.LVL22
 4566 07fc 6C050000 		.long	0x56c
 4567 0800 01       		.uleb128 0x1
 4568 0801 98010000 		.long	.LVL24
 4569 0805 EA050000 		.long	0x5ea
 4570 0809 01       		.uleb128 0x1
 4571 080a B7010000 		.long	.LVL25
 4572 080e 53050000 		.long	0x553
 4573 0812 01       		.uleb128 0x1
 4574 0813 D3010000 		.long	.LVL27
 4575 0817 EA050000 		.long	0x5ea
 4576 081b 01       		.uleb128 0x1
 4577 081c E0010000 		.long	.LVL28
 4578 0820 91180000 		.long	0x1891
 4579 0824 00       		.byte	0
 4580 0825 27       		.uleb128 0x27
 4581 0826 5E020000 		.long	.LASF81
 4582 082a 5B01     		.value	0x15b
 4583 082c 27       		.uleb128 0x27
 4584 082d A1030000 		.long	.LASF82
 4585 0831 5701     		.value	0x157
 4586 0833 22       		.uleb128 0x22
 4587 0834 20030000 		.long	.LASF85
 4588 0838 01       		.byte	0x1
 4589 0839 E5       		.byte	0xe5
 4590 083a 0D       		.byte	0xd
 4591 083b 01       		.byte	0x1
 4592 083c 5F080000 		.long	0x85f
 4593 0840 1A       		.uleb128 0x1a
 4594 0841 F8020000 		.long	.LASF79
GAS LISTING /tmp/ccttH9cH.s 			page 88


 4595 0845 E6       		.byte	0xe6
 4596 0846 09       		.byte	0x9
 4597 0847 F2000000 		.long	0xf2
 4598 084b 1A       		.uleb128 0x1a
 4599 084c F4010000 		.long	.LASF80
 4600 0850 E6       		.byte	0xe6
 4601 0851 0F       		.byte	0xf
 4602 0852 F2000000 		.long	0xf2
 4603 0856 28       		.uleb128 0x28
 4604 0857 6900     		.string	"i"
 4605 0859 E7       		.byte	0xe7
 4606 085a 39000000 		.long	0x39
 4607 085e 00       		.byte	0
 4608 085f 29       		.uleb128 0x29
 4609 0860 12000000 		.long	.LASF83
 4610 0864 E1       		.byte	0xe1
 4611 0865 29       		.uleb128 0x29
 4612 0866 8D000000 		.long	.LASF84
 4613 086a DD       		.byte	0xdd
 4614 086b 22       		.uleb128 0x22
 4615 086c BC020000 		.long	.LASF86
 4616 0870 01       		.byte	0x1
 4617 0871 5E       		.byte	0x5e
 4618 0872 0D       		.byte	0xd
 4619 0873 01       		.byte	0x1
 4620 0874 97080000 		.long	0x897
 4621 0878 1A       		.uleb128 0x1a
 4622 0879 F8020000 		.long	.LASF79
 4623 087d 5F       		.byte	0x5f
 4624 087e 09       		.byte	0x9
 4625 087f F2000000 		.long	0xf2
 4626 0883 1A       		.uleb128 0x1a
 4627 0884 F4010000 		.long	.LASF80
 4628 0888 5F       		.byte	0x5f
 4629 0889 0F       		.byte	0xf
 4630 088a F2000000 		.long	0xf2
 4631 088e 28       		.uleb128 0x28
 4632 088f 6900     		.string	"i"
 4633 0891 60       		.byte	0x60
 4634 0892 39000000 		.long	0x39
 4635 0896 00       		.byte	0
 4636 0897 2A       		.uleb128 0x2a
 4637 0898 85030000 		.long	.LASF87
 4638 089c 5A       		.byte	0x5a
 4639 089d 2A       		.uleb128 0x2a
 4640 089e 40000000 		.long	.LASF88
 4641 08a2 56       		.byte	0x56
 4642 08a3 16       		.uleb128 0x16
 4643 08a4 0C010000 		.long	.LASF89
 4644 08a8 05       		.byte	0x5
 4645 08a9 4802     		.value	0x248
 4646 08ab 16       		.uleb128 0x16
 4647 08ac 8E020000 		.long	.LASF90
 4648 08b0 05       		.byte	0x5
 4649 08b1 3D02     		.value	0x23d
 4650 08b3 22       		.uleb128 0x22
 4651 08b4 C1050000 		.long	.LASF91
GAS LISTING /tmp/ccttH9cH.s 			page 89


 4652 08b8 04       		.byte	0x4
 4653 08b9 C9       		.byte	0xc9
 4654 08ba 14       		.byte	0x14
 4655 08bb 03       		.byte	0x3
 4656 08bc CC080000 		.long	0x8cc
 4657 08c0 1B       		.uleb128 0x1b
 4658 08c1 6D627000 		.string	"mbp"
 4659 08c5 C9       		.byte	0xc9
 4660 08c6 2B       		.byte	0x2b
 4661 08c7 34050000 		.long	0x534
 4662 08cb 00       		.byte	0
 4663 08cc 23       		.uleb128 0x23
 4664 08cd BF000000 		.long	.LASF92
 4665 08d1 A8       		.byte	0xa8
 4666 08d2 2D000000 		.long	0x2d
 4667 08d6 E6080000 		.long	0x8e6
 4668 08da 1B       		.uleb128 0x1b
 4669 08db 6D627000 		.string	"mbp"
 4670 08df A8       		.byte	0xa8
 4671 08e0 39       		.byte	0x39
 4672 08e1 E6080000 		.long	0x8e6
 4673 08e5 00       		.byte	0
 4674 08e6 0A       		.uleb128 0xa
 4675 08e7 08020000 		.long	0x208
 4676 08eb 23       		.uleb128 0x23
 4677 08ec DD000000 		.long	.LASF93
 4678 08f0 99       		.byte	0x99
 4679 08f1 2D000000 		.long	0x2d
 4680 08f5 05090000 		.long	0x905
 4681 08f9 1B       		.uleb128 0x1b
 4682 08fa 6D627000 		.string	"mbp"
 4683 08fe 99       		.byte	0x99
 4684 08ff 39       		.byte	0x39
 4685 0900 E6080000 		.long	0x8e6
 4686 0904 00       		.byte	0
 4687 0905 23       		.uleb128 0x23
 4688 0906 3D050000 		.long	.LASF94
 4689 090a 89       		.byte	0x89
 4690 090b 2D000000 		.long	0x2d
 4691 090f 1F090000 		.long	0x91f
 4692 0913 1B       		.uleb128 0x1b
 4693 0914 6D627000 		.string	"mbp"
 4694 0918 89       		.byte	0x89
 4695 0919 34       		.byte	0x34
 4696 091a E6080000 		.long	0x8e6
 4697 091e 00       		.byte	0
 4698 091f 38       		.uleb128 0x38
 4699 0920 54040000 		.long	.LASF95
 4700 0924 02       		.byte	0x2
 4701 0925 A501     		.value	0x1a5
 4702 0927 14       		.byte	0x14
 4703 0928 03       		.byte	0x3
 4704 0929 37090000 		.long	0x937
 4705 092d 39       		.uleb128 0x39
 4706 092e A8020000 		.long	.LASF101
 4707 0932 47090000 		.long	0x947
 4708 0936 00       		.byte	0
GAS LISTING /tmp/ccttH9cH.s 			page 90


 4709 0937 17       		.uleb128 0x17
 4710 0938 B8000000 		.long	0xb8
 4711 093c 47090000 		.long	0x947
 4712 0940 18       		.uleb128 0x18
 4713 0941 39000000 		.long	0x39
 4714 0945 0B       		.byte	0xb
 4715 0946 00       		.byte	0
 4716 0947 0C       		.uleb128 0xc
 4717 0948 37090000 		.long	0x937
 4718 094c 16       		.uleb128 0x16
 4719 094d EA010000 		.long	.LASF96
 4720 0951 02       		.byte	0x2
 4721 0952 9701     		.value	0x197
 4722 0954 16       		.uleb128 0x16
 4723 0955 02040000 		.long	.LASF97
 4724 0959 03       		.byte	0x3
 4725 095a 7201     		.value	0x172
 4726 095c 16       		.uleb128 0x16
 4727 095d 35040000 		.long	.LASF98
 4728 0961 03       		.byte	0x3
 4729 0962 6901     		.value	0x169
 4730 0964 1C       		.uleb128 0x1c
 4731 0965 97080000 		.long	0x897
 4732 0969 00000000 		.long	.LFB304
 4733 096d 20000000 		.long	.LFE304-.LFB304
 4734 0971 01       		.uleb128 0x1
 4735 0972 9C       		.byte	0x9c
 4736 0973 81090000 		.long	0x981
 4737 0977 01       		.uleb128 0x1
 4738 0978 1B000000 		.long	.LVL0
 4739 097c 8A050000 		.long	0x58a
 4740 0980 00       		.byte	0
 4741 0981 1C       		.uleb128 0x1c
 4742 0982 9D080000 		.long	0x89d
 4743 0986 00000000 		.long	.LFB303
 4744 098a 29000000 		.long	.LFE303-.LFB303
 4745 098e 01       		.uleb128 0x1
 4746 098f 9C       		.byte	0x9c
 4747 0990 9E090000 		.long	0x99e
 4748 0994 01       		.uleb128 0x1
 4749 0995 24000000 		.long	.LVL29
 4750 0999 39050000 		.long	0x539
 4751 099d 00       		.byte	0
 4752 099e 1C       		.uleb128 0x1c
 4753 099f 33080000 		.long	0x833
 4754 09a3 00000000 		.long	.LFB308
 4755 09a7 72040000 		.long	.LFE308-.LFB308
 4756 09ab 01       		.uleb128 0x1
 4757 09ac 9C       		.byte	0x9c
 4758 09ad 16110000 		.long	0x1116
 4759 09b1 13       		.uleb128 0x13
 4760 09b2 40080000 		.long	0x840
 4761 09b6 13       		.uleb128 0x13
 4762 09b7 4B080000 		.long	0x84b
 4763 09bb 13       		.uleb128 0x13
 4764 09bc 56080000 		.long	0x856
 4765 09c0 03       		.uleb128 0x3
GAS LISTING /tmp/ccttH9cH.s 			page 91


 4766 09c1 AB080000 		.long	0x8ab
 4767 09c5 36000000 		.long	.LBI1107
 4768 09c9 0100     		.value	.LVU151
 4769 09cb 48000000 		.long	.LLRL8
 4770 09cf 01       		.byte	0x1
 4771 09d0 EC       		.byte	0xec
 4772 09d1 05       		.byte	0x5
 4773 09d2 FA090000 		.long	0x9fa
 4774 09d6 07       		.uleb128 0x7
 4775 09d7 4C090000 		.long	0x94c
 4776 09db 36000000 		.long	.LBI1108
 4777 09df 0300     		.value	.LVU153
 4778 09e1 48000000 		.long	.LLRL8
 4779 09e5 3F02     		.value	0x23f
 4780 09e7 04       		.uleb128 0x4
 4781 09e8 5C090000 		.long	0x95c
 4782 09ec 36000000 		.long	.LBI1109
 4783 09f0 0500     		.value	.LVU155
 4784 09f2 48000000 		.long	.LLRL8
 4785 09f6 9901     		.value	0x199
 4786 09f8 00       		.byte	0
 4787 09f9 00       		.byte	0
 4788 09fa 03       		.uleb128 0x3
 4789 09fb CC080000 		.long	0x8cc
 4790 09ff 49000000 		.long	.LBI1118
 4791 0a03 0300     		.value	.LVU163
 4792 0a05 57000000 		.long	.LLRL9
 4793 0a09 01       		.byte	0x1
 4794 0a0a EC       		.byte	0xec
 4795 0a0b 05       		.byte	0x5
 4796 0a0c 630A0000 		.long	0xa63
 4797 0a10 05       		.uleb128 0x5
 4798 0a11 DA080000 		.long	0x8da
 4799 0a15 8B000000 		.long	.LLST10
 4800 0a19 89000000 		.long	.LVUS10
 4801 0a1d 03       		.uleb128 0x3
 4802 0a1e 05090000 		.long	0x905
 4803 0a22 49000000 		.long	.LBI1120
 4804 0a26 0600     		.value	.LVU166
 4805 0a28 63000000 		.long	.LLRL11
 4806 0a2c 04       		.byte	0x4
 4807 0a2d AC       		.byte	0xac
 4808 0a2e 0A       		.byte	0xa
 4809 0a2f 410A0000 		.long	0xa41
 4810 0a33 05       		.uleb128 0x5
 4811 0a34 13090000 		.long	0x913
 4812 0a38 9B000000 		.long	.LLST12
 4813 0a3c 99000000 		.long	.LVUS12
 4814 0a40 00       		.byte	0
 4815 0a41 0F       		.uleb128 0xf
 4816 0a42 EB080000 		.long	0x8eb
 4817 0a46 49000000 		.long	.LBI1125
 4818 0a4a 0900     		.value	.LVU169
 4819 0a4c 49000000 		.long	.LBB1125
 4820 0a50 00000000 		.long	.LBE1125-.LBB1125
 4821 0a54 05       		.uleb128 0x5
 4822 0a55 F9080000 		.long	0x8f9
GAS LISTING /tmp/ccttH9cH.s 			page 92


 4823 0a59 AB000000 		.long	.LLST13
 4824 0a5d A9000000 		.long	.LVUS13
 4825 0a61 00       		.byte	0
 4826 0a62 00       		.byte	0
 4827 0a63 03       		.uleb128 0x3
 4828 0a64 33080000 		.long	0x833
 4829 0a68 90000000 		.long	.LBI1131
 4830 0a6c 0000     		.value	.LVU191
 4831 0a6e 72000000 		.long	.LLRL14
 4832 0a72 01       		.byte	0x1
 4833 0a73 E5       		.byte	0xe5
 4834 0a74 0D       		.byte	0xd
 4835 0a75 03110000 		.long	0x1103
 4836 0a79 0E       		.uleb128 0xe
 4837 0a7a 72000000 		.long	.LLRL14
 4838 0a7e 1D       		.uleb128 0x1d
 4839 0a7f 40080000 		.long	0x840
 4840 0a83 C3000000 		.long	.LLST15
 4841 0a87 B9000000 		.long	.LVUS15
 4842 0a8b 2B       		.uleb128 0x2b
 4843 0a8c 4B080000 		.long	0x84b
 4844 0a90 02       		.uleb128 0x2
 4845 0a91 91       		.byte	0x91
 4846 0a92 58       		.sleb128 -40
 4847 0a93 1D       		.uleb128 0x1d
 4848 0a94 56080000 		.long	0x856
 4849 0a98 F6000000 		.long	.LLST16
 4850 0a9c E8000000 		.long	.LVUS16
 4851 0aa0 0D       		.uleb128 0xd
 4852 0aa1 A3080000 		.long	0x8a3
 4853 0aa5 68000000 		.long	.LBI1133
 4854 0aa9 0100     		.value	.LVU177
 4855 0aab 68000000 		.long	.LBB1133
 4856 0aaf 06000000 		.long	.LBE1133-.LBB1133
 4857 0ab3 F7       		.byte	0xf7
 4858 0ab4 05       		.byte	0x5
 4859 0ab5 E10A0000 		.long	0xae1
 4860 0ab9 1E       		.uleb128 0x1e
 4861 0aba 1F090000 		.long	0x91f
 4862 0abe 68000000 		.long	.LBI1134
 4863 0ac2 0300     		.value	.LVU179
 4864 0ac4 68000000 		.long	.LBB1134
 4865 0ac8 06000000 		.long	.LBE1134-.LBB1134
 4866 0acc 12       		.uleb128 0x12
 4867 0acd 54090000 		.long	0x954
 4868 0ad1 68000000 		.long	.LBI1136
 4869 0ad5 0A00     		.value	.LVU186
 4870 0ad7 68000000 		.long	.LBB1136
 4871 0adb 06000000 		.long	.LBE1136-.LBB1136
 4872 0adf 00       		.byte	0
 4873 0ae0 00       		.byte	0
 4874 0ae1 03       		.uleb128 0x3
 4875 0ae2 4C090000 		.long	0x94c
 4876 0ae6 9F000000 		.long	.LBI1138
 4877 0aea 0100     		.value	.LVU200
 4878 0aec 7F000000 		.long	.LLRL17
 4879 0af0 01       		.byte	0x1
GAS LISTING /tmp/ccttH9cH.s 			page 93


 4880 0af1 F4       		.byte	0xf4
 4881 0af2 05       		.byte	0x5
 4882 0af3 090B0000 		.long	0xb09
 4883 0af7 04       		.uleb128 0x4
 4884 0af8 5C090000 		.long	0x95c
 4885 0afc 9F000000 		.long	.LBI1139
 4886 0b00 0300     		.value	.LVU202
 4887 0b02 7F000000 		.long	.LLRL17
 4888 0b06 9901     		.value	0x199
 4889 0b08 00       		.byte	0
 4890 0b09 03       		.uleb128 0x3
 4891 0b0a AB080000 		.long	0x8ab
 4892 0b0e AB000000 		.long	.LBI1144
 4893 0b12 0200     		.value	.LVU211
 4894 0b14 8B000000 		.long	.LLRL18
 4895 0b18 01       		.byte	0x1
 4896 0b19 F7       		.byte	0xf7
 4897 0b1a 05       		.byte	0x5
 4898 0b1b 430B0000 		.long	0xb43
 4899 0b1f 07       		.uleb128 0x7
 4900 0b20 4C090000 		.long	0x94c
 4901 0b24 AB000000 		.long	.LBI1145
 4902 0b28 0400     		.value	.LVU213
 4903 0b2a 8B000000 		.long	.LLRL18
 4904 0b2e 3F02     		.value	0x23f
 4905 0b30 04       		.uleb128 0x4
 4906 0b31 5C090000 		.long	0x95c
 4907 0b35 AB000000 		.long	.LBI1146
 4908 0b39 0600     		.value	.LVU215
 4909 0b3b 8B000000 		.long	.LLRL18
 4910 0b3f 9901     		.value	0x199
 4911 0b41 00       		.byte	0
 4912 0b42 00       		.byte	0
 4913 0b43 03       		.uleb128 0x3
 4914 0b44 CC080000 		.long	0x8cc
 4915 0b48 CA000000 		.long	.LBI1151
 4916 0b4c 0300     		.value	.LVU223
 4917 0b4e 97000000 		.long	.LLRL19
 4918 0b52 01       		.byte	0x1
 4919 0b53 F7       		.byte	0xf7
 4920 0b54 05       		.byte	0x5
 4921 0b55 AC0B0000 		.long	0xbac
 4922 0b59 05       		.uleb128 0x5
 4923 0b5a DA080000 		.long	0x8da
 4924 0b5e 3C010000 		.long	.LLST20
 4925 0b62 3A010000 		.long	.LVUS20
 4926 0b66 03       		.uleb128 0x3
 4927 0b67 05090000 		.long	0x905
 4928 0b6b CA000000 		.long	.LBI1153
 4929 0b6f 0600     		.value	.LVU226
 4930 0b71 A3000000 		.long	.LLRL21
 4931 0b75 04       		.byte	0x4
 4932 0b76 AC       		.byte	0xac
 4933 0b77 0A       		.byte	0xa
 4934 0b78 8A0B0000 		.long	0xb8a
 4935 0b7c 05       		.uleb128 0x5
 4936 0b7d 13090000 		.long	0x913
GAS LISTING /tmp/ccttH9cH.s 			page 94


 4937 0b81 4C010000 		.long	.LLST22
 4938 0b85 4A010000 		.long	.LVUS22
 4939 0b89 00       		.byte	0
 4940 0b8a 0F       		.uleb128 0xf
 4941 0b8b EB080000 		.long	0x8eb
 4942 0b8f CA000000 		.long	.LBI1158
 4943 0b93 0900     		.value	.LVU229
 4944 0b95 CA000000 		.long	.LBB1158
 4945 0b99 00000000 		.long	.LBE1158-.LBB1158
 4946 0b9d 05       		.uleb128 0x5
 4947 0b9e F9080000 		.long	0x8f9
 4948 0ba2 5C010000 		.long	.LLST23
 4949 0ba6 5A010000 		.long	.LVUS23
 4950 0baa 00       		.byte	0
 4951 0bab 00       		.byte	0
 4952 0bac 03       		.uleb128 0x3
 4953 0bad AB080000 		.long	0x8ab
 4954 0bb1 ED000000 		.long	.LBI1164
 4955 0bb5 0300     		.value	.LVU239
 4956 0bb7 B2000000 		.long	.LLRL24
 4957 0bbb 01       		.byte	0x1
 4958 0bbc F8       		.byte	0xf8
 4959 0bbd 05       		.byte	0x5
 4960 0bbe E60B0000 		.long	0xbe6
 4961 0bc2 07       		.uleb128 0x7
 4962 0bc3 4C090000 		.long	0x94c
 4963 0bc7 ED000000 		.long	.LBI1165
 4964 0bcb 0500     		.value	.LVU241
 4965 0bcd B2000000 		.long	.LLRL24
 4966 0bd1 3F02     		.value	0x23f
 4967 0bd3 04       		.uleb128 0x4
 4968 0bd4 5C090000 		.long	0x95c
 4969 0bd8 ED000000 		.long	.LBI1166
 4970 0bdc 0700     		.value	.LVU243
 4971 0bde B2000000 		.long	.LLRL24
 4972 0be2 9901     		.value	0x199
 4973 0be4 00       		.byte	0
 4974 0be5 00       		.byte	0
 4975 0be6 0D       		.uleb128 0xd
 4976 0be7 EB080000 		.long	0x8eb
 4977 0beb 02010000 		.long	.LBI1172
 4978 0bef 0300     		.value	.LVU250
 4979 0bf1 02010000 		.long	.LBB1172
 4980 0bf5 00000000 		.long	.LBE1172-.LBB1172
 4981 0bf9 F8       		.byte	0xf8
 4982 0bfa 05       		.byte	0x5
 4983 0bfb 0D0C0000 		.long	0xc0d
 4984 0bff 05       		.uleb128 0x5
 4985 0c00 F9080000 		.long	0x8f9
 4986 0c04 6C010000 		.long	.LLST25
 4987 0c08 6A010000 		.long	.LVUS25
 4988 0c0c 00       		.byte	0
 4989 0c0d 03       		.uleb128 0x3
 4990 0c0e AB080000 		.long	0x8ab
 4991 0c12 1F010000 		.long	.LBI1174
 4992 0c16 0300     		.value	.LVU258
 4993 0c18 BE000000 		.long	.LLRL26
GAS LISTING /tmp/ccttH9cH.s 			page 95


 4994 0c1c 01       		.byte	0x1
 4995 0c1d F9       		.byte	0xf9
 4996 0c1e 05       		.byte	0x5
 4997 0c1f 470C0000 		.long	0xc47
 4998 0c23 07       		.uleb128 0x7
 4999 0c24 4C090000 		.long	0x94c
 5000 0c28 1F010000 		.long	.LBI1175
 5001 0c2c 0500     		.value	.LVU260
 5002 0c2e BE000000 		.long	.LLRL26
 5003 0c32 3F02     		.value	0x23f
 5004 0c34 04       		.uleb128 0x4
 5005 0c35 5C090000 		.long	0x95c
 5006 0c39 1F010000 		.long	.LBI1176
 5007 0c3d 0700     		.value	.LVU262
 5008 0c3f BE000000 		.long	.LLRL26
 5009 0c43 9901     		.value	0x199
 5010 0c45 00       		.byte	0
 5011 0c46 00       		.byte	0
 5012 0c47 03       		.uleb128 0x3
 5013 0c48 AB080000 		.long	0x8ab
 5014 0c4c 56010000 		.long	.LBI1182
 5015 0c50 0300     		.value	.LVU272
 5016 0c52 CA000000 		.long	.LLRL27
 5017 0c56 01       		.byte	0x1
 5018 0c57 FA       		.byte	0xfa
 5019 0c58 05       		.byte	0x5
 5020 0c59 810C0000 		.long	0xc81
 5021 0c5d 07       		.uleb128 0x7
 5022 0c5e 4C090000 		.long	0x94c
 5023 0c62 56010000 		.long	.LBI1183
 5024 0c66 0500     		.value	.LVU274
 5025 0c68 CA000000 		.long	.LLRL27
 5026 0c6c 3F02     		.value	0x23f
 5027 0c6e 04       		.uleb128 0x4
 5028 0c6f 5C090000 		.long	0x95c
 5029 0c73 56010000 		.long	.LBI1184
 5030 0c77 0700     		.value	.LVU276
 5031 0c79 CA000000 		.long	.LLRL27
 5032 0c7d 9901     		.value	0x199
 5033 0c7f 00       		.byte	0
 5034 0c80 00       		.byte	0
 5035 0c81 03       		.uleb128 0x3
 5036 0c82 B3080000 		.long	0x8b3
 5037 0c86 8D010000 		.long	.LBI1190
 5038 0c8a 0300     		.value	.LVU286
 5039 0c8c D6000000 		.long	.LLRL28
 5040 0c90 01       		.byte	0x1
 5041 0c91 FB       		.byte	0xfb
 5042 0c92 05       		.byte	0x5
 5043 0c93 A50C0000 		.long	0xca5
 5044 0c97 05       		.uleb128 0x5
 5045 0c98 C0080000 		.long	0x8c0
 5046 0c9c 7C010000 		.long	.LLST29
 5047 0ca0 7A010000 		.long	.LVUS29
 5048 0ca4 00       		.byte	0
 5049 0ca5 08       		.uleb128 0x8
 5050 0ca6 4C090000 		.long	0x94c
GAS LISTING /tmp/ccttH9cH.s 			page 96


 5051 0caa AF010000 		.long	.LBI1194
 5052 0cae 0100     		.value	.LVU297
 5053 0cb0 E2000000 		.long	.LLRL30
 5054 0cb4 0401     		.value	0x104
 5055 0cb6 07       		.byte	0x7
 5056 0cb7 CD0C0000 		.long	0xccd
 5057 0cbb 04       		.uleb128 0x4
 5058 0cbc 5C090000 		.long	0x95c
 5059 0cc0 AF010000 		.long	.LBI1195
 5060 0cc4 0300     		.value	.LVU299
 5061 0cc6 E2000000 		.long	.LLRL30
 5062 0cca 9901     		.value	0x199
 5063 0ccc 00       		.byte	0
 5064 0ccd 08       		.uleb128 0x8
 5065 0cce 1F090000 		.long	0x91f
 5066 0cd2 C2010000 		.long	.LBI1200
 5067 0cd6 0100     		.value	.LVU308
 5068 0cd8 EE000000 		.long	.LLRL31
 5069 0cdc 0601     		.value	0x106
 5070 0cde 07       		.byte	0x7
 5071 0cdf FB0C0000 		.long	0xcfb
 5072 0ce3 0E       		.uleb128 0xe
 5073 0ce4 EE000000 		.long	.LLRL31
 5074 0ce8 04       		.uleb128 0x4
 5075 0ce9 54090000 		.long	0x954
 5076 0ced C2010000 		.long	.LBI1202
 5077 0cf1 0800     		.value	.LVU315
 5078 0cf3 EE000000 		.long	.LLRL31
 5079 0cf7 B201     		.value	0x1b2
 5080 0cf9 00       		.byte	0
 5081 0cfa 00       		.byte	0
 5082 0cfb 08       		.uleb128 0x8
 5083 0cfc 4C090000 		.long	0x94c
 5084 0d00 F3010000 		.long	.LBI1208
 5085 0d04 0200     		.value	.LVU328
 5086 0d06 FA000000 		.long	.LLRL32
 5087 0d0a 0901     		.value	0x109
 5088 0d0c 05       		.byte	0x5
 5089 0d0d 230D0000 		.long	0xd23
 5090 0d11 04       		.uleb128 0x4
 5091 0d12 5C090000 		.long	0x95c
 5092 0d16 F3010000 		.long	.LBI1209
 5093 0d1a 0400     		.value	.LVU330
 5094 0d1c FA000000 		.long	.LLRL32
 5095 0d20 9901     		.value	0x199
 5096 0d22 00       		.byte	0
 5097 0d23 08       		.uleb128 0x8
 5098 0d24 1F090000 		.long	0x91f
 5099 0d28 04020000 		.long	.LBI1217
 5100 0d2c 0100     		.value	.LVU339
 5101 0d2e 09010000 		.long	.LLRL33
 5102 0d32 0B01     		.value	0x10b
 5103 0d34 05       		.byte	0x5
 5104 0d35 510D0000 		.long	0xd51
 5105 0d39 0E       		.uleb128 0xe
 5106 0d3a 09010000 		.long	.LLRL33
 5107 0d3e 04       		.uleb128 0x4
GAS LISTING /tmp/ccttH9cH.s 			page 97


 5108 0d3f 54090000 		.long	0x954
 5109 0d43 04020000 		.long	.LBI1219
 5110 0d47 0800     		.value	.LVU346
 5111 0d49 09010000 		.long	.LLRL33
 5112 0d4d B201     		.value	0x1b2
 5113 0d4f 00       		.byte	0
 5114 0d50 00       		.byte	0
 5115 0d51 08       		.uleb128 0x8
 5116 0d52 AB080000 		.long	0x8ab
 5117 0d56 38020000 		.long	.LBI1225
 5118 0d5a 0100     		.value	.LVU359
 5119 0d5c 15010000 		.long	.LLRL34
 5120 0d60 1401     		.value	0x114
 5121 0d62 05       		.byte	0x5
 5122 0d63 8B0D0000 		.long	0xd8b
 5123 0d67 07       		.uleb128 0x7
 5124 0d68 4C090000 		.long	0x94c
 5125 0d6c 38020000 		.long	.LBI1226
 5126 0d70 0300     		.value	.LVU361
 5127 0d72 15010000 		.long	.LLRL34
 5128 0d76 3F02     		.value	0x23f
 5129 0d78 04       		.uleb128 0x4
 5130 0d79 5C090000 		.long	0x95c
 5131 0d7d 38020000 		.long	.LBI1227
 5132 0d81 0500     		.value	.LVU363
 5133 0d83 15010000 		.long	.LLRL34
 5134 0d87 9901     		.value	0x199
 5135 0d89 00       		.byte	0
 5136 0d8a 00       		.byte	0
 5137 0d8b 08       		.uleb128 0x8
 5138 0d8c CC080000 		.long	0x8cc
 5139 0d90 4B020000 		.long	.LBI1232
 5140 0d94 0300     		.value	.LVU371
 5141 0d96 21010000 		.long	.LLRL35
 5142 0d9a 1401     		.value	0x114
 5143 0d9c 05       		.byte	0x5
 5144 0d9d F40D0000 		.long	0xdf4
 5145 0da1 05       		.uleb128 0x5
 5146 0da2 DA080000 		.long	0x8da
 5147 0da6 8C010000 		.long	.LLST36
 5148 0daa 8A010000 		.long	.LVUS36
 5149 0dae 03       		.uleb128 0x3
 5150 0daf 05090000 		.long	0x905
 5151 0db3 4B020000 		.long	.LBI1233
 5152 0db7 0600     		.value	.LVU374
 5153 0db9 2D010000 		.long	.LLRL37
 5154 0dbd 04       		.byte	0x4
 5155 0dbe AC       		.byte	0xac
 5156 0dbf 0A       		.byte	0xa
 5157 0dc0 D20D0000 		.long	0xdd2
 5158 0dc4 05       		.uleb128 0x5
 5159 0dc5 13090000 		.long	0x913
 5160 0dc9 9C010000 		.long	.LLST38
 5161 0dcd 9A010000 		.long	.LVUS38
 5162 0dd1 00       		.byte	0
 5163 0dd2 0F       		.uleb128 0xf
 5164 0dd3 EB080000 		.long	0x8eb
GAS LISTING /tmp/ccttH9cH.s 			page 98


 5165 0dd7 4B020000 		.long	.LBI1238
 5166 0ddb 0900     		.value	.LVU377
 5167 0ddd 4B020000 		.long	.LBB1238
 5168 0de1 00000000 		.long	.LBE1238-.LBB1238
 5169 0de5 05       		.uleb128 0x5
 5170 0de6 F9080000 		.long	0x8f9
 5171 0dea AC010000 		.long	.LLST39
 5172 0dee AA010000 		.long	.LVUS39
 5173 0df2 00       		.byte	0
 5174 0df3 00       		.byte	0
 5175 0df4 08       		.uleb128 0x8
 5176 0df5 AB080000 		.long	0x8ab
 5177 0df9 6B020000 		.long	.LBI1243
 5178 0dfd 0300     		.value	.LVU386
 5179 0dff 3C010000 		.long	.LLRL40
 5180 0e03 1501     		.value	0x115
 5181 0e05 05       		.byte	0x5
 5182 0e06 2E0E0000 		.long	0xe2e
 5183 0e0a 07       		.uleb128 0x7
 5184 0e0b 4C090000 		.long	0x94c
 5185 0e0f 6B020000 		.long	.LBI1244
 5186 0e13 0500     		.value	.LVU388
 5187 0e15 3C010000 		.long	.LLRL40
 5188 0e19 3F02     		.value	0x23f
 5189 0e1b 04       		.uleb128 0x4
 5190 0e1c 5C090000 		.long	0x95c
 5191 0e20 6B020000 		.long	.LBI1245
 5192 0e24 0700     		.value	.LVU390
 5193 0e26 3C010000 		.long	.LLRL40
 5194 0e2a 9901     		.value	0x199
 5195 0e2c 00       		.byte	0
 5196 0e2d 00       		.byte	0
 5197 0e2e 19       		.uleb128 0x19
 5198 0e2f EB080000 		.long	0x8eb
 5199 0e33 7A020000 		.long	.LBI1251
 5200 0e37 0300     		.value	.LVU397
 5201 0e39 7A020000 		.long	.LBB1251
 5202 0e3d 00000000 		.long	.LBE1251-.LBB1251
 5203 0e41 1501     		.value	0x115
 5204 0e43 550E0000 		.long	0xe55
 5205 0e47 05       		.uleb128 0x5
 5206 0e48 F9080000 		.long	0x8f9
 5207 0e4c BC010000 		.long	.LLST41
 5208 0e50 BA010000 		.long	.LVUS41
 5209 0e54 00       		.byte	0
 5210 0e55 08       		.uleb128 0x8
 5211 0e56 AB080000 		.long	0x8ab
 5212 0e5a 98020000 		.long	.LBI1253
 5213 0e5e 0300     		.value	.LVU405
 5214 0e60 48010000 		.long	.LLRL42
 5215 0e64 1601     		.value	0x116
 5216 0e66 05       		.byte	0x5
 5217 0e67 8F0E0000 		.long	0xe8f
 5218 0e6b 07       		.uleb128 0x7
 5219 0e6c 4C090000 		.long	0x94c
 5220 0e70 98020000 		.long	.LBI1254
 5221 0e74 0500     		.value	.LVU407
GAS LISTING /tmp/ccttH9cH.s 			page 99


 5222 0e76 48010000 		.long	.LLRL42
 5223 0e7a 3F02     		.value	0x23f
 5224 0e7c 04       		.uleb128 0x4
 5225 0e7d 5C090000 		.long	0x95c
 5226 0e81 98020000 		.long	.LBI1255
 5227 0e85 0700     		.value	.LVU409
 5228 0e87 48010000 		.long	.LLRL42
 5229 0e8b 9901     		.value	0x199
 5230 0e8d 00       		.byte	0
 5231 0e8e 00       		.byte	0
 5232 0e8f 08       		.uleb128 0x8
 5233 0e90 4C090000 		.long	0x94c
 5234 0e94 E1020000 		.long	.LBI1261
 5235 0e98 0100     		.value	.LVU425
 5236 0e9a 54010000 		.long	.LLRL43
 5237 0e9e 1F01     		.value	0x11f
 5238 0ea0 07       		.byte	0x7
 5239 0ea1 B70E0000 		.long	0xeb7
 5240 0ea5 04       		.uleb128 0x4
 5241 0ea6 5C090000 		.long	0x95c
 5242 0eaa E1020000 		.long	.LBI1262
 5243 0eae 0300     		.value	.LVU427
 5244 0eb0 54010000 		.long	.LLRL43
 5245 0eb4 9901     		.value	0x199
 5246 0eb6 00       		.byte	0
 5247 0eb7 08       		.uleb128 0x8
 5248 0eb8 1F090000 		.long	0x91f
 5249 0ebc F4020000 		.long	.LBI1267
 5250 0ec0 0100     		.value	.LVU436
 5251 0ec2 60010000 		.long	.LLRL44
 5252 0ec6 2101     		.value	0x121
 5253 0ec8 07       		.byte	0x7
 5254 0ec9 E50E0000 		.long	0xee5
 5255 0ecd 0E       		.uleb128 0xe
 5256 0ece 60010000 		.long	.LLRL44
 5257 0ed2 04       		.uleb128 0x4
 5258 0ed3 54090000 		.long	0x954
 5259 0ed7 F4020000 		.long	.LBI1269
 5260 0edb 0800     		.value	.LVU443
 5261 0edd 60010000 		.long	.LLRL44
 5262 0ee1 B201     		.value	0x1b2
 5263 0ee3 00       		.byte	0
 5264 0ee4 00       		.byte	0
 5265 0ee5 08       		.uleb128 0x8
 5266 0ee6 CC080000 		.long	0x8cc
 5267 0eea DE030000 		.long	.LBI1275
 5268 0eee 0300     		.value	.LVU488
 5269 0ef0 6C010000 		.long	.LLRL45
 5270 0ef4 3801     		.value	0x138
 5271 0ef6 05       		.byte	0x5
 5272 0ef7 4E0F0000 		.long	0xf4e
 5273 0efb 05       		.uleb128 0x5
 5274 0efc DA080000 		.long	0x8da
 5275 0f00 CC010000 		.long	.LLST46
 5276 0f04 CA010000 		.long	.LVUS46
 5277 0f08 03       		.uleb128 0x3
 5278 0f09 05090000 		.long	0x905
GAS LISTING /tmp/ccttH9cH.s 			page 100


 5279 0f0d DE030000 		.long	.LBI1277
 5280 0f11 0600     		.value	.LVU491
 5281 0f13 7B010000 		.long	.LLRL47
 5282 0f17 04       		.byte	0x4
 5283 0f18 AC       		.byte	0xac
 5284 0f19 0A       		.byte	0xa
 5285 0f1a 2C0F0000 		.long	0xf2c
 5286 0f1e 05       		.uleb128 0x5
 5287 0f1f 13090000 		.long	0x913
 5288 0f23 DC010000 		.long	.LLST48
 5289 0f27 DA010000 		.long	.LVUS48
 5290 0f2b 00       		.byte	0
 5291 0f2c 0F       		.uleb128 0xf
 5292 0f2d EB080000 		.long	0x8eb
 5293 0f31 DE030000 		.long	.LBI1283
 5294 0f35 0900     		.value	.LVU494
 5295 0f37 DE030000 		.long	.LBB1283
 5296 0f3b 00000000 		.long	.LBE1283-.LBB1283
 5297 0f3f 05       		.uleb128 0x5
 5298 0f40 F9080000 		.long	0x8f9
 5299 0f44 EC010000 		.long	.LLST49
 5300 0f48 EA010000 		.long	.LVUS49
 5301 0f4c 00       		.byte	0
 5302 0f4d 00       		.byte	0
 5303 0f4e 08       		.uleb128 0x8
 5304 0f4f AB080000 		.long	0x8ab
 5305 0f53 C0030000 		.long	.LBI1287
 5306 0f57 0100     		.value	.LVU475
 5307 0f59 8A010000 		.long	.LLRL50
 5308 0f5d 3801     		.value	0x138
 5309 0f5f 05       		.byte	0x5
 5310 0f60 880F0000 		.long	0xf88
 5311 0f64 07       		.uleb128 0x7
 5312 0f65 4C090000 		.long	0x94c
 5313 0f69 C0030000 		.long	.LBI1288
 5314 0f6d 0300     		.value	.LVU477
 5315 0f6f 8A010000 		.long	.LLRL50
 5316 0f73 3F02     		.value	0x23f
 5317 0f75 04       		.uleb128 0x4
 5318 0f76 5C090000 		.long	0x95c
 5319 0f7a C0030000 		.long	.LBI1289
 5320 0f7e 0500     		.value	.LVU479
 5321 0f80 8A010000 		.long	.LLRL50
 5322 0f84 9901     		.value	0x199
 5323 0f86 00       		.byte	0
 5324 0f87 00       		.byte	0
 5325 0f88 08       		.uleb128 0x8
 5326 0f89 AB080000 		.long	0x8ab
 5327 0f8d EF030000 		.long	.LBI1297
 5328 0f91 0300     		.value	.LVU502
 5329 0f93 96010000 		.long	.LLRL51
 5330 0f97 3901     		.value	0x139
 5331 0f99 05       		.byte	0x5
 5332 0f9a C20F0000 		.long	0xfc2
 5333 0f9e 07       		.uleb128 0x7
 5334 0f9f 4C090000 		.long	0x94c
 5335 0fa3 EF030000 		.long	.LBI1298
GAS LISTING /tmp/ccttH9cH.s 			page 101


 5336 0fa7 0500     		.value	.LVU504
 5337 0fa9 96010000 		.long	.LLRL51
 5338 0fad 3F02     		.value	0x23f
 5339 0faf 04       		.uleb128 0x4
 5340 0fb0 5C090000 		.long	0x95c
 5341 0fb4 EF030000 		.long	.LBI1299
 5342 0fb8 0700     		.value	.LVU506
 5343 0fba 96010000 		.long	.LLRL51
 5344 0fbe 9901     		.value	0x199
 5345 0fc0 00       		.byte	0
 5346 0fc1 00       		.byte	0
 5347 0fc2 19       		.uleb128 0x19
 5348 0fc3 EB080000 		.long	0x8eb
 5349 0fc7 08040000 		.long	.LBI1305
 5350 0fcb 0300     		.value	.LVU513
 5351 0fcd 08040000 		.long	.LBB1305
 5352 0fd1 00000000 		.long	.LBE1305-.LBB1305
 5353 0fd5 3901     		.value	0x139
 5354 0fd7 E90F0000 		.long	0xfe9
 5355 0fdb 05       		.uleb128 0x5
 5356 0fdc F9080000 		.long	0x8f9
 5357 0fe0 FC010000 		.long	.LLST52
 5358 0fe4 FA010000 		.long	.LVUS52
 5359 0fe8 00       		.byte	0
 5360 0fe9 08       		.uleb128 0x8
 5361 0fea A3080000 		.long	0x8a3
 5362 0fee 18040000 		.long	.LBI1307
 5363 0ff2 0100     		.value	.LVU519
 5364 0ff4 A2010000 		.long	.LLRL53
 5365 0ff8 3901     		.value	0x139
 5366 0ffa 05       		.byte	0x5
 5367 0ffb 29100000 		.long	0x1029
 5368 0fff 07       		.uleb128 0x7
 5369 1000 1F090000 		.long	0x91f
 5370 1004 18040000 		.long	.LBI1308
 5371 1008 0300     		.value	.LVU521
 5372 100a A2010000 		.long	.LLRL53
 5373 100e 4A02     		.value	0x24a
 5374 1010 0E       		.uleb128 0xe
 5375 1011 A2010000 		.long	.LLRL53
 5376 1015 04       		.uleb128 0x4
 5377 1016 54090000 		.long	0x954
 5378 101a 18040000 		.long	.LBI1310
 5379 101e 0A00     		.value	.LVU528
 5380 1020 A2010000 		.long	.LLRL53
 5381 1024 B201     		.value	0x1b2
 5382 1026 00       		.byte	0
 5383 1027 00       		.byte	0
 5384 1028 00       		.byte	0
 5385 1029 01       		.uleb128 0x1
 5386 102a AB000000 		.long	.LVL32
 5387 102e 24050000 		.long	0x524
 5388 1032 01       		.uleb128 0x1
 5389 1033 E2000000 		.long	.LVL34
 5390 1037 EA050000 		.long	0x5ea
 5391 103b 01       		.uleb128 0x1
 5392 103c 14010000 		.long	.LVL36
GAS LISTING /tmp/ccttH9cH.s 			page 102


 5393 1040 EA050000 		.long	0x5ea
 5394 1044 01       		.uleb128 0x1
 5395 1045 4B010000 		.long	.LVL37
 5396 1049 EA050000 		.long	0x5ea
 5397 104d 01       		.uleb128 0x1
 5398 104e 82010000 		.long	.LVL38
 5399 1052 EA050000 		.long	0x5ea
 5400 1056 01       		.uleb128 0x1
 5401 1057 C2010000 		.long	.LVL42
 5402 105b D1050000 		.long	0x5d1
 5403 105f 01       		.uleb128 0x1
 5404 1060 DC010000 		.long	.LVL44
 5405 1064 EA050000 		.long	0x5ea
 5406 1068 01       		.uleb128 0x1
 5407 1069 04020000 		.long	.LVL48
 5408 106d 9A050000 		.long	0x59a
 5409 1071 01       		.uleb128 0x1
 5410 1072 1E020000 		.long	.LVL50
 5411 1076 EA050000 		.long	0x5ea
 5412 107a 01       		.uleb128 0x1
 5413 107b 60020000 		.long	.LVL52
 5414 107f EA050000 		.long	0x5ea
 5415 1083 01       		.uleb128 0x1
 5416 1084 8D020000 		.long	.LVL54
 5417 1088 EA050000 		.long	0x5ea
 5418 108c 01       		.uleb128 0x1
 5419 108d C0020000 		.long	.LVL55
 5420 1091 EA050000 		.long	0x5ea
 5421 1095 01       		.uleb128 0x1
 5422 1096 F4020000 		.long	.LVL58
 5423 109a 53050000 		.long	0x553
 5424 109e 01       		.uleb128 0x1
 5425 109f 0E030000 		.long	.LVL60
 5426 10a3 EA050000 		.long	0x5ea
 5427 10a7 01       		.uleb128 0x1
 5428 10a8 27030000 		.long	.LVL61
 5429 10ac 11050000 		.long	0x511
 5430 10b0 01       		.uleb128 0x1
 5431 10b1 47030000 		.long	.LVL63
 5432 10b5 F7040000 		.long	0x4f7
 5433 10b9 01       		.uleb128 0x1
 5434 10ba 63030000 		.long	.LVL64
 5435 10be 04060000 		.long	0x604
 5436 10c2 01       		.uleb128 0x1
 5437 10c3 77030000 		.long	.LVL66
 5438 10c7 EA050000 		.long	0x5ea
 5439 10cb 01       		.uleb128 0x1
 5440 10cc 8F030000 		.long	.LVL67
 5441 10d0 6C050000 		.long	0x56c
 5442 10d4 01       		.uleb128 0x1
 5443 10d5 A3030000 		.long	.LVL69
 5444 10d9 EA050000 		.long	0x5ea
 5445 10dd 01       		.uleb128 0x1
 5446 10de E4030000 		.long	.LVL71
 5447 10e2 EA050000 		.long	0x5ea
 5448 10e6 01       		.uleb128 0x1
 5449 10e7 0D040000 		.long	.LVL73
GAS LISTING /tmp/ccttH9cH.s 			page 103


 5450 10eb EA050000 		.long	0x5ea
 5451 10ef 01       		.uleb128 0x1
 5452 10f0 3C040000 		.long	.LVL74
 5453 10f4 EA050000 		.long	0x5ea
 5454 10f8 01       		.uleb128 0x1
 5455 10f9 65040000 		.long	.LVL75
 5456 10fd EA050000 		.long	0x5ea
 5457 1101 00       		.byte	0
 5458 1102 00       		.byte	0
 5459 1103 01       		.uleb128 0x1
 5460 1104 61000000 		.long	.LVL31
 5461 1108 EA050000 		.long	0x5ea
 5462 110c 01       		.uleb128 0x1
 5463 110d 72040000 		.long	.LVL76
 5464 1111 91180000 		.long	0x1891
 5465 1115 00       		.byte	0
 5466 1116 1C       		.uleb128 0x1c
 5467 1117 6B080000 		.long	0x86b
 5468 111b 00000000 		.long	.LFB305
 5469 111f E7040000 		.long	.LFE305-.LFB305
 5470 1123 01       		.uleb128 0x1
 5471 1124 9C       		.byte	0x9c
 5472 1125 91180000 		.long	0x1891
 5473 1129 13       		.uleb128 0x13
 5474 112a 78080000 		.long	0x878
 5475 112e 13       		.uleb128 0x13
 5476 112f 83080000 		.long	0x883
 5477 1133 13       		.uleb128 0x13
 5478 1134 8E080000 		.long	0x88e
 5479 1138 03       		.uleb128 0x3
 5480 1139 AB080000 		.long	0x8ab
 5481 113d 36000000 		.long	.LBI1508
 5482 1141 0100     		.value	.LVU548
 5483 1143 AE010000 		.long	.LLRL54
 5484 1147 01       		.byte	0x1
 5485 1148 65       		.byte	0x65
 5486 1149 05       		.byte	0x5
 5487 114a 72110000 		.long	0x1172
 5488 114e 07       		.uleb128 0x7
 5489 114f 4C090000 		.long	0x94c
 5490 1153 36000000 		.long	.LBI1509
 5491 1157 0300     		.value	.LVU550
 5492 1159 AE010000 		.long	.LLRL54
 5493 115d 3F02     		.value	0x23f
 5494 115f 04       		.uleb128 0x4
 5495 1160 5C090000 		.long	0x95c
 5496 1164 36000000 		.long	.LBI1510
 5497 1168 0500     		.value	.LVU552
 5498 116a AE010000 		.long	.LLRL54
 5499 116e 9901     		.value	0x199
 5500 1170 00       		.byte	0
 5501 1171 00       		.byte	0
 5502 1172 03       		.uleb128 0x3
 5503 1173 CC080000 		.long	0x8cc
 5504 1177 49000000 		.long	.LBI1519
 5505 117b 0300     		.value	.LVU560
 5506 117d BD010000 		.long	.LLRL55
GAS LISTING /tmp/ccttH9cH.s 			page 104


 5507 1181 01       		.byte	0x1
 5508 1182 65       		.byte	0x65
 5509 1183 05       		.byte	0x5
 5510 1184 DB110000 		.long	0x11db
 5511 1188 05       		.uleb128 0x5
 5512 1189 DA080000 		.long	0x8da
 5513 118d 0C020000 		.long	.LLST56
 5514 1191 0A020000 		.long	.LVUS56
 5515 1195 03       		.uleb128 0x3
 5516 1196 05090000 		.long	0x905
 5517 119a 49000000 		.long	.LBI1521
 5518 119e 0600     		.value	.LVU563
 5519 11a0 C9010000 		.long	.LLRL57
 5520 11a4 04       		.byte	0x4
 5521 11a5 AC       		.byte	0xac
 5522 11a6 0A       		.byte	0xa
 5523 11a7 B9110000 		.long	0x11b9
 5524 11ab 05       		.uleb128 0x5
 5525 11ac 13090000 		.long	0x913
 5526 11b0 1C020000 		.long	.LLST58
 5527 11b4 1A020000 		.long	.LVUS58
 5528 11b8 00       		.byte	0
 5529 11b9 0F       		.uleb128 0xf
 5530 11ba EB080000 		.long	0x8eb
 5531 11be 49000000 		.long	.LBI1526
 5532 11c2 0900     		.value	.LVU566
 5533 11c4 49000000 		.long	.LBB1526
 5534 11c8 00000000 		.long	.LBE1526-.LBB1526
 5535 11cc 05       		.uleb128 0x5
 5536 11cd F9080000 		.long	0x8f9
 5537 11d1 2C020000 		.long	.LLST59
 5538 11d5 2A020000 		.long	.LVUS59
 5539 11d9 00       		.byte	0
 5540 11da 00       		.byte	0
 5541 11db 3A       		.uleb128 0x3a
 5542 11dc A3080000 		.long	0x8a3
 5543 11e0 61000000 		.long	.LBB1532
 5544 11e4 06000000 		.long	.LBE1532-.LBB1532
 5545 11e8 01       		.byte	0x1
 5546 11e9 65       		.byte	0x65
 5547 11ea 05       		.byte	0x5
 5548 11eb 13120000 		.long	0x1213
 5549 11ef 3B       		.uleb128 0x3b
 5550 11f0 1F090000 		.long	0x91f
 5551 11f4 61000000 		.long	.LBB1533
 5552 11f8 06000000 		.long	.LBE1533-.LBB1533
 5553 11fc 05       		.byte	0x5
 5554 11fd 4A02     		.value	0x24a
 5555 11ff 03       		.byte	0x3
 5556 1200 3C       		.uleb128 0x3c
 5557 1201 54090000 		.long	0x954
 5558 1205 61000000 		.long	.LBB1535
 5559 1209 06000000 		.long	.LBE1535-.LBB1535
 5560 120d 02       		.byte	0x2
 5561 120e B201     		.value	0x1b2
 5562 1210 03       		.byte	0x3
 5563 1211 00       		.byte	0
GAS LISTING /tmp/ccttH9cH.s 			page 105


 5564 1212 00       		.byte	0
 5565 1213 0D       		.uleb128 0xd
 5566 1214 6B080000 		.long	0x86b
 5567 1218 90000000 		.long	.LBI1537
 5568 121c 0000     		.value	.LVU576
 5569 121e 90000000 		.long	.LBB1537
 5570 1222 52040000 		.long	.LBE1537-.LBB1537
 5571 1226 5E       		.byte	0x5e
 5572 1227 0D       		.byte	0xd
 5573 1228 7E180000 		.long	0x187e
 5574 122c 1D       		.uleb128 0x1d
 5575 122d 78080000 		.long	0x878
 5576 1231 4A020000 		.long	.LLST60
 5577 1235 3A020000 		.long	.LVUS60
 5578 1239 2B       		.uleb128 0x2b
 5579 123a 83080000 		.long	0x883
 5580 123e 02       		.uleb128 0x2
 5581 123f 91       		.byte	0x91
 5582 1240 58       		.sleb128 -40
 5583 1241 1D       		.uleb128 0x1d
 5584 1242 8E080000 		.long	0x88e
 5585 1246 90020000 		.long	.LLST61
 5586 124a 82020000 		.long	.LVUS61
 5587 124e 0D       		.uleb128 0xd
 5588 124f A3080000 		.long	0x8a3
 5589 1253 90000000 		.long	.LBI1539
 5590 1257 0200     		.value	.LVU578
 5591 1259 90000000 		.long	.LBB1539
 5592 125d 00000000 		.long	.LBE1539-.LBB1539
 5593 1261 65       		.byte	0x65
 5594 1262 05       		.byte	0x5
 5595 1263 8F120000 		.long	0x128f
 5596 1267 1E       		.uleb128 0x1e
 5597 1268 1F090000 		.long	0x91f
 5598 126c 90000000 		.long	.LBI1540
 5599 1270 0400     		.value	.LVU580
 5600 1272 90000000 		.long	.LBB1540
 5601 1276 00000000 		.long	.LBE1540-.LBB1540
 5602 127a 12       		.uleb128 0x12
 5603 127b 54090000 		.long	0x954
 5604 127f 90000000 		.long	.LBI1542
 5605 1283 0B00     		.value	.LVU587
 5606 1285 90000000 		.long	.LBB1542
 5607 1289 00000000 		.long	.LBE1542-.LBB1542
 5608 128d 00       		.byte	0
 5609 128e 00       		.byte	0
 5610 128f 03       		.uleb128 0x3
 5611 1290 AB080000 		.long	0x8ab
 5612 1294 A5000000 		.long	.LBI1544
 5613 1298 0100     		.value	.LVU597
 5614 129a D8010000 		.long	.LLRL62
 5615 129e 01       		.byte	0x1
 5616 129f 6E       		.byte	0x6e
 5617 12a0 05       		.byte	0x5
 5618 12a1 C9120000 		.long	0x12c9
 5619 12a5 07       		.uleb128 0x7
 5620 12a6 4C090000 		.long	0x94c
GAS LISTING /tmp/ccttH9cH.s 			page 106


 5621 12aa A5000000 		.long	.LBI1545
 5622 12ae 0300     		.value	.LVU599
 5623 12b0 D8010000 		.long	.LLRL62
 5624 12b4 3F02     		.value	0x23f
 5625 12b6 04       		.uleb128 0x4
 5626 12b7 5C090000 		.long	0x95c
 5627 12bb A5000000 		.long	.LBI1546
 5628 12bf 0500     		.value	.LVU601
 5629 12c1 D8010000 		.long	.LLRL62
 5630 12c5 9901     		.value	0x199
 5631 12c7 00       		.byte	0
 5632 12c8 00       		.byte	0
 5633 12c9 03       		.uleb128 0x3
 5634 12ca CC080000 		.long	0x8cc
 5635 12ce C4000000 		.long	.LBI1551
 5636 12d2 0300     		.value	.LVU609
 5637 12d4 E4010000 		.long	.LLRL63
 5638 12d8 01       		.byte	0x1
 5639 12d9 6E       		.byte	0x6e
 5640 12da 05       		.byte	0x5
 5641 12db 32130000 		.long	0x1332
 5642 12df 05       		.uleb128 0x5
 5643 12e0 DA080000 		.long	0x8da
 5644 12e4 D6020000 		.long	.LLST64
 5645 12e8 D4020000 		.long	.LVUS64
 5646 12ec 03       		.uleb128 0x3
 5647 12ed 05090000 		.long	0x905
 5648 12f1 C4000000 		.long	.LBI1553
 5649 12f5 0600     		.value	.LVU612
 5650 12f7 F0010000 		.long	.LLRL65
 5651 12fb 04       		.byte	0x4
 5652 12fc AC       		.byte	0xac
 5653 12fd 0A       		.byte	0xa
 5654 12fe 10130000 		.long	0x1310
 5655 1302 05       		.uleb128 0x5
 5656 1303 13090000 		.long	0x913
 5657 1307 E6020000 		.long	.LLST66
 5658 130b E4020000 		.long	.LVUS66
 5659 130f 00       		.byte	0
 5660 1310 0F       		.uleb128 0xf
 5661 1311 EB080000 		.long	0x8eb
 5662 1315 C4000000 		.long	.LBI1558
 5663 1319 0900     		.value	.LVU615
 5664 131b C4000000 		.long	.LBB1558
 5665 131f 00000000 		.long	.LBE1558-.LBB1558
 5666 1323 05       		.uleb128 0x5
 5667 1324 F9080000 		.long	0x8f9
 5668 1328 F6020000 		.long	.LLST67
 5669 132c F4020000 		.long	.LVUS67
 5670 1330 00       		.byte	0
 5671 1331 00       		.byte	0
 5672 1332 03       		.uleb128 0x3
 5673 1333 AB080000 		.long	0x8ab
 5674 1337 E3000000 		.long	.LBI1564
 5675 133b 0300     		.value	.LVU625
 5676 133d FF010000 		.long	.LLRL68
 5677 1341 01       		.byte	0x1
GAS LISTING /tmp/ccttH9cH.s 			page 107


 5678 1342 6F       		.byte	0x6f
 5679 1343 05       		.byte	0x5
 5680 1344 6C130000 		.long	0x136c
 5681 1348 07       		.uleb128 0x7
 5682 1349 4C090000 		.long	0x94c
 5683 134d E3000000 		.long	.LBI1565
 5684 1351 0500     		.value	.LVU627
 5685 1353 FF010000 		.long	.LLRL68
 5686 1357 3F02     		.value	0x23f
 5687 1359 04       		.uleb128 0x4
 5688 135a 5C090000 		.long	0x95c
 5689 135e E3000000 		.long	.LBI1566
 5690 1362 0700     		.value	.LVU629
 5691 1364 FF010000 		.long	.LLRL68
 5692 1368 9901     		.value	0x199
 5693 136a 00       		.byte	0
 5694 136b 00       		.byte	0
 5695 136c 0D       		.uleb128 0xd
 5696 136d EB080000 		.long	0x8eb
 5697 1371 F8000000 		.long	.LBI1572
 5698 1375 0300     		.value	.LVU636
 5699 1377 F8000000 		.long	.LBB1572
 5700 137b 00000000 		.long	.LBE1572-.LBB1572
 5701 137f 6F       		.byte	0x6f
 5702 1380 05       		.byte	0x5
 5703 1381 93130000 		.long	0x1393
 5704 1385 05       		.uleb128 0x5
 5705 1386 F9080000 		.long	0x8f9
 5706 138a 06030000 		.long	.LLST69
 5707 138e 04030000 		.long	.LVUS69
 5708 1392 00       		.byte	0
 5709 1393 0D       		.uleb128 0xd
 5710 1394 A3080000 		.long	0x8a3
 5711 1398 11010000 		.long	.LBI1574
 5712 139c 0100     		.value	.LVU642
 5713 139e 11010000 		.long	.LBB1574
 5714 13a2 06000000 		.long	.LBE1574-.LBB1574
 5715 13a6 6E       		.byte	0x6e
 5716 13a7 05       		.byte	0x5
 5717 13a8 D4130000 		.long	0x13d4
 5718 13ac 1E       		.uleb128 0x1e
 5719 13ad 1F090000 		.long	0x91f
 5720 13b1 11010000 		.long	.LBI1575
 5721 13b5 0300     		.value	.LVU644
 5722 13b7 11010000 		.long	.LBB1575
 5723 13bb 06000000 		.long	.LBE1575-.LBB1575
 5724 13bf 12       		.uleb128 0x12
 5725 13c0 54090000 		.long	0x954
 5726 13c4 11010000 		.long	.LBI1577
 5727 13c8 0A00     		.value	.LVU651
 5728 13ca 11010000 		.long	.LBB1577
 5729 13ce 06000000 		.long	.LBE1577-.LBB1577
 5730 13d2 00       		.byte	0
 5731 13d3 00       		.byte	0
 5732 13d4 03       		.uleb128 0x3
 5733 13d5 AB080000 		.long	0x8ab
 5734 13d9 20010000 		.long	.LBI1579
GAS LISTING /tmp/ccttH9cH.s 			page 108


 5735 13dd 0300     		.value	.LVU658
 5736 13df 0B020000 		.long	.LLRL70
 5737 13e3 01       		.byte	0x1
 5738 13e4 70       		.byte	0x70
 5739 13e5 05       		.byte	0x5
 5740 13e6 0E140000 		.long	0x140e
 5741 13ea 07       		.uleb128 0x7
 5742 13eb 4C090000 		.long	0x94c
 5743 13ef 20010000 		.long	.LBI1580
 5744 13f3 0500     		.value	.LVU660
 5745 13f5 0B020000 		.long	.LLRL70
 5746 13f9 3F02     		.value	0x23f
 5747 13fb 04       		.uleb128 0x4
 5748 13fc 5C090000 		.long	0x95c
 5749 1400 20010000 		.long	.LBI1581
 5750 1404 0700     		.value	.LVU662
 5751 1406 0B020000 		.long	.LLRL70
 5752 140a 9901     		.value	0x199
 5753 140c 00       		.byte	0
 5754 140d 00       		.byte	0
 5755 140e 03       		.uleb128 0x3
 5756 140f AB080000 		.long	0x8ab
 5757 1413 53010000 		.long	.LBI1587
 5758 1417 0300     		.value	.LVU672
 5759 1419 17020000 		.long	.LLRL71
 5760 141d 01       		.byte	0x1
 5761 141e 71       		.byte	0x71
 5762 141f 05       		.byte	0x5
 5763 1420 48140000 		.long	0x1448
 5764 1424 07       		.uleb128 0x7
 5765 1425 4C090000 		.long	0x94c
 5766 1429 53010000 		.long	.LBI1588
 5767 142d 0500     		.value	.LVU674
 5768 142f 17020000 		.long	.LLRL71
 5769 1433 3F02     		.value	0x23f
 5770 1435 04       		.uleb128 0x4
 5771 1436 5C090000 		.long	0x95c
 5772 143a 53010000 		.long	.LBI1589
 5773 143e 0700     		.value	.LVU676
 5774 1440 17020000 		.long	.LLRL71
 5775 1444 9901     		.value	0x199
 5776 1446 00       		.byte	0
 5777 1447 00       		.byte	0
 5778 1448 03       		.uleb128 0x3
 5779 1449 A3080000 		.long	0x8a3
 5780 144d 86010000 		.long	.LBI1595
 5781 1451 0100     		.value	.LVU684
 5782 1453 23020000 		.long	.LLRL72
 5783 1457 01       		.byte	0x1
 5784 1458 71       		.byte	0x71
 5785 1459 05       		.byte	0x5
 5786 145a 88140000 		.long	0x1488
 5787 145e 07       		.uleb128 0x7
 5788 145f 1F090000 		.long	0x91f
 5789 1463 86010000 		.long	.LBI1596
 5790 1467 0300     		.value	.LVU686
 5791 1469 23020000 		.long	.LLRL72
GAS LISTING /tmp/ccttH9cH.s 			page 109


 5792 146d 4A02     		.value	0x24a
 5793 146f 0E       		.uleb128 0xe
 5794 1470 23020000 		.long	.LLRL72
 5795 1474 04       		.uleb128 0x4
 5796 1475 54090000 		.long	0x954
 5797 1479 86010000 		.long	.LBI1598
 5798 147d 0A00     		.value	.LVU693
 5799 147f 23020000 		.long	.LLRL72
 5800 1483 B201     		.value	0x1b2
 5801 1485 00       		.byte	0
 5802 1486 00       		.byte	0
 5803 1487 00       		.byte	0
 5804 1488 03       		.uleb128 0x3
 5805 1489 B3080000 		.long	0x8b3
 5806 148d 27020000 		.long	.LBI1605
 5807 1491 0200     		.value	.LVU719
 5808 1493 2F020000 		.long	.LLRL73
 5809 1497 01       		.byte	0x1
 5810 1498 7F       		.byte	0x7f
 5811 1499 05       		.byte	0x5
 5812 149a AC140000 		.long	0x14ac
 5813 149e 05       		.uleb128 0x5
 5814 149f C0080000 		.long	0x8c0
 5815 14a3 16030000 		.long	.LLST74
 5816 14a7 14030000 		.long	.LVUS74
 5817 14ab 00       		.byte	0
 5818 14ac 03       		.uleb128 0x3
 5819 14ad AB080000 		.long	0x8ab
 5820 14b1 BE020000 		.long	.LBI1609
 5821 14b5 0100     		.value	.LVU749
 5822 14b7 3B020000 		.long	.LLRL75
 5823 14bb 01       		.byte	0x1
 5824 14bc 94       		.byte	0x94
 5825 14bd 05       		.byte	0x5
 5826 14be E6140000 		.long	0x14e6
 5827 14c2 07       		.uleb128 0x7
 5828 14c3 4C090000 		.long	0x94c
 5829 14c7 BE020000 		.long	.LBI1610
 5830 14cb 0300     		.value	.LVU751
 5831 14cd 3B020000 		.long	.LLRL75
 5832 14d1 3F02     		.value	0x23f
 5833 14d3 04       		.uleb128 0x4
 5834 14d4 5C090000 		.long	0x95c
 5835 14d8 BE020000 		.long	.LBI1611
 5836 14dc 0500     		.value	.LVU753
 5837 14de 3B020000 		.long	.LLRL75
 5838 14e2 9901     		.value	0x199
 5839 14e4 00       		.byte	0
 5840 14e5 00       		.byte	0
 5841 14e6 03       		.uleb128 0x3
 5842 14e7 CC080000 		.long	0x8cc
 5843 14eb D1020000 		.long	.LBI1616
 5844 14ef 0300     		.value	.LVU761
 5845 14f1 47020000 		.long	.LLRL76
 5846 14f5 01       		.byte	0x1
 5847 14f6 94       		.byte	0x94
 5848 14f7 05       		.byte	0x5
GAS LISTING /tmp/ccttH9cH.s 			page 110


 5849 14f8 4F150000 		.long	0x154f
 5850 14fc 05       		.uleb128 0x5
 5851 14fd DA080000 		.long	0x8da
 5852 1501 26030000 		.long	.LLST77
 5853 1505 24030000 		.long	.LVUS77
 5854 1509 03       		.uleb128 0x3
 5855 150a 05090000 		.long	0x905
 5856 150e D1020000 		.long	.LBI1617
 5857 1512 0600     		.value	.LVU764
 5858 1514 53020000 		.long	.LLRL78
 5859 1518 04       		.byte	0x4
 5860 1519 AC       		.byte	0xac
 5861 151a 0A       		.byte	0xa
 5862 151b 2D150000 		.long	0x152d
 5863 151f 05       		.uleb128 0x5
 5864 1520 13090000 		.long	0x913
 5865 1524 36030000 		.long	.LLST79
 5866 1528 34030000 		.long	.LVUS79
 5867 152c 00       		.byte	0
 5868 152d 0F       		.uleb128 0xf
 5869 152e EB080000 		.long	0x8eb
 5870 1532 D1020000 		.long	.LBI1622
 5871 1536 0900     		.value	.LVU767
 5872 1538 D1020000 		.long	.LBB1622
 5873 153c 00000000 		.long	.LBE1622-.LBB1622
 5874 1540 05       		.uleb128 0x5
 5875 1541 F9080000 		.long	0x8f9
 5876 1545 46030000 		.long	.LLST80
 5877 1549 44030000 		.long	.LVUS80
 5878 154d 00       		.byte	0
 5879 154e 00       		.byte	0
 5880 154f 03       		.uleb128 0x3
 5881 1550 AB080000 		.long	0x8ab
 5882 1554 F1020000 		.long	.LBI1627
 5883 1558 0300     		.value	.LVU776
 5884 155a 62020000 		.long	.LLRL81
 5885 155e 01       		.byte	0x1
 5886 155f 95       		.byte	0x95
 5887 1560 05       		.byte	0x5
 5888 1561 89150000 		.long	0x1589
 5889 1565 07       		.uleb128 0x7
 5890 1566 4C090000 		.long	0x94c
 5891 156a F1020000 		.long	.LBI1628
 5892 156e 0500     		.value	.LVU778
 5893 1570 62020000 		.long	.LLRL81
 5894 1574 3F02     		.value	0x23f
 5895 1576 04       		.uleb128 0x4
 5896 1577 5C090000 		.long	0x95c
 5897 157b F1020000 		.long	.LBI1629
 5898 157f 0700     		.value	.LVU780
 5899 1581 62020000 		.long	.LLRL81
 5900 1585 9901     		.value	0x199
 5901 1587 00       		.byte	0
 5902 1588 00       		.byte	0
 5903 1589 0D       		.uleb128 0xd
 5904 158a EB080000 		.long	0x8eb
 5905 158e 0C030000 		.long	.LBI1635
GAS LISTING /tmp/ccttH9cH.s 			page 111


 5906 1592 0300     		.value	.LVU787
 5907 1594 0C030000 		.long	.LBB1635
 5908 1598 00000000 		.long	.LBE1635-.LBB1635
 5909 159c 95       		.byte	0x95
 5910 159d 05       		.byte	0x5
 5911 159e B0150000 		.long	0x15b0
 5912 15a2 05       		.uleb128 0x5
 5913 15a3 F9080000 		.long	0x8f9
 5914 15a7 56030000 		.long	.LLST82
 5915 15ab 54030000 		.long	.LVUS82
 5916 15af 00       		.byte	0
 5917 15b0 03       		.uleb128 0x3
 5918 15b1 AB080000 		.long	0x8ab
 5919 15b5 1D030000 		.long	.LBI1637
 5920 15b9 0300     		.value	.LVU795
 5921 15bb 6E020000 		.long	.LLRL83
 5922 15bf 01       		.byte	0x1
 5923 15c0 96       		.byte	0x96
 5924 15c1 05       		.byte	0x5
 5925 15c2 EA150000 		.long	0x15ea
 5926 15c6 07       		.uleb128 0x7
 5927 15c7 4C090000 		.long	0x94c
 5928 15cb 1D030000 		.long	.LBI1638
 5929 15cf 0500     		.value	.LVU797
 5930 15d1 6E020000 		.long	.LLRL83
 5931 15d5 3F02     		.value	0x23f
 5932 15d7 04       		.uleb128 0x4
 5933 15d8 5C090000 		.long	0x95c
 5934 15dc 1D030000 		.long	.LBI1639
 5935 15e0 0700     		.value	.LVU799
 5936 15e2 6E020000 		.long	.LLRL83
 5937 15e6 9901     		.value	0x199
 5938 15e8 00       		.byte	0
 5939 15e9 00       		.byte	0
 5940 15ea 0D       		.uleb128 0xd
 5941 15eb A3080000 		.long	0x8a3
 5942 15ef 4F030000 		.long	.LBI1645
 5943 15f3 0100     		.value	.LVU807
 5944 15f5 4F030000 		.long	.LBB1645
 5945 15f9 06000000 		.long	.LBE1645-.LBB1645
 5946 15fd 96       		.byte	0x96
 5947 15fe 05       		.byte	0x5
 5948 15ff 2B160000 		.long	0x162b
 5949 1603 1E       		.uleb128 0x1e
 5950 1604 1F090000 		.long	0x91f
 5951 1608 4F030000 		.long	.LBI1646
 5952 160c 0300     		.value	.LVU809
 5953 160e 4F030000 		.long	.LBB1646
 5954 1612 06000000 		.long	.LBE1646-.LBB1646
 5955 1616 12       		.uleb128 0x12
 5956 1617 54090000 		.long	0x954
 5957 161b 4F030000 		.long	.LBI1648
 5958 161f 0A00     		.value	.LVU816
 5959 1621 4F030000 		.long	.LBB1648
 5960 1625 06000000 		.long	.LBE1648-.LBB1648
 5961 1629 00       		.byte	0
 5962 162a 00       		.byte	0
GAS LISTING /tmp/ccttH9cH.s 			page 112


 5963 162b 03       		.uleb128 0x3
 5964 162c CC080000 		.long	0x8cc
 5965 1630 53040000 		.long	.LBI1650
 5966 1634 0300     		.value	.LVU869
 5967 1636 7A020000 		.long	.LLRL84
 5968 163a 01       		.byte	0x1
 5969 163b B6       		.byte	0xb6
 5970 163c 05       		.byte	0x5
 5971 163d 94160000 		.long	0x1694
 5972 1641 05       		.uleb128 0x5
 5973 1642 DA080000 		.long	0x8da
 5974 1646 66030000 		.long	.LLST85
 5975 164a 64030000 		.long	.LVUS85
 5976 164e 03       		.uleb128 0x3
 5977 164f 05090000 		.long	0x905
 5978 1653 53040000 		.long	.LBI1652
 5979 1657 0600     		.value	.LVU872
 5980 1659 89020000 		.long	.LLRL86
 5981 165d 04       		.byte	0x4
 5982 165e AC       		.byte	0xac
 5983 165f 0A       		.byte	0xa
 5984 1660 72160000 		.long	0x1672
 5985 1664 05       		.uleb128 0x5
 5986 1665 13090000 		.long	0x913
 5987 1669 76030000 		.long	.LLST87
 5988 166d 74030000 		.long	.LVUS87
 5989 1671 00       		.byte	0
 5990 1672 0F       		.uleb128 0xf
 5991 1673 EB080000 		.long	0x8eb
 5992 1677 53040000 		.long	.LBI1658
 5993 167b 0900     		.value	.LVU875
 5994 167d 53040000 		.long	.LBB1658
 5995 1681 00000000 		.long	.LBE1658-.LBB1658
 5996 1685 05       		.uleb128 0x5
 5997 1686 F9080000 		.long	0x8f9
 5998 168a 86030000 		.long	.LLST88
 5999 168e 84030000 		.long	.LVUS88
 6000 1692 00       		.byte	0
 6001 1693 00       		.byte	0
 6002 1694 03       		.uleb128 0x3
 6003 1695 AB080000 		.long	0x8ab
 6004 1699 35040000 		.long	.LBI1662
 6005 169d 0100     		.value	.LVU856
 6006 169f 98020000 		.long	.LLRL89
 6007 16a3 01       		.byte	0x1
 6008 16a4 B6       		.byte	0xb6
 6009 16a5 05       		.byte	0x5
 6010 16a6 CE160000 		.long	0x16ce
 6011 16aa 07       		.uleb128 0x7
 6012 16ab 4C090000 		.long	0x94c
 6013 16af 35040000 		.long	.LBI1663
 6014 16b3 0300     		.value	.LVU858
 6015 16b5 98020000 		.long	.LLRL89
 6016 16b9 3F02     		.value	0x23f
 6017 16bb 04       		.uleb128 0x4
 6018 16bc 5C090000 		.long	0x95c
 6019 16c0 35040000 		.long	.LBI1664
GAS LISTING /tmp/ccttH9cH.s 			page 113


 6020 16c4 0500     		.value	.LVU860
 6021 16c6 98020000 		.long	.LLRL89
 6022 16ca 9901     		.value	0x199
 6023 16cc 00       		.byte	0
 6024 16cd 00       		.byte	0
 6025 16ce 03       		.uleb128 0x3
 6026 16cf AB080000 		.long	0x8ab
 6027 16d3 64040000 		.long	.LBI1672
 6028 16d7 0300     		.value	.LVU883
 6029 16d9 A4020000 		.long	.LLRL90
 6030 16dd 01       		.byte	0x1
 6031 16de B7       		.byte	0xb7
 6032 16df 05       		.byte	0x5
 6033 16e0 08170000 		.long	0x1708
 6034 16e4 07       		.uleb128 0x7
 6035 16e5 4C090000 		.long	0x94c
 6036 16e9 64040000 		.long	.LBI1673
 6037 16ed 0500     		.value	.LVU885
 6038 16ef A4020000 		.long	.LLRL90
 6039 16f3 3F02     		.value	0x23f
 6040 16f5 04       		.uleb128 0x4
 6041 16f6 5C090000 		.long	0x95c
 6042 16fa 64040000 		.long	.LBI1674
 6043 16fe 0700     		.value	.LVU887
 6044 1700 A4020000 		.long	.LLRL90
 6045 1704 9901     		.value	0x199
 6046 1706 00       		.byte	0
 6047 1707 00       		.byte	0
 6048 1708 0D       		.uleb128 0xd
 6049 1709 EB080000 		.long	0x8eb
 6050 170d 7D040000 		.long	.LBI1680
 6051 1711 0300     		.value	.LVU894
 6052 1713 7D040000 		.long	.LBB1680
 6053 1717 00000000 		.long	.LBE1680-.LBB1680
 6054 171b B7       		.byte	0xb7
 6055 171c 05       		.byte	0x5
 6056 171d 2F170000 		.long	0x172f
 6057 1721 05       		.uleb128 0x5
 6058 1722 F9080000 		.long	0x8f9
 6059 1726 96030000 		.long	.LLST91
 6060 172a 94030000 		.long	.LVUS91
 6061 172e 00       		.byte	0
 6062 172f 03       		.uleb128 0x3
 6063 1730 A3080000 		.long	0x8a3
 6064 1734 8D040000 		.long	.LBI1682
 6065 1738 0100     		.value	.LVU900
 6066 173a B0020000 		.long	.LLRL92
 6067 173e 01       		.byte	0x1
 6068 173f B7       		.byte	0xb7
 6069 1740 05       		.byte	0x5
 6070 1741 6F170000 		.long	0x176f
 6071 1745 07       		.uleb128 0x7
 6072 1746 1F090000 		.long	0x91f
 6073 174a 8D040000 		.long	.LBI1683
 6074 174e 0300     		.value	.LVU902
 6075 1750 B0020000 		.long	.LLRL92
 6076 1754 4A02     		.value	0x24a
GAS LISTING /tmp/ccttH9cH.s 			page 114


 6077 1756 0E       		.uleb128 0xe
 6078 1757 B0020000 		.long	.LLRL92
 6079 175b 04       		.uleb128 0x4
 6080 175c 54090000 		.long	0x954
 6081 1760 8D040000 		.long	.LBI1685
 6082 1764 0A00     		.value	.LVU909
 6083 1766 B0020000 		.long	.LLRL92
 6084 176a B201     		.value	0x1b2
 6085 176c 00       		.byte	0
 6086 176d 00       		.byte	0
 6087 176e 00       		.byte	0
 6088 176f 01       		.uleb128 0x1
 6089 1770 A5000000 		.long	.LVL79
 6090 1774 8A050000 		.long	0x58a
 6091 1778 01       		.uleb128 0x1
 6092 1779 DC000000 		.long	.LVL81
 6093 177d EA050000 		.long	0x5ea
 6094 1781 01       		.uleb128 0x1
 6095 1782 0A010000 		.long	.LVL83
 6096 1786 EA050000 		.long	0x5ea
 6097 178a 01       		.uleb128 0x1
 6098 178b 4C010000 		.long	.LVL84
 6099 178f EA050000 		.long	0x5ea
 6100 1793 01       		.uleb128 0x1
 6101 1794 7F010000 		.long	.LVL85
 6102 1798 EA050000 		.long	0x5ea
 6103 179c 01       		.uleb128 0x1
 6104 179d 9F010000 		.long	.LVL86
 6105 17a1 04060000 		.long	0x604
 6106 17a5 01       		.uleb128 0x1
 6107 17a6 BB010000 		.long	.LVL88
 6108 17aa EA050000 		.long	0x5ea
 6109 17ae 01       		.uleb128 0x1
 6110 17af D3010000 		.long	.LVL89
 6111 17b3 B3050000 		.long	0x5b3
 6112 17b7 01       		.uleb128 0x1
 6113 17b8 E8010000 		.long	.LVL91
 6114 17bc EA050000 		.long	0x5ea
 6115 17c0 01       		.uleb128 0x1
 6116 17c1 07020000 		.long	.LVL92
 6117 17c5 6C050000 		.long	0x56c
 6118 17c9 01       		.uleb128 0x1
 6119 17ca 1C020000 		.long	.LVL94
 6120 17ce EA050000 		.long	0x5ea
 6121 17d2 01       		.uleb128 0x1
 6122 17d3 58020000 		.long	.LVL98
 6123 17d7 04060000 		.long	0x604
 6124 17db 01       		.uleb128 0x1
 6125 17dc 6C020000 		.long	.LVL100
 6126 17e0 EA050000 		.long	0x5ea
 6127 17e4 01       		.uleb128 0x1
 6128 17e5 90020000 		.long	.LVL104
 6129 17e9 B3050000 		.long	0x5b3
 6130 17ed 01       		.uleb128 0x1
 6131 17ee A4020000 		.long	.LVL106
 6132 17f2 EA050000 		.long	0x5ea
 6133 17f6 01       		.uleb128 0x1
GAS LISTING /tmp/ccttH9cH.s 			page 115


 6134 17f7 E6020000 		.long	.LVL108
 6135 17fb EA050000 		.long	0x5ea
 6136 17ff 01       		.uleb128 0x1
 6137 1800 12030000 		.long	.LVL110
 6138 1804 EA050000 		.long	0x5ea
 6139 1808 01       		.uleb128 0x1
 6140 1809 44030000 		.long	.LVL111
 6141 180d EA050000 		.long	0x5ea
 6142 1811 01       		.uleb128 0x1
 6143 1812 70030000 		.long	.LVL114
 6144 1816 6C050000 		.long	0x56c
 6145 181a 01       		.uleb128 0x1
 6146 181b 84030000 		.long	.LVL116
 6147 181f EA050000 		.long	0x5ea
 6148 1823 01       		.uleb128 0x1
 6149 1824 9D030000 		.long	.LVL117
 6150 1828 11050000 		.long	0x511
 6151 182c 01       		.uleb128 0x1
 6152 182d BC030000 		.long	.LVL119
 6153 1831 F7040000 		.long	0x4f7
 6154 1835 01       		.uleb128 0x1
 6155 1836 D8030000 		.long	.LVL120
 6156 183a 04060000 		.long	0x604
 6157 183e 01       		.uleb128 0x1
 6158 183f EC030000 		.long	.LVL122
 6159 1843 EA050000 		.long	0x5ea
 6160 1847 01       		.uleb128 0x1
 6161 1848 04040000 		.long	.LVL123
 6162 184c 6C050000 		.long	0x56c
 6163 1850 01       		.uleb128 0x1
 6164 1851 18040000 		.long	.LVL125
 6165 1855 EA050000 		.long	0x5ea
 6166 1859 01       		.uleb128 0x1
 6167 185a 59040000 		.long	.LVL127
 6168 185e EA050000 		.long	0x5ea
 6169 1862 01       		.uleb128 0x1
 6170 1863 82040000 		.long	.LVL129
 6171 1867 EA050000 		.long	0x5ea
 6172 186b 01       		.uleb128 0x1
 6173 186c B1040000 		.long	.LVL130
 6174 1870 EA050000 		.long	0x5ea
 6175 1874 01       		.uleb128 0x1
 6176 1875 DA040000 		.long	.LVL131
 6177 1879 EA050000 		.long	0x5ea
 6178 187d 00       		.byte	0
 6179 187e 01       		.uleb128 0x1
 6180 187f 61000000 		.long	.LVL78
 6181 1883 EA050000 		.long	0x5ea
 6182 1887 01       		.uleb128 0x1
 6183 1888 E7040000 		.long	.LVL132
 6184 188c 91180000 		.long	0x1891
 6185 1890 00       		.byte	0
 6186 1891 3D       		.uleb128 0x3d
 6187 1892 D7020000 		.long	.LASF102
 6188 1896 D7020000 		.long	.LASF102
 6189 189a 00       		.byte	0
 6190              		.section	.debug_abbrev,"",@progbits
GAS LISTING /tmp/ccttH9cH.s 			page 116


 6191              	.Ldebug_abbrev0:
 6192 0000 01       		.uleb128 0x1
 6193 0001 48       		.uleb128 0x48
 6194 0002 00       		.byte	0
 6195 0003 7D       		.uleb128 0x7d
 6196 0004 01       		.uleb128 0x1
 6197 0005 7F       		.uleb128 0x7f
 6198 0006 13       		.uleb128 0x13
 6199 0007 00       		.byte	0
 6200 0008 00       		.byte	0
 6201 0009 02       		.uleb128 0x2
 6202 000a 05       		.uleb128 0x5
 6203 000b 00       		.byte	0
 6204 000c 49       		.uleb128 0x49
 6205 000d 13       		.uleb128 0x13
 6206 000e 00       		.byte	0
 6207 000f 00       		.byte	0
 6208 0010 03       		.uleb128 0x3
 6209 0011 1D       		.uleb128 0x1d
 6210 0012 01       		.byte	0x1
 6211 0013 31       		.uleb128 0x31
 6212 0014 13       		.uleb128 0x13
 6213 0015 52       		.uleb128 0x52
 6214 0016 01       		.uleb128 0x1
 6215 0017 B842     		.uleb128 0x2138
 6216 0019 05       		.uleb128 0x5
 6217 001a 55       		.uleb128 0x55
 6218 001b 17       		.uleb128 0x17
 6219 001c 58       		.uleb128 0x58
 6220 001d 0B       		.uleb128 0xb
 6221 001e 59       		.uleb128 0x59
 6222 001f 0B       		.uleb128 0xb
 6223 0020 57       		.uleb128 0x57
 6224 0021 0B       		.uleb128 0xb
 6225 0022 01       		.uleb128 0x1
 6226 0023 13       		.uleb128 0x13
 6227 0024 00       		.byte	0
 6228 0025 00       		.byte	0
 6229 0026 04       		.uleb128 0x4
 6230 0027 1D       		.uleb128 0x1d
 6231 0028 00       		.byte	0
 6232 0029 31       		.uleb128 0x31
 6233 002a 13       		.uleb128 0x13
 6234 002b 52       		.uleb128 0x52
 6235 002c 01       		.uleb128 0x1
 6236 002d B842     		.uleb128 0x2138
 6237 002f 05       		.uleb128 0x5
 6238 0030 55       		.uleb128 0x55
 6239 0031 17       		.uleb128 0x17
 6240 0032 58       		.uleb128 0x58
 6241 0033 21       		.uleb128 0x21
 6242 0034 02       		.sleb128 2
 6243 0035 59       		.uleb128 0x59
 6244 0036 05       		.uleb128 0x5
 6245 0037 57       		.uleb128 0x57
 6246 0038 21       		.uleb128 0x21
 6247 0039 03       		.sleb128 3
GAS LISTING /tmp/ccttH9cH.s 			page 117


 6248 003a 00       		.byte	0
 6249 003b 00       		.byte	0
 6250 003c 05       		.uleb128 0x5
 6251 003d 05       		.uleb128 0x5
 6252 003e 00       		.byte	0
 6253 003f 31       		.uleb128 0x31
 6254 0040 13       		.uleb128 0x13
 6255 0041 02       		.uleb128 0x2
 6256 0042 17       		.uleb128 0x17
 6257 0043 B742     		.uleb128 0x2137
 6258 0045 17       		.uleb128 0x17
 6259 0046 00       		.byte	0
 6260 0047 00       		.byte	0
 6261 0048 06       		.uleb128 0x6
 6262 0049 0D       		.uleb128 0xd
 6263 004a 00       		.byte	0
 6264 004b 03       		.uleb128 0x3
 6265 004c 0E       		.uleb128 0xe
 6266 004d 3A       		.uleb128 0x3a
 6267 004e 0B       		.uleb128 0xb
 6268 004f 3B       		.uleb128 0x3b
 6269 0050 0B       		.uleb128 0xb
 6270 0051 39       		.uleb128 0x39
 6271 0052 0B       		.uleb128 0xb
 6272 0053 49       		.uleb128 0x49
 6273 0054 13       		.uleb128 0x13
 6274 0055 38       		.uleb128 0x38
 6275 0056 0B       		.uleb128 0xb
 6276 0057 00       		.byte	0
 6277 0058 00       		.byte	0
 6278 0059 07       		.uleb128 0x7
 6279 005a 1D       		.uleb128 0x1d
 6280 005b 01       		.byte	0x1
 6281 005c 31       		.uleb128 0x31
 6282 005d 13       		.uleb128 0x13
 6283 005e 52       		.uleb128 0x52
 6284 005f 01       		.uleb128 0x1
 6285 0060 B842     		.uleb128 0x2138
 6286 0062 05       		.uleb128 0x5
 6287 0063 55       		.uleb128 0x55
 6288 0064 17       		.uleb128 0x17
 6289 0065 58       		.uleb128 0x58
 6290 0066 21       		.uleb128 0x21
 6291 0067 05       		.sleb128 5
 6292 0068 59       		.uleb128 0x59
 6293 0069 05       		.uleb128 0x5
 6294 006a 57       		.uleb128 0x57
 6295 006b 21       		.uleb128 0x21
 6296 006c 03       		.sleb128 3
 6297 006d 00       		.byte	0
 6298 006e 00       		.byte	0
 6299 006f 08       		.uleb128 0x8
 6300 0070 1D       		.uleb128 0x1d
 6301 0071 01       		.byte	0x1
 6302 0072 31       		.uleb128 0x31
 6303 0073 13       		.uleb128 0x13
 6304 0074 52       		.uleb128 0x52
GAS LISTING /tmp/ccttH9cH.s 			page 118


 6305 0075 01       		.uleb128 0x1
 6306 0076 B842     		.uleb128 0x2138
 6307 0078 05       		.uleb128 0x5
 6308 0079 55       		.uleb128 0x55
 6309 007a 17       		.uleb128 0x17
 6310 007b 58       		.uleb128 0x58
 6311 007c 21       		.uleb128 0x21
 6312 007d 01       		.sleb128 1
 6313 007e 59       		.uleb128 0x59
 6314 007f 05       		.uleb128 0x5
 6315 0080 57       		.uleb128 0x57
 6316 0081 0B       		.uleb128 0xb
 6317 0082 01       		.uleb128 0x1
 6318 0083 13       		.uleb128 0x13
 6319 0084 00       		.byte	0
 6320 0085 00       		.byte	0
 6321 0086 09       		.uleb128 0x9
 6322 0087 16       		.uleb128 0x16
 6323 0088 00       		.byte	0
 6324 0089 03       		.uleb128 0x3
 6325 008a 0E       		.uleb128 0xe
 6326 008b 3A       		.uleb128 0x3a
 6327 008c 0B       		.uleb128 0xb
 6328 008d 3B       		.uleb128 0x3b
 6329 008e 0B       		.uleb128 0xb
 6330 008f 39       		.uleb128 0x39
 6331 0090 0B       		.uleb128 0xb
 6332 0091 49       		.uleb128 0x49
 6333 0092 13       		.uleb128 0x13
 6334 0093 00       		.byte	0
 6335 0094 00       		.byte	0
 6336 0095 0A       		.uleb128 0xa
 6337 0096 0F       		.uleb128 0xf
 6338 0097 00       		.byte	0
 6339 0098 0B       		.uleb128 0xb
 6340 0099 21       		.uleb128 0x21
 6341 009a 04       		.sleb128 4
 6342 009b 49       		.uleb128 0x49
 6343 009c 13       		.uleb128 0x13
 6344 009d 00       		.byte	0
 6345 009e 00       		.byte	0
 6346 009f 0B       		.uleb128 0xb
 6347 00a0 24       		.uleb128 0x24
 6348 00a1 00       		.byte	0
 6349 00a2 0B       		.uleb128 0xb
 6350 00a3 0B       		.uleb128 0xb
 6351 00a4 3E       		.uleb128 0x3e
 6352 00a5 0B       		.uleb128 0xb
 6353 00a6 03       		.uleb128 0x3
 6354 00a7 0E       		.uleb128 0xe
 6355 00a8 00       		.byte	0
 6356 00a9 00       		.byte	0
 6357 00aa 0C       		.uleb128 0xc
 6358 00ab 26       		.uleb128 0x26
 6359 00ac 00       		.byte	0
 6360 00ad 49       		.uleb128 0x49
 6361 00ae 13       		.uleb128 0x13
GAS LISTING /tmp/ccttH9cH.s 			page 119


 6362 00af 00       		.byte	0
 6363 00b0 00       		.byte	0
 6364 00b1 0D       		.uleb128 0xd
 6365 00b2 1D       		.uleb128 0x1d
 6366 00b3 01       		.byte	0x1
 6367 00b4 31       		.uleb128 0x31
 6368 00b5 13       		.uleb128 0x13
 6369 00b6 52       		.uleb128 0x52
 6370 00b7 01       		.uleb128 0x1
 6371 00b8 B842     		.uleb128 0x2138
 6372 00ba 05       		.uleb128 0x5
 6373 00bb 11       		.uleb128 0x11
 6374 00bc 01       		.uleb128 0x1
 6375 00bd 12       		.uleb128 0x12
 6376 00be 06       		.uleb128 0x6
 6377 00bf 58       		.uleb128 0x58
 6378 00c0 21       		.uleb128 0x21
 6379 00c1 01       		.sleb128 1
 6380 00c2 59       		.uleb128 0x59
 6381 00c3 0B       		.uleb128 0xb
 6382 00c4 57       		.uleb128 0x57
 6383 00c5 0B       		.uleb128 0xb
 6384 00c6 01       		.uleb128 0x1
 6385 00c7 13       		.uleb128 0x13
 6386 00c8 00       		.byte	0
 6387 00c9 00       		.byte	0
 6388 00ca 0E       		.uleb128 0xe
 6389 00cb 0B       		.uleb128 0xb
 6390 00cc 01       		.byte	0x1
 6391 00cd 55       		.uleb128 0x55
 6392 00ce 17       		.uleb128 0x17
 6393 00cf 00       		.byte	0
 6394 00d0 00       		.byte	0
 6395 00d1 0F       		.uleb128 0xf
 6396 00d2 1D       		.uleb128 0x1d
 6397 00d3 01       		.byte	0x1
 6398 00d4 31       		.uleb128 0x31
 6399 00d5 13       		.uleb128 0x13
 6400 00d6 52       		.uleb128 0x52
 6401 00d7 01       		.uleb128 0x1
 6402 00d8 B842     		.uleb128 0x2138
 6403 00da 05       		.uleb128 0x5
 6404 00db 11       		.uleb128 0x11
 6405 00dc 01       		.uleb128 0x1
 6406 00dd 12       		.uleb128 0x12
 6407 00de 06       		.uleb128 0x6
 6408 00df 58       		.uleb128 0x58
 6409 00e0 21       		.uleb128 0x21
 6410 00e1 04       		.sleb128 4
 6411 00e2 59       		.uleb128 0x59
 6412 00e3 21       		.uleb128 0x21
 6413 00e4 AC01     		.sleb128 172
 6414 00e6 57       		.uleb128 0x57
 6415 00e7 21       		.uleb128 0x21
 6416 00e8 1E       		.sleb128 30
 6417 00e9 00       		.byte	0
 6418 00ea 00       		.byte	0
GAS LISTING /tmp/ccttH9cH.s 			page 120


 6419 00eb 10       		.uleb128 0x10
 6420 00ec 0D       		.uleb128 0xd
 6421 00ed 00       		.byte	0
 6422 00ee 03       		.uleb128 0x3
 6423 00ef 08       		.uleb128 0x8
 6424 00f0 3A       		.uleb128 0x3a
 6425 00f1 0B       		.uleb128 0xb
 6426 00f2 3B       		.uleb128 0x3b
 6427 00f3 0B       		.uleb128 0xb
 6428 00f4 39       		.uleb128 0x39
 6429 00f5 0B       		.uleb128 0xb
 6430 00f6 49       		.uleb128 0x49
 6431 00f7 13       		.uleb128 0x13
 6432 00f8 38       		.uleb128 0x38
 6433 00f9 0B       		.uleb128 0xb
 6434 00fa 00       		.byte	0
 6435 00fb 00       		.byte	0
 6436 00fc 11       		.uleb128 0x11
 6437 00fd 2E       		.uleb128 0x2e
 6438 00fe 01       		.byte	0x1
 6439 00ff 3F       		.uleb128 0x3f
 6440 0100 19       		.uleb128 0x19
 6441 0101 03       		.uleb128 0x3
 6442 0102 0E       		.uleb128 0xe
 6443 0103 3A       		.uleb128 0x3a
 6444 0104 21       		.uleb128 0x21
 6445 0105 04       		.sleb128 4
 6446 0106 3B       		.uleb128 0x3b
 6447 0107 0B       		.uleb128 0xb
 6448 0108 39       		.uleb128 0x39
 6449 0109 21       		.uleb128 0x21
 6450 010a 09       		.sleb128 9
 6451 010b 27       		.uleb128 0x27
 6452 010c 19       		.uleb128 0x19
 6453 010d 49       		.uleb128 0x49
 6454 010e 13       		.uleb128 0x13
 6455 010f 3C       		.uleb128 0x3c
 6456 0110 19       		.uleb128 0x19
 6457 0111 01       		.uleb128 0x1
 6458 0112 13       		.uleb128 0x13
 6459 0113 00       		.byte	0
 6460 0114 00       		.byte	0
 6461 0115 12       		.uleb128 0x12
 6462 0116 1D       		.uleb128 0x1d
 6463 0117 00       		.byte	0
 6464 0118 31       		.uleb128 0x31
 6465 0119 13       		.uleb128 0x13
 6466 011a 52       		.uleb128 0x52
 6467 011b 01       		.uleb128 0x1
 6468 011c B842     		.uleb128 0x2138
 6469 011e 05       		.uleb128 0x5
 6470 011f 11       		.uleb128 0x11
 6471 0120 01       		.uleb128 0x1
 6472 0121 12       		.uleb128 0x12
 6473 0122 06       		.uleb128 0x6
 6474 0123 58       		.uleb128 0x58
 6475 0124 21       		.uleb128 0x21
GAS LISTING /tmp/ccttH9cH.s 			page 121


 6476 0125 02       		.sleb128 2
 6477 0126 59       		.uleb128 0x59
 6478 0127 21       		.uleb128 0x21
 6479 0128 B203     		.sleb128 434
 6480 012a 57       		.uleb128 0x57
 6481 012b 21       		.uleb128 0x21
 6482 012c 03       		.sleb128 3
 6483 012d 00       		.byte	0
 6484 012e 00       		.byte	0
 6485 012f 13       		.uleb128 0x13
 6486 0130 34       		.uleb128 0x34
 6487 0131 00       		.byte	0
 6488 0132 31       		.uleb128 0x31
 6489 0133 13       		.uleb128 0x13
 6490 0134 00       		.byte	0
 6491 0135 00       		.byte	0
 6492 0136 14       		.uleb128 0x14
 6493 0137 13       		.uleb128 0x13
 6494 0138 01       		.byte	0x1
 6495 0139 0B       		.uleb128 0xb
 6496 013a 0B       		.uleb128 0xb
 6497 013b 3A       		.uleb128 0x3a
 6498 013c 0B       		.uleb128 0xb
 6499 013d 3B       		.uleb128 0x3b
 6500 013e 0B       		.uleb128 0xb
 6501 013f 39       		.uleb128 0x39
 6502 0140 21       		.uleb128 0x21
 6503 0141 09       		.sleb128 9
 6504 0142 01       		.uleb128 0x1
 6505 0143 13       		.uleb128 0x13
 6506 0144 00       		.byte	0
 6507 0145 00       		.byte	0
 6508 0146 15       		.uleb128 0x15
 6509 0147 15       		.uleb128 0x15
 6510 0148 01       		.byte	0x1
 6511 0149 27       		.uleb128 0x27
 6512 014a 19       		.uleb128 0x19
 6513 014b 49       		.uleb128 0x49
 6514 014c 13       		.uleb128 0x13
 6515 014d 01       		.uleb128 0x1
 6516 014e 13       		.uleb128 0x13
 6517 014f 00       		.byte	0
 6518 0150 00       		.byte	0
 6519 0151 16       		.uleb128 0x16
 6520 0152 2E       		.uleb128 0x2e
 6521 0153 00       		.byte	0
 6522 0154 03       		.uleb128 0x3
 6523 0155 0E       		.uleb128 0xe
 6524 0156 3A       		.uleb128 0x3a
 6525 0157 0B       		.uleb128 0xb
 6526 0158 3B       		.uleb128 0x3b
 6527 0159 05       		.uleb128 0x5
 6528 015a 39       		.uleb128 0x39
 6529 015b 21       		.uleb128 0x21
 6530 015c 14       		.sleb128 20
 6531 015d 27       		.uleb128 0x27
 6532 015e 19       		.uleb128 0x19
GAS LISTING /tmp/ccttH9cH.s 			page 122


 6533 015f 20       		.uleb128 0x20
 6534 0160 21       		.uleb128 0x21
 6535 0161 03       		.sleb128 3
 6536 0162 00       		.byte	0
 6537 0163 00       		.byte	0
 6538 0164 17       		.uleb128 0x17
 6539 0165 01       		.uleb128 0x1
 6540 0166 01       		.byte	0x1
 6541 0167 49       		.uleb128 0x49
 6542 0168 13       		.uleb128 0x13
 6543 0169 01       		.uleb128 0x1
 6544 016a 13       		.uleb128 0x13
 6545 016b 00       		.byte	0
 6546 016c 00       		.byte	0
 6547 016d 18       		.uleb128 0x18
 6548 016e 21       		.uleb128 0x21
 6549 016f 00       		.byte	0
 6550 0170 49       		.uleb128 0x49
 6551 0171 13       		.uleb128 0x13
 6552 0172 2F       		.uleb128 0x2f
 6553 0173 0B       		.uleb128 0xb
 6554 0174 00       		.byte	0
 6555 0175 00       		.byte	0
 6556 0176 19       		.uleb128 0x19
 6557 0177 1D       		.uleb128 0x1d
 6558 0178 01       		.byte	0x1
 6559 0179 31       		.uleb128 0x31
 6560 017a 13       		.uleb128 0x13
 6561 017b 52       		.uleb128 0x52
 6562 017c 01       		.uleb128 0x1
 6563 017d B842     		.uleb128 0x2138
 6564 017f 05       		.uleb128 0x5
 6565 0180 11       		.uleb128 0x11
 6566 0181 01       		.uleb128 0x1
 6567 0182 12       		.uleb128 0x12
 6568 0183 06       		.uleb128 0x6
 6569 0184 58       		.uleb128 0x58
 6570 0185 21       		.uleb128 0x21
 6571 0186 01       		.sleb128 1
 6572 0187 59       		.uleb128 0x59
 6573 0188 05       		.uleb128 0x5
 6574 0189 57       		.uleb128 0x57
 6575 018a 21       		.uleb128 0x21
 6576 018b 05       		.sleb128 5
 6577 018c 01       		.uleb128 0x1
 6578 018d 13       		.uleb128 0x13
 6579 018e 00       		.byte	0
 6580 018f 00       		.byte	0
 6581 0190 1A       		.uleb128 0x1a
 6582 0191 34       		.uleb128 0x34
 6583 0192 00       		.byte	0
 6584 0193 03       		.uleb128 0x3
 6585 0194 0E       		.uleb128 0xe
 6586 0195 3A       		.uleb128 0x3a
 6587 0196 21       		.uleb128 0x21
 6588 0197 01       		.sleb128 1
 6589 0198 3B       		.uleb128 0x3b
GAS LISTING /tmp/ccttH9cH.s 			page 123


 6590 0199 0B       		.uleb128 0xb
 6591 019a 39       		.uleb128 0x39
 6592 019b 0B       		.uleb128 0xb
 6593 019c 49       		.uleb128 0x49
 6594 019d 13       		.uleb128 0x13
 6595 019e 00       		.byte	0
 6596 019f 00       		.byte	0
 6597 01a0 1B       		.uleb128 0x1b
 6598 01a1 05       		.uleb128 0x5
 6599 01a2 00       		.byte	0
 6600 01a3 03       		.uleb128 0x3
 6601 01a4 08       		.uleb128 0x8
 6602 01a5 3A       		.uleb128 0x3a
 6603 01a6 21       		.uleb128 0x21
 6604 01a7 04       		.sleb128 4
 6605 01a8 3B       		.uleb128 0x3b
 6606 01a9 0B       		.uleb128 0xb
 6607 01aa 39       		.uleb128 0x39
 6608 01ab 0B       		.uleb128 0xb
 6609 01ac 49       		.uleb128 0x49
 6610 01ad 13       		.uleb128 0x13
 6611 01ae 00       		.byte	0
 6612 01af 00       		.byte	0
 6613 01b0 1C       		.uleb128 0x1c
 6614 01b1 2E       		.uleb128 0x2e
 6615 01b2 01       		.byte	0x1
 6616 01b3 31       		.uleb128 0x31
 6617 01b4 13       		.uleb128 0x13
 6618 01b5 11       		.uleb128 0x11
 6619 01b6 01       		.uleb128 0x1
 6620 01b7 12       		.uleb128 0x12
 6621 01b8 06       		.uleb128 0x6
 6622 01b9 40       		.uleb128 0x40
 6623 01ba 18       		.uleb128 0x18
 6624 01bb 7A       		.uleb128 0x7a
 6625 01bc 19       		.uleb128 0x19
 6626 01bd 01       		.uleb128 0x1
 6627 01be 13       		.uleb128 0x13
 6628 01bf 00       		.byte	0
 6629 01c0 00       		.byte	0
 6630 01c1 1D       		.uleb128 0x1d
 6631 01c2 34       		.uleb128 0x34
 6632 01c3 00       		.byte	0
 6633 01c4 31       		.uleb128 0x31
 6634 01c5 13       		.uleb128 0x13
 6635 01c6 02       		.uleb128 0x2
 6636 01c7 17       		.uleb128 0x17
 6637 01c8 B742     		.uleb128 0x2137
 6638 01ca 17       		.uleb128 0x17
 6639 01cb 00       		.byte	0
 6640 01cc 00       		.byte	0
 6641 01cd 1E       		.uleb128 0x1e
 6642 01ce 1D       		.uleb128 0x1d
 6643 01cf 01       		.byte	0x1
 6644 01d0 31       		.uleb128 0x31
 6645 01d1 13       		.uleb128 0x13
 6646 01d2 52       		.uleb128 0x52
GAS LISTING /tmp/ccttH9cH.s 			page 124


 6647 01d3 01       		.uleb128 0x1
 6648 01d4 B842     		.uleb128 0x2138
 6649 01d6 05       		.uleb128 0x5
 6650 01d7 11       		.uleb128 0x11
 6651 01d8 01       		.uleb128 0x1
 6652 01d9 12       		.uleb128 0x12
 6653 01da 06       		.uleb128 0x6
 6654 01db 58       		.uleb128 0x58
 6655 01dc 21       		.uleb128 0x21
 6656 01dd 05       		.sleb128 5
 6657 01de 59       		.uleb128 0x59
 6658 01df 21       		.uleb128 0x21
 6659 01e0 CA04     		.sleb128 586
 6660 01e2 57       		.uleb128 0x57
 6661 01e3 21       		.uleb128 0x21
 6662 01e4 03       		.sleb128 3
 6663 01e5 00       		.byte	0
 6664 01e6 00       		.byte	0
 6665 01e7 1F       		.uleb128 0x1f
 6666 01e8 13       		.uleb128 0x13
 6667 01e9 01       		.byte	0x1
 6668 01ea 03       		.uleb128 0x3
 6669 01eb 0E       		.uleb128 0xe
 6670 01ec 0B       		.uleb128 0xb
 6671 01ed 0B       		.uleb128 0xb
 6672 01ee 3A       		.uleb128 0x3a
 6673 01ef 0B       		.uleb128 0xb
 6674 01f0 3B       		.uleb128 0x3b
 6675 01f1 0B       		.uleb128 0xb
 6676 01f2 39       		.uleb128 0x39
 6677 01f3 0B       		.uleb128 0xb
 6678 01f4 01       		.uleb128 0x1
 6679 01f5 13       		.uleb128 0x13
 6680 01f6 00       		.byte	0
 6681 01f7 00       		.byte	0
 6682 01f8 20       		.uleb128 0x20
 6683 01f9 34       		.uleb128 0x34
 6684 01fa 00       		.byte	0
 6685 01fb 03       		.uleb128 0x3
 6686 01fc 0E       		.uleb128 0xe
 6687 01fd 3A       		.uleb128 0x3a
 6688 01fe 21       		.uleb128 0x21
 6689 01ff 01       		.sleb128 1
 6690 0200 3B       		.uleb128 0x3b
 6691 0201 05       		.uleb128 0x5
 6692 0202 39       		.uleb128 0x39
 6693 0203 0B       		.uleb128 0xb
 6694 0204 49       		.uleb128 0x49
 6695 0205 13       		.uleb128 0x13
 6696 0206 02       		.uleb128 0x2
 6697 0207 18       		.uleb128 0x18
 6698 0208 00       		.byte	0
 6699 0209 00       		.byte	0
 6700 020a 21       		.uleb128 0x21
 6701 020b 2E       		.uleb128 0x2e
 6702 020c 01       		.byte	0x1
 6703 020d 3F       		.uleb128 0x3f
GAS LISTING /tmp/ccttH9cH.s 			page 125


 6704 020e 19       		.uleb128 0x19
 6705 020f 03       		.uleb128 0x3
 6706 0210 0E       		.uleb128 0xe
 6707 0211 3A       		.uleb128 0x3a
 6708 0212 21       		.uleb128 0x21
 6709 0213 04       		.sleb128 4
 6710 0214 3B       		.uleb128 0x3b
 6711 0215 0B       		.uleb128 0xb
 6712 0216 39       		.uleb128 0x39
 6713 0217 21       		.uleb128 0x21
 6714 0218 08       		.sleb128 8
 6715 0219 27       		.uleb128 0x27
 6716 021a 19       		.uleb128 0x19
 6717 021b 3C       		.uleb128 0x3c
 6718 021c 19       		.uleb128 0x19
 6719 021d 01       		.uleb128 0x1
 6720 021e 13       		.uleb128 0x13
 6721 021f 00       		.byte	0
 6722 0220 00       		.byte	0
 6723 0221 22       		.uleb128 0x22
 6724 0222 2E       		.uleb128 0x2e
 6725 0223 01       		.byte	0x1
 6726 0224 03       		.uleb128 0x3
 6727 0225 0E       		.uleb128 0xe
 6728 0226 3A       		.uleb128 0x3a
 6729 0227 0B       		.uleb128 0xb
 6730 0228 3B       		.uleb128 0x3b
 6731 0229 0B       		.uleb128 0xb
 6732 022a 39       		.uleb128 0x39
 6733 022b 0B       		.uleb128 0xb
 6734 022c 27       		.uleb128 0x27
 6735 022d 19       		.uleb128 0x19
 6736 022e 20       		.uleb128 0x20
 6737 022f 0B       		.uleb128 0xb
 6738 0230 01       		.uleb128 0x1
 6739 0231 13       		.uleb128 0x13
 6740 0232 00       		.byte	0
 6741 0233 00       		.byte	0
 6742 0234 23       		.uleb128 0x23
 6743 0235 2E       		.uleb128 0x2e
 6744 0236 01       		.byte	0x1
 6745 0237 03       		.uleb128 0x3
 6746 0238 0E       		.uleb128 0xe
 6747 0239 3A       		.uleb128 0x3a
 6748 023a 21       		.uleb128 0x21
 6749 023b 04       		.sleb128 4
 6750 023c 3B       		.uleb128 0x3b
 6751 023d 0B       		.uleb128 0xb
 6752 023e 39       		.uleb128 0x39
 6753 023f 21       		.uleb128 0x21
 6754 0240 16       		.sleb128 22
 6755 0241 27       		.uleb128 0x27
 6756 0242 19       		.uleb128 0x19
 6757 0243 49       		.uleb128 0x49
 6758 0244 13       		.uleb128 0x13
 6759 0245 20       		.uleb128 0x20
 6760 0246 21       		.uleb128 0x21
GAS LISTING /tmp/ccttH9cH.s 			page 126


 6761 0247 03       		.sleb128 3
 6762 0248 01       		.uleb128 0x1
 6763 0249 13       		.uleb128 0x13
 6764 024a 00       		.byte	0
 6765 024b 00       		.byte	0
 6766 024c 24       		.uleb128 0x24
 6767 024d 34       		.uleb128 0x34
 6768 024e 00       		.byte	0
 6769 024f 03       		.uleb128 0x3
 6770 0250 0E       		.uleb128 0xe
 6771 0251 3A       		.uleb128 0x3a
 6772 0252 0B       		.uleb128 0xb
 6773 0253 3B       		.uleb128 0x3b
 6774 0254 05       		.uleb128 0x5
 6775 0255 39       		.uleb128 0x39
 6776 0256 0B       		.uleb128 0xb
 6777 0257 49       		.uleb128 0x49
 6778 0258 13       		.uleb128 0x13
 6779 0259 3F       		.uleb128 0x3f
 6780 025a 19       		.uleb128 0x19
 6781 025b 3C       		.uleb128 0x3c
 6782 025c 19       		.uleb128 0x19
 6783 025d 00       		.byte	0
 6784 025e 00       		.byte	0
 6785 025f 25       		.uleb128 0x25
 6786 0260 34       		.uleb128 0x34
 6787 0261 00       		.byte	0
 6788 0262 03       		.uleb128 0x3
 6789 0263 0E       		.uleb128 0xe
 6790 0264 3A       		.uleb128 0x3a
 6791 0265 21       		.uleb128 0x21
 6792 0266 01       		.sleb128 1
 6793 0267 3B       		.uleb128 0x3b
 6794 0268 0B       		.uleb128 0xb
 6795 0269 39       		.uleb128 0x39
 6796 026a 0B       		.uleb128 0xb
 6797 026b 49       		.uleb128 0x49
 6798 026c 13       		.uleb128 0x13
 6799 026d 02       		.uleb128 0x2
 6800 026e 18       		.uleb128 0x18
 6801 026f 00       		.byte	0
 6802 0270 00       		.byte	0
 6803 0271 26       		.uleb128 0x26
 6804 0272 2E       		.uleb128 0x2e
 6805 0273 01       		.byte	0x1
 6806 0274 3F       		.uleb128 0x3f
 6807 0275 19       		.uleb128 0x19
 6808 0276 03       		.uleb128 0x3
 6809 0277 0E       		.uleb128 0xe
 6810 0278 3A       		.uleb128 0x3a
 6811 0279 21       		.uleb128 0x21
 6812 027a 0F       		.sleb128 15
 6813 027b 3B       		.uleb128 0x3b
 6814 027c 05       		.uleb128 0x5
 6815 027d 39       		.uleb128 0x39
 6816 027e 21       		.uleb128 0x21
 6817 027f 08       		.sleb128 8
GAS LISTING /tmp/ccttH9cH.s 			page 127


 6818 0280 27       		.uleb128 0x27
 6819 0281 19       		.uleb128 0x19
 6820 0282 49       		.uleb128 0x49
 6821 0283 13       		.uleb128 0x13
 6822 0284 3C       		.uleb128 0x3c
 6823 0285 19       		.uleb128 0x19
 6824 0286 01       		.uleb128 0x1
 6825 0287 13       		.uleb128 0x13
 6826 0288 00       		.byte	0
 6827 0289 00       		.byte	0
 6828 028a 27       		.uleb128 0x27
 6829 028b 2E       		.uleb128 0x2e
 6830 028c 00       		.byte	0
 6831 028d 03       		.uleb128 0x3
 6832 028e 0E       		.uleb128 0xe
 6833 028f 3A       		.uleb128 0x3a
 6834 0290 21       		.uleb128 0x21
 6835 0291 01       		.sleb128 1
 6836 0292 3B       		.uleb128 0x3b
 6837 0293 05       		.uleb128 0x5
 6838 0294 39       		.uleb128 0x39
 6839 0295 21       		.uleb128 0x21
 6840 0296 0D       		.sleb128 13
 6841 0297 27       		.uleb128 0x27
 6842 0298 19       		.uleb128 0x19
 6843 0299 00       		.byte	0
 6844 029a 00       		.byte	0
 6845 029b 28       		.uleb128 0x28
 6846 029c 34       		.uleb128 0x34
 6847 029d 00       		.byte	0
 6848 029e 03       		.uleb128 0x3
 6849 029f 08       		.uleb128 0x8
 6850 02a0 3A       		.uleb128 0x3a
 6851 02a1 21       		.uleb128 0x21
 6852 02a2 01       		.sleb128 1
 6853 02a3 3B       		.uleb128 0x3b
 6854 02a4 0B       		.uleb128 0xb
 6855 02a5 39       		.uleb128 0x39
 6856 02a6 21       		.uleb128 0x21
 6857 02a7 0C       		.sleb128 12
 6858 02a8 49       		.uleb128 0x49
 6859 02a9 13       		.uleb128 0x13
 6860 02aa 00       		.byte	0
 6861 02ab 00       		.byte	0
 6862 02ac 29       		.uleb128 0x29
 6863 02ad 2E       		.uleb128 0x2e
 6864 02ae 00       		.byte	0
 6865 02af 03       		.uleb128 0x3
 6866 02b0 0E       		.uleb128 0xe
 6867 02b1 3A       		.uleb128 0x3a
 6868 02b2 21       		.uleb128 0x21
 6869 02b3 01       		.sleb128 1
 6870 02b4 3B       		.uleb128 0x3b
 6871 02b5 0B       		.uleb128 0xb
 6872 02b6 39       		.uleb128 0x39
 6873 02b7 21       		.uleb128 0x21
 6874 02b8 0D       		.sleb128 13
GAS LISTING /tmp/ccttH9cH.s 			page 128


 6875 02b9 27       		.uleb128 0x27
 6876 02ba 19       		.uleb128 0x19
 6877 02bb 00       		.byte	0
 6878 02bc 00       		.byte	0
 6879 02bd 2A       		.uleb128 0x2a
 6880 02be 2E       		.uleb128 0x2e
 6881 02bf 00       		.byte	0
 6882 02c0 03       		.uleb128 0x3
 6883 02c1 0E       		.uleb128 0xe
 6884 02c2 3A       		.uleb128 0x3a
 6885 02c3 21       		.uleb128 0x21
 6886 02c4 01       		.sleb128 1
 6887 02c5 3B       		.uleb128 0x3b
 6888 02c6 0B       		.uleb128 0xb
 6889 02c7 39       		.uleb128 0x39
 6890 02c8 21       		.uleb128 0x21
 6891 02c9 0D       		.sleb128 13
 6892 02ca 27       		.uleb128 0x27
 6893 02cb 19       		.uleb128 0x19
 6894 02cc 20       		.uleb128 0x20
 6895 02cd 21       		.uleb128 0x21
 6896 02ce 01       		.sleb128 1
 6897 02cf 00       		.byte	0
 6898 02d0 00       		.byte	0
 6899 02d1 2B       		.uleb128 0x2b
 6900 02d2 34       		.uleb128 0x34
 6901 02d3 00       		.byte	0
 6902 02d4 31       		.uleb128 0x31
 6903 02d5 13       		.uleb128 0x13
 6904 02d6 02       		.uleb128 0x2
 6905 02d7 18       		.uleb128 0x18
 6906 02d8 00       		.byte	0
 6907 02d9 00       		.byte	0
 6908 02da 2C       		.uleb128 0x2c
 6909 02db 11       		.uleb128 0x11
 6910 02dc 01       		.byte	0x1
 6911 02dd 25       		.uleb128 0x25
 6912 02de 0E       		.uleb128 0xe
 6913 02df 13       		.uleb128 0x13
 6914 02e0 0B       		.uleb128 0xb
 6915 02e1 03       		.uleb128 0x3
 6916 02e2 1F       		.uleb128 0x1f
 6917 02e3 1B       		.uleb128 0x1b
 6918 02e4 1F       		.uleb128 0x1f
 6919 02e5 55       		.uleb128 0x55
 6920 02e6 17       		.uleb128 0x17
 6921 02e7 11       		.uleb128 0x11
 6922 02e8 01       		.uleb128 0x1
 6923 02e9 10       		.uleb128 0x10
 6924 02ea 17       		.uleb128 0x17
 6925 02eb 00       		.byte	0
 6926 02ec 00       		.byte	0
 6927 02ed 2D       		.uleb128 0x2d
 6928 02ee 24       		.uleb128 0x24
 6929 02ef 00       		.byte	0
 6930 02f0 0B       		.uleb128 0xb
 6931 02f1 0B       		.uleb128 0xb
GAS LISTING /tmp/ccttH9cH.s 			page 129


 6932 02f2 3E       		.uleb128 0x3e
 6933 02f3 0B       		.uleb128 0xb
 6934 02f4 03       		.uleb128 0x3
 6935 02f5 08       		.uleb128 0x8
 6936 02f6 00       		.byte	0
 6937 02f7 00       		.byte	0
 6938 02f8 2E       		.uleb128 0x2e
 6939 02f9 0F       		.uleb128 0xf
 6940 02fa 00       		.byte	0
 6941 02fb 0B       		.uleb128 0xb
 6942 02fc 0B       		.uleb128 0xb
 6943 02fd 00       		.byte	0
 6944 02fe 00       		.byte	0
 6945 02ff 2F       		.uleb128 0x2f
 6946 0300 15       		.uleb128 0x15
 6947 0301 00       		.byte	0
 6948 0302 27       		.uleb128 0x27
 6949 0303 19       		.uleb128 0x19
 6950 0304 00       		.byte	0
 6951 0305 00       		.byte	0
 6952 0306 30       		.uleb128 0x30
 6953 0307 34       		.uleb128 0x34
 6954 0308 00       		.byte	0
 6955 0309 03       		.uleb128 0x3
 6956 030a 0E       		.uleb128 0xe
 6957 030b 3A       		.uleb128 0x3a
 6958 030c 0B       		.uleb128 0xb
 6959 030d 3B       		.uleb128 0x3b
 6960 030e 0B       		.uleb128 0xb
 6961 030f 39       		.uleb128 0x39
 6962 0310 0B       		.uleb128 0xb
 6963 0311 49       		.uleb128 0x49
 6964 0312 13       		.uleb128 0x13
 6965 0313 3F       		.uleb128 0x3f
 6966 0314 19       		.uleb128 0x19
 6967 0315 3C       		.uleb128 0x3c
 6968 0316 19       		.uleb128 0x19
 6969 0317 00       		.byte	0
 6970 0318 00       		.byte	0
 6971 0319 31       		.uleb128 0x31
 6972 031a 34       		.uleb128 0x34
 6973 031b 00       		.byte	0
 6974 031c 03       		.uleb128 0x3
 6975 031d 08       		.uleb128 0x8
 6976 031e 3A       		.uleb128 0x3a
 6977 031f 0B       		.uleb128 0xb
 6978 0320 3B       		.uleb128 0x3b
 6979 0321 0B       		.uleb128 0xb
 6980 0322 39       		.uleb128 0x39
 6981 0323 0B       		.uleb128 0xb
 6982 0324 49       		.uleb128 0x49
 6983 0325 13       		.uleb128 0x13
 6984 0326 02       		.uleb128 0x2
 6985 0327 18       		.uleb128 0x18
 6986 0328 00       		.byte	0
 6987 0329 00       		.byte	0
 6988 032a 32       		.uleb128 0x32
GAS LISTING /tmp/ccttH9cH.s 			page 130


 6989 032b 34       		.uleb128 0x34
 6990 032c 00       		.byte	0
 6991 032d 03       		.uleb128 0x3
 6992 032e 0E       		.uleb128 0xe
 6993 032f 3A       		.uleb128 0x3a
 6994 0330 0B       		.uleb128 0xb
 6995 0331 3B       		.uleb128 0x3b
 6996 0332 05       		.uleb128 0x5
 6997 0333 39       		.uleb128 0x39
 6998 0334 0B       		.uleb128 0xb
 6999 0335 49       		.uleb128 0x49
 7000 0336 13       		.uleb128 0x13
 7001 0337 3F       		.uleb128 0x3f
 7002 0338 19       		.uleb128 0x19
 7003 0339 02       		.uleb128 0x2
 7004 033a 18       		.uleb128 0x18
 7005 033b 00       		.byte	0
 7006 033c 00       		.byte	0
 7007 033d 33       		.uleb128 0x33
 7008 033e 34       		.uleb128 0x34
 7009 033f 00       		.byte	0
 7010 0340 47       		.uleb128 0x47
 7011 0341 13       		.uleb128 0x13
 7012 0342 3A       		.uleb128 0x3a
 7013 0343 0B       		.uleb128 0xb
 7014 0344 3B       		.uleb128 0x3b
 7015 0345 05       		.uleb128 0x5
 7016 0346 39       		.uleb128 0x39
 7017 0347 0B       		.uleb128 0xb
 7018 0348 02       		.uleb128 0x2
 7019 0349 18       		.uleb128 0x18
 7020 034a 00       		.byte	0
 7021 034b 00       		.byte	0
 7022 034c 34       		.uleb128 0x34
 7023 034d 2E       		.uleb128 0x2e
 7024 034e 01       		.byte	0x1
 7025 034f 3F       		.uleb128 0x3f
 7026 0350 19       		.uleb128 0x19
 7027 0351 03       		.uleb128 0x3
 7028 0352 0E       		.uleb128 0xe
 7029 0353 3A       		.uleb128 0x3a
 7030 0354 0B       		.uleb128 0xb
 7031 0355 3B       		.uleb128 0x3b
 7032 0356 05       		.uleb128 0x5
 7033 0357 39       		.uleb128 0x39
 7034 0358 0B       		.uleb128 0xb
 7035 0359 27       		.uleb128 0x27
 7036 035a 19       		.uleb128 0x19
 7037 035b 3C       		.uleb128 0x3c
 7038 035c 19       		.uleb128 0x19
 7039 035d 01       		.uleb128 0x1
 7040 035e 13       		.uleb128 0x13
 7041 035f 00       		.byte	0
 7042 0360 00       		.byte	0
 7043 0361 35       		.uleb128 0x35
 7044 0362 2E       		.uleb128 0x2e
 7045 0363 01       		.byte	0x1
GAS LISTING /tmp/ccttH9cH.s 			page 131


 7046 0364 03       		.uleb128 0x3
 7047 0365 0E       		.uleb128 0xe
 7048 0366 3A       		.uleb128 0x3a
 7049 0367 0B       		.uleb128 0xb
 7050 0368 3B       		.uleb128 0x3b
 7051 0369 05       		.uleb128 0x5
 7052 036a 39       		.uleb128 0x39
 7053 036b 0B       		.uleb128 0xb
 7054 036c 27       		.uleb128 0x27
 7055 036d 19       		.uleb128 0x19
 7056 036e 11       		.uleb128 0x11
 7057 036f 01       		.uleb128 0x1
 7058 0370 12       		.uleb128 0x12
 7059 0371 06       		.uleb128 0x6
 7060 0372 40       		.uleb128 0x40
 7061 0373 18       		.uleb128 0x18
 7062 0374 7A       		.uleb128 0x7a
 7063 0375 19       		.uleb128 0x19
 7064 0376 01       		.uleb128 0x1
 7065 0377 13       		.uleb128 0x13
 7066 0378 00       		.byte	0
 7067 0379 00       		.byte	0
 7068 037a 36       		.uleb128 0x36
 7069 037b 34       		.uleb128 0x34
 7070 037c 00       		.byte	0
 7071 037d 03       		.uleb128 0x3
 7072 037e 0E       		.uleb128 0xe
 7073 037f 3A       		.uleb128 0x3a
 7074 0380 0B       		.uleb128 0xb
 7075 0381 3B       		.uleb128 0x3b
 7076 0382 05       		.uleb128 0x5
 7077 0383 39       		.uleb128 0x39
 7078 0384 0B       		.uleb128 0xb
 7079 0385 49       		.uleb128 0x49
 7080 0386 13       		.uleb128 0x13
 7081 0387 02       		.uleb128 0x2
 7082 0388 17       		.uleb128 0x17
 7083 0389 B742     		.uleb128 0x2137
 7084 038b 17       		.uleb128 0x17
 7085 038c 00       		.byte	0
 7086 038d 00       		.byte	0
 7087 038e 37       		.uleb128 0x37
 7088 038f 34       		.uleb128 0x34
 7089 0390 00       		.byte	0
 7090 0391 03       		.uleb128 0x3
 7091 0392 08       		.uleb128 0x8
 7092 0393 3A       		.uleb128 0x3a
 7093 0394 0B       		.uleb128 0xb
 7094 0395 3B       		.uleb128 0x3b
 7095 0396 05       		.uleb128 0x5
 7096 0397 39       		.uleb128 0x39
 7097 0398 0B       		.uleb128 0xb
 7098 0399 49       		.uleb128 0x49
 7099 039a 13       		.uleb128 0x13
 7100 039b 02       		.uleb128 0x2
 7101 039c 17       		.uleb128 0x17
 7102 039d B742     		.uleb128 0x2137
GAS LISTING /tmp/ccttH9cH.s 			page 132


 7103 039f 17       		.uleb128 0x17
 7104 03a0 00       		.byte	0
 7105 03a1 00       		.byte	0
 7106 03a2 38       		.uleb128 0x38
 7107 03a3 2E       		.uleb128 0x2e
 7108 03a4 01       		.byte	0x1
 7109 03a5 03       		.uleb128 0x3
 7110 03a6 0E       		.uleb128 0xe
 7111 03a7 3A       		.uleb128 0x3a
 7112 03a8 0B       		.uleb128 0xb
 7113 03a9 3B       		.uleb128 0x3b
 7114 03aa 05       		.uleb128 0x5
 7115 03ab 39       		.uleb128 0x39
 7116 03ac 0B       		.uleb128 0xb
 7117 03ad 27       		.uleb128 0x27
 7118 03ae 19       		.uleb128 0x19
 7119 03af 20       		.uleb128 0x20
 7120 03b0 0B       		.uleb128 0xb
 7121 03b1 01       		.uleb128 0x1
 7122 03b2 13       		.uleb128 0x13
 7123 03b3 00       		.byte	0
 7124 03b4 00       		.byte	0
 7125 03b5 39       		.uleb128 0x39
 7126 03b6 34       		.uleb128 0x34
 7127 03b7 00       		.byte	0
 7128 03b8 03       		.uleb128 0x3
 7129 03b9 0E       		.uleb128 0xe
 7130 03ba 49       		.uleb128 0x49
 7131 03bb 13       		.uleb128 0x13
 7132 03bc 34       		.uleb128 0x34
 7133 03bd 19       		.uleb128 0x19
 7134 03be 00       		.byte	0
 7135 03bf 00       		.byte	0
 7136 03c0 3A       		.uleb128 0x3a
 7137 03c1 1D       		.uleb128 0x1d
 7138 03c2 01       		.byte	0x1
 7139 03c3 31       		.uleb128 0x31
 7140 03c4 13       		.uleb128 0x13
 7141 03c5 11       		.uleb128 0x11
 7142 03c6 01       		.uleb128 0x1
 7143 03c7 12       		.uleb128 0x12
 7144 03c8 06       		.uleb128 0x6
 7145 03c9 58       		.uleb128 0x58
 7146 03ca 0B       		.uleb128 0xb
 7147 03cb 59       		.uleb128 0x59
 7148 03cc 0B       		.uleb128 0xb
 7149 03cd 57       		.uleb128 0x57
 7150 03ce 0B       		.uleb128 0xb
 7151 03cf 01       		.uleb128 0x1
 7152 03d0 13       		.uleb128 0x13
 7153 03d1 00       		.byte	0
 7154 03d2 00       		.byte	0
 7155 03d3 3B       		.uleb128 0x3b
 7156 03d4 1D       		.uleb128 0x1d
 7157 03d5 01       		.byte	0x1
 7158 03d6 31       		.uleb128 0x31
 7159 03d7 13       		.uleb128 0x13
GAS LISTING /tmp/ccttH9cH.s 			page 133


 7160 03d8 11       		.uleb128 0x11
 7161 03d9 01       		.uleb128 0x1
 7162 03da 12       		.uleb128 0x12
 7163 03db 06       		.uleb128 0x6
 7164 03dc 58       		.uleb128 0x58
 7165 03dd 0B       		.uleb128 0xb
 7166 03de 59       		.uleb128 0x59
 7167 03df 05       		.uleb128 0x5
 7168 03e0 57       		.uleb128 0x57
 7169 03e1 0B       		.uleb128 0xb
 7170 03e2 00       		.byte	0
 7171 03e3 00       		.byte	0
 7172 03e4 3C       		.uleb128 0x3c
 7173 03e5 1D       		.uleb128 0x1d
 7174 03e6 00       		.byte	0
 7175 03e7 31       		.uleb128 0x31
 7176 03e8 13       		.uleb128 0x13
 7177 03e9 11       		.uleb128 0x11
 7178 03ea 01       		.uleb128 0x1
 7179 03eb 12       		.uleb128 0x12
 7180 03ec 06       		.uleb128 0x6
 7181 03ed 58       		.uleb128 0x58
 7182 03ee 0B       		.uleb128 0xb
 7183 03ef 59       		.uleb128 0x59
 7184 03f0 05       		.uleb128 0x5
 7185 03f1 57       		.uleb128 0x57
 7186 03f2 0B       		.uleb128 0xb
 7187 03f3 00       		.byte	0
 7188 03f4 00       		.byte	0
 7189 03f5 3D       		.uleb128 0x3d
 7190 03f6 2E       		.uleb128 0x2e
 7191 03f7 00       		.byte	0
 7192 03f8 3F       		.uleb128 0x3f
 7193 03f9 19       		.uleb128 0x19
 7194 03fa 3C       		.uleb128 0x3c
 7195 03fb 19       		.uleb128 0x19
 7196 03fc 6E       		.uleb128 0x6e
 7197 03fd 0E       		.uleb128 0xe
 7198 03fe 03       		.uleb128 0x3
 7199 03ff 0E       		.uleb128 0xe
 7200 0400 00       		.byte	0
 7201 0401 00       		.byte	0
 7202 0402 00       		.byte	0
 7203              		.section	.debug_loclists,"",@progbits
 7204 0000 A0030000 		.long	.Ldebug_loc3-.Ldebug_loc2
 7205              	.Ldebug_loc2:
 7206 0004 0500     		.value	0x5
 7207 0006 04       		.byte	0x4
 7208 0007 00       		.byte	0
 7209 0008 00000000 		.long	0
 7210              	.Ldebug_loc0:
 7211              	.LVUS0:
 7212 000c 00       		.uleb128 .LVU13
 7213 000d 00       		.uleb128 .LVU14
 7214 000e 00       		.uleb128 .LVU26
 7215 000f 00       		.uleb128 .LVU28
 7216 0010 00       		.uleb128 .LVU43
GAS LISTING /tmp/ccttH9cH.s 			page 134


 7217 0011 00       		.uleb128 .LVU55
 7218 0012 00       		.uleb128 .LVU59
 7219 0013 00       		.uleb128 .LVU60
 7220 0014 00       		.uleb128 .LVU73
 7221 0015 00       		.uleb128 .LVU85
 7222 0016 00       		.uleb128 .LVU106
 7223 0017 00       		.uleb128 .LVU107
 7224 0018 00       		.uleb128 .LVU121
 7225 0019 00       		.uleb128 .LVU133
 7226              	.LLST0:
 7227 001a 06       		.byte	0x6
 7228 001b 49000000 		.long	.LVL2
 7229 001f 04       		.byte	0x4
 7230 0020 00       		.uleb128 .LVL2-.LVL2
 7231 0021 08       		.uleb128 .LVL3-.LVL2
 7232 0022 01       		.uleb128 0x1
 7233 0023 50       		.byte	0x50
 7234 0024 04       		.byte	0x4
 7235 0025 37       		.uleb128 .LVL7-.LVL2
 7236 0026 40       		.uleb128 .LVL9-.LVL2
 7237 0027 01       		.uleb128 0x1
 7238 0028 50       		.byte	0x50
 7239 0029 04       		.byte	0x4
 7240 002a 8B01     		.uleb128 .LVL11-.LVL2
 7241 002c 9B01     		.uleb128 .LVL12-.LVL2
 7242 002e 01       		.uleb128 0x1
 7243 002f 50       		.byte	0x50
 7244 0030 04       		.byte	0x4
 7245 0031 B801     		.uleb128 .LVL14-.LVL2
 7246 0033 C101     		.uleb128 .LVL15-.LVL2
 7247 0035 01       		.uleb128 0x1
 7248 0036 50       		.byte	0x50
 7249 0037 04       		.byte	0x4
 7250 0038 E701     		.uleb128 .LVL17-.LVL2
 7251 003a F701     		.uleb128 .LVL18-.LVL2
 7252 003c 01       		.uleb128 0x1
 7253 003d 50       		.byte	0x50
 7254 003e 04       		.byte	0x4
 7255 003f BD02     		.uleb128 .LVL22-.LVL2
 7256 0041 C602     		.uleb128 .LVL23-.LVL2
 7257 0043 01       		.uleb128 0x1
 7258 0044 50       		.byte	0x50
 7259 0045 04       		.byte	0x4
 7260 0046 EE02     		.uleb128 .LVL25-.LVL2
 7261 0048 F802     		.uleb128 .LVL26-.LVL2
 7262 004a 01       		.uleb128 0x1
 7263 004b 50       		.byte	0x50
 7264 004c 00       		.byte	0
 7265              	.LVUS1:
 7266 004d 01       		.uleb128 .LVU10
 7267 004e 02       		.uleb128 .LVU11
 7268 004f 02       		.uleb128 .LVU11
 7269 0050 02       		.uleb128 .LVU17
 7270 0051 02       		.uleb128 .LVU17
 7271 0052 00       		.uleb128 .LVU18
 7272 0053 00       		.uleb128 .LVU18
 7273 0054 00       		.uleb128 .LVU27
GAS LISTING /tmp/ccttH9cH.s 			page 135


 7274              	.LLST1:
 7275 0055 06       		.byte	0x6
 7276 0056 3D000000 		.long	.LVL1
 7277 005a 04       		.byte	0x4
 7278 005b 00       		.uleb128 .LVL1-.LVL1
 7279 005c 00       		.uleb128 .LVL1-.LVL1
 7280 005d 02       		.uleb128 0x2
 7281 005e 30       		.byte	0x30
 7282 005f 9F       		.byte	0x9f
 7283 0060 04       		.byte	0x4
 7284 0061 00       		.uleb128 .LVL1-.LVL1
 7285 0062 24       		.uleb128 .LVL5-.LVL1
 7286 0063 04       		.uleb128 0x4
 7287 0064 75       		.byte	0x75
 7288 0065 BE7F     		.sleb128 -66
 7289 0067 9F       		.byte	0x9f
 7290 0068 04       		.byte	0x4
 7291 0069 24       		.uleb128 .LVL5-.LVL1
 7292 006a 27       		.uleb128 .LVL6-.LVL1
 7293 006b 04       		.uleb128 0x4
 7294 006c 75       		.byte	0x75
 7295 006d BF7F     		.sleb128 -65
 7296 006f 9F       		.byte	0x9f
 7297 0070 04       		.byte	0x4
 7298 0071 27       		.uleb128 .LVL6-.LVL1
 7299 0072 45       		.uleb128 .LVL8-.LVL1
 7300 0073 04       		.uleb128 0x4
 7301 0074 75       		.byte	0x75
 7302 0075 BE7F     		.sleb128 -66
 7303 0077 9F       		.byte	0x9f
 7304 0078 00       		.byte	0
 7305              	.LVUS5:
 7306 0079 01       		.uleb128 .LVU94
 7307 007a 00       		.uleb128 .LVU100
 7308              	.LLST5:
 7309 007b 08       		.byte	0x8
 7310 007c 68010000 		.long	.LVL20
 7311 0080 13       		.uleb128 .LVL21-.LVL20
 7312 0081 06       		.uleb128 0x6
 7313 0082 03       		.byte	0x3
 7314 0083 00000000 		.long	mb1
 7315 0087 9F       		.byte	0x9f
 7316 0088 00       		.byte	0
 7317              	.LVUS10:
 7318 0089 03       		.uleb128 .LVU163
 7319 008a 0C       		.uleb128 .LVU172
 7320              	.LLST10:
 7321 008b 08       		.byte	0x8
 7322 008c 49000000 		.long	.LVL30
 7323 0090 00       		.uleb128 .LVL30-.LVL30
 7324 0091 06       		.uleb128 0x6
 7325 0092 03       		.byte	0x3
 7326 0093 00000000 		.long	mb1
 7327 0097 9F       		.byte	0x9f
 7328 0098 00       		.byte	0
 7329              	.LVUS12:
 7330 0099 06       		.uleb128 .LVU166
GAS LISTING /tmp/ccttH9cH.s 			page 136


 7331 009a 08       		.uleb128 .LVU168
 7332              	.LLST12:
 7333 009b 08       		.byte	0x8
 7334 009c 49000000 		.long	.LVL30
 7335 00a0 00       		.uleb128 .LVL30-.LVL30
 7336 00a1 06       		.uleb128 0x6
 7337 00a2 03       		.byte	0x3
 7338 00a3 00000000 		.long	mb1
 7339 00a7 9F       		.byte	0x9f
 7340 00a8 00       		.byte	0
 7341              	.LVUS13:
 7342 00a9 08       		.uleb128 .LVU168
 7343 00aa 0C       		.uleb128 .LVU172
 7344              	.LLST13:
 7345 00ab 08       		.byte	0x8
 7346 00ac 49000000 		.long	.LVL30
 7347 00b0 00       		.uleb128 .LVL30-.LVL30
 7348 00b1 06       		.uleb128 0x6
 7349 00b2 03       		.byte	0x3
 7350 00b3 00000000 		.long	mb1
 7351 00b7 9F       		.byte	0x9f
 7352 00b8 00       		.byte	0
 7353              	.LVUS15:
 7354 00b9 00       		.uleb128 .LVU307
 7355 00ba 00       		.uleb128 .LVU320
 7356 00bb 00       		.uleb128 .LVU338
 7357 00bc 00       		.uleb128 .LVU351
 7358 00bd 00       		.uleb128 .LVU435
 7359 00be 00       		.uleb128 .LVU448
 7360 00bf 00       		.uleb128 .LVU461
 7361 00c0 00       		.uleb128 .LVU462
 7362 00c1 00       		.uleb128 .LVU466
 7363 00c2 00       		.uleb128 .LVU467
 7364              	.LLST15:
 7365 00c3 06       		.byte	0x6
 7366 00c4 C2010000 		.long	.LVL42
 7367 00c8 04       		.byte	0x4
 7368 00c9 00       		.uleb128 .LVL42-.LVL42
 7369 00ca 11       		.uleb128 .LVL43-.LVL42
 7370 00cb 01       		.uleb128 0x1
 7371 00cc 50       		.byte	0x50
 7372 00cd 04       		.byte	0x4
 7373 00ce 42       		.uleb128 .LVL48-.LVL42
 7374 00cf 53       		.uleb128 .LVL49-.LVL42
 7375 00d0 01       		.uleb128 0x1
 7376 00d1 50       		.byte	0x50
 7377 00d2 04       		.byte	0x4
 7378 00d3 B202     		.uleb128 .LVL58-.LVL42
 7379 00d5 C302     		.uleb128 .LVL59-.LVL42
 7380 00d7 01       		.uleb128 0x1
 7381 00d8 50       		.byte	0x50
 7382 00d9 04       		.byte	0x4
 7383 00da A103     		.uleb128 .LVL64-.LVL42
 7384 00dc AC03     		.uleb128 .LVL65-.LVL42
 7385 00de 01       		.uleb128 0x1
 7386 00df 50       		.byte	0x50
 7387 00e0 04       		.byte	0x4
GAS LISTING /tmp/ccttH9cH.s 			page 137


 7388 00e1 CD03     		.uleb128 .LVL67-.LVL42
 7389 00e3 D803     		.uleb128 .LVL68-.LVL42
 7390 00e5 01       		.uleb128 0x1
 7391 00e6 50       		.byte	0x50
 7392 00e7 00       		.byte	0
 7393              	.LVUS16:
 7394 00e8 05       		.uleb128 .LVU295
 7395 00e9 00       		.uleb128 .LVU296
 7396 00ea 00       		.uleb128 .LVU296
 7397 00eb 02       		.uleb128 .LVU323
 7398 00ec 02       		.uleb128 .LVU323
 7399 00ed 00       		.uleb128 .LVU324
 7400 00ee 00       		.uleb128 .LVU324
 7401 00ef 00       		.uleb128 .LVU326
 7402 00f0 01       		.uleb128 .LVU422
 7403 00f1 00       		.uleb128 .LVU424
 7404 00f2 00       		.uleb128 .LVU424
 7405 00f3 01       		.uleb128 .LVU452
 7406 00f4 01       		.uleb128 .LVU452
 7407 00f5 00       		.uleb128 .LVU453
 7408              	.LLST16:
 7409 00f6 06       		.byte	0x6
 7410 00f7 A5010000 		.long	.LVL40
 7411 00fb 04       		.byte	0x4
 7412 00fc 00       		.uleb128 .LVL40-.LVL40
 7413 00fd 0A       		.uleb128 .LVL41-.LVL40
 7414 00fe 02       		.uleb128 0x2
 7415 00ff 30       		.byte	0x30
 7416 0100 9F       		.byte	0x9f
 7417 0101 04       		.byte	0x4
 7418 0102 0A       		.uleb128 .LVL41-.LVL40
 7419 0103 42       		.uleb128 .LVL45-.LVL40
 7420 0104 04       		.uleb128 0x4
 7421 0105 75       		.byte	0x75
 7422 0106 BE7F     		.sleb128 -66
 7423 0108 9F       		.byte	0x9f
 7424 0109 04       		.byte	0x4
 7425 010a 42       		.uleb128 .LVL45-.LVL40
 7426 010b 45       		.uleb128 .LVL46-.LVL40
 7427 010c 04       		.uleb128 0x4
 7428 010d 75       		.byte	0x75
 7429 010e BF7F     		.sleb128 -65
 7430 0110 9F       		.byte	0x9f
 7431 0111 04       		.byte	0x4
 7432 0112 45       		.uleb128 .LVL46-.LVL40
 7433 0113 4E       		.uleb128 .LVL47-.LVL40
 7434 0114 04       		.uleb128 0x4
 7435 0115 75       		.byte	0x75
 7436 0116 BE7F     		.sleb128 -66
 7437 0118 9F       		.byte	0x9f
 7438 0119 04       		.byte	0x4
 7439 011a B002     		.uleb128 .LVL56-.LVL40
 7440 011c BC02     		.uleb128 .LVL57-.LVL40
 7441 011e 02       		.uleb128 0x2
 7442 011f 30       		.byte	0x30
 7443 0120 9F       		.byte	0x9f
 7444 0121 04       		.byte	0x4
GAS LISTING /tmp/ccttH9cH.s 			page 138


 7445 0122 BC02     		.uleb128 .LVL57-.LVL40
 7446 0124 8203     		.uleb128 .LVL61-.LVL40
 7447 0126 06       		.uleb128 0x6
 7448 0127 34       		.byte	0x34
 7449 0128 91       		.byte	0x91
 7450 0129 4C       		.sleb128 -52
 7451 012a 06       		.byte	0x6
 7452 012b 1C       		.byte	0x1c
 7453 012c 9F       		.byte	0x9f
 7454 012d 04       		.byte	0x4
 7455 012e 8203     		.uleb128 .LVL61-.LVL40
 7456 0130 8A03     		.uleb128 .LVL62-.LVL40
 7457 0132 06       		.uleb128 0x6
 7458 0133 35       		.byte	0x35
 7459 0134 91       		.byte	0x91
 7460 0135 4C       		.sleb128 -52
 7461 0136 06       		.byte	0x6
 7462 0137 1C       		.byte	0x1c
 7463 0138 9F       		.byte	0x9f
 7464 0139 00       		.byte	0
 7465              	.LVUS20:
 7466 013a 03       		.uleb128 .LVU223
 7467 013b 0C       		.uleb128 .LVU232
 7468              	.LLST20:
 7469 013c 08       		.byte	0x8
 7470 013d CA000000 		.long	.LVL33
 7471 0141 00       		.uleb128 .LVL33-.LVL33
 7472 0142 06       		.uleb128 0x6
 7473 0143 03       		.byte	0x3
 7474 0144 00000000 		.long	mb1
 7475 0148 9F       		.byte	0x9f
 7476 0149 00       		.byte	0
 7477              	.LVUS22:
 7478 014a 06       		.uleb128 .LVU226
 7479 014b 08       		.uleb128 .LVU228
 7480              	.LLST22:
 7481 014c 08       		.byte	0x8
 7482 014d CA000000 		.long	.LVL33
 7483 0151 00       		.uleb128 .LVL33-.LVL33
 7484 0152 06       		.uleb128 0x6
 7485 0153 03       		.byte	0x3
 7486 0154 00000000 		.long	mb1
 7487 0158 9F       		.byte	0x9f
 7488 0159 00       		.byte	0
 7489              	.LVUS23:
 7490 015a 08       		.uleb128 .LVU228
 7491 015b 0C       		.uleb128 .LVU232
 7492              	.LLST23:
 7493 015c 08       		.byte	0x8
 7494 015d CA000000 		.long	.LVL33
 7495 0161 00       		.uleb128 .LVL33-.LVL33
 7496 0162 06       		.uleb128 0x6
 7497 0163 03       		.byte	0x3
 7498 0164 00000000 		.long	mb1
 7499 0168 9F       		.byte	0x9f
 7500 0169 00       		.byte	0
 7501              	.LVUS25:
GAS LISTING /tmp/ccttH9cH.s 			page 139


 7502 016a 03       		.uleb128 .LVU250
 7503 016b 06       		.uleb128 .LVU253
 7504              	.LLST25:
 7505 016c 08       		.byte	0x8
 7506 016d 02010000 		.long	.LVL35
 7507 0171 00       		.uleb128 .LVL35-.LVL35
 7508 0172 06       		.uleb128 0x6
 7509 0173 03       		.byte	0x3
 7510 0174 00000000 		.long	mb1
 7511 0178 9F       		.byte	0x9f
 7512 0179 00       		.byte	0
 7513              	.LVUS29:
 7514 017a 03       		.uleb128 .LVU286
 7515 017b 00       		.uleb128 .LVU290
 7516              	.LLST29:
 7517 017c 08       		.byte	0x8
 7518 017d 8D010000 		.long	.LVL39
 7519 0181 18       		.uleb128 .LVL40-.LVL39
 7520 0182 06       		.uleb128 0x6
 7521 0183 03       		.byte	0x3
 7522 0184 00000000 		.long	mb1
 7523 0188 9F       		.byte	0x9f
 7524 0189 00       		.byte	0
 7525              	.LVUS36:
 7526 018a 03       		.uleb128 .LVU371
 7527 018b 0C       		.uleb128 .LVU380
 7528              	.LLST36:
 7529 018c 08       		.byte	0x8
 7530 018d 4B020000 		.long	.LVL51
 7531 0191 00       		.uleb128 .LVL51-.LVL51
 7532 0192 06       		.uleb128 0x6
 7533 0193 03       		.byte	0x3
 7534 0194 00000000 		.long	mb1
 7535 0198 9F       		.byte	0x9f
 7536 0199 00       		.byte	0
 7537              	.LVUS38:
 7538 019a 06       		.uleb128 .LVU374
 7539 019b 08       		.uleb128 .LVU376
 7540              	.LLST38:
 7541 019c 08       		.byte	0x8
 7542 019d 4B020000 		.long	.LVL51
 7543 01a1 00       		.uleb128 .LVL51-.LVL51
 7544 01a2 06       		.uleb128 0x6
 7545 01a3 03       		.byte	0x3
 7546 01a4 00000000 		.long	mb1
 7547 01a8 9F       		.byte	0x9f
 7548 01a9 00       		.byte	0
 7549              	.LVUS39:
 7550 01aa 08       		.uleb128 .LVU376
 7551 01ab 0C       		.uleb128 .LVU380
 7552              	.LLST39:
 7553 01ac 08       		.byte	0x8
 7554 01ad 4B020000 		.long	.LVL51
 7555 01b1 00       		.uleb128 .LVL51-.LVL51
 7556 01b2 06       		.uleb128 0x6
 7557 01b3 03       		.byte	0x3
 7558 01b4 00000000 		.long	mb1
GAS LISTING /tmp/ccttH9cH.s 			page 140


 7559 01b8 9F       		.byte	0x9f
 7560 01b9 00       		.byte	0
 7561              	.LVUS41:
 7562 01ba 03       		.uleb128 .LVU397
 7563 01bb 06       		.uleb128 .LVU400
 7564              	.LLST41:
 7565 01bc 08       		.byte	0x8
 7566 01bd 7A020000 		.long	.LVL53
 7567 01c1 00       		.uleb128 .LVL53-.LVL53
 7568 01c2 06       		.uleb128 0x6
 7569 01c3 03       		.byte	0x3
 7570 01c4 00000000 		.long	mb1
 7571 01c8 9F       		.byte	0x9f
 7572 01c9 00       		.byte	0
 7573              	.LVUS46:
 7574 01ca 03       		.uleb128 .LVU488
 7575 01cb 0C       		.uleb128 .LVU497
 7576              	.LLST46:
 7577 01cc 08       		.byte	0x8
 7578 01cd DE030000 		.long	.LVL70
 7579 01d1 00       		.uleb128 .LVL70-.LVL70
 7580 01d2 06       		.uleb128 0x6
 7581 01d3 03       		.byte	0x3
 7582 01d4 00000000 		.long	mb1
 7583 01d8 9F       		.byte	0x9f
 7584 01d9 00       		.byte	0
 7585              	.LVUS48:
 7586 01da 06       		.uleb128 .LVU491
 7587 01db 08       		.uleb128 .LVU493
 7588              	.LLST48:
 7589 01dc 08       		.byte	0x8
 7590 01dd DE030000 		.long	.LVL70
 7591 01e1 00       		.uleb128 .LVL70-.LVL70
 7592 01e2 06       		.uleb128 0x6
 7593 01e3 03       		.byte	0x3
 7594 01e4 00000000 		.long	mb1
 7595 01e8 9F       		.byte	0x9f
 7596 01e9 00       		.byte	0
 7597              	.LVUS49:
 7598 01ea 08       		.uleb128 .LVU493
 7599 01eb 0C       		.uleb128 .LVU497
 7600              	.LLST49:
 7601 01ec 08       		.byte	0x8
 7602 01ed DE030000 		.long	.LVL70
 7603 01f1 00       		.uleb128 .LVL70-.LVL70
 7604 01f2 06       		.uleb128 0x6
 7605 01f3 03       		.byte	0x3
 7606 01f4 00000000 		.long	mb1
 7607 01f8 9F       		.byte	0x9f
 7608 01f9 00       		.byte	0
 7609              	.LVUS52:
 7610 01fa 03       		.uleb128 .LVU513
 7611 01fb 06       		.uleb128 .LVU516
 7612              	.LLST52:
 7613 01fc 08       		.byte	0x8
 7614 01fd 08040000 		.long	.LVL72
 7615 0201 00       		.uleb128 .LVL72-.LVL72
GAS LISTING /tmp/ccttH9cH.s 			page 141


 7616 0202 06       		.uleb128 0x6
 7617 0203 03       		.byte	0x3
 7618 0204 00000000 		.long	mb1
 7619 0208 9F       		.byte	0x9f
 7620 0209 00       		.byte	0
 7621              	.LVUS56:
 7622 020a 03       		.uleb128 .LVU560
 7623 020b 0C       		.uleb128 .LVU569
 7624              	.LLST56:
 7625 020c 08       		.byte	0x8
 7626 020d 49000000 		.long	.LVL77
 7627 0211 00       		.uleb128 .LVL77-.LVL77
 7628 0212 06       		.uleb128 0x6
 7629 0213 03       		.byte	0x3
 7630 0214 00000000 		.long	mb1
 7631 0218 9F       		.byte	0x9f
 7632 0219 00       		.byte	0
 7633              	.LVUS58:
 7634 021a 06       		.uleb128 .LVU563
 7635 021b 08       		.uleb128 .LVU565
 7636              	.LLST58:
 7637 021c 08       		.byte	0x8
 7638 021d 49000000 		.long	.LVL77
 7639 0221 00       		.uleb128 .LVL77-.LVL77
 7640 0222 06       		.uleb128 0x6
 7641 0223 03       		.byte	0x3
 7642 0224 00000000 		.long	mb1
 7643 0228 9F       		.byte	0x9f
 7644 0229 00       		.byte	0
 7645              	.LVUS59:
 7646 022a 08       		.uleb128 .LVU565
 7647 022b 0C       		.uleb128 .LVU569
 7648              	.LLST59:
 7649 022c 08       		.byte	0x8
 7650 022d 49000000 		.long	.LVL77
 7651 0231 00       		.uleb128 .LVL77-.LVL77
 7652 0232 06       		.uleb128 0x6
 7653 0233 03       		.byte	0x3
 7654 0234 00000000 		.long	mb1
 7655 0238 9F       		.byte	0x9f
 7656 0239 00       		.byte	0
 7657              	.LVUS60:
 7658 023a 00       		.uleb128 .LVU705
 7659 023b 00       		.uleb128 .LVU706
 7660 023c 00       		.uleb128 .LVU710
 7661 023d 00       		.uleb128 .LVU711
 7662 023e 00       		.uleb128 .LVU715
 7663 023f 00       		.uleb128 .LVU716
 7664 0240 00       		.uleb128 .LVU731
 7665 0241 00       		.uleb128 .LVU732
 7666 0242 00       		.uleb128 .LVU740
 7667 0243 00       		.uleb128 .LVU741
 7668 0244 00       		.uleb128 .LVU828
 7669 0245 00       		.uleb128 .LVU829
 7670 0246 00       		.uleb128 .LVU842
 7671 0247 00       		.uleb128 .LVU843
 7672 0248 00       		.uleb128 .LVU847
GAS LISTING /tmp/ccttH9cH.s 			page 142


 7673 0249 00       		.uleb128 .LVU848
 7674              	.LLST60:
 7675 024a 06       		.byte	0x6
 7676 024b 9F010000 		.long	.LVL86
 7677 024f 04       		.byte	0x4
 7678 0250 00       		.uleb128 .LVL86-.LVL86
 7679 0251 12       		.uleb128 .LVL87-.LVL86
 7680 0252 01       		.uleb128 0x1
 7681 0253 50       		.byte	0x50
 7682 0254 04       		.byte	0x4
 7683 0255 34       		.uleb128 .LVL89-.LVL86
 7684 0256 40       		.uleb128 .LVL90-.LVL86
 7685 0257 01       		.uleb128 0x1
 7686 0258 50       		.byte	0x50
 7687 0259 04       		.byte	0x4
 7688 025a 68       		.uleb128 .LVL92-.LVL86
 7689 025b 74       		.uleb128 .LVL93-.LVL86
 7690 025c 01       		.uleb128 0x1
 7691 025d 50       		.byte	0x50
 7692 025e 04       		.byte	0x4
 7693 025f B901     		.uleb128 .LVL98-.LVL86
 7694 0261 C401     		.uleb128 .LVL99-.LVL86
 7695 0263 01       		.uleb128 0x1
 7696 0264 50       		.byte	0x50
 7697 0265 04       		.byte	0x4
 7698 0266 F101     		.uleb128 .LVL104-.LVL86
 7699 0268 FC01     		.uleb128 .LVL105-.LVL86
 7700 026a 01       		.uleb128 0x1
 7701 026b 50       		.byte	0x50
 7702 026c 04       		.byte	0x4
 7703 026d D103     		.uleb128 .LVL114-.LVL86
 7704 026f DC03     		.uleb128 .LVL115-.LVL86
 7705 0271 01       		.uleb128 0x1
 7706 0272 50       		.byte	0x50
 7707 0273 04       		.byte	0x4
 7708 0274 B904     		.uleb128 .LVL120-.LVL86
 7709 0276 C404     		.uleb128 .LVL121-.LVL86
 7710 0278 01       		.uleb128 0x1
 7711 0279 50       		.byte	0x50
 7712 027a 04       		.byte	0x4
 7713 027b E504     		.uleb128 .LVL123-.LVL86
 7714 027d F004     		.uleb128 .LVL124-.LVL86
 7715 027f 01       		.uleb128 0x1
 7716 0280 50       		.byte	0x50
 7717 0281 00       		.byte	0
 7718              	.LVUS61:
 7719 0282 05       		.uleb128 .LVU728
 7720 0283 00       		.uleb128 .LVU729
 7721 0284 00       		.uleb128 .LVU729
 7722 0285 02       		.uleb128 .LVU735
 7723 0286 02       		.uleb128 .LVU735
 7724 0287 00       		.uleb128 .LVU736
 7725 0288 00       		.uleb128 .LVU736
 7726 0289 00       		.uleb128 .LVU738
 7727 028a 01       		.uleb128 .LVU824
 7728 028b 00       		.uleb128 .LVU826
 7729 028c 00       		.uleb128 .LVU826
GAS LISTING /tmp/ccttH9cH.s 			page 143


 7730 028d 01       		.uleb128 .LVU833
 7731 028e 01       		.uleb128 .LVU833
 7732 028f 00       		.uleb128 .LVU834
 7733              	.LLST61:
 7734 0290 06       		.byte	0x6
 7735 0291 3F020000 		.long	.LVL96
 7736 0295 04       		.byte	0x4
 7737 0296 00       		.uleb128 .LVL96-.LVL96
 7738 0297 0A       		.uleb128 .LVL97-.LVL96
 7739 0298 02       		.uleb128 0x2
 7740 0299 30       		.byte	0x30
 7741 029a 9F       		.byte	0x9f
 7742 029b 04       		.byte	0x4
 7743 029c 0A       		.uleb128 .LVL97-.LVL96
 7744 029d 38       		.uleb128 .LVL101-.LVL96
 7745 029e 04       		.uleb128 0x4
 7746 029f 75       		.byte	0x75
 7747 02a0 BE7F     		.sleb128 -66
 7748 02a2 9F       		.byte	0x9f
 7749 02a3 04       		.byte	0x4
 7750 02a4 38       		.uleb128 .LVL101-.LVL96
 7751 02a5 3B       		.uleb128 .LVL102-.LVL96
 7752 02a6 04       		.uleb128 0x4
 7753 02a7 75       		.byte	0x75
 7754 02a8 BF7F     		.sleb128 -65
 7755 02aa 9F       		.byte	0x9f
 7756 02ab 04       		.byte	0x4
 7757 02ac 3B       		.uleb128 .LVL102-.LVL96
 7758 02ad 44       		.uleb128 .LVL103-.LVL96
 7759 02ae 04       		.uleb128 0x4
 7760 02af 75       		.byte	0x75
 7761 02b0 BE7F     		.sleb128 -66
 7762 02b2 9F       		.byte	0x9f
 7763 02b3 04       		.byte	0x4
 7764 02b4 9C02     		.uleb128 .LVL112-.LVL96
 7765 02b6 A402     		.uleb128 .LVL113-.LVL96
 7766 02b8 02       		.uleb128 0x2
 7767 02b9 30       		.byte	0x30
 7768 02ba 9F       		.byte	0x9f
 7769 02bb 04       		.byte	0x4
 7770 02bc A402     		.uleb128 .LVL113-.LVL96
 7771 02be DE02     		.uleb128 .LVL117-.LVL96
 7772 02c0 06       		.uleb128 0x6
 7773 02c1 34       		.byte	0x34
 7774 02c2 91       		.byte	0x91
 7775 02c3 48       		.sleb128 -56
 7776 02c4 06       		.byte	0x6
 7777 02c5 1C       		.byte	0x1c
 7778 02c6 9F       		.byte	0x9f
 7779 02c7 04       		.byte	0x4
 7780 02c8 DE02     		.uleb128 .LVL117-.LVL96
 7781 02ca E602     		.uleb128 .LVL118-.LVL96
 7782 02cc 06       		.uleb128 0x6
 7783 02cd 35       		.byte	0x35
 7784 02ce 91       		.byte	0x91
 7785 02cf 48       		.sleb128 -56
 7786 02d0 06       		.byte	0x6
GAS LISTING /tmp/ccttH9cH.s 			page 144


 7787 02d1 1C       		.byte	0x1c
 7788 02d2 9F       		.byte	0x9f
 7789 02d3 00       		.byte	0
 7790              	.LVUS64:
 7791 02d4 03       		.uleb128 .LVU609
 7792 02d5 0C       		.uleb128 .LVU618
 7793              	.LLST64:
 7794 02d6 08       		.byte	0x8
 7795 02d7 C4000000 		.long	.LVL80
 7796 02db 00       		.uleb128 .LVL80-.LVL80
 7797 02dc 06       		.uleb128 0x6
 7798 02dd 03       		.byte	0x3
 7799 02de 00000000 		.long	mb1
 7800 02e2 9F       		.byte	0x9f
 7801 02e3 00       		.byte	0
 7802              	.LVUS66:
 7803 02e4 06       		.uleb128 .LVU612
 7804 02e5 08       		.uleb128 .LVU614
 7805              	.LLST66:
 7806 02e6 08       		.byte	0x8
 7807 02e7 C4000000 		.long	.LVL80
 7808 02eb 00       		.uleb128 .LVL80-.LVL80
 7809 02ec 06       		.uleb128 0x6
 7810 02ed 03       		.byte	0x3
 7811 02ee 00000000 		.long	mb1
 7812 02f2 9F       		.byte	0x9f
 7813 02f3 00       		.byte	0
 7814              	.LVUS67:
 7815 02f4 08       		.uleb128 .LVU614
 7816 02f5 0C       		.uleb128 .LVU618
 7817              	.LLST67:
 7818 02f6 08       		.byte	0x8
 7819 02f7 C4000000 		.long	.LVL80
 7820 02fb 00       		.uleb128 .LVL80-.LVL80
 7821 02fc 06       		.uleb128 0x6
 7822 02fd 03       		.byte	0x3
 7823 02fe 00000000 		.long	mb1
 7824 0302 9F       		.byte	0x9f
 7825 0303 00       		.byte	0
 7826              	.LVUS69:
 7827 0304 03       		.uleb128 .LVU636
 7828 0305 06       		.uleb128 .LVU639
 7829              	.LLST69:
 7830 0306 08       		.byte	0x8
 7831 0307 F8000000 		.long	.LVL82
 7832 030b 00       		.uleb128 .LVL82-.LVL82
 7833 030c 06       		.uleb128 0x6
 7834 030d 03       		.byte	0x3
 7835 030e 00000000 		.long	mb1
 7836 0312 9F       		.byte	0x9f
 7837 0313 00       		.byte	0
 7838              	.LVUS74:
 7839 0314 02       		.uleb128 .LVU719
 7840 0315 00       		.uleb128 .LVU723
 7841              	.LLST74:
 7842 0316 08       		.byte	0x8
 7843 0317 27020000 		.long	.LVL95
GAS LISTING /tmp/ccttH9cH.s 			page 145


 7844 031b 18       		.uleb128 .LVL96-.LVL95
 7845 031c 06       		.uleb128 0x6
 7846 031d 03       		.byte	0x3
 7847 031e 00000000 		.long	mb1
 7848 0322 9F       		.byte	0x9f
 7849 0323 00       		.byte	0
 7850              	.LVUS77:
 7851 0324 03       		.uleb128 .LVU761
 7852 0325 0C       		.uleb128 .LVU770
 7853              	.LLST77:
 7854 0326 08       		.byte	0x8
 7855 0327 D1020000 		.long	.LVL107
 7856 032b 00       		.uleb128 .LVL107-.LVL107
 7857 032c 06       		.uleb128 0x6
 7858 032d 03       		.byte	0x3
 7859 032e 00000000 		.long	mb1
 7860 0332 9F       		.byte	0x9f
 7861 0333 00       		.byte	0
 7862              	.LVUS79:
 7863 0334 06       		.uleb128 .LVU764
 7864 0335 08       		.uleb128 .LVU766
 7865              	.LLST79:
 7866 0336 08       		.byte	0x8
 7867 0337 D1020000 		.long	.LVL107
 7868 033b 00       		.uleb128 .LVL107-.LVL107
 7869 033c 06       		.uleb128 0x6
 7870 033d 03       		.byte	0x3
 7871 033e 00000000 		.long	mb1
 7872 0342 9F       		.byte	0x9f
 7873 0343 00       		.byte	0
 7874              	.LVUS80:
 7875 0344 08       		.uleb128 .LVU766
 7876 0345 0C       		.uleb128 .LVU770
 7877              	.LLST80:
 7878 0346 08       		.byte	0x8
 7879 0347 D1020000 		.long	.LVL107
 7880 034b 00       		.uleb128 .LVL107-.LVL107
 7881 034c 06       		.uleb128 0x6
 7882 034d 03       		.byte	0x3
 7883 034e 00000000 		.long	mb1
 7884 0352 9F       		.byte	0x9f
 7885 0353 00       		.byte	0
 7886              	.LVUS82:
 7887 0354 03       		.uleb128 .LVU787
 7888 0355 06       		.uleb128 .LVU790
 7889              	.LLST82:
 7890 0356 08       		.byte	0x8
 7891 0357 0C030000 		.long	.LVL109
 7892 035b 00       		.uleb128 .LVL109-.LVL109
 7893 035c 06       		.uleb128 0x6
 7894 035d 03       		.byte	0x3
 7895 035e 00000000 		.long	mb1
 7896 0362 9F       		.byte	0x9f
 7897 0363 00       		.byte	0
 7898              	.LVUS85:
 7899 0364 03       		.uleb128 .LVU869
 7900 0365 0C       		.uleb128 .LVU878
GAS LISTING /tmp/ccttH9cH.s 			page 146


 7901              	.LLST85:
 7902 0366 08       		.byte	0x8
 7903 0367 53040000 		.long	.LVL126
 7904 036b 00       		.uleb128 .LVL126-.LVL126
 7905 036c 06       		.uleb128 0x6
 7906 036d 03       		.byte	0x3
 7907 036e 00000000 		.long	mb1
 7908 0372 9F       		.byte	0x9f
 7909 0373 00       		.byte	0
 7910              	.LVUS87:
 7911 0374 06       		.uleb128 .LVU872
 7912 0375 08       		.uleb128 .LVU874
 7913              	.LLST87:
 7914 0376 08       		.byte	0x8
 7915 0377 53040000 		.long	.LVL126
 7916 037b 00       		.uleb128 .LVL126-.LVL126
 7917 037c 06       		.uleb128 0x6
 7918 037d 03       		.byte	0x3
 7919 037e 00000000 		.long	mb1
 7920 0382 9F       		.byte	0x9f
 7921 0383 00       		.byte	0
 7922              	.LVUS88:
 7923 0384 08       		.uleb128 .LVU874
 7924 0385 0C       		.uleb128 .LVU878
 7925              	.LLST88:
 7926 0386 08       		.byte	0x8
 7927 0387 53040000 		.long	.LVL126
 7928 038b 00       		.uleb128 .LVL126-.LVL126
 7929 038c 06       		.uleb128 0x6
 7930 038d 03       		.byte	0x3
 7931 038e 00000000 		.long	mb1
 7932 0392 9F       		.byte	0x9f
 7933 0393 00       		.byte	0
 7934              	.LVUS91:
 7935 0394 03       		.uleb128 .LVU894
 7936 0395 06       		.uleb128 .LVU897
 7937              	.LLST91:
 7938 0396 08       		.byte	0x8
 7939 0397 7D040000 		.long	.LVL128
 7940 039b 00       		.uleb128 .LVL128-.LVL128
 7941 039c 06       		.uleb128 0x6
 7942 039d 03       		.byte	0x3
 7943 039e 00000000 		.long	mb1
 7944 03a2 9F       		.byte	0x9f
 7945 03a3 00       		.byte	0
 7946              	.Ldebug_loc3:
 7947              		.section	.debug_aranges,"",@progbits
 7948 0000 3C000000 		.long	0x3c
 7949 0004 0200     		.value	0x2
 7950 0006 00000000 		.long	.Ldebug_info0
 7951 000a 04       		.byte	0x4
 7952 000b 00       		.byte	0
 7953 000c 0000     		.value	0
 7954 000e 0000     		.value	0
 7955 0010 00000000 		.long	.LFB304
 7956 0014 20000000 		.long	.LFE304-.LFB304
 7957 0018 00000000 		.long	.LFB311
GAS LISTING /tmp/ccttH9cH.s 			page 147


 7958 001c E0010000 		.long	.LFE311-.LFB311
 7959 0020 00000000 		.long	.LFB303
 7960 0024 29000000 		.long	.LFE303-.LFB303
 7961 0028 00000000 		.long	.LFB308
 7962 002c 72040000 		.long	.LFE308-.LFB308
 7963 0030 00000000 		.long	.LFB305
 7964 0034 E7040000 		.long	.LFE305-.LFB305
 7965 0038 00000000 		.long	0
 7966 003c 00000000 		.long	0
 7967              		.section	.debug_rnglists,"",@progbits
 7968              	.Ldebug_ranges0:
 7969 0000 DA020000 		.long	.Ldebug_ranges3-.Ldebug_ranges2
 7970              	.Ldebug_ranges2:
 7971 0004 0500     		.value	0x5
 7972 0006 04       		.byte	0x4
 7973 0007 00       		.byte	0
 7974 0008 00000000 		.long	0
 7975              	.LLRL2:
 7976 000c 05       		.byte	0x5
 7977 000d B8000000 		.long	.LBB852
 7978 0011 04       		.byte	0x4
 7979 0012 00       		.uleb128 .LBB852-.LBB852
 7980 0013 06       		.uleb128 .LBE852-.LBB852
 7981 0014 04       		.byte	0x4
 7982 0015 09       		.uleb128 .LBB857-.LBB852
 7983 0016 14       		.uleb128 .LBE857-.LBB852
 7984 0017 00       		.byte	0
 7985              	.LLRL3:
 7986 0018 05       		.byte	0x5
 7987 0019 1E010000 		.long	.LBB862
 7988 001d 04       		.byte	0x4
 7989 001e 00       		.uleb128 .LBB862-.LBB862
 7990 001f 00       		.uleb128 .LBE862-.LBB862
 7991 0020 04       		.byte	0x4
 7992 0021 03       		.uleb128 .LBB867-.LBB862
 7993 0022 0A       		.uleb128 .LBE867-.LBB862
 7994 0023 00       		.byte	0
 7995              	.LLRL4:
 7996 0024 05       		.byte	0x5
 7997 0025 68010000 		.long	.LBB872
 7998 0029 04       		.byte	0x4
 7999 002a 00       		.uleb128 .LBB872-.LBB872
 8000 002b 00       		.uleb128 .LBE872-.LBB872
 8001 002c 04       		.byte	0x4
 8002 002d 0C       		.uleb128 .LBB875-.LBB872
 8003 002e 13       		.uleb128 .LBE875-.LBB872
 8004 002f 00       		.byte	0
 8005              	.LLRL6:
 8006 0030 05       		.byte	0x5
 8007 0031 A3010000 		.long	.LBB876
 8008 0035 04       		.byte	0x4
 8009 0036 00       		.uleb128 .LBB876-.LBB876
 8010 0037 04       		.uleb128 .LBE876-.LBB876
 8011 0038 04       		.byte	0x4
 8012 0039 07       		.uleb128 .LBB881-.LBB876
 8013 003a 0D       		.uleb128 .LBE881-.LBB876
 8014 003b 00       		.byte	0
GAS LISTING /tmp/ccttH9cH.s 			page 148


 8015              	.LLRL7:
 8016 003c 05       		.byte	0x5
 8017 003d B7010000 		.long	.LBB882
 8018 0041 04       		.byte	0x4
 8019 0042 00       		.uleb128 .LBB882-.LBB882
 8020 0043 04       		.uleb128 .LBE882-.LBB882
 8021 0044 04       		.byte	0x4
 8022 0045 0A       		.uleb128 .LBB889-.LBB882
 8023 0046 10       		.uleb128 .LBE889-.LBB882
 8024 0047 00       		.byte	0
 8025              	.LLRL8:
 8026 0048 05       		.byte	0x5
 8027 0049 2A000000 		.long	.LBB1107
 8028 004d 04       		.byte	0x4
 8029 004e 00       		.uleb128 .LBB1107-.LBB1107
 8030 004f 06       		.uleb128 .LBE1107-.LBB1107
 8031 0050 04       		.byte	0x4
 8032 0051 0C       		.uleb128 .LBB1117-.LBB1107
 8033 0052 0C       		.uleb128 .LBE1117-.LBB1107
 8034 0053 04       		.byte	0x4
 8035 0054 19       		.uleb128 .LBB1129-.LBB1107
 8036 0055 1F       		.uleb128 .LBE1129-.LBB1107
 8037 0056 00       		.byte	0
 8038              	.LLRL9:
 8039 0057 05       		.byte	0x5
 8040 0058 37000000 		.long	.LBB1118
 8041 005c 04       		.byte	0x4
 8042 005d 00       		.uleb128 .LBB1118-.LBB1118
 8043 005e 0C       		.uleb128 .LBE1118-.LBB1118
 8044 005f 04       		.byte	0x4
 8045 0060 12       		.uleb128 .LBB1130-.LBB1118
 8046 0061 1B       		.uleb128 .LBE1130-.LBB1118
 8047 0062 00       		.byte	0
 8048              	.LLRL11:
 8049 0063 05       		.byte	0x5
 8050 0064 37000000 		.long	.LBB1120
 8051 0068 04       		.byte	0x4
 8052 0069 00       		.uleb128 .LBB1120-.LBB1120
 8053 006a 0C       		.uleb128 .LBE1120-.LBB1120
 8054 006b 04       		.byte	0x4
 8055 006c 12       		.uleb128 .LBB1124-.LBB1120
 8056 006d 12       		.uleb128 .LBE1124-.LBB1120
 8057 006e 04       		.byte	0x4
 8058 006f 12       		.uleb128 .LBB1127-.LBB1120
 8059 0070 15       		.uleb128 .LBE1127-.LBB1120
 8060 0071 00       		.byte	0
 8061              	.LLRL14:
 8062 0072 05       		.byte	0x5
 8063 0073 68000000 		.long	.LBB1131
 8064 0077 04       		.byte	0x4
 8065 0078 00       		.uleb128 .LBB1131-.LBB1131
 8066 0079 06       		.uleb128 .LBE1131-.LBB1131
 8067 007a 04       		.byte	0x4
 8068 007b 28       		.uleb128 .LBB1318-.LBB1131
 8069 007c 8508     		.uleb128 .LBE1318-.LBB1131
 8070 007e 00       		.byte	0
 8071              	.LLRL17:
GAS LISTING /tmp/ccttH9cH.s 			page 149


 8072 007f 05       		.byte	0x5
 8073 0080 9F000000 		.long	.LBB1138
 8074 0084 04       		.byte	0x4
 8075 0085 00       		.uleb128 .LBB1138-.LBB1138
 8076 0086 00       		.uleb128 .LBE1138-.LBB1138
 8077 0087 04       		.byte	0x4
 8078 0088 01       		.uleb128 .LBB1143-.LBB1138
 8079 0089 07       		.uleb128 .LBE1143-.LBB1138
 8080 008a 00       		.byte	0
 8081              	.LLRL18:
 8082 008b 05       		.byte	0x5
 8083 008c AB000000 		.long	.LBB1144
 8084 0090 04       		.byte	0x4
 8085 0091 00       		.uleb128 .LBB1144-.LBB1144
 8086 0092 00       		.uleb128 .LBE1144-.LBB1144
 8087 0093 04       		.byte	0x4
 8088 0094 19       		.uleb128 .LBB1162-.LBB1144
 8089 0095 1F       		.uleb128 .LBE1162-.LBB1144
 8090 0096 00       		.byte	0
 8091              	.LLRL19:
 8092 0097 05       		.byte	0x5
 8093 0098 B8000000 		.long	.LBB1151
 8094 009c 04       		.byte	0x4
 8095 009d 00       		.uleb128 .LBB1151-.LBB1151
 8096 009e 0C       		.uleb128 .LBE1151-.LBB1151
 8097 009f 04       		.byte	0x4
 8098 00a0 12       		.uleb128 .LBB1163-.LBB1151
 8099 00a1 1B       		.uleb128 .LBE1163-.LBB1151
 8100 00a2 00       		.byte	0
 8101              	.LLRL21:
 8102 00a3 05       		.byte	0x5
 8103 00a4 B8000000 		.long	.LBB1153
 8104 00a8 04       		.byte	0x4
 8105 00a9 00       		.uleb128 .LBB1153-.LBB1153
 8106 00aa 0C       		.uleb128 .LBE1153-.LBB1153
 8107 00ab 04       		.byte	0x4
 8108 00ac 12       		.uleb128 .LBB1157-.LBB1153
 8109 00ad 12       		.uleb128 .LBE1157-.LBB1153
 8110 00ae 04       		.byte	0x4
 8111 00af 12       		.uleb128 .LBB1160-.LBB1153
 8112 00b0 15       		.uleb128 .LBE1160-.LBB1153
 8113 00b1 00       		.byte	0
 8114              	.LLRL24:
 8115 00b2 05       		.byte	0x5
 8116 00b3 ED000000 		.long	.LBB1164
 8117 00b7 04       		.byte	0x4
 8118 00b8 00       		.uleb128 .LBB1164-.LBB1164
 8119 00b9 00       		.uleb128 .LBE1164-.LBB1164
 8120 00ba 04       		.byte	0x4
 8121 00bb 0F       		.uleb128 .LBB1171-.LBB1164
 8122 00bc 15       		.uleb128 .LBE1171-.LBB1164
 8123 00bd 00       		.byte	0
 8124              	.LLRL26:
 8125 00be 05       		.byte	0x5
 8126 00bf 1F010000 		.long	.LBB1174
 8127 00c3 04       		.byte	0x4
 8128 00c4 00       		.uleb128 .LBB1174-.LBB1174
GAS LISTING /tmp/ccttH9cH.s 			page 150


 8129 00c5 00       		.uleb128 .LBE1174-.LBB1174
 8130 00c6 04       		.byte	0x4
 8131 00c7 09       		.uleb128 .LBB1181-.LBB1174
 8132 00c8 0F       		.uleb128 .LBE1181-.LBB1174
 8133 00c9 00       		.byte	0
 8134              	.LLRL27:
 8135 00ca 05       		.byte	0x5
 8136 00cb 56010000 		.long	.LBB1182
 8137 00cf 04       		.byte	0x4
 8138 00d0 00       		.uleb128 .LBB1182-.LBB1182
 8139 00d1 00       		.uleb128 .LBE1182-.LBB1182
 8140 00d2 04       		.byte	0x4
 8141 00d3 09       		.uleb128 .LBB1189-.LBB1182
 8142 00d4 0F       		.uleb128 .LBE1189-.LBB1182
 8143 00d5 00       		.byte	0
 8144              	.LLRL28:
 8145 00d6 05       		.byte	0x5
 8146 00d7 8D010000 		.long	.LBB1190
 8147 00db 04       		.byte	0x4
 8148 00dc 00       		.uleb128 .LBB1190-.LBB1190
 8149 00dd 06       		.uleb128 .LBE1190-.LBB1190
 8150 00de 04       		.byte	0x4
 8151 00df 11       		.uleb128 .LBB1193-.LBB1190
 8152 00e0 18       		.uleb128 .LBE1193-.LBB1190
 8153 00e1 00       		.byte	0
 8154              	.LLRL30:
 8155 00e2 05       		.byte	0x5
 8156 00e3 AF010000 		.long	.LBB1194
 8157 00e7 04       		.byte	0x4
 8158 00e8 00       		.uleb128 .LBB1194-.LBB1194
 8159 00e9 00       		.uleb128 .LBE1194-.LBB1194
 8160 00ea 04       		.byte	0x4
 8161 00eb 03       		.uleb128 .LBB1199-.LBB1194
 8162 00ec 09       		.uleb128 .LBE1199-.LBB1194
 8163 00ed 00       		.byte	0
 8164              	.LLRL31:
 8165 00ee 05       		.byte	0x5
 8166 00ef C2010000 		.long	.LBB1200
 8167 00f3 04       		.byte	0x4
 8168 00f4 00       		.uleb128 .LBB1200-.LBB1200
 8169 00f5 00       		.uleb128 .LBE1200-.LBB1200
 8170 00f6 04       		.byte	0x4
 8171 00f7 08       		.uleb128 .LBB1207-.LBB1200
 8172 00f8 0E       		.uleb128 .LBE1207-.LBB1200
 8173 00f9 00       		.byte	0
 8174              	.LLRL32:
 8175 00fa 05       		.byte	0x5
 8176 00fb EF010000 		.long	.LBB1208
 8177 00ff 04       		.byte	0x4
 8178 0100 00       		.uleb128 .LBB1208-.LBB1208
 8179 0101 04       		.uleb128 .LBE1208-.LBB1208
 8180 0102 04       		.byte	0x4
 8181 0103 04       		.uleb128 .LBB1215-.LBB1208
 8182 0104 04       		.uleb128 .LBE1215-.LBB1208
 8183 0105 04       		.byte	0x4
 8184 0106 07       		.uleb128 .LBB1216-.LBB1208
 8185 0107 0D       		.uleb128 .LBE1216-.LBB1208
GAS LISTING /tmp/ccttH9cH.s 			page 151


 8186 0108 00       		.byte	0
 8187              	.LLRL33:
 8188 0109 05       		.byte	0x5
 8189 010a 04020000 		.long	.LBB1217
 8190 010e 04       		.byte	0x4
 8191 010f 00       		.uleb128 .LBB1217-.LBB1217
 8192 0110 00       		.uleb128 .LBE1217-.LBB1217
 8193 0111 04       		.byte	0x4
 8194 0112 08       		.uleb128 .LBB1224-.LBB1217
 8195 0113 0E       		.uleb128 .LBE1224-.LBB1217
 8196 0114 00       		.byte	0
 8197              	.LLRL34:
 8198 0115 05       		.byte	0x5
 8199 0116 38020000 		.long	.LBB1225
 8200 011a 04       		.byte	0x4
 8201 011b 00       		.uleb128 .LBB1225-.LBB1225
 8202 011c 00       		.uleb128 .LBE1225-.LBB1225
 8203 011d 04       		.byte	0x4
 8204 011e 0D       		.uleb128 .LBB1241-.LBB1225
 8205 011f 13       		.uleb128 .LBE1241-.LBB1225
 8206 0120 00       		.byte	0
 8207              	.LLRL35:
 8208 0121 05       		.byte	0x5
 8209 0122 39020000 		.long	.LBB1232
 8210 0126 04       		.byte	0x4
 8211 0127 00       		.uleb128 .LBB1232-.LBB1232
 8212 0128 0C       		.uleb128 .LBE1232-.LBB1232
 8213 0129 04       		.byte	0x4
 8214 012a 12       		.uleb128 .LBB1242-.LBB1232
 8215 012b 15       		.uleb128 .LBE1242-.LBB1232
 8216 012c 00       		.byte	0
 8217              	.LLRL37:
 8218 012d 05       		.byte	0x5
 8219 012e 39020000 		.long	.LBB1233
 8220 0132 04       		.byte	0x4
 8221 0133 00       		.uleb128 .LBB1233-.LBB1233
 8222 0134 0C       		.uleb128 .LBE1233-.LBB1233
 8223 0135 04       		.byte	0x4
 8224 0136 12       		.uleb128 .LBB1237-.LBB1233
 8225 0137 12       		.uleb128 .LBE1237-.LBB1233
 8226 0138 04       		.byte	0x4
 8227 0139 12       		.uleb128 .LBB1240-.LBB1233
 8228 013a 15       		.uleb128 .LBE1240-.LBB1233
 8229 013b 00       		.byte	0
 8230              	.LLRL40:
 8231 013c 05       		.byte	0x5
 8232 013d 6B020000 		.long	.LBB1243
 8233 0141 04       		.byte	0x4
 8234 0142 00       		.uleb128 .LBB1243-.LBB1243
 8235 0143 00       		.uleb128 .LBE1243-.LBB1243
 8236 0144 04       		.byte	0x4
 8237 0145 09       		.uleb128 .LBB1250-.LBB1243
 8238 0146 0F       		.uleb128 .LBE1250-.LBB1243
 8239 0147 00       		.byte	0
 8240              	.LLRL42:
 8241 0148 05       		.byte	0x5
 8242 0149 98020000 		.long	.LBB1253
GAS LISTING /tmp/ccttH9cH.s 			page 152


 8243 014d 04       		.byte	0x4
 8244 014e 00       		.uleb128 .LBB1253-.LBB1253
 8245 014f 00       		.uleb128 .LBE1253-.LBB1253
 8246 0150 04       		.byte	0x4
 8247 0151 09       		.uleb128 .LBB1260-.LBB1253
 8248 0152 0F       		.uleb128 .LBE1260-.LBB1253
 8249 0153 00       		.byte	0
 8250              	.LLRL43:
 8251 0154 05       		.byte	0x5
 8252 0155 E1020000 		.long	.LBB1261
 8253 0159 04       		.byte	0x4
 8254 015a 00       		.uleb128 .LBB1261-.LBB1261
 8255 015b 00       		.uleb128 .LBE1261-.LBB1261
 8256 015c 04       		.byte	0x4
 8257 015d 03       		.uleb128 .LBB1266-.LBB1261
 8258 015e 09       		.uleb128 .LBE1266-.LBB1261
 8259 015f 00       		.byte	0
 8260              	.LLRL44:
 8261 0160 05       		.byte	0x5
 8262 0161 F4020000 		.long	.LBB1267
 8263 0165 04       		.byte	0x4
 8264 0166 00       		.uleb128 .LBB1267-.LBB1267
 8265 0167 00       		.uleb128 .LBE1267-.LBB1267
 8266 0168 04       		.byte	0x4
 8267 0169 08       		.uleb128 .LBB1274-.LBB1267
 8268 016a 0E       		.uleb128 .LBE1274-.LBB1267
 8269 016b 00       		.byte	0
 8270              	.LLRL45:
 8271 016c 05       		.byte	0x5
 8272 016d AE030000 		.long	.LBB1275
 8273 0171 04       		.byte	0x4
 8274 0172 00       		.uleb128 .LBB1275-.LBB1275
 8275 0173 0C       		.uleb128 .LBE1275-.LBB1275
 8276 0174 04       		.byte	0x4
 8277 0175 12       		.uleb128 .LBB1294-.LBB1275
 8278 0176 1B       		.uleb128 .LBE1294-.LBB1275
 8279 0177 04       		.byte	0x4
 8280 0178 30       		.uleb128 .LBB1296-.LBB1275
 8281 0179 30       		.uleb128 .LBE1296-.LBB1275
 8282 017a 00       		.byte	0
 8283              	.LLRL47:
 8284 017b 05       		.byte	0x5
 8285 017c AE030000 		.long	.LBB1277
 8286 0180 04       		.byte	0x4
 8287 0181 00       		.uleb128 .LBB1277-.LBB1277
 8288 0182 0C       		.uleb128 .LBE1277-.LBB1277
 8289 0183 04       		.byte	0x4
 8290 0184 12       		.uleb128 .LBB1281-.LBB1277
 8291 0185 15       		.uleb128 .LBE1281-.LBB1277
 8292 0186 04       		.byte	0x4
 8293 0187 30       		.uleb128 .LBB1282-.LBB1277
 8294 0188 30       		.uleb128 .LBE1282-.LBB1277
 8295 0189 00       		.byte	0
 8296              	.LLRL50:
 8297 018a 05       		.byte	0x5
 8298 018b C0030000 		.long	.LBB1287
 8299 018f 04       		.byte	0x4
GAS LISTING /tmp/ccttH9cH.s 			page 153


 8300 0190 00       		.uleb128 .LBB1287-.LBB1287
 8301 0191 00       		.uleb128 .LBE1287-.LBB1287
 8302 0192 04       		.byte	0x4
 8303 0193 18       		.uleb128 .LBB1295-.LBB1287
 8304 0194 1E       		.uleb128 .LBE1295-.LBB1287
 8305 0195 00       		.byte	0
 8306              	.LLRL51:
 8307 0196 05       		.byte	0x5
 8308 0197 EF030000 		.long	.LBB1297
 8309 019b 04       		.byte	0x4
 8310 019c 00       		.uleb128 .LBB1297-.LBB1297
 8311 019d 00       		.uleb128 .LBE1297-.LBB1297
 8312 019e 04       		.byte	0x4
 8313 019f 13       		.uleb128 .LBB1304-.LBB1297
 8314 01a0 19       		.uleb128 .LBE1304-.LBB1297
 8315 01a1 00       		.byte	0
 8316              	.LLRL53:
 8317 01a2 05       		.byte	0x5
 8318 01a3 18040000 		.long	.LBB1307
 8319 01a7 04       		.byte	0x4
 8320 01a8 00       		.uleb128 .LBB1307-.LBB1307
 8321 01a9 00       		.uleb128 .LBE1307-.LBB1307
 8322 01aa 04       		.byte	0x4
 8323 01ab 19       		.uleb128 .LBB1316-.LBB1307
 8324 01ac 1F       		.uleb128 .LBE1316-.LBB1307
 8325 01ad 00       		.byte	0
 8326              	.LLRL54:
 8327 01ae 05       		.byte	0x5
 8328 01af 2A000000 		.long	.LBB1508
 8329 01b3 04       		.byte	0x4
 8330 01b4 00       		.uleb128 .LBB1508-.LBB1508
 8331 01b5 06       		.uleb128 .LBE1508-.LBB1508
 8332 01b6 04       		.byte	0x4
 8333 01b7 0C       		.uleb128 .LBB1518-.LBB1508
 8334 01b8 0C       		.uleb128 .LBE1518-.LBB1508
 8335 01b9 04       		.byte	0x4
 8336 01ba 19       		.uleb128 .LBB1530-.LBB1508
 8337 01bb 1F       		.uleb128 .LBE1530-.LBB1508
 8338 01bc 00       		.byte	0
 8339              	.LLRL55:
 8340 01bd 05       		.byte	0x5
 8341 01be 37000000 		.long	.LBB1519
 8342 01c2 04       		.byte	0x4
 8343 01c3 00       		.uleb128 .LBB1519-.LBB1519
 8344 01c4 0C       		.uleb128 .LBE1519-.LBB1519
 8345 01c5 04       		.byte	0x4
 8346 01c6 12       		.uleb128 .LBB1531-.LBB1519
 8347 01c7 1B       		.uleb128 .LBE1531-.LBB1519
 8348 01c8 00       		.byte	0
 8349              	.LLRL57:
 8350 01c9 05       		.byte	0x5
 8351 01ca 37000000 		.long	.LBB1521
 8352 01ce 04       		.byte	0x4
 8353 01cf 00       		.uleb128 .LBB1521-.LBB1521
 8354 01d0 0C       		.uleb128 .LBE1521-.LBB1521
 8355 01d1 04       		.byte	0x4
 8356 01d2 12       		.uleb128 .LBB1525-.LBB1521
GAS LISTING /tmp/ccttH9cH.s 			page 154


 8357 01d3 12       		.uleb128 .LBE1525-.LBB1521
 8358 01d4 04       		.byte	0x4
 8359 01d5 12       		.uleb128 .LBB1528-.LBB1521
 8360 01d6 15       		.uleb128 .LBE1528-.LBB1521
 8361 01d7 00       		.byte	0
 8362              	.LLRL62:
 8363 01d8 05       		.byte	0x5
 8364 01d9 A5000000 		.long	.LBB1544
 8365 01dd 04       		.byte	0x4
 8366 01de 00       		.uleb128 .LBB1544-.LBB1544
 8367 01df 00       		.uleb128 .LBE1544-.LBB1544
 8368 01e0 04       		.byte	0x4
 8369 01e1 19       		.uleb128 .LBB1562-.LBB1544
 8370 01e2 1F       		.uleb128 .LBE1562-.LBB1544
 8371 01e3 00       		.byte	0
 8372              	.LLRL63:
 8373 01e4 05       		.byte	0x5
 8374 01e5 B2000000 		.long	.LBB1551
 8375 01e9 04       		.byte	0x4
 8376 01ea 00       		.uleb128 .LBB1551-.LBB1551
 8377 01eb 0C       		.uleb128 .LBE1551-.LBB1551
 8378 01ec 04       		.byte	0x4
 8379 01ed 12       		.uleb128 .LBB1563-.LBB1551
 8380 01ee 1B       		.uleb128 .LBE1563-.LBB1551
 8381 01ef 00       		.byte	0
 8382              	.LLRL65:
 8383 01f0 05       		.byte	0x5
 8384 01f1 B2000000 		.long	.LBB1553
 8385 01f5 04       		.byte	0x4
 8386 01f6 00       		.uleb128 .LBB1553-.LBB1553
 8387 01f7 0C       		.uleb128 .LBE1553-.LBB1553
 8388 01f8 04       		.byte	0x4
 8389 01f9 12       		.uleb128 .LBB1557-.LBB1553
 8390 01fa 12       		.uleb128 .LBE1557-.LBB1553
 8391 01fb 04       		.byte	0x4
 8392 01fc 12       		.uleb128 .LBB1560-.LBB1553
 8393 01fd 15       		.uleb128 .LBE1560-.LBB1553
 8394 01fe 00       		.byte	0
 8395              	.LLRL68:
 8396 01ff 05       		.byte	0x5
 8397 0200 E3000000 		.long	.LBB1564
 8398 0204 04       		.byte	0x4
 8399 0205 00       		.uleb128 .LBB1564-.LBB1564
 8400 0206 00       		.uleb128 .LBE1564-.LBB1564
 8401 0207 04       		.byte	0x4
 8402 0208 0F       		.uleb128 .LBB1571-.LBB1564
 8403 0209 15       		.uleb128 .LBE1571-.LBB1564
 8404 020a 00       		.byte	0
 8405              	.LLRL70:
 8406 020b 05       		.byte	0x5
 8407 020c 20010000 		.long	.LBB1579
 8408 0210 04       		.byte	0x4
 8409 0211 00       		.uleb128 .LBB1579-.LBB1579
 8410 0212 00       		.uleb128 .LBE1579-.LBB1579
 8411 0213 04       		.byte	0x4
 8412 0214 09       		.uleb128 .LBB1586-.LBB1579
 8413 0215 0F       		.uleb128 .LBE1586-.LBB1579
GAS LISTING /tmp/ccttH9cH.s 			page 155


 8414 0216 00       		.byte	0
 8415              	.LLRL71:
 8416 0217 05       		.byte	0x5
 8417 0218 53010000 		.long	.LBB1587
 8418 021c 04       		.byte	0x4
 8419 021d 00       		.uleb128 .LBB1587-.LBB1587
 8420 021e 00       		.uleb128 .LBE1587-.LBB1587
 8421 021f 04       		.byte	0x4
 8422 0220 09       		.uleb128 .LBB1594-.LBB1587
 8423 0221 0F       		.uleb128 .LBE1594-.LBB1587
 8424 0222 00       		.byte	0
 8425              	.LLRL72:
 8426 0223 05       		.byte	0x5
 8427 0224 86010000 		.long	.LBB1595
 8428 0228 04       		.byte	0x4
 8429 0229 00       		.uleb128 .LBB1595-.LBB1595
 8430 022a 00       		.uleb128 .LBE1595-.LBB1595
 8431 022b 04       		.byte	0x4
 8432 022c 0E       		.uleb128 .LBB1604-.LBB1595
 8433 022d 14       		.uleb128 .LBE1604-.LBB1595
 8434 022e 00       		.byte	0
 8435              	.LLRL73:
 8436 022f 05       		.byte	0x5
 8437 0230 27020000 		.long	.LBB1605
 8438 0234 04       		.byte	0x4
 8439 0235 00       		.uleb128 .LBB1605-.LBB1605
 8440 0236 06       		.uleb128 .LBE1605-.LBB1605
 8441 0237 04       		.byte	0x4
 8442 0238 11       		.uleb128 .LBB1608-.LBB1605
 8443 0239 18       		.uleb128 .LBE1608-.LBB1605
 8444 023a 00       		.byte	0
 8445              	.LLRL75:
 8446 023b 05       		.byte	0x5
 8447 023c BE020000 		.long	.LBB1609
 8448 0240 04       		.byte	0x4
 8449 0241 00       		.uleb128 .LBB1609-.LBB1609
 8450 0242 00       		.uleb128 .LBE1609-.LBB1609
 8451 0243 04       		.byte	0x4
 8452 0244 0D       		.uleb128 .LBB1625-.LBB1609
 8453 0245 13       		.uleb128 .LBE1625-.LBB1609
 8454 0246 00       		.byte	0
 8455              	.LLRL76:
 8456 0247 05       		.byte	0x5
 8457 0248 BF020000 		.long	.LBB1616
 8458 024c 04       		.byte	0x4
 8459 024d 00       		.uleb128 .LBB1616-.LBB1616
 8460 024e 0C       		.uleb128 .LBE1616-.LBB1616
 8461 024f 04       		.byte	0x4
 8462 0250 12       		.uleb128 .LBB1626-.LBB1616
 8463 0251 15       		.uleb128 .LBE1626-.LBB1616
 8464 0252 00       		.byte	0
 8465              	.LLRL78:
 8466 0253 05       		.byte	0x5
 8467 0254 BF020000 		.long	.LBB1617
 8468 0258 04       		.byte	0x4
 8469 0259 00       		.uleb128 .LBB1617-.LBB1617
 8470 025a 0C       		.uleb128 .LBE1617-.LBB1617
GAS LISTING /tmp/ccttH9cH.s 			page 156


 8471 025b 04       		.byte	0x4
 8472 025c 12       		.uleb128 .LBB1621-.LBB1617
 8473 025d 12       		.uleb128 .LBE1621-.LBB1617
 8474 025e 04       		.byte	0x4
 8475 025f 12       		.uleb128 .LBB1624-.LBB1617
 8476 0260 15       		.uleb128 .LBE1624-.LBB1617
 8477 0261 00       		.byte	0
 8478              	.LLRL81:
 8479 0262 05       		.byte	0x5
 8480 0263 F1020000 		.long	.LBB1627
 8481 0267 04       		.byte	0x4
 8482 0268 00       		.uleb128 .LBB1627-.LBB1627
 8483 0269 00       		.uleb128 .LBE1627-.LBB1627
 8484 026a 04       		.byte	0x4
 8485 026b 15       		.uleb128 .LBB1634-.LBB1627
 8486 026c 1B       		.uleb128 .LBE1634-.LBB1627
 8487 026d 00       		.byte	0
 8488              	.LLRL83:
 8489 026e 05       		.byte	0x5
 8490 026f 1D030000 		.long	.LBB1637
 8491 0273 04       		.byte	0x4
 8492 0274 00       		.uleb128 .LBB1637-.LBB1637
 8493 0275 00       		.uleb128 .LBE1637-.LBB1637
 8494 0276 04       		.byte	0x4
 8495 0277 15       		.uleb128 .LBB1644-.LBB1637
 8496 0278 1B       		.uleb128 .LBE1644-.LBB1637
 8497 0279 00       		.byte	0
 8498              	.LLRL84:
 8499 027a 05       		.byte	0x5
 8500 027b 23040000 		.long	.LBB1650
 8501 027f 04       		.byte	0x4
 8502 0280 00       		.uleb128 .LBB1650-.LBB1650
 8503 0281 0C       		.uleb128 .LBE1650-.LBB1650
 8504 0282 04       		.byte	0x4
 8505 0283 12       		.uleb128 .LBB1669-.LBB1650
 8506 0284 1B       		.uleb128 .LBE1669-.LBB1650
 8507 0285 04       		.byte	0x4
 8508 0286 30       		.uleb128 .LBB1671-.LBB1650
 8509 0287 30       		.uleb128 .LBE1671-.LBB1650
 8510 0288 00       		.byte	0
 8511              	.LLRL86:
 8512 0289 05       		.byte	0x5
 8513 028a 23040000 		.long	.LBB1652
 8514 028e 04       		.byte	0x4
 8515 028f 00       		.uleb128 .LBB1652-.LBB1652
 8516 0290 0C       		.uleb128 .LBE1652-.LBB1652
 8517 0291 04       		.byte	0x4
 8518 0292 12       		.uleb128 .LBB1656-.LBB1652
 8519 0293 15       		.uleb128 .LBE1656-.LBB1652
 8520 0294 04       		.byte	0x4
 8521 0295 30       		.uleb128 .LBB1657-.LBB1652
 8522 0296 30       		.uleb128 .LBE1657-.LBB1652
 8523 0297 00       		.byte	0
 8524              	.LLRL89:
 8525 0298 05       		.byte	0x5
 8526 0299 35040000 		.long	.LBB1662
 8527 029d 04       		.byte	0x4
GAS LISTING /tmp/ccttH9cH.s 			page 157


 8528 029e 00       		.uleb128 .LBB1662-.LBB1662
 8529 029f 00       		.uleb128 .LBE1662-.LBB1662
 8530 02a0 04       		.byte	0x4
 8531 02a1 18       		.uleb128 .LBB1670-.LBB1662
 8532 02a2 1E       		.uleb128 .LBE1670-.LBB1662
 8533 02a3 00       		.byte	0
 8534              	.LLRL90:
 8535 02a4 05       		.byte	0x5
 8536 02a5 64040000 		.long	.LBB1672
 8537 02a9 04       		.byte	0x4
 8538 02aa 00       		.uleb128 .LBB1672-.LBB1672
 8539 02ab 00       		.uleb128 .LBE1672-.LBB1672
 8540 02ac 04       		.byte	0x4
 8541 02ad 13       		.uleb128 .LBB1679-.LBB1672
 8542 02ae 19       		.uleb128 .LBE1679-.LBB1672
 8543 02af 00       		.byte	0
 8544              	.LLRL92:
 8545 02b0 05       		.byte	0x5
 8546 02b1 8D040000 		.long	.LBB1682
 8547 02b5 04       		.byte	0x4
 8548 02b6 00       		.uleb128 .LBB1682-.LBB1682
 8549 02b7 00       		.uleb128 .LBE1682-.LBB1682
 8550 02b8 04       		.byte	0x4
 8551 02b9 19       		.uleb128 .LBB1691-.LBB1682
 8552 02ba 1F       		.uleb128 .LBE1691-.LBB1682
 8553 02bb 00       		.byte	0
 8554              	.LLRL93:
 8555 02bc 07       		.byte	0x7
 8556 02bd 00000000 		.long	.LFB304
 8557 02c1 20       		.uleb128 .LFE304-.LFB304
 8558 02c2 07       		.byte	0x7
 8559 02c3 00000000 		.long	.LFB311
 8560 02c7 E003     		.uleb128 .LFE311-.LFB311
 8561 02c9 07       		.byte	0x7
 8562 02ca 00000000 		.long	.LFB303
 8563 02ce 29       		.uleb128 .LFE303-.LFB303
 8564 02cf 07       		.byte	0x7
 8565 02d0 00000000 		.long	.LFB308
 8566 02d4 F208     		.uleb128 .LFE308-.LFB308
 8567 02d6 07       		.byte	0x7
 8568 02d7 00000000 		.long	.LFB305
 8569 02db E709     		.uleb128 .LFE305-.LFB305
 8570 02dd 00       		.byte	0
 8571              	.Ldebug_ranges3:
 8572              		.section	.debug_line,"",@progbits
 8573              	.Ldebug_line0:
 8574 0000 19120000 		.section	.debug_str,"MS",@progbits,1
 8574      05000400 
 8574      9D000000 
 8574      010101FB 
 8574      0E0D0001 
 8575              	.LASF5:
 8576 0000 6C6F6E67 		.string	"long double"
 8576      20646F75 
 8576      626C6500 
 8577              	.LASF57:
 8578 000c 63617365 		.string	"cases"
GAS LISTING /tmp/ccttH9cH.s 			page 158


 8578      7300
 8579              	.LASF83:
 8580 0012 6F736C69 		.string	"oslib_test_002_002_teardown"
 8580      625F7465 
 8580      73745F30 
 8580      30325F30 
 8580      30325F74 
 8581              	.LASF51:
 8582 002e 63685F74 		.string	"ch_test_context_t"
 8582      6573745F 
 8582      636F6E74 
 8582      6578745F 
 8582      7400
 8583              	.LASF88:
 8584 0040 6F736C69 		.string	"oslib_test_002_001_setup"
 8584      625F7465 
 8584      73745F30 
 8584      30325F30 
 8584      30315F73 
 8585              	.LASF31:
 8586 0059 74687265 		.string	"threads_queue_t"
 8586      6164735F 
 8586      71756575 
 8586      655F7400 
 8587              	.LASF39:
 8588 0069 77726974 		.string	"write"
 8588      6500
 8589              	.LASF59:
 8590 006f 706F7274 		.string	"port_irq_sts"
 8590      5F697271 
 8590      5F737473 
 8590      00
 8591              	.LASF72:
 8592 007c 63684D42 		.string	"chMBFetchTimeout"
 8592      46657463 
 8592      6854696D 
 8592      656F7574 
 8592      00
 8593              	.LASF84:
 8594 008d 6F736C69 		.string	"oslib_test_002_002_setup"
 8594      625F7465 
 8594      73745F30 
 8594      30325F30 
 8594      30325F73 
 8595              	.LASF55:
 8596 00a6 65786563 		.string	"execute"
 8596      75746500 
 8597              	.LASF13:
 8598 00ae 73686F72 		.string	"short int"
 8598      7420696E 
 8598      7400
 8599              	.LASF11:
 8600 00b8 73697A65 		.string	"size_t"
 8600      5F7400
 8601              	.LASF92:
 8602 00bf 63684D42 		.string	"chMBGetFreeCountI"
 8602      47657446 
GAS LISTING /tmp/ccttH9cH.s 			page 159


 8602      72656543 
 8602      6F756E74 
 8602      4900
 8603              	.LASF44:
 8604 00d1 676C6F62 		.string	"global_fail"
 8604      616C5F66 
 8604      61696C00 
 8605              	.LASF93:
 8606 00dd 63684D42 		.string	"chMBGetUsedCountI"
 8606      47657455 
 8606      73656443 
 8606      6F756E74 
 8606      4900
 8607              	.LASF49:
 8608 00ef 70757463 		.string	"putchar"
 8608      68617200 
 8609              	.LASF41:
 8610 00f7 42617365 		.string	"BaseSequentialStream"
 8610      53657175 
 8610      656E7469 
 8610      616C5374 
 8610      7265616D 
 8611              	.LASF89:
 8612 010c 6F73616C 		.string	"osalSysUnlock"
 8612      53797355 
 8612      6E6C6F63 
 8612      6B00
 8613              	.LASF60:
 8614 011a 63687465 		.string	"chtest"
 8614      737400
 8615              	.LASF78:
 8616 0121 63684D42 		.string	"chMBPostTimeout"
 8616      506F7374 
 8616      54696D65 
 8616      6F757400 
 8617              	.LASF62:
 8618 0131 6D625F62 		.string	"mb_buffer"
 8618      75666665 
 8618      7200
 8619              	.LASF58:
 8620 013b 74657374 		.string	"testsequence_t"
 8620      73657175 
 8620      656E6365 
 8620      5F7400
 8621              	.LASF56:
 8622 014a 74657374 		.string	"testcase_t"
 8622      63617365 
 8622      5F7400
 8623              	.LASF74:
 8624 0155 63684D42 		.string	"chMBPostAheadI"
 8624      506F7374 
 8624      41686561 
 8624      644900
 8625              	.LASF68:
 8626 0164 63684D42 		.string	"chMBResetI"
 8626      52657365 
 8626      744900
GAS LISTING /tmp/ccttH9cH.s 			page 160


 8627              	.LASF19:
 8628 016f 75696E74 		.string	"uint8_t"
 8628      385F7400 
 8629              	.LASF29:
 8630 0177 63685F74 		.string	"ch_threads_queue"
 8630      68726561 
 8630      64735F71 
 8630      75657565 
 8630      00
 8631              	.LASF66:
 8632 0188 6F736C69 		.string	"oslib_test_sequence_002_array"
 8632      625F7465 
 8632      73745F73 
 8632      65717565 
 8632      6E63655F 
 8633              	.LASF24:
 8634 01a6 63685F71 		.string	"ch_queue_t"
 8634      75657565 
 8634      5F7400
 8635              	.LASF42:
 8636 01b1 74657374 		.string	"test_putchar_t"
 8636      5F707574 
 8636      63686172 
 8636      5F7400
 8637              	.LASF20:
 8638 01c0 75696E74 		.string	"uint32_t"
 8638      33325F74 
 8638      00
 8639              	.LASF43:
 8640 01c9 63757272 		.string	"current_step"
 8640      656E745F 
 8640      73746570 
 8640      00
 8641              	.LASF33:
 8642 01d6 77727074 		.string	"wrptr"
 8642      7200
 8643              	.LASF48:
 8644 01dc 746F6B65 		.string	"tokens_buffer"
 8644      6E735F62 
 8644      75666665 
 8644      7200
 8645              	.LASF96:
 8646 01ea 63685379 		.string	"chSysLock"
 8646      734C6F63 
 8646      6B00
 8647              	.LASF80:
 8648 01f4 6D736732 		.string	"msg2"
 8648      00
 8649              	.LASF53:
 8650 01f9 73657475 		.string	"setup"
 8650      7000
 8651              	.LASF77:
 8652 01ff 5F5F7465 		.string	"__test_assert"
 8652      73745F61 
 8652      73736572 
 8652      7400
 8653              	.LASF40:
GAS LISTING /tmp/ccttH9cH.s 			page 161


 8654 020d 72656164 		.string	"read"
 8654      00
 8655              	.LASF4:
 8656 0212 6C6F6E67 		.string	"long long int"
 8656      206C6F6E 
 8656      6720696E 
 8656      7400
 8657              	.LASF69:
 8658 0220 63684D42 		.string	"chMBObjectInit"
 8658      4F626A65 
 8658      6374496E 
 8658      697400
 8659              	.LASF3:
 8660 022f 6C6F6E67 		.string	"long int"
 8660      20696E74 
 8660      00
 8661              	.LASF46:
 8662 0238 6661696C 		.string	"failure_message"
 8662      7572655F 
 8662      6D657373 
 8662      61676500 
 8663              	.LASF47:
 8664 0248 746F6B70 		.string	"tokp"
 8664      00
 8665              	.LASF50:
 8666 024d 73747265 		.string	"stream"
 8666      616D00
 8667              	.LASF12:
 8668 0254 5F5F7569 		.string	"__uint8_t"
 8668      6E74385F 
 8668      7400
 8669              	.LASF81:
 8670 025e 6F736C69 		.string	"oslib_test_002_003_teardown"
 8670      625F7465 
 8670      73745F30 
 8670      30325F30 
 8670      30335F74 
 8671              	.LASF54:
 8672 027a 74656172 		.string	"teardown"
 8672      646F776E 
 8672      00
 8673              	.LASF30:
 8674 0283 71756575 		.string	"queue"
 8674      6500
 8675              	.LASF52:
 8676 0289 6E616D65 		.string	"name"
 8676      00
 8677              	.LASF90:
 8678 028e 6F73616C 		.string	"osalSysLock"
 8678      5379734C 
 8678      6F636B00 
 8679              	.LASF7:
 8680 029a 756E7369 		.string	"unsigned char"
 8680      676E6564 
 8680      20636861 
 8680      7200
 8681              	.LASF101:
GAS LISTING /tmp/ccttH9cH.s 			page 162


 8682 02a8 5F5F6675 		.string	"__func__"
 8682      6E635F5F 
 8682      00
 8683              	.LASF45:
 8684 02b1 6C6F6361 		.string	"local_fail"
 8684      6C5F6661 
 8684      696C00
 8685              	.LASF86:
 8686 02bc 6F736C69 		.string	"oslib_test_002_001_execute"
 8686      625F7465 
 8686      73745F30 
 8686      30325F30 
 8686      30315F65 
 8687              	.LASF102:
 8688 02d7 5F5F7374 		.string	"__stack_chk_fail_local"
 8688      61636B5F 
 8688      63686B5F 
 8688      6661696C 
 8688      5F6C6F63 
 8689              	.LASF76:
 8690 02ee 63684D42 		.string	"chMBPostI"
 8690      506F7374 
 8690      4900
 8691              	.LASF79:
 8692 02f8 6D736731 		.string	"msg1"
 8692      00
 8693              	.LASF10:
 8694 02fd 7369676E 		.string	"signed char"
 8694      65642063 
 8694      68617200 
 8695              	.LASF16:
 8696 0309 6C6F6E67 		.string	"long long unsigned int"
 8696      206C6F6E 
 8696      6720756E 
 8696      7369676E 
 8696      65642069 
 8697              	.LASF85:
 8698 0320 6F736C69 		.string	"oslib_test_002_002_execute"
 8698      625F7465 
 8698      73745F30 
 8698      30325F30 
 8698      30325F65 
 8699              	.LASF2:
 8700 033b 756E7369 		.string	"unsigned int"
 8700      676E6564 
 8700      20696E74 
 8700      00
 8701              	.LASF100:
 8702 0348 6F736C69 		.string	"oslib_test_002_003_execute"
 8702      625F7465 
 8702      73745F30 
 8702      30325F30 
 8702      30335F65 
 8703              	.LASF71:
 8704 0363 63684D42 		.string	"chMBFetchI"
 8704      46657463 
 8704      684900
GAS LISTING /tmp/ccttH9cH.s 			page 163


 8705              	.LASF70:
 8706 036e 5F5F7465 		.string	"__test_assert_sequence"
 8706      73745F61 
 8706      73736572 
 8706      745F7365 
 8706      7175656E 
 8707              	.LASF87:
 8708 0385 6F736C69 		.string	"oslib_test_002_001_teardown"
 8708      625F7465 
 8708      73745F30 
 8708      30325F30 
 8708      30315F74 
 8709              	.LASF82:
 8710 03a1 6F736C69 		.string	"oslib_test_002_003_setup"
 8710      625F7465 
 8710      73745F30 
 8710      30325F30 
 8710      30335F73 
 8711              	.LASF61:
 8712 03ba 6F736C69 		.string	"oslib_test_sequence_002"
 8712      625F7465 
 8712      73745F73 
 8712      65717565 
 8712      6E63655F 
 8713              	.LASF17:
 8714 03d2 63686172 		.string	"char"
 8714      00
 8715              	.LASF18:
 8716 03d7 696E7433 		.string	"int32_t"
 8716      325F7400 
 8717              	.LASF36:
 8718 03df 6D61696C 		.string	"mailbox_t"
 8718      626F785F 
 8718      7400
 8719              	.LASF8:
 8720 03e9 73686F72 		.string	"short unsigned int"
 8720      7420756E 
 8720      7369676E 
 8720      65642069 
 8720      6E7400
 8721              	.LASF27:
 8722 03fc 5F426F6F 		.string	"_Bool"
 8722      6C00
 8723              	.LASF97:
 8724 0402 706F7274 		.string	"port_unlock"
 8724      5F756E6C 
 8724      6F636B00 
 8725              	.LASF23:
 8726 040e 73797369 		.string	"sysinterval_t"
 8726      6E746572 
 8726      76616C5F 
 8726      7400
 8727              	.LASF32:
 8728 041c 62756666 		.string	"buffer"
 8728      657200
 8729              	.LASF9:
 8730 0423 6C6F6E67 		.string	"long unsigned int"
GAS LISTING /tmp/ccttH9cH.s 			page 164


 8730      20756E73 
 8730      69676E65 
 8730      6420696E 
 8730      7400
 8731              	.LASF98:
 8732 0435 706F7274 		.string	"port_lock"
 8732      5F6C6F63 
 8732      6B00
 8733              	.LASF73:
 8734 043f 63684D42 		.string	"chMBReset"
 8734      52657365 
 8734      7400
 8735              	.LASF15:
 8736 0449 5F5F7569 		.string	"__uint32_t"
 8736      6E743332 
 8736      5F7400
 8737              	.LASF95:
 8738 0454 63685379 		.string	"chSysUnlock"
 8738      73556E6C 
 8738      6F636B00 
 8739              	.LASF35:
 8740 0460 72657365 		.string	"reset"
 8740      7400
 8741              	.LASF14:
 8742 0466 5F5F696E 		.string	"__int32_t"
 8742      7433325F 
 8742      7400
 8743              	.LASF75:
 8744 0470 63684D42 		.string	"chMBPostAheadTimeout"
 8744      506F7374 
 8744      41686561 
 8744      6454696D 
 8744      656F7574 
 8745              	.LASF99:
 8746 0485 474E5520 		.string	"GNU C17 11.4.0 -m32 -mtune=generic -march=i686 -ggdb -O2 -ffunction-sections -fdata-secti
 8746      43313720 
 8746      31312E34 
 8746      2E30202D 
 8746      6D333220 
 8747              	.LASF94:
 8748 053d 63684D42 		.string	"chMBGetSizeI"
 8748      47657453 
 8748      697A6549 
 8748      00
 8749              	.LASF28:
 8750 054a 63685F71 		.string	"ch_queue"
 8750      75657565 
 8750      00
 8751              	.LASF6:
 8752 0553 5F466C6F 		.string	"_Float128"
 8752      61743132 
 8752      3800
 8753              	.LASF63:
 8754 055d 6F736C69 		.string	"oslib_test_002_001"
 8754      625F7465 
 8754      73745F30 
 8754      30325F30 
GAS LISTING /tmp/ccttH9cH.s 			page 165


 8754      303100
 8755              	.LASF64:
 8756 0570 6F736C69 		.string	"oslib_test_002_002"
 8756      625F7465 
 8756      73745F30 
 8756      30325F30 
 8756      303200
 8757              	.LASF65:
 8758 0583 6F736C69 		.string	"oslib_test_002_003"
 8758      625F7465 
 8758      73745F30 
 8758      30325F30 
 8758      303300
 8759              	.LASF34:
 8760 0596 72647074 		.string	"rdptr"
 8760      7200
 8761              	.LASF67:
 8762 059c 74657374 		.string	"test_emit_token"
 8762      5F656D69 
 8762      745F746F 
 8762      6B656E00 
 8763              	.LASF26:
 8764 05ac 70726576 		.string	"prev"
 8764      00
 8765              	.LASF38:
 8766 05b1 696E7374 		.string	"instance_offset"
 8766      616E6365 
 8766      5F6F6666 
 8766      73657400 
 8767              	.LASF91:
 8768 05c1 63684D42 		.string	"chMBResumeX"
 8768      52657375 
 8768      6D655800 
 8769              	.LASF21:
 8770 05cd 73797373 		.string	"syssts_t"
 8770      74735F74 
 8770      00
 8771              	.LASF22:
 8772 05d6 6D73675F 		.string	"msg_t"
 8772      7400
 8773              	.LASF25:
 8774 05dc 6E657874 		.string	"next"
 8774      00
 8775              	.LASF37:
 8776 05e1 42617365 		.string	"BaseSequentialStreamVMT"
 8776      53657175 
 8776      656E7469 
 8776      616C5374 
 8776      7265616D 
 8777              		.section	.debug_line_str,"MS",@progbits,1
 8778              	.LASF1:
 8779 0000 2F686F6D 		.string	"/home/alex/ChibiOS/demos/various/LAB3"
 8779      652F616C 
 8779      65782F43 
 8779      68696269 
 8779      4F532F64 
 8780              	.LASF0:
GAS LISTING /tmp/ccttH9cH.s 			page 166


 8781 0026 2E2E2F2E 		.string	"../../../test/oslib/source/test/oslib_test_sequence_002.c"
 8781      2E2F2E2E 
 8781      2F746573 
 8781      742F6F73 
 8781      6C69622F 
 8782              		.hidden	__stack_chk_fail_local
 8783              		.ident	"GCC: (Ubuntu 11.4.0-1ubuntu1~22.04) 11.4.0"
 8784 0060 2F686F6D 		.section	.note.GNU-stack,"",@progbits
 8784      652F616C 
 8784      65782F43 
 8784      68696269 
 8784      4F532F64 
GAS LISTING /tmp/ccttH9cH.s 			page 167


DEFINED SYMBOLS
                            *ABS*:0000000000000000 oslib_test_sequence_002.c
     /tmp/ccttH9cH.s:8      .text.oslib_test_002_001_teardown:0000000000000000 oslib_test_002_001_teardown
     /tmp/ccttH9cH.s:3611   .text.__x86.get_pc_thunk.bx:0000000000000000 __x86.get_pc_thunk.bx
     /tmp/ccttH9cH.s:3589   .data.rel.local.mb1:0000000000000000 mb1
     /tmp/ccttH9cH.s:44     .text.oslib_test_002_003_execute:0000000000000000 oslib_test_002_003_execute
     /tmp/ccttH9cH.s:549    .text.oslib_test_002_001_setup:0000000000000000 oslib_test_002_001_setup
     /tmp/ccttH9cH.s:3605   .bss.mb_buffer:0000000000000000 mb_buffer
     /tmp/ccttH9cH.s:611    .text.oslib_test_002_002_execute:0000000000000000 oslib_test_002_002_execute
     /tmp/ccttH9cH.s:2004   .text.oslib_test_002_001_execute:0000000000000000 oslib_test_002_001_execute
     /tmp/ccttH9cH.s:3415   .text.oslib_test_002_003_teardown:0000000000000000 oslib_test_002_003_teardown
     /tmp/ccttH9cH.s:3441   .text.oslib_test_002_002_teardown:0000000000000000 oslib_test_002_002_teardown
     /tmp/ccttH9cH.s:3467   .text.oslib_test_002_002_setup:0000000000000000 oslib_test_002_002_setup
     /tmp/ccttH9cH.s:3498   .text.oslib_test_002_003_setup:0000000000000000 oslib_test_002_003_setup
     /tmp/ccttH9cH.s:3534   .data.rel.ro.local.oslib_test_sequence_002:0000000000000000 oslib_test_sequence_002
     /tmp/ccttH9cH.s:3542   .data.rel.ro.local.oslib_test_sequence_002_array:0000000000000000 oslib_test_sequence_002_array
     /tmp/ccttH9cH.s:3580   .data.rel.ro.local.oslib_test_002_001:0000000000000000 oslib_test_002_001
     /tmp/ccttH9cH.s:3567   .data.rel.ro.local.oslib_test_002_002:0000000000000000 oslib_test_002_002
     /tmp/ccttH9cH.s:3554   .data.rel.ro.local.oslib_test_002_003:0000000000000000 oslib_test_002_003
     /tmp/ccttH9cH.s:39     .rodata.oslib_test_002_003_execute.str1.1:0000000000000000 .LC0
     /tmp/ccttH9cH.s:584    .rodata.oslib_test_002_002_execute.str1.1:0000000000000000 .LC1
     /tmp/ccttH9cH.s:586    .rodata.oslib_test_002_002_execute.str1.1:000000000000000b .LC2
     /tmp/ccttH9cH.s:588    .rodata.oslib_test_002_002_execute.str1.1:0000000000000015 .LC3
     /tmp/ccttH9cH.s:592    .rodata.oslib_test_002_002_execute.str1.4:0000000000000000 .LC4
     /tmp/ccttH9cH.s:595    .rodata.oslib_test_002_002_execute.str1.4:0000000000000024 .LC5
     /tmp/ccttH9cH.s:598    .rodata.oslib_test_002_002_execute.str1.1:0000000000000020 .LC6
     /tmp/ccttH9cH.s:600    .rodata.oslib_test_002_002_execute.str1.1:000000000000002c .LC7
     /tmp/ccttH9cH.s:602    .rodata.oslib_test_002_002_execute.str1.1:0000000000000035 .LC8
     /tmp/ccttH9cH.s:604    .rodata.oslib_test_002_002_execute.str1.1:000000000000004a .LC9
     /tmp/ccttH9cH.s:606    .rodata.oslib_test_002_002_execute.str1.1:000000000000005d .LC10
     /tmp/ccttH9cH.s:1999   .rodata.oslib_test_002_001_execute.str1.1:0000000000000000 .LC11

UNDEFINED SYMBOLS
_GLOBAL_OFFSET_TABLE_
chMBReset
chtest
chMBPostTimeout
__test_assert
port_irq_sts
chMBPostI
chMBPostAheadTimeout
chMBPostAheadI
chMBFetchTimeout
chMBFetchI
__stack_chk_fail_local
chMBObjectInit
chMBResetI
test_emit_token
__test_assert_sequence
