GAS LISTING /tmp/ccf6NU24.s 			page 1


   1              		.file	"oslib_test_sequence_004.c"
   2              		.text
   3              	.Ltext0:
   4              		.file 0 "/home/alex/ChibiOS/demos/various/LAB2" "../../../test/oslib/source/test/oslib_test_sequen
   5              		.section	.text.job_slow,"ax",@progbits
   6              		.p2align 4
   7              		.type	job_slow, @function
   8              	job_slow:
   9              	.LVL0:
  10              	.LFB303:
  11              		.file 1 "../../../test/oslib/source/test/oslib_test_sequence_004.c"
  12              		.loc 1 55 33 view -0
  13              		.cfi_startproc
  14              		.loc 1 57 3 view .LVU1
  15              		.loc 1 55 33 is_stmt 0 view .LVU2
  16 0000 53       		pushl	%ebx
  17              		.cfi_def_cfa_offset 8
  18              		.cfi_offset 3, -8
  19 0001 E8FCFFFF 		call	__x86.get_pc_thunk.bx
  19      FF
  20 0006 81C30200 		addl	$_GLOBAL_OFFSET_TABLE_, %ebx
  20      0000
  21 000c 83EC14   		subl	$20, %esp
  22              		.cfi_def_cfa_offset 28
  23              		.loc 1 57 3 view .LVU3
  24 000f 0FBE4424 		movsbl	28(%esp), %eax
  24      1C
  25 0014 50       		pushl	%eax
  26              		.cfi_def_cfa_offset 32
  27 0015 E8FCFFFF 		call	test_emit_token@PLT
  27      FF
  28              	.LVL1:
  29              		.loc 1 58 3 is_stmt 1 view .LVU4
  30 001a C704240A 		movl	$10, (%esp)
  30      000000
  31 0021 E8FCFFFF 		call	chThdSleep@PLT
  31      FF
  32              	.LVL2:
  33              		.loc 1 59 1 is_stmt 0 view .LVU5
  34 0026 83C418   		addl	$24, %esp
  35              		.cfi_def_cfa_offset 8
  36 0029 5B       		popl	%ebx
  37              		.cfi_restore 3
  38              		.cfi_def_cfa_offset 4
  39 002a C3       		ret
  40              		.cfi_endproc
  41              	.LFE303:
  42              		.size	job_slow, .-job_slow
  43              		.section	.text.Thread1,"ax",@progbits
  44              		.p2align 4
  45              		.type	Thread1, @function
  46              	Thread1:
  47              	.LVL3:
  48              	.LFB304:
  49              		.loc 1 63 35 is_stmt 1 view -0
  50              		.cfi_startproc
  51              		.loc 1 63 35 is_stmt 0 view .LVU7
GAS LISTING /tmp/ccf6NU24.s 			page 2


  52 0000 55       		pushl	%ebp
  53              		.cfi_def_cfa_offset 8
  54              		.cfi_offset 5, -8
  55 0001 57       		pushl	%edi
  56              		.cfi_def_cfa_offset 12
  57              		.cfi_offset 7, -12
  58 0002 56       		pushl	%esi
  59              		.cfi_def_cfa_offset 16
  60              		.cfi_offset 6, -16
  61 0003 53       		pushl	%ebx
  62              		.cfi_def_cfa_offset 20
  63              		.cfi_offset 3, -20
  64 0004 E8FCFFFF 		call	__x86.get_pc_thunk.bx
  64      FF
  65 0009 81C30200 		addl	$_GLOBAL_OFFSET_TABLE_, %ebx
  65      0000
  66 000f 83EC2C   		subl	$44, %esp
  67              		.cfi_def_cfa_offset 64
  68              		.loc 1 63 35 view .LVU8
  69 0012 65A11400 		movl	%gs:20, %eax
  69      0000
  70 0018 8944241C 		movl	%eax, 28(%esp)
  71 001c 31C0     		xorl	%eax, %eax
  72 001e 8D7C2418 		leal	24(%esp), %edi
  73 0022 8DB31C00 		leal	28+jq@GOTOFF(%ebx), %esi
  73      0000
  74              	.LBB33:
  75              	.LBB34:
  76              	.LBB35:
  77              		.file 2 "../../../os/oslib/include/chjobs.h"
  78              		.loc 2 362 7 view .LVU9
  79 0028 8D46E4   		leal	-28(%esi), %eax
  80 002b 8944240C 		movl	%eax, 12(%esp)
  81 002f 90       		.p2align 4,,10
  82              		.p2align 3
  83              	.L7:
  84              		.loc 2 362 7 view .LVU10
  85              	.LBE35:
  86              	.LBE34:
  87              	.LBE33:
  88              		.loc 1 64 3 is_stmt 1 discriminator 1 view .LVU11
  89              		.loc 1 66 3 discriminator 1 view .LVU12
  90              		.loc 1 68 3 discriminator 1 view .LVU13
  91              		.loc 1 69 5 discriminator 1 view .LVU14
  92              	.LBB40:
  93              	.LBI33:
  94              		.loc 2 346 21 discriminator 1 view .LVU15
  95              	.LVL4:
  96              	.LBB37:
  97              		.loc 2 347 3 discriminator 1 view .LVU16
  98              		.loc 2 350 3 discriminator 1 view .LVU17
  99              		.loc 2 350 9 is_stmt 0 discriminator 1 view .LVU18
 100 0030 83EC04   		subl	$4, %esp
 101              		.cfi_def_cfa_offset 68
 102 0033 6AFF     		pushl	$-1
 103              		.cfi_def_cfa_offset 72
 104 0035 57       		pushl	%edi
GAS LISTING /tmp/ccf6NU24.s 			page 3


 105              		.cfi_def_cfa_offset 76
 106 0036 56       		pushl	%esi
 107              		.cfi_def_cfa_offset 80
 108 0037 E8FCFFFF 		call	chMBFetchTimeout@PLT
 108      FF
 109              	.LVL5:
 110              		.loc 2 351 3 is_stmt 1 discriminator 1 view .LVU19
 111              		.loc 2 351 6 is_stmt 0 discriminator 1 view .LVU20
 112 003c 83C410   		addl	$16, %esp
 113              		.cfi_def_cfa_offset 64
 114 003f 85C0     		testl	%eax, %eax
 115 0041 741D     		je	.L10
 116              	.L4:
 117              	.LBE37:
 118              	.LBE40:
 119              		.loc 1 71 1 view .LVU21
 120 0043 8B44241C 		movl	28(%esp), %eax
 121 0047 652B0514 		subl	%gs:20, %eax
 121      000000
 122              	.LVL6:
 123              		.loc 1 71 1 view .LVU22
 124 004e 7534     		jne	.L11
 125 0050 83C42C   		addl	$44, %esp
 126              		.cfi_remember_state
 127              		.cfi_def_cfa_offset 20
 128 0053 5B       		popl	%ebx
 129              		.cfi_restore 3
 130              		.cfi_def_cfa_offset 16
 131 0054 5E       		popl	%esi
 132              		.cfi_restore 6
 133              		.cfi_def_cfa_offset 12
 134 0055 5F       		popl	%edi
 135              		.cfi_restore 7
 136              		.cfi_def_cfa_offset 8
 137 0056 5D       		popl	%ebp
 138              		.cfi_restore 5
 139              		.cfi_def_cfa_offset 4
 140 0057 C3       		ret
 141              	.LVL7:
 142 0058 8DB42600 		.p2align 4,,10
 142      00000090 
 143              		.p2align 3
 144              	.L10:
 145              		.cfi_restore_state
 146              	.LBB41:
 147              	.LBB38:
 148              	.LBB36:
 149              		.loc 2 352 5 is_stmt 1 view .LVU23
 150              		.loc 2 352 23 is_stmt 0 view .LVU24
 151 0060 8B6C2418 		movl	24(%esp), %ebp
 152              	.LVL8:
 153              		.loc 2 354 5 is_stmt 1 view .LVU25
 154              		.loc 2 354 5 view .LVU26
 155              		.loc 2 354 5 view .LVU27
 156              		.loc 2 356 5 view .LVU28
 157              		.loc 2 356 11 is_stmt 0 view .LVU29
 158 0064 8B5500   		movl	0(%ebp), %edx
GAS LISTING /tmp/ccf6NU24.s 			page 4


 159              		.loc 2 356 8 view .LVU30
 160 0067 85D2     		testl	%edx, %edx
 161 0069 74D8     		je	.L4
 162              		.loc 2 359 7 is_stmt 1 view .LVU31
 163 006b 83EC0C   		subl	$12, %esp
 164              		.cfi_def_cfa_offset 76
 165 006e FF7504   		pushl	4(%ebp)
 166              		.cfi_def_cfa_offset 80
 167 0071 FFD2     		call	*%edx
 168              	.LVL9:
 169              		.loc 2 362 7 view .LVU32
 170 0073 58       		popl	%eax
 171              		.cfi_def_cfa_offset 76
 172 0074 5A       		popl	%edx
 173              		.cfi_def_cfa_offset 72
 174 0075 55       		pushl	%ebp
 175              		.cfi_def_cfa_offset 76
 176 0076 FF742418 		pushl	24(%esp)
 177              		.cfi_def_cfa_offset 80
 178 007a E8FCFFFF 		call	chGuardedPoolFree@PLT
 178      FF
 179              	.LVL10:
 180              		.loc 2 362 7 is_stmt 0 view .LVU33
 181              	.LBE36:
 182              		.loc 2 369 3 is_stmt 1 view .LVU34
 183              		.loc 2 369 3 is_stmt 0 view .LVU35
 184              	.LBE38:
 185              	.LBE41:
 186              		.loc 1 70 16 is_stmt 1 view .LVU36
 187              	.LBB42:
 188              	.LBB39:
 189 007f 83C410   		addl	$16, %esp
 190              		.cfi_def_cfa_offset 64
 191 0082 EBAC     		jmp	.L7
 192              	.LVL11:
 193              	.L11:
 194              		.loc 1 70 16 is_stmt 0 view .LVU37
 195              	.LBE39:
 196              	.LBE42:
 197              		.loc 1 71 1 view .LVU38
 198 0084 E8FCFFFF 		call	__stack_chk_fail_local
 198      FF
 199              	.LVL12:
 200              		.cfi_endproc
 201              	.LFE304:
 202              		.size	Thread1, .-Thread1
 203              		.section	.rodata.oslib_test_004_001_execute.str1.1,"aMS",@progbits,1
 204              	.LC0:
 205 0000 64697370 		.string	"dispatcher1"
 205      61746368 
 205      65723100 
 206              	.LC1:
 207 000c 64697370 		.string	"dispatcher2"
 207      61746368 
 207      65723200 
 208              	.LC2:
 209 0018 756E6578 		.string	"unexpected tokens"
GAS LISTING /tmp/ccf6NU24.s 			page 5


 209      70656374 
 209      65642074 
 209      6F6B656E 
 209      7300
 210              	.LC3:
 211 002a 61626364 		.string	"abcdefgh"
 211      65666768 
 211      00
 212              		.section	.text.oslib_test_004_001_execute,"ax",@progbits
 213              		.p2align 4
 214              		.type	oslib_test_004_001_execute, @function
 215              	oslib_test_004_001_execute:
 216              	.LFB305:
 217              		.loc 1 91 46 is_stmt 1 view -0
 218              		.cfi_startproc
 219 0000 55       		pushl	%ebp
 220              		.cfi_def_cfa_offset 8
 221              		.cfi_offset 5, -8
 222 0001 57       		pushl	%edi
 223              		.cfi_def_cfa_offset 12
 224              		.cfi_offset 7, -12
 225 0002 56       		pushl	%esi
 226              		.cfi_def_cfa_offset 16
 227              		.cfi_offset 6, -16
 228 0003 53       		pushl	%ebx
 229              		.cfi_def_cfa_offset 20
 230              		.cfi_offset 3, -20
 231 0004 E8FCFFFF 		call	__x86.get_pc_thunk.bx
 231      FF
 232 0009 81C30200 		addl	$_GLOBAL_OFFSET_TABLE_, %ebx
 232      0000
 233 000f 83EC60   		subl	$96, %esp
 234              		.cfi_def_cfa_offset 116
 235              		.loc 1 91 46 is_stmt 0 view .LVU40
 236 0012 65A11400 		movl	%gs:20, %eax
 236      0000
 237 0018 89442450 		movl	%eax, 80(%esp)
 238 001c 31C0     		xorl	%eax, %eax
 239              		.loc 1 92 3 is_stmt 1 view .LVU41
 240              		.loc 1 95 3 view .LVU42
 241 001e 8BB30000 		movl	chtest@GOT(%ebx), %esi
 241      0000
 242              	.LBB72:
 243              	.LBB73:
 244              	.LBB74:
 245              	.LBB75:
 246              		.file 3 "../../../os/oslib/include/chmempools.h"
 247              		.loc 3 250 3 is_stmt 0 view .LVU43
 248 0024 8DBB0000 		leal	jq@GOTOFF(%ebx), %edi
 248      0000
 249              	.LBE75:
 250              	.LBE74:
 251              		.loc 2 148 3 view .LVU44
 252 002a 8D6F1C   		leal	28(%edi), %ebp
 253              	.LBE73:
 254              	.LBE72:
 255              		.loc 1 95 3 view .LVU45
GAS LISTING /tmp/ccf6NU24.s 			page 6


 256 002d C7060100 		movl	$1, (%esi)
 256      0000
 257              		.loc 1 97 5 is_stmt 1 view .LVU46
 258              	.LBB79:
 259              	.LBI72:
 260              		.loc 2 139 20 view .LVU47
 261              	.LVL13:
 262              	.LBB78:
 263              		.loc 2 144 3 view .LVU48
 264              		.loc 2 144 3 view .LVU49
 265              		.loc 2 144 3 view .LVU50
 266              		.loc 2 146 3 view .LVU51
 267              	.LBB77:
 268              	.LBI74:
 269              		.loc 3 247 20 view .LVU52
 270              	.LBB76:
 271              		.loc 3 250 3 view .LVU53
 272 0033 6A04     		pushl	$4
 273              		.cfi_def_cfa_offset 120
 274 0035 6A08     		pushl	$8
 275              		.cfi_def_cfa_offset 124
 276 0037 57       		pushl	%edi
 277              		.cfi_def_cfa_offset 128
 278 0038 E8FCFFFF 		call	chGuardedPoolObjectInitAligned@PLT
 278      FF
 279              	.LVL14:
 280              		.loc 3 250 3 is_stmt 0 view .LVU54
 281              	.LBE76:
 282              	.LBE77:
 283              		.loc 2 147 3 is_stmt 1 view .LVU55
 284 003d 83C40C   		addl	$12, %esp
 285              		.cfi_def_cfa_offset 116
 286 0040 8D830000 		leal	jobs@GOTOFF(%ebx), %eax
 286      0000
 287 0046 6A04     		pushl	$4
 288              		.cfi_def_cfa_offset 120
 289 0048 50       		pushl	%eax
 290              		.cfi_def_cfa_offset 124
 291 0049 57       		pushl	%edi
 292              		.cfi_def_cfa_offset 128
 293 004a E8FCFFFF 		call	chGuardedPoolLoadArray@PLT
 293      FF
 294              	.LVL15:
 295              		.loc 2 148 3 view .LVU56
 296 004f 83C40C   		addl	$12, %esp
 297              		.cfi_def_cfa_offset 116
 298 0052 8D830000 		leal	msg_queue@GOTOFF(%ebx), %eax
 298      0000
 299 0058 6A04     		pushl	$4
 300              		.cfi_def_cfa_offset 120
 301 005a 50       		pushl	%eax
 302              		.cfi_def_cfa_offset 124
 303 005b 55       		pushl	%ebp
 304              		.cfi_def_cfa_offset 128
 305 005c E8FCFFFF 		call	chMBObjectInit@PLT
 305      FF
 306              	.LVL16:
GAS LISTING /tmp/ccf6NU24.s 			page 7


 307              		.loc 2 148 3 is_stmt 0 view .LVU57
 308              	.LBE78:
 309              	.LBE79:
 310              		.loc 1 99 3 is_stmt 1 view .LVU58
 311              		.loc 1 99 19 view .LVU59
 312              		.loc 1 102 3 view .LVU60
 313              	.LBB80:
 314              		.loc 1 104 25 is_stmt 0 view .LVU61
 315 0061 8D830000 		leal	.LC0@GOTOFF(%ebx), %eax
 315      0000
 316              	.LBE80:
 317              		.loc 1 102 3 view .LVU62
 318 0067 89742414 		movl	%esi, 20(%esp)
 319              	.LBB99:
 320              	.LBB81:
 321              	.LBB82:
 322              	.LBB83:
 323              	.LBB84:
 324              		.file 4 "../../../os/rt/include/chthreads.h"
 325              		.loc 4 529 10 view .LVU63
 326 006b 8B930000 		movl	ch0@GOT(%ebx), %edx
 326      0000
 327              	.LBE84:
 328              	.LBE83:
 329              	.LBE82:
 330              	.LBE81:
 331              		.loc 1 104 25 view .LVU64
 332 0071 89442424 		movl	%eax, 36(%esp)
 333 0075 8D830000 		leal	wa1Thread1@GOTOFF(%ebx), %eax
 333      0000
 334 007b 89442428 		movl	%eax, 40(%esp)
 335 007f 05804100 		addl	$16768, %eax
 335      00
 336 0084 8944242C 		movl	%eax, 44(%esp)
 337              	.LBB90:
 338              	.LBB87:
 339              		.loc 4 542 37 view .LVU65
 340 0088 8B420C   		movl	12(%edx), %eax
 341              	.LBE87:
 342              	.LBE90:
 343              	.LBE99:
 344              		.loc 1 102 3 view .LVU66
 345 008b C7060200 		movl	$2, (%esi)
 345      0000
 346              	.LBB100:
 347              		.loc 1 104 5 is_stmt 1 view .LVU67
 348              	.LBB91:
 349              	.LBI81:
 350              		.loc 4 540 23 view .LVU68
 351              	.LBB88:
 352              		.loc 4 542 3 view .LVU69
 353              	.LBB86:
 354              	.LBI83:
 355              		.loc 4 527 25 view .LVU70
 356              	.LBB85:
 357              		.loc 4 529 3 view .LVU71
 358              	.LBE85:
GAS LISTING /tmp/ccf6NU24.s 			page 8


 359              	.LBE86:
 360              	.LBE88:
 361              	.LBE91:
 362              		.loc 1 104 25 is_stmt 0 view .LVU72
 363 0091 8DB30000 		leal	Thread1@GOTOFF(%ebx), %esi
 363      0000
 364              		.loc 1 108 36 view .LVU73
 365 0097 8B4008   		movl	8(%eax), %eax
 366              	.LBB92:
 367              	.LBB89:
 368              		.loc 4 542 37 view .LVU74
 369 009a 89542410 		movl	%edx, 16(%esp)
 370              	.LBE89:
 371              	.LBE92:
 372              		.loc 1 104 25 view .LVU75
 373 009e 89742434 		movl	%esi, 52(%esp)
 374              		.loc 1 112 5 is_stmt 1 view .LVU76
 375              		.loc 1 108 36 is_stmt 0 view .LVU77
 376 00a2 83E801   		subl	$1, %eax
 377              		.loc 1 104 25 view .LVU78
 378 00a5 C7442438 		movl	$0, 56(%esp)
 378      00000000 
 379 00ad C744243C 		movl	$0, 60(%esp)
 379      00000000 
 380 00b5 89442430 		movl	%eax, 48(%esp)
 381              		.loc 1 112 11 view .LVU79
 382 00b9 58       		popl	%eax
 383              		.cfi_def_cfa_offset 124
 384 00ba 8D442420 		leal	32(%esp), %eax
 385 00be 50       		pushl	%eax
 386              		.cfi_def_cfa_offset 128
 387 00bf E8FCFFFF 		call	chThdCreate@PLT
 387      FF
 388              	.LVL17:
 389              	.LBB93:
 390              	.LBB94:
 391              		.loc 4 542 37 view .LVU80
 392 00c4 8B542410 		movl	16(%esp), %edx
 393              	.LBE94:
 394              	.LBE93:
 395              		.loc 1 114 25 view .LVU81
 396 00c8 C7442454 		movl	$0, 84(%esp)
 396      00000000 
 397              		.loc 1 112 11 view .LVU82
 398 00d0 89442418 		movl	%eax, 24(%esp)
 399              	.LVL18:
 400              		.loc 1 114 5 is_stmt 1 view .LVU83
 401              		.loc 1 114 25 is_stmt 0 view .LVU84
 402 00d4 8D830000 		leal	.LC1@GOTOFF(%ebx), %eax
 402      0000
 403              	.LVL19:
 404              		.loc 1 114 25 view .LVU85
 405 00da 89442440 		movl	%eax, 64(%esp)
 406 00de 8D830000 		leal	wa2Thread1@GOTOFF(%ebx), %eax
 406      0000
 407 00e4 89442444 		movl	%eax, 68(%esp)
 408 00e8 05804100 		addl	$16768, %eax
GAS LISTING /tmp/ccf6NU24.s 			page 9


 408      00
 409 00ed 89442448 		movl	%eax, 72(%esp)
 410              	.LBB98:
 411              	.LBI93:
 412              		.loc 4 540 23 is_stmt 1 view .LVU86
 413              	.LBB97:
 414              		.loc 4 542 3 view .LVU87
 415              	.LBB95:
 416              	.LBI95:
 417              		.loc 4 527 25 view .LVU88
 418              	.LBB96:
 419              		.loc 4 529 3 view .LVU89
 420              	.LBE96:
 421              	.LBE95:
 422              		.loc 4 542 37 is_stmt 0 view .LVU90
 423 00f1 8B420C   		movl	12(%edx), %eax
 424              	.LBE97:
 425              	.LBE98:
 426              		.loc 1 114 25 view .LVU91
 427 00f4 C7442458 		movl	$0, 88(%esp)
 427      00000000 
 428              		.loc 1 118 36 view .LVU92
 429 00fc 8B4008   		movl	8(%eax), %eax
 430              		.loc 1 114 25 view .LVU93
 431 00ff 89742450 		movl	%esi, 80(%esp)
 432              		.loc 1 122 5 is_stmt 1 view .LVU94
 433              		.loc 1 118 36 is_stmt 0 view .LVU95
 434 0103 83E802   		subl	$2, %eax
 435              		.loc 1 114 25 view .LVU96
 436 0106 8944244C 		movl	%eax, 76(%esp)
 437              		.loc 1 122 11 view .LVU97
 438 010a 58       		popl	%eax
 439              		.cfi_def_cfa_offset 124
 440 010b 8D44243C 		leal	60(%esp), %eax
 441 010f 50       		pushl	%eax
 442              		.cfi_def_cfa_offset 128
 443 0110 E8FCFFFF 		call	chThdCreate@PLT
 443      FF
 444              	.LVL20:
 445              	.LBE100:
 446              		.loc 1 127 3 view .LVU98
 447 0115 8B742414 		movl	20(%esp), %esi
 448              	.LBB101:
 449              		.loc 1 122 11 view .LVU99
 450 0119 8944241C 		movl	%eax, 28(%esp)
 451              	.LVL21:
 452              		.loc 1 122 11 view .LVU100
 453              	.LBE101:
 454              		.loc 1 124 3 is_stmt 1 view .LVU101
 455              		.loc 1 124 19 view .LVU102
 456              		.loc 1 127 3 view .LVU103
 457 011d 83C410   		addl	$16, %esp
 458              		.cfi_def_cfa_offset 112
 459 0120 8D830000 		leal	job_slow@GOTOFF(%ebx), %eax
 459      0000
 460              	.LVL22:
 461              		.loc 1 127 3 is_stmt 0 view .LVU104
GAS LISTING /tmp/ccf6NU24.s 			page 10


 462 0126 C7060300 		movl	$3, (%esi)
 462      0000
 463              	.LBB102:
 464              		.loc 1 129 5 is_stmt 1 view .LVU105
 465              		.loc 1 130 5 view .LVU106
 466              		.loc 1 132 5 view .LVU107
 467              	.LVL23:
 468              		.loc 1 132 19 view .LVU108
 469              	.LBE102:
 470              		.loc 1 127 3 is_stmt 0 view .LVU109
 471 012c BE610000 		movl	$97, %esi
 471      00
 472 0131 890424   		movl	%eax, (%esp)
 473              	.LVL24:
 474              		.p2align 4,,10
 475 0134 8D742600 		.p2align 3
 476              	.L13:
 477              	.LBB109:
 478              		.loc 1 133 7 is_stmt 1 view .LVU110
 479              	.LBB103:
 480              	.LBI103:
 481              		.loc 2 182 33 view .LVU111
 482              	.LBB104:
 483              		.loc 2 184 3 view .LVU112
 484              		.loc 2 184 30 is_stmt 0 view .LVU113
 485 0138 83EC08   		subl	$8, %esp
 486              		.cfi_def_cfa_offset 120
 487 013b 6AFF     		pushl	$-1
 488              		.cfi_def_cfa_offset 124
 489 013d 57       		pushl	%edi
 490              		.cfi_def_cfa_offset 128
 491 013e E8FCFFFF 		call	chGuardedPoolAllocTimeout@PLT
 491      FF
 492              	.LVL25:
 493              		.loc 2 184 30 view .LVU114
 494              	.LBE104:
 495              	.LBE103:
 496              		.loc 1 134 7 is_stmt 1 view .LVU115
 497              		.loc 1 134 20 is_stmt 0 view .LVU116
 498 0143 8B4C2410 		movl	16(%esp), %ecx
 499              	.LBB105:
 500              	.LBB106:
 501              		.loc 2 285 9 view .LVU117
 502 0147 83C40C   		addl	$12, %esp
 503              		.cfi_def_cfa_offset 116
 504              	.LBE106:
 505              	.LBE105:
 506              		.loc 1 135 20 view .LVU118
 507 014a 897004   		movl	%esi, 4(%eax)
 508              		.loc 1 132 19 view .LVU119
 509 014d 83C601   		addl	$1, %esi
 510              	.LVL26:
 511              		.loc 1 134 20 view .LVU120
 512 0150 8908     		movl	%ecx, (%eax)
 513              		.loc 1 135 7 is_stmt 1 view .LVU121
 514              		.loc 1 136 7 view .LVU122
 515              	.LVL27:
GAS LISTING /tmp/ccf6NU24.s 			page 11


 516              	.LBB108:
 517              	.LBI105:
 518              		.loc 2 282 20 view .LVU123
 519              	.LBB107:
 520              		.loc 2 283 3 view .LVU124
 521              		.loc 2 285 3 view .LVU125
 522              		.loc 2 285 9 is_stmt 0 view .LVU126
 523 0152 6A00     		pushl	$0
 524              		.cfi_def_cfa_offset 120
 525              	.LVL28:
 526              		.loc 2 285 9 view .LVU127
 527 0154 50       		pushl	%eax
 528              		.cfi_def_cfa_offset 124
 529 0155 55       		pushl	%ebp
 530              		.cfi_def_cfa_offset 128
 531 0156 E8FCFFFF 		call	chMBPostTimeout@PLT
 531      FF
 532              	.LVL29:
 533              		.loc 2 286 3 is_stmt 1 view .LVU128
 534              		.loc 2 286 3 view .LVU129
 535              		.loc 2 286 3 view .LVU130
 536              		.loc 2 286 3 is_stmt 0 view .LVU131
 537              	.LBE107:
 538              	.LBE108:
 539              		.loc 1 132 25 is_stmt 1 view .LVU132
 540              		.loc 1 132 19 view .LVU133
 541 015b 83C410   		addl	$16, %esp
 542              		.cfi_def_cfa_offset 112
 543 015e 83FE69   		cmpl	$105, %esi
 544 0161 75D5     		jne	.L13
 545              	.LBE109:
 546              		.loc 1 139 3 view .LVU134
 547              		.loc 1 139 19 view .LVU135
 548              		.loc 1 142 3 view .LVU136
 549 0163 8B442404 		movl	4(%esp), %eax
 550              	.LBB110:
 551              	.LBB111:
 552              	.LBB112:
 553              		.loc 2 184 30 is_stmt 0 view .LVU137
 554 0167 83EC08   		subl	$8, %esp
 555              		.cfi_def_cfa_offset 120
 556              	.LBE112:
 557              	.LBE111:
 558              	.LBE110:
 559              		.loc 1 142 3 view .LVU138
 560 016a C7000400 		movl	$4, (%eax)
 560      0000
 561              	.LBB125:
 562              		.loc 1 144 5 is_stmt 1 view .LVU139
 563              		.loc 1 146 5 view .LVU140
 564              	.LVL30:
 565              	.LBB114:
 566              	.LBI111:
 567              		.loc 2 182 33 view .LVU141
 568              	.LBB113:
 569              		.loc 2 184 3 view .LVU142
 570              		.loc 2 184 30 is_stmt 0 view .LVU143
GAS LISTING /tmp/ccf6NU24.s 			page 12


 571 0170 6AFF     		pushl	$-1
 572              		.cfi_def_cfa_offset 124
 573 0172 57       		pushl	%edi
 574              		.cfi_def_cfa_offset 128
 575 0173 E8FCFFFF 		call	chGuardedPoolAllocTimeout@PLT
 575      FF
 576              	.LVL31:
 577              		.loc 2 184 30 view .LVU144
 578              	.LBE113:
 579              	.LBE114:
 580              		.loc 1 147 5 is_stmt 1 view .LVU145
 581              	.LBB115:
 582              	.LBB116:
 583              		.loc 2 285 9 is_stmt 0 view .LVU146
 584 0178 83C40C   		addl	$12, %esp
 585              		.cfi_def_cfa_offset 116
 586              	.LBE116:
 587              	.LBE115:
 588              		.loc 1 147 18 view .LVU147
 589 017b C7000000 		movl	$0, (%eax)
 589      0000
 590              		.loc 1 148 5 is_stmt 1 view .LVU148
 591              		.loc 1 148 18 is_stmt 0 view .LVU149
 592 0181 C7400400 		movl	$0, 4(%eax)
 592      000000
 593              		.loc 1 149 5 is_stmt 1 view .LVU150
 594              	.LVL32:
 595              	.LBB118:
 596              	.LBI115:
 597              		.loc 2 282 20 view .LVU151
 598              	.LBB117:
 599              		.loc 2 283 3 view .LVU152
 600              		.loc 2 285 3 view .LVU153
 601              		.loc 2 285 9 is_stmt 0 view .LVU154
 602 0188 6A00     		pushl	$0
 603              		.cfi_def_cfa_offset 120
 604 018a 50       		pushl	%eax
 605              		.cfi_def_cfa_offset 124
 606 018b 55       		pushl	%ebp
 607              		.cfi_def_cfa_offset 128
 608 018c E8FCFFFF 		call	chMBPostTimeout@PLT
 608      FF
 609              	.LVL33:
 610              		.loc 2 286 3 is_stmt 1 view .LVU155
 611              		.loc 2 286 3 view .LVU156
 612              		.loc 2 286 3 view .LVU157
 613              		.loc 2 286 3 is_stmt 0 view .LVU158
 614              	.LBE117:
 615              	.LBE118:
 616              		.loc 1 150 5 is_stmt 1 view .LVU159
 617              	.LBB119:
 618              	.LBI119:
 619              		.loc 2 182 33 view .LVU160
 620              	.LBB120:
 621              		.loc 2 184 3 view .LVU161
 622              		.loc 2 184 30 is_stmt 0 view .LVU162
 623 0191 58       		popl	%eax
GAS LISTING /tmp/ccf6NU24.s 			page 13


 624              		.cfi_def_cfa_offset 124
 625 0192 5A       		popl	%edx
 626              		.cfi_def_cfa_offset 120
 627 0193 6AFF     		pushl	$-1
 628              		.cfi_def_cfa_offset 124
 629 0195 57       		pushl	%edi
 630              		.cfi_def_cfa_offset 128
 631 0196 E8FCFFFF 		call	chGuardedPoolAllocTimeout@PLT
 631      FF
 632              	.LVL34:
 633              		.loc 2 184 30 view .LVU163
 634              	.LBE120:
 635              	.LBE119:
 636              		.loc 1 151 5 is_stmt 1 view .LVU164
 637              	.LBB121:
 638              	.LBB122:
 639              		.loc 2 285 9 is_stmt 0 view .LVU165
 640 019b 83C40C   		addl	$12, %esp
 641              		.cfi_def_cfa_offset 116
 642              	.LBE122:
 643              	.LBE121:
 644              		.loc 1 151 18 view .LVU166
 645 019e C7000000 		movl	$0, (%eax)
 645      0000
 646              		.loc 1 152 5 is_stmt 1 view .LVU167
 647              		.loc 1 152 18 is_stmt 0 view .LVU168
 648 01a4 C7400400 		movl	$0, 4(%eax)
 648      000000
 649              		.loc 1 153 5 is_stmt 1 view .LVU169
 650              	.LVL35:
 651              	.LBB124:
 652              	.LBI121:
 653              		.loc 2 282 20 view .LVU170
 654              	.LBB123:
 655              		.loc 2 283 3 view .LVU171
 656              		.loc 2 285 3 view .LVU172
 657              		.loc 2 285 9 is_stmt 0 view .LVU173
 658 01ab 6A00     		pushl	$0
 659              		.cfi_def_cfa_offset 120
 660 01ad 50       		pushl	%eax
 661              		.cfi_def_cfa_offset 124
 662 01ae 55       		pushl	%ebp
 663              		.cfi_def_cfa_offset 128
 664 01af E8FCFFFF 		call	chMBPostTimeout@PLT
 664      FF
 665              	.LVL36:
 666              		.loc 2 286 3 is_stmt 1 view .LVU174
 667              		.loc 2 286 3 view .LVU175
 668              		.loc 2 286 3 view .LVU176
 669              		.loc 2 286 3 is_stmt 0 view .LVU177
 670              	.LBE123:
 671              	.LBE124:
 672              		.loc 1 154 5 is_stmt 1 view .LVU178
 673              		.loc 1 154 12 is_stmt 0 view .LVU179
 674 01b4 59       		popl	%ecx
 675              		.cfi_def_cfa_offset 124
 676 01b5 FF742414 		pushl	20(%esp)
GAS LISTING /tmp/ccf6NU24.s 			page 14


 677              		.cfi_def_cfa_offset 128
 678 01b9 E8FCFFFF 		call	chThdWait@PLT
 678      FF
 679              	.LVL37:
 680              		.loc 1 155 5 is_stmt 1 view .LVU180
 681              		.loc 1 155 12 is_stmt 0 view .LVU181
 682 01be 5E       		popl	%esi
 683              		.cfi_def_cfa_offset 124
 684 01bf FF742418 		pushl	24(%esp)
 685              		.cfi_def_cfa_offset 128
 686 01c3 E8FCFFFF 		call	chThdWait@PLT
 686      FF
 687              	.LVL38:
 688              		.loc 1 156 5 is_stmt 1 view .LVU182
 689 01c8 8D830000 		leal	.LC2@GOTOFF(%ebx), %eax
 689      0000
 690 01ce 5F       		popl	%edi
 691              		.cfi_def_cfa_offset 124
 692 01cf 5D       		popl	%ebp
 693              		.cfi_def_cfa_offset 120
 694 01d0 50       		pushl	%eax
 695              		.cfi_def_cfa_offset 124
 696 01d1 8D830000 		leal	.LC3@GOTOFF(%ebx), %eax
 696      0000
 697 01d7 50       		pushl	%eax
 698              		.cfi_def_cfa_offset 128
 699 01d8 E8FCFFFF 		call	__test_assert_sequence@PLT
 699      FF
 700              	.LVL39:
 701              		.loc 1 156 58 view .LVU183
 702              	.LBE125:
 703              		.loc 1 158 3 view .LVU184
 704              		.loc 1 158 19 view .LVU185
 705              	.LBB126:
 706              		.loc 1 156 5 is_stmt 0 view .LVU186
 707 01dd 83C410   		addl	$16, %esp
 708              		.cfi_def_cfa_offset 112
 709              	.LBE126:
 710              		.loc 1 159 1 view .LVU187
 711 01e0 8B44244C 		movl	76(%esp), %eax
 712 01e4 652B0514 		subl	%gs:20, %eax
 712      000000
 713 01eb 7508     		jne	.L17
 714 01ed 83C45C   		addl	$92, %esp
 715              		.cfi_remember_state
 716              		.cfi_def_cfa_offset 20
 717 01f0 5B       		popl	%ebx
 718              		.cfi_restore 3
 719              		.cfi_def_cfa_offset 16
 720 01f1 5E       		popl	%esi
 721              		.cfi_restore 6
 722              		.cfi_def_cfa_offset 12
 723 01f2 5F       		popl	%edi
 724              		.cfi_restore 7
 725              		.cfi_def_cfa_offset 8
 726 01f3 5D       		popl	%ebp
 727              		.cfi_restore 5
GAS LISTING /tmp/ccf6NU24.s 			page 15


 728              		.cfi_def_cfa_offset 4
 729 01f4 C3       		ret
 730              	.L17:
 731              		.cfi_restore_state
 732 01f5 E8FCFFFF 		call	__stack_chk_fail_local
 732      FF
 733              	.LVL40:
 734              		.cfi_endproc
 735              	.LFE305:
 736              		.size	oslib_test_004_001_execute, .-oslib_test_004_001_execute
 737              		.globl	oslib_test_sequence_004
 738              		.section	.rodata.str1.1,"aMS",@progbits,1
 739              	.LC4:
 740 0000 4A6F6273 		.string	"Jobs Queues"
 740      20517565 
 740      75657300 
 741              		.section	.data.rel.ro.local.oslib_test_sequence_004,"aw"
 742              		.align 4
 743              		.type	oslib_test_sequence_004, @object
 744              		.size	oslib_test_sequence_004, 8
 745              	oslib_test_sequence_004:
 746 0000 00000000 		.long	.LC4
 747 0004 00000000 		.long	oslib_test_sequence_004_array
 748              		.globl	oslib_test_sequence_004_array
 749              		.section	.data.rel.ro.local.oslib_test_sequence_004_array,"aw"
 750              		.align 4
 751              		.type	oslib_test_sequence_004_array, @object
 752              		.size	oslib_test_sequence_004_array, 8
 753              	oslib_test_sequence_004_array:
 754 0000 00000000 		.long	oslib_test_004_001
 755 0004 00000000 		.long	0
 756              		.section	.rodata.str1.1
 757              	.LC5:
 758 000c 44697370 		.string	"Dispatcher test"
 758      61746368 
 758      65722074 
 758      65737400 
 759              		.section	.data.rel.ro.local.oslib_test_004_001,"aw"
 760              		.align 4
 761              		.type	oslib_test_004_001, @object
 762              		.size	oslib_test_004_001, 16
 763              	oslib_test_004_001:
 764 0000 0C000000 		.long	.LC5
 765 0004 00000000 		.long	0
 766 0008 00000000 		.long	0
 767 000c 00000000 		.long	oslib_test_004_001_execute
 768              		.section	.bss.wa2Thread1,"aw",@nobits
 769              		.align 16
 770              		.type	wa2Thread1, @object
 771              		.size	wa2Thread1, 16768
 772              	wa2Thread1:
 773 0000 00000000 		.zero	16768
 773      00000000 
 773      00000000 
 773      00000000 
 773      00000000 
 774              		.section	.bss.wa1Thread1,"aw",@nobits
GAS LISTING /tmp/ccf6NU24.s 			page 16


 775              		.align 16
 776              		.type	wa1Thread1, @object
 777              		.size	wa1Thread1, 16768
 778              	wa1Thread1:
 779 0000 00000000 		.zero	16768
 779      00000000 
 779      00000000 
 779      00000000 
 779      00000000 
 780              		.section	.bss.msg_queue,"aw",@nobits
 781              		.align 4
 782              		.type	msg_queue, @object
 783              		.size	msg_queue, 16
 784              	msg_queue:
 785 0000 00000000 		.zero	16
 785      00000000 
 785      00000000 
 785      00000000 
 786              		.section	.bss.jobs,"aw",@nobits
 787              		.align 32
 788              		.type	jobs, @object
 789              		.size	jobs, 32
 790              	jobs:
 791 0000 00000000 		.zero	32
 791      00000000 
 791      00000000 
 791      00000000 
 791      00000000 
 792              		.section	.bss.jq,"aw",@nobits
 793              		.align 32
 794              		.type	jq, @object
 795              		.size	jq, 68
 796              	jq:
 797 0000 00000000 		.zero	68
 797      00000000 
 797      00000000 
 797      00000000 
 797      00000000 
 798              		.section	.text.__x86.get_pc_thunk.bx,"axG",@progbits,__x86.get_pc_thunk.bx,comdat
 799              		.globl	__x86.get_pc_thunk.bx
 800              		.hidden	__x86.get_pc_thunk.bx
 801              		.type	__x86.get_pc_thunk.bx, @function
 802              	__x86.get_pc_thunk.bx:
 803              	.LFB308:
 804              		.cfi_startproc
 805 0000 8B1C24   		movl	(%esp), %ebx
 806 0003 C3       		ret
 807              		.cfi_endproc
 808              	.LFE308:
 809              		.text
 810              	.Letext0:
 811              		.file 5 "/usr/lib/gcc/x86_64-linux-gnu/11/include/stddef.h"
 812              		.file 6 "/usr/include/bits/types.h"
 813              		.file 7 "/usr/include/bits/stdint-intn.h"
 814              		.file 8 "/usr/include/bits/stdint-uintn.h"
 815              		.file 9 "../../../os/common/ports/SIMIA32/compilers/GCC/chtypes.h"
 816              		.file 10 "../../../os/rt/include/chearly.h"
GAS LISTING /tmp/ccf6NU24.s 			page 17


 817              		.file 11 "../../../os/rt/include/chobjects.h"
 818              		.file 12 "../../../os/rt/include/chrfcu.h"
 819              		.file 13 "../../../os/rt/include/chdebug.h"
 820              		.file 14 "../../../os/rt/include/chtime.h"
 821              		.file 15 "../../../os/rt/include/chlists.h"
 822              		.file 16 "../../../os/common/ports/SIMIA32/chcore.h"
 823              		.file 17 "../../../os/rt/include/chsem.h"
 824              		.file 18 "../../../os/rt/include/chmtx.h"
 825              		.file 19 "../../../os/oslib/include/chmboxes.h"
 826              		.file 20 "../../../os/oslib/include/chmemcore.h"
 827              		.file 21 "../../../os/hal/include/hal_streams.h"
 828              		.file 22 "../../../os/test/include/ch_test.h"
 829              		.file 23 "../../../test/oslib/source/test/oslib_test_sequence_004.h"
 830              		.file 24 "../../../os/rt/include/chsys.h"
 5302 0060 2F686F6D 		.section	.note.GNU-stack,"",@progbits
 5302      652F616C 
 5302      65782F43 
 5302      68696269 
 5302      4F532F64 
GAS LISTING /tmp/ccf6NU24.s 			page 104

