GAS LISTING /tmp/ccttH9cH.s 			page 1


   1              		.file	"oslib_test_sequence_002.c"
   2              		.text
   3              	.Ltext0:
   4              		.file 0 "/home/alex/ChibiOS/demos/various/LAB3" "../../../test/oslib/source/test/oslib_test_sequen
   5              		.section	.text.oslib_test_002_001_teardown,"ax",@progbits
   6              		.p2align 4
   7              		.type	oslib_test_002_001_teardown, @function
   8              	oslib_test_002_001_teardown:
   9              	.LFB304:
  10              		.file 1 "../../../test/oslib/source/test/oslib_test_sequence_002.c"
  11              		.loc 1 90 47 view -0
  12              		.cfi_startproc
  13              		.loc 1 91 3 view .LVU1
  14              		.loc 1 90 47 is_stmt 0 view .LVU2
  15 0000 53       		pushl	%ebx
  16              		.cfi_def_cfa_offset 8
  17              		.cfi_offset 3, -8
  18 0001 E8FCFFFF 		call	__x86.get_pc_thunk.bx
  18      FF
  19 0006 81C30200 		addl	$_GLOBAL_OFFSET_TABLE_, %ebx
  19      0000
  20 000c 83EC14   		subl	$20, %esp
  21              		.cfi_def_cfa_offset 28
  22              		.loc 1 91 3 view .LVU3
  23 000f 8D830000 		leal	mb1@GOTOFF(%ebx), %eax
  23      0000
  24 0015 50       		pushl	%eax
  25              		.cfi_def_cfa_offset 32
  26 0016 E8FCFFFF 		call	chMBReset@PLT
  26      FF
  27              	.LVL0:
  28              		.loc 1 92 1 view .LVU4
  29 001b 83C418   		addl	$24, %esp
  30              		.cfi_def_cfa_offset 8
  31 001e 5B       		popl	%ebx
  32              		.cfi_restore 3
  33              		.cfi_def_cfa_offset 4
  34 001f C3       		ret
  35              		.cfi_endproc
  36              	.LFE304:
  37              		.size	oslib_test_002_001_teardown, .-oslib_test_002_001_teardown
  38              		.section	.rodata.oslib_test_002_003_execute.str1.1,"aMS",@progbits,1
  39              	.LC0:
  40 0000 77726F6E 		.string	"wrong wake-up message"
  40      67207761 
  40      6B652D75 
  40      70206D65 
  40      73736167 
  41              		.section	.text.oslib_test_002_003_execute,"ax",@progbits
  42              		.p2align 4
  43              		.type	oslib_test_002_003_execute, @function
  44              	oslib_test_002_003_execute:
  45              	.LFB311:
  46              		.loc 1 351 46 is_stmt 1 view -0
  47              		.cfi_startproc
  48 0000 55       		pushl	%ebp
  49              		.cfi_def_cfa_offset 8
GAS LISTING /tmp/ccttH9cH.s 			page 2


  50              		.cfi_offset 5, -8
  51              		.loc 1 356 3 is_stmt 0 view .LVU6
  52 0001 BD420000 		movl	$66, %ebp
  52      00
  53              		.loc 1 351 46 view .LVU7
  54 0006 57       		pushl	%edi
  55              		.cfi_def_cfa_offset 12
  56              		.cfi_offset 7, -12
  57 0007 56       		pushl	%esi
  58              		.cfi_def_cfa_offset 16
  59              		.cfi_offset 6, -16
  60 0008 53       		pushl	%ebx
  61              		.cfi_def_cfa_offset 20
  62              		.cfi_offset 3, -20
  63 0009 E8FCFFFF 		call	__x86.get_pc_thunk.bx
  63      FF
  64 000e 81C30200 		addl	$_GLOBAL_OFFSET_TABLE_, %ebx
  64      0000
  65 0014 83EC2C   		subl	$44, %esp
  66              		.cfi_def_cfa_offset 64
  67              		.loc 1 356 3 view .LVU8
  68 0017 65A11400 		movl	%gs:20, %eax
  68      0000
  69 001d 8944241C 		movl	%eax, 28(%esp)
  70 0021 8B830000 		movl	chtest@GOT(%ebx), %eax
  70      0000
  71 0027 8DB30000 		leal	mb1@GOTOFF(%ebx), %esi
  71      0000
  72 002d 8DBB0000 		leal	.LC0@GOTOFF(%ebx), %edi
  72      0000
  73 0033 89442408 		movl	%eax, 8(%esp)
  74 0037 C7000100 		movl	$1, (%eax)
  74      0000
  75              		.loc 1 358 5 is_stmt 1 view .LVU9
  76              	.LVL1:
  77              		.loc 1 358 19 view .LVU10
  78              	.L7:
  79              		.loc 1 359 7 view .LVU11
  80              		.loc 1 359 14 is_stmt 0 view .LVU12
  81 003d 83EC04   		subl	$4, %esp
  82              		.cfi_def_cfa_offset 68
  83 0040 6AFF     		pushl	$-1
  84              		.cfi_def_cfa_offset 72
  85 0042 55       		pushl	%ebp
  86              		.cfi_def_cfa_offset 76
  87 0043 56       		pushl	%esi
  88              		.cfi_def_cfa_offset 80
  89 0044 E8FCFFFF 		call	chMBPostTimeout@PLT
  89      FF
  90              	.LVL2:
  91              		.loc 1 360 7 is_stmt 1 view .LVU13
  92 0049 5A       		popl	%edx
  93              		.cfi_def_cfa_offset 76
  94 004a 59       		popl	%ecx
  95              		.cfi_def_cfa_offset 72
  96 004b 57       		pushl	%edi
  97              		.cfi_def_cfa_offset 76
GAS LISTING /tmp/ccttH9cH.s 			page 3


  98 004c 85C0     		testl	%eax, %eax
  99 004e 0F94C0   		sete	%al
 100              	.LVL3:
 101              		.loc 1 360 7 is_stmt 0 view .LVU14
 102 0051 0FB6C0   		movzbl	%al, %eax
 103 0054 50       		pushl	%eax
 104              		.cfi_def_cfa_offset 80
 105 0055 E8FCFFFF 		call	__test_assert@PLT
 105      FF
 106              	.LVL4:
 107 005a 83C410   		addl	$16, %esp
 108              		.cfi_def_cfa_offset 64
 109 005d 84C0     		testb	%al, %al
 110 005f 7538     		jne	.L4
 111              		.loc 1 360 59 is_stmt 1 discriminator 2 view .LVU15
 112              		.loc 1 358 31 discriminator 2 view .LVU16
 113              	.LVL5:
 114              		.loc 1 358 19 discriminator 2 view .LVU17
 115 0061 83C501   		addl	$1, %ebp
 116              	.LVL6:
 117              		.loc 1 358 19 is_stmt 0 discriminator 2 view .LVU18
 118 0064 83FD46   		cmpl	$70, %ebp
 119 0067 75D4     		jne	.L7
 120              		.loc 1 363 3 is_stmt 1 view .LVU19
 121              		.loc 1 363 19 view .LVU20
 122              		.loc 1 367 3 view .LVU21
 123 0069 8B442408 		movl	8(%esp), %eax
 124              		.loc 1 369 12 is_stmt 0 view .LVU22
 125 006d 83EC04   		subl	$4, %esp
 126              		.cfi_def_cfa_offset 68
 127              		.loc 1 367 3 view .LVU23
 128 0070 C7000200 		movl	$2, (%eax)
 128      0000
 129              		.loc 1 369 5 is_stmt 1 view .LVU24
 130              		.loc 1 369 12 is_stmt 0 view .LVU25
 131 0076 6A01     		pushl	$1
 132              		.cfi_def_cfa_offset 72
 133 0078 6A58     		pushl	$88
 134              		.cfi_def_cfa_offset 76
 135 007a 56       		pushl	%esi
 136              		.cfi_def_cfa_offset 80
 137 007b E8FCFFFF 		call	chMBPostTimeout@PLT
 137      FF
 138              	.LVL7:
 139              		.loc 1 370 5 is_stmt 1 view .LVU26
 140 0080 59       		popl	%ecx
 141              		.cfi_def_cfa_offset 76
 142 0081 5D       		popl	%ebp
 143              		.cfi_def_cfa_offset 72
 144              	.LVL8:
 145              		.loc 1 370 5 is_stmt 0 view .LVU27
 146 0082 57       		pushl	%edi
 147              		.cfi_def_cfa_offset 76
 148 0083 83F8FF   		cmpl	$-1, %eax
 149 0086 0F94C0   		sete	%al
 150              	.LVL9:
 151              		.loc 1 370 5 view .LVU28
GAS LISTING /tmp/ccttH9cH.s 			page 4


 152 0089 0FB6C0   		movzbl	%al, %eax
 153 008c 50       		pushl	%eax
 154              		.cfi_def_cfa_offset 80
 155 008d E8FCFFFF 		call	__test_assert@PLT
 155      FF
 156              	.LVL10:
 157 0092 83C410   		addl	$16, %esp
 158              		.cfi_def_cfa_offset 64
 159 0095 84C0     		testb	%al, %al
 160 0097 741F     		je	.L12
 161              	.L4:
 162              		.loc 1 404 1 view .LVU29
 163 0099 8B44241C 		movl	28(%esp), %eax
 164 009d 652B0514 		subl	%gs:20, %eax
 164      000000
 165 00a4 0F853101 		jne	.L13
 165      0000
 166 00aa 83C42C   		addl	$44, %esp
 167              		.cfi_remember_state
 168              		.cfi_def_cfa_offset 20
 169 00ad 5B       		popl	%ebx
 170              		.cfi_restore 3
 171              		.cfi_def_cfa_offset 16
 172 00ae 5E       		popl	%esi
 173              		.cfi_restore 6
 174              		.cfi_def_cfa_offset 12
 175 00af 5F       		popl	%edi
 176              		.cfi_restore 7
 177              		.cfi_def_cfa_offset 8
 178 00b0 5D       		popl	%ebp
 179              		.cfi_restore 5
 180              		.cfi_def_cfa_offset 4
 181 00b1 C3       		ret
 182              		.p2align 4,,10
 183 00b2 8DB60000 		.p2align 3
 183      0000
 184              	.L12:
 185              		.cfi_restore_state
 186              		.loc 1 370 62 is_stmt 1 view .LVU30
 187              		.loc 1 371 5 view .LVU31
 188              	.LBB852:
 189              	.LBI852:
 190              		.file 2 "../../../os/rt/include/chsys.h"
 191              		.loc 2 407 20 view .LVU32
 192              		.loc 2 409 3 view .LVU33
 193              	.LBB853:
 194              	.LBI853:
 195              		.file 3 "../../../os/common/ports/SIMIA32/chcore.h"
 196              		.loc 3 361 20 view .LVU34
 197              	.LBB854:
 198              		.loc 3 363 3 view .LVU35
 199              		.loc 3 363 16 is_stmt 0 view .LVU36
 200 00b8 8BAB0000 		movl	port_irq_sts@GOT(%ebx), %ebp
 200      0000
 201              	.LBE854:
 202              	.LBE853:
 203              	.LBE852:
GAS LISTING /tmp/ccttH9cH.s 			page 5


 204              		.loc 1 372 12 view .LVU37
 205 00be 83EC08   		subl	$8, %esp
 206              		.cfi_def_cfa_offset 72
 207              	.LBB857:
 208              	.LBB856:
 209              	.LBB855:
 210              		.loc 3 363 16 view .LVU38
 211 00c1 896C2414 		movl	%ebp, 20(%esp)
 212 00c5 C7450001 		movl	$1, 0(%ebp)
 212      000000
 213              	.LBE855:
 214              	.LBE856:
 215              		.loc 2 410 35 is_stmt 1 view .LVU39
 216              		.loc 2 411 21 view .LVU40
 217              	.LBE857:
 218              		.loc 1 372 5 view .LVU41
 219              		.loc 1 372 12 is_stmt 0 view .LVU42
 220 00cc 6A58     		pushl	$88
 221              		.cfi_def_cfa_offset 76
 222 00ce 56       		pushl	%esi
 223              		.cfi_def_cfa_offset 80
 224 00cf E8FCFFFF 		call	chMBPostI@PLT
 224      FF
 225              	.LVL11:
 226              		.loc 1 373 5 is_stmt 1 view .LVU43
 227              	.LBB858:
 228              	.LBI858:
 229              		.loc 2 421 20 view .LVU44
 230              	.LBB859:
 231              		.loc 2 423 23 view .LVU45
 232              		.loc 2 424 34 view .LVU46
 233              		.loc 2 430 3 view .LVU47
 234              		.loc 2 430 3 view .LVU48
 235              		.loc 2 430 3 view .LVU49
 236              		.loc 2 434 3 view .LVU50
 237              	.LBB860:
 238              	.LBI860:
 239              		.loc 3 370 20 view .LVU51
 240              	.LBB861:
 241              		.loc 3 372 3 view .LVU52
 242              		.loc 3 372 16 is_stmt 0 view .LVU53
 243 00d4 C7450000 		movl	$0, 0(%ebp)
 243      000000
 244              	.LBE861:
 245              	.LBE860:
 246              	.LBE859:
 247              	.LBE858:
 248              		.loc 1 374 5 is_stmt 1 view .LVU54
 249 00db 59       		popl	%ecx
 250              		.cfi_def_cfa_offset 76
 251 00dc 83F8FF   		cmpl	$-1, %eax
 252 00df 5A       		popl	%edx
 253              		.cfi_def_cfa_offset 72
 254 00e0 57       		pushl	%edi
 255              		.cfi_def_cfa_offset 76
 256 00e1 0F94C0   		sete	%al
 257              	.LVL12:
GAS LISTING /tmp/ccttH9cH.s 			page 6


 258              		.loc 1 374 5 is_stmt 0 view .LVU55
 259 00e4 0FB6C0   		movzbl	%al, %eax
 260 00e7 50       		pushl	%eax
 261              		.cfi_def_cfa_offset 80
 262 00e8 E8FCFFFF 		call	__test_assert@PLT
 262      FF
 263              	.LVL13:
 264 00ed 83C410   		addl	$16, %esp
 265              		.cfi_def_cfa_offset 64
 266 00f0 84C0     		testb	%al, %al
 267 00f2 75A5     		jne	.L4
 268              		.loc 1 374 62 is_stmt 1 discriminator 2 view .LVU56
 269              		.loc 1 375 5 discriminator 2 view .LVU57
 270              		.loc 1 375 12 is_stmt 0 discriminator 2 view .LVU58
 271 00f4 83EC04   		subl	$4, %esp
 272              		.cfi_def_cfa_offset 68
 273 00f7 6A01     		pushl	$1
 274              		.cfi_def_cfa_offset 72
 275 00f9 6A58     		pushl	$88
 276              		.cfi_def_cfa_offset 76
 277 00fb 56       		pushl	%esi
 278              		.cfi_def_cfa_offset 80
 279 00fc E8FCFFFF 		call	chMBPostAheadTimeout@PLT
 279      FF
 280              	.LVL14:
 281              		.loc 1 376 5 is_stmt 1 discriminator 2 view .LVU59
 282 0101 59       		popl	%ecx
 283              		.cfi_def_cfa_offset 76
 284 0102 5A       		popl	%edx
 285              		.cfi_def_cfa_offset 72
 286 0103 57       		pushl	%edi
 287              		.cfi_def_cfa_offset 76
 288 0104 83F8FF   		cmpl	$-1, %eax
 289 0107 0F94C0   		sete	%al
 290              	.LVL15:
 291              		.loc 1 376 5 is_stmt 0 discriminator 2 view .LVU60
 292 010a 0FB6C0   		movzbl	%al, %eax
 293 010d 50       		pushl	%eax
 294              		.cfi_def_cfa_offset 80
 295 010e E8FCFFFF 		call	__test_assert@PLT
 295      FF
 296              	.LVL16:
 297 0113 83C410   		addl	$16, %esp
 298              		.cfi_def_cfa_offset 64
 299 0116 84C0     		testb	%al, %al
 300 0118 0F857BFF 		jne	.L4
 300      FFFF
 301              		.loc 1 376 62 is_stmt 1 view .LVU61
 302              		.loc 1 377 5 view .LVU62
 303              	.LBB862:
 304              	.LBI862:
 305              		.loc 2 407 20 view .LVU63
 306              		.loc 2 409 3 view .LVU64
 307              	.LBB863:
 308              	.LBI863:
 309              		.loc 3 361 20 view .LVU65
 310              	.LBB864:
GAS LISTING /tmp/ccttH9cH.s 			page 7


 311              		.loc 3 363 3 view .LVU66
 312              	.LBE864:
 313              	.LBE863:
 314              	.LBE862:
 315              		.loc 1 378 12 is_stmt 0 view .LVU67
 316 011e 83EC08   		subl	$8, %esp
 317              		.cfi_def_cfa_offset 72
 318              	.LBB867:
 319              	.LBB866:
 320              	.LBB865:
 321              		.loc 3 363 16 view .LVU68
 322 0121 C7450001 		movl	$1, 0(%ebp)
 322      000000
 323              	.LBE865:
 324              	.LBE866:
 325              		.loc 2 410 35 is_stmt 1 view .LVU69
 326              		.loc 2 411 21 view .LVU70
 327              	.LBE867:
 328              		.loc 1 378 5 view .LVU71
 329              		.loc 1 378 12 is_stmt 0 view .LVU72
 330 0128 6A58     		pushl	$88
 331              		.cfi_def_cfa_offset 76
 332 012a 56       		pushl	%esi
 333              		.cfi_def_cfa_offset 80
 334 012b E8FCFFFF 		call	chMBPostAheadI@PLT
 334      FF
 335              	.LVL17:
 336              		.loc 1 379 5 is_stmt 1 view .LVU73
 337              	.LBB868:
 338              	.LBI868:
 339              		.loc 2 421 20 view .LVU74
 340              	.LBB869:
 341              		.loc 2 423 23 view .LVU75
 342              		.loc 2 424 34 view .LVU76
 343              		.loc 2 430 3 view .LVU77
 344              		.loc 2 430 3 view .LVU78
 345              		.loc 2 430 3 view .LVU79
 346              		.loc 2 434 3 view .LVU80
 347              	.LBB870:
 348              	.LBI870:
 349              		.loc 3 370 20 view .LVU81
 350              	.LBB871:
 351              		.loc 3 372 3 view .LVU82
 352              		.loc 3 372 16 is_stmt 0 view .LVU83
 353 0130 C7450000 		movl	$0, 0(%ebp)
 353      000000
 354              	.LBE871:
 355              	.LBE870:
 356              	.LBE869:
 357              	.LBE868:
 358              		.loc 1 380 5 is_stmt 1 view .LVU84
 359 0137 5D       		popl	%ebp
 360              		.cfi_def_cfa_offset 76
 361 0138 83F8FF   		cmpl	$-1, %eax
 362 013b 5A       		popl	%edx
 363              		.cfi_def_cfa_offset 72
 364 013c 57       		pushl	%edi
GAS LISTING /tmp/ccttH9cH.s 			page 8


 365              		.cfi_def_cfa_offset 76
 366 013d 0F94C0   		sete	%al
 367              	.LVL18:
 368              		.loc 1 380 5 is_stmt 0 view .LVU85
 369 0140 0FB6C0   		movzbl	%al, %eax
 370 0143 50       		pushl	%eax
 371              		.cfi_def_cfa_offset 80
 372 0144 E8FCFFFF 		call	__test_assert@PLT
 372      FF
 373              	.LVL19:
 374 0149 83C410   		addl	$16, %esp
 375              		.cfi_def_cfa_offset 64
 376 014c 84C0     		testb	%al, %al
 377 014e 0F8545FF 		jne	.L4
 377      FFFF
 378              		.loc 1 380 62 is_stmt 1 discriminator 2 view .LVU86
 379              		.loc 1 382 3 discriminator 2 view .LVU87
 380              		.loc 1 382 19 discriminator 2 view .LVU88
 381              		.loc 1 386 3 discriminator 2 view .LVU89
 382 0154 8B6C2408 		movl	8(%esp), %ebp
 383              		.loc 1 388 5 is_stmt 0 discriminator 2 view .LVU90
 384 0158 83EC0C   		subl	$12, %esp
 385              		.cfi_def_cfa_offset 76
 386              		.loc 1 386 3 discriminator 2 view .LVU91
 387 015b C7450003 		movl	$3, 0(%ebp)
 387      000000
 388              		.loc 1 388 5 is_stmt 1 discriminator 2 view .LVU92
 389 0162 56       		pushl	%esi
 390              		.cfi_def_cfa_offset 80
 391 0163 E8FCFFFF 		call	chMBReset@PLT
 391      FF
 392              	.LVL20:
 393              		.loc 1 389 5 discriminator 2 view .LVU93
 394              	.LBB872:
 395              	.LBI872:
 396              		.file 4 "../../../os/oslib/include/chmboxes.h"
 397              		.loc 4 201 20 discriminator 2 view .LVU94
 398              	.LBB873:
 399              		.loc 4 203 3 discriminator 2 view .LVU95
 400              	.LBE873:
 401              	.LBE872:
 402              		.loc 1 396 12 is_stmt 0 discriminator 2 view .LVU96
 403 0168 83C40C   		addl	$12, %esp
 404              		.cfi_def_cfa_offset 68
 405              		.loc 1 394 3 discriminator 2 view .LVU97
 406 016b C7450004 		movl	$4, 0(%ebp)
 406      000000
 407              		.loc 1 396 12 discriminator 2 view .LVU98
 408 0172 6A01     		pushl	$1
 409              		.cfi_def_cfa_offset 72
 410              	.LBB875:
 411              	.LBB874:
 412              		.loc 4 203 14 discriminator 2 view .LVU99
 413 0174 C6831400 		movb	$0, 20+mb1@GOTOFF(%ebx)
 413      000000
 414              	.LVL21:
 415              		.loc 4 203 14 discriminator 2 view .LVU100
GAS LISTING /tmp/ccttH9cH.s 			page 9


 416              	.LBE874:
 417              	.LBE875:
 418              		.loc 1 391 3 is_stmt 1 discriminator 2 view .LVU101
 419              		.loc 1 391 19 discriminator 2 view .LVU102
 420              		.loc 1 394 3 discriminator 2 view .LVU103
 421              		.loc 1 396 5 discriminator 2 view .LVU104
 422              		.loc 1 396 12 is_stmt 0 discriminator 2 view .LVU105
 423 017b 8D6C2420 		leal	32(%esp), %ebp
 424 017f 55       		pushl	%ebp
 425              		.cfi_def_cfa_offset 76
 426 0180 56       		pushl	%esi
 427              		.cfi_def_cfa_offset 80
 428 0181 E8FCFFFF 		call	chMBFetchTimeout@PLT
 428      FF
 429              	.LVL22:
 430              		.loc 1 397 5 is_stmt 1 discriminator 2 view .LVU106
 431 0186 5A       		popl	%edx
 432              		.cfi_def_cfa_offset 76
 433 0187 59       		popl	%ecx
 434              		.cfi_def_cfa_offset 72
 435 0188 57       		pushl	%edi
 436              		.cfi_def_cfa_offset 76
 437 0189 83F8FF   		cmpl	$-1, %eax
 438 018c 0F94C0   		sete	%al
 439              	.LVL23:
 440              		.loc 1 397 5 is_stmt 0 discriminator 2 view .LVU107
 441 018f 0FB6C0   		movzbl	%al, %eax
 442 0192 50       		pushl	%eax
 443              		.cfi_def_cfa_offset 80
 444 0193 E8FCFFFF 		call	__test_assert@PLT
 444      FF
 445              	.LVL24:
 446 0198 83C410   		addl	$16, %esp
 447              		.cfi_def_cfa_offset 64
 448 019b 84C0     		testb	%al, %al
 449 019d 0F85F6FE 		jne	.L4
 449      FFFF
 450              		.loc 1 397 62 is_stmt 1 view .LVU108
 451              		.loc 1 398 5 view .LVU109
 452              	.LBB876:
 453              	.LBI876:
 454              		.loc 2 407 20 view .LVU110
 455              		.loc 2 409 3 view .LVU111
 456              	.LBB877:
 457              	.LBI877:
 458              		.loc 3 361 20 view .LVU112
 459              	.LBB878:
 460              		.loc 3 363 3 view .LVU113
 461              		.loc 3 363 16 is_stmt 0 view .LVU114
 462 01a3 8B44240C 		movl	12(%esp), %eax
 463              	.LBE878:
 464              	.LBE877:
 465              	.LBE876:
 466              		.loc 1 399 12 view .LVU115
 467 01a7 83EC08   		subl	$8, %esp
 468              		.cfi_def_cfa_offset 72
 469              	.LBB881:
GAS LISTING /tmp/ccttH9cH.s 			page 10


 470              	.LBB880:
 471              	.LBB879:
 472              		.loc 3 363 16 view .LVU116
 473 01aa C7000100 		movl	$1, (%eax)
 473      0000
 474              	.LBE879:
 475              	.LBE880:
 476              		.loc 2 410 35 is_stmt 1 view .LVU117
 477              		.loc 2 411 21 view .LVU118
 478              	.LBE881:
 479              		.loc 1 399 5 view .LVU119
 480              		.loc 1 399 12 is_stmt 0 view .LVU120
 481 01b0 55       		pushl	%ebp
 482              		.cfi_def_cfa_offset 76
 483 01b1 56       		pushl	%esi
 484              		.cfi_def_cfa_offset 80
 485 01b2 E8FCFFFF 		call	chMBFetchI@PLT
 485      FF
 486              	.LVL25:
 487              		.loc 1 400 5 is_stmt 1 view .LVU121
 488              	.LBB882:
 489              	.LBI882:
 490              		.loc 2 421 20 view .LVU122
 491              	.LBB883:
 492              		.loc 2 423 23 view .LVU123
 493              		.loc 2 424 34 view .LVU124
 494              		.loc 2 430 3 view .LVU125
 495              		.loc 2 430 3 view .LVU126
 496              		.loc 2 430 3 view .LVU127
 497              		.loc 2 434 3 view .LVU128
 498              	.LBB884:
 499              	.LBI884:
 500              		.loc 3 370 20 view .LVU129
 501              	.LBB885:
 502              		.loc 3 372 3 view .LVU130
 503              		.loc 3 372 16 is_stmt 0 view .LVU131
 504 01b7 8B54241C 		movl	28(%esp), %edx
 505              	.LBE885:
 506              	.LBE884:
 507              	.LBE883:
 508              	.LBE882:
 509              		.loc 1 401 5 view .LVU132
 510 01bb 83F8FF   		cmpl	$-1, %eax
 511 01be 0F94C0   		sete	%al
 512              	.LVL26:
 513              	.LBB889:
 514              	.LBB888:
 515              	.LBB887:
 516              	.LBB886:
 517              		.loc 3 372 16 view .LVU133
 518 01c1 C7020000 		movl	$0, (%edx)
 518      0000
 519              	.LBE886:
 520              	.LBE887:
 521              	.LBE888:
 522              	.LBE889:
 523              		.loc 1 401 5 is_stmt 1 view .LVU134
GAS LISTING /tmp/ccttH9cH.s 			page 11


 524 01c7 5A       		popl	%edx
 525              		.cfi_def_cfa_offset 76
 526 01c8 0FB6C0   		movzbl	%al, %eax
 527 01cb 59       		popl	%ecx
 528              		.cfi_def_cfa_offset 72
 529 01cc 57       		pushl	%edi
 530              		.cfi_def_cfa_offset 76
 531 01cd 50       		pushl	%eax
 532              		.cfi_def_cfa_offset 80
 533 01ce E8FCFFFF 		call	__test_assert@PLT
 533      FF
 534              	.LVL27:
 535              		.loc 1 401 5 view .LVU135
 536 01d3 83C410   		addl	$16, %esp
 537              		.cfi_def_cfa_offset 64
 538 01d6 E9BEFEFF 		jmp	.L4
 538      FF
 539              	.L13:
 540              		.loc 1 404 1 is_stmt 0 view .LVU136
 541 01db E8FCFFFF 		call	__stack_chk_fail_local
 541      FF
 542              	.LVL28:
 543              		.cfi_endproc
 544              	.LFE311:
 545              		.size	oslib_test_002_003_execute, .-oslib_test_002_003_execute
 546              		.section	.text.oslib_test_002_001_setup,"ax",@progbits
 547              		.p2align 4
 548              		.type	oslib_test_002_001_setup, @function
 549              	oslib_test_002_001_setup:
 550              	.LFB303:
 551              		.loc 1 86 44 is_stmt 1 view -0
 552              		.cfi_startproc
 553              		.loc 1 87 3 view .LVU138
 554              		.loc 1 86 44 is_stmt 0 view .LVU139
 555 0000 53       		pushl	%ebx
 556              		.cfi_def_cfa_offset 8
 557              		.cfi_offset 3, -8
 558 0001 E8FCFFFF 		call	__x86.get_pc_thunk.bx
 558      FF
 559 0006 81C30200 		addl	$_GLOBAL_OFFSET_TABLE_, %ebx
 559      0000
 560 000c 83EC0C   		subl	$12, %esp
 561              		.cfi_def_cfa_offset 20
 562              		.loc 1 87 3 view .LVU140
 563 000f 6A04     		pushl	$4
 564              		.cfi_def_cfa_offset 24
 565 0011 8D830000 		leal	mb_buffer@GOTOFF(%ebx), %eax
 565      0000
 566 0017 50       		pushl	%eax
 567              		.cfi_def_cfa_offset 28
 568 0018 8D830000 		leal	mb1@GOTOFF(%ebx), %eax
 568      0000
 569 001e 50       		pushl	%eax
 570              		.cfi_def_cfa_offset 32
 571 001f E8FCFFFF 		call	chMBObjectInit@PLT
 571      FF
 572              	.LVL29:
GAS LISTING /tmp/ccttH9cH.s 			page 12


 573              		.loc 1 88 1 view .LVU141
 574 0024 83C418   		addl	$24, %esp
 575              		.cfi_def_cfa_offset 8
 576 0027 5B       		popl	%ebx
 577              		.cfi_restore 3
 578              		.cfi_def_cfa_offset 4
 579 0028 C3       		ret
 580              		.cfi_endproc
 581              	.LFE303:
 582              		.size	oslib_test_002_001_setup, .-oslib_test_002_001_setup
 583              		.section	.rodata.oslib_test_002_002_execute.str1.1,"aMS",@progbits,1
 584              	.LC1:
 585 0000 77726F6E 		.string	"wrong size"
 585      67207369 
 585      7A6500
 586              	.LC2:
 587 000b 6E6F7420 		.string	"not empty"
 587      656D7074 
 587      7900
 588              	.LC3:
 589 0015 7374696C 		.string	"still full"
 589      6C206675 
 589      6C6C00
 590              		.section	.rodata.oslib_test_002_002_execute.str1.4,"aMS",@progbits,1
 591              		.align 4
 592              	.LC4:
 593 0000 77726974 		.string	"write pointer not aligned to base"
 593      6520706F 
 593      696E7465 
 593      72206E6F 
 593      7420616C 
 594 0022 0000     		.align 4
 595              	.LC5:
 596 0024 72656164 		.string	"read pointer not aligned to base"
 596      20706F69 
 596      6E746572 
 596      206E6F74 
 596      20616C69 
 597              		.section	.rodata.oslib_test_002_002_execute.str1.1
 598              	.LC6:
 599 0020 7374696C 		.string	"still empty"
 599      6C20656D 
 599      70747900 
 600              	.LC7:
 601 002c 6E6F7420 		.string	"not full"
 601      66756C6C 
 601      00
 602              	.LC8:
 603 0035 706F696E 		.string	"pointers not aligned"
 603      74657273 
 603      206E6F74 
 603      20616C69 
 603      676E6564 
 604              	.LC9:
 605 004a 77726F6E 		.string	"wrong get sequence"
 605      67206765 
 605      74207365 
GAS LISTING /tmp/ccttH9cH.s 			page 13


 605      7175656E 
 605      636500
 606              	.LC10:
 607 005d 41424344 		.string	"ABCD"
 607      00
 608              		.section	.text.oslib_test_002_002_execute,"ax",@progbits
 609              		.p2align 4
 610              		.type	oslib_test_002_002_execute, @function
 611              	oslib_test_002_002_execute:
 612              	.LFB308:
 613              		.loc 1 229 46 is_stmt 1 view -0
 614              		.cfi_startproc
 615 0000 55       		pushl	%ebp
 616              		.cfi_def_cfa_offset 8
 617              		.cfi_offset 5, -8
 618 0001 57       		pushl	%edi
 619              		.cfi_def_cfa_offset 12
 620              		.cfi_offset 7, -12
 621 0002 56       		pushl	%esi
 622              		.cfi_def_cfa_offset 16
 623              		.cfi_offset 6, -16
 624 0003 53       		pushl	%ebx
 625              		.cfi_def_cfa_offset 20
 626              		.cfi_offset 3, -20
 627 0004 E8FCFFFF 		call	__x86.get_pc_thunk.bx
 627      FF
 628 0009 81C30200 		addl	$_GLOBAL_OFFSET_TABLE_, %ebx
 628      0000
 629 000f 83EC44   		subl	$68, %esp
 630              		.cfi_def_cfa_offset 88
 631              		.loc 1 229 46 is_stmt 0 view .LVU143
 632 0012 65A11400 		movl	%gs:20, %eax
 632      0000
 633 0018 89442434 		movl	%eax, 52(%esp)
 634 001c 31C0     		xorl	%eax, %eax
 635              		.loc 1 230 3 is_stmt 1 view .LVU144
 636              		.loc 1 231 3 view .LVU145
 637              		.loc 1 234 3 view .LVU146
 638 001e 8BBB0000 		movl	chtest@GOT(%ebx), %edi
 638      0000
 639              		.loc 1 236 5 is_stmt 0 view .LVU147
 640 0024 8D830000 		leal	.LC1@GOTOFF(%ebx), %eax
 640      0000
 641              	.LBB1107:
 642              	.LBB1108:
 643              	.LBB1109:
 644              	.LBB1110:
 645              		.loc 3 363 16 view .LVU148
 646 002a 8BB30000 		movl	port_irq_sts@GOT(%ebx), %esi
 646      0000
 647              	.LBE1110:
 648              	.LBE1109:
 649              	.LBE1108:
 650              	.LBE1107:
 651              		.loc 1 234 3 view .LVU149
 652 0030 C7070100 		movl	$1, (%edi)
 652      0000
GAS LISTING /tmp/ccttH9cH.s 			page 14


 653              		.loc 1 236 5 is_stmt 1 view .LVU150
 654              	.LBB1117:
 655              	.LBI1107:
 656              		.file 5 "../../../os/hal/osal/rt-nil/osal.h"
 657              		.loc 5 573 20 view .LVU151
 658              		.loc 5 575 3 view .LVU152
 659              	.LBB1115:
 660              	.LBI1108:
 661              		.loc 2 407 20 view .LVU153
 662              		.loc 2 409 3 view .LVU154
 663              	.LBB1113:
 664              	.LBI1109:
 665              		.loc 3 361 20 view .LVU155
 666              	.LBB1111:
 667              		.loc 3 363 3 view .LVU156
 668              	.LBE1111:
 669              	.LBE1113:
 670              	.LBE1115:
 671              	.LBE1117:
 672              		.loc 1 236 5 is_stmt 0 view .LVU157
 673 0036 50       		pushl	%eax
 674              		.cfi_def_cfa_offset 92
 675              	.LBB1118:
 676              	.LBB1119:
 677              	.LBB1120:
 678              	.LBB1121:
 679              		.loc 4 141 28 view .LVU158
 680 0037 8B830400 		movl	4+mb1@GOTOFF(%ebx), %eax
 680      0000
 681 003d 2B830000 		subl	mb1@GOTOFF(%ebx), %eax
 681      0000
 682              	.LBE1121:
 683              	.LBE1120:
 684              	.LBE1119:
 685              	.LBE1118:
 686              	.LBB1129:
 687              	.LBB1116:
 688              	.LBB1114:
 689              	.LBB1112:
 690              		.loc 3 363 16 view .LVU159
 691 0043 C7060100 		movl	$1, (%esi)
 691      0000
 692              	.LBE1112:
 693              	.LBE1114:
 694              		.loc 2 410 35 is_stmt 1 view .LVU160
 695              		.loc 2 411 21 view .LVU161
 696              	.LBE1116:
 697              	.LBE1129:
 698              		.loc 1 236 5 view .LVU162
 699              	.LVL30:
 700              	.LBB1130:
 701              	.LBI1118:
 702              		.loc 4 168 22 view .LVU163
 703              	.LBB1128:
 704              		.loc 4 170 21 view .LVU164
 705              		.loc 4 172 3 view .LVU165
 706              	.LBB1124:
GAS LISTING /tmp/ccttH9cH.s 			page 15


 707              	.LBI1120:
 708              		.loc 4 137 22 view .LVU166
 709              	.LBB1122:
 710              		.loc 4 141 3 view .LVU167
 711              		.loc 4 141 3 is_stmt 0 view .LVU168
 712              	.LBE1122:
 713              	.LBE1124:
 714              	.LBB1125:
 715              	.LBI1125:
 716              		.loc 4 153 22 is_stmt 1 view .LVU169
 717              	.LBB1126:
 718              		.loc 4 155 21 view .LVU170
 719              		.loc 4 157 3 view .LVU171
 720              		.loc 4 157 3 is_stmt 0 view .LVU172
 721              	.LBE1126:
 722              	.LBE1125:
 723              	.LBB1127:
 724              	.LBB1123:
 725              		.loc 4 141 28 view .LVU173
 726 0049 C1F802   		sarl	$2, %eax
 727              	.LBE1123:
 728              	.LBE1127:
 729              		.loc 4 172 28 view .LVU174
 730 004c 2B831000 		subl	16+mb1@GOTOFF(%ebx), %eax
 730      0000
 731              	.LBE1128:
 732              	.LBE1130:
 733              		.loc 1 236 5 view .LVU175
 734 0052 83F804   		cmpl	$4, %eax
 735 0055 0F94C0   		sete	%al
 736 0058 0FB6C0   		movzbl	%al, %eax
 737 005b 50       		pushl	%eax
 738              		.cfi_def_cfa_offset 96
 739 005c E8FCFFFF 		call	__test_assert@PLT
 739      FF
 740              	.LVL31:
 741 0061 83C410   		addl	$16, %esp
 742              		.cfi_def_cfa_offset 80
 743 0064 84C0     		testb	%al, %al
 744 0066 7428     		je	.L17
 745              	.L21:
 746              	.LBB1131:
 747              	.LBB1132:
 748              		.loc 1 247 5 is_stmt 1 view .LVU176
 749              	.LBB1133:
 750              	.LBI1133:
 751              		.loc 5 584 20 view .LVU177
 752              		.loc 5 586 3 view .LVU178
 753              	.LBB1134:
 754              	.LBI1134:
 755              		.loc 2 421 20 view .LVU179
 756              	.LBB1135:
 757              		.loc 2 423 23 view .LVU180
 758              		.loc 2 424 34 view .LVU181
 759              		.loc 2 430 3 view .LVU182
 760              		.loc 2 430 3 view .LVU183
 761              		.loc 2 430 3 view .LVU184
GAS LISTING /tmp/ccttH9cH.s 			page 16


 762              		.loc 2 434 3 view .LVU185
 763              	.LBB1136:
 764              	.LBI1136:
 765              		.loc 3 370 20 view .LVU186
 766              	.LBB1137:
 767              		.loc 3 372 3 view .LVU187
 768              		.loc 3 372 16 is_stmt 0 view .LVU188
 769 0068 C7060000 		movl	$0, (%esi)
 769      0000
 770              	.LBE1137:
 771              	.LBE1136:
 772              	.LBE1135:
 773              	.LBE1134:
 774              	.LBE1133:
 775              		.loc 1 247 5 is_stmt 1 view .LVU189
 776              	.L16:
 777              	.LBE1132:
 778              	.LBE1131:
 779              		.loc 1 318 1 is_stmt 0 view .LVU190
 780 006e 8B44242C 		movl	44(%esp), %eax
 781 0072 652B0514 		subl	%gs:20, %eax
 781      000000
 782 0079 0F85EE03 		jne	.L30
 782      0000
 783 007f 83C43C   		addl	$60, %esp
 784              		.cfi_remember_state
 785              		.cfi_def_cfa_offset 20
 786 0082 5B       		popl	%ebx
 787              		.cfi_restore 3
 788              		.cfi_def_cfa_offset 16
 789 0083 5E       		popl	%esi
 790              		.cfi_restore 6
 791              		.cfi_def_cfa_offset 12
 792 0084 5F       		popl	%edi
 793              		.cfi_restore 7
 794              		.cfi_def_cfa_offset 8
 795 0085 5D       		popl	%ebp
 796              		.cfi_restore 5
 797              		.cfi_def_cfa_offset 4
 798 0086 C3       		ret
 799 0087 8DB42600 		.p2align 4,,10
 799      00000066 
 799      90
 800              		.p2align 3
 801              	.L17:
 802              		.cfi_restore_state
 803              	.LBB1318:
 804              	.LBI1131:
 805              		.loc 1 229 13 is_stmt 1 view .LVU191
 806              	.LBB1317:
 807              		.loc 1 236 5 view .LVU192
 808              		.loc 1 236 71 view .LVU193
 809              		.loc 1 238 3 view .LVU194
 810              		.loc 1 238 19 view .LVU195
 811              		.loc 1 242 3 view .LVU196
 812              		.loc 1 245 5 is_stmt 0 view .LVU197
 813 0090 83EC0C   		subl	$12, %esp
GAS LISTING /tmp/ccttH9cH.s 			page 17


 814              		.cfi_def_cfa_offset 92
 815 0093 8DAB0000 		leal	mb1@GOTOFF(%ebx), %ebp
 815      0000
 816              		.loc 1 242 3 view .LVU198
 817 0099 C7070200 		movl	$2, (%edi)
 817      0000
 818              		.loc 1 244 5 is_stmt 1 view .LVU199
 819              	.LBB1138:
 820              	.LBI1138:
 821              		.loc 2 407 20 view .LVU200
 822              		.loc 2 409 3 view .LVU201
 823              	.LBB1139:
 824              	.LBI1139:
 825              		.loc 3 361 20 view .LVU202
 826              	.LBB1140:
 827              		.loc 3 363 3 view .LVU203
 828              	.LBE1140:
 829              	.LBE1139:
 830              	.LBE1138:
 831              		.loc 1 245 5 is_stmt 0 view .LVU204
 832 009f 55       		pushl	%ebp
 833              		.cfi_def_cfa_offset 96
 834              	.LBB1143:
 835              	.LBB1142:
 836              	.LBB1141:
 837              		.loc 3 363 16 view .LVU205
 838 00a0 C7060100 		movl	$1, (%esi)
 838      0000
 839              	.LBE1141:
 840              	.LBE1142:
 841              		.loc 2 410 35 is_stmt 1 view .LVU206
 842              		.loc 2 411 21 view .LVU207
 843              	.LBE1143:
 844              		.loc 1 245 5 view .LVU208
 845 00a6 E8FCFFFF 		call	chMBResetI@PLT
 845      FF
 846              	.LVL32:
 847              		.loc 1 246 5 view .LVU209
 848              		.loc 1 247 5 view .LVU210
 849              	.LBB1144:
 850              	.LBI1144:
 851              		.loc 5 573 20 view .LVU211
 852              		.loc 5 575 3 view .LVU212
 853              	.LBB1145:
 854              	.LBI1145:
 855              		.loc 2 407 20 view .LVU213
 856              		.loc 2 409 3 view .LVU214
 857              	.LBB1146:
 858              	.LBI1146:
 859              		.loc 3 361 20 view .LVU215
 860              	.LBB1147:
 861              		.loc 3 363 3 view .LVU216
 862              	.LBE1147:
 863              	.LBE1146:
 864              	.LBE1145:
 865              	.LBE1144:
 866              		.loc 1 247 5 is_stmt 0 view .LVU217
GAS LISTING /tmp/ccttH9cH.s 			page 18


 867 00ab 59       		popl	%ecx
 868              		.cfi_def_cfa_offset 92
 869 00ac 58       		popl	%eax
 870              		.cfi_def_cfa_offset 88
 871 00ad 8D830000 		leal	.LC2@GOTOFF(%ebx), %eax
 871      0000
 872 00b3 8944240C 		movl	%eax, 12(%esp)
 873 00b7 50       		pushl	%eax
 874              		.cfi_def_cfa_offset 92
 875              	.LBB1151:
 876              	.LBB1152:
 877              	.LBB1153:
 878              	.LBB1154:
 879              		.loc 4 141 28 view .LVU218
 880 00b8 8B830400 		movl	4+mb1@GOTOFF(%ebx), %eax
 880      0000
 881 00be 2B830000 		subl	mb1@GOTOFF(%ebx), %eax
 881      0000
 882              	.LBE1154:
 883              	.LBE1153:
 884              	.LBE1152:
 885              	.LBE1151:
 886              	.LBB1162:
 887              	.LBB1150:
 888              	.LBB1149:
 889              	.LBB1148:
 890              		.loc 3 363 16 view .LVU219
 891 00c4 C7060100 		movl	$1, (%esi)
 891      0000
 892              	.LBE1148:
 893              	.LBE1149:
 894              		.loc 2 410 35 is_stmt 1 view .LVU220
 895              		.loc 2 411 21 view .LVU221
 896              	.LBE1150:
 897              	.LBE1162:
 898              		.loc 1 247 5 view .LVU222
 899              	.LVL33:
 900              	.LBB1163:
 901              	.LBI1151:
 902              		.loc 4 168 22 view .LVU223
 903              	.LBB1161:
 904              		.loc 4 170 21 view .LVU224
 905              		.loc 4 172 3 view .LVU225
 906              	.LBB1157:
 907              	.LBI1153:
 908              		.loc 4 137 22 view .LVU226
 909              	.LBB1155:
 910              		.loc 4 141 3 view .LVU227
 911              		.loc 4 141 3 is_stmt 0 view .LVU228
 912              	.LBE1155:
 913              	.LBE1157:
 914              	.LBB1158:
 915              	.LBI1158:
 916              		.loc 4 153 22 is_stmt 1 view .LVU229
 917              	.LBB1159:
 918              		.loc 4 155 21 view .LVU230
 919              		.loc 4 157 3 view .LVU231
GAS LISTING /tmp/ccttH9cH.s 			page 19


 920              		.loc 4 157 3 is_stmt 0 view .LVU232
 921              	.LBE1159:
 922              	.LBE1158:
 923              	.LBB1160:
 924              	.LBB1156:
 925              		.loc 4 141 28 view .LVU233
 926 00ca C1F802   		sarl	$2, %eax
 927              	.LBE1156:
 928              	.LBE1160:
 929              		.loc 4 172 28 view .LVU234
 930 00cd 2B831000 		subl	16+mb1@GOTOFF(%ebx), %eax
 930      0000
 931              	.LBE1161:
 932              	.LBE1163:
 933              		.loc 1 247 5 view .LVU235
 934 00d3 83F804   		cmpl	$4, %eax
 935 00d6 0F94C0   		sete	%al
 936 00d9 0FB6C0   		movzbl	%al, %eax
 937 00dc 50       		pushl	%eax
 938              		.cfi_def_cfa_offset 96
 939 00dd E8FCFFFF 		call	__test_assert@PLT
 939      FF
 940              	.LVL34:
 941 00e2 83C410   		addl	$16, %esp
 942              		.cfi_def_cfa_offset 80
 943 00e5 84C0     		testb	%al, %al
 944 00e7 0F857BFF 		jne	.L21
 944      FFFF
 945              		.loc 1 247 5 is_stmt 1 view .LVU236
 946              		.loc 1 247 70 view .LVU237
 947              		.loc 1 248 5 view .LVU238
 948              	.LBB1164:
 949              	.LBI1164:
 950              		.loc 5 573 20 view .LVU239
 951              		.loc 5 575 3 view .LVU240
 952              	.LBB1165:
 953              	.LBI1165:
 954              		.loc 2 407 20 view .LVU241
 955              		.loc 2 409 3 view .LVU242
 956              	.LBB1166:
 957              	.LBI1166:
 958              		.loc 3 361 20 view .LVU243
 959              	.LBB1167:
 960              		.loc 3 363 3 view .LVU244
 961              	.LBE1167:
 962              	.LBE1166:
 963              	.LBE1165:
 964              	.LBE1164:
 965              		.loc 1 248 5 is_stmt 0 view .LVU245
 966 00ed 8B931000 		movl	16+mb1@GOTOFF(%ebx), %edx
 966      0000
 967 00f3 83EC08   		subl	$8, %esp
 968              		.cfi_def_cfa_offset 88
 969 00f6 8D830000 		leal	.LC3@GOTOFF(%ebx), %eax
 969      0000
 970              	.LBB1171:
 971              	.LBB1170:
GAS LISTING /tmp/ccttH9cH.s 			page 20


 972              	.LBB1169:
 973              	.LBB1168:
 974              		.loc 3 363 16 view .LVU246
 975 00fc C7060100 		movl	$1, (%esi)
 975      0000
 976              	.LBE1168:
 977              	.LBE1169:
 978              		.loc 2 410 35 is_stmt 1 view .LVU247
 979              		.loc 2 411 21 view .LVU248
 980              	.LBE1170:
 981              	.LBE1171:
 982              		.loc 1 248 5 view .LVU249
 983              	.LVL35:
 984              	.LBB1172:
 985              	.LBI1172:
 986              		.loc 4 153 22 view .LVU250
 987              	.LBB1173:
 988              		.loc 4 155 21 view .LVU251
 989              		.loc 4 157 3 view .LVU252
 990              		.loc 4 157 3 is_stmt 0 view .LVU253
 991              	.LBE1173:
 992              	.LBE1172:
 993              		.loc 1 248 5 view .LVU254
 994 0102 89442410 		movl	%eax, 16(%esp)
 995 0106 50       		pushl	%eax
 996              		.cfi_def_cfa_offset 92
 997 0107 31C0     		xorl	%eax, %eax
 998 0109 85D2     		testl	%edx, %edx
 999 010b 0F94C0   		sete	%al
 1000 010e 50       		pushl	%eax
 1001              		.cfi_def_cfa_offset 96
 1002 010f E8FCFFFF 		call	__test_assert@PLT
 1002      FF
 1003              	.LVL36:
 1004 0114 83C410   		addl	$16, %esp
 1005              		.cfi_def_cfa_offset 80
 1006 0117 84C0     		testb	%al, %al
 1007 0119 0F8549FF 		jne	.L21
 1007      FFFF
 1008              		.loc 1 248 5 is_stmt 1 view .LVU255
 1009              		.loc 1 248 65 view .LVU256
 1010              		.loc 1 249 5 view .LVU257
 1011              	.LBB1174:
 1012              	.LBI1174:
 1013              		.loc 5 573 20 view .LVU258
 1014              		.loc 5 575 3 view .LVU259
 1015              	.LBB1175:
 1016              	.LBI1175:
 1017              		.loc 2 407 20 view .LVU260
 1018              		.loc 2 409 3 view .LVU261
 1019              	.LBB1176:
 1020              	.LBI1176:
 1021              		.loc 3 361 20 view .LVU262
 1022              	.LBB1177:
 1023              		.loc 3 363 3 view .LVU263
 1024              	.LBE1177:
 1025              	.LBE1176:
GAS LISTING /tmp/ccttH9cH.s 			page 21


 1026              	.LBE1175:
 1027              	.LBE1174:
 1028              		.loc 1 249 5 is_stmt 0 view .LVU264
 1029 011f 83EC08   		subl	$8, %esp
 1030              		.cfi_def_cfa_offset 88
 1031 0122 8D830000 		leal	.LC4@GOTOFF(%ebx), %eax
 1031      0000
 1032              	.LBB1181:
 1033              	.LBB1180:
 1034              	.LBB1179:
 1035              	.LBB1178:
 1036              		.loc 3 363 16 view .LVU265
 1037 0128 C7060100 		movl	$1, (%esi)
 1037      0000
 1038              	.LBE1178:
 1039              	.LBE1179:
 1040              		.loc 2 410 35 is_stmt 1 view .LVU266
 1041              		.loc 2 411 21 view .LVU267
 1042              	.LBE1180:
 1043              	.LBE1181:
 1044              		.loc 1 249 5 view .LVU268
 1045 012e 8944241C 		movl	%eax, 28(%esp)
 1046 0132 50       		pushl	%eax
 1047              		.cfi_def_cfa_offset 92
 1048 0133 8B830800 		movl	8+mb1@GOTOFF(%ebx), %eax
 1048      0000
 1049 0139 39830000 		cmpl	%eax, mb1@GOTOFF(%ebx)
 1049      0000
 1050 013f 0F94C0   		sete	%al
 1051 0142 0FB6C0   		movzbl	%al, %eax
 1052 0145 50       		pushl	%eax
 1053              		.cfi_def_cfa_offset 96
 1054 0146 E8FCFFFF 		call	__test_assert@PLT
 1054      FF
 1055              	.LVL37:
 1056 014b 83C410   		addl	$16, %esp
 1057              		.cfi_def_cfa_offset 80
 1058 014e 84C0     		testb	%al, %al
 1059 0150 0F8512FF 		jne	.L21
 1059      FFFF
 1060              		.loc 1 249 5 view .LVU269
 1061              		.loc 1 249 83 view .LVU270
 1062              		.loc 1 250 5 view .LVU271
 1063              	.LBB1182:
 1064              	.LBI1182:
 1065              		.loc 5 573 20 view .LVU272
 1066              		.loc 5 575 3 view .LVU273
 1067              	.LBB1183:
 1068              	.LBI1183:
 1069              		.loc 2 407 20 view .LVU274
 1070              		.loc 2 409 3 view .LVU275
 1071              	.LBB1184:
 1072              	.LBI1184:
 1073              		.loc 3 361 20 view .LVU276
 1074              	.LBB1185:
 1075              		.loc 3 363 3 view .LVU277
 1076              	.LBE1185:
GAS LISTING /tmp/ccttH9cH.s 			page 22


 1077              	.LBE1184:
 1078              	.LBE1183:
 1079              	.LBE1182:
 1080              		.loc 1 250 5 is_stmt 0 view .LVU278
 1081 0156 83EC08   		subl	$8, %esp
 1082              		.cfi_def_cfa_offset 88
 1083 0159 8D830000 		leal	.LC5@GOTOFF(%ebx), %eax
 1083      0000
 1084              	.LBB1189:
 1085              	.LBB1188:
 1086              	.LBB1187:
 1087              	.LBB1186:
 1088              		.loc 3 363 16 view .LVU279
 1089 015f C7060100 		movl	$1, (%esi)
 1089      0000
 1090              	.LBE1186:
 1091              	.LBE1187:
 1092              		.loc 2 410 35 is_stmt 1 view .LVU280
 1093              		.loc 2 411 21 view .LVU281
 1094              	.LBE1188:
 1095              	.LBE1189:
 1096              		.loc 1 250 5 view .LVU282
 1097 0165 89442420 		movl	%eax, 32(%esp)
 1098 0169 50       		pushl	%eax
 1099              		.cfi_def_cfa_offset 92
 1100 016a 8B830C00 		movl	12+mb1@GOTOFF(%ebx), %eax
 1100      0000
 1101 0170 39830000 		cmpl	%eax, mb1@GOTOFF(%ebx)
 1101      0000
 1102 0176 0F94C0   		sete	%al
 1103 0179 0FB6C0   		movzbl	%al, %eax
 1104 017c 50       		pushl	%eax
 1105              		.cfi_def_cfa_offset 96
 1106 017d E8FCFFFF 		call	__test_assert@PLT
 1106      FF
 1107              	.LVL38:
 1108 0182 83C410   		addl	$16, %esp
 1109              		.cfi_def_cfa_offset 80
 1110 0185 84C0     		testb	%al, %al
 1111 0187 0F85DBFE 		jne	.L21
 1111      FFFF
 1112              		.loc 1 250 5 view .LVU283
 1113              		.loc 1 250 82 view .LVU284
 1114              		.loc 1 251 5 view .LVU285
 1115              	.LVL39:
 1116              	.LBB1190:
 1117              	.LBI1190:
 1118              		.loc 4 201 20 view .LVU286
 1119              	.LBB1191:
 1120              		.loc 4 203 3 view .LVU287
 1121 018d 8D830000 		leal	.LC0@GOTOFF(%ebx), %eax
 1121      0000
 1122              	.LBE1191:
 1123              	.LBE1190:
 1124              		.loc 1 257 3 is_stmt 0 view .LVU288
 1125 0193 C7070300 		movl	$3, (%edi)
 1125      0000
GAS LISTING /tmp/ccttH9cH.s 			page 23


 1126 0199 BA420000 		movl	$66, %edx
 1126      00
 1127              	.LBB1193:
 1128              	.LBB1192:
 1129              		.loc 4 203 14 view .LVU289
 1130 019e C6831400 		movb	$0, 20+mb1@GOTOFF(%ebx)
 1130      000000
 1131              	.LVL40:
 1132              		.loc 4 203 14 view .LVU290
 1133              	.LBE1192:
 1134              	.LBE1193:
 1135              		.loc 1 253 3 is_stmt 1 view .LVU291
 1136              		.loc 1 253 19 view .LVU292
 1137              		.loc 1 257 3 view .LVU293
 1138              		.loc 1 259 5 view .LVU294
 1139              		.loc 1 259 19 view .LVU295
 1140 01a5 8944240C 		movl	%eax, 12(%esp)
 1141 01a9 896C2410 		movl	%ebp, 16(%esp)
 1142 01ad 89D5     		movl	%edx, %ebp
 1143              	.LVL41:
 1144              	.L23:
 1145              		.loc 1 260 7 view .LVU296
 1146              	.LBB1194:
 1147              	.LBI1194:
 1148              		.loc 2 407 20 view .LVU297
 1149              		.loc 2 409 3 view .LVU298
 1150              	.LBB1195:
 1151              	.LBI1195:
 1152              		.loc 3 361 20 view .LVU299
 1153              	.LBB1196:
 1154              		.loc 3 363 3 view .LVU300
 1155              	.LBE1196:
 1156              	.LBE1195:
 1157              	.LBE1194:
 1158              		.loc 1 261 14 is_stmt 0 view .LVU301
 1159 01af 83EC08   		subl	$8, %esp
 1160              		.cfi_def_cfa_offset 88
 1161              	.LBB1199:
 1162              	.LBB1198:
 1163              	.LBB1197:
 1164              		.loc 3 363 16 view .LVU302
 1165 01b2 C7060100 		movl	$1, (%esi)
 1165      0000
 1166              	.LBE1197:
 1167              	.LBE1198:
 1168              		.loc 2 410 35 is_stmt 1 view .LVU303
 1169              		.loc 2 411 21 view .LVU304
 1170              	.LBE1199:
 1171              		.loc 1 261 7 view .LVU305
 1172              		.loc 1 261 14 is_stmt 0 view .LVU306
 1173 01b8 55       		pushl	%ebp
 1174              		.cfi_def_cfa_offset 92
 1175 01b9 FF74241C 		pushl	28(%esp)
 1176              		.cfi_def_cfa_offset 96
 1177 01bd E8FCFFFF 		call	chMBPostI@PLT
 1177      FF
 1178              	.LVL42:
GAS LISTING /tmp/ccttH9cH.s 			page 24


 1179              		.loc 1 262 7 is_stmt 1 view .LVU307
 1180              	.LBB1200:
 1181              	.LBI1200:
 1182              		.loc 2 421 20 view .LVU308
 1183              	.LBB1201:
 1184              		.loc 2 423 23 view .LVU309
 1185              		.loc 2 424 34 view .LVU310
 1186              		.loc 2 430 3 view .LVU311
 1187              		.loc 2 430 3 view .LVU312
 1188              		.loc 2 430 3 view .LVU313
 1189              		.loc 2 434 3 view .LVU314
 1190              	.LBB1202:
 1191              	.LBI1202:
 1192              		.loc 3 370 20 view .LVU315
 1193              	.LBB1203:
 1194              		.loc 3 372 3 view .LVU316
 1195              	.LBE1203:
 1196              	.LBE1202:
 1197              	.LBE1201:
 1198              	.LBE1200:
 1199              		.loc 1 263 7 is_stmt 0 view .LVU317
 1200 01c2 5A       		popl	%edx
 1201              		.cfi_def_cfa_offset 92
 1202 01c3 59       		popl	%ecx
 1203              		.cfi_def_cfa_offset 88
 1204 01c4 FF742414 		pushl	20(%esp)
 1205              		.cfi_def_cfa_offset 92
 1206 01c8 85C0     		testl	%eax, %eax
 1207              	.LBB1207:
 1208              	.LBB1206:
 1209              	.LBB1205:
 1210              	.LBB1204:
 1211              		.loc 3 372 16 view .LVU318
 1212 01ca C7060000 		movl	$0, (%esi)
 1212      0000
 1213              	.LBE1204:
 1214              	.LBE1205:
 1215              	.LBE1206:
 1216              	.LBE1207:
 1217              		.loc 1 263 7 is_stmt 1 view .LVU319
 1218 01d0 0F94C0   		sete	%al
 1219              	.LVL43:
 1220              		.loc 1 263 7 is_stmt 0 view .LVU320
 1221 01d3 0FB6C0   		movzbl	%al, %eax
 1222 01d6 50       		pushl	%eax
 1223              		.cfi_def_cfa_offset 96
 1224 01d7 E8FCFFFF 		call	__test_assert@PLT
 1224      FF
 1225              	.LVL44:
 1226 01dc 83C410   		addl	$16, %esp
 1227              		.cfi_def_cfa_offset 80
 1228 01df 84C0     		testb	%al, %al
 1229 01e1 0F8587FE 		jne	.L16
 1229      FFFF
 1230              		.loc 1 263 59 is_stmt 1 view .LVU321
 1231              		.loc 1 259 35 view .LVU322
 1232              	.LVL45:
GAS LISTING /tmp/ccttH9cH.s 			page 25


 1233              		.loc 1 259 19 view .LVU323
 1234 01e7 83C501   		addl	$1, %ebp
 1235              	.LVL46:
 1236              		.loc 1 259 19 is_stmt 0 view .LVU324
 1237 01ea 83FD45   		cmpl	$69, %ebp
 1238 01ed 75C0     		jne	.L23
 1239              	.LBB1208:
 1240              	.LBB1209:
 1241              	.LBB1210:
 1242              		.loc 3 363 16 view .LVU325
 1243 01ef 8B6C2410 		movl	16(%esp), %ebp
 1244              	.LVL47:
 1245              		.loc 3 363 16 view .LVU326
 1246              	.LBE1210:
 1247              	.LBE1209:
 1248              	.LBE1208:
 1249              		.loc 1 265 5 is_stmt 1 view .LVU327
 1250              	.LBB1215:
 1251              	.LBI1208:
 1252              		.loc 2 407 20 view .LVU328
 1253              		.loc 2 409 3 view .LVU329
 1254              	.LBB1213:
 1255              	.LBI1209:
 1256              		.loc 3 361 20 view .LVU330
 1257              	.LBB1211:
 1258              		.loc 3 363 3 view .LVU331
 1259              	.LBE1211:
 1260              	.LBE1213:
 1261              	.LBE1215:
 1262              		.loc 1 266 12 is_stmt 0 view .LVU332
 1263 01f3 83EC08   		subl	$8, %esp
 1264              		.cfi_def_cfa_offset 88
 1265              	.LBB1216:
 1266              	.LBB1214:
 1267              	.LBB1212:
 1268              		.loc 3 363 16 view .LVU333
 1269 01f6 C7060100 		movl	$1, (%esi)
 1269      0000
 1270              	.LBE1212:
 1271              	.LBE1214:
 1272              		.loc 2 410 35 is_stmt 1 view .LVU334
 1273              		.loc 2 411 21 view .LVU335
 1274              	.LBE1216:
 1275              		.loc 1 266 5 view .LVU336
 1276              		.loc 1 266 12 is_stmt 0 view .LVU337
 1277 01fc 6A41     		pushl	$65
 1278              		.cfi_def_cfa_offset 92
 1279 01fe 55       		pushl	%ebp
 1280              		.cfi_def_cfa_offset 96
 1281 01ff E8FCFFFF 		call	chMBPostAheadI@PLT
 1281      FF
 1282              	.LVL48:
 1283              		.loc 1 267 5 is_stmt 1 view .LVU338
 1284              	.LBB1217:
 1285              	.LBI1217:
 1286              		.loc 2 421 20 view .LVU339
 1287              	.LBB1218:
GAS LISTING /tmp/ccttH9cH.s 			page 26


 1288              		.loc 2 423 23 view .LVU340
 1289              		.loc 2 424 34 view .LVU341
 1290              		.loc 2 430 3 view .LVU342
 1291              		.loc 2 430 3 view .LVU343
 1292              		.loc 2 430 3 view .LVU344
 1293              		.loc 2 434 3 view .LVU345
 1294              	.LBB1219:
 1295              	.LBI1219:
 1296              		.loc 3 370 20 view .LVU346
 1297              	.LBB1220:
 1298              		.loc 3 372 3 view .LVU347
 1299              	.LBE1220:
 1300              	.LBE1219:
 1301              	.LBE1218:
 1302              	.LBE1217:
 1303              		.loc 1 268 5 is_stmt 0 view .LVU348
 1304 0204 5A       		popl	%edx
 1305              		.cfi_def_cfa_offset 92
 1306 0205 59       		popl	%ecx
 1307              		.cfi_def_cfa_offset 88
 1308 0206 FF742414 		pushl	20(%esp)
 1309              		.cfi_def_cfa_offset 92
 1310 020a 85C0     		testl	%eax, %eax
 1311              	.LBB1224:
 1312              	.LBB1223:
 1313              	.LBB1222:
 1314              	.LBB1221:
 1315              		.loc 3 372 16 view .LVU349
 1316 020c C7060000 		movl	$0, (%esi)
 1316      0000
 1317              	.LBE1221:
 1318              	.LBE1222:
 1319              	.LBE1223:
 1320              	.LBE1224:
 1321              		.loc 1 268 5 is_stmt 1 view .LVU350
 1322 0212 0F94C0   		sete	%al
 1323              	.LVL49:
 1324              		.loc 1 268 5 is_stmt 0 view .LVU351
 1325 0215 0FB6C0   		movzbl	%al, %eax
 1326 0218 50       		pushl	%eax
 1327              		.cfi_def_cfa_offset 96
 1328 0219 E8FCFFFF 		call	__test_assert@PLT
 1328      FF
 1329              	.LVL50:
 1330 021e 83C410   		addl	$16, %esp
 1331              		.cfi_def_cfa_offset 80
 1332 0221 84C0     		testb	%al, %al
 1333 0223 0F8545FE 		jne	.L16
 1333      FFFF
 1334              		.loc 1 268 57 is_stmt 1 view .LVU352
 1335              		.loc 1 270 3 view .LVU353
 1336              		.loc 1 270 19 view .LVU354
 1337              		.loc 1 274 3 view .LVU355
 1338              		.loc 1 276 5 is_stmt 0 view .LVU356
 1339 0229 83EC08   		subl	$8, %esp
 1340              		.cfi_def_cfa_offset 88
 1341 022c 8D830000 		leal	.LC6@GOTOFF(%ebx), %eax
GAS LISTING /tmp/ccttH9cH.s 			page 27


 1341      0000
 1342              		.loc 1 274 3 view .LVU357
 1343 0232 C7070400 		movl	$4, (%edi)
 1343      0000
 1344              		.loc 1 276 5 is_stmt 1 view .LVU358
 1345              	.LBB1225:
 1346              	.LBI1225:
 1347              		.loc 5 573 20 view .LVU359
 1348              		.loc 5 575 3 view .LVU360
 1349              	.LBB1226:
 1350              	.LBI1226:
 1351              		.loc 2 407 20 view .LVU361
 1352              		.loc 2 409 3 view .LVU362
 1353              	.LBB1227:
 1354              	.LBI1227:
 1355              		.loc 3 361 20 view .LVU363
 1356              	.LBB1228:
 1357              		.loc 3 363 3 view .LVU364
 1358              	.LBE1228:
 1359              	.LBE1227:
 1360              	.LBE1226:
 1361              	.LBE1225:
 1362              		.loc 1 276 5 is_stmt 0 view .LVU365
 1363 0238 50       		pushl	%eax
 1364              		.cfi_def_cfa_offset 92
 1365              	.LBB1232:
 1366              	.LBB1233:
 1367              	.LBB1234:
 1368              		.loc 4 141 28 view .LVU366
 1369 0239 8B830400 		movl	4+mb1@GOTOFF(%ebx), %eax
 1369      0000
 1370 023f 2B830000 		subl	mb1@GOTOFF(%ebx), %eax
 1370      0000
 1371              	.LBE1234:
 1372              	.LBE1233:
 1373              	.LBE1232:
 1374              	.LBB1241:
 1375              	.LBB1231:
 1376              	.LBB1230:
 1377              	.LBB1229:
 1378              		.loc 3 363 16 view .LVU367
 1379 0245 C7060100 		movl	$1, (%esi)
 1379      0000
 1380              	.LBE1229:
 1381              	.LBE1230:
 1382              		.loc 2 410 35 is_stmt 1 view .LVU368
 1383              		.loc 2 411 21 view .LVU369
 1384              	.LBE1231:
 1385              	.LBE1241:
 1386              		.loc 1 276 5 view .LVU370
 1387              	.LVL51:
 1388              	.LBB1242:
 1389              	.LBI1232:
 1390              		.loc 4 168 22 view .LVU371
 1391              		.loc 4 170 21 view .LVU372
 1392              		.loc 4 172 3 view .LVU373
 1393              	.LBB1237:
GAS LISTING /tmp/ccttH9cH.s 			page 28


 1394              	.LBI1233:
 1395              		.loc 4 137 22 view .LVU374
 1396              	.LBB1235:
 1397              		.loc 4 141 3 view .LVU375
 1398              		.loc 4 141 3 is_stmt 0 view .LVU376
 1399              	.LBE1235:
 1400              	.LBE1237:
 1401              	.LBB1238:
 1402              	.LBI1238:
 1403              		.loc 4 153 22 is_stmt 1 view .LVU377
 1404              	.LBB1239:
 1405              		.loc 4 155 21 view .LVU378
 1406              		.loc 4 157 3 view .LVU379
 1407              		.loc 4 157 3 is_stmt 0 view .LVU380
 1408              	.LBE1239:
 1409              	.LBE1238:
 1410              	.LBB1240:
 1411              	.LBB1236:
 1412              		.loc 4 141 28 view .LVU381
 1413 024b C1F802   		sarl	$2, %eax
 1414              	.LBE1236:
 1415              	.LBE1240:
 1416              	.LBE1242:
 1417              		.loc 1 276 5 view .LVU382
 1418 024e 3B831000 		cmpl	16+mb1@GOTOFF(%ebx), %eax
 1418      0000
 1419 0254 0F94C0   		sete	%al
 1420 0257 0FB6C0   		movzbl	%al, %eax
 1421 025a 50       		pushl	%eax
 1422              		.cfi_def_cfa_offset 96
 1423 025b E8FCFFFF 		call	__test_assert@PLT
 1423      FF
 1424              	.LVL52:
 1425 0260 83C410   		addl	$16, %esp
 1426              		.cfi_def_cfa_offset 80
 1427 0263 84C0     		testb	%al, %al
 1428 0265 0F85FDFD 		jne	.L21
 1428      FFFF
 1429              		.loc 1 276 5 is_stmt 1 view .LVU383
 1430              		.loc 1 276 66 view .LVU384
 1431              		.loc 1 277 5 view .LVU385
 1432              	.LBB1243:
 1433              	.LBI1243:
 1434              		.loc 5 573 20 view .LVU386
 1435              		.loc 5 575 3 view .LVU387
 1436              	.LBB1244:
 1437              	.LBI1244:
 1438              		.loc 2 407 20 view .LVU388
 1439              		.loc 2 409 3 view .LVU389
 1440              	.LBB1245:
 1441              	.LBI1245:
 1442              		.loc 3 361 20 view .LVU390
 1443              	.LBB1246:
 1444              		.loc 3 363 3 view .LVU391
 1445              	.LBE1246:
 1446              	.LBE1245:
 1447              	.LBE1244:
GAS LISTING /tmp/ccttH9cH.s 			page 29


 1448              	.LBE1243:
 1449              		.loc 1 277 5 is_stmt 0 view .LVU392
 1450 026b 83EC08   		subl	$8, %esp
 1451              		.cfi_def_cfa_offset 88
 1452 026e 8D830000 		leal	.LC7@GOTOFF(%ebx), %eax
 1452      0000
 1453              	.LBB1250:
 1454              	.LBB1249:
 1455              	.LBB1248:
 1456              	.LBB1247:
 1457              		.loc 3 363 16 view .LVU393
 1458 0274 C7060100 		movl	$1, (%esi)
 1458      0000
 1459              	.LBE1247:
 1460              	.LBE1248:
 1461              		.loc 2 410 35 is_stmt 1 view .LVU394
 1462              		.loc 2 411 21 view .LVU395
 1463              	.LBE1249:
 1464              	.LBE1250:
 1465              		.loc 1 277 5 view .LVU396
 1466              	.LVL53:
 1467              	.LBB1251:
 1468              	.LBI1251:
 1469              		.loc 4 153 22 view .LVU397
 1470              	.LBB1252:
 1471              		.loc 4 155 21 view .LVU398
 1472              		.loc 4 157 3 view .LVU399
 1473              		.loc 4 157 3 is_stmt 0 view .LVU400
 1474              	.LBE1252:
 1475              	.LBE1251:
 1476              		.loc 1 277 5 view .LVU401
 1477 027a 50       		pushl	%eax
 1478              		.cfi_def_cfa_offset 92
 1479 027b 31C0     		xorl	%eax, %eax
 1480 027d 83BB1000 		cmpl	$4, 16+mb1@GOTOFF(%ebx)
 1480      000004
 1481 0284 0F94C0   		sete	%al
 1482 0287 50       		pushl	%eax
 1483              		.cfi_def_cfa_offset 96
 1484 0288 E8FCFFFF 		call	__test_assert@PLT
 1484      FF
 1485              	.LVL54:
 1486 028d 83C410   		addl	$16, %esp
 1487              		.cfi_def_cfa_offset 80
 1488 0290 84C0     		testb	%al, %al
 1489 0292 0F85D0FD 		jne	.L21
 1489      FFFF
 1490              		.loc 1 277 5 is_stmt 1 view .LVU402
 1491              		.loc 1 277 69 view .LVU403
 1492              		.loc 1 278 5 view .LVU404
 1493              	.LBB1253:
 1494              	.LBI1253:
 1495              		.loc 5 573 20 view .LVU405
 1496              		.loc 5 575 3 view .LVU406
 1497              	.LBB1254:
 1498              	.LBI1254:
 1499              		.loc 2 407 20 view .LVU407
GAS LISTING /tmp/ccttH9cH.s 			page 30


 1500              		.loc 2 409 3 view .LVU408
 1501              	.LBB1255:
 1502              	.LBI1255:
 1503              		.loc 3 361 20 view .LVU409
 1504              	.LBB1256:
 1505              		.loc 3 363 3 view .LVU410
 1506              	.LBE1256:
 1507              	.LBE1255:
 1508              	.LBE1254:
 1509              	.LBE1253:
 1510              		.loc 1 278 5 is_stmt 0 view .LVU411
 1511 0298 83EC08   		subl	$8, %esp
 1512              		.cfi_def_cfa_offset 88
 1513 029b 8D830000 		leal	.LC8@GOTOFF(%ebx), %eax
 1513      0000
 1514              	.LBB1260:
 1515              	.LBB1259:
 1516              	.LBB1258:
 1517              	.LBB1257:
 1518              		.loc 3 363 16 view .LVU412
 1519 02a1 C7060100 		movl	$1, (%esi)
 1519      0000
 1520              	.LBE1257:
 1521              	.LBE1258:
 1522              		.loc 2 410 35 is_stmt 1 view .LVU413
 1523              		.loc 2 411 21 view .LVU414
 1524              	.LBE1259:
 1525              	.LBE1260:
 1526              		.loc 1 278 5 view .LVU415
 1527 02a7 50       		pushl	%eax
 1528              		.cfi_def_cfa_offset 92
 1529 02a8 8B830800 		movl	8+mb1@GOTOFF(%ebx), %eax
 1529      0000
 1530 02ae 39830C00 		cmpl	%eax, 12+mb1@GOTOFF(%ebx)
 1530      0000
 1531 02b4 0F94C0   		sete	%al
 1532 02b7 0FB6C0   		movzbl	%al, %eax
 1533 02ba 50       		pushl	%eax
 1534              		.cfi_def_cfa_offset 96
 1535 02bb E8FCFFFF 		call	__test_assert@PLT
 1535      FF
 1536              	.LVL55:
 1537 02c0 83C410   		addl	$16, %esp
 1538              		.cfi_def_cfa_offset 80
 1539 02c3 84C0     		testb	%al, %al
 1540 02c5 0F859DFD 		jne	.L21
 1540      FFFF
 1541              		.loc 1 278 5 view .LVU416
 1542              		.loc 1 278 69 view .LVU417
 1543              		.loc 1 280 3 view .LVU418
 1544              		.loc 1 280 19 view .LVU419
 1545              		.loc 1 284 3 view .LVU420
 1546 02cb 8D442428 		leal	40(%esp), %eax
 1547 02cf C7070500 		movl	$5, (%edi)
 1547      0000
 1548              		.loc 1 286 5 view .LVU421
 1549              	.LVL56:
GAS LISTING /tmp/ccttH9cH.s 			page 31


 1550              		.loc 1 286 19 view .LVU422
 1551              		.loc 1 284 3 is_stmt 0 view .LVU423
 1552 02d5 C744241C 		movl	$4, 28(%esp)
 1552      04000000 
 1553 02dd 89442410 		movl	%eax, 16(%esp)
 1554              	.LVL57:
 1555              	.L25:
 1556              		.loc 1 287 7 is_stmt 1 view .LVU424
 1557              	.LBB1261:
 1558              	.LBI1261:
 1559              		.loc 2 407 20 view .LVU425
 1560              		.loc 2 409 3 view .LVU426
 1561              	.LBB1262:
 1562              	.LBI1262:
 1563              		.loc 3 361 20 view .LVU427
 1564              	.LBB1263:
 1565              		.loc 3 363 3 view .LVU428
 1566              	.LBE1263:
 1567              	.LBE1262:
 1568              	.LBE1261:
 1569              		.loc 1 288 14 is_stmt 0 view .LVU429
 1570 02e1 83EC08   		subl	$8, %esp
 1571              		.cfi_def_cfa_offset 88
 1572              	.LBB1266:
 1573              	.LBB1265:
 1574              	.LBB1264:
 1575              		.loc 3 363 16 view .LVU430
 1576 02e4 C7060100 		movl	$1, (%esi)
 1576      0000
 1577              	.LBE1264:
 1578              	.LBE1265:
 1579              		.loc 2 410 35 is_stmt 1 view .LVU431
 1580              		.loc 2 411 21 view .LVU432
 1581              	.LBE1266:
 1582              		.loc 1 288 7 view .LVU433
 1583              		.loc 1 288 14 is_stmt 0 view .LVU434
 1584 02ea FF742418 		pushl	24(%esp)
 1585              		.cfi_def_cfa_offset 92
 1586 02ee 55       		pushl	%ebp
 1587              		.cfi_def_cfa_offset 96
 1588 02ef E8FCFFFF 		call	chMBFetchI@PLT
 1588      FF
 1589              	.LVL58:
 1590              		.loc 1 289 7 is_stmt 1 view .LVU435
 1591              	.LBB1267:
 1592              	.LBI1267:
 1593              		.loc 2 421 20 view .LVU436
 1594              	.LBB1268:
 1595              		.loc 2 423 23 view .LVU437
 1596              		.loc 2 424 34 view .LVU438
 1597              		.loc 2 430 3 view .LVU439
 1598              		.loc 2 430 3 view .LVU440
 1599              		.loc 2 430 3 view .LVU441
 1600              		.loc 2 434 3 view .LVU442
 1601              	.LBB1269:
 1602              	.LBI1269:
 1603              		.loc 3 370 20 view .LVU443
GAS LISTING /tmp/ccttH9cH.s 			page 32


 1604              	.LBB1270:
 1605              		.loc 3 372 3 view .LVU444
 1606              	.LBE1270:
 1607              	.LBE1269:
 1608              	.LBE1268:
 1609              	.LBE1267:
 1610              		.loc 1 290 7 is_stmt 0 view .LVU445
 1611 02f4 5A       		popl	%edx
 1612              		.cfi_def_cfa_offset 92
 1613 02f5 59       		popl	%ecx
 1614              		.cfi_def_cfa_offset 88
 1615 02f6 FF742414 		pushl	20(%esp)
 1616              		.cfi_def_cfa_offset 92
 1617 02fa 85C0     		testl	%eax, %eax
 1618              	.LBB1274:
 1619              	.LBB1273:
 1620              	.LBB1272:
 1621              	.LBB1271:
 1622              		.loc 3 372 16 view .LVU446
 1623 02fc C7060000 		movl	$0, (%esi)
 1623      0000
 1624              	.LBE1271:
 1625              	.LBE1272:
 1626              	.LBE1273:
 1627              	.LBE1274:
 1628              		.loc 1 290 7 is_stmt 1 view .LVU447
 1629 0302 0F94C0   		sete	%al
 1630              	.LVL59:
 1631              		.loc 1 290 7 is_stmt 0 view .LVU448
 1632 0305 0FB6C0   		movzbl	%al, %eax
 1633 0308 50       		pushl	%eax
 1634              		.cfi_def_cfa_offset 96
 1635 0309 E8FCFFFF 		call	__test_assert@PLT
 1635      FF
 1636              	.LVL60:
 1637 030e 83C410   		addl	$16, %esp
 1638              		.cfi_def_cfa_offset 80
 1639 0311 84C0     		testb	%al, %al
 1640 0313 0F8555FD 		jne	.L16
 1640      FFFF
 1641              		.loc 1 290 59 is_stmt 1 view .LVU449
 1642              		.loc 1 291 7 view .LVU450
 1643 0319 83EC0C   		subl	$12, %esp
 1644              		.cfi_def_cfa_offset 92
 1645 031c 0FBE4424 		movsbl	52(%esp), %eax
 1645      34
 1646 0321 50       		pushl	%eax
 1647              		.cfi_def_cfa_offset 96
 1648 0322 E8FCFFFF 		call	test_emit_token@PLT
 1648      FF
 1649              	.LVL61:
 1650              		.loc 1 286 31 view .LVU451
 1651              		.loc 1 286 19 view .LVU452
 1652 0327 83C410   		addl	$16, %esp
 1653              		.cfi_def_cfa_offset 80
 1654 032a 836C241C 		subl	$1, 28(%esp)
 1654      01
GAS LISTING /tmp/ccttH9cH.s 			page 33


 1655              	.LVL62:
 1656              		.loc 1 286 19 is_stmt 0 view .LVU453
 1657 032f 75B0     		jne	.L25
 1658              		.loc 1 293 5 is_stmt 1 view .LVU454
 1659 0331 83EC08   		subl	$8, %esp
 1660              		.cfi_def_cfa_offset 88
 1661 0334 8D830000 		leal	.LC9@GOTOFF(%ebx), %eax
 1661      0000
 1662 033a 50       		pushl	%eax
 1663              		.cfi_def_cfa_offset 92
 1664 033b 8D830000 		leal	.LC10@GOTOFF(%ebx), %eax
 1664      0000
 1665 0341 50       		pushl	%eax
 1666              		.cfi_def_cfa_offset 96
 1667 0342 E8FCFFFF 		call	__test_assert_sequence@PLT
 1667      FF
 1668              	.LVL63:
 1669 0347 83C410   		addl	$16, %esp
 1670              		.cfi_def_cfa_offset 80
 1671 034a 84C0     		testb	%al, %al
 1672 034c 0F851CFD 		jne	.L16
 1672      FFFF
 1673              		.loc 1 293 55 view .LVU455
 1674              		.loc 1 295 3 view .LVU456
 1675              		.loc 1 295 19 view .LVU457
 1676              		.loc 1 299 3 view .LVU458
 1677 0352 C7070600 		movl	$6, (%edi)
 1677      0000
 1678              		.loc 1 301 5 view .LVU459
 1679              		.loc 1 301 12 is_stmt 0 view .LVU460
 1680 0358 50       		pushl	%eax
 1681              		.cfi_def_cfa_offset 84
 1682 0359 6AFF     		pushl	$-1
 1683              		.cfi_def_cfa_offset 88
 1684 035b 6A46     		pushl	$70
 1685              		.cfi_def_cfa_offset 92
 1686 035d 55       		pushl	%ebp
 1687              		.cfi_def_cfa_offset 96
 1688 035e E8FCFFFF 		call	chMBPostTimeout@PLT
 1688      FF
 1689              	.LVL64:
 1690              		.loc 1 302 5 is_stmt 1 view .LVU461
 1691 0363 5A       		popl	%edx
 1692              		.cfi_def_cfa_offset 92
 1693 0364 59       		popl	%ecx
 1694              		.cfi_def_cfa_offset 88
 1695 0365 FF742414 		pushl	20(%esp)
 1696              		.cfi_def_cfa_offset 92
 1697 0369 85C0     		testl	%eax, %eax
 1698 036b 0F94C0   		sete	%al
 1699              	.LVL65:
 1700              		.loc 1 302 5 is_stmt 0 view .LVU462
 1701 036e 0FB6C0   		movzbl	%al, %eax
 1702 0371 50       		pushl	%eax
 1703              		.cfi_def_cfa_offset 96
 1704 0372 E8FCFFFF 		call	__test_assert@PLT
 1704      FF
GAS LISTING /tmp/ccttH9cH.s 			page 34


 1705              	.LVL66:
 1706 0377 83C410   		addl	$16, %esp
 1707              		.cfi_def_cfa_offset 80
 1708 037a 84C0     		testb	%al, %al
 1709 037c 0F85ECFC 		jne	.L16
 1709      FFFF
 1710              		.loc 1 302 57 is_stmt 1 view .LVU463
 1711              		.loc 1 303 5 view .LVU464
 1712              		.loc 1 303 12 is_stmt 0 view .LVU465
 1713 0382 50       		pushl	%eax
 1714              		.cfi_def_cfa_offset 84
 1715 0383 6AFF     		pushl	$-1
 1716              		.cfi_def_cfa_offset 88
 1717 0385 FF742418 		pushl	24(%esp)
 1718              		.cfi_def_cfa_offset 92
 1719 0389 55       		pushl	%ebp
 1720              		.cfi_def_cfa_offset 96
 1721 038a E8FCFFFF 		call	chMBFetchTimeout@PLT
 1721      FF
 1722              	.LVL67:
 1723              		.loc 1 304 5 is_stmt 1 view .LVU466
 1724 038f 5A       		popl	%edx
 1725              		.cfi_def_cfa_offset 92
 1726 0390 59       		popl	%ecx
 1727              		.cfi_def_cfa_offset 88
 1728 0391 FF742414 		pushl	20(%esp)
 1729              		.cfi_def_cfa_offset 92
 1730 0395 85C0     		testl	%eax, %eax
 1731 0397 0F94C0   		sete	%al
 1732              	.LVL68:
 1733              		.loc 1 304 5 is_stmt 0 view .LVU467
 1734 039a 0FB6C0   		movzbl	%al, %eax
 1735 039d 50       		pushl	%eax
 1736              		.cfi_def_cfa_offset 96
 1737 039e E8FCFFFF 		call	__test_assert@PLT
 1737      FF
 1738              	.LVL69:
 1739 03a3 83C410   		addl	$16, %esp
 1740              		.cfi_def_cfa_offset 80
 1741 03a6 84C0     		testb	%al, %al
 1742 03a8 0F85C0FC 		jne	.L16
 1742      FFFF
 1743              		.loc 1 304 57 is_stmt 1 view .LVU468
 1744              		.loc 1 306 3 view .LVU469
 1745              		.loc 1 306 19 view .LVU470
 1746              		.loc 1 310 3 view .LVU471
 1747              	.LBB1275:
 1748              	.LBB1276:
 1749              	.LBB1277:
 1750              	.LBB1278:
 1751              		.loc 4 141 28 is_stmt 0 view .LVU472
 1752 03ae 8B830400 		movl	4+mb1@GOTOFF(%ebx), %eax
 1752      0000
 1753 03b4 2B830000 		subl	mb1@GOTOFF(%ebx), %eax
 1753      0000
 1754              	.LBE1278:
 1755              	.LBE1277:
GAS LISTING /tmp/ccttH9cH.s 			page 35


 1756              	.LBE1276:
 1757              	.LBE1275:
 1758              		.loc 1 310 3 view .LVU473
 1759 03ba C7070700 		movl	$7, (%edi)
 1759      0000
 1760              		.loc 1 312 5 is_stmt 1 view .LVU474
 1761              	.LBB1287:
 1762              	.LBI1287:
 1763              		.loc 5 573 20 view .LVU475
 1764              		.loc 5 575 3 view .LVU476
 1765              	.LBB1288:
 1766              	.LBI1288:
 1767              		.loc 2 407 20 view .LVU477
 1768              		.loc 2 409 3 view .LVU478
 1769              	.LBB1289:
 1770              	.LBI1289:
 1771              		.loc 3 361 20 view .LVU479
 1772              	.LBB1290:
 1773              		.loc 3 363 3 view .LVU480
 1774              	.LBE1290:
 1775              	.LBE1289:
 1776              	.LBE1288:
 1777              	.LBE1287:
 1778              	.LBB1294:
 1779              	.LBB1285:
 1780              	.LBB1281:
 1781              	.LBB1279:
 1782              		.loc 4 141 28 is_stmt 0 view .LVU481
 1783 03c0 C1F802   		sarl	$2, %eax
 1784              	.LBE1279:
 1785              	.LBE1281:
 1786              		.loc 4 172 28 view .LVU482
 1787 03c3 2B831000 		subl	16+mb1@GOTOFF(%ebx), %eax
 1787      0000
 1788              	.LBE1285:
 1789              	.LBE1294:
 1790              		.loc 1 312 5 view .LVU483
 1791 03c9 57       		pushl	%edi
 1792              		.cfi_def_cfa_offset 84
 1793 03ca 83F804   		cmpl	$4, %eax
 1794 03cd 57       		pushl	%edi
 1795              		.cfi_def_cfa_offset 88
 1796 03ce 0F94C0   		sete	%al
 1797 03d1 FF74240C 		pushl	12(%esp)
 1798              		.cfi_def_cfa_offset 92
 1799 03d5 0FB6C0   		movzbl	%al, %eax
 1800              	.LBB1295:
 1801              	.LBB1293:
 1802              	.LBB1292:
 1803              	.LBB1291:
 1804              		.loc 3 363 16 view .LVU484
 1805 03d8 C7060100 		movl	$1, (%esi)
 1805      0000
 1806              	.LBE1291:
 1807              	.LBE1292:
 1808              		.loc 2 410 35 is_stmt 1 view .LVU485
 1809              		.loc 2 411 21 view .LVU486
GAS LISTING /tmp/ccttH9cH.s 			page 36


 1810              	.LBE1293:
 1811              	.LBE1295:
 1812              		.loc 1 312 5 view .LVU487
 1813              	.LVL70:
 1814              	.LBB1296:
 1815              	.LBI1275:
 1816              		.loc 4 168 22 view .LVU488
 1817              	.LBB1286:
 1818              		.loc 4 170 21 view .LVU489
 1819              		.loc 4 172 3 view .LVU490
 1820              	.LBB1282:
 1821              	.LBI1277:
 1822              		.loc 4 137 22 view .LVU491
 1823              	.LBB1280:
 1824              		.loc 4 141 3 view .LVU492
 1825              		.loc 4 141 3 is_stmt 0 view .LVU493
 1826              	.LBE1280:
 1827              	.LBE1282:
 1828              	.LBB1283:
 1829              	.LBI1283:
 1830              		.loc 4 153 22 is_stmt 1 view .LVU494
 1831              	.LBB1284:
 1832              		.loc 4 155 21 view .LVU495
 1833              		.loc 4 157 3 view .LVU496
 1834              		.loc 4 157 3 is_stmt 0 view .LVU497
 1835              	.LBE1284:
 1836              	.LBE1283:
 1837              	.LBE1286:
 1838              	.LBE1296:
 1839              		.loc 1 312 5 view .LVU498
 1840 03de 50       		pushl	%eax
 1841              		.cfi_def_cfa_offset 96
 1842 03df E8FCFFFF 		call	__test_assert@PLT
 1842      FF
 1843              	.LVL71:
 1844 03e4 83C410   		addl	$16, %esp
 1845              		.cfi_def_cfa_offset 80
 1846 03e7 84C0     		testb	%al, %al
 1847 03e9 0F8579FC 		jne	.L21
 1847      FFFF
 1848              		.loc 1 312 5 is_stmt 1 view .LVU499
 1849              		.loc 1 312 70 view .LVU500
 1850              		.loc 1 313 5 view .LVU501
 1851              	.LBB1297:
 1852              	.LBI1297:
 1853              		.loc 5 573 20 view .LVU502
 1854              		.loc 5 575 3 view .LVU503
 1855              	.LBB1298:
 1856              	.LBI1298:
 1857              		.loc 2 407 20 view .LVU504
 1858              		.loc 2 409 3 view .LVU505
 1859              	.LBB1299:
 1860              	.LBI1299:
 1861              		.loc 3 361 20 view .LVU506
 1862              	.LBB1300:
 1863              		.loc 3 363 3 view .LVU507
 1864              	.LBE1300:
GAS LISTING /tmp/ccttH9cH.s 			page 37


 1865              	.LBE1299:
 1866              	.LBE1298:
 1867              	.LBE1297:
 1868              		.loc 1 313 5 is_stmt 0 view .LVU508
 1869 03ef 31C0     		xorl	%eax, %eax
 1870 03f1 83BB1000 		cmpl	$0, 16+mb1@GOTOFF(%ebx)
 1870      000000
 1871 03f8 51       		pushl	%ecx
 1872              		.cfi_def_cfa_offset 84
 1873 03f9 0F94C0   		sete	%al
 1874 03fc 51       		pushl	%ecx
 1875              		.cfi_def_cfa_offset 88
 1876 03fd FF742410 		pushl	16(%esp)
 1877              		.cfi_def_cfa_offset 92
 1878 0401 50       		pushl	%eax
 1879              		.cfi_def_cfa_offset 96
 1880              	.LBB1304:
 1881              	.LBB1303:
 1882              	.LBB1302:
 1883              	.LBB1301:
 1884              		.loc 3 363 16 view .LVU509
 1885 0402 C7060100 		movl	$1, (%esi)
 1885      0000
 1886              	.LBE1301:
 1887              	.LBE1302:
 1888              		.loc 2 410 35 is_stmt 1 view .LVU510
 1889              		.loc 2 411 21 view .LVU511
 1890              	.LBE1303:
 1891              	.LBE1304:
 1892              		.loc 1 313 5 view .LVU512
 1893              	.LVL72:
 1894              	.LBB1305:
 1895              	.LBI1305:
 1896              		.loc 4 153 22 view .LVU513
 1897              	.LBB1306:
 1898              		.loc 4 155 21 view .LVU514
 1899              		.loc 4 157 3 view .LVU515
 1900              		.loc 4 157 3 is_stmt 0 view .LVU516
 1901              	.LBE1306:
 1902              	.LBE1305:
 1903              		.loc 1 313 5 view .LVU517
 1904 0408 E8FCFFFF 		call	__test_assert@PLT
 1904      FF
 1905              	.LVL73:
 1906 040d 83C410   		addl	$16, %esp
 1907              		.cfi_def_cfa_offset 80
 1908 0410 84C0     		testb	%al, %al
 1909 0412 0F8550FC 		jne	.L21
 1909      FFFF
 1910              		.loc 1 313 5 is_stmt 1 view .LVU518
 1911              	.LBB1307:
 1912              	.LBI1307:
 1913              		.loc 5 584 20 view .LVU519
 1914              		.loc 5 586 3 view .LVU520
 1915              	.LBB1308:
 1916              	.LBI1308:
 1917              		.loc 2 421 20 view .LVU521
GAS LISTING /tmp/ccttH9cH.s 			page 38


 1918              	.LBB1309:
 1919              		.loc 2 423 23 view .LVU522
 1920              		.loc 2 424 34 view .LVU523
 1921              		.loc 2 430 3 view .LVU524
 1922              		.loc 2 430 3 view .LVU525
 1923              		.loc 2 430 3 view .LVU526
 1924              		.loc 2 434 3 view .LVU527
 1925              	.LBB1310:
 1926              	.LBI1310:
 1927              		.loc 3 370 20 view .LVU528
 1928              	.LBB1311:
 1929              		.loc 3 372 3 view .LVU529
 1930              	.LBE1311:
 1931              	.LBE1310:
 1932              	.LBE1309:
 1933              	.LBE1308:
 1934              	.LBE1307:
 1935              		.loc 1 314 5 is_stmt 0 view .LVU530
 1936 0418 8B830800 		movl	8+mb1@GOTOFF(%ebx), %eax
 1936      0000
 1937 041e 39830000 		cmpl	%eax, mb1@GOTOFF(%ebx)
 1937      0000
 1938 0424 52       		pushl	%edx
 1939              		.cfi_def_cfa_offset 84
 1940 0425 0F94C0   		sete	%al
 1941 0428 52       		pushl	%edx
 1942              		.cfi_def_cfa_offset 88
 1943 0429 0FB6C0   		movzbl	%al, %eax
 1944 042c FF74241C 		pushl	28(%esp)
 1945              		.cfi_def_cfa_offset 92
 1946 0430 50       		pushl	%eax
 1947              		.cfi_def_cfa_offset 96
 1948              	.LBB1316:
 1949              	.LBB1315:
 1950              	.LBB1314:
 1951              	.LBB1313:
 1952              	.LBB1312:
 1953              		.loc 3 372 16 view .LVU531
 1954 0431 C7060000 		movl	$0, (%esi)
 1954      0000
 1955              	.LBE1312:
 1956              	.LBE1313:
 1957              	.LBE1314:
 1958              	.LBE1315:
 1959              	.LBE1316:
 1960              		.loc 1 313 65 is_stmt 1 view .LVU532
 1961              		.loc 1 314 5 view .LVU533
 1962 0437 E8FCFFFF 		call	__test_assert@PLT
 1962      FF
 1963              	.LVL74:
 1964 043c 83C410   		addl	$16, %esp
 1965              		.cfi_def_cfa_offset 80
 1966 043f 84C0     		testb	%al, %al
 1967 0441 0F8527FC 		jne	.L16
 1967      FFFF
 1968              		.loc 1 314 78 view .LVU534
 1969              		.loc 1 315 5 view .LVU535
GAS LISTING /tmp/ccttH9cH.s 			page 39


 1970 0447 50       		pushl	%eax
 1971              		.cfi_def_cfa_offset 84
 1972 0448 50       		pushl	%eax
 1973              		.cfi_def_cfa_offset 88
 1974 0449 8B830C00 		movl	12+mb1@GOTOFF(%ebx), %eax
 1974      0000
 1975 044f 39830000 		cmpl	%eax, mb1@GOTOFF(%ebx)
 1975      0000
 1976 0455 FF742420 		pushl	32(%esp)
 1977              		.cfi_def_cfa_offset 92
 1978 0459 0F94C0   		sete	%al
 1979 045c 0FB6C0   		movzbl	%al, %eax
 1980 045f 50       		pushl	%eax
 1981              		.cfi_def_cfa_offset 96
 1982 0460 E8FCFFFF 		call	__test_assert@PLT
 1982      FF
 1983              	.LVL75:
 1984              		.loc 1 315 5 view .LVU536
 1985 0465 83C410   		addl	$16, %esp
 1986              		.cfi_def_cfa_offset 80
 1987              		.loc 1 315 5 is_stmt 0 view .LVU537
 1988 0468 E901FCFF 		jmp	.L16
 1988      FF
 1989              	.L30:
 1990              	.LBE1317:
 1991              	.LBE1318:
 1992              		.loc 1 318 1 view .LVU538
 1993 046d E8FCFFFF 		call	__stack_chk_fail_local
 1993      FF
 1994              	.LVL76:
 1995              		.cfi_endproc
 1996              	.LFE308:
 1997              		.size	oslib_test_002_002_execute, .-oslib_test_002_002_execute
 1998              		.section	.rodata.oslib_test_002_001_execute.str1.1,"aMS",@progbits,1
 1999              	.LC11:
 2000 0000 6E6F7420 		.string	"not in reset state"
 2000      696E2072 
 2000      65736574 
 2000      20737461 
 2000      746500
 2001              		.section	.text.oslib_test_002_001_execute,"ax",@progbits
 2002              		.p2align 4
 2003              		.type	oslib_test_002_001_execute, @function
 2004              	oslib_test_002_001_execute:
 2005              	.LFB305:
 2006              		.loc 1 94 46 is_stmt 1 view -0
 2007              		.cfi_startproc
 2008 0000 55       		pushl	%ebp
 2009              		.cfi_def_cfa_offset 8
 2010              		.cfi_offset 5, -8
 2011 0001 57       		pushl	%edi
 2012              		.cfi_def_cfa_offset 12
 2013              		.cfi_offset 7, -12
 2014 0002 56       		pushl	%esi
 2015              		.cfi_def_cfa_offset 16
 2016              		.cfi_offset 6, -16
 2017 0003 53       		pushl	%ebx
GAS LISTING /tmp/ccttH9cH.s 			page 40


 2018              		.cfi_def_cfa_offset 20
 2019              		.cfi_offset 3, -20
 2020 0004 E8FCFFFF 		call	__x86.get_pc_thunk.bx
 2020      FF
 2021 0009 81C30200 		addl	$_GLOBAL_OFFSET_TABLE_, %ebx
 2021      0000
 2022 000f 83EC44   		subl	$68, %esp
 2023              		.cfi_def_cfa_offset 88
 2024              		.loc 1 94 46 is_stmt 0 view .LVU540
 2025 0012 65A11400 		movl	%gs:20, %eax
 2025      0000
 2026 0018 89442434 		movl	%eax, 52(%esp)
 2027 001c 31C0     		xorl	%eax, %eax
 2028              		.loc 1 95 3 is_stmt 1 view .LVU541
 2029              		.loc 1 96 3 view .LVU542
 2030              		.loc 1 99 3 view .LVU543
 2031 001e 8BBB0000 		movl	chtest@GOT(%ebx), %edi
 2031      0000
 2032              		.loc 1 101 5 is_stmt 0 view .LVU544
 2033 0024 8D830000 		leal	.LC1@GOTOFF(%ebx), %eax
 2033      0000
 2034              	.LBB1508:
 2035              	.LBB1509:
 2036              	.LBB1510:
 2037              	.LBB1511:
 2038              		.loc 3 363 16 view .LVU545
 2039 002a 8BB30000 		movl	port_irq_sts@GOT(%ebx), %esi
 2039      0000
 2040              	.LBE1511:
 2041              	.LBE1510:
 2042              	.LBE1509:
 2043              	.LBE1508:
 2044              		.loc 1 99 3 view .LVU546
 2045 0030 C7070100 		movl	$1, (%edi)
 2045      0000
 2046              		.loc 1 101 5 is_stmt 1 view .LVU547
 2047              	.LBB1518:
 2048              	.LBI1508:
 2049              		.loc 5 573 20 view .LVU548
 2050              		.loc 5 575 3 view .LVU549
 2051              	.LBB1516:
 2052              	.LBI1509:
 2053              		.loc 2 407 20 view .LVU550
 2054              		.loc 2 409 3 view .LVU551
 2055              	.LBB1514:
 2056              	.LBI1510:
 2057              		.loc 3 361 20 view .LVU552
 2058              	.LBB1512:
 2059              		.loc 3 363 3 view .LVU553
 2060              	.LBE1512:
 2061              	.LBE1514:
 2062              	.LBE1516:
 2063              	.LBE1518:
 2064              		.loc 1 101 5 is_stmt 0 view .LVU554
 2065 0036 50       		pushl	%eax
 2066              		.cfi_def_cfa_offset 92
 2067              	.LBB1519:
GAS LISTING /tmp/ccttH9cH.s 			page 41


 2068              	.LBB1520:
 2069              	.LBB1521:
 2070              	.LBB1522:
 2071              		.loc 4 141 28 view .LVU555
 2072 0037 8B830400 		movl	4+mb1@GOTOFF(%ebx), %eax
 2072      0000
 2073 003d 2B830000 		subl	mb1@GOTOFF(%ebx), %eax
 2073      0000
 2074              	.LBE1522:
 2075              	.LBE1521:
 2076              	.LBE1520:
 2077              	.LBE1519:
 2078              	.LBB1530:
 2079              	.LBB1517:
 2080              	.LBB1515:
 2081              	.LBB1513:
 2082              		.loc 3 363 16 view .LVU556
 2083 0043 C7060100 		movl	$1, (%esi)
 2083      0000
 2084              	.LBE1513:
 2085              	.LBE1515:
 2086              		.loc 2 410 35 is_stmt 1 view .LVU557
 2087              		.loc 2 411 21 view .LVU558
 2088              	.LBE1517:
 2089              	.LBE1530:
 2090              		.loc 1 101 5 view .LVU559
 2091              	.LVL77:
 2092              	.LBB1531:
 2093              	.LBI1519:
 2094              		.loc 4 168 22 view .LVU560
 2095              	.LBB1529:
 2096              		.loc 4 170 21 view .LVU561
 2097              		.loc 4 172 3 view .LVU562
 2098              	.LBB1525:
 2099              	.LBI1521:
 2100              		.loc 4 137 22 view .LVU563
 2101              	.LBB1523:
 2102              		.loc 4 141 3 view .LVU564
 2103              		.loc 4 141 3 is_stmt 0 view .LVU565
 2104              	.LBE1523:
 2105              	.LBE1525:
 2106              	.LBB1526:
 2107              	.LBI1526:
 2108              		.loc 4 153 22 is_stmt 1 view .LVU566
 2109              	.LBB1527:
 2110              		.loc 4 155 21 view .LVU567
 2111              		.loc 4 157 3 view .LVU568
 2112              		.loc 4 157 3 is_stmt 0 view .LVU569
 2113              	.LBE1527:
 2114              	.LBE1526:
 2115              	.LBB1528:
 2116              	.LBB1524:
 2117              		.loc 4 141 28 view .LVU570
 2118 0049 C1F802   		sarl	$2, %eax
 2119              	.LBE1524:
 2120              	.LBE1528:
 2121              		.loc 4 172 28 view .LVU571
GAS LISTING /tmp/ccttH9cH.s 			page 42


 2122 004c 2B831000 		subl	16+mb1@GOTOFF(%ebx), %eax
 2122      0000
 2123              	.LBE1529:
 2124              	.LBE1531:
 2125              		.loc 1 101 5 view .LVU572
 2126 0052 83F804   		cmpl	$4, %eax
 2127 0055 0F94C0   		sete	%al
 2128 0058 0FB6C0   		movzbl	%al, %eax
 2129 005b 50       		pushl	%eax
 2130              		.cfi_def_cfa_offset 96
 2131 005c E8FCFFFF 		call	__test_assert@PLT
 2131      FF
 2132              	.LVL78:
 2133              	.LBB1532:
 2134              	.LBB1533:
 2135              	.LBB1534:
 2136              	.LBB1535:
 2137              	.LBB1536:
 2138              		.loc 3 372 16 view .LVU573
 2139 0061 C7060000 		movl	$0, (%esi)
 2139      0000
 2140              	.LBE1536:
 2141              	.LBE1535:
 2142              	.LBE1534:
 2143              	.LBE1533:
 2144              	.LBE1532:
 2145              		.loc 1 101 5 view .LVU574
 2146 0067 83C410   		addl	$16, %esp
 2147              		.cfi_def_cfa_offset 80
 2148 006a 84C0     		testb	%al, %al
 2149 006c 7422     		je	.L32
 2150              	.L31:
 2151              		.loc 1 188 1 view .LVU575
 2152 006e 8B44242C 		movl	44(%esp), %eax
 2153 0072 652B0514 		subl	%gs:20, %eax
 2153      000000
 2154 0079 0F856304 		jne	.L45
 2154      0000
 2155 007f 83C43C   		addl	$60, %esp
 2156              		.cfi_remember_state
 2157              		.cfi_def_cfa_offset 20
 2158 0082 5B       		popl	%ebx
 2159              		.cfi_restore 3
 2160              		.cfi_def_cfa_offset 16
 2161 0083 5E       		popl	%esi
 2162              		.cfi_restore 6
 2163              		.cfi_def_cfa_offset 12
 2164 0084 5F       		popl	%edi
 2165              		.cfi_restore 7
 2166              		.cfi_def_cfa_offset 8
 2167 0085 5D       		popl	%ebp
 2168              		.cfi_restore 5
 2169              		.cfi_def_cfa_offset 4
 2170 0086 C3       		ret
 2171 0087 8DB42600 		.p2align 4,,10
 2171      00000066 
 2171      90
GAS LISTING /tmp/ccttH9cH.s 			page 43


 2172              		.p2align 3
 2173              	.L32:
 2174              		.cfi_restore_state
 2175              	.LBB1537:
 2176              	.LBI1537:
 2177              		.loc 1 94 13 is_stmt 1 view .LVU576
 2178              	.LBB1538:
 2179              		.loc 1 101 5 view .LVU577
 2180              	.LBB1539:
 2181              	.LBI1539:
 2182              		.loc 5 584 20 view .LVU578
 2183              		.loc 5 586 3 view .LVU579
 2184              	.LBB1540:
 2185              	.LBI1540:
 2186              		.loc 2 421 20 view .LVU580
 2187              	.LBB1541:
 2188              		.loc 2 423 23 view .LVU581
 2189              		.loc 2 424 34 view .LVU582
 2190              		.loc 2 430 3 view .LVU583
 2191              		.loc 2 430 3 view .LVU584
 2192              		.loc 2 430 3 view .LVU585
 2193              		.loc 2 434 3 view .LVU586
 2194              	.LBB1542:
 2195              	.LBI1542:
 2196              		.loc 3 370 20 view .LVU587
 2197              	.LBB1543:
 2198              		.loc 3 372 3 view .LVU588
 2199              	.LBE1543:
 2200              	.LBE1542:
 2201              	.LBE1541:
 2202              	.LBE1540:
 2203              	.LBE1539:
 2204              		.loc 1 101 71 view .LVU589
 2205              		.loc 1 103 3 view .LVU590
 2206              		.loc 1 103 19 view .LVU591
 2207              		.loc 1 107 3 view .LVU592
 2208              		.loc 1 109 5 is_stmt 0 view .LVU593
 2209 0090 83EC0C   		subl	$12, %esp
 2210              		.cfi_def_cfa_offset 92
 2211 0093 8DAB0000 		leal	mb1@GOTOFF(%ebx), %ebp
 2211      0000
 2212              		.loc 1 107 3 view .LVU594
 2213 0099 C7070200 		movl	$2, (%edi)
 2213      0000
 2214              		.loc 1 109 5 is_stmt 1 view .LVU595
 2215 009f 55       		pushl	%ebp
 2216              		.cfi_def_cfa_offset 96
 2217 00a0 E8FCFFFF 		call	chMBReset@PLT
 2217      FF
 2218              	.LVL79:
 2219              		.loc 1 110 5 view .LVU596
 2220              	.LBB1544:
 2221              	.LBI1544:
 2222              		.loc 5 573 20 view .LVU597
 2223              		.loc 5 575 3 view .LVU598
 2224              	.LBB1545:
 2225              	.LBI1545:
GAS LISTING /tmp/ccttH9cH.s 			page 44


 2226              		.loc 2 407 20 view .LVU599
 2227              		.loc 2 409 3 view .LVU600
 2228              	.LBB1546:
 2229              	.LBI1546:
 2230              		.loc 3 361 20 view .LVU601
 2231              	.LBB1547:
 2232              		.loc 3 363 3 view .LVU602
 2233              	.LBE1547:
 2234              	.LBE1546:
 2235              	.LBE1545:
 2236              	.LBE1544:
 2237              		.loc 1 110 5 is_stmt 0 view .LVU603
 2238 00a5 59       		popl	%ecx
 2239              		.cfi_def_cfa_offset 92
 2240 00a6 58       		popl	%eax
 2241              		.cfi_def_cfa_offset 88
 2242 00a7 8D830000 		leal	.LC2@GOTOFF(%ebx), %eax
 2242      0000
 2243 00ad 8944240C 		movl	%eax, 12(%esp)
 2244 00b1 50       		pushl	%eax
 2245              		.cfi_def_cfa_offset 92
 2246              	.LBB1551:
 2247              	.LBB1552:
 2248              	.LBB1553:
 2249              	.LBB1554:
 2250              		.loc 4 141 28 view .LVU604
 2251 00b2 8B830400 		movl	4+mb1@GOTOFF(%ebx), %eax
 2251      0000
 2252 00b8 2B830000 		subl	mb1@GOTOFF(%ebx), %eax
 2252      0000
 2253              	.LBE1554:
 2254              	.LBE1553:
 2255              	.LBE1552:
 2256              	.LBE1551:
 2257              	.LBB1562:
 2258              	.LBB1550:
 2259              	.LBB1549:
 2260              	.LBB1548:
 2261              		.loc 3 363 16 view .LVU605
 2262 00be C7060100 		movl	$1, (%esi)
 2262      0000
 2263              	.LBE1548:
 2264              	.LBE1549:
 2265              		.loc 2 410 35 is_stmt 1 view .LVU606
 2266              		.loc 2 411 21 view .LVU607
 2267              	.LBE1550:
 2268              	.LBE1562:
 2269              		.loc 1 110 5 view .LVU608
 2270              	.LVL80:
 2271              	.LBB1563:
 2272              	.LBI1551:
 2273              		.loc 4 168 22 view .LVU609
 2274              	.LBB1561:
 2275              		.loc 4 170 21 view .LVU610
 2276              		.loc 4 172 3 view .LVU611
 2277              	.LBB1557:
 2278              	.LBI1553:
GAS LISTING /tmp/ccttH9cH.s 			page 45


 2279              		.loc 4 137 22 view .LVU612
 2280              	.LBB1555:
 2281              		.loc 4 141 3 view .LVU613
 2282              		.loc 4 141 3 is_stmt 0 view .LVU614
 2283              	.LBE1555:
 2284              	.LBE1557:
 2285              	.LBB1558:
 2286              	.LBI1558:
 2287              		.loc 4 153 22 is_stmt 1 view .LVU615
 2288              	.LBB1559:
 2289              		.loc 4 155 21 view .LVU616
 2290              		.loc 4 157 3 view .LVU617
 2291              		.loc 4 157 3 is_stmt 0 view .LVU618
 2292              	.LBE1559:
 2293              	.LBE1558:
 2294              	.LBB1560:
 2295              	.LBB1556:
 2296              		.loc 4 141 28 view .LVU619
 2297 00c4 C1F802   		sarl	$2, %eax
 2298              	.LBE1556:
 2299              	.LBE1560:
 2300              		.loc 4 172 28 view .LVU620
 2301 00c7 2B831000 		subl	16+mb1@GOTOFF(%ebx), %eax
 2301      0000
 2302              	.LBE1561:
 2303              	.LBE1563:
 2304              		.loc 1 110 5 view .LVU621
 2305 00cd 83F804   		cmpl	$4, %eax
 2306 00d0 0F94C0   		sete	%al
 2307 00d3 0FB6C0   		movzbl	%al, %eax
 2308 00d6 50       		pushl	%eax
 2309              		.cfi_def_cfa_offset 96
 2310 00d7 E8FCFFFF 		call	__test_assert@PLT
 2310      FF
 2311              	.LVL81:
 2312 00dc 83C410   		addl	$16, %esp
 2313              		.cfi_def_cfa_offset 80
 2314 00df 84C0     		testb	%al, %al
 2315 00e1 752E     		jne	.L36
 2316              		.loc 1 110 5 is_stmt 1 view .LVU622
 2317              		.loc 1 110 70 view .LVU623
 2318              		.loc 1 111 5 view .LVU624
 2319              	.LBB1564:
 2320              	.LBI1564:
 2321              		.loc 5 573 20 view .LVU625
 2322              		.loc 5 575 3 view .LVU626
 2323              	.LBB1565:
 2324              	.LBI1565:
 2325              		.loc 2 407 20 view .LVU627
 2326              		.loc 2 409 3 view .LVU628
 2327              	.LBB1566:
 2328              	.LBI1566:
 2329              		.loc 3 361 20 view .LVU629
 2330              	.LBB1567:
 2331              		.loc 3 363 3 view .LVU630
 2332              	.LBE1567:
 2333              	.LBE1566:
GAS LISTING /tmp/ccttH9cH.s 			page 46


 2334              	.LBE1565:
 2335              	.LBE1564:
 2336              		.loc 1 111 5 is_stmt 0 view .LVU631
 2337 00e3 8B931000 		movl	16+mb1@GOTOFF(%ebx), %edx
 2337      0000
 2338 00e9 83EC08   		subl	$8, %esp
 2339              		.cfi_def_cfa_offset 88
 2340 00ec 8D830000 		leal	.LC3@GOTOFF(%ebx), %eax
 2340      0000
 2341              	.LBB1571:
 2342              	.LBB1570:
 2343              	.LBB1569:
 2344              	.LBB1568:
 2345              		.loc 3 363 16 view .LVU632
 2346 00f2 C7060100 		movl	$1, (%esi)
 2346      0000
 2347              	.LBE1568:
 2348              	.LBE1569:
 2349              		.loc 2 410 35 is_stmt 1 view .LVU633
 2350              		.loc 2 411 21 view .LVU634
 2351              	.LBE1570:
 2352              	.LBE1571:
 2353              		.loc 1 111 5 view .LVU635
 2354              	.LVL82:
 2355              	.LBB1572:
 2356              	.LBI1572:
 2357              		.loc 4 153 22 view .LVU636
 2358              	.LBB1573:
 2359              		.loc 4 155 21 view .LVU637
 2360              		.loc 4 157 3 view .LVU638
 2361              		.loc 4 157 3 is_stmt 0 view .LVU639
 2362              	.LBE1573:
 2363              	.LBE1572:
 2364              		.loc 1 111 5 view .LVU640
 2365 00f8 89442410 		movl	%eax, 16(%esp)
 2366 00fc 50       		pushl	%eax
 2367              		.cfi_def_cfa_offset 92
 2368 00fd 31C0     		xorl	%eax, %eax
 2369 00ff 85D2     		testl	%edx, %edx
 2370 0101 0F94C0   		sete	%al
 2371 0104 50       		pushl	%eax
 2372              		.cfi_def_cfa_offset 96
 2373 0105 E8FCFFFF 		call	__test_assert@PLT
 2373      FF
 2374              	.LVL83:
 2375 010a 83C410   		addl	$16, %esp
 2376              		.cfi_def_cfa_offset 80
 2377 010d 84C0     		testb	%al, %al
 2378 010f 740F     		je	.L46
 2379              	.L36:
 2380              		.loc 1 110 5 is_stmt 1 view .LVU641
 2381              	.LBB1574:
 2382              	.LBI1574:
 2383              		.loc 5 584 20 view .LVU642
 2384              		.loc 5 586 3 view .LVU643
 2385              	.LBB1575:
 2386              	.LBI1575:
GAS LISTING /tmp/ccttH9cH.s 			page 47


 2387              		.loc 2 421 20 view .LVU644
 2388              	.LBB1576:
 2389              		.loc 2 423 23 view .LVU645
 2390              		.loc 2 424 34 view .LVU646
 2391              		.loc 2 430 3 view .LVU647
 2392              		.loc 2 430 3 view .LVU648
 2393              		.loc 2 430 3 view .LVU649
 2394              		.loc 2 434 3 view .LVU650
 2395              	.LBB1577:
 2396              	.LBI1577:
 2397              		.loc 3 370 20 view .LVU651
 2398              	.LBB1578:
 2399              		.loc 3 372 3 view .LVU652
 2400              		.loc 3 372 16 is_stmt 0 view .LVU653
 2401 0111 C7060000 		movl	$0, (%esi)
 2401      0000
 2402              	.LBE1578:
 2403              	.LBE1577:
 2404              	.LBE1576:
 2405              	.LBE1575:
 2406              	.LBE1574:
 2407              		.loc 1 110 5 is_stmt 1 view .LVU654
 2408 0117 E952FFFF 		jmp	.L31
 2408      FF
 2409 011c 8D742600 		.p2align 4,,10
 2410              		.p2align 3
 2411              	.L46:
 2412              		.loc 1 111 5 view .LVU655
 2413              		.loc 1 111 65 view .LVU656
 2414              		.loc 1 112 5 view .LVU657
 2415              	.LBB1579:
 2416              	.LBI1579:
 2417              		.loc 5 573 20 view .LVU658
 2418              		.loc 5 575 3 view .LVU659
 2419              	.LBB1580:
 2420              	.LBI1580:
 2421              		.loc 2 407 20 view .LVU660
 2422              		.loc 2 409 3 view .LVU661
 2423              	.LBB1581:
 2424              	.LBI1581:
 2425              		.loc 3 361 20 view .LVU662
 2426              	.LBB1582:
 2427              		.loc 3 363 3 view .LVU663
 2428              	.LBE1582:
 2429              	.LBE1581:
 2430              	.LBE1580:
 2431              	.LBE1579:
 2432              		.loc 1 112 5 is_stmt 0 view .LVU664
 2433 0120 83EC08   		subl	$8, %esp
 2434              		.cfi_def_cfa_offset 88
 2435 0123 8D830000 		leal	.LC4@GOTOFF(%ebx), %eax
 2435      0000
 2436              	.LBB1586:
 2437              	.LBB1585:
 2438              	.LBB1584:
 2439              	.LBB1583:
 2440              		.loc 3 363 16 view .LVU665
GAS LISTING /tmp/ccttH9cH.s 			page 48


 2441 0129 C7060100 		movl	$1, (%esi)
 2441      0000
 2442              	.LBE1583:
 2443              	.LBE1584:
 2444              		.loc 2 410 35 is_stmt 1 view .LVU666
 2445              		.loc 2 411 21 view .LVU667
 2446              	.LBE1585:
 2447              	.LBE1586:
 2448              		.loc 1 112 5 view .LVU668
 2449 012f 89442414 		movl	%eax, 20(%esp)
 2450 0133 50       		pushl	%eax
 2451              		.cfi_def_cfa_offset 92
 2452 0134 8B830800 		movl	8+mb1@GOTOFF(%ebx), %eax
 2452      0000
 2453 013a 39830000 		cmpl	%eax, mb1@GOTOFF(%ebx)
 2453      0000
 2454 0140 0F94C0   		sete	%al
 2455 0143 0FB6C0   		movzbl	%al, %eax
 2456 0146 50       		pushl	%eax
 2457              		.cfi_def_cfa_offset 96
 2458 0147 E8FCFFFF 		call	__test_assert@PLT
 2458      FF
 2459              	.LVL84:
 2460 014c 83C410   		addl	$16, %esp
 2461              		.cfi_def_cfa_offset 80
 2462 014f 84C0     		testb	%al, %al
 2463 0151 75BE     		jne	.L36
 2464              		.loc 1 112 5 view .LVU669
 2465              		.loc 1 112 83 view .LVU670
 2466              		.loc 1 113 5 view .LVU671
 2467              	.LBB1587:
 2468              	.LBI1587:
 2469              		.loc 5 573 20 view .LVU672
 2470              		.loc 5 575 3 view .LVU673
 2471              	.LBB1588:
 2472              	.LBI1588:
 2473              		.loc 2 407 20 view .LVU674
 2474              		.loc 2 409 3 view .LVU675
 2475              	.LBB1589:
 2476              	.LBI1589:
 2477              		.loc 3 361 20 view .LVU676
 2478              	.LBB1590:
 2479              		.loc 3 363 3 view .LVU677
 2480              	.LBE1590:
 2481              	.LBE1589:
 2482              	.LBE1588:
 2483              	.LBE1587:
 2484              		.loc 1 113 5 is_stmt 0 view .LVU678
 2485 0153 83EC08   		subl	$8, %esp
 2486              		.cfi_def_cfa_offset 88
 2487 0156 8D830000 		leal	.LC5@GOTOFF(%ebx), %eax
 2487      0000
 2488              	.LBB1594:
 2489              	.LBB1593:
 2490              	.LBB1592:
 2491              	.LBB1591:
 2492              		.loc 3 363 16 view .LVU679
GAS LISTING /tmp/ccttH9cH.s 			page 49


 2493 015c C7060100 		movl	$1, (%esi)
 2493      0000
 2494              	.LBE1591:
 2495              	.LBE1592:
 2496              		.loc 2 410 35 is_stmt 1 view .LVU680
 2497              		.loc 2 411 21 view .LVU681
 2498              	.LBE1593:
 2499              	.LBE1594:
 2500              		.loc 1 113 5 view .LVU682
 2501 0162 8944241C 		movl	%eax, 28(%esp)
 2502 0166 50       		pushl	%eax
 2503              		.cfi_def_cfa_offset 92
 2504 0167 8B830C00 		movl	12+mb1@GOTOFF(%ebx), %eax
 2504      0000
 2505 016d 39830000 		cmpl	%eax, mb1@GOTOFF(%ebx)
 2505      0000
 2506 0173 0F94C0   		sete	%al
 2507 0176 0FB6C0   		movzbl	%al, %eax
 2508 0179 50       		pushl	%eax
 2509              		.cfi_def_cfa_offset 96
 2510 017a E8FCFFFF 		call	__test_assert@PLT
 2510      FF
 2511              	.LVL85:
 2512 017f 83C410   		addl	$16, %esp
 2513              		.cfi_def_cfa_offset 80
 2514 0182 84C0     		testb	%al, %al
 2515 0184 758B     		jne	.L36
 2516              		.loc 1 113 5 view .LVU683
 2517              	.LBB1595:
 2518              	.LBI1595:
 2519              		.loc 5 584 20 view .LVU684
 2520              		.loc 5 586 3 view .LVU685
 2521              	.LBB1596:
 2522              	.LBI1596:
 2523              		.loc 2 421 20 view .LVU686
 2524              	.LBB1597:
 2525              		.loc 2 423 23 view .LVU687
 2526              		.loc 2 424 34 view .LVU688
 2527              		.loc 2 430 3 view .LVU689
 2528              		.loc 2 430 3 view .LVU690
 2529              		.loc 2 430 3 view .LVU691
 2530              		.loc 2 434 3 view .LVU692
 2531              	.LBB1598:
 2532              	.LBI1598:
 2533              		.loc 3 370 20 view .LVU693
 2534              	.LBB1599:
 2535              		.loc 3 372 3 view .LVU694
 2536              	.LBE1599:
 2537              	.LBE1598:
 2538              	.LBE1597:
 2539              	.LBE1596:
 2540              	.LBE1595:
 2541              		.loc 1 121 12 is_stmt 0 view .LVU695
 2542 0186 83EC04   		subl	$4, %esp
 2543              		.cfi_def_cfa_offset 84
 2544              		.loc 1 119 3 view .LVU696
 2545 0189 C7070300 		movl	$3, (%edi)
GAS LISTING /tmp/ccttH9cH.s 			page 50


 2545      0000
 2546              		.loc 1 121 12 view .LVU697
 2547 018f 6AFF     		pushl	$-1
 2548              		.cfi_def_cfa_offset 88
 2549 0191 6A00     		pushl	$0
 2550              		.cfi_def_cfa_offset 92
 2551 0193 55       		pushl	%ebp
 2552              		.cfi_def_cfa_offset 96
 2553              	.LBB1604:
 2554              	.LBB1603:
 2555              	.LBB1602:
 2556              	.LBB1601:
 2557              	.LBB1600:
 2558              		.loc 3 372 16 view .LVU698
 2559 0194 C7060000 		movl	$0, (%esi)
 2559      0000
 2560              	.LBE1600:
 2561              	.LBE1601:
 2562              	.LBE1602:
 2563              	.LBE1603:
 2564              	.LBE1604:
 2565              		.loc 1 113 82 is_stmt 1 view .LVU699
 2566              		.loc 1 115 3 view .LVU700
 2567              		.loc 1 115 19 view .LVU701
 2568              		.loc 1 119 3 view .LVU702
 2569              		.loc 1 121 5 view .LVU703
 2570              		.loc 1 121 12 is_stmt 0 view .LVU704
 2571 019a E8FCFFFF 		call	chMBPostTimeout@PLT
 2571      FF
 2572              	.LVL86:
 2573              		.loc 1 122 5 is_stmt 1 view .LVU705
 2574 019f 5A       		popl	%edx
 2575              		.cfi_def_cfa_offset 92
 2576 01a0 59       		popl	%ecx
 2577              		.cfi_def_cfa_offset 88
 2578 01a1 8D8B0000 		leal	.LC11@GOTOFF(%ebx), %ecx
 2578      0000
 2579 01a7 83F8FE   		cmpl	$-2, %eax
 2580 01aa 894C2418 		movl	%ecx, 24(%esp)
 2581 01ae 0F94C0   		sete	%al
 2582              	.LVL87:
 2583              		.loc 1 122 5 is_stmt 0 view .LVU706
 2584 01b1 51       		pushl	%ecx
 2585              		.cfi_def_cfa_offset 92
 2586 01b2 0FB6C0   		movzbl	%al, %eax
 2587 01b5 50       		pushl	%eax
 2588              		.cfi_def_cfa_offset 96
 2589 01b6 E8FCFFFF 		call	__test_assert@PLT
 2589      FF
 2590              	.LVL88:
 2591 01bb 83C410   		addl	$16, %esp
 2592              		.cfi_def_cfa_offset 80
 2593 01be 84C0     		testb	%al, %al
 2594 01c0 0F85A8FE 		jne	.L31
 2594      FFFF
 2595              		.loc 1 122 57 is_stmt 1 view .LVU707
 2596              		.loc 1 123 5 view .LVU708
GAS LISTING /tmp/ccttH9cH.s 			page 51


 2597              		.loc 1 123 12 is_stmt 0 view .LVU709
 2598 01c6 83EC04   		subl	$4, %esp
 2599              		.cfi_def_cfa_offset 84
 2600 01c9 6AFF     		pushl	$-1
 2601              		.cfi_def_cfa_offset 88
 2602 01cb 6A00     		pushl	$0
 2603              		.cfi_def_cfa_offset 92
 2604 01cd 55       		pushl	%ebp
 2605              		.cfi_def_cfa_offset 96
 2606 01ce E8FCFFFF 		call	chMBPostAheadTimeout@PLT
 2606      FF
 2607              	.LVL89:
 2608              		.loc 1 124 5 is_stmt 1 view .LVU710
 2609 01d3 5A       		popl	%edx
 2610              		.cfi_def_cfa_offset 92
 2611 01d4 59       		popl	%ecx
 2612              		.cfi_def_cfa_offset 88
 2613 01d5 FF742418 		pushl	24(%esp)
 2614              		.cfi_def_cfa_offset 92
 2615 01d9 83F8FE   		cmpl	$-2, %eax
 2616 01dc 0F94C0   		sete	%al
 2617              	.LVL90:
 2618              		.loc 1 124 5 is_stmt 0 view .LVU711
 2619 01df 0FB6C0   		movzbl	%al, %eax
 2620 01e2 50       		pushl	%eax
 2621              		.cfi_def_cfa_offset 96
 2622 01e3 E8FCFFFF 		call	__test_assert@PLT
 2622      FF
 2623              	.LVL91:
 2624 01e8 83C410   		addl	$16, %esp
 2625              		.cfi_def_cfa_offset 80
 2626 01eb 84C0     		testb	%al, %al
 2627 01ed 0F857BFE 		jne	.L31
 2627      FFFF
 2628              		.loc 1 124 57 is_stmt 1 view .LVU712
 2629              		.loc 1 125 5 view .LVU713
 2630              		.loc 1 125 12 is_stmt 0 view .LVU714
 2631 01f3 83EC04   		subl	$4, %esp
 2632              		.cfi_def_cfa_offset 84
 2633 01f6 6AFF     		pushl	$-1
 2634              		.cfi_def_cfa_offset 88
 2635 01f8 8D442430 		leal	48(%esp), %eax
 2636 01fc 89442424 		movl	%eax, 36(%esp)
 2637 0200 50       		pushl	%eax
 2638              		.cfi_def_cfa_offset 92
 2639 0201 55       		pushl	%ebp
 2640              		.cfi_def_cfa_offset 96
 2641 0202 E8FCFFFF 		call	chMBFetchTimeout@PLT
 2641      FF
 2642              	.LVL92:
 2643              		.loc 1 126 5 is_stmt 1 view .LVU715
 2644 0207 5A       		popl	%edx
 2645              		.cfi_def_cfa_offset 92
 2646 0208 59       		popl	%ecx
 2647              		.cfi_def_cfa_offset 88
 2648 0209 FF742418 		pushl	24(%esp)
 2649              		.cfi_def_cfa_offset 92
GAS LISTING /tmp/ccttH9cH.s 			page 52


 2650 020d 83F8FE   		cmpl	$-2, %eax
 2651 0210 0F94C0   		sete	%al
 2652              	.LVL93:
 2653              		.loc 1 126 5 is_stmt 0 view .LVU716
 2654 0213 0FB6C0   		movzbl	%al, %eax
 2655 0216 50       		pushl	%eax
 2656              		.cfi_def_cfa_offset 96
 2657 0217 E8FCFFFF 		call	__test_assert@PLT
 2657      FF
 2658              	.LVL94:
 2659 021c 83C410   		addl	$16, %esp
 2660              		.cfi_def_cfa_offset 80
 2661 021f 84C0     		testb	%al, %al
 2662 0221 0F8547FE 		jne	.L31
 2662      FFFF
 2663              		.loc 1 126 57 is_stmt 1 view .LVU717
 2664              		.loc 1 127 5 view .LVU718
 2665              	.LVL95:
 2666              	.LBB1605:
 2667              	.LBI1605:
 2668              		.loc 4 201 20 view .LVU719
 2669              	.LBB1606:
 2670              		.loc 4 203 3 view .LVU720
 2671 0227 8D830000 		leal	.LC0@GOTOFF(%ebx), %eax
 2671      0000
 2672              	.LBE1606:
 2673              	.LBE1605:
 2674              		.loc 1 133 3 is_stmt 0 view .LVU721
 2675 022d C7070400 		movl	$4, (%edi)
 2675      0000
 2676 0233 BA420000 		movl	$66, %edx
 2676      00
 2677              	.LBB1608:
 2678              	.LBB1607:
 2679              		.loc 4 203 14 view .LVU722
 2680 0238 C6831400 		movb	$0, 20+mb1@GOTOFF(%ebx)
 2680      000000
 2681              	.LVL96:
 2682              		.loc 4 203 14 view .LVU723
 2683              	.LBE1607:
 2684              	.LBE1608:
 2685              		.loc 1 129 3 is_stmt 1 view .LVU724
 2686              		.loc 1 129 19 view .LVU725
 2687              		.loc 1 133 3 view .LVU726
 2688              		.loc 1 135 5 view .LVU727
 2689              		.loc 1 135 19 view .LVU728
 2690 023f 89442410 		movl	%eax, 16(%esp)
 2691 0243 896C2418 		movl	%ebp, 24(%esp)
 2692 0247 89D5     		movl	%edx, %ebp
 2693              	.LVL97:
 2694              	.L39:
 2695              		.loc 1 136 7 view .LVU729
 2696              		.loc 1 136 14 is_stmt 0 view .LVU730
 2697 0249 83EC04   		subl	$4, %esp
 2698              		.cfi_def_cfa_offset 84
 2699 024c 6AFF     		pushl	$-1
 2700              		.cfi_def_cfa_offset 88
GAS LISTING /tmp/ccttH9cH.s 			page 53


 2701 024e 55       		pushl	%ebp
 2702              		.cfi_def_cfa_offset 92
 2703 024f FF742424 		pushl	36(%esp)
 2704              		.cfi_def_cfa_offset 96
 2705 0253 E8FCFFFF 		call	chMBPostTimeout@PLT
 2705      FF
 2706              	.LVL98:
 2707              		.loc 1 137 7 is_stmt 1 view .LVU731
 2708 0258 5A       		popl	%edx
 2709              		.cfi_def_cfa_offset 92
 2710 0259 59       		popl	%ecx
 2711              		.cfi_def_cfa_offset 88
 2712 025a FF742418 		pushl	24(%esp)
 2713              		.cfi_def_cfa_offset 92
 2714 025e 85C0     		testl	%eax, %eax
 2715 0260 0F94C0   		sete	%al
 2716              	.LVL99:
 2717              		.loc 1 137 7 is_stmt 0 view .LVU732
 2718 0263 0FB6C0   		movzbl	%al, %eax
 2719 0266 50       		pushl	%eax
 2720              		.cfi_def_cfa_offset 96
 2721 0267 E8FCFFFF 		call	__test_assert@PLT
 2721      FF
 2722              	.LVL100:
 2723 026c 83C410   		addl	$16, %esp
 2724              		.cfi_def_cfa_offset 80
 2725 026f 84C0     		testb	%al, %al
 2726 0271 0F85F7FD 		jne	.L31
 2726      FFFF
 2727              		.loc 1 137 59 is_stmt 1 view .LVU733
 2728              		.loc 1 135 35 view .LVU734
 2729              	.LVL101:
 2730              		.loc 1 135 19 view .LVU735
 2731 0277 83C501   		addl	$1, %ebp
 2732              	.LVL102:
 2733              		.loc 1 135 19 is_stmt 0 view .LVU736
 2734 027a 83FD45   		cmpl	$69, %ebp
 2735 027d 75CA     		jne	.L39
 2736              		.loc 1 139 12 view .LVU737
 2737 027f 8B6C2418 		movl	24(%esp), %ebp
 2738              	.LVL103:
 2739              		.loc 1 139 5 is_stmt 1 view .LVU738
 2740              		.loc 1 139 12 is_stmt 0 view .LVU739
 2741 0283 83EC04   		subl	$4, %esp
 2742              		.cfi_def_cfa_offset 84
 2743 0286 6AFF     		pushl	$-1
 2744              		.cfi_def_cfa_offset 88
 2745 0288 6A41     		pushl	$65
 2746              		.cfi_def_cfa_offset 92
 2747 028a 55       		pushl	%ebp
 2748              		.cfi_def_cfa_offset 96
 2749 028b E8FCFFFF 		call	chMBPostAheadTimeout@PLT
 2749      FF
 2750              	.LVL104:
 2751              		.loc 1 140 5 is_stmt 1 view .LVU740
 2752 0290 5A       		popl	%edx
 2753              		.cfi_def_cfa_offset 92
GAS LISTING /tmp/ccttH9cH.s 			page 54


 2754 0291 59       		popl	%ecx
 2755              		.cfi_def_cfa_offset 88
 2756 0292 FF742418 		pushl	24(%esp)
 2757              		.cfi_def_cfa_offset 92
 2758 0296 85C0     		testl	%eax, %eax
 2759 0298 0F94C0   		sete	%al
 2760              	.LVL105:
 2761              		.loc 1 140 5 is_stmt 0 view .LVU741
 2762 029b 0FB6C0   		movzbl	%al, %eax
 2763 029e 50       		pushl	%eax
 2764              		.cfi_def_cfa_offset 96
 2765 029f E8FCFFFF 		call	__test_assert@PLT
 2765      FF
 2766              	.LVL106:
 2767 02a4 83C410   		addl	$16, %esp
 2768              		.cfi_def_cfa_offset 80
 2769 02a7 84C0     		testb	%al, %al
 2770 02a9 0F85BFFD 		jne	.L31
 2770      FFFF
 2771              		.loc 1 140 57 is_stmt 1 view .LVU742
 2772              		.loc 1 142 3 view .LVU743
 2773              		.loc 1 142 19 view .LVU744
 2774              		.loc 1 146 3 view .LVU745
 2775              		.loc 1 148 5 is_stmt 0 view .LVU746
 2776 02af 83EC08   		subl	$8, %esp
 2777              		.cfi_def_cfa_offset 88
 2778 02b2 8D830000 		leal	.LC6@GOTOFF(%ebx), %eax
 2778      0000
 2779              		.loc 1 146 3 view .LVU747
 2780 02b8 C7070500 		movl	$5, (%edi)
 2780      0000
 2781              		.loc 1 148 5 is_stmt 1 view .LVU748
 2782              	.LBB1609:
 2783              	.LBI1609:
 2784              		.loc 5 573 20 view .LVU749
 2785              		.loc 5 575 3 view .LVU750
 2786              	.LBB1610:
 2787              	.LBI1610:
 2788              		.loc 2 407 20 view .LVU751
 2789              		.loc 2 409 3 view .LVU752
 2790              	.LBB1611:
 2791              	.LBI1611:
 2792              		.loc 3 361 20 view .LVU753
 2793              	.LBB1612:
 2794              		.loc 3 363 3 view .LVU754
 2795              	.LBE1612:
 2796              	.LBE1611:
 2797              	.LBE1610:
 2798              	.LBE1609:
 2799              		.loc 1 148 5 is_stmt 0 view .LVU755
 2800 02be 50       		pushl	%eax
 2801              		.cfi_def_cfa_offset 92
 2802              	.LBB1616:
 2803              	.LBB1617:
 2804              	.LBB1618:
 2805              		.loc 4 141 28 view .LVU756
 2806 02bf 8B830400 		movl	4+mb1@GOTOFF(%ebx), %eax
GAS LISTING /tmp/ccttH9cH.s 			page 55


 2806      0000
 2807 02c5 2B830000 		subl	mb1@GOTOFF(%ebx), %eax
 2807      0000
 2808              	.LBE1618:
 2809              	.LBE1617:
 2810              	.LBE1616:
 2811              	.LBB1625:
 2812              	.LBB1615:
 2813              	.LBB1614:
 2814              	.LBB1613:
 2815              		.loc 3 363 16 view .LVU757
 2816 02cb C7060100 		movl	$1, (%esi)
 2816      0000
 2817              	.LBE1613:
 2818              	.LBE1614:
 2819              		.loc 2 410 35 is_stmt 1 view .LVU758
 2820              		.loc 2 411 21 view .LVU759
 2821              	.LBE1615:
 2822              	.LBE1625:
 2823              		.loc 1 148 5 view .LVU760
 2824              	.LVL107:
 2825              	.LBB1626:
 2826              	.LBI1616:
 2827              		.loc 4 168 22 view .LVU761
 2828              		.loc 4 170 21 view .LVU762
 2829              		.loc 4 172 3 view .LVU763
 2830              	.LBB1621:
 2831              	.LBI1617:
 2832              		.loc 4 137 22 view .LVU764
 2833              	.LBB1619:
 2834              		.loc 4 141 3 view .LVU765
 2835              		.loc 4 141 3 is_stmt 0 view .LVU766
 2836              	.LBE1619:
 2837              	.LBE1621:
 2838              	.LBB1622:
 2839              	.LBI1622:
 2840              		.loc 4 153 22 is_stmt 1 view .LVU767
 2841              	.LBB1623:
 2842              		.loc 4 155 21 view .LVU768
 2843              		.loc 4 157 3 view .LVU769
 2844              		.loc 4 157 3 is_stmt 0 view .LVU770
 2845              	.LBE1623:
 2846              	.LBE1622:
 2847              	.LBB1624:
 2848              	.LBB1620:
 2849              		.loc 4 141 28 view .LVU771
 2850 02d1 C1F802   		sarl	$2, %eax
 2851              	.LBE1620:
 2852              	.LBE1624:
 2853              	.LBE1626:
 2854              		.loc 1 148 5 view .LVU772
 2855 02d4 3B831000 		cmpl	16+mb1@GOTOFF(%ebx), %eax
 2855      0000
 2856 02da 0F94C0   		sete	%al
 2857 02dd 0FB6C0   		movzbl	%al, %eax
 2858 02e0 50       		pushl	%eax
 2859              		.cfi_def_cfa_offset 96
GAS LISTING /tmp/ccttH9cH.s 			page 56


 2860 02e1 E8FCFFFF 		call	__test_assert@PLT
 2860      FF
 2861              	.LVL108:
 2862 02e6 83C410   		addl	$16, %esp
 2863              		.cfi_def_cfa_offset 80
 2864 02e9 84C0     		testb	%al, %al
 2865 02eb 0F8520FE 		jne	.L36
 2865      FFFF
 2866              		.loc 1 148 5 is_stmt 1 view .LVU773
 2867              		.loc 1 148 66 view .LVU774
 2868              		.loc 1 149 5 view .LVU775
 2869              	.LBB1627:
 2870              	.LBI1627:
 2871              		.loc 5 573 20 view .LVU776
 2872              		.loc 5 575 3 view .LVU777
 2873              	.LBB1628:
 2874              	.LBI1628:
 2875              		.loc 2 407 20 view .LVU778
 2876              		.loc 2 409 3 view .LVU779
 2877              	.LBB1629:
 2878              	.LBI1629:
 2879              		.loc 3 361 20 view .LVU780
 2880              	.LBB1630:
 2881              		.loc 3 363 3 view .LVU781
 2882              	.LBE1630:
 2883              	.LBE1629:
 2884              	.LBE1628:
 2885              	.LBE1627:
 2886              		.loc 1 149 5 is_stmt 0 view .LVU782
 2887 02f1 50       		pushl	%eax
 2888              		.cfi_def_cfa_offset 84
 2889 02f2 50       		pushl	%eax
 2890              		.cfi_def_cfa_offset 88
 2891 02f3 8D830000 		leal	.LC7@GOTOFF(%ebx), %eax
 2891      0000
 2892 02f9 50       		pushl	%eax
 2893              		.cfi_def_cfa_offset 92
 2894 02fa 31C0     		xorl	%eax, %eax
 2895 02fc 83BB1000 		cmpl	$4, 16+mb1@GOTOFF(%ebx)
 2895      000004
 2896 0303 0F94C0   		sete	%al
 2897              	.LBB1634:
 2898              	.LBB1633:
 2899              	.LBB1632:
 2900              	.LBB1631:
 2901              		.loc 3 363 16 view .LVU783
 2902 0306 C7060100 		movl	$1, (%esi)
 2902      0000
 2903              	.LBE1631:
 2904              	.LBE1632:
 2905              		.loc 2 410 35 is_stmt 1 view .LVU784
 2906              		.loc 2 411 21 view .LVU785
 2907              	.LBE1633:
 2908              	.LBE1634:
 2909              		.loc 1 149 5 view .LVU786
 2910              	.LVL109:
 2911              	.LBB1635:
GAS LISTING /tmp/ccttH9cH.s 			page 57


 2912              	.LBI1635:
 2913              		.loc 4 153 22 view .LVU787
 2914              	.LBB1636:
 2915              		.loc 4 155 21 view .LVU788
 2916              		.loc 4 157 3 view .LVU789
 2917              		.loc 4 157 3 is_stmt 0 view .LVU790
 2918              	.LBE1636:
 2919              	.LBE1635:
 2920              		.loc 1 149 5 view .LVU791
 2921 030c 50       		pushl	%eax
 2922              		.cfi_def_cfa_offset 96
 2923 030d E8FCFFFF 		call	__test_assert@PLT
 2923      FF
 2924              	.LVL110:
 2925 0312 83C410   		addl	$16, %esp
 2926              		.cfi_def_cfa_offset 80
 2927 0315 84C0     		testb	%al, %al
 2928 0317 0F85F4FD 		jne	.L36
 2928      FFFF
 2929              		.loc 1 149 5 is_stmt 1 view .LVU792
 2930              		.loc 1 149 69 view .LVU793
 2931              		.loc 1 150 5 view .LVU794
 2932              	.LBB1637:
 2933              	.LBI1637:
 2934              		.loc 5 573 20 view .LVU795
 2935              		.loc 5 575 3 view .LVU796
 2936              	.LBB1638:
 2937              	.LBI1638:
 2938              		.loc 2 407 20 view .LVU797
 2939              		.loc 2 409 3 view .LVU798
 2940              	.LBB1639:
 2941              	.LBI1639:
 2942              		.loc 3 361 20 view .LVU799
 2943              	.LBB1640:
 2944              		.loc 3 363 3 view .LVU800
 2945              	.LBE1640:
 2946              	.LBE1639:
 2947              	.LBE1638:
 2948              	.LBE1637:
 2949              		.loc 1 150 5 is_stmt 0 view .LVU801
 2950 031d 50       		pushl	%eax
 2951              		.cfi_def_cfa_offset 84
 2952 031e 50       		pushl	%eax
 2953              		.cfi_def_cfa_offset 88
 2954 031f 8D830000 		leal	.LC8@GOTOFF(%ebx), %eax
 2954      0000
 2955 0325 50       		pushl	%eax
 2956              		.cfi_def_cfa_offset 92
 2957 0326 8B830800 		movl	8+mb1@GOTOFF(%ebx), %eax
 2957      0000
 2958 032c 39830C00 		cmpl	%eax, 12+mb1@GOTOFF(%ebx)
 2958      0000
 2959              	.LBB1644:
 2960              	.LBB1643:
 2961              	.LBB1642:
 2962              	.LBB1641:
 2963              		.loc 3 363 16 view .LVU802
GAS LISTING /tmp/ccttH9cH.s 			page 58


 2964 0332 C7060100 		movl	$1, (%esi)
 2964      0000
 2965              	.LBE1641:
 2966              	.LBE1642:
 2967              		.loc 2 410 35 is_stmt 1 view .LVU803
 2968              		.loc 2 411 21 view .LVU804
 2969              	.LBE1643:
 2970              	.LBE1644:
 2971              		.loc 1 150 5 view .LVU805
 2972 0338 0F94C0   		sete	%al
 2973 033b 0FB6C0   		movzbl	%al, %eax
 2974 033e 50       		pushl	%eax
 2975              		.cfi_def_cfa_offset 96
 2976 033f E8FCFFFF 		call	__test_assert@PLT
 2976      FF
 2977              	.LVL111:
 2978 0344 83C410   		addl	$16, %esp
 2979              		.cfi_def_cfa_offset 80
 2980 0347 84C0     		testb	%al, %al
 2981 0349 0F85C2FD 		jne	.L36
 2981      FFFF
 2982              		.loc 1 150 5 view .LVU806
 2983              	.LBB1645:
 2984              	.LBI1645:
 2985              		.loc 5 584 20 view .LVU807
 2986              		.loc 5 586 3 view .LVU808
 2987              	.LBB1646:
 2988              	.LBI1646:
 2989              		.loc 2 421 20 view .LVU809
 2990              	.LBB1647:
 2991              		.loc 2 423 23 view .LVU810
 2992              		.loc 2 424 34 view .LVU811
 2993              		.loc 2 430 3 view .LVU812
 2994              		.loc 2 430 3 view .LVU813
 2995              		.loc 2 430 3 view .LVU814
 2996              		.loc 2 434 3 view .LVU815
 2997              	.LBB1648:
 2998              	.LBI1648:
 2999              		.loc 3 370 20 view .LVU816
 3000              	.LBB1649:
 3001              		.loc 3 372 3 view .LVU817
 3002              		.loc 3 372 16 is_stmt 0 view .LVU818
 3003 034f C7060000 		movl	$0, (%esi)
 3003      0000
 3004              	.LBE1649:
 3005              	.LBE1648:
 3006              	.LBE1647:
 3007              	.LBE1646:
 3008              	.LBE1645:
 3009              		.loc 1 150 69 is_stmt 1 view .LVU819
 3010              		.loc 1 152 3 view .LVU820
 3011              		.loc 1 152 19 view .LVU821
 3012              		.loc 1 156 3 view .LVU822
 3013 0355 C7070600 		movl	$6, (%edi)
 3013      0000
 3014              		.loc 1 158 5 view .LVU823
 3015              	.LVL112:
GAS LISTING /tmp/ccttH9cH.s 			page 59


 3016              		.loc 1 158 19 view .LVU824
 3017              		.loc 1 156 3 is_stmt 0 view .LVU825
 3018 035b C7442418 		movl	$4, 24(%esp)
 3018      04000000 
 3019              	.LVL113:
 3020              	.L40:
 3021              		.loc 1 159 7 is_stmt 1 view .LVU826
 3022              		.loc 1 159 14 is_stmt 0 view .LVU827
 3023 0363 50       		pushl	%eax
 3024              		.cfi_def_cfa_offset 84
 3025 0364 6AFF     		pushl	$-1
 3026              		.cfi_def_cfa_offset 88
 3027 0366 FF742424 		pushl	36(%esp)
 3028              		.cfi_def_cfa_offset 92
 3029 036a 55       		pushl	%ebp
 3030              		.cfi_def_cfa_offset 96
 3031 036b E8FCFFFF 		call	chMBFetchTimeout@PLT
 3031      FF
 3032              	.LVL114:
 3033              		.loc 1 160 7 is_stmt 1 view .LVU828
 3034 0370 5A       		popl	%edx
 3035              		.cfi_def_cfa_offset 92
 3036 0371 59       		popl	%ecx
 3037              		.cfi_def_cfa_offset 88
 3038 0372 FF742418 		pushl	24(%esp)
 3039              		.cfi_def_cfa_offset 92
 3040 0376 85C0     		testl	%eax, %eax
 3041 0378 0F94C0   		sete	%al
 3042              	.LVL115:
 3043              		.loc 1 160 7 is_stmt 0 view .LVU829
 3044 037b 0FB6C0   		movzbl	%al, %eax
 3045 037e 50       		pushl	%eax
 3046              		.cfi_def_cfa_offset 96
 3047 037f E8FCFFFF 		call	__test_assert@PLT
 3047      FF
 3048              	.LVL116:
 3049 0384 83C410   		addl	$16, %esp
 3050              		.cfi_def_cfa_offset 80
 3051 0387 84C0     		testb	%al, %al
 3052 0389 0F85DFFC 		jne	.L31
 3052      FFFF
 3053              		.loc 1 160 59 is_stmt 1 view .LVU830
 3054              		.loc 1 161 7 view .LVU831
 3055 038f 83EC0C   		subl	$12, %esp
 3056              		.cfi_def_cfa_offset 92
 3057 0392 0FBE4424 		movsbl	52(%esp), %eax
 3057      34
 3058 0397 50       		pushl	%eax
 3059              		.cfi_def_cfa_offset 96
 3060 0398 E8FCFFFF 		call	test_emit_token@PLT
 3060      FF
 3061              	.LVL117:
 3062              		.loc 1 158 31 view .LVU832
 3063              		.loc 1 158 19 view .LVU833
 3064 039d 83C410   		addl	$16, %esp
 3065              		.cfi_def_cfa_offset 80
 3066 03a0 836C2418 		subl	$1, 24(%esp)
GAS LISTING /tmp/ccttH9cH.s 			page 60


 3066      01
 3067              	.LVL118:
 3068              		.loc 1 158 19 is_stmt 0 view .LVU834
 3069 03a5 75BC     		jne	.L40
 3070              		.loc 1 163 5 is_stmt 1 view .LVU835
 3071 03a7 50       		pushl	%eax
 3072              		.cfi_def_cfa_offset 84
 3073 03a8 50       		pushl	%eax
 3074              		.cfi_def_cfa_offset 88
 3075 03a9 8D830000 		leal	.LC9@GOTOFF(%ebx), %eax
 3075      0000
 3076 03af 50       		pushl	%eax
 3077              		.cfi_def_cfa_offset 92
 3078 03b0 8D830000 		leal	.LC10@GOTOFF(%ebx), %eax
 3078      0000
 3079 03b6 50       		pushl	%eax
 3080              		.cfi_def_cfa_offset 96
 3081 03b7 E8FCFFFF 		call	__test_assert_sequence@PLT
 3081      FF
 3082              	.LVL119:
 3083 03bc 83C410   		addl	$16, %esp
 3084              		.cfi_def_cfa_offset 80
 3085 03bf 84C0     		testb	%al, %al
 3086 03c1 0F85A7FC 		jne	.L31
 3086      FFFF
 3087              		.loc 1 163 55 view .LVU836
 3088              		.loc 1 165 3 view .LVU837
 3089              		.loc 1 165 19 view .LVU838
 3090              		.loc 1 169 3 view .LVU839
 3091 03c7 C7070700 		movl	$7, (%edi)
 3091      0000
 3092              		.loc 1 171 5 view .LVU840
 3093              		.loc 1 171 12 is_stmt 0 view .LVU841
 3094 03cd 50       		pushl	%eax
 3095              		.cfi_def_cfa_offset 84
 3096 03ce 6AFF     		pushl	$-1
 3097              		.cfi_def_cfa_offset 88
 3098 03d0 6A46     		pushl	$70
 3099              		.cfi_def_cfa_offset 92
 3100 03d2 55       		pushl	%ebp
 3101              		.cfi_def_cfa_offset 96
 3102 03d3 E8FCFFFF 		call	chMBPostTimeout@PLT
 3102      FF
 3103              	.LVL120:
 3104              		.loc 1 172 5 is_stmt 1 view .LVU842
 3105 03d8 5A       		popl	%edx
 3106              		.cfi_def_cfa_offset 92
 3107 03d9 59       		popl	%ecx
 3108              		.cfi_def_cfa_offset 88
 3109 03da FF742418 		pushl	24(%esp)
 3110              		.cfi_def_cfa_offset 92
 3111 03de 85C0     		testl	%eax, %eax
 3112 03e0 0F94C0   		sete	%al
 3113              	.LVL121:
 3114              		.loc 1 172 5 is_stmt 0 view .LVU843
 3115 03e3 0FB6C0   		movzbl	%al, %eax
 3116 03e6 50       		pushl	%eax
GAS LISTING /tmp/ccttH9cH.s 			page 61


 3117              		.cfi_def_cfa_offset 96
 3118 03e7 E8FCFFFF 		call	__test_assert@PLT
 3118      FF
 3119              	.LVL122:
 3120 03ec 83C410   		addl	$16, %esp
 3121              		.cfi_def_cfa_offset 80
 3122 03ef 84C0     		testb	%al, %al
 3123 03f1 0F8577FC 		jne	.L31
 3123      FFFF
 3124              		.loc 1 172 57 is_stmt 1 view .LVU844
 3125              		.loc 1 173 5 view .LVU845
 3126              		.loc 1 173 12 is_stmt 0 view .LVU846
 3127 03f7 50       		pushl	%eax
 3128              		.cfi_def_cfa_offset 84
 3129 03f8 6AFF     		pushl	$-1
 3130              		.cfi_def_cfa_offset 88
 3131 03fa FF742424 		pushl	36(%esp)
 3132              		.cfi_def_cfa_offset 92
 3133 03fe 55       		pushl	%ebp
 3134              		.cfi_def_cfa_offset 96
 3135 03ff E8FCFFFF 		call	chMBFetchTimeout@PLT
 3135      FF
 3136              	.LVL123:
 3137              		.loc 1 174 5 is_stmt 1 view .LVU847
 3138 0404 5A       		popl	%edx
 3139              		.cfi_def_cfa_offset 92
 3140 0405 59       		popl	%ecx
 3141              		.cfi_def_cfa_offset 88
 3142 0406 FF742418 		pushl	24(%esp)
 3143              		.cfi_def_cfa_offset 92
 3144 040a 85C0     		testl	%eax, %eax
 3145 040c 0F94C0   		sete	%al
 3146              	.LVL124:
 3147              		.loc 1 174 5 is_stmt 0 view .LVU848
 3148 040f 0FB6C0   		movzbl	%al, %eax
 3149 0412 50       		pushl	%eax
 3150              		.cfi_def_cfa_offset 96
 3151 0413 E8FCFFFF 		call	__test_assert@PLT
 3151      FF
 3152              	.LVL125:
 3153 0418 83C410   		addl	$16, %esp
 3154              		.cfi_def_cfa_offset 80
 3155 041b 84C0     		testb	%al, %al
 3156 041d 0F854BFC 		jne	.L31
 3156      FFFF
 3157              		.loc 1 174 57 is_stmt 1 view .LVU849
 3158              		.loc 1 176 3 view .LVU850
 3159              		.loc 1 176 19 view .LVU851
 3160              		.loc 1 180 3 view .LVU852
 3161              	.LBB1650:
 3162              	.LBB1651:
 3163              	.LBB1652:
 3164              	.LBB1653:
 3165              		.loc 4 141 28 is_stmt 0 view .LVU853
 3166 0423 8B830400 		movl	4+mb1@GOTOFF(%ebx), %eax
 3166      0000
 3167 0429 2B830000 		subl	mb1@GOTOFF(%ebx), %eax
GAS LISTING /tmp/ccttH9cH.s 			page 62


 3167      0000
 3168              	.LBE1653:
 3169              	.LBE1652:
 3170              	.LBE1651:
 3171              	.LBE1650:
 3172              		.loc 1 180 3 view .LVU854
 3173 042f C7070800 		movl	$8, (%edi)
 3173      0000
 3174              		.loc 1 182 5 is_stmt 1 view .LVU855
 3175              	.LBB1662:
 3176              	.LBI1662:
 3177              		.loc 5 573 20 view .LVU856
 3178              		.loc 5 575 3 view .LVU857
 3179              	.LBB1663:
 3180              	.LBI1663:
 3181              		.loc 2 407 20 view .LVU858
 3182              		.loc 2 409 3 view .LVU859
 3183              	.LBB1664:
 3184              	.LBI1664:
 3185              		.loc 3 361 20 view .LVU860
 3186              	.LBB1665:
 3187              		.loc 3 363 3 view .LVU861
 3188              	.LBE1665:
 3189              	.LBE1664:
 3190              	.LBE1663:
 3191              	.LBE1662:
 3192              	.LBB1669:
 3193              	.LBB1660:
 3194              	.LBB1656:
 3195              	.LBB1654:
 3196              		.loc 4 141 28 is_stmt 0 view .LVU862
 3197 0435 C1F802   		sarl	$2, %eax
 3198              	.LBE1654:
 3199              	.LBE1656:
 3200              		.loc 4 172 28 view .LVU863
 3201 0438 2B831000 		subl	16+mb1@GOTOFF(%ebx), %eax
 3201      0000
 3202              	.LBE1660:
 3203              	.LBE1669:
 3204              		.loc 1 182 5 view .LVU864
 3205 043e 57       		pushl	%edi
 3206              		.cfi_def_cfa_offset 84
 3207 043f 83F804   		cmpl	$4, %eax
 3208 0442 57       		pushl	%edi
 3209              		.cfi_def_cfa_offset 88
 3210 0443 0F94C0   		sete	%al
 3211 0446 FF74240C 		pushl	12(%esp)
 3212              		.cfi_def_cfa_offset 92
 3213 044a 0FB6C0   		movzbl	%al, %eax
 3214              	.LBB1670:
 3215              	.LBB1668:
 3216              	.LBB1667:
 3217              	.LBB1666:
 3218              		.loc 3 363 16 view .LVU865
 3219 044d C7060100 		movl	$1, (%esi)
 3219      0000
 3220              	.LBE1666:
GAS LISTING /tmp/ccttH9cH.s 			page 63


 3221              	.LBE1667:
 3222              		.loc 2 410 35 is_stmt 1 view .LVU866
 3223              		.loc 2 411 21 view .LVU867
 3224              	.LBE1668:
 3225              	.LBE1670:
 3226              		.loc 1 182 5 view .LVU868
 3227              	.LVL126:
 3228              	.LBB1671:
 3229              	.LBI1650:
 3230              		.loc 4 168 22 view .LVU869
 3231              	.LBB1661:
 3232              		.loc 4 170 21 view .LVU870
 3233              		.loc 4 172 3 view .LVU871
 3234              	.LBB1657:
 3235              	.LBI1652:
 3236              		.loc 4 137 22 view .LVU872
 3237              	.LBB1655:
 3238              		.loc 4 141 3 view .LVU873
 3239              		.loc 4 141 3 is_stmt 0 view .LVU874
 3240              	.LBE1655:
 3241              	.LBE1657:
 3242              	.LBB1658:
 3243              	.LBI1658:
 3244              		.loc 4 153 22 is_stmt 1 view .LVU875
 3245              	.LBB1659:
 3246              		.loc 4 155 21 view .LVU876
 3247              		.loc 4 157 3 view .LVU877
 3248              		.loc 4 157 3 is_stmt 0 view .LVU878
 3249              	.LBE1659:
 3250              	.LBE1658:
 3251              	.LBE1661:
 3252              	.LBE1671:
 3253              		.loc 1 182 5 view .LVU879
 3254 0453 50       		pushl	%eax
 3255              		.cfi_def_cfa_offset 96
 3256 0454 E8FCFFFF 		call	__test_assert@PLT
 3256      FF
 3257              	.LVL127:
 3258 0459 83C410   		addl	$16, %esp
 3259              		.cfi_def_cfa_offset 80
 3260 045c 84C0     		testb	%al, %al
 3261 045e 0F85ADFC 		jne	.L36
 3261      FFFF
 3262              		.loc 1 182 5 is_stmt 1 view .LVU880
 3263              		.loc 1 182 70 view .LVU881
 3264              		.loc 1 183 5 view .LVU882
 3265              	.LBB1672:
 3266              	.LBI1672:
 3267              		.loc 5 573 20 view .LVU883
 3268              		.loc 5 575 3 view .LVU884
 3269              	.LBB1673:
 3270              	.LBI1673:
 3271              		.loc 2 407 20 view .LVU885
 3272              		.loc 2 409 3 view .LVU886
 3273              	.LBB1674:
 3274              	.LBI1674:
 3275              		.loc 3 361 20 view .LVU887
GAS LISTING /tmp/ccttH9cH.s 			page 64


 3276              	.LBB1675:
 3277              		.loc 3 363 3 view .LVU888
 3278              	.LBE1675:
 3279              	.LBE1674:
 3280              	.LBE1673:
 3281              	.LBE1672:
 3282              		.loc 1 183 5 is_stmt 0 view .LVU889
 3283 0464 31C0     		xorl	%eax, %eax
 3284 0466 83BB1000 		cmpl	$0, 16+mb1@GOTOFF(%ebx)
 3284      000000
 3285 046d 51       		pushl	%ecx
 3286              		.cfi_def_cfa_offset 84
 3287 046e 0F94C0   		sete	%al
 3288 0471 51       		pushl	%ecx
 3289              		.cfi_def_cfa_offset 88
 3290 0472 FF742410 		pushl	16(%esp)
 3291              		.cfi_def_cfa_offset 92
 3292 0476 50       		pushl	%eax
 3293              		.cfi_def_cfa_offset 96
 3294              	.LBB1679:
 3295              	.LBB1678:
 3296              	.LBB1677:
 3297              	.LBB1676:
 3298              		.loc 3 363 16 view .LVU890
 3299 0477 C7060100 		movl	$1, (%esi)
 3299      0000
 3300              	.LBE1676:
 3301              	.LBE1677:
 3302              		.loc 2 410 35 is_stmt 1 view .LVU891
 3303              		.loc 2 411 21 view .LVU892
 3304              	.LBE1678:
 3305              	.LBE1679:
 3306              		.loc 1 183 5 view .LVU893
 3307              	.LVL128:
 3308              	.LBB1680:
 3309              	.LBI1680:
 3310              		.loc 4 153 22 view .LVU894
 3311              	.LBB1681:
 3312              		.loc 4 155 21 view .LVU895
 3313              		.loc 4 157 3 view .LVU896
 3314              		.loc 4 157 3 is_stmt 0 view .LVU897
 3315              	.LBE1681:
 3316              	.LBE1680:
 3317              		.loc 1 183 5 view .LVU898
 3318 047d E8FCFFFF 		call	__test_assert@PLT
 3318      FF
 3319              	.LVL129:
 3320 0482 83C410   		addl	$16, %esp
 3321              		.cfi_def_cfa_offset 80
 3322 0485 84C0     		testb	%al, %al
 3323 0487 0F8584FC 		jne	.L36
 3323      FFFF
 3324              		.loc 1 183 5 is_stmt 1 view .LVU899
 3325              	.LBB1682:
 3326              	.LBI1682:
 3327              		.loc 5 584 20 view .LVU900
 3328              		.loc 5 586 3 view .LVU901
GAS LISTING /tmp/ccttH9cH.s 			page 65


 3329              	.LBB1683:
 3330              	.LBI1683:
 3331              		.loc 2 421 20 view .LVU902
 3332              	.LBB1684:
 3333              		.loc 2 423 23 view .LVU903
 3334              		.loc 2 424 34 view .LVU904
 3335              		.loc 2 430 3 view .LVU905
 3336              		.loc 2 430 3 view .LVU906
 3337              		.loc 2 430 3 view .LVU907
 3338              		.loc 2 434 3 view .LVU908
 3339              	.LBB1685:
 3340              	.LBI1685:
 3341              		.loc 3 370 20 view .LVU909
 3342              	.LBB1686:
 3343              		.loc 3 372 3 view .LVU910
 3344              	.LBE1686:
 3345              	.LBE1685:
 3346              	.LBE1684:
 3347              	.LBE1683:
 3348              	.LBE1682:
 3349              		.loc 1 184 5 is_stmt 0 view .LVU911
 3350 048d 8B830800 		movl	8+mb1@GOTOFF(%ebx), %eax
 3350      0000
 3351 0493 39830000 		cmpl	%eax, mb1@GOTOFF(%ebx)
 3351      0000
 3352 0499 52       		pushl	%edx
 3353              		.cfi_def_cfa_offset 84
 3354 049a 0F94C0   		sete	%al
 3355 049d 52       		pushl	%edx
 3356              		.cfi_def_cfa_offset 88
 3357 049e 0FB6C0   		movzbl	%al, %eax
 3358 04a1 FF742414 		pushl	20(%esp)
 3359              		.cfi_def_cfa_offset 92
 3360 04a5 50       		pushl	%eax
 3361              		.cfi_def_cfa_offset 96
 3362              	.LBB1691:
 3363              	.LBB1690:
 3364              	.LBB1689:
 3365              	.LBB1688:
 3366              	.LBB1687:
 3367              		.loc 3 372 16 view .LVU912
 3368 04a6 C7060000 		movl	$0, (%esi)
 3368      0000
 3369              	.LBE1687:
 3370              	.LBE1688:
 3371              	.LBE1689:
 3372              	.LBE1690:
 3373              	.LBE1691:
 3374              		.loc 1 183 65 is_stmt 1 view .LVU913
 3375              		.loc 1 184 5 view .LVU914
 3376 04ac E8FCFFFF 		call	__test_assert@PLT
 3376      FF
 3377              	.LVL130:
 3378 04b1 83C410   		addl	$16, %esp
 3379              		.cfi_def_cfa_offset 80
 3380 04b4 84C0     		testb	%al, %al
 3381 04b6 0F85B2FB 		jne	.L31
GAS LISTING /tmp/ccttH9cH.s 			page 66


 3381      FFFF
 3382              		.loc 1 184 78 view .LVU915
 3383              		.loc 1 185 5 view .LVU916
 3384 04bc 50       		pushl	%eax
 3385              		.cfi_def_cfa_offset 84
 3386 04bd 50       		pushl	%eax
 3387              		.cfi_def_cfa_offset 88
 3388 04be 8B830C00 		movl	12+mb1@GOTOFF(%ebx), %eax
 3388      0000
 3389 04c4 39830000 		cmpl	%eax, mb1@GOTOFF(%ebx)
 3389      0000
 3390 04ca FF74241C 		pushl	28(%esp)
 3391              		.cfi_def_cfa_offset 92
 3392 04ce 0F94C0   		sete	%al
 3393 04d1 0FB6C0   		movzbl	%al, %eax
 3394 04d4 50       		pushl	%eax
 3395              		.cfi_def_cfa_offset 96
 3396 04d5 E8FCFFFF 		call	__test_assert@PLT
 3396      FF
 3397              	.LVL131:
 3398              		.loc 1 185 5 view .LVU917
 3399 04da 83C410   		addl	$16, %esp
 3400              		.cfi_def_cfa_offset 80
 3401              		.loc 1 185 5 is_stmt 0 view .LVU918
 3402 04dd E98CFBFF 		jmp	.L31
 3402      FF
 3403              	.L45:
 3404              	.LBE1538:
 3405              	.LBE1537:
 3406              		.loc 1 188 1 view .LVU919
 3407 04e2 E8FCFFFF 		call	__stack_chk_fail_local
 3407      FF
 3408              	.LVL132:
 3409              		.cfi_endproc
 3410              	.LFE305:
 3411              		.size	oslib_test_002_001_execute, .-oslib_test_002_001_execute
 3412              		.section	.text.oslib_test_002_003_teardown,"ax",@progbits
 3413              		.p2align 4
 3414              		.type	oslib_test_002_003_teardown, @function
 3415              	oslib_test_002_003_teardown:
 3416              	.LFB321:
 3417              		.cfi_startproc
 3418 0000 53       		pushl	%ebx
 3419              		.cfi_def_cfa_offset 8
 3420              		.cfi_offset 3, -8
 3421 0001 E8FCFFFF 		call	__x86.get_pc_thunk.bx
 3421      FF
 3422 0006 81C30200 		addl	$_GLOBAL_OFFSET_TABLE_, %ebx
 3422      0000
 3423 000c 83EC14   		subl	$20, %esp
 3424              		.cfi_def_cfa_offset 28
 3425 000f 8D830000 		leal	mb1@GOTOFF(%ebx), %eax
 3425      0000
 3426 0015 50       		pushl	%eax
 3427              		.cfi_def_cfa_offset 32
 3428 0016 E8FCFFFF 		call	chMBReset@PLT
 3428      FF
GAS LISTING /tmp/ccttH9cH.s 			page 67


 3429 001b 83C418   		addl	$24, %esp
 3430              		.cfi_def_cfa_offset 8
 3431 001e 5B       		popl	%ebx
 3432              		.cfi_restore 3
 3433              		.cfi_def_cfa_offset 4
 3434 001f C3       		ret
 3435              		.cfi_endproc
 3436              	.LFE321:
 3437              		.size	oslib_test_002_003_teardown, .-oslib_test_002_003_teardown
 3438              		.section	.text.oslib_test_002_002_teardown,"ax",@progbits
 3439              		.p2align 4
 3440              		.type	oslib_test_002_002_teardown, @function
 3441              	oslib_test_002_002_teardown:
 3442              	.LFB319:
 3443              		.cfi_startproc
 3444 0000 53       		pushl	%ebx
 3445              		.cfi_def_cfa_offset 8
 3446              		.cfi_offset 3, -8
 3447 0001 E8FCFFFF 		call	__x86.get_pc_thunk.bx
 3447      FF
 3448 0006 81C30200 		addl	$_GLOBAL_OFFSET_TABLE_, %ebx
 3448      0000
 3449 000c 83EC14   		subl	$20, %esp
 3450              		.cfi_def_cfa_offset 28
 3451 000f 8D830000 		leal	mb1@GOTOFF(%ebx), %eax
 3451      0000
 3452 0015 50       		pushl	%eax
 3453              		.cfi_def_cfa_offset 32
 3454 0016 E8FCFFFF 		call	chMBReset@PLT
 3454      FF
 3455 001b 83C418   		addl	$24, %esp
 3456              		.cfi_def_cfa_offset 8
 3457 001e 5B       		popl	%ebx
 3458              		.cfi_restore 3
 3459              		.cfi_def_cfa_offset 4
 3460 001f C3       		ret
 3461              		.cfi_endproc
 3462              	.LFE319:
 3463              		.size	oslib_test_002_002_teardown, .-oslib_test_002_002_teardown
 3464              		.section	.text.oslib_test_002_002_setup,"ax",@progbits
 3465              		.p2align 4
 3466              		.type	oslib_test_002_002_setup, @function
 3467              	oslib_test_002_002_setup:
 3468              	.LFB315:
 3469              		.cfi_startproc
 3470 0000 53       		pushl	%ebx
 3471              		.cfi_def_cfa_offset 8
 3472              		.cfi_offset 3, -8
 3473 0001 E8FCFFFF 		call	__x86.get_pc_thunk.bx
 3473      FF
 3474 0006 81C30200 		addl	$_GLOBAL_OFFSET_TABLE_, %ebx
 3474      0000
 3475 000c 83EC0C   		subl	$12, %esp
 3476              		.cfi_def_cfa_offset 20
 3477 000f 6A04     		pushl	$4
 3478              		.cfi_def_cfa_offset 24
 3479 0011 8D830000 		leal	mb_buffer@GOTOFF(%ebx), %eax
GAS LISTING /tmp/ccttH9cH.s 			page 68


 3479      0000
 3480 0017 50       		pushl	%eax
 3481              		.cfi_def_cfa_offset 28
 3482 0018 8D830000 		leal	mb1@GOTOFF(%ebx), %eax
 3482      0000
 3483 001e 50       		pushl	%eax
 3484              		.cfi_def_cfa_offset 32
 3485 001f E8FCFFFF 		call	chMBObjectInit@PLT
 3485      FF
 3486 0024 83C418   		addl	$24, %esp
 3487              		.cfi_def_cfa_offset 8
 3488 0027 5B       		popl	%ebx
 3489              		.cfi_restore 3
 3490              		.cfi_def_cfa_offset 4
 3491 0028 C3       		ret
 3492              		.cfi_endproc
 3493              	.LFE315:
 3494              		.size	oslib_test_002_002_setup, .-oslib_test_002_002_setup
 3495              		.section	.text.oslib_test_002_003_setup,"ax",@progbits
 3496              		.p2align 4
 3497              		.type	oslib_test_002_003_setup, @function
 3498              	oslib_test_002_003_setup:
 3499              	.LFB317:
 3500              		.cfi_startproc
 3501 0000 53       		pushl	%ebx
 3502              		.cfi_def_cfa_offset 8
 3503              		.cfi_offset 3, -8
 3504 0001 E8FCFFFF 		call	__x86.get_pc_thunk.bx
 3504      FF
 3505 0006 81C30200 		addl	$_GLOBAL_OFFSET_TABLE_, %ebx
 3505      0000
 3506 000c 83EC0C   		subl	$12, %esp
 3507              		.cfi_def_cfa_offset 20
 3508 000f 6A04     		pushl	$4
 3509              		.cfi_def_cfa_offset 24
 3510 0011 8D830000 		leal	mb_buffer@GOTOFF(%ebx), %eax
 3510      0000
 3511 0017 50       		pushl	%eax
 3512              		.cfi_def_cfa_offset 28
 3513 0018 8D830000 		leal	mb1@GOTOFF(%ebx), %eax
 3513      0000
 3514 001e 50       		pushl	%eax
 3515              		.cfi_def_cfa_offset 32
 3516 001f E8FCFFFF 		call	chMBObjectInit@PLT
 3516      FF
 3517 0024 83C418   		addl	$24, %esp
 3518              		.cfi_def_cfa_offset 8
 3519 0027 5B       		popl	%ebx
 3520              		.cfi_restore 3
 3521              		.cfi_def_cfa_offset 4
 3522 0028 C3       		ret
 3523              		.cfi_endproc
 3524              	.LFE317:
 3525              		.size	oslib_test_002_003_setup, .-oslib_test_002_003_setup
 3526              		.globl	oslib_test_sequence_002
 3527              		.section	.rodata.str1.1,"aMS",@progbits,1
 3528              	.LC12:
GAS LISTING /tmp/ccttH9cH.s 			page 69


 3529 0000 4D61696C 		.string	"Mailboxes"
 3529      626F7865 
 3529      7300
 3530              		.section	.data.rel.ro.local.oslib_test_sequence_002,"aw"
 3531              		.align 4
 3532              		.type	oslib_test_sequence_002, @object
 3533              		.size	oslib_test_sequence_002, 8
 3534              	oslib_test_sequence_002:
 3535 0000 00000000 		.long	.LC12
 3536 0004 00000000 		.long	oslib_test_sequence_002_array
 3537              		.globl	oslib_test_sequence_002_array
 3538              		.section	.data.rel.ro.local.oslib_test_sequence_002_array,"aw"
 3539              		.align 4
 3540              		.type	oslib_test_sequence_002_array, @object
 3541              		.size	oslib_test_sequence_002_array, 16
 3542              	oslib_test_sequence_002_array:
 3543 0000 00000000 		.long	oslib_test_002_001
 3544 0004 00000000 		.long	oslib_test_002_002
 3545 0008 00000000 		.long	oslib_test_002_003
 3546 000c 00000000 		.long	0
 3547              		.section	.rodata.str1.1
 3548              	.LC13:
 3549 000a 4D61696C 		.string	"Mailbox timeouts"
 3549      626F7820 
 3549      74696D65 
 3549      6F757473 
 3549      00
 3550              		.section	.data.rel.ro.local.oslib_test_002_003,"aw"
 3551              		.align 4
 3552              		.type	oslib_test_002_003, @object
 3553              		.size	oslib_test_002_003, 16
 3554              	oslib_test_002_003:
 3555 0000 0A000000 		.long	.LC13
 3556 0004 00000000 		.long	oslib_test_002_003_setup
 3557 0008 00000000 		.long	oslib_test_002_003_teardown
 3558 000c 00000000 		.long	oslib_test_002_003_execute
 3559              		.section	.rodata.str1.4,"aMS",@progbits,1
 3560              		.align 4
 3561              	.LC14:
 3562 0000 4D61696C 		.string	"Mailbox I-Class API, non-blocking tests"
 3562      626F7820 
 3562      492D436C 
 3562      61737320 
 3562      4150492C 
 3563              		.section	.data.rel.ro.local.oslib_test_002_002,"aw"
 3564              		.align 4
 3565              		.type	oslib_test_002_002, @object
 3566              		.size	oslib_test_002_002, 16
 3567              	oslib_test_002_002:
 3568 0000 00000000 		.long	.LC14
 3569 0004 00000000 		.long	oslib_test_002_002_setup
 3570 0008 00000000 		.long	oslib_test_002_002_teardown
 3571 000c 00000000 		.long	oslib_test_002_002_execute
 3572              		.section	.rodata.str1.4
 3573              		.align 4
 3574              	.LC15:
 3575 0028 4D61696C 		.string	"Mailbox normal API, non-blocking tests"
GAS LISTING /tmp/ccttH9cH.s 			page 70


 3575      626F7820 
 3575      6E6F726D 
 3575      616C2041 
 3575      50492C20 
 3576              		.section	.data.rel.ro.local.oslib_test_002_001,"aw"
 3577              		.align 4
 3578              		.type	oslib_test_002_001, @object
 3579              		.size	oslib_test_002_001, 16
 3580              	oslib_test_002_001:
 3581 0000 28000000 		.long	.LC15
 3582 0004 00000000 		.long	oslib_test_002_001_setup
 3583 0008 00000000 		.long	oslib_test_002_001_teardown
 3584 000c 00000000 		.long	oslib_test_002_001_execute
 3585              		.section	.data.rel.local.mb1,"aw"
 3586              		.align 32
 3587              		.type	mb1, @object
 3588              		.size	mb1, 40
 3589              	mb1:
 3590 0000 00000000 		.long	mb_buffer
 3591 0004 10000000 		.long	mb_buffer+16
 3592 0008 00000000 		.long	mb_buffer
 3593 000c 00000000 		.long	mb_buffer
 3594 0010 00000000 		.long	0
 3595 0014 00       		.byte	0
 3596 0015 000000   		.zero	3
 3597 0018 18000000 		.long	mb1+24
 3598 001c 18000000 		.long	mb1+24
 3599 0020 20000000 		.long	mb1+32
 3600 0024 20000000 		.long	mb1+32
 3601              		.section	.bss.mb_buffer,"aw",@nobits
 3602              		.align 4
 3603              		.type	mb_buffer, @object
 3604              		.size	mb_buffer, 16
 3605              	mb_buffer:
 3606 0000 00000000 		.zero	16
 3606      00000000 
 3606      00000000 
 3606      00000000 
 3607              		.section	.text.__x86.get_pc_thunk.bx,"axG",@progbits,__x86.get_pc_thunk.bx,comdat
 3608              		.globl	__x86.get_pc_thunk.bx
 3609              		.hidden	__x86.get_pc_thunk.bx
 3610              		.type	__x86.get_pc_thunk.bx, @function
 3611              	__x86.get_pc_thunk.bx:
 3612              	.LFB324:
 3613              		.cfi_startproc
 3614 0000 8B1C24   		movl	(%esp), %ebx
 3615 0003 C3       		ret
 3616              		.cfi_endproc
 3617              	.LFE324:
 3618              		.text
 3619              	.Letext0:
 3620              		.file 6 "/usr/lib/gcc/x86_64-linux-gnu/11/include/stddef.h"
 3621              		.file 7 "/usr/include/bits/types.h"
 3622              		.file 8 "/usr/include/bits/stdint-intn.h"
 3623              		.file 9 "/usr/include/bits/stdint-uintn.h"
 3624              		.file 10 "../../../os/common/ports/SIMIA32/compilers/GCC/chtypes.h"
 3625              		.file 11 "../../../os/rt/include/chtime.h"
GAS LISTING /tmp/ccttH9cH.s 			page 71


 3626              		.file 12 "../../../os/rt/include/chlists.h"
 3627              		.file 13 "../../../os/rt/include/chobjects.h"
 3628              		.file 14 "../../../os/hal/include/hal_streams.h"
 3629              		.file 15 "../../../os/test/include/ch_test.h"
 3630              		.file 16 "../../../test/oslib/source/test/oslib_test_sequence_002.h"
 8784 0060 2F686F6D 		.section	.note.GNU-stack,"",@progbits
 8784      652F616C 
 8784      65782F43 
 8784      68696269 
 8784      4F532F64 
GAS LISTING /tmp/ccttH9cH.s 			page 167

